; Listing generated by Microsoft (R) Optimizing Compiler Version 17.00.51106.1 

	TITLE	C:\Users\Zhitao Li\Documents\Visual Studio 2012\Projects\Freefalcon\UI\SRC\comms\serverbrowser.cpp
	.686P
	.XMM
	include listing.inc
	.model	flat

INCLUDELIB LIBCMT
INCLUDELIB OLDNAMES

PUBLIC	?traps@_Num_base@std@@2_NB			; std::_Num_base::traps
PUBLIC	?round_style@_Num_base@std@@2W4float_round_style@2@B ; std::_Num_base::round_style
PUBLIC	?digits@_Num_base@std@@2HB			; std::_Num_base::digits
PUBLIC	__GUID_e0016343_4124_48a9_9734_93f48700a04a
PUBLIC	?digits10@_Num_base@std@@2HB			; std::_Num_base::digits10
PUBLIC	?max_digits10@_Num_base@std@@2HB		; std::_Num_base::max_digits10
PUBLIC	_IID_IAxWinAmbientDispatch
PUBLIC	__GUID_36b5b50d_69bb_43d5_83f6_aaf7eb9fff7b
PUBLIC	?max_exponent@_Num_base@std@@2HB		; std::_Num_base::max_exponent
PUBLIC	?max_exponent10@_Num_base@std@@2HB		; std::_Num_base::max_exponent10
PUBLIC	__GUID_b6b03a0c_d547_11d2_9018_004f4e006398
PUBLIC	?min_exponent@_Num_base@std@@2HB		; std::_Num_base::min_exponent
PUBLIC	?min_exponent10@_Num_base@std@@2HB		; std::_Num_base::min_exponent10
PUBLIC	__GUID_d783c329_d613_11d2_9018_004f4e006398
PUBLIC	?radix@_Num_base@std@@2HB			; std::_Num_base::radix
PUBLIC	__GUID_dda57122_d4e3_11d2_9018_004f4e006398
PUBLIC	_LIBID_ATLLib
PUBLIC	__GUID_0f70ccce_d716_11d2_9018_004f4e006398
PUBLIC	__GUID_1386ae5c_d6f3_11d2_9018_004f4e006398
PUBLIC	?strVersion@@3PADA				; strVersion
PUBLIC	__GUID_1386ae5a_d6f3_11d2_9018_004f4e006398
PUBLIC	__GUID_1386ae5d_d6f3_11d2_9018_004f4e006398
PUBLIC	?is_bounded@_Num_int_base@std@@2_NB		; std::_Num_int_base::is_bounded
PUBLIC	?is_exact@_Num_int_base@std@@2_NB		; std::_Num_int_base::is_exact
PUBLIC	__GUID_df360ef0_de0d_11d2_9023_004f4e006398
PUBLIC	?is_integer@_Num_int_base@std@@2_NB		; std::_Num_int_base::is_integer
PUBLIC	?is_modulo@_Num_int_base@std@@2_NB		; std::_Num_int_base::is_modulo
PUBLIC	__GUID_90efd9f9_d7a8_11d2_901a_004f4e006398
PUBLIC	?is_specialized@_Num_int_base@std@@2_NB		; std::_Num_int_base::is_specialized
PUBLIC	?radix@_Num_int_base@std@@2HB			; std::_Num_int_base::radix
PUBLIC	__GUID_5ff85b6b_de05_42b9_831f_dc6a4e30a513
PUBLIC	?has_denorm@_Num_float_base@std@@2W4float_denorm_style@2@B ; std::_Num_float_base::has_denorm
PUBLIC	?has_denorm_loss@_Num_float_base@std@@2_NB	; std::_Num_float_base::has_denorm_loss
PUBLIC	?SIMDIRTYDATA_INTERVAL@FalconEntity@@2KB	; FalconEntity::SIMDIRTYDATA_INTERVAL
PUBLIC	?CMPDIRTYDATA_INTERVAL@FalconEntity@@2KB	; FalconEntity::CMPDIRTYDATA_INTERVAL
PUBLIC	?has_infinity@_Num_float_base@std@@2_NB		; std::_Num_float_base::has_infinity
PUBLIC	?has_quiet_NaN@_Num_float_base@std@@2_NB	; std::_Num_float_base::has_quiet_NaN
PUBLIC	?has_signaling_NaN@_Num_float_base@std@@2_NB	; std::_Num_float_base::has_signaling_NaN
PUBLIC	__GUID_fc4801a3_2ba9_11cf_a229_00aa003d7352
PUBLIC	?is_bounded@_Num_float_base@std@@2_NB		; std::_Num_float_base::is_bounded
PUBLIC	?is_exact@_Num_float_base@std@@2_NB		; std::_Num_float_base::is_exact
PUBLIC	?is_iec559@_Num_float_base@std@@2_NB		; std::_Num_float_base::is_iec559
PUBLIC	?is_integer@_Num_float_base@std@@2_NB		; std::_Num_float_base::is_integer
PUBLIC	?_pModule@ATL@@3PAVCComModule@1@A		; ATL::_pModule
PUBLIC	?is_modulo@_Num_float_base@std@@2_NB		; std::_Num_float_base::is_modulo
PUBLIC	?is_signed@_Num_float_base@std@@2_NB		; std::_Num_float_base::is_signed
PUBLIC	?is_specialized@_Num_float_base@std@@2_NB	; std::_Num_float_base::is_specialized
PUBLIC	?tinyness_before@_Num_float_base@std@@2_NB	; std::_Num_float_base::tinyness_before
PUBLIC	?traps@_Num_float_base@std@@2_NB		; std::_Num_float_base::traps
PUBLIC	?round_style@_Num_float_base@std@@2W4float_round_style@2@B ; std::_Num_float_base::round_style
PUBLIC	?radix@_Num_float_base@std@@2HB			; std::_Num_float_base::radix
PUBLIC	?is_signed@?$numeric_limits@D@std@@2_NB		; std::numeric_limits<char>::is_signed
PUBLIC	?digits@?$numeric_limits@D@std@@2HB		; std::numeric_limits<char>::digits
PUBLIC	?digits10@?$numeric_limits@D@std@@2HB		; std::numeric_limits<char>::digits10
PUBLIC	?collate@?$_Locbase@H@std@@2HB			; std::_Locbase<int>::collate
PUBLIC	?ctype@?$_Locbase@H@std@@2HB			; std::_Locbase<int>::ctype
PUBLIC	?monetary@?$_Locbase@H@std@@2HB			; std::_Locbase<int>::monetary
PUBLIC	?numeric@?$_Locbase@H@std@@2HB			; std::_Locbase<int>::numeric
PUBLIC	___pobjMapEntryFirst
PUBLIC	?time@?$_Locbase@H@std@@2HB			; std::_Locbase<int>::time
PUBLIC	___pobjMapEntryLast
PUBLIC	?messages@?$_Locbase@H@std@@2HB			; std::_Locbase<int>::messages
PUBLIC	?all@?$_Locbase@H@std@@2HB			; std::_Locbase<int>::all
PUBLIC	?none@?$_Locbase@H@std@@2HB			; std::_Locbase<int>::none
PUBLIC	??_C@_0BF@HDDNNDFH@Component?5Categories?$AA@	; `string'
PUBLIC	??_C@_08PICKODJL@FileType?$AA@			; `string'
PUBLIC	??_C@_09JKPGEJCH@Interface?$AA@			; `string'
PUBLIC	?is_signed@?$numeric_limits@_W@std@@2_NB	; std::numeric_limits<wchar_t>::is_signed
PUBLIC	??_C@_08PPIOJEA@Hardware?$AA@			; `string'
PUBLIC	??_C@_04IHBFOLAC@Mime?$AA@			; `string'
PUBLIC	?_pPerfRegFunc@ATL@@3P6AJPAUHINSTANCE__@@@ZA	; ATL::_pPerfRegFunc
PUBLIC	??_C@_03DDIMFGBA@SAM?$AA@			; `string'
PUBLIC	?_pPerfUnRegFunc@ATL@@3P6AJXZA			; ATL::_pPerfUnRegFunc
PUBLIC	??_C@_08LOPHEHKG@SECURITY?$AA@			; `string'
PUBLIC	?digits@?$numeric_limits@_W@std@@2HB		; std::numeric_limits<wchar_t>::digits
PUBLIC	?_AtlRegisterPerUser@ATL@@3_NA			; ATL::_AtlRegisterPerUser
PUBLIC	??_C@_06FDHFNJBJ@SYSTEM?$AA@			; `string'
PUBLIC	??_C@_08KEKAJNJI@Software?$AA@			; `string'
PUBLIC	??_C@_07KJLOKDKB@TypeLib?$AA@			; `string'
PUBLIC	?digits10@?$numeric_limits@_W@std@@2HB		; std::numeric_limits<wchar_t>::digits10
PUBLIC	?is_modulo@?$numeric_limits@_N@std@@2_NB	; std::numeric_limits<bool>::is_modulo
PUBLIC	?is_signed@?$numeric_limits@_N@std@@2_NB	; std::numeric_limits<bool>::is_signed
PUBLIC	?digits@?$numeric_limits@_N@std@@2HB		; std::numeric_limits<bool>::digits
PUBLIC	?digits10@?$numeric_limits@_N@std@@2HB		; std::numeric_limits<bool>::digits10
PUBLIC	__GUID_00000000_0000_0000_0000_000000000000
PUBLIC	?is_signed@?$numeric_limits@C@std@@2_NB		; std::numeric_limits<signed char>::is_signed
PUBLIC	__GUID_0000010c_0000_0000_c000_000000000046
PUBLIC	?digits@?$numeric_limits@C@std@@2HB		; std::numeric_limits<signed char>::digits
PUBLIC	__GUID_0002e012_0000_0000_c000_000000000046
PUBLIC	?digits10@?$numeric_limits@C@std@@2HB		; std::numeric_limits<signed char>::digits10
PUBLIC	?table_size@?$ctype@D@std@@2IB			; std::ctype<char>::table_size
PUBLIC	?is_signed@?$numeric_limits@E@std@@2_NB		; std::numeric_limits<unsigned char>::is_signed
PUBLIC	?value@?$integral_constant@_N$0A@@std@@2_NB	; std::integral_constant<bool,0>::value
PUBLIC	_IID_IAxWinAmbientDispatchEx
PUBLIC	?digits@?$numeric_limits@E@std@@2HB		; std::numeric_limits<unsigned char>::digits
PUBLIC	?digits10@?$numeric_limits@E@std@@2HB		; std::numeric_limits<unsigned char>::digits10
PUBLIC	__GUID_00000109_0000_0000_c000_000000000046
PUBLIC	__GUID_7fd52380_4e07_101b_ae2d_08002b2ec713
PUBLIC	?value@?$integral_constant@_N$00@std@@2_NB	; std::integral_constant<bool,1>::value
PUBLIC	_IID_IInternalConnection
PUBLIC	??_C@_05GIBEAPNE@CLSID?$AA@			; `string'
PUBLIC	__GUID_45292708_37a2_483b_8e4a_e3b61f537a0f
PUBLIC	?is_signed@?$numeric_limits@F@std@@2_NB		; std::numeric_limits<short>::is_signed
PUBLIC	?digits@?$numeric_limits@F@std@@2HB		; std::numeric_limits<short>::digits
PUBLIC	?digits10@?$numeric_limits@F@std@@2HB		; std::numeric_limits<short>::digits10
PUBLIC	??_C@_05PDIKPLII@AppID?$AA@			; `string'
PUBLIC	?is_signed@?$numeric_limits@G@std@@2_NB		; std::numeric_limits<unsigned short>::is_signed
PUBLIC	?digits@?$numeric_limits@G@std@@2HB		; std::numeric_limits<unsigned short>::digits
PUBLIC	?digits10@?$numeric_limits@G@std@@2HB		; std::numeric_limits<unsigned short>::digits10
PUBLIC	?is_signed@?$numeric_limits@H@std@@2_NB		; std::numeric_limits<int>::is_signed
PUBLIC	?chDirSep@ATL@@3DB				; ATL::chDirSep
PUBLIC	?value@?$_Sizeof@HU_Nil@std@@U12@U12@U12@U12@U12@U12@@std@@2IB ; std::_Sizeof<int,std::_Nil,std::_Nil,std::_Nil,std::_Nil,std::_Nil,std::_Nil,std::_Nil>::value
PUBLIC	?chRightBracket@ATL@@3DB			; ATL::chRightBracket
PUBLIC	?chLeftBracket@ATL@@3DB				; ATL::chLeftBracket
PUBLIC	__GUID_a6bc3ac0_dbaa_11ce_9de3_00aa004bb851
PUBLIC	?chQuote@ATL@@3DB				; ATL::chQuote
PUBLIC	?digits@?$numeric_limits@H@std@@2HB		; std::numeric_limits<int>::digits
PUBLIC	?chEquals@ATL@@3DB				; ATL::chEquals
PUBLIC	?szStringVal@ATL@@3QBDB				; ATL::szStringVal
PUBLIC	??_C@_01CPLAODJH@S?$AA@				; `string'
PUBLIC	?multiszStringVal@ATL@@3QBDB			; ATL::multiszStringVal
PUBLIC	?digits10@?$numeric_limits@H@std@@2HB		; std::numeric_limits<int>::digits10
PUBLIC	??_C@_01PLPBNMEI@M?$AA@				; `string'
PUBLIC	?szDwordVal@ATL@@3QBDB				; ATL::szDwordVal
PUBLIC	??_C@_01CKDDGHAB@D?$AA@				; `string'
PUBLIC	?szBinaryVal@ATL@@3QBDB				; ATL::szBinaryVal
PUBLIC	??_C@_01HMGJMAIH@B?$AA@				; `string'
PUBLIC	?szValToken@ATL@@3QBDB				; ATL::szValToken
PUBLIC	??_C@_03LAIAPFCB@Val?$AA@			; `string'
PUBLIC	?szForceRemove@ATL@@3QBDB			; ATL::szForceRemove
PUBLIC	??_C@_0M@DBGDLGLL@ForceRemove?$AA@		; `string'
PUBLIC	?szNoRemove@ATL@@3QBDB				; ATL::szNoRemove
PUBLIC	??_C@_08KAAPDIAN@NoRemove?$AA@			; `string'
PUBLIC	?szDelete@ATL@@3QBDB				; ATL::szDelete
PUBLIC	??_C@_06JBKGCNBB@Delete?$AA@			; `string'
PUBLIC	?m_eFilterMode@@3W4_FILTER_MODE@@A		; m_eFilterMode
PUBLIC	?ATL_CREATE_OBJECT@CComApartment@ATL@@2IA	; ATL::CComApartment::ATL_CREATE_OBJECT
PUBLIC	?is_signed@?$numeric_limits@I@std@@2_NB		; std::numeric_limits<unsigned int>::is_signed
PUBLIC	?_Min@?$AtlLimits@H@ATL@@2HB			; ATL::AtlLimits<int>::_Min
PUBLIC	?_Max@?$AtlLimits@H@ATL@@2HB			; ATL::AtlLimits<int>::_Max
PUBLIC	?digits@?$numeric_limits@I@std@@2HB		; std::numeric_limits<unsigned int>::digits
PUBLIC	?digits10@?$numeric_limits@I@std@@2HB		; std::numeric_limits<unsigned int>::digits10
PUBLIC	?_Min@?$AtlLimits@I@ATL@@2IB			; ATL::AtlLimits<unsigned int>::_Min
PUBLIC	?_Max@?$AtlLimits@I@ATL@@2IB			; ATL::AtlLimits<unsigned int>::_Max
PUBLIC	?_Min@?$AtlLimits@J@ATL@@2JB			; ATL::AtlLimits<long>::_Min
PUBLIC	?_Max@?$AtlLimits@J@ATL@@2JB			; ATL::AtlLimits<long>::_Max
PUBLIC	?_Min@?$AtlLimits@K@ATL@@2KB			; ATL::AtlLimits<unsigned long>::_Min
PUBLIC	?is_signed@?$numeric_limits@J@std@@2_NB		; std::numeric_limits<long>::is_signed
PUBLIC	?_Max@?$AtlLimits@K@ATL@@2KB			; ATL::AtlLimits<unsigned long>::_Max
PUBLIC	?digits@?$numeric_limits@J@std@@2HB		; std::numeric_limits<long>::digits
PUBLIC	?digits10@?$numeric_limits@J@std@@2HB		; std::numeric_limits<long>::digits10
PUBLIC	?_Min@?$AtlLimits@_J@ATL@@2_JB			; ATL::AtlLimits<__int64>::_Min
PUBLIC	?_Max@?$AtlLimits@_J@ATL@@2_JB			; ATL::AtlLimits<__int64>::_Max
PUBLIC	__GUID_00020400_0000_0000_c000_000000000046
PUBLIC	?_Min@?$AtlLimits@_K@ATL@@2_KB			; ATL::AtlLimits<unsigned __int64>::_Min
PUBLIC	?_Max@?$AtlLimits@_K@ATL@@2_KB			; ATL::AtlLimits<unsigned __int64>::_Max
PUBLIC	?VT@?$CVarTypeInfo@D@ATL@@2GB			; ATL::CVarTypeInfo<char>::VT
PUBLIC	?_pAtlAutoThreadModule@ATL@@3PAUIAtlAutoThreadModule@1@A ; ATL::_pAtlAutoThreadModule
PUBLIC	?pmField@?$CVarTypeInfo@D@ATL@@2QQtagVARIANT@@DQ3@ ; ATL::CVarTypeInfo<char>::pmField
PUBLIC	?is_signed@?$numeric_limits@K@std@@2_NB		; std::numeric_limits<unsigned long>::is_signed
PUBLIC	?digits@?$numeric_limits@K@std@@2HB		; std::numeric_limits<unsigned long>::digits
PUBLIC	?VT@?$CVarTypeInfo@E@ATL@@2GB			; ATL::CVarTypeInfo<unsigned char>::VT
PUBLIC	?digits10@?$numeric_limits@K@std@@2HB		; std::numeric_limits<unsigned long>::digits10
PUBLIC	?pmField@?$CVarTypeInfo@E@ATL@@2QQtagVARIANT@@EQ3@ ; ATL::CVarTypeInfo<unsigned char>::pmField
PUBLIC	_CLSID_Registrar
PUBLIC	?VT@?$CVarTypeInfo@PAD@ATL@@2GB			; ATL::CVarTypeInfo<char *>::VT
PUBLIC	?pmField@?$CVarTypeInfo@PAD@ATL@@2QQtagVARIANT@@PADQ3@ ; ATL::CVarTypeInfo<char *>::pmField
PUBLIC	?VT@?$CVarTypeInfo@PAE@ATL@@2GB			; ATL::CVarTypeInfo<unsigned char *>::VT
PUBLIC	?pmField@?$CVarTypeInfo@PAE@ATL@@2QQtagVARIANT@@PAEQ3@ ; ATL::CVarTypeInfo<unsigned char *>::pmField
PUBLIC	?is_signed@?$numeric_limits@_J@std@@2_NB	; std::numeric_limits<__int64>::is_signed
PUBLIC	?digits@?$numeric_limits@_J@std@@2HB		; std::numeric_limits<__int64>::digits
PUBLIC	_IID_IRegistrar
PUBLIC	?digits10@?$numeric_limits@_J@std@@2HB		; std::numeric_limits<__int64>::digits10
PUBLIC	?VT@?$CVarTypeInfo@F@ATL@@2GB			; ATL::CVarTypeInfo<short>::VT
PUBLIC	?pmField@?$CVarTypeInfo@F@ATL@@2QQtagVARIANT@@FQ3@ ; ATL::CVarTypeInfo<short>::pmField
PUBLIC	_LIBID_SHAREDLib
PUBLIC	_CLSID_Host
PUBLIC	_IID_IHost
PUBLIC	_CLSID_Player
PUBLIC	?VT@?$CVarTypeInfo@PAF@ATL@@2GB			; ATL::CVarTypeInfo<short *>::VT
PUBLIC	_IID_IPlayer
PUBLIC	_CLSID_RemoteMasterServer
PUBLIC	?pmField@?$CVarTypeInfo@PAF@ATL@@2QQtagVARIANT@@PAFQ3@ ; ATL::CVarTypeInfo<short *>::pmField
PUBLIC	_IID_IMasterServer
PUBLIC	_IID_IRemoteMasterServer
PUBLIC	_IID_IRemoteMasterServerEvents
PUBLIC	_IID_IGame
PUBLIC	_IID_IGameEvents
PUBLIC	?VT@?$CVarTypeInfo@G@ATL@@2GB			; ATL::CVarTypeInfo<unsigned short>::VT
PUBLIC	?pmField@?$CVarTypeInfo@G@ATL@@2QQtagVARIANT@@GQ3@ ; ATL::CVarTypeInfo<unsigned short>::pmField
PUBLIC	?is_signed@?$numeric_limits@_K@std@@2_NB	; std::numeric_limits<unsigned __int64>::is_signed
PUBLIC	?digits@?$numeric_limits@_K@std@@2HB		; std::numeric_limits<unsigned __int64>::digits
PUBLIC	?digits10@?$numeric_limits@_K@std@@2HB		; std::numeric_limits<unsigned __int64>::digits10
PUBLIC	?VT@?$CVarTypeInfo@PAG@ATL@@2GB			; ATL::CVarTypeInfo<unsigned short *>::VT
PUBLIC	?pmField@?$CVarTypeInfo@PAG@ATL@@2QQtagVARIANT@@PAGQ3@ ; ATL::CVarTypeInfo<unsigned short *>::pmField
PUBLIC	?VT@?$CVarTypeInfo@H@ATL@@2GB			; ATL::CVarTypeInfo<int>::VT
PUBLIC	?pmField@?$CVarTypeInfo@H@ATL@@2QQtagVARIANT@@HQ3@ ; ATL::CVarTypeInfo<int>::pmField
PUBLIC	?VT@?$CVarTypeInfo@PAH@ATL@@2GB			; ATL::CVarTypeInfo<int *>::VT
PUBLIC	?pmField@?$CVarTypeInfo@PAH@ATL@@2QQtagVARIANT@@PAHQ3@ ; ATL::CVarTypeInfo<int *>::pmField
PUBLIC	?digits@?$numeric_limits@M@std@@2HB		; std::numeric_limits<float>::digits
PUBLIC	?digits10@?$numeric_limits@M@std@@2HB		; std::numeric_limits<float>::digits10
PUBLIC	__GUID_00020401_0000_0000_c000_000000000046
PUBLIC	?max_digits10@?$numeric_limits@M@std@@2HB	; std::numeric_limits<float>::max_digits10
PUBLIC	?MAX_VALUE@CRegParser@ATL@@1HB			; ATL::CRegParser::MAX_VALUE
PUBLIC	__GUID_00020412_0000_0000_c000_000000000046
PUBLIC	?max_exponent@?$numeric_limits@M@std@@2HB	; std::numeric_limits<float>::max_exponent
PUBLIC	?VT@?$CVarTypeInfo@I@ATL@@2GB			; ATL::CVarTypeInfo<unsigned int>::VT
PUBLIC	?pmField@?$CVarTypeInfo@I@ATL@@2QQtagVARIANT@@IQ3@ ; ATL::CVarTypeInfo<unsigned int>::pmField
PUBLIC	?max_exponent10@?$numeric_limits@M@std@@2HB	; std::numeric_limits<float>::max_exponent10
PUBLIC	?min_exponent@?$numeric_limits@M@std@@2HB	; std::numeric_limits<float>::min_exponent
PUBLIC	?min_exponent10@?$numeric_limits@M@std@@2HB	; std::numeric_limits<float>::min_exponent10
PUBLIC	?VT@?$CVarTypeInfo@PAI@ATL@@2GB			; ATL::CVarTypeInfo<unsigned int *>::VT
PUBLIC	?pmField@?$CVarTypeInfo@PAI@ATL@@2QQtagVARIANT@@PAIQ3@ ; ATL::CVarTypeInfo<unsigned int *>::pmField
PUBLIC	__GUID_00000000_0000_0000_c000_000000000046
PUBLIC	?VT@?$CVarTypeInfo@J@ATL@@2GB			; ATL::CVarTypeInfo<long>::VT
PUBLIC	?pmField@?$CVarTypeInfo@J@ATL@@2QQtagVARIANT@@JQ3@ ; ATL::CVarTypeInfo<long>::pmField
PUBLIC	?rgszNeverDelete@CRegParser@ATL@@1QBQBDB	; ATL::CRegParser::rgszNeverDelete
PUBLIC	?cbNeverDelete@CRegParser@ATL@@1HB		; ATL::CRegParser::cbNeverDelete
PUBLIC	?VT@?$CVarTypeInfo@PAJ@ATL@@2GB			; ATL::CVarTypeInfo<long *>::VT
PUBLIC	?value@?$integral_constant@I$0A@@std@@2IB	; std::integral_constant<unsigned int,0>::value
PUBLIC	?MAX_TYPE@CRegParser@ATL@@1HB			; ATL::CRegParser::MAX_TYPE
PUBLIC	?pmField@?$CVarTypeInfo@PAJ@ATL@@2QQtagVARIANT@@PAJQ3@ ; ATL::CVarTypeInfo<long *>::pmField
PUBLIC	?digits@?$numeric_limits@N@std@@2HB		; std::numeric_limits<double>::digits
PUBLIC	_IID_IDocHostUIHandlerDispatch
PUBLIC	?digits10@?$numeric_limits@N@std@@2HB		; std::numeric_limits<double>::digits10
PUBLIC	__GUID_00000001_0000_0000_c000_000000000046
PUBLIC	?max_digits10@?$numeric_limits@N@std@@2HB	; std::numeric_limits<double>::max_digits10
PUBLIC	?max_exponent@?$numeric_limits@N@std@@2HB	; std::numeric_limits<double>::max_exponent
PUBLIC	?VT@?$CVarTypeInfo@K@ATL@@2GB			; ATL::CVarTypeInfo<unsigned long>::VT
PUBLIC	?pmField@?$CVarTypeInfo@K@ATL@@2QQtagVARIANT@@KQ3@ ; ATL::CVarTypeInfo<unsigned long>::pmField
PUBLIC	?max_exponent10@?$numeric_limits@N@std@@2HB	; std::numeric_limits<double>::max_exponent10
PUBLIC	?min_exponent@?$numeric_limits@N@std@@2HB	; std::numeric_limits<double>::min_exponent
PUBLIC	?min_exponent10@?$numeric_limits@N@std@@2HB	; std::numeric_limits<double>::min_exponent10
PUBLIC	?VT@?$CVarTypeInfo@PAK@ATL@@2GB			; ATL::CVarTypeInfo<unsigned long *>::VT
PUBLIC	?pmField@?$CVarTypeInfo@PAK@ATL@@2QQtagVARIANT@@PAKQ3@ ; ATL::CVarTypeInfo<unsigned long *>::pmField
PUBLIC	__GUID_b196b284_bab4_101a_b69c_00aa00341d07
PUBLIC	?VT@?$CVarTypeInfo@_J@ATL@@2GB			; ATL::CVarTypeInfo<__int64>::VT
PUBLIC	?pmField@?$CVarTypeInfo@_J@ATL@@2QQtagVARIANT@@_JQ3@ ; ATL::CVarTypeInfo<__int64>::pmField
PUBLIC	?VT@?$CVarTypeInfo@PA_J@ATL@@2GB		; ATL::CVarTypeInfo<__int64 *>::VT
PUBLIC	?pmField@?$CVarTypeInfo@PA_J@ATL@@2QQtagVARIANT@@PA_JQ3@ ; ATL::CVarTypeInfo<__int64 *>::pmField
PUBLIC	?digits@?$numeric_limits@O@std@@2HB		; std::numeric_limits<long double>::digits
PUBLIC	?digits10@?$numeric_limits@O@std@@2HB		; std::numeric_limits<long double>::digits10
PUBLIC	?skipws@?$_Iosb@H@std@@2W4_Fmtflags@12@B	; std::_Iosb<int>::skipws
PUBLIC	?max_digits10@?$numeric_limits@O@std@@2HB	; std::numeric_limits<long double>::max_digits10
PUBLIC	?unitbuf@?$_Iosb@H@std@@2W4_Fmtflags@12@B	; std::_Iosb<int>::unitbuf
PUBLIC	?max_exponent@?$numeric_limits@O@std@@2HB	; std::numeric_limits<long double>::max_exponent
PUBLIC	?VT@?$CVarTypeInfo@_K@ATL@@2GB			; ATL::CVarTypeInfo<unsigned __int64>::VT
PUBLIC	?uppercase@?$_Iosb@H@std@@2W4_Fmtflags@12@B	; std::_Iosb<int>::uppercase
PUBLIC	?pmField@?$CVarTypeInfo@_K@ATL@@2QQtagVARIANT@@_KQ3@ ; ATL::CVarTypeInfo<unsigned __int64>::pmField
PUBLIC	?showbase@?$_Iosb@H@std@@2W4_Fmtflags@12@B	; std::_Iosb<int>::showbase
PUBLIC	?max_exponent10@?$numeric_limits@O@std@@2HB	; std::numeric_limits<long double>::max_exponent10
PUBLIC	?showpoint@?$_Iosb@H@std@@2W4_Fmtflags@12@B	; std::_Iosb<int>::showpoint
PUBLIC	?min_exponent@?$numeric_limits@O@std@@2HB	; std::numeric_limits<long double>::min_exponent
PUBLIC	?showpos@?$_Iosb@H@std@@2W4_Fmtflags@12@B	; std::_Iosb<int>::showpos
PUBLIC	?min_exponent10@?$numeric_limits@O@std@@2HB	; std::numeric_limits<long double>::min_exponent10
PUBLIC	?left@?$_Iosb@H@std@@2W4_Fmtflags@12@B		; std::_Iosb<int>::left
PUBLIC	?VT@?$CVarTypeInfo@PA_K@ATL@@2GB		; ATL::CVarTypeInfo<unsigned __int64 *>::VT
PUBLIC	?pmField@?$CVarTypeInfo@PA_K@ATL@@2QQtagVARIANT@@PA_KQ3@ ; ATL::CVarTypeInfo<unsigned __int64 *>::pmField
PUBLIC	?right@?$_Iosb@H@std@@2W4_Fmtflags@12@B		; std::_Iosb<int>::right
PUBLIC	?internal@?$_Iosb@H@std@@2W4_Fmtflags@12@B	; std::_Iosb<int>::internal
PUBLIC	?dec@?$_Iosb@H@std@@2W4_Fmtflags@12@B		; std::_Iosb<int>::dec
PUBLIC	?oct@?$_Iosb@H@std@@2W4_Fmtflags@12@B		; std::_Iosb<int>::oct
PUBLIC	?VT@?$CVarTypeInfo@M@ATL@@2GB			; ATL::CVarTypeInfo<float>::VT
PUBLIC	?hex@?$_Iosb@H@std@@2W4_Fmtflags@12@B		; std::_Iosb<int>::hex
PUBLIC	?pmField@?$CVarTypeInfo@M@ATL@@2QQtagVARIANT@@MQ3@ ; ATL::CVarTypeInfo<float>::pmField
PUBLIC	?scientific@?$_Iosb@H@std@@2W4_Fmtflags@12@B	; std::_Iosb<int>::scientific
PUBLIC	?fixed@?$_Iosb@H@std@@2W4_Fmtflags@12@B		; std::_Iosb<int>::fixed
PUBLIC	?hexfloat@?$_Iosb@H@std@@2W4_Fmtflags@12@B	; std::_Iosb<int>::hexfloat
PUBLIC	?VT@?$CVarTypeInfo@PAM@ATL@@2GB			; ATL::CVarTypeInfo<float *>::VT
PUBLIC	?boolalpha@?$_Iosb@H@std@@2W4_Fmtflags@12@B	; std::_Iosb<int>::boolalpha
PUBLIC	?pmField@?$CVarTypeInfo@PAM@ATL@@2QQtagVARIANT@@PAMQ3@ ; ATL::CVarTypeInfo<float *>::pmField
PUBLIC	?_Stdio@?$_Iosb@H@std@@2W4_Fmtflags@12@B	; std::_Iosb<int>::_Stdio
PUBLIC	?adjustfield@?$_Iosb@H@std@@2W4_Fmtflags@12@B	; std::_Iosb<int>::adjustfield
PUBLIC	?basefield@?$_Iosb@H@std@@2W4_Fmtflags@12@B	; std::_Iosb<int>::basefield
PUBLIC	?floatfield@?$_Iosb@H@std@@2W4_Fmtflags@12@B	; std::_Iosb<int>::floatfield
PUBLIC	?VT@?$CVarTypeInfo@N@ATL@@2GB			; ATL::CVarTypeInfo<double>::VT
PUBLIC	?pmField@?$CVarTypeInfo@N@ATL@@2QQtagVARIANT@@NQ3@ ; ATL::CVarTypeInfo<double>::pmField
PUBLIC	?goodbit@?$_Iosb@H@std@@2W4_Iostate@12@B	; std::_Iosb<int>::goodbit
PUBLIC	?eofbit@?$_Iosb@H@std@@2W4_Iostate@12@B		; std::_Iosb<int>::eofbit
PUBLIC	?failbit@?$_Iosb@H@std@@2W4_Iostate@12@B	; std::_Iosb<int>::failbit
PUBLIC	?VT@?$CVarTypeInfo@PAN@ATL@@2GB			; ATL::CVarTypeInfo<double *>::VT
PUBLIC	?badbit@?$_Iosb@H@std@@2W4_Iostate@12@B		; std::_Iosb<int>::badbit
PUBLIC	?pmField@?$CVarTypeInfo@PAN@ATL@@2QQtagVARIANT@@PANQ3@ ; ATL::CVarTypeInfo<double *>::pmField
PUBLIC	?_Hardfail@?$_Iosb@H@std@@2W4_Iostate@12@B	; std::_Iosb<int>::_Hardfail
PUBLIC	?in@?$_Iosb@H@std@@2W4_Openmode@12@B		; std::_Iosb<int>::in
PUBLIC	?out@?$_Iosb@H@std@@2W4_Openmode@12@B		; std::_Iosb<int>::out
PUBLIC	?VT@?$CVarTypeInfo@PAUtagVARIANT@@@ATL@@2GB	; ATL::CVarTypeInfo<tagVARIANT *>::VT
PUBLIC	?ate@?$_Iosb@H@std@@2W4_Openmode@12@B		; std::_Iosb<int>::ate
PUBLIC	?app@?$_Iosb@H@std@@2W4_Openmode@12@B		; std::_Iosb<int>::app
PUBLIC	?trunc@?$_Iosb@H@std@@2W4_Openmode@12@B		; std::_Iosb<int>::trunc
PUBLIC	?VT@?$CVarTypeInfo@PA_W@ATL@@2GB		; ATL::CVarTypeInfo<wchar_t *>::VT
PUBLIC	?_Nocreate@?$_Iosb@H@std@@2W4_Openmode@12@B	; std::_Iosb<int>::_Nocreate
PUBLIC	?pmField@?$CVarTypeInfo@PA_W@ATL@@2QQtagVARIANT@@PA_WQ3@ ; ATL::CVarTypeInfo<wchar_t *>::pmField
PUBLIC	?_Noreplace@?$_Iosb@H@std@@2W4_Openmode@12@B	; std::_Iosb<int>::_Noreplace
PUBLIC	?binary@?$_Iosb@H@std@@2W4_Openmode@12@B	; std::_Iosb<int>::binary
PUBLIC	?_pAtlModule@ATL@@3PAVCAtlModule@1@A		; ATL::_pAtlModule
PUBLIC	?beg@?$_Iosb@H@std@@2W4_Seekdir@12@B		; std::_Iosb<int>::beg
PUBLIC	?VT@?$CVarTypeInfo@PAPA_W@ATL@@2GB		; ATL::CVarTypeInfo<wchar_t * *>::VT
PUBLIC	?cur@?$_Iosb@H@std@@2W4_Seekdir@12@B		; std::_Iosb<int>::cur
PUBLIC	?pmField@?$CVarTypeInfo@PAPA_W@ATL@@2QQtagVARIANT@@PAPA_WQ3@ ; ATL::CVarTypeInfo<wchar_t * *>::pmField
PUBLIC	?m_libid@CAtlModule@ATL@@2U_GUID@@A		; ATL::CAtlModule::m_libid
PUBLIC	?end@?$_Iosb@H@std@@2W4_Seekdir@12@B		; std::_Iosb<int>::end
PUBLIC	?VT@?$CVarTypeInfo@PAUIUnknown@@@ATL@@2GB	; ATL::CVarTypeInfo<IUnknown *>::VT
PUBLIC	?pmField@?$CVarTypeInfo@PAUIUnknown@@@ATL@@2QQtagVARIANT@@PAUIUnknown@@Q3@ ; ATL::CVarTypeInfo<IUnknown *>::pmField
PUBLIC	?VT@?$CVarTypeInfo@PAPAUIUnknown@@@ATL@@2GB	; ATL::CVarTypeInfo<IUnknown * *>::VT
PUBLIC	?pmField@?$CVarTypeInfo@PAPAUIUnknown@@@ATL@@2QQtagVARIANT@@PAPAUIUnknown@@Q3@ ; ATL::CVarTypeInfo<IUnknown * *>::pmField
PUBLIC	?_Stream_err@failure@ios_base@std@@0W4io_errc@43@B ; std::ios_base::failure::_Stream_err
PUBLIC	?VT@?$CVarTypeInfo@PAUIDispatch@@@ATL@@2GB	; ATL::CVarTypeInfo<IDispatch *>::VT
PUBLIC	?value@?$_Sizeof@U_Nil@std@@U12@U12@U12@U12@U12@U12@U12@@std@@2IB ; std::_Sizeof<std::_Nil,std::_Nil,std::_Nil,std::_Nil,std::_Nil,std::_Nil,std::_Nil,std::_Nil>::value
PUBLIC	?pmField@?$CVarTypeInfo@PAUIDispatch@@@ATL@@2QQtagVARIANT@@PAUIDispatch@@Q3@ ; ATL::CVarTypeInfo<IDispatch *>::pmField
PUBLIC	__GUID_1cf2b120_547d_101b_8e65_08002b2bd119
PUBLIC	_IID_IAxWinHostWindow
PUBLIC	?VT@?$CVarTypeInfo@PAPAUIDispatch@@@ATL@@2GB	; ATL::CVarTypeInfo<IDispatch * *>::VT
PUBLIC	?pmField@?$CVarTypeInfo@PAPAUIDispatch@@@ATL@@2QQtagVARIANT@@PAPAUIDispatch@@Q3@ ; ATL::CVarTypeInfo<IDispatch * *>::pmField
PUBLIC	?VT@?$CVarTypeInfo@TtagCY@@@ATL@@2GB		; ATL::CVarTypeInfo<tagCY>::VT
PUBLIC	?pmField@?$CVarTypeInfo@TtagCY@@@ATL@@2QQtagVARIANT@@TtagCY@@Q3@ ; ATL::CVarTypeInfo<tagCY>::pmField
PUBLIC	?VT@?$CVarTypeInfo@PATtagCY@@@ATL@@2GB		; ATL::CVarTypeInfo<tagCY *>::VT
PUBLIC	?pmField@?$CVarTypeInfo@PATtagCY@@@ATL@@2QQtagVARIANT@@PATtagCY@@Q3@ ; ATL::CVarTypeInfo<tagCY *>::pmField
PUBLIC	__GUID_00000146_0000_0000_c000_000000000046
PUBLIC	?m_bInitFailed@CAtlBaseModule@ATL@@2_NA		; ATL::CAtlBaseModule::m_bInitFailed
PUBLIC	__GUID_8edbef0a_aeb1_48ad_9ed2_bd41cd1075bd
PUBLIC	?has_denorm@_Num_base@std@@2W4float_denorm_style@2@B ; std::_Num_base::has_denorm
PUBLIC	?has_denorm_loss@_Num_base@std@@2_NB		; std::_Num_base::has_denorm_loss
PUBLIC	_IID_IAxWinHostWindowLic
PUBLIC	__GUID_dda57120_d4e3_11d2_9018_004f4e006398
PUBLIC	?has_infinity@_Num_base@std@@2_NB		; std::_Num_base::has_infinity
PUBLIC	?has_quiet_NaN@_Num_base@std@@2_NB		; std::_Num_base::has_quiet_NaN
PUBLIC	__GUID_dda57123_d4e3_11d2_9018_004f4e006398
PUBLIC	?has_signaling_NaN@_Num_base@std@@2_NB		; std::_Num_base::has_signaling_NaN
PUBLIC	?is_bounded@_Num_base@std@@2_NB			; std::_Num_base::is_bounded
PUBLIC	__GUID_b8d1f614_d5e4_4bd1_8f01_17371deaf685
PUBLIC	?is_exact@_Num_base@std@@2_NB			; std::_Num_base::is_exact
PUBLIC	?is_iec559@_Num_base@std@@2_NB			; std::_Num_base::is_iec559
PUBLIC	__GUID_dda57125_d4e3_11d2_9018_004f4e006398
PUBLIC	?is_integer@_Num_base@std@@2_NB			; std::_Num_base::is_integer
PUBLIC	?is_modulo@_Num_base@std@@2_NB			; std::_Num_base::is_modulo
PUBLIC	__GUID_dda57127_d4e3_11d2_9018_004f4e006398
PUBLIC	?is_signed@_Num_base@std@@2_NB			; std::_Num_base::is_signed
PUBLIC	?is_specialized@_Num_base@std@@2_NB		; std::_Num_base::is_specialized
PUBLIC	__GUID_9d9bb9a8_d54c_11d2_9018_004f4e006398
PUBLIC	?tinyness_before@_Num_base@std@@2_NB		; std::_Num_base::tinyness_before
_BSS	SEGMENT
?strVersion@@3PADA DB 020H DUP (?)			; strVersion
_BSS	ENDS
;	COMDAT ?_pModule@ATL@@3PAVCComModule@1@A
_BSS	SEGMENT
?_pModule@ATL@@3PAVCComModule@1@A DD 01H DUP (?)	; ATL::_pModule
_BSS	ENDS
;	COMDAT ?_pPerfRegFunc@ATL@@3P6AJPAUHINSTANCE__@@@ZA
_BSS	SEGMENT
?_pPerfRegFunc@ATL@@3P6AJPAUHINSTANCE__@@@ZA DD 01H DUP (?) ; ATL::_pPerfRegFunc
_BSS	ENDS
;	COMDAT ?_pPerfUnRegFunc@ATL@@3P6AJXZA
_BSS	SEGMENT
?_pPerfUnRegFunc@ATL@@3P6AJXZA DD 01H DUP (?)		; ATL::_pPerfUnRegFunc
_BSS	ENDS
;	COMDAT ?_AtlRegisterPerUser@ATL@@3_NA
_BSS	SEGMENT
?_AtlRegisterPerUser@ATL@@3_NA DB 01H DUP (?)		; ATL::_AtlRegisterPerUser
_BSS	ENDS
_BSS	SEGMENT
_m_nUpdatedServers DD 01H DUP (?)
_m_pListServers DD 01H DUP (?)
_m_pSelectedItem DD 01H DUP (?)
_m_pUpdater DD	01H DUP (?)
_m_hEventShutdown DD 01H DUP (?)
_m_bConnectedToMaster DB 01H DUP (?)
	ALIGN	4

_m_bShutdownPending DB 01H DUP (?)
	ALIGN	4

_m_bCloseWindowPending DB 01H DUP (?)
	ALIGN	4

_m_bConnectPending DB 01H DUP (?)
	ALIGN	4

?m_eFilterMode@@3W4_FILTER_MODE@@A DD 01H DUP (?)	; m_eFilterMode
_BSS	ENDS
;	COMDAT ?ATL_CREATE_OBJECT@CComApartment@ATL@@2IA
_BSS	SEGMENT
?ATL_CREATE_OBJECT@CComApartment@ATL@@2IA DD 01H DUP (?) ; ATL::CComApartment::ATL_CREATE_OBJECT
_BSS	ENDS
;	COMDAT ?_pAtlAutoThreadModule@ATL@@3PAUIAtlAutoThreadModule@1@A
_BSS	SEGMENT
?_pAtlAutoThreadModule@ATL@@3PAUIAtlAutoThreadModule@1@A DD 01H DUP (?) ; ATL::_pAtlAutoThreadModule
_BSS	ENDS
;	COMDAT ?_pAtlModule@ATL@@3PAVCAtlModule@1@A
_BSS	SEGMENT
?_pAtlModule@ATL@@3PAVCAtlModule@1@A DD 01H DUP (?)	; ATL::_pAtlModule
_BSS	ENDS
;	COMDAT ?m_libid@CAtlModule@ATL@@2U_GUID@@A
_BSS	SEGMENT
?m_libid@CAtlModule@ATL@@2U_GUID@@A DB 010H DUP (?)	; ATL::CAtlModule::m_libid
_BSS	ENDS
;	COMDAT ?m_bInitFailed@CAtlBaseModule@ATL@@2_NA
_BSS	SEGMENT
?m_bInitFailed@CAtlBaseModule@ATL@@2_NA DB 01H DUP (?)	; ATL::CAtlBaseModule::m_bInitFailed
_BSS	ENDS
;	COMDAT ?tinyness_before@_Num_base@std@@2_NB
CONST	SEGMENT
?tinyness_before@_Num_base@std@@2_NB DB 00H		; std::_Num_base::tinyness_before
CONST	ENDS
;	COMDAT __GUID_9d9bb9a8_d54c_11d2_9018_004f4e006398
CONST	SEGMENT
__GUID_9d9bb9a8_d54c_11d2_9018_004f4e006398 DD 09d9bb9a8H
	DW	0d54cH
	DW	011d2H
	DB	090H
	DB	018H
	DB	00H
	DB	04fH
	DB	04eH
	DB	00H
	DB	063H
	DB	098H
CONST	ENDS
;	COMDAT ?is_specialized@_Num_base@std@@2_NB
CONST	SEGMENT
?is_specialized@_Num_base@std@@2_NB DB 00H		; std::_Num_base::is_specialized
CONST	ENDS
;	COMDAT ?is_signed@_Num_base@std@@2_NB
CONST	SEGMENT
?is_signed@_Num_base@std@@2_NB DB 00H			; std::_Num_base::is_signed
CONST	ENDS
;	COMDAT __GUID_dda57127_d4e3_11d2_9018_004f4e006398
CONST	SEGMENT
__GUID_dda57127_d4e3_11d2_9018_004f4e006398 DD 0dda57127H
	DW	0d4e3H
	DW	011d2H
	DB	090H
	DB	018H
	DB	00H
	DB	04fH
	DB	04eH
	DB	00H
	DB	063H
	DB	098H
CONST	ENDS
;	COMDAT ?is_modulo@_Num_base@std@@2_NB
CONST	SEGMENT
?is_modulo@_Num_base@std@@2_NB DB 00H			; std::_Num_base::is_modulo
CONST	ENDS
;	COMDAT ?is_integer@_Num_base@std@@2_NB
CONST	SEGMENT
?is_integer@_Num_base@std@@2_NB DB 00H			; std::_Num_base::is_integer
CONST	ENDS
;	COMDAT __GUID_dda57125_d4e3_11d2_9018_004f4e006398
CONST	SEGMENT
__GUID_dda57125_d4e3_11d2_9018_004f4e006398 DD 0dda57125H
	DW	0d4e3H
	DW	011d2H
	DB	090H
	DB	018H
	DB	00H
	DB	04fH
	DB	04eH
	DB	00H
	DB	063H
	DB	098H
CONST	ENDS
;	COMDAT ?is_iec559@_Num_base@std@@2_NB
CONST	SEGMENT
?is_iec559@_Num_base@std@@2_NB DB 00H			; std::_Num_base::is_iec559
CONST	ENDS
;	COMDAT ?is_exact@_Num_base@std@@2_NB
CONST	SEGMENT
?is_exact@_Num_base@std@@2_NB DB 00H			; std::_Num_base::is_exact
CONST	ENDS
;	COMDAT __GUID_b8d1f614_d5e4_4bd1_8f01_17371deaf685
CONST	SEGMENT
__GUID_b8d1f614_d5e4_4bd1_8f01_17371deaf685 DD 0b8d1f614H
	DW	0d5e4H
	DW	04bd1H
	DB	08fH
	DB	01H
	DB	017H
	DB	037H
	DB	01dH
	DB	0eaH
	DB	0f6H
	DB	085H
CONST	ENDS
;	COMDAT ?is_bounded@_Num_base@std@@2_NB
CONST	SEGMENT
?is_bounded@_Num_base@std@@2_NB DB 00H			; std::_Num_base::is_bounded
CONST	ENDS
;	COMDAT ?has_signaling_NaN@_Num_base@std@@2_NB
CONST	SEGMENT
?has_signaling_NaN@_Num_base@std@@2_NB DB 00H		; std::_Num_base::has_signaling_NaN
CONST	ENDS
;	COMDAT __GUID_dda57123_d4e3_11d2_9018_004f4e006398
CONST	SEGMENT
__GUID_dda57123_d4e3_11d2_9018_004f4e006398 DD 0dda57123H
	DW	0d4e3H
	DW	011d2H
	DB	090H
	DB	018H
	DB	00H
	DB	04fH
	DB	04eH
	DB	00H
	DB	063H
	DB	098H
CONST	ENDS
;	COMDAT ?has_quiet_NaN@_Num_base@std@@2_NB
CONST	SEGMENT
?has_quiet_NaN@_Num_base@std@@2_NB DB 00H		; std::_Num_base::has_quiet_NaN
CONST	ENDS
;	COMDAT ?has_infinity@_Num_base@std@@2_NB
CONST	SEGMENT
?has_infinity@_Num_base@std@@2_NB DB 00H		; std::_Num_base::has_infinity
CONST	ENDS
;	COMDAT __GUID_dda57120_d4e3_11d2_9018_004f4e006398
CONST	SEGMENT
__GUID_dda57120_d4e3_11d2_9018_004f4e006398 DD 0dda57120H
	DW	0d4e3H
	DW	011d2H
	DB	090H
	DB	018H
	DB	00H
	DB	04fH
	DB	04eH
	DB	00H
	DB	063H
	DB	098H
CONST	ENDS
;	COMDAT _IID_IAxWinHostWindowLic
CONST	SEGMENT
_IID_IAxWinHostWindowLic DD 03935bda8H
	DW	04ed9H
	DW	0495cH
	DB	086H
	DB	050H
	DB	0e0H
	DB	01fH
	DB	0c1H
	DB	0e3H
	DB	08aH
	DB	04bH
CONST	ENDS
;	COMDAT ?has_denorm_loss@_Num_base@std@@2_NB
CONST	SEGMENT
?has_denorm_loss@_Num_base@std@@2_NB DB 00H		; std::_Num_base::has_denorm_loss
CONST	ENDS
;	COMDAT ?has_denorm@_Num_base@std@@2W4float_denorm_style@2@B
CONST	SEGMENT
?has_denorm@_Num_base@std@@2W4float_denorm_style@2@B DD 00H ; std::_Num_base::has_denorm
CONST	ENDS
;	COMDAT __GUID_8edbef0a_aeb1_48ad_9ed2_bd41cd1075bd
CONST	SEGMENT
__GUID_8edbef0a_aeb1_48ad_9ed2_bd41cd1075bd DD 08edbef0aH
	DW	0aeb1H
	DW	048adH
	DB	09eH
	DB	0d2H
	DB	0bdH
	DB	041H
	DB	0cdH
	DB	010H
	DB	075H
	DB	0bdH
CONST	ENDS
;	COMDAT __GUID_00000146_0000_0000_c000_000000000046
CONST	SEGMENT
__GUID_00000146_0000_0000_c000_000000000046 DD 0146H
	DW	00H
	DW	00H
	DB	0c0H
	DB	00H
	DB	00H
	DB	00H
	DB	00H
	DB	00H
	DB	00H
	DB	046H
CONST	ENDS
;	COMDAT ?pmField@?$CVarTypeInfo@PATtagCY@@@ATL@@2QQtagVARIANT@@PATtagCY@@Q3@
CONST	SEGMENT
?pmField@?$CVarTypeInfo@PATtagCY@@@ATL@@2QQtagVARIANT@@PATtagCY@@Q3@ DD 08H ; ATL::CVarTypeInfo<tagCY *>::pmField
CONST	ENDS
;	COMDAT ?VT@?$CVarTypeInfo@PATtagCY@@@ATL@@2GB
CONST	SEGMENT
?VT@?$CVarTypeInfo@PATtagCY@@@ATL@@2GB DW 04006H	; ATL::CVarTypeInfo<tagCY *>::VT
CONST	ENDS
;	COMDAT ?pmField@?$CVarTypeInfo@TtagCY@@@ATL@@2QQtagVARIANT@@TtagCY@@Q3@
CONST	SEGMENT
?pmField@?$CVarTypeInfo@TtagCY@@@ATL@@2QQtagVARIANT@@TtagCY@@Q3@ DD 08H ; ATL::CVarTypeInfo<tagCY>::pmField
CONST	ENDS
;	COMDAT ?VT@?$CVarTypeInfo@TtagCY@@@ATL@@2GB
CONST	SEGMENT
?VT@?$CVarTypeInfo@TtagCY@@@ATL@@2GB DW 06H		; ATL::CVarTypeInfo<tagCY>::VT
CONST	ENDS
;	COMDAT ?pmField@?$CVarTypeInfo@PAPAUIDispatch@@@ATL@@2QQtagVARIANT@@PAPAUIDispatch@@Q3@
CONST	SEGMENT
?pmField@?$CVarTypeInfo@PAPAUIDispatch@@@ATL@@2QQtagVARIANT@@PAPAUIDispatch@@Q3@ DD 08H ; ATL::CVarTypeInfo<IDispatch * *>::pmField
CONST	ENDS
;	COMDAT ?VT@?$CVarTypeInfo@PAPAUIDispatch@@@ATL@@2GB
CONST	SEGMENT
?VT@?$CVarTypeInfo@PAPAUIDispatch@@@ATL@@2GB DW 04009H	; ATL::CVarTypeInfo<IDispatch * *>::VT
CONST	ENDS
;	COMDAT _IID_IAxWinHostWindow
CONST	SEGMENT
_IID_IAxWinHostWindow DD 0b6ea2050H
	DW	048aH
	DW	011d1H
	DB	082H
	DB	0b9H
	DB	00H
	DB	0c0H
	DB	04fH
	DB	0b9H
	DB	094H
	DB	02eH
CONST	ENDS
;	COMDAT __GUID_1cf2b120_547d_101b_8e65_08002b2bd119
CONST	SEGMENT
__GUID_1cf2b120_547d_101b_8e65_08002b2bd119 DD 01cf2b120H
	DW	0547dH
	DW	0101bH
	DB	08eH
	DB	065H
	DB	08H
	DB	00H
	DB	02bH
	DB	02bH
	DB	0d1H
	DB	019H
CONST	ENDS
;	COMDAT ?pmField@?$CVarTypeInfo@PAUIDispatch@@@ATL@@2QQtagVARIANT@@PAUIDispatch@@Q3@
CONST	SEGMENT
?pmField@?$CVarTypeInfo@PAUIDispatch@@@ATL@@2QQtagVARIANT@@PAUIDispatch@@Q3@ DD 08H ; ATL::CVarTypeInfo<IDispatch *>::pmField
CONST	ENDS
;	COMDAT ?value@?$_Sizeof@U_Nil@std@@U12@U12@U12@U12@U12@U12@U12@@std@@2IB
CONST	SEGMENT
?value@?$_Sizeof@U_Nil@std@@U12@U12@U12@U12@U12@U12@U12@@std@@2IB DD 00H ; std::_Sizeof<std::_Nil,std::_Nil,std::_Nil,std::_Nil,std::_Nil,std::_Nil,std::_Nil,std::_Nil>::value
CONST	ENDS
;	COMDAT ?VT@?$CVarTypeInfo@PAUIDispatch@@@ATL@@2GB
CONST	SEGMENT
?VT@?$CVarTypeInfo@PAUIDispatch@@@ATL@@2GB DW 09H	; ATL::CVarTypeInfo<IDispatch *>::VT
CONST	ENDS
;	COMDAT ?_Stream_err@failure@ios_base@std@@0W4io_errc@43@B
CONST	SEGMENT
?_Stream_err@failure@ios_base@std@@0W4io_errc@43@B DD 01H ; std::ios_base::failure::_Stream_err
CONST	ENDS
;	COMDAT ?pmField@?$CVarTypeInfo@PAPAUIUnknown@@@ATL@@2QQtagVARIANT@@PAPAUIUnknown@@Q3@
CONST	SEGMENT
?pmField@?$CVarTypeInfo@PAPAUIUnknown@@@ATL@@2QQtagVARIANT@@PAPAUIUnknown@@Q3@ DD 08H ; ATL::CVarTypeInfo<IUnknown * *>::pmField
CONST	ENDS
;	COMDAT ?VT@?$CVarTypeInfo@PAPAUIUnknown@@@ATL@@2GB
CONST	SEGMENT
?VT@?$CVarTypeInfo@PAPAUIUnknown@@@ATL@@2GB DW 0400dH	; ATL::CVarTypeInfo<IUnknown * *>::VT
CONST	ENDS
;	COMDAT ?pmField@?$CVarTypeInfo@PAUIUnknown@@@ATL@@2QQtagVARIANT@@PAUIUnknown@@Q3@
CONST	SEGMENT
?pmField@?$CVarTypeInfo@PAUIUnknown@@@ATL@@2QQtagVARIANT@@PAUIUnknown@@Q3@ DD 08H ; ATL::CVarTypeInfo<IUnknown *>::pmField
CONST	ENDS
;	COMDAT ?VT@?$CVarTypeInfo@PAUIUnknown@@@ATL@@2GB
CONST	SEGMENT
?VT@?$CVarTypeInfo@PAUIUnknown@@@ATL@@2GB DW 0dH	; ATL::CVarTypeInfo<IUnknown *>::VT
CONST	ENDS
;	COMDAT ?end@?$_Iosb@H@std@@2W4_Seekdir@12@B
CONST	SEGMENT
?end@?$_Iosb@H@std@@2W4_Seekdir@12@B DD 02H		; std::_Iosb<int>::end
CONST	ENDS
;	COMDAT ?pmField@?$CVarTypeInfo@PAPA_W@ATL@@2QQtagVARIANT@@PAPA_WQ3@
CONST	SEGMENT
?pmField@?$CVarTypeInfo@PAPA_W@ATL@@2QQtagVARIANT@@PAPA_WQ3@ DD 08H ; ATL::CVarTypeInfo<wchar_t * *>::pmField
CONST	ENDS
;	COMDAT ?cur@?$_Iosb@H@std@@2W4_Seekdir@12@B
CONST	SEGMENT
?cur@?$_Iosb@H@std@@2W4_Seekdir@12@B DD 01H		; std::_Iosb<int>::cur
CONST	ENDS
;	COMDAT ?VT@?$CVarTypeInfo@PAPA_W@ATL@@2GB
CONST	SEGMENT
?VT@?$CVarTypeInfo@PAPA_W@ATL@@2GB DW 04008H		; ATL::CVarTypeInfo<wchar_t * *>::VT
CONST	ENDS
;	COMDAT ?beg@?$_Iosb@H@std@@2W4_Seekdir@12@B
CONST	SEGMENT
?beg@?$_Iosb@H@std@@2W4_Seekdir@12@B DD 00H		; std::_Iosb<int>::beg
CONST	ENDS
;	COMDAT ?binary@?$_Iosb@H@std@@2W4_Openmode@12@B
CONST	SEGMENT
?binary@?$_Iosb@H@std@@2W4_Openmode@12@B DD 020H	; std::_Iosb<int>::binary
CONST	ENDS
;	COMDAT ?_Noreplace@?$_Iosb@H@std@@2W4_Openmode@12@B
CONST	SEGMENT
?_Noreplace@?$_Iosb@H@std@@2W4_Openmode@12@B DD 080H	; std::_Iosb<int>::_Noreplace
CONST	ENDS
;	COMDAT ?pmField@?$CVarTypeInfo@PA_W@ATL@@2QQtagVARIANT@@PA_WQ3@
CONST	SEGMENT
?pmField@?$CVarTypeInfo@PA_W@ATL@@2QQtagVARIANT@@PA_WQ3@ DD 08H ; ATL::CVarTypeInfo<wchar_t *>::pmField
CONST	ENDS
;	COMDAT ?_Nocreate@?$_Iosb@H@std@@2W4_Openmode@12@B
CONST	SEGMENT
?_Nocreate@?$_Iosb@H@std@@2W4_Openmode@12@B DD 040H	; std::_Iosb<int>::_Nocreate
CONST	ENDS
;	COMDAT ?VT@?$CVarTypeInfo@PA_W@ATL@@2GB
CONST	SEGMENT
?VT@?$CVarTypeInfo@PA_W@ATL@@2GB DW 08H			; ATL::CVarTypeInfo<wchar_t *>::VT
CONST	ENDS
;	COMDAT ?trunc@?$_Iosb@H@std@@2W4_Openmode@12@B
CONST	SEGMENT
?trunc@?$_Iosb@H@std@@2W4_Openmode@12@B DD 010H		; std::_Iosb<int>::trunc
CONST	ENDS
;	COMDAT ?app@?$_Iosb@H@std@@2W4_Openmode@12@B
CONST	SEGMENT
?app@?$_Iosb@H@std@@2W4_Openmode@12@B DD 08H		; std::_Iosb<int>::app
CONST	ENDS
;	COMDAT ?ate@?$_Iosb@H@std@@2W4_Openmode@12@B
CONST	SEGMENT
?ate@?$_Iosb@H@std@@2W4_Openmode@12@B DD 04H		; std::_Iosb<int>::ate
CONST	ENDS
;	COMDAT ?VT@?$CVarTypeInfo@PAUtagVARIANT@@@ATL@@2GB
CONST	SEGMENT
?VT@?$CVarTypeInfo@PAUtagVARIANT@@@ATL@@2GB DW 0400cH	; ATL::CVarTypeInfo<tagVARIANT *>::VT
CONST	ENDS
;	COMDAT ?out@?$_Iosb@H@std@@2W4_Openmode@12@B
CONST	SEGMENT
?out@?$_Iosb@H@std@@2W4_Openmode@12@B DD 02H		; std::_Iosb<int>::out
CONST	ENDS
;	COMDAT ?in@?$_Iosb@H@std@@2W4_Openmode@12@B
CONST	SEGMENT
?in@?$_Iosb@H@std@@2W4_Openmode@12@B DD 01H		; std::_Iosb<int>::in
CONST	ENDS
;	COMDAT ?_Hardfail@?$_Iosb@H@std@@2W4_Iostate@12@B
CONST	SEGMENT
?_Hardfail@?$_Iosb@H@std@@2W4_Iostate@12@B DD 010H	; std::_Iosb<int>::_Hardfail
CONST	ENDS
;	COMDAT ?pmField@?$CVarTypeInfo@PAN@ATL@@2QQtagVARIANT@@PANQ3@
CONST	SEGMENT
?pmField@?$CVarTypeInfo@PAN@ATL@@2QQtagVARIANT@@PANQ3@ DD 08H ; ATL::CVarTypeInfo<double *>::pmField
CONST	ENDS
;	COMDAT ?badbit@?$_Iosb@H@std@@2W4_Iostate@12@B
CONST	SEGMENT
?badbit@?$_Iosb@H@std@@2W4_Iostate@12@B DD 04H		; std::_Iosb<int>::badbit
CONST	ENDS
;	COMDAT ?VT@?$CVarTypeInfo@PAN@ATL@@2GB
CONST	SEGMENT
?VT@?$CVarTypeInfo@PAN@ATL@@2GB DW 04005H		; ATL::CVarTypeInfo<double *>::VT
CONST	ENDS
;	COMDAT ?failbit@?$_Iosb@H@std@@2W4_Iostate@12@B
CONST	SEGMENT
?failbit@?$_Iosb@H@std@@2W4_Iostate@12@B DD 02H		; std::_Iosb<int>::failbit
CONST	ENDS
;	COMDAT ?eofbit@?$_Iosb@H@std@@2W4_Iostate@12@B
CONST	SEGMENT
?eofbit@?$_Iosb@H@std@@2W4_Iostate@12@B DD 01H		; std::_Iosb<int>::eofbit
CONST	ENDS
;	COMDAT ?goodbit@?$_Iosb@H@std@@2W4_Iostate@12@B
CONST	SEGMENT
?goodbit@?$_Iosb@H@std@@2W4_Iostate@12@B DD 00H		; std::_Iosb<int>::goodbit
CONST	ENDS
;	COMDAT ?pmField@?$CVarTypeInfo@N@ATL@@2QQtagVARIANT@@NQ3@
CONST	SEGMENT
?pmField@?$CVarTypeInfo@N@ATL@@2QQtagVARIANT@@NQ3@ DD 08H ; ATL::CVarTypeInfo<double>::pmField
CONST	ENDS
;	COMDAT ?VT@?$CVarTypeInfo@N@ATL@@2GB
CONST	SEGMENT
?VT@?$CVarTypeInfo@N@ATL@@2GB DW 05H			; ATL::CVarTypeInfo<double>::VT
CONST	ENDS
;	COMDAT ?floatfield@?$_Iosb@H@std@@2W4_Fmtflags@12@B
CONST	SEGMENT
?floatfield@?$_Iosb@H@std@@2W4_Fmtflags@12@B DD 03000H	; std::_Iosb<int>::floatfield
CONST	ENDS
;	COMDAT ?basefield@?$_Iosb@H@std@@2W4_Fmtflags@12@B
CONST	SEGMENT
?basefield@?$_Iosb@H@std@@2W4_Fmtflags@12@B DD 0e00H	; std::_Iosb<int>::basefield
CONST	ENDS
;	COMDAT ?adjustfield@?$_Iosb@H@std@@2W4_Fmtflags@12@B
CONST	SEGMENT
?adjustfield@?$_Iosb@H@std@@2W4_Fmtflags@12@B DD 01c0H	; std::_Iosb<int>::adjustfield
CONST	ENDS
;	COMDAT ?_Stdio@?$_Iosb@H@std@@2W4_Fmtflags@12@B
CONST	SEGMENT
?_Stdio@?$_Iosb@H@std@@2W4_Fmtflags@12@B DD 08000H	; std::_Iosb<int>::_Stdio
CONST	ENDS
;	COMDAT ?pmField@?$CVarTypeInfo@PAM@ATL@@2QQtagVARIANT@@PAMQ3@
CONST	SEGMENT
?pmField@?$CVarTypeInfo@PAM@ATL@@2QQtagVARIANT@@PAMQ3@ DD 08H ; ATL::CVarTypeInfo<float *>::pmField
CONST	ENDS
;	COMDAT ?boolalpha@?$_Iosb@H@std@@2W4_Fmtflags@12@B
CONST	SEGMENT
?boolalpha@?$_Iosb@H@std@@2W4_Fmtflags@12@B DD 04000H	; std::_Iosb<int>::boolalpha
CONST	ENDS
;	COMDAT ?VT@?$CVarTypeInfo@PAM@ATL@@2GB
CONST	SEGMENT
?VT@?$CVarTypeInfo@PAM@ATL@@2GB DW 04004H		; ATL::CVarTypeInfo<float *>::VT
CONST	ENDS
;	COMDAT ?hexfloat@?$_Iosb@H@std@@2W4_Fmtflags@12@B
CONST	SEGMENT
?hexfloat@?$_Iosb@H@std@@2W4_Fmtflags@12@B DD 03000H	; std::_Iosb<int>::hexfloat
CONST	ENDS
;	COMDAT ?fixed@?$_Iosb@H@std@@2W4_Fmtflags@12@B
CONST	SEGMENT
?fixed@?$_Iosb@H@std@@2W4_Fmtflags@12@B DD 02000H	; std::_Iosb<int>::fixed
CONST	ENDS
;	COMDAT ?scientific@?$_Iosb@H@std@@2W4_Fmtflags@12@B
CONST	SEGMENT
?scientific@?$_Iosb@H@std@@2W4_Fmtflags@12@B DD 01000H	; std::_Iosb<int>::scientific
CONST	ENDS
;	COMDAT ?pmField@?$CVarTypeInfo@M@ATL@@2QQtagVARIANT@@MQ3@
CONST	SEGMENT
?pmField@?$CVarTypeInfo@M@ATL@@2QQtagVARIANT@@MQ3@ DD 08H ; ATL::CVarTypeInfo<float>::pmField
CONST	ENDS
;	COMDAT ?hex@?$_Iosb@H@std@@2W4_Fmtflags@12@B
CONST	SEGMENT
?hex@?$_Iosb@H@std@@2W4_Fmtflags@12@B DD 0800H		; std::_Iosb<int>::hex
CONST	ENDS
;	COMDAT ?VT@?$CVarTypeInfo@M@ATL@@2GB
CONST	SEGMENT
?VT@?$CVarTypeInfo@M@ATL@@2GB DW 04H			; ATL::CVarTypeInfo<float>::VT
CONST	ENDS
;	COMDAT ?oct@?$_Iosb@H@std@@2W4_Fmtflags@12@B
CONST	SEGMENT
?oct@?$_Iosb@H@std@@2W4_Fmtflags@12@B DD 0400H		; std::_Iosb<int>::oct
CONST	ENDS
;	COMDAT ?dec@?$_Iosb@H@std@@2W4_Fmtflags@12@B
CONST	SEGMENT
?dec@?$_Iosb@H@std@@2W4_Fmtflags@12@B DD 0200H		; std::_Iosb<int>::dec
CONST	ENDS
;	COMDAT ?internal@?$_Iosb@H@std@@2W4_Fmtflags@12@B
CONST	SEGMENT
?internal@?$_Iosb@H@std@@2W4_Fmtflags@12@B DD 0100H	; std::_Iosb<int>::internal
CONST	ENDS
;	COMDAT ?right@?$_Iosb@H@std@@2W4_Fmtflags@12@B
CONST	SEGMENT
?right@?$_Iosb@H@std@@2W4_Fmtflags@12@B DD 080H		; std::_Iosb<int>::right
CONST	ENDS
;	COMDAT ?pmField@?$CVarTypeInfo@PA_K@ATL@@2QQtagVARIANT@@PA_KQ3@
CONST	SEGMENT
?pmField@?$CVarTypeInfo@PA_K@ATL@@2QQtagVARIANT@@PA_KQ3@ DD 08H ; ATL::CVarTypeInfo<unsigned __int64 *>::pmField
CONST	ENDS
;	COMDAT ?VT@?$CVarTypeInfo@PA_K@ATL@@2GB
CONST	SEGMENT
?VT@?$CVarTypeInfo@PA_K@ATL@@2GB DW 04015H		; ATL::CVarTypeInfo<unsigned __int64 *>::VT
CONST	ENDS
;	COMDAT ?left@?$_Iosb@H@std@@2W4_Fmtflags@12@B
CONST	SEGMENT
?left@?$_Iosb@H@std@@2W4_Fmtflags@12@B DD 040H		; std::_Iosb<int>::left
CONST	ENDS
;	COMDAT ?min_exponent10@?$numeric_limits@O@std@@2HB
CONST	SEGMENT
?min_exponent10@?$numeric_limits@O@std@@2HB DD 0fffffecdH ; std::numeric_limits<long double>::min_exponent10
CONST	ENDS
;	COMDAT ?showpos@?$_Iosb@H@std@@2W4_Fmtflags@12@B
CONST	SEGMENT
?showpos@?$_Iosb@H@std@@2W4_Fmtflags@12@B DD 020H	; std::_Iosb<int>::showpos
CONST	ENDS
;	COMDAT ?min_exponent@?$numeric_limits@O@std@@2HB
CONST	SEGMENT
?min_exponent@?$numeric_limits@O@std@@2HB DD 0fffffc03H	; std::numeric_limits<long double>::min_exponent
CONST	ENDS
;	COMDAT ?showpoint@?$_Iosb@H@std@@2W4_Fmtflags@12@B
CONST	SEGMENT
?showpoint@?$_Iosb@H@std@@2W4_Fmtflags@12@B DD 010H	; std::_Iosb<int>::showpoint
CONST	ENDS
;	COMDAT ?max_exponent10@?$numeric_limits@O@std@@2HB
CONST	SEGMENT
?max_exponent10@?$numeric_limits@O@std@@2HB DD 0134H	; std::numeric_limits<long double>::max_exponent10
CONST	ENDS
;	COMDAT ?showbase@?$_Iosb@H@std@@2W4_Fmtflags@12@B
CONST	SEGMENT
?showbase@?$_Iosb@H@std@@2W4_Fmtflags@12@B DD 08H	; std::_Iosb<int>::showbase
CONST	ENDS
;	COMDAT ?pmField@?$CVarTypeInfo@_K@ATL@@2QQtagVARIANT@@_KQ3@
CONST	SEGMENT
?pmField@?$CVarTypeInfo@_K@ATL@@2QQtagVARIANT@@_KQ3@ DD 08H ; ATL::CVarTypeInfo<unsigned __int64>::pmField
CONST	ENDS
;	COMDAT ?uppercase@?$_Iosb@H@std@@2W4_Fmtflags@12@B
CONST	SEGMENT
?uppercase@?$_Iosb@H@std@@2W4_Fmtflags@12@B DD 04H	; std::_Iosb<int>::uppercase
CONST	ENDS
;	COMDAT ?VT@?$CVarTypeInfo@_K@ATL@@2GB
CONST	SEGMENT
?VT@?$CVarTypeInfo@_K@ATL@@2GB DW 015H			; ATL::CVarTypeInfo<unsigned __int64>::VT
CONST	ENDS
;	COMDAT ?max_exponent@?$numeric_limits@O@std@@2HB
CONST	SEGMENT
?max_exponent@?$numeric_limits@O@std@@2HB DD 0400H	; std::numeric_limits<long double>::max_exponent
CONST	ENDS
;	COMDAT ?unitbuf@?$_Iosb@H@std@@2W4_Fmtflags@12@B
CONST	SEGMENT
?unitbuf@?$_Iosb@H@std@@2W4_Fmtflags@12@B DD 02H	; std::_Iosb<int>::unitbuf
CONST	ENDS
;	COMDAT ?max_digits10@?$numeric_limits@O@std@@2HB
CONST	SEGMENT
?max_digits10@?$numeric_limits@O@std@@2HB DD 011H	; std::numeric_limits<long double>::max_digits10
CONST	ENDS
;	COMDAT ?skipws@?$_Iosb@H@std@@2W4_Fmtflags@12@B
CONST	SEGMENT
?skipws@?$_Iosb@H@std@@2W4_Fmtflags@12@B DD 01H		; std::_Iosb<int>::skipws
CONST	ENDS
;	COMDAT ?digits10@?$numeric_limits@O@std@@2HB
CONST	SEGMENT
?digits10@?$numeric_limits@O@std@@2HB DD 0fH		; std::numeric_limits<long double>::digits10
CONST	ENDS
;	COMDAT ?digits@?$numeric_limits@O@std@@2HB
CONST	SEGMENT
?digits@?$numeric_limits@O@std@@2HB DD 035H		; std::numeric_limits<long double>::digits
CONST	ENDS
;	COMDAT ?pmField@?$CVarTypeInfo@PA_J@ATL@@2QQtagVARIANT@@PA_JQ3@
CONST	SEGMENT
?pmField@?$CVarTypeInfo@PA_J@ATL@@2QQtagVARIANT@@PA_JQ3@ DD 08H ; ATL::CVarTypeInfo<__int64 *>::pmField
CONST	ENDS
;	COMDAT ?VT@?$CVarTypeInfo@PA_J@ATL@@2GB
CONST	SEGMENT
?VT@?$CVarTypeInfo@PA_J@ATL@@2GB DW 04014H		; ATL::CVarTypeInfo<__int64 *>::VT
CONST	ENDS
;	COMDAT ?pmField@?$CVarTypeInfo@_J@ATL@@2QQtagVARIANT@@_JQ3@
CONST	SEGMENT
?pmField@?$CVarTypeInfo@_J@ATL@@2QQtagVARIANT@@_JQ3@ DD 08H ; ATL::CVarTypeInfo<__int64>::pmField
CONST	ENDS
;	COMDAT ?VT@?$CVarTypeInfo@_J@ATL@@2GB
CONST	SEGMENT
?VT@?$CVarTypeInfo@_J@ATL@@2GB DW 014H			; ATL::CVarTypeInfo<__int64>::VT
CONST	ENDS
;	COMDAT __GUID_b196b284_bab4_101a_b69c_00aa00341d07
CONST	SEGMENT
__GUID_b196b284_bab4_101a_b69c_00aa00341d07 DD 0b196b284H
	DW	0bab4H
	DW	0101aH
	DB	0b6H
	DB	09cH
	DB	00H
	DB	0aaH
	DB	00H
	DB	034H
	DB	01dH
	DB	07H
CONST	ENDS
;	COMDAT ?pmField@?$CVarTypeInfo@PAK@ATL@@2QQtagVARIANT@@PAKQ3@
CONST	SEGMENT
?pmField@?$CVarTypeInfo@PAK@ATL@@2QQtagVARIANT@@PAKQ3@ DD 08H ; ATL::CVarTypeInfo<unsigned long *>::pmField
CONST	ENDS
;	COMDAT ?VT@?$CVarTypeInfo@PAK@ATL@@2GB
CONST	SEGMENT
?VT@?$CVarTypeInfo@PAK@ATL@@2GB DW 04013H		; ATL::CVarTypeInfo<unsigned long *>::VT
CONST	ENDS
;	COMDAT ?min_exponent10@?$numeric_limits@N@std@@2HB
CONST	SEGMENT
?min_exponent10@?$numeric_limits@N@std@@2HB DD 0fffffecdH ; std::numeric_limits<double>::min_exponent10
CONST	ENDS
;	COMDAT ?min_exponent@?$numeric_limits@N@std@@2HB
CONST	SEGMENT
?min_exponent@?$numeric_limits@N@std@@2HB DD 0fffffc03H	; std::numeric_limits<double>::min_exponent
CONST	ENDS
;	COMDAT ?max_exponent10@?$numeric_limits@N@std@@2HB
CONST	SEGMENT
?max_exponent10@?$numeric_limits@N@std@@2HB DD 0134H	; std::numeric_limits<double>::max_exponent10
CONST	ENDS
;	COMDAT ?pmField@?$CVarTypeInfo@K@ATL@@2QQtagVARIANT@@KQ3@
CONST	SEGMENT
?pmField@?$CVarTypeInfo@K@ATL@@2QQtagVARIANT@@KQ3@ DD 08H ; ATL::CVarTypeInfo<unsigned long>::pmField
CONST	ENDS
;	COMDAT ?VT@?$CVarTypeInfo@K@ATL@@2GB
CONST	SEGMENT
?VT@?$CVarTypeInfo@K@ATL@@2GB DW 013H			; ATL::CVarTypeInfo<unsigned long>::VT
CONST	ENDS
;	COMDAT ?max_exponent@?$numeric_limits@N@std@@2HB
CONST	SEGMENT
?max_exponent@?$numeric_limits@N@std@@2HB DD 0400H	; std::numeric_limits<double>::max_exponent
CONST	ENDS
;	COMDAT ?max_digits10@?$numeric_limits@N@std@@2HB
CONST	SEGMENT
?max_digits10@?$numeric_limits@N@std@@2HB DD 011H	; std::numeric_limits<double>::max_digits10
CONST	ENDS
;	COMDAT __GUID_00000001_0000_0000_c000_000000000046
CONST	SEGMENT
__GUID_00000001_0000_0000_c000_000000000046 DD 01H
	DW	00H
	DW	00H
	DB	0c0H
	DB	00H
	DB	00H
	DB	00H
	DB	00H
	DB	00H
	DB	00H
	DB	046H
CONST	ENDS
;	COMDAT ?digits10@?$numeric_limits@N@std@@2HB
CONST	SEGMENT
?digits10@?$numeric_limits@N@std@@2HB DD 0fH		; std::numeric_limits<double>::digits10
CONST	ENDS
;	COMDAT _IID_IDocHostUIHandlerDispatch
CONST	SEGMENT
_IID_IDocHostUIHandlerDispatch DD 0425b5af0H
	DW	065f1H
	DW	011d1H
	DB	096H
	DB	011H
	DB	00H
	DB	00H
	DB	0f8H
	DB	01eH
	DB	0dH
	DB	0dH
CONST	ENDS
;	COMDAT ?digits@?$numeric_limits@N@std@@2HB
CONST	SEGMENT
?digits@?$numeric_limits@N@std@@2HB DD 035H		; std::numeric_limits<double>::digits
CONST	ENDS
;	COMDAT ?pmField@?$CVarTypeInfo@PAJ@ATL@@2QQtagVARIANT@@PAJQ3@
CONST	SEGMENT
?pmField@?$CVarTypeInfo@PAJ@ATL@@2QQtagVARIANT@@PAJQ3@ DD 08H ; ATL::CVarTypeInfo<long *>::pmField
CONST	ENDS
;	COMDAT ?MAX_TYPE@CRegParser@ATL@@1HB
CONST	SEGMENT
?MAX_TYPE@CRegParser@ATL@@1HB DD 01000H			; ATL::CRegParser::MAX_TYPE
CONST	ENDS
;	COMDAT ?value@?$integral_constant@I$0A@@std@@2IB
CONST	SEGMENT
?value@?$integral_constant@I$0A@@std@@2IB DD 00H	; std::integral_constant<unsigned int,0>::value
CONST	ENDS
;	COMDAT ?VT@?$CVarTypeInfo@PAJ@ATL@@2GB
CONST	SEGMENT
?VT@?$CVarTypeInfo@PAJ@ATL@@2GB DW 04003H		; ATL::CVarTypeInfo<long *>::VT
CONST	ENDS
;	COMDAT ?cbNeverDelete@CRegParser@ATL@@1HB
CONST	SEGMENT
?cbNeverDelete@CRegParser@ATL@@1HB DD 0cH		; ATL::CRegParser::cbNeverDelete
CONST	ENDS
;	COMDAT ?rgszNeverDelete@CRegParser@ATL@@1QBQBDB
CONST	SEGMENT
?rgszNeverDelete@CRegParser@ATL@@1QBQBDB DD FLAT:??_C@_05PDIKPLII@AppID?$AA@ ; ATL::CRegParser::rgszNeverDelete
	DD	FLAT:??_C@_05GIBEAPNE@CLSID?$AA@
	DD	FLAT:??_C@_0BF@HDDNNDFH@Component?5Categories?$AA@
	DD	FLAT:??_C@_08PICKODJL@FileType?$AA@
	DD	FLAT:??_C@_09JKPGEJCH@Interface?$AA@
	DD	FLAT:??_C@_08PPIOJEA@Hardware?$AA@
	DD	FLAT:??_C@_04IHBFOLAC@Mime?$AA@
	DD	FLAT:??_C@_03DDIMFGBA@SAM?$AA@
	DD	FLAT:??_C@_08LOPHEHKG@SECURITY?$AA@
	DD	FLAT:??_C@_06FDHFNJBJ@SYSTEM?$AA@
	DD	FLAT:??_C@_08KEKAJNJI@Software?$AA@
	DD	FLAT:??_C@_07KJLOKDKB@TypeLib?$AA@
CONST	ENDS
;	COMDAT ?pmField@?$CVarTypeInfo@J@ATL@@2QQtagVARIANT@@JQ3@
CONST	SEGMENT
?pmField@?$CVarTypeInfo@J@ATL@@2QQtagVARIANT@@JQ3@ DD 08H ; ATL::CVarTypeInfo<long>::pmField
CONST	ENDS
;	COMDAT ?VT@?$CVarTypeInfo@J@ATL@@2GB
CONST	SEGMENT
?VT@?$CVarTypeInfo@J@ATL@@2GB DW 03H			; ATL::CVarTypeInfo<long>::VT
CONST	ENDS
;	COMDAT __GUID_00000000_0000_0000_c000_000000000046
CONST	SEGMENT
__GUID_00000000_0000_0000_c000_000000000046 DD 00H
	DW	00H
	DW	00H
	DB	0c0H
	DB	00H
	DB	00H
	DB	00H
	DB	00H
	DB	00H
	DB	00H
	DB	046H
CONST	ENDS
;	COMDAT ?pmField@?$CVarTypeInfo@PAI@ATL@@2QQtagVARIANT@@PAIQ3@
CONST	SEGMENT
?pmField@?$CVarTypeInfo@PAI@ATL@@2QQtagVARIANT@@PAIQ3@ DD 08H ; ATL::CVarTypeInfo<unsigned int *>::pmField
CONST	ENDS
;	COMDAT ?VT@?$CVarTypeInfo@PAI@ATL@@2GB
CONST	SEGMENT
?VT@?$CVarTypeInfo@PAI@ATL@@2GB DW 04013H		; ATL::CVarTypeInfo<unsigned int *>::VT
CONST	ENDS
;	COMDAT ?min_exponent10@?$numeric_limits@M@std@@2HB
CONST	SEGMENT
?min_exponent10@?$numeric_limits@M@std@@2HB DD 0ffffffdbH ; std::numeric_limits<float>::min_exponent10
CONST	ENDS
;	COMDAT ?min_exponent@?$numeric_limits@M@std@@2HB
CONST	SEGMENT
?min_exponent@?$numeric_limits@M@std@@2HB DD 0ffffff83H	; std::numeric_limits<float>::min_exponent
CONST	ENDS
;	COMDAT ?max_exponent10@?$numeric_limits@M@std@@2HB
CONST	SEGMENT
?max_exponent10@?$numeric_limits@M@std@@2HB DD 026H	; std::numeric_limits<float>::max_exponent10
CONST	ENDS
;	COMDAT ?pmField@?$CVarTypeInfo@I@ATL@@2QQtagVARIANT@@IQ3@
CONST	SEGMENT
?pmField@?$CVarTypeInfo@I@ATL@@2QQtagVARIANT@@IQ3@ DD 08H ; ATL::CVarTypeInfo<unsigned int>::pmField
CONST	ENDS
;	COMDAT ?VT@?$CVarTypeInfo@I@ATL@@2GB
CONST	SEGMENT
?VT@?$CVarTypeInfo@I@ATL@@2GB DW 013H			; ATL::CVarTypeInfo<unsigned int>::VT
CONST	ENDS
;	COMDAT ?max_exponent@?$numeric_limits@M@std@@2HB
CONST	SEGMENT
?max_exponent@?$numeric_limits@M@std@@2HB DD 080H	; std::numeric_limits<float>::max_exponent
CONST	ENDS
;	COMDAT __GUID_00020412_0000_0000_c000_000000000046
CONST	SEGMENT
__GUID_00020412_0000_0000_c000_000000000046 DD 020412H
	DW	00H
	DW	00H
	DB	0c0H
	DB	00H
	DB	00H
	DB	00H
	DB	00H
	DB	00H
	DB	00H
	DB	046H
CONST	ENDS
;	COMDAT ?MAX_VALUE@CRegParser@ATL@@1HB
CONST	SEGMENT
?MAX_VALUE@CRegParser@ATL@@1HB DD 01000H		; ATL::CRegParser::MAX_VALUE
CONST	ENDS
;	COMDAT ?max_digits10@?$numeric_limits@M@std@@2HB
CONST	SEGMENT
?max_digits10@?$numeric_limits@M@std@@2HB DD 09H	; std::numeric_limits<float>::max_digits10
CONST	ENDS
;	COMDAT __GUID_00020401_0000_0000_c000_000000000046
CONST	SEGMENT
__GUID_00020401_0000_0000_c000_000000000046 DD 020401H
	DW	00H
	DW	00H
	DB	0c0H
	DB	00H
	DB	00H
	DB	00H
	DB	00H
	DB	00H
	DB	00H
	DB	046H
CONST	ENDS
;	COMDAT ?digits10@?$numeric_limits@M@std@@2HB
CONST	SEGMENT
?digits10@?$numeric_limits@M@std@@2HB DD 06H		; std::numeric_limits<float>::digits10
CONST	ENDS
;	COMDAT ?digits@?$numeric_limits@M@std@@2HB
CONST	SEGMENT
?digits@?$numeric_limits@M@std@@2HB DD 018H		; std::numeric_limits<float>::digits
CONST	ENDS
;	COMDAT ?pmField@?$CVarTypeInfo@PAH@ATL@@2QQtagVARIANT@@PAHQ3@
CONST	SEGMENT
?pmField@?$CVarTypeInfo@PAH@ATL@@2QQtagVARIANT@@PAHQ3@ DD 08H ; ATL::CVarTypeInfo<int *>::pmField
CONST	ENDS
;	COMDAT ?VT@?$CVarTypeInfo@PAH@ATL@@2GB
CONST	SEGMENT
?VT@?$CVarTypeInfo@PAH@ATL@@2GB DW 04003H		; ATL::CVarTypeInfo<int *>::VT
CONST	ENDS
;	COMDAT ?pmField@?$CVarTypeInfo@H@ATL@@2QQtagVARIANT@@HQ3@
CONST	SEGMENT
?pmField@?$CVarTypeInfo@H@ATL@@2QQtagVARIANT@@HQ3@ DD 08H ; ATL::CVarTypeInfo<int>::pmField
CONST	ENDS
;	COMDAT ?VT@?$CVarTypeInfo@H@ATL@@2GB
CONST	SEGMENT
?VT@?$CVarTypeInfo@H@ATL@@2GB DW 03H			; ATL::CVarTypeInfo<int>::VT
CONST	ENDS
;	COMDAT ?pmField@?$CVarTypeInfo@PAG@ATL@@2QQtagVARIANT@@PAGQ3@
CONST	SEGMENT
?pmField@?$CVarTypeInfo@PAG@ATL@@2QQtagVARIANT@@PAGQ3@ DD 08H ; ATL::CVarTypeInfo<unsigned short *>::pmField
CONST	ENDS
;	COMDAT ?VT@?$CVarTypeInfo@PAG@ATL@@2GB
CONST	SEGMENT
?VT@?$CVarTypeInfo@PAG@ATL@@2GB DW 04012H		; ATL::CVarTypeInfo<unsigned short *>::VT
CONST	ENDS
;	COMDAT ?digits10@?$numeric_limits@_K@std@@2HB
CONST	SEGMENT
?digits10@?$numeric_limits@_K@std@@2HB DD 013H		; std::numeric_limits<unsigned __int64>::digits10
CONST	ENDS
;	COMDAT ?digits@?$numeric_limits@_K@std@@2HB
CONST	SEGMENT
?digits@?$numeric_limits@_K@std@@2HB DD 040H		; std::numeric_limits<unsigned __int64>::digits
CONST	ENDS
;	COMDAT ?is_signed@?$numeric_limits@_K@std@@2_NB
CONST	SEGMENT
?is_signed@?$numeric_limits@_K@std@@2_NB DB 00H		; std::numeric_limits<unsigned __int64>::is_signed
CONST	ENDS
;	COMDAT ?pmField@?$CVarTypeInfo@G@ATL@@2QQtagVARIANT@@GQ3@
CONST	SEGMENT
?pmField@?$CVarTypeInfo@G@ATL@@2QQtagVARIANT@@GQ3@ DD 08H ; ATL::CVarTypeInfo<unsigned short>::pmField
CONST	ENDS
;	COMDAT ?VT@?$CVarTypeInfo@G@ATL@@2GB
CONST	SEGMENT
?VT@?$CVarTypeInfo@G@ATL@@2GB DW 012H			; ATL::CVarTypeInfo<unsigned short>::VT
CONST	ENDS
;	COMDAT _IID_IGameEvents
CONST	SEGMENT
_IID_IGameEvents DD 0b8d1f614H
	DW	0d5e4H
	DW	04bd1H
	DB	08fH
	DB	01H
	DB	017H
	DB	037H
	DB	01dH
	DB	0eaH
	DB	0f6H
	DB	085H
CONST	ENDS
;	COMDAT _IID_IGame
CONST	SEGMENT
_IID_IGame DD	0dda57123H
	DW	0d4e3H
	DW	011d2H
	DB	090H
	DB	018H
	DB	00H
	DB	04fH
	DB	04eH
	DB	00H
	DB	063H
	DB	098H
CONST	ENDS
;	COMDAT _IID_IRemoteMasterServerEvents
CONST	SEGMENT
_IID_IRemoteMasterServerEvents DD 036b5b50dH
	DW	069bbH
	DW	043d5H
	DB	083H
	DB	0f6H
	DB	0aaH
	DB	0f7H
	DB	0ebH
	DB	09fH
	DB	0ffH
	DB	07bH
CONST	ENDS
;	COMDAT _IID_IRemoteMasterServer
CONST	SEGMENT
_IID_IRemoteMasterServer DD 0e0016343H
	DW	04124H
	DW	048a9H
	DB	097H
	DB	034H
	DB	093H
	DB	0f4H
	DB	087H
	DB	00H
	DB	0a0H
	DB	04aH
CONST	ENDS
;	COMDAT _IID_IMasterServer
CONST	SEGMENT
_IID_IMasterServer DD 0dda57127H
	DW	0d4e3H
	DW	011d2H
	DB	090H
	DB	018H
	DB	00H
	DB	04fH
	DB	04eH
	DB	00H
	DB	063H
	DB	098H
CONST	ENDS
;	COMDAT ?pmField@?$CVarTypeInfo@PAF@ATL@@2QQtagVARIANT@@PAFQ3@
CONST	SEGMENT
?pmField@?$CVarTypeInfo@PAF@ATL@@2QQtagVARIANT@@PAFQ3@ DD 08H ; ATL::CVarTypeInfo<short *>::pmField
CONST	ENDS
;	COMDAT _CLSID_RemoteMasterServer
CONST	SEGMENT
_CLSID_RemoteMasterServer DD 045292708H
	DW	037a2H
	DW	0483bH
	DB	08eH
	DB	04aH
	DB	0e3H
	DB	0b6H
	DB	01fH
	DB	053H
	DB	07aH
	DB	0fH
CONST	ENDS
;	COMDAT _IID_IPlayer
CONST	SEGMENT
_IID_IPlayer DD	0dda57125H
	DW	0d4e3H
	DW	011d2H
	DB	090H
	DB	018H
	DB	00H
	DB	04fH
	DB	04eH
	DB	00H
	DB	063H
	DB	098H
CONST	ENDS
;	COMDAT ?VT@?$CVarTypeInfo@PAF@ATL@@2GB
CONST	SEGMENT
?VT@?$CVarTypeInfo@PAF@ATL@@2GB DW 04002H		; ATL::CVarTypeInfo<short *>::VT
CONST	ENDS
;	COMDAT _CLSID_Player
CONST	SEGMENT
_CLSID_Player DD 0546dbb68H
	DW	0338fH
	DW	04c04H
	DB	083H
	DB	0b7H
	DB	0dbH
	DB	0c0H
	DB	0efH
	DB	08fH
	DB	09H
	DB	0a6H
CONST	ENDS
;	COMDAT _IID_IHost
CONST	SEGMENT
_IID_IHost DD	0b6b03a0cH
	DW	0d547H
	DW	011d2H
	DB	090H
	DB	018H
	DB	00H
	DB	04fH
	DB	04eH
	DB	00H
	DB	063H
	DB	098H
CONST	ENDS
;	COMDAT _CLSID_Host
CONST	SEGMENT
_CLSID_Host DD	0b6b03a0dH
	DW	0d547H
	DW	011d2H
	DB	090H
	DB	018H
	DB	00H
	DB	04fH
	DB	04eH
	DB	00H
	DB	063H
	DB	098H
CONST	ENDS
;	COMDAT _LIBID_SHAREDLib
CONST	SEGMENT
_LIBID_SHAREDLib DD 0890a47f1H
	DW	0d62fH
	DW	011d2H
	DB	090H
	DB	018H
	DB	00H
	DB	04fH
	DB	04eH
	DB	00H
	DB	063H
	DB	098H
CONST	ENDS
;	COMDAT ?pmField@?$CVarTypeInfo@F@ATL@@2QQtagVARIANT@@FQ3@
CONST	SEGMENT
?pmField@?$CVarTypeInfo@F@ATL@@2QQtagVARIANT@@FQ3@ DD 08H ; ATL::CVarTypeInfo<short>::pmField
CONST	ENDS
;	COMDAT ?VT@?$CVarTypeInfo@F@ATL@@2GB
CONST	SEGMENT
?VT@?$CVarTypeInfo@F@ATL@@2GB DW 02H			; ATL::CVarTypeInfo<short>::VT
CONST	ENDS
;	COMDAT ?digits10@?$numeric_limits@_J@std@@2HB
CONST	SEGMENT
?digits10@?$numeric_limits@_J@std@@2HB DD 012H		; std::numeric_limits<__int64>::digits10
CONST	ENDS
;	COMDAT _IID_IRegistrar
CONST	SEGMENT
_IID_IRegistrar DD 044ec053bH
	DW	0400fH
	DW	011d0H
	DB	09dH
	DB	0cdH
	DB	00H
	DB	0a0H
	DB	0c9H
	DB	03H
	DB	091H
	DB	0d3H
CONST	ENDS
;	COMDAT ?digits@?$numeric_limits@_J@std@@2HB
CONST	SEGMENT
?digits@?$numeric_limits@_J@std@@2HB DD 03fH		; std::numeric_limits<__int64>::digits
CONST	ENDS
;	COMDAT ?is_signed@?$numeric_limits@_J@std@@2_NB
CONST	SEGMENT
?is_signed@?$numeric_limits@_J@std@@2_NB DB 01H		; std::numeric_limits<__int64>::is_signed
CONST	ENDS
;	COMDAT ?pmField@?$CVarTypeInfo@PAE@ATL@@2QQtagVARIANT@@PAEQ3@
CONST	SEGMENT
?pmField@?$CVarTypeInfo@PAE@ATL@@2QQtagVARIANT@@PAEQ3@ DD 08H ; ATL::CVarTypeInfo<unsigned char *>::pmField
CONST	ENDS
;	COMDAT ?VT@?$CVarTypeInfo@PAE@ATL@@2GB
CONST	SEGMENT
?VT@?$CVarTypeInfo@PAE@ATL@@2GB DW 04011H		; ATL::CVarTypeInfo<unsigned char *>::VT
CONST	ENDS
;	COMDAT ?pmField@?$CVarTypeInfo@PAD@ATL@@2QQtagVARIANT@@PADQ3@
CONST	SEGMENT
?pmField@?$CVarTypeInfo@PAD@ATL@@2QQtagVARIANT@@PADQ3@ DD 08H ; ATL::CVarTypeInfo<char *>::pmField
CONST	ENDS
;	COMDAT ?VT@?$CVarTypeInfo@PAD@ATL@@2GB
CONST	SEGMENT
?VT@?$CVarTypeInfo@PAD@ATL@@2GB DW 04010H		; ATL::CVarTypeInfo<char *>::VT
CONST	ENDS
;	COMDAT _CLSID_Registrar
CONST	SEGMENT
_CLSID_Registrar DD 044ec053aH
	DW	0400fH
	DW	011d0H
	DB	09dH
	DB	0cdH
	DB	00H
	DB	0a0H
	DB	0c9H
	DB	03H
	DB	091H
	DB	0d3H
CONST	ENDS
;	COMDAT ?pmField@?$CVarTypeInfo@E@ATL@@2QQtagVARIANT@@EQ3@
CONST	SEGMENT
?pmField@?$CVarTypeInfo@E@ATL@@2QQtagVARIANT@@EQ3@ DD 08H ; ATL::CVarTypeInfo<unsigned char>::pmField
CONST	ENDS
;	COMDAT ?digits10@?$numeric_limits@K@std@@2HB
CONST	SEGMENT
?digits10@?$numeric_limits@K@std@@2HB DD 09H		; std::numeric_limits<unsigned long>::digits10
CONST	ENDS
;	COMDAT ?VT@?$CVarTypeInfo@E@ATL@@2GB
CONST	SEGMENT
?VT@?$CVarTypeInfo@E@ATL@@2GB DW 011H			; ATL::CVarTypeInfo<unsigned char>::VT
CONST	ENDS
;	COMDAT ?digits@?$numeric_limits@K@std@@2HB
CONST	SEGMENT
?digits@?$numeric_limits@K@std@@2HB DD 020H		; std::numeric_limits<unsigned long>::digits
CONST	ENDS
;	COMDAT ?is_signed@?$numeric_limits@K@std@@2_NB
CONST	SEGMENT
?is_signed@?$numeric_limits@K@std@@2_NB DB 00H		; std::numeric_limits<unsigned long>::is_signed
CONST	ENDS
;	COMDAT ?pmField@?$CVarTypeInfo@D@ATL@@2QQtagVARIANT@@DQ3@
CONST	SEGMENT
?pmField@?$CVarTypeInfo@D@ATL@@2QQtagVARIANT@@DQ3@ DD 08H ; ATL::CVarTypeInfo<char>::pmField
CONST	ENDS
;	COMDAT ?VT@?$CVarTypeInfo@D@ATL@@2GB
CONST	SEGMENT
?VT@?$CVarTypeInfo@D@ATL@@2GB DW 010H			; ATL::CVarTypeInfo<char>::VT
CONST	ENDS
;	COMDAT ?_Max@?$AtlLimits@_K@ATL@@2_KB
CONST	SEGMENT
?_Max@?$AtlLimits@_K@ATL@@2_KB DQ ffffffffffffffffH	; ATL::AtlLimits<unsigned __int64>::_Max
CONST	ENDS
;	COMDAT ?_Min@?$AtlLimits@_K@ATL@@2_KB
CONST	SEGMENT
?_Min@?$AtlLimits@_K@ATL@@2_KB DQ 0000000000000000H	; ATL::AtlLimits<unsigned __int64>::_Min
CONST	ENDS
;	COMDAT __GUID_00020400_0000_0000_c000_000000000046
CONST	SEGMENT
__GUID_00020400_0000_0000_c000_000000000046 DD 020400H
	DW	00H
	DW	00H
	DB	0c0H
	DB	00H
	DB	00H
	DB	00H
	DB	00H
	DB	00H
	DB	00H
	DB	046H
CONST	ENDS
;	COMDAT ?_Max@?$AtlLimits@_J@ATL@@2_JB
CONST	SEGMENT
?_Max@?$AtlLimits@_J@ATL@@2_JB DQ 7fffffffffffffffH	; ATL::AtlLimits<__int64>::_Max
CONST	ENDS
;	COMDAT ?_Min@?$AtlLimits@_J@ATL@@2_JB
CONST	SEGMENT
?_Min@?$AtlLimits@_J@ATL@@2_JB DQ 8000000000000000H	; ATL::AtlLimits<__int64>::_Min
CONST	ENDS
;	COMDAT ?digits10@?$numeric_limits@J@std@@2HB
CONST	SEGMENT
?digits10@?$numeric_limits@J@std@@2HB DD 09H		; std::numeric_limits<long>::digits10
CONST	ENDS
;	COMDAT ?digits@?$numeric_limits@J@std@@2HB
CONST	SEGMENT
?digits@?$numeric_limits@J@std@@2HB DD 01fH		; std::numeric_limits<long>::digits
CONST	ENDS
;	COMDAT ?_Max@?$AtlLimits@K@ATL@@2KB
CONST	SEGMENT
?_Max@?$AtlLimits@K@ATL@@2KB DD 0ffffffffH		; ATL::AtlLimits<unsigned long>::_Max
CONST	ENDS
;	COMDAT ?is_signed@?$numeric_limits@J@std@@2_NB
CONST	SEGMENT
?is_signed@?$numeric_limits@J@std@@2_NB DB 01H		; std::numeric_limits<long>::is_signed
CONST	ENDS
;	COMDAT ?_Min@?$AtlLimits@K@ATL@@2KB
CONST	SEGMENT
?_Min@?$AtlLimits@K@ATL@@2KB DD 00H			; ATL::AtlLimits<unsigned long>::_Min
CONST	ENDS
;	COMDAT ?_Max@?$AtlLimits@J@ATL@@2JB
CONST	SEGMENT
?_Max@?$AtlLimits@J@ATL@@2JB DD 07fffffffH		; ATL::AtlLimits<long>::_Max
CONST	ENDS
;	COMDAT ?_Min@?$AtlLimits@J@ATL@@2JB
CONST	SEGMENT
?_Min@?$AtlLimits@J@ATL@@2JB DD 080000000H		; ATL::AtlLimits<long>::_Min
CONST	ENDS
;	COMDAT ?_Max@?$AtlLimits@I@ATL@@2IB
CONST	SEGMENT
?_Max@?$AtlLimits@I@ATL@@2IB DD 0ffffffffH		; ATL::AtlLimits<unsigned int>::_Max
CONST	ENDS
;	COMDAT ?_Min@?$AtlLimits@I@ATL@@2IB
CONST	SEGMENT
?_Min@?$AtlLimits@I@ATL@@2IB DD 00H			; ATL::AtlLimits<unsigned int>::_Min
CONST	ENDS
;	COMDAT ?digits10@?$numeric_limits@I@std@@2HB
CONST	SEGMENT
?digits10@?$numeric_limits@I@std@@2HB DD 09H		; std::numeric_limits<unsigned int>::digits10
CONST	ENDS
;	COMDAT ?digits@?$numeric_limits@I@std@@2HB
CONST	SEGMENT
?digits@?$numeric_limits@I@std@@2HB DD 020H		; std::numeric_limits<unsigned int>::digits
CONST	ENDS
;	COMDAT ?_Max@?$AtlLimits@H@ATL@@2HB
CONST	SEGMENT
?_Max@?$AtlLimits@H@ATL@@2HB DD 07fffffffH		; ATL::AtlLimits<int>::_Max
CONST	ENDS
;	COMDAT ?_Min@?$AtlLimits@H@ATL@@2HB
CONST	SEGMENT
?_Min@?$AtlLimits@H@ATL@@2HB DD 080000000H		; ATL::AtlLimits<int>::_Min
CONST	ENDS
;	COMDAT ?is_signed@?$numeric_limits@I@std@@2_NB
CONST	SEGMENT
?is_signed@?$numeric_limits@I@std@@2_NB DB 00H		; std::numeric_limits<unsigned int>::is_signed
CONST	ENDS
;	COMDAT ??_C@_06JBKGCNBB@Delete?$AA@
CONST	SEGMENT
??_C@_06JBKGCNBB@Delete?$AA@ DB 'Delete', 00H		; `string'
CONST	ENDS
;	COMDAT ?szDelete@ATL@@3QBDB
CONST	SEGMENT
?szDelete@ATL@@3QBDB DD FLAT:??_C@_06JBKGCNBB@Delete?$AA@ ; ATL::szDelete
CONST	ENDS
;	COMDAT ??_C@_08KAAPDIAN@NoRemove?$AA@
CONST	SEGMENT
??_C@_08KAAPDIAN@NoRemove?$AA@ DB 'NoRemove', 00H	; `string'
CONST	ENDS
;	COMDAT ?szNoRemove@ATL@@3QBDB
CONST	SEGMENT
?szNoRemove@ATL@@3QBDB DD FLAT:??_C@_08KAAPDIAN@NoRemove?$AA@ ; ATL::szNoRemove
CONST	ENDS
;	COMDAT ??_C@_0M@DBGDLGLL@ForceRemove?$AA@
CONST	SEGMENT
??_C@_0M@DBGDLGLL@ForceRemove?$AA@ DB 'ForceRemove', 00H ; `string'
CONST	ENDS
;	COMDAT ?szForceRemove@ATL@@3QBDB
CONST	SEGMENT
?szForceRemove@ATL@@3QBDB DD FLAT:??_C@_0M@DBGDLGLL@ForceRemove?$AA@ ; ATL::szForceRemove
CONST	ENDS
;	COMDAT ??_C@_03LAIAPFCB@Val?$AA@
CONST	SEGMENT
??_C@_03LAIAPFCB@Val?$AA@ DB 'Val', 00H			; `string'
CONST	ENDS
;	COMDAT ?szValToken@ATL@@3QBDB
CONST	SEGMENT
?szValToken@ATL@@3QBDB DD FLAT:??_C@_03LAIAPFCB@Val?$AA@ ; ATL::szValToken
CONST	ENDS
;	COMDAT ??_C@_01HMGJMAIH@B?$AA@
CONST	SEGMENT
??_C@_01HMGJMAIH@B?$AA@ DB 'B', 00H			; `string'
CONST	ENDS
;	COMDAT ?szBinaryVal@ATL@@3QBDB
CONST	SEGMENT
?szBinaryVal@ATL@@3QBDB DD FLAT:??_C@_01HMGJMAIH@B?$AA@	; ATL::szBinaryVal
CONST	ENDS
;	COMDAT ??_C@_01CKDDGHAB@D?$AA@
CONST	SEGMENT
??_C@_01CKDDGHAB@D?$AA@ DB 'D', 00H			; `string'
CONST	ENDS
;	COMDAT ?szDwordVal@ATL@@3QBDB
CONST	SEGMENT
?szDwordVal@ATL@@3QBDB DD FLAT:??_C@_01CKDDGHAB@D?$AA@	; ATL::szDwordVal
CONST	ENDS
;	COMDAT ??_C@_01PLPBNMEI@M?$AA@
CONST	SEGMENT
??_C@_01PLPBNMEI@M?$AA@ DB 'M', 00H			; `string'
CONST	ENDS
;	COMDAT ?digits10@?$numeric_limits@H@std@@2HB
CONST	SEGMENT
?digits10@?$numeric_limits@H@std@@2HB DD 09H		; std::numeric_limits<int>::digits10
CONST	ENDS
;	COMDAT ?multiszStringVal@ATL@@3QBDB
CONST	SEGMENT
?multiszStringVal@ATL@@3QBDB DD FLAT:??_C@_01PLPBNMEI@M?$AA@ ; ATL::multiszStringVal
CONST	ENDS
;	COMDAT ??_C@_01CPLAODJH@S?$AA@
CONST	SEGMENT
??_C@_01CPLAODJH@S?$AA@ DB 'S', 00H			; `string'
CONST	ENDS
;	COMDAT ?szStringVal@ATL@@3QBDB
CONST	SEGMENT
?szStringVal@ATL@@3QBDB DD FLAT:??_C@_01CPLAODJH@S?$AA@	; ATL::szStringVal
CONST	ENDS
;	COMDAT ?chEquals@ATL@@3DB
CONST	SEGMENT
?chEquals@ATL@@3DB DB 03dH				; ATL::chEquals
CONST	ENDS
;	COMDAT ?digits@?$numeric_limits@H@std@@2HB
CONST	SEGMENT
?digits@?$numeric_limits@H@std@@2HB DD 01fH		; std::numeric_limits<int>::digits
CONST	ENDS
;	COMDAT ?chQuote@ATL@@3DB
CONST	SEGMENT
?chQuote@ATL@@3DB DB 027H				; ATL::chQuote
CONST	ENDS
;	COMDAT __GUID_a6bc3ac0_dbaa_11ce_9de3_00aa004bb851
CONST	SEGMENT
__GUID_a6bc3ac0_dbaa_11ce_9de3_00aa004bb851 DD 0a6bc3ac0H
	DW	0dbaaH
	DW	011ceH
	DB	09dH
	DB	0e3H
	DB	00H
	DB	0aaH
	DB	00H
	DB	04bH
	DB	0b8H
	DB	051H
CONST	ENDS
;	COMDAT ?chLeftBracket@ATL@@3DB
CONST	SEGMENT
?chLeftBracket@ATL@@3DB DB 07bH				; ATL::chLeftBracket
CONST	ENDS
;	COMDAT ?chRightBracket@ATL@@3DB
CONST	SEGMENT
?chRightBracket@ATL@@3DB DB 07dH			; ATL::chRightBracket
CONST	ENDS
;	COMDAT ?value@?$_Sizeof@HU_Nil@std@@U12@U12@U12@U12@U12@U12@@std@@2IB
CONST	SEGMENT
?value@?$_Sizeof@HU_Nil@std@@U12@U12@U12@U12@U12@U12@@std@@2IB DD 01H ; std::_Sizeof<int,std::_Nil,std::_Nil,std::_Nil,std::_Nil,std::_Nil,std::_Nil,std::_Nil>::value
CONST	ENDS
;	COMDAT ?chDirSep@ATL@@3DB
CONST	SEGMENT
?chDirSep@ATL@@3DB DB 05cH				; ATL::chDirSep
CONST	ENDS
;	COMDAT ?is_signed@?$numeric_limits@H@std@@2_NB
CONST	SEGMENT
?is_signed@?$numeric_limits@H@std@@2_NB DB 01H		; std::numeric_limits<int>::is_signed
CONST	ENDS
;	COMDAT ?digits10@?$numeric_limits@G@std@@2HB
CONST	SEGMENT
?digits10@?$numeric_limits@G@std@@2HB DD 04H		; std::numeric_limits<unsigned short>::digits10
CONST	ENDS
;	COMDAT ?digits@?$numeric_limits@G@std@@2HB
CONST	SEGMENT
?digits@?$numeric_limits@G@std@@2HB DD 010H		; std::numeric_limits<unsigned short>::digits
CONST	ENDS
;	COMDAT ?is_signed@?$numeric_limits@G@std@@2_NB
CONST	SEGMENT
?is_signed@?$numeric_limits@G@std@@2_NB DB 00H		; std::numeric_limits<unsigned short>::is_signed
CONST	ENDS
;	COMDAT ??_C@_05PDIKPLII@AppID?$AA@
CONST	SEGMENT
??_C@_05PDIKPLII@AppID?$AA@ DB 'AppID', 00H		; `string'
CONST	ENDS
;	COMDAT ?digits10@?$numeric_limits@F@std@@2HB
CONST	SEGMENT
?digits10@?$numeric_limits@F@std@@2HB DD 04H		; std::numeric_limits<short>::digits10
CONST	ENDS
;	COMDAT ?digits@?$numeric_limits@F@std@@2HB
CONST	SEGMENT
?digits@?$numeric_limits@F@std@@2HB DD 0fH		; std::numeric_limits<short>::digits
CONST	ENDS
;	COMDAT ?is_signed@?$numeric_limits@F@std@@2_NB
CONST	SEGMENT
?is_signed@?$numeric_limits@F@std@@2_NB DB 01H		; std::numeric_limits<short>::is_signed
CONST	ENDS
;	COMDAT __GUID_45292708_37a2_483b_8e4a_e3b61f537a0f
CONST	SEGMENT
__GUID_45292708_37a2_483b_8e4a_e3b61f537a0f DD 045292708H
	DW	037a2H
	DW	0483bH
	DB	08eH
	DB	04aH
	DB	0e3H
	DB	0b6H
	DB	01fH
	DB	053H
	DB	07aH
	DB	0fH
CONST	ENDS
;	COMDAT ??_C@_05GIBEAPNE@CLSID?$AA@
CONST	SEGMENT
??_C@_05GIBEAPNE@CLSID?$AA@ DB 'CLSID', 00H		; `string'
CONST	ENDS
;	COMDAT _IID_IInternalConnection
CONST	SEGMENT
_IID_IInternalConnection DD 072ad0770H
	DW	06a9fH
	DW	011d1H
	DB	0bcH
	DB	0ecH
	DB	00H
	DB	060H
	DB	08H
	DB	08fH
	DB	044H
	DB	04eH
CONST	ENDS
;	COMDAT ?value@?$integral_constant@_N$00@std@@2_NB
CONST	SEGMENT
?value@?$integral_constant@_N$00@std@@2_NB DB 01H	; std::integral_constant<bool,1>::value
CONST	ENDS
;	COMDAT __GUID_7fd52380_4e07_101b_ae2d_08002b2ec713
CONST	SEGMENT
__GUID_7fd52380_4e07_101b_ae2d_08002b2ec713 DD 07fd52380H
	DW	04e07H
	DW	0101bH
	DB	0aeH
	DB	02dH
	DB	08H
	DB	00H
	DB	02bH
	DB	02eH
	DB	0c7H
	DB	013H
CONST	ENDS
;	COMDAT __GUID_00000109_0000_0000_c000_000000000046
CONST	SEGMENT
__GUID_00000109_0000_0000_c000_000000000046 DD 0109H
	DW	00H
	DW	00H
	DB	0c0H
	DB	00H
	DB	00H
	DB	00H
	DB	00H
	DB	00H
	DB	00H
	DB	046H
CONST	ENDS
;	COMDAT ?digits10@?$numeric_limits@E@std@@2HB
CONST	SEGMENT
?digits10@?$numeric_limits@E@std@@2HB DD 02H		; std::numeric_limits<unsigned char>::digits10
CONST	ENDS
;	COMDAT ?digits@?$numeric_limits@E@std@@2HB
CONST	SEGMENT
?digits@?$numeric_limits@E@std@@2HB DD 08H		; std::numeric_limits<unsigned char>::digits
CONST	ENDS
;	COMDAT _IID_IAxWinAmbientDispatchEx
CONST	SEGMENT
_IID_IAxWinAmbientDispatchEx DD 0b2d0778bH
	DW	0ac99H
	DW	04c58H
	DB	0a5H
	DB	0c8H
	DB	0e7H
	DB	072H
	DB	04eH
	DB	053H
	DB	016H
	DB	0b5H
CONST	ENDS
;	COMDAT ?value@?$integral_constant@_N$0A@@std@@2_NB
CONST	SEGMENT
?value@?$integral_constant@_N$0A@@std@@2_NB DB 00H	; std::integral_constant<bool,0>::value
CONST	ENDS
;	COMDAT ?is_signed@?$numeric_limits@E@std@@2_NB
CONST	SEGMENT
?is_signed@?$numeric_limits@E@std@@2_NB DB 00H		; std::numeric_limits<unsigned char>::is_signed
CONST	ENDS
;	COMDAT ?table_size@?$ctype@D@std@@2IB
CONST	SEGMENT
?table_size@?$ctype@D@std@@2IB DD 0100H			; std::ctype<char>::table_size
CONST	ENDS
;	COMDAT ?digits10@?$numeric_limits@C@std@@2HB
CONST	SEGMENT
?digits10@?$numeric_limits@C@std@@2HB DD 02H		; std::numeric_limits<signed char>::digits10
CONST	ENDS
;	COMDAT __GUID_0002e012_0000_0000_c000_000000000046
CONST	SEGMENT
__GUID_0002e012_0000_0000_c000_000000000046 DD 02e012H
	DW	00H
	DW	00H
	DB	0c0H
	DB	00H
	DB	00H
	DB	00H
	DB	00H
	DB	00H
	DB	00H
	DB	046H
CONST	ENDS
;	COMDAT ?digits@?$numeric_limits@C@std@@2HB
CONST	SEGMENT
?digits@?$numeric_limits@C@std@@2HB DD 07H		; std::numeric_limits<signed char>::digits
CONST	ENDS
;	COMDAT __GUID_0000010c_0000_0000_c000_000000000046
CONST	SEGMENT
__GUID_0000010c_0000_0000_c000_000000000046 DD 010cH
	DW	00H
	DW	00H
	DB	0c0H
	DB	00H
	DB	00H
	DB	00H
	DB	00H
	DB	00H
	DB	00H
	DB	046H
CONST	ENDS
;	COMDAT ?is_signed@?$numeric_limits@C@std@@2_NB
CONST	SEGMENT
?is_signed@?$numeric_limits@C@std@@2_NB DB 01H		; std::numeric_limits<signed char>::is_signed
CONST	ENDS
CONST	SEGMENT
_L_2	DD	03f317218r			; 0.693147
CONST	ENDS
;	COMDAT __GUID_00000000_0000_0000_0000_000000000000
CONST	SEGMENT
__GUID_00000000_0000_0000_0000_000000000000 DD 00H
	DW	00H
	DW	00H
	DB	00H
	DB	00H
	DB	00H
	DB	00H
	DB	00H
	DB	00H
	DB	00H
	DB	00H
CONST	ENDS
;	COMDAT ?digits10@?$numeric_limits@_N@std@@2HB
CONST	SEGMENT
?digits10@?$numeric_limits@_N@std@@2HB DD 00H		; std::numeric_limits<bool>::digits10
CONST	ENDS
;	COMDAT ?digits@?$numeric_limits@_N@std@@2HB
CONST	SEGMENT
?digits@?$numeric_limits@_N@std@@2HB DD 01H		; std::numeric_limits<bool>::digits
CONST	ENDS
;	COMDAT ?is_signed@?$numeric_limits@_N@std@@2_NB
CONST	SEGMENT
?is_signed@?$numeric_limits@_N@std@@2_NB DB 00H		; std::numeric_limits<bool>::is_signed
CONST	ENDS
;	COMDAT ?is_modulo@?$numeric_limits@_N@std@@2_NB
CONST	SEGMENT
?is_modulo@?$numeric_limits@_N@std@@2_NB DB 00H		; std::numeric_limits<bool>::is_modulo
CONST	ENDS
;	COMDAT ?digits10@?$numeric_limits@_W@std@@2HB
CONST	SEGMENT
?digits10@?$numeric_limits@_W@std@@2HB DD 04H		; std::numeric_limits<wchar_t>::digits10
CONST	ENDS
;	COMDAT ??_C@_07KJLOKDKB@TypeLib?$AA@
CONST	SEGMENT
??_C@_07KJLOKDKB@TypeLib?$AA@ DB 'TypeLib', 00H		; `string'
CONST	ENDS
;	COMDAT ??_C@_08KEKAJNJI@Software?$AA@
CONST	SEGMENT
??_C@_08KEKAJNJI@Software?$AA@ DB 'Software', 00H	; `string'
CONST	ENDS
;	COMDAT ??_C@_06FDHFNJBJ@SYSTEM?$AA@
CONST	SEGMENT
??_C@_06FDHFNJBJ@SYSTEM?$AA@ DB 'SYSTEM', 00H		; `string'
CONST	ENDS
;	COMDAT ?digits@?$numeric_limits@_W@std@@2HB
CONST	SEGMENT
?digits@?$numeric_limits@_W@std@@2HB DD 010H		; std::numeric_limits<wchar_t>::digits
CONST	ENDS
;	COMDAT ??_C@_08LOPHEHKG@SECURITY?$AA@
CONST	SEGMENT
??_C@_08LOPHEHKG@SECURITY?$AA@ DB 'SECURITY', 00H	; `string'
CONST	ENDS
;	COMDAT ??_C@_03DDIMFGBA@SAM?$AA@
CONST	SEGMENT
??_C@_03DDIMFGBA@SAM?$AA@ DB 'SAM', 00H			; `string'
CONST	ENDS
;	COMDAT ??_C@_04IHBFOLAC@Mime?$AA@
CONST	SEGMENT
??_C@_04IHBFOLAC@Mime?$AA@ DB 'Mime', 00H		; `string'
CONST	ENDS
;	COMDAT ??_C@_08PPIOJEA@Hardware?$AA@
CONST	SEGMENT
??_C@_08PPIOJEA@Hardware?$AA@ DB 'Hardware', 00H	; `string'
CONST	ENDS
;	COMDAT ?is_signed@?$numeric_limits@_W@std@@2_NB
CONST	SEGMENT
?is_signed@?$numeric_limits@_W@std@@2_NB DB 00H		; std::numeric_limits<wchar_t>::is_signed
CONST	ENDS
;	COMDAT ??_C@_09JKPGEJCH@Interface?$AA@
CONST	SEGMENT
??_C@_09JKPGEJCH@Interface?$AA@ DB 'Interface', 00H	; `string'
CONST	ENDS
;	COMDAT ??_C@_08PICKODJL@FileType?$AA@
CONST	SEGMENT
??_C@_08PICKODJL@FileType?$AA@ DB 'FileType', 00H	; `string'
CONST	ENDS
;	COMDAT ??_C@_0BF@HDDNNDFH@Component?5Categories?$AA@
CONST	SEGMENT
??_C@_0BF@HDDNNDFH@Component?5Categories?$AA@ DB 'Component Categories', 00H ; `string'
CONST	ENDS
;	COMDAT ?none@?$_Locbase@H@std@@2HB
CONST	SEGMENT
?none@?$_Locbase@H@std@@2HB DD 00H			; std::_Locbase<int>::none
CONST	ENDS
;	COMDAT ?all@?$_Locbase@H@std@@2HB
CONST	SEGMENT
?all@?$_Locbase@H@std@@2HB DD 03fH			; std::_Locbase<int>::all
CONST	ENDS
;	COMDAT ?messages@?$_Locbase@H@std@@2HB
CONST	SEGMENT
?messages@?$_Locbase@H@std@@2HB DD 020H			; std::_Locbase<int>::messages
CONST	ENDS
;	COMDAT ___pobjMapEntryLast
ATL$__z	SEGMENT
___pobjMapEntryLast DD 00H
ATL$__z	ENDS
;	COMDAT ?time@?$_Locbase@H@std@@2HB
CONST	SEGMENT
?time@?$_Locbase@H@std@@2HB DD 010H			; std::_Locbase<int>::time
CONST	ENDS
;	COMDAT ___pobjMapEntryFirst
ATL$__a	SEGMENT
___pobjMapEntryFirst DD 00H
ATL$__a	ENDS
;	COMDAT ?numeric@?$_Locbase@H@std@@2HB
CONST	SEGMENT
?numeric@?$_Locbase@H@std@@2HB DD 08H			; std::_Locbase<int>::numeric
CONST	ENDS
;	COMDAT ?monetary@?$_Locbase@H@std@@2HB
CONST	SEGMENT
?monetary@?$_Locbase@H@std@@2HB DD 04H			; std::_Locbase<int>::monetary
CONST	ENDS
;	COMDAT ?ctype@?$_Locbase@H@std@@2HB
CONST	SEGMENT
?ctype@?$_Locbase@H@std@@2HB DD 02H			; std::_Locbase<int>::ctype
CONST	ENDS
;	COMDAT ?collate@?$_Locbase@H@std@@2HB
CONST	SEGMENT
?collate@?$_Locbase@H@std@@2HB DD 01H			; std::_Locbase<int>::collate
CONST	ENDS
;	COMDAT ?digits10@?$numeric_limits@D@std@@2HB
CONST	SEGMENT
?digits10@?$numeric_limits@D@std@@2HB DD 02H		; std::numeric_limits<char>::digits10
CONST	ENDS
;	COMDAT ?digits@?$numeric_limits@D@std@@2HB
CONST	SEGMENT
?digits@?$numeric_limits@D@std@@2HB DD 07H		; std::numeric_limits<char>::digits
CONST	ENDS
;	COMDAT ?is_signed@?$numeric_limits@D@std@@2_NB
CONST	SEGMENT
?is_signed@?$numeric_limits@D@std@@2_NB DB 01H		; std::numeric_limits<char>::is_signed
CONST	ENDS
;	COMDAT ?radix@_Num_float_base@std@@2HB
CONST	SEGMENT
?radix@_Num_float_base@std@@2HB DD 02H			; std::_Num_float_base::radix
CONST	ENDS
;	COMDAT ?round_style@_Num_float_base@std@@2W4float_round_style@2@B
CONST	SEGMENT
?round_style@_Num_float_base@std@@2W4float_round_style@2@B DD 01H ; std::_Num_float_base::round_style
CONST	ENDS
;	COMDAT ?traps@_Num_float_base@std@@2_NB
CONST	SEGMENT
?traps@_Num_float_base@std@@2_NB DB 00H			; std::_Num_float_base::traps
CONST	ENDS
;	COMDAT ?tinyness_before@_Num_float_base@std@@2_NB
CONST	SEGMENT
?tinyness_before@_Num_float_base@std@@2_NB DB 01H	; std::_Num_float_base::tinyness_before
CONST	ENDS
;	COMDAT ?is_specialized@_Num_float_base@std@@2_NB
CONST	SEGMENT
?is_specialized@_Num_float_base@std@@2_NB DB 01H	; std::_Num_float_base::is_specialized
CONST	ENDS
;	COMDAT ?is_signed@_Num_float_base@std@@2_NB
CONST	SEGMENT
?is_signed@_Num_float_base@std@@2_NB DB 01H		; std::_Num_float_base::is_signed
CONST	ENDS
;	COMDAT ?is_modulo@_Num_float_base@std@@2_NB
CONST	SEGMENT
?is_modulo@_Num_float_base@std@@2_NB DB 00H		; std::_Num_float_base::is_modulo
CONST	ENDS
;	COMDAT ?is_integer@_Num_float_base@std@@2_NB
CONST	SEGMENT
?is_integer@_Num_float_base@std@@2_NB DB 00H		; std::_Num_float_base::is_integer
CONST	ENDS
;	COMDAT ?is_iec559@_Num_float_base@std@@2_NB
CONST	SEGMENT
?is_iec559@_Num_float_base@std@@2_NB DB 01H		; std::_Num_float_base::is_iec559
CONST	ENDS
;	COMDAT ?is_exact@_Num_float_base@std@@2_NB
CONST	SEGMENT
?is_exact@_Num_float_base@std@@2_NB DB 00H		; std::_Num_float_base::is_exact
CONST	ENDS
;	COMDAT ?is_bounded@_Num_float_base@std@@2_NB
CONST	SEGMENT
?is_bounded@_Num_float_base@std@@2_NB DB 01H		; std::_Num_float_base::is_bounded
CONST	ENDS
;	COMDAT __GUID_fc4801a3_2ba9_11cf_a229_00aa003d7352
CONST	SEGMENT
__GUID_fc4801a3_2ba9_11cf_a229_00aa003d7352 DD 0fc4801a3H
	DW	02ba9H
	DW	011cfH
	DB	0a2H
	DB	029H
	DB	00H
	DB	0aaH
	DB	00H
	DB	03dH
	DB	073H
	DB	052H
CONST	ENDS
;	COMDAT ?has_signaling_NaN@_Num_float_base@std@@2_NB
CONST	SEGMENT
?has_signaling_NaN@_Num_float_base@std@@2_NB DB 01H	; std::_Num_float_base::has_signaling_NaN
CONST	ENDS
;	COMDAT ?has_quiet_NaN@_Num_float_base@std@@2_NB
CONST	SEGMENT
?has_quiet_NaN@_Num_float_base@std@@2_NB DB 01H		; std::_Num_float_base::has_quiet_NaN
CONST	ENDS
;	COMDAT ?has_infinity@_Num_float_base@std@@2_NB
CONST	SEGMENT
?has_infinity@_Num_float_base@std@@2_NB DB 01H		; std::_Num_float_base::has_infinity
CONST	ENDS
;	COMDAT ?CMPDIRTYDATA_INTERVAL@FalconEntity@@2KB
CONST	SEGMENT
?CMPDIRTYDATA_INTERVAL@FalconEntity@@2KB DD 0c8H	; FalconEntity::CMPDIRTYDATA_INTERVAL
CONST	ENDS
;	COMDAT ?SIMDIRTYDATA_INTERVAL@FalconEntity@@2KB
CONST	SEGMENT
?SIMDIRTYDATA_INTERVAL@FalconEntity@@2KB DD 0c8H	; FalconEntity::SIMDIRTYDATA_INTERVAL
CONST	ENDS
;	COMDAT ?has_denorm_loss@_Num_float_base@std@@2_NB
CONST	SEGMENT
?has_denorm_loss@_Num_float_base@std@@2_NB DB 01H	; std::_Num_float_base::has_denorm_loss
CONST	ENDS
;	COMDAT ?has_denorm@_Num_float_base@std@@2W4float_denorm_style@2@B
CONST	SEGMENT
?has_denorm@_Num_float_base@std@@2W4float_denorm_style@2@B DD 01H ; std::_Num_float_base::has_denorm
CONST	ENDS
;	COMDAT __GUID_5ff85b6b_de05_42b9_831f_dc6a4e30a513
CONST	SEGMENT
__GUID_5ff85b6b_de05_42b9_831f_dc6a4e30a513 DD 05ff85b6bH
	DW	0de05H
	DW	042b9H
	DB	083H
	DB	01fH
	DB	0dcH
	DB	06aH
	DB	04eH
	DB	030H
	DB	0a5H
	DB	013H
CONST	ENDS
;	COMDAT ?radix@_Num_int_base@std@@2HB
CONST	SEGMENT
?radix@_Num_int_base@std@@2HB DD 02H			; std::_Num_int_base::radix
CONST	ENDS
;	COMDAT ?is_specialized@_Num_int_base@std@@2_NB
CONST	SEGMENT
?is_specialized@_Num_int_base@std@@2_NB DB 01H		; std::_Num_int_base::is_specialized
CONST	ENDS
;	COMDAT __GUID_90efd9f9_d7a8_11d2_901a_004f4e006398
CONST	SEGMENT
__GUID_90efd9f9_d7a8_11d2_901a_004f4e006398 DD 090efd9f9H
	DW	0d7a8H
	DW	011d2H
	DB	090H
	DB	01aH
	DB	00H
	DB	04fH
	DB	04eH
	DB	00H
	DB	063H
	DB	098H
CONST	ENDS
;	COMDAT ?is_modulo@_Num_int_base@std@@2_NB
CONST	SEGMENT
?is_modulo@_Num_int_base@std@@2_NB DB 01H		; std::_Num_int_base::is_modulo
CONST	ENDS
;	COMDAT ?is_integer@_Num_int_base@std@@2_NB
CONST	SEGMENT
?is_integer@_Num_int_base@std@@2_NB DB 01H		; std::_Num_int_base::is_integer
CONST	ENDS
;	COMDAT __GUID_df360ef0_de0d_11d2_9023_004f4e006398
CONST	SEGMENT
__GUID_df360ef0_de0d_11d2_9023_004f4e006398 DD 0df360ef0H
	DW	0de0dH
	DW	011d2H
	DB	090H
	DB	023H
	DB	00H
	DB	04fH
	DB	04eH
	DB	00H
	DB	063H
	DB	098H
CONST	ENDS
;	COMDAT ?is_exact@_Num_int_base@std@@2_NB
CONST	SEGMENT
?is_exact@_Num_int_base@std@@2_NB DB 01H		; std::_Num_int_base::is_exact
CONST	ENDS
;	COMDAT ?is_bounded@_Num_int_base@std@@2_NB
CONST	SEGMENT
?is_bounded@_Num_int_base@std@@2_NB DB 01H		; std::_Num_int_base::is_bounded
CONST	ENDS
;	COMDAT __GUID_1386ae5d_d6f3_11d2_9018_004f4e006398
CONST	SEGMENT
__GUID_1386ae5d_d6f3_11d2_9018_004f4e006398 DD 01386ae5dH
	DW	0d6f3H
	DW	011d2H
	DB	090H
	DB	018H
	DB	00H
	DB	04fH
	DB	04eH
	DB	00H
	DB	063H
	DB	098H
CONST	ENDS
;	COMDAT __GUID_1386ae5a_d6f3_11d2_9018_004f4e006398
CONST	SEGMENT
__GUID_1386ae5a_d6f3_11d2_9018_004f4e006398 DD 01386ae5aH
	DW	0d6f3H
	DW	011d2H
	DB	090H
	DB	018H
	DB	00H
	DB	04fH
	DB	04eH
	DB	00H
	DB	063H
	DB	098H
CONST	ENDS
;	COMDAT __GUID_1386ae5c_d6f3_11d2_9018_004f4e006398
CONST	SEGMENT
__GUID_1386ae5c_d6f3_11d2_9018_004f4e006398 DD 01386ae5cH
	DW	0d6f3H
	DW	011d2H
	DB	090H
	DB	018H
	DB	00H
	DB	04fH
	DB	04eH
	DB	00H
	DB	063H
	DB	098H
CONST	ENDS
;	COMDAT __GUID_0f70ccce_d716_11d2_9018_004f4e006398
CONST	SEGMENT
__GUID_0f70ccce_d716_11d2_9018_004f4e006398 DD 0f70ccceH
	DW	0d716H
	DW	011d2H
	DB	090H
	DB	018H
	DB	00H
	DB	04fH
	DB	04eH
	DB	00H
	DB	063H
	DB	098H
CONST	ENDS
;	COMDAT _LIBID_ATLLib
CONST	SEGMENT
_LIBID_ATLLib DD 044ec0535H
	DW	0400fH
	DW	011d0H
	DB	09dH
	DB	0cdH
	DB	00H
	DB	0a0H
	DB	0c9H
	DB	03H
	DB	091H
	DB	0d3H
CONST	ENDS
;	COMDAT __GUID_dda57122_d4e3_11d2_9018_004f4e006398
CONST	SEGMENT
__GUID_dda57122_d4e3_11d2_9018_004f4e006398 DD 0dda57122H
	DW	0d4e3H
	DW	011d2H
	DB	090H
	DB	018H
	DB	00H
	DB	04fH
	DB	04eH
	DB	00H
	DB	063H
	DB	098H
CONST	ENDS
;	COMDAT ?radix@_Num_base@std@@2HB
CONST	SEGMENT
?radix@_Num_base@std@@2HB DD 00H			; std::_Num_base::radix
CONST	ENDS
;	COMDAT __GUID_d783c329_d613_11d2_9018_004f4e006398
CONST	SEGMENT
__GUID_d783c329_d613_11d2_9018_004f4e006398 DD 0d783c329H
	DW	0d613H
	DW	011d2H
	DB	090H
	DB	018H
	DB	00H
	DB	04fH
	DB	04eH
	DB	00H
	DB	063H
	DB	098H
CONST	ENDS
;	COMDAT ?min_exponent10@_Num_base@std@@2HB
CONST	SEGMENT
?min_exponent10@_Num_base@std@@2HB DD 00H		; std::_Num_base::min_exponent10
CONST	ENDS
;	COMDAT ?min_exponent@_Num_base@std@@2HB
CONST	SEGMENT
?min_exponent@_Num_base@std@@2HB DD 00H			; std::_Num_base::min_exponent
CONST	ENDS
;	COMDAT __GUID_b6b03a0c_d547_11d2_9018_004f4e006398
CONST	SEGMENT
__GUID_b6b03a0c_d547_11d2_9018_004f4e006398 DD 0b6b03a0cH
	DW	0d547H
	DW	011d2H
	DB	090H
	DB	018H
	DB	00H
	DB	04fH
	DB	04eH
	DB	00H
	DB	063H
	DB	098H
CONST	ENDS
;	COMDAT ?max_exponent10@_Num_base@std@@2HB
CONST	SEGMENT
?max_exponent10@_Num_base@std@@2HB DD 00H		; std::_Num_base::max_exponent10
CONST	ENDS
;	COMDAT ?max_exponent@_Num_base@std@@2HB
CONST	SEGMENT
?max_exponent@_Num_base@std@@2HB DD 00H			; std::_Num_base::max_exponent
CONST	ENDS
;	COMDAT __GUID_36b5b50d_69bb_43d5_83f6_aaf7eb9fff7b
CONST	SEGMENT
__GUID_36b5b50d_69bb_43d5_83f6_aaf7eb9fff7b DD 036b5b50dH
	DW	069bbH
	DW	043d5H
	DB	083H
	DB	0f6H
	DB	0aaH
	DB	0f7H
	DB	0ebH
	DB	09fH
	DB	0ffH
	DB	07bH
CONST	ENDS
;	COMDAT _IID_IAxWinAmbientDispatch
CONST	SEGMENT
_IID_IAxWinAmbientDispatch DD 0b6ea2051H
	DW	048aH
	DW	011d1H
	DB	082H
	DB	0b9H
	DB	00H
	DB	0c0H
	DB	04fH
	DB	0b9H
	DB	094H
	DB	02eH
CONST	ENDS
;	COMDAT ?max_digits10@_Num_base@std@@2HB
CONST	SEGMENT
?max_digits10@_Num_base@std@@2HB DD 00H			; std::_Num_base::max_digits10
CONST	ENDS
;	COMDAT ?digits10@_Num_base@std@@2HB
CONST	SEGMENT
?digits10@_Num_base@std@@2HB DD 00H			; std::_Num_base::digits10
CONST	ENDS
;	COMDAT __GUID_e0016343_4124_48a9_9734_93f48700a04a
CONST	SEGMENT
__GUID_e0016343_4124_48a9_9734_93f48700a04a DD 0e0016343H
	DW	04124H
	DW	048a9H
	DB	097H
	DB	034H
	DB	093H
	DB	0f4H
	DB	087H
	DB	00H
	DB	0a0H
	DB	04aH
CONST	ENDS
;	COMDAT ?digits@_Num_base@std@@2HB
CONST	SEGMENT
?digits@_Num_base@std@@2HB DD 00H			; std::_Num_base::digits
CONST	ENDS
;	COMDAT ?round_style@_Num_base@std@@2W4float_round_style@2@B
CONST	SEGMENT
?round_style@_Num_base@std@@2W4float_round_style@2@B DD 00H ; std::_Num_base::round_style
CONST	ENDS
;	COMDAT ?traps@_Num_base@std@@2_NB
CONST	SEGMENT
?traps@_Num_base@std@@2_NB DB 00H			; std::_Num_base::traps
CONST	ENDS
PUBLIC	_InlineIsEqualGUID
PUBLIC	??2@YAPAXIPAX@Z					; operator new
PUBLIC	??3@YAXPAX0@Z					; operator delete
PUBLIC	?length@?$char_traits@D@std@@SAIPBD@Z		; std::char_traits<char>::length
PUBLIC	?copy@?$char_traits@D@std@@SAPADPADPBDI@Z	; std::char_traits<char>::copy
PUBLIC	?move@?$char_traits@D@std@@SAPADPADPBDI@Z	; std::char_traits<char>::move
PUBLIC	?assign@?$char_traits@D@std@@SAXAADABD@Z	; std::char_traits<char>::assign
PUBLIC	?_Orphan_all@_Container_base0@std@@QAEXXZ	; std::_Container_base0::_Orphan_all
PUBLIC	?_Adopt@_Iterator_base0@std@@QAEXPBX@Z		; std::_Iterator_base0::_Adopt
PUBLIC	??0?$allocator@D@std@@QAE@XZ			; std::allocator<char>::allocator<char>
PUBLIC	?deallocate@?$allocator@D@std@@QAEXPADI@Z	; std::allocator<char>::deallocate
PUBLIC	?allocate@?$allocator@D@std@@QAEPADI@Z		; std::allocator<char>::allocate
PUBLIC	?max_size@?$allocator@D@std@@QBEIXZ		; std::allocator<char>::max_size
PUBLIC	?max_size@?$allocator_traits@V?$allocator@D@std@@@std@@SAIABV?$allocator@D@2@@Z ; std::allocator_traits<std::allocator<char> >::max_size
PUBLIC	??0?$_Wrap_alloc@V?$allocator@D@std@@@std@@QAE@XZ ; std::_Wrap_alloc<std::allocator<char> >::_Wrap_alloc<std::allocator<char> >
PUBLIC	?allocate@?$_Wrap_alloc@V?$allocator@D@std@@@std@@QAEPADI@Z ; std::_Wrap_alloc<std::allocator<char> >::allocate
PUBLIC	?deallocate@?$_Wrap_alloc@V?$allocator@D@std@@@std@@QAEXPADI@Z ; std::_Wrap_alloc<std::allocator<char> >::deallocate
PUBLIC	?max_size@?$_Wrap_alloc@V?$allocator@D@std@@@std@@QBEIXZ ; std::_Wrap_alloc<std::allocator<char> >::max_size
PUBLIC	??0?$_String_val@U?$_Simple_types@D@std@@@std@@QAE@XZ ; std::_String_val<std::_Simple_types<char> >::_String_val<std::_Simple_types<char> >
PUBLIC	?_Myptr@?$_String_val@U?$_Simple_types@D@std@@@std@@QAEPADXZ ; std::_String_val<std::_Simple_types<char> >::_Myptr
PUBLIC	?_Myptr@?$_String_val@U?$_Simple_types@D@std@@@std@@QBEPBDXZ ; std::_String_val<std::_Simple_types<char> >::_Myptr
PUBLIC	??0?$_String_alloc@$0A@U?$_String_base_types@DV?$allocator@D@std@@@std@@@std@@QAE@ABV?$allocator@D@1@@Z ; std::_String_alloc<0,std::_String_base_types<char,std::allocator<char> > >::_String_alloc<0,std::_String_base_types<char,std::allocator<char> > >
PUBLIC	?_Getal@?$_String_alloc@$0A@U?$_String_base_types@DV?$allocator@D@std@@@std@@@std@@QBE?AU?$_Wrap_alloc@V?$allocator@D@std@@@2@XZ ; std::_String_alloc<0,std::_String_base_types<char,std::allocator<char> > >::_Getal
PUBLIC	??0?$basic_string@DU?$char_traits@D@std@@V?$allocator@D@2@@std@@QAE@PBD@Z ; std::basic_string<char,std::char_traits<char>,std::allocator<char> >::basic_string<char,std::char_traits<char>,std::allocator<char> >
PUBLIC	?assign@?$basic_string@DU?$char_traits@D@std@@V?$allocator@D@2@@std@@QAEAAV12@ABV12@II@Z ; std::basic_string<char,std::char_traits<char>,std::allocator<char> >::assign
PUBLIC	?assign@?$basic_string@DU?$char_traits@D@std@@V?$allocator@D@2@@std@@QAEAAV12@PBDI@Z ; std::basic_string<char,std::char_traits<char>,std::allocator<char> >::assign
PUBLIC	?assign@?$basic_string@DU?$char_traits@D@std@@V?$allocator@D@2@@std@@QAEAAV12@PBD@Z ; std::basic_string<char,std::char_traits<char>,std::allocator<char> >::assign
PUBLIC	?erase@?$basic_string@DU?$char_traits@D@std@@V?$allocator@D@2@@std@@QAEAAV12@I@Z ; std::basic_string<char,std::char_traits<char>,std::allocator<char> >::erase
PUBLIC	?erase@?$basic_string@DU?$char_traits@D@std@@V?$allocator@D@2@@std@@QAEAAV12@II@Z ; std::basic_string<char,std::char_traits<char>,std::allocator<char> >::erase
PUBLIC	?size@?$basic_string@DU?$char_traits@D@std@@V?$allocator@D@2@@std@@QBEIXZ ; std::basic_string<char,std::char_traits<char>,std::allocator<char> >::size
PUBLIC	?max_size@?$basic_string@DU?$char_traits@D@std@@V?$allocator@D@2@@std@@QBEIXZ ; std::basic_string<char,std::char_traits<char>,std::allocator<char> >::max_size
PUBLIC	?_Copy@?$basic_string@DU?$char_traits@D@std@@V?$allocator@D@2@@std@@QAEXII@Z ; std::basic_string<char,std::char_traits<char>,std::allocator<char> >::_Copy
PUBLIC	?_Eos@?$basic_string@DU?$char_traits@D@std@@V?$allocator@D@2@@std@@QAEXI@Z ; std::basic_string<char,std::char_traits<char>,std::allocator<char> >::_Eos
PUBLIC	?_Grow@?$basic_string@DU?$char_traits@D@std@@V?$allocator@D@2@@std@@QAE_NI_N@Z ; std::basic_string<char,std::char_traits<char>,std::allocator<char> >::_Grow
PUBLIC	?_Inside@?$basic_string@DU?$char_traits@D@std@@V?$allocator@D@2@@std@@QAE_NPBD@Z ; std::basic_string<char,std::char_traits<char>,std::allocator<char> >::_Inside
PUBLIC	?_Tidy@?$basic_string@DU?$char_traits@D@std@@V?$allocator@D@2@@std@@QAEX_NI@Z ; std::basic_string<char,std::char_traits<char>,std::allocator<char> >::_Tidy
PUBLIC	?_Xlen@?$basic_string@DU?$char_traits@D@std@@V?$allocator@D@2@@std@@QBEXXZ ; std::basic_string<char,std::char_traits<char>,std::allocator<char> >::_Xlen
PUBLIC	?_Xran@?$basic_string@DU?$char_traits@D@std@@V?$allocator@D@2@@std@@QBEXXZ ; std::basic_string<char,std::char_traits<char>,std::allocator<char> >::_Xran
PUBLIC	??0IUnknown@@QAE@XZ				; IUnknown::IUnknown
PUBLIC	??0id@locale@std@@QAE@I@Z			; std::locale::id::id
PUBLIC	?generic_category@std@@YAABVerror_category@1@XZ	; std::generic_category
PUBLIC	?system_category@std@@YAABVerror_category@1@XZ	; std::system_category
PUBLIC	??0error_category@std@@QAE@XZ			; std::error_category::error_category
PUBLIC	??1error_category@std@@UAE@XZ			; std::error_category::~error_category
PUBLIC	?default_error_condition@error_category@std@@UBE?AVerror_condition@2@H@Z ; std::error_category::default_error_condition
PUBLIC	?equivalent@error_category@std@@UBE_NHABVerror_condition@2@@Z ; std::error_category::equivalent
PUBLIC	?equivalent@error_category@std@@UBE_NABVerror_code@2@H@Z ; std::error_category::equivalent
PUBLIC	??8error_category@std@@QBE_NABV01@@Z		; std::error_category::operator==
PUBLIC	??_Gerror_category@std@@UAEPAXI@Z		; std::error_category::`scalar deleting destructor'
PUBLIC	?value@error_code@std@@QBEHXZ			; std::error_code::value
PUBLIC	?category@error_code@std@@QBEABVerror_category@2@XZ ; std::error_code::category
PUBLIC	??0error_condition@std@@QAE@HABVerror_category@1@@Z ; std::error_condition::error_condition
PUBLIC	?value@error_condition@std@@QBEHXZ		; std::error_condition::value
PUBLIC	?category@error_condition@std@@QBEABVerror_category@2@XZ ; std::error_condition::category
PUBLIC	??8error_condition@std@@QBE_NABV01@@Z		; std::error_condition::operator==
PUBLIC	??0_Generic_error_category@std@@QAE@XZ		; std::_Generic_error_category::_Generic_error_category
PUBLIC	?name@_Generic_error_category@std@@UBEPBDXZ	; std::_Generic_error_category::name
PUBLIC	?message@_Generic_error_category@std@@UBE?AV?$basic_string@DU?$char_traits@D@std@@V?$allocator@D@2@@2@H@Z ; std::_Generic_error_category::message
PUBLIC	??1_Generic_error_category@std@@UAE@XZ		; std::_Generic_error_category::~_Generic_error_category
PUBLIC	??_G_Generic_error_category@std@@UAEPAXI@Z	; std::_Generic_error_category::`scalar deleting destructor'
PUBLIC	??0_Iostream_error_category@std@@QAE@XZ		; std::_Iostream_error_category::_Iostream_error_category
PUBLIC	?name@_Iostream_error_category@std@@UBEPBDXZ	; std::_Iostream_error_category::name
PUBLIC	?message@_Iostream_error_category@std@@UBE?AV?$basic_string@DU?$char_traits@D@std@@V?$allocator@D@2@@2@H@Z ; std::_Iostream_error_category::message
PUBLIC	??1_Iostream_error_category@std@@UAE@XZ		; std::_Iostream_error_category::~_Iostream_error_category
PUBLIC	??_G_Iostream_error_category@std@@UAEPAXI@Z	; std::_Iostream_error_category::`scalar deleting destructor'
PUBLIC	??0_System_error_category@std@@QAE@XZ		; std::_System_error_category::_System_error_category
PUBLIC	?name@_System_error_category@std@@UBEPBDXZ	; std::_System_error_category::name
PUBLIC	?message@_System_error_category@std@@UBE?AV?$basic_string@DU?$char_traits@D@std@@V?$allocator@D@2@@2@H@Z ; std::_System_error_category::message
PUBLIC	?default_error_condition@_System_error_category@std@@UBE?AVerror_condition@2@H@Z ; std::_System_error_category::default_error_condition
PUBLIC	??1_System_error_category@std@@UAE@XZ		; std::_System_error_category::~_System_error_category
PUBLIC	??_G_System_error_category@std@@UAEPAXI@Z	; std::_System_error_category::`scalar deleting destructor'
PUBLIC	??_GC_Hash@@QAEPAXI@Z				; C_Hash::`scalar deleting destructor'
PUBLIC	??0O_Output@@QAE@XZ				; O_Output::O_Output
PUBLIC	??1O_Output@@QAE@XZ				; O_Output::~O_Output
PUBLIC	?SetXY@O_Output@@QAEXJJ@Z			; O_Output::SetXY
PUBLIC	?SetOwner@O_Output@@QAEXPAVC_Base@@@Z		; O_Output::SetOwner
PUBLIC	?SetFont@O_Output@@QAEXJ@Z			; O_Output::SetFont
PUBLIC	?SetFgColor@O_Output@@QAEXK@Z			; O_Output::SetFgColor
PUBLIC	?GetText@O_Output@@QAEPADXZ			; O_Output::GetText
PUBLIC	??_GO_Output@@QAEPAXI@Z				; O_Output::`scalar deleting destructor'
PUBLIC	??1C_Base@@UAE@XZ				; C_Base::~C_Base
PUBLIC	?SetID@C_Base@@QAEXJ@Z				; C_Base::SetID
PUBLIC	?SetType@C_Base@@QAEXF@Z			; C_Base::SetType
PUBLIC	?_SetCType_@C_Base@@QAEXF@Z			; C_Base::_SetCType_
PUBLIC	?SetClient@C_Base@@QAEXF@Z			; C_Base::SetClient
PUBLIC	?SetFlags@C_Base@@UAEXJ@Z			; C_Base::SetFlags
PUBLIC	?SetFlagBitOn@C_Base@@UAEXJ@Z			; C_Base::SetFlagBitOn
PUBLIC	?SetFlagBitOff@C_Base@@UAEXJ@Z			; C_Base::SetFlagBitOff
PUBLIC	?SetX@C_Base@@UAEXJ@Z				; C_Base::SetX
PUBLIC	?SetY@C_Base@@UAEXJ@Z				; C_Base::SetY
PUBLIC	?SetW@C_Base@@UAEXJ@Z				; C_Base::SetW
PUBLIC	?SetH@C_Base@@UAEXJ@Z				; C_Base::SetH
PUBLIC	?SetXY@C_Base@@UAEXJJ@Z				; C_Base::SetXY
PUBLIC	?SetWH@C_Base@@UAEXJJ@Z				; C_Base::SetWH
PUBLIC	?SetXYWH@C_Base@@UAEXJJJJ@Z			; C_Base::SetXYWH
PUBLIC	?SetRelX@C_Base@@UAEXJ@Z			; C_Base::SetRelX
PUBLIC	?SetRelY@C_Base@@UAEXJ@Z			; C_Base::SetRelY
PUBLIC	?SetRelXY@C_Base@@UAEXJJ@Z			; C_Base::SetRelXY
PUBLIC	?SetReady@C_Base@@QAEXF@Z			; C_Base::SetReady
PUBLIC	?SetState@C_Base@@UAEXF@Z			; C_Base::SetState
PUBLIC	?SetHotKey@C_Base@@UAEXF@Z			; C_Base::SetHotKey
PUBLIC	?SetMenu@C_Base@@UAEXJ@Z			; C_Base::SetMenu
PUBLIC	?SetFont@C_Base@@UAEXJ@Z			; C_Base::SetFont
PUBLIC	?SetSound@C_Base@@UAEXJF@Z			; C_Base::SetSound
PUBLIC	?SetCursorID@C_Base@@UAEXJ@Z			; C_Base::SetCursorID
PUBLIC	?SetDragCursorID@C_Base@@UAEXJ@Z		; C_Base::SetDragCursorID
PUBLIC	?SetHelpText@C_Base@@UAEXJ@Z			; C_Base::SetHelpText
PUBLIC	?SetMouseOver@C_Base@@UAEXF@Z			; C_Base::SetMouseOver
PUBLIC	?SetMouseOverColor@C_Base@@UAEXK@Z		; C_Base::SetMouseOverColor
PUBLIC	?SetMouseOverPerc@C_Base@@UAEXF@Z		; C_Base::SetMouseOverPerc
PUBLIC	?SetCallback@C_Base@@UAEXP6AXJFPAV1@@Z@Z	; C_Base::SetCallback
PUBLIC	?GetID@C_Base@@QAEJXZ				; C_Base::GetID
PUBLIC	?GetFlags@C_Base@@QAEJXZ			; C_Base::GetFlags
PUBLIC	?GetClient@C_Base@@QAEFXZ			; C_Base::GetClient
PUBLIC	?GetX@C_Base@@QAEJXZ				; C_Base::GetX
PUBLIC	?GetY@C_Base@@QAEJXZ				; C_Base::GetY
PUBLIC	?GetW@C_Base@@QAEJXZ				; C_Base::GetW
PUBLIC	?GetH@C_Base@@QAEJXZ				; C_Base::GetH
PUBLIC	?GetRelX@C_Base@@UAEJXZ				; C_Base::GetRelX
PUBLIC	?GetRelY@C_Base@@UAEJXZ				; C_Base::GetRelY
PUBLIC	?GetParent@C_Base@@QAEPAVC_Window@@XZ		; C_Base::GetParent
PUBLIC	?Ready@C_Base@@QAEFXZ				; C_Base::Ready
PUBLIC	?GetState@C_Base@@UAEFXZ			; C_Base::GetState
PUBLIC	?GetHotKey@C_Base@@UAEFXZ			; C_Base::GetHotKey
PUBLIC	?GetMenu@C_Base@@UAEJXZ				; C_Base::GetMenu
PUBLIC	?GetFont@C_Base@@UAEJXZ				; C_Base::GetFont
PUBLIC	?GetHelpText@C_Base@@UAEJXZ			; C_Base::GetHelpText
PUBLIC	?GetSound@C_Base@@UAEPAVSOUND_RES@@F@Z		; C_Base::GetSound
PUBLIC	?GetMouseOver@C_Base@@UAEFXZ			; C_Base::GetMouseOver
PUBLIC	?GetCursorID@C_Base@@UAEJXZ			; C_Base::GetCursorID
PUBLIC	?GetDragCursorID@C_Base@@UAEJXZ			; C_Base::GetDragCursorID
PUBLIC	?GetCallback@C_Base@@UAEP6AXJFPAV1@@ZXZ		; C_Base::GetCallback
PUBLIC	?IsBase@C_Base@@UAEHXZ				; C_Base::IsBase
PUBLIC	?IsControl@C_Base@@UAEHXZ			; C_Base::IsControl
PUBLIC	?Refresh@C_Base@@UAEXXZ				; C_Base::Refresh
PUBLIC	?Draw@C_Base@@UAEXPAVSCREEN@@PAUUI95_RECT@@@Z	; C_Base::Draw
PUBLIC	?HighLite@C_Base@@UAEXPAVSCREEN@@PAUUI95_RECT@@@Z ; C_Base::HighLite
PUBLIC	?SetSubParents@C_Base@@UAEXPAVC_Window@@@Z	; C_Base::SetSubParents
PUBLIC	?Cleanup@C_Base@@UAEXXZ				; C_Base::Cleanup
PUBLIC	?TimerUpdate@C_Base@@UAEHXZ			; C_Base::TimerUpdate
PUBLIC	?Activate@C_Base@@UAEXXZ			; C_Base::Activate
PUBLIC	?Deactivate@C_Base@@UAEXXZ			; C_Base::Deactivate
PUBLIC	?CheckHotSpots@C_Base@@UAEJJJ@Z			; C_Base::CheckHotSpots
PUBLIC	?CheckKeyboard@C_Base@@UAEHEEEJ@Z		; C_Base::CheckKeyboard
PUBLIC	?Process@C_Base@@UAEHJF@Z			; C_Base::Process
PUBLIC	?CloseWindow@C_Base@@UAEHXZ			; C_Base::CloseWindow
PUBLIC	?MouseOver@C_Base@@UAEHJJPAV1@@Z		; C_Base::MouseOver
PUBLIC	?GetMe@C_Base@@UAEPAV1@XZ			; C_Base::GetMe
PUBLIC	?Dragable@C_Base@@UAEHJ@Z			; C_Base::Dragable
PUBLIC	?GetItemXY@C_Base@@UAEXJPAJ0@Z			; C_Base::GetItemXY
PUBLIC	?Drag@C_Base@@UAEHPAUGRABBER@@GGPAVC_Window@@@Z	; C_Base::Drag
PUBLIC	?Drop@C_Base@@UAEHPAUGRABBER@@GGPAVC_Window@@@Z	; C_Base::Drop
PUBLIC	?Wheel@C_Base@@UAEHHGG@Z			; C_Base::Wheel
PUBLIC	?LocalFind@C_Base@@UAEFPAD@Z			; C_Base::LocalFind
PUBLIC	?LocalFunction@C_Base@@UAEXFQAJPADPAVC_Handler@@@Z ; C_Base::LocalFunction
PUBLIC	?SaveText@C_Base@@UAEXPAXPAVC_Parser@@@Z	; C_Base::SaveText
PUBLIC	??_GC_Base@@UAEPAXI@Z				; C_Base::`scalar deleting destructor'
PUBLIC	??1C_Control@@UAE@XZ				; C_Control::~C_Control
PUBLIC	?SetRelX@C_Control@@UAEXJ@Z			; C_Control::SetRelX
PUBLIC	?SetRelY@C_Control@@UAEXJ@Z			; C_Control::SetRelY
PUBLIC	?SetRelXY@C_Control@@UAEXJJ@Z			; C_Control::SetRelXY
PUBLIC	?SetCursorID@C_Control@@UAEXJ@Z			; C_Control::SetCursorID
PUBLIC	?SetDragCursorID@C_Control@@UAEXJ@Z		; C_Control::SetDragCursorID
PUBLIC	?SetMenu@C_Control@@UAEXJ@Z			; C_Control::SetMenu
PUBLIC	?SetHelpText@C_Control@@UAEXJ@Z			; C_Control::SetHelpText
PUBLIC	?SetHotKey@C_Control@@UAEXF@Z			; C_Control::SetHotKey
PUBLIC	?SetCallback@C_Control@@UAEXP6AXJFPAVC_Base@@@Z@Z ; C_Control::SetCallback
PUBLIC	?SetMouseOver@C_Control@@UAEXF@Z		; C_Control::SetMouseOver
PUBLIC	?SetMouseOverColor@C_Control@@UAEXK@Z		; C_Control::SetMouseOverColor
PUBLIC	?SetMouseOverPerc@C_Control@@UAEXF@Z		; C_Control::SetMouseOverPerc
PUBLIC	?IsBase@C_Control@@UAEHXZ			; C_Control::IsBase
PUBLIC	?IsControl@C_Control@@UAEHXZ			; C_Control::IsControl
PUBLIC	?GetRelX@C_Control@@UAEJXZ			; C_Control::GetRelX
PUBLIC	?GetRelY@C_Control@@UAEJXZ			; C_Control::GetRelY
PUBLIC	?GetCursorID@C_Control@@UAEJXZ			; C_Control::GetCursorID
PUBLIC	?GetDragCursorID@C_Control@@UAEJXZ		; C_Control::GetDragCursorID
PUBLIC	?GetMenu@C_Control@@UAEJXZ			; C_Control::GetMenu
PUBLIC	?GetHelpText@C_Control@@UAEJXZ			; C_Control::GetHelpText
PUBLIC	?GetHotKey@C_Control@@UAEFXZ			; C_Control::GetHotKey
PUBLIC	?GetMouseOver@C_Control@@UAEFXZ			; C_Control::GetMouseOver
PUBLIC	?GetCallback@C_Control@@UAEP6AXJFPAVC_Base@@@ZXZ ; C_Control::GetCallback
PUBLIC	??_GC_Control@@UAEPAXI@Z			; C_Control::`scalar deleting destructor'
PUBLIC	?SetSortType@C_TreeList@@QAEXF@Z		; C_TreeList::SetSortType
PUBLIC	?SetDelCallback@C_TreeList@@QAEXP6AXPAVTREELIST@@@Z@Z ; C_TreeList::SetDelCallback
PUBLIC	?SetSortCallback@C_TreeList@@QAEXP6AHPAVTREELIST@@0@Z@Z ; C_TreeList::SetSortCallback
PUBLIC	?GetRoot@C_TreeList@@QAEPAVTREELIST@@XZ		; C_TreeList::GetRoot
PUBLIC	?SetKBCallback@C_Window@@QAEXP6AHEEEJ@Z@Z	; C_Window::SetKBCallback
PUBLIC	??0_bstr_t@@QAE@XZ				; _bstr_t::_bstr_t
PUBLIC	??0_bstr_t@@QAE@PBD@Z				; _bstr_t::_bstr_t
PUBLIC	??0_bstr_t@@QAE@PB_W@Z				; _bstr_t::_bstr_t
PUBLIC	??0_bstr_t@@QAE@PA_W_N@Z			; _bstr_t::_bstr_t
PUBLIC	??1_bstr_t@@QAE@XZ				; _bstr_t::~_bstr_t
PUBLIC	??4_bstr_t@@QAEAAV0@ABV0@@Z			; _bstr_t::operator=
PUBLIC	??B_bstr_t@@QBEPA_WXZ				; _bstr_t::operator wchar_t *
PUBLIC	??B_bstr_t@@QBEPADXZ				; _bstr_t::operator char *
PUBLIC	??8_bstr_t@@QBE_NABV0@@Z			; _bstr_t::operator==
PUBLIC	?length@_bstr_t@@QBEIXZ				; _bstr_t::length
PUBLIC	??0Data_t@_bstr_t@@QAE@PBD@Z			; _bstr_t::Data_t::Data_t
PUBLIC	??0Data_t@_bstr_t@@QAE@PB_W@Z			; _bstr_t::Data_t::Data_t
PUBLIC	??0Data_t@_bstr_t@@QAE@PA_W_N@Z			; _bstr_t::Data_t::Data_t
PUBLIC	?AddRef@Data_t@_bstr_t@@QAEKXZ			; _bstr_t::Data_t::AddRef
PUBLIC	?Release@Data_t@_bstr_t@@QAEKXZ			; _bstr_t::Data_t::Release
PUBLIC	?GetWString@Data_t@_bstr_t@@QAEAAPA_WXZ		; _bstr_t::Data_t::GetWString
PUBLIC	?GetString@Data_t@_bstr_t@@QBEPBDXZ		; _bstr_t::Data_t::GetString
PUBLIC	?Length@Data_t@_bstr_t@@QBEIXZ			; _bstr_t::Data_t::Length
PUBLIC	?Compare@Data_t@_bstr_t@@QBEHABV12@@Z		; _bstr_t::Data_t::Compare
PUBLIC	??2Data_t@_bstr_t@@SAPAXI@Z			; _bstr_t::Data_t::operator new
PUBLIC	??1Data_t@_bstr_t@@AAE@XZ			; _bstr_t::Data_t::~Data_t
PUBLIC	?_Free@Data_t@_bstr_t@@AAEXXZ			; _bstr_t::Data_t::_Free
PUBLIC	??_GData_t@_bstr_t@@AAEPAXI@Z			; _bstr_t::Data_t::`scalar deleting destructor'
PUBLIC	?_AddRef@_bstr_t@@AAEXXZ			; _bstr_t::_AddRef
PUBLIC	?_Free@_bstr_t@@AAEXXZ				; _bstr_t::_Free
PUBLIC	?_Compare@_bstr_t@@ABEHABV1@@Z			; _bstr_t::_Compare
PUBLIC	??0_com_error@@QAE@JPAUIErrorInfo@@_N@Z		; _com_error::_com_error
PUBLIC	??0_com_error@@QAE@ABV0@@Z			; _com_error::_com_error
PUBLIC	??1_com_error@@UAE@XZ				; _com_error::~_com_error
PUBLIC	?Error@_com_error@@QBEJXZ			; _com_error::Error
PUBLIC	??_G_com_error@@UAEPAXI@Z			; _com_error::`scalar deleting destructor'
PUBLIC	??0CComCriticalSection@ATL@@QAE@XZ		; ATL::CComCriticalSection::CComCriticalSection
PUBLIC	??1CComCriticalSection@ATL@@QAE@XZ		; ATL::CComCriticalSection::~CComCriticalSection
PUBLIC	?Term@CComCriticalSection@ATL@@QAEJXZ		; ATL::CComCriticalSection::Term
PUBLIC	??0CComSafeDeleteCriticalSection@ATL@@QAE@XZ	; ATL::CComSafeDeleteCriticalSection::CComSafeDeleteCriticalSection
PUBLIC	??1CComSafeDeleteCriticalSection@ATL@@QAE@XZ	; ATL::CComSafeDeleteCriticalSection::~CComSafeDeleteCriticalSection
PUBLIC	??0CComAutoDeleteCriticalSection@ATL@@QAE@XZ	; ATL::CComAutoDeleteCriticalSection::CComAutoDeleteCriticalSection
PUBLIC	??1CComAutoDeleteCriticalSection@ATL@@QAE@XZ	; ATL::CComAutoDeleteCriticalSection::~CComAutoDeleteCriticalSection
PUBLIC	??1CComBSTR@ATL@@QAE@XZ				; ATL::CComBSTR::~CComBSTR
PUBLIC	?Increment@CComMultiThreadModel@ATL@@SGKPAJ@Z	; ATL::CComMultiThreadModel::Increment
PUBLIC	?Decrement@CComMultiThreadModel@ATL@@SGKPAJ@Z	; ATL::CComMultiThreadModel::Decrement
PUBLIC	?AtlInternalQueryInterface@ATL@@YGJPAXPBU_ATL_INTMAP_ENTRY@1@ABU_GUID@@PAPAX@Z ; ATL::AtlInternalQueryInterface
PUBLIC	?AtlWaitWithMessageLoop@ATL@@YGHPAX@Z		; ATL::AtlWaitWithMessageLoop
PUBLIC	?AtlAdvise@ATL@@YGJPAUIUnknown@@0ABU_GUID@@PAK@Z ; ATL::AtlAdvise
PUBLIC	?AtlUnadvise@ATL@@YGJPAUIUnknown@@ABU_GUID@@K@Z	; ATL::AtlUnadvise
PUBLIC	?InlineIsEqualUnknown@ATL@@YGHABU_GUID@@@Z	; ATL::InlineIsEqualUnknown
PUBLIC	??0?$CComPtrBase@UIConnectionPointContainer@@@ATL@@IAE@XZ ; ATL::CComPtrBase<IConnectionPointContainer>::CComPtrBase<IConnectionPointContainer>
PUBLIC	??1?$CComPtrBase@UIConnectionPointContainer@@@ATL@@QAE@XZ ; ATL::CComPtrBase<IConnectionPointContainer>::~CComPtrBase<IConnectionPointContainer>
PUBLIC	??I?$CComPtrBase@UIConnectionPointContainer@@@ATL@@QAEPAPAUIConnectionPointContainer@@XZ ; ATL::CComPtrBase<IConnectionPointContainer>::operator&
PUBLIC	??C?$CComPtrBase@UIConnectionPointContainer@@@ATL@@QBEPAV?$_NoAddRefReleaseOnCComPtr@UIConnectionPointContainer@@@1@XZ ; ATL::CComPtrBase<IConnectionPointContainer>::operator->
PUBLIC	??0?$CComPtr@UIConnectionPointContainer@@@ATL@@QAE@XZ ; ATL::CComPtr<IConnectionPointContainer>::CComPtr<IConnectionPointContainer>
PUBLIC	??1?$CComPtr@UIConnectionPointContainer@@@ATL@@QAE@XZ ; ATL::CComPtr<IConnectionPointContainer>::~CComPtr<IConnectionPointContainer>
PUBLIC	??0?$CComPtrBase@UIConnectionPoint@@@ATL@@IAE@XZ ; ATL::CComPtrBase<IConnectionPoint>::CComPtrBase<IConnectionPoint>
PUBLIC	??1?$CComPtrBase@UIConnectionPoint@@@ATL@@QAE@XZ ; ATL::CComPtrBase<IConnectionPoint>::~CComPtrBase<IConnectionPoint>
PUBLIC	??I?$CComPtrBase@UIConnectionPoint@@@ATL@@QAEPAPAUIConnectionPoint@@XZ ; ATL::CComPtrBase<IConnectionPoint>::operator&
PUBLIC	??C?$CComPtrBase@UIConnectionPoint@@@ATL@@QBEPAV?$_NoAddRefReleaseOnCComPtr@UIConnectionPoint@@@1@XZ ; ATL::CComPtrBase<IConnectionPoint>::operator->
PUBLIC	??0?$CComPtr@UIConnectionPoint@@@ATL@@QAE@XZ	; ATL::CComPtr<IConnectionPoint>::CComPtr<IConnectionPoint>
PUBLIC	??1?$CComPtr@UIConnectionPoint@@@ATL@@QAE@XZ	; ATL::CComPtr<IConnectionPoint>::~CComPtr<IConnectionPoint>
PUBLIC	??0CComObjectRootBase@ATL@@QAE@XZ		; ATL::CComObjectRootBase::CComObjectRootBase
PUBLIC	??1CComObjectRootBase@ATL@@QAE@XZ		; ATL::CComObjectRootBase::~CComObjectRootBase
PUBLIC	?FinalRelease@CComObjectRootBase@ATL@@QAEXXZ	; ATL::CComObjectRootBase::FinalRelease
PUBLIC	?InternalQueryInterface@CComObjectRootBase@ATL@@SGJPAXPBU_ATL_INTMAP_ENTRY@2@ABU_GUID@@PAPAX@Z ; ATL::CComObjectRootBase::InternalQueryInterface
PUBLIC	??1?$CComObjectRootEx@VCComMultiThreadModel@ATL@@@ATL@@QAE@XZ ; ATL::CComObjectRootEx<ATL::CComMultiThreadModel>::~CComObjectRootEx<ATL::CComMultiThreadModel>
PUBLIC	?InternalAddRef@?$CComObjectRootEx@VCComMultiThreadModel@ATL@@@ATL@@QAEKXZ ; ATL::CComObjectRootEx<ATL::CComMultiThreadModel>::InternalAddRef
PUBLIC	?InternalRelease@?$CComObjectRootEx@VCComMultiThreadModel@ATL@@@ATL@@QAEKXZ ; ATL::CComObjectRootEx<ATL::CComMultiThreadModel>::InternalRelease
PUBLIC	??0?$CComObjectRootEx@VCComMultiThreadModel@ATL@@@ATL@@QAE@XZ ; ATL::CComObjectRootEx<ATL::CComMultiThreadModel>::CComObjectRootEx<ATL::CComMultiThreadModel>
PUBLIC	??1stringdispid@CComTypeInfoHolder@ATL@@QAE@XZ	; ATL::CComTypeInfoHolder::stringdispid::~stringdispid
PUBLIC	??_Estringdispid@CComTypeInfoHolder@ATL@@QAEPAXI@Z ; ATL::CComTypeInfoHolder::stringdispid::`vector deleting destructor'
PUBLIC	??0IGameEvents@@QAE@XZ				; IGameEvents::IGameEvents
PUBLIC	??0IRemoteMasterServerEvents@@QAE@XZ		; IRemoteMasterServerEvents::IRemoteMasterServerEvents
PUBLIC	?GetNumPlayers@IGame@GNETCORELib@@QAEFXZ	; GNETCORELib::IGame::GetNumPlayers
PUBLIC	?GetType@IGame@GNETCORELib@@QAE?AV_bstr_t@@XZ	; GNETCORELib::IGame::GetType
PUBLIC	?GetMaxPlayers@IGame@GNETCORELib@@QAEFXZ	; GNETCORELib::IGame::GetMaxPlayers
PUBLIC	?GetLocation@IGame@GNETCORELib@@QAE?AV_bstr_t@@XZ ; GNETCORELib::IGame::GetLocation
PUBLIC	?GetServerName@IGame@GNETCORELib@@QAE?AV_bstr_t@@XZ ; GNETCORELib::IGame::GetServerName
PUBLIC	?GetName@IMasterServer@GNETCORELib@@QAE?AV_bstr_t@@XZ ; GNETCORELib::IMasterServer::GetName
PUBLIC	?GetLocation@IMasterServer@GNETCORELib@@QAE?AV_bstr_t@@XZ ; GNETCORELib::IMasterServer::GetLocation
PUBLIC	?GetAdminEmail@IMasterServer@GNETCORELib@@QAE?AV_bstr_t@@XZ ; GNETCORELib::IMasterServer::GetAdminEmail
PUBLIC	?GetVersion@IMasterServer@GNETCORELib@@QAE?AV_bstr_t@@XZ ; GNETCORELib::IMasterServer::GetVersion
PUBLIC	?GetMOTD@IMasterServer@GNETCORELib@@QAE?AV_bstr_t@@XZ ; GNETCORELib::IMasterServer::GetMOTD
PUBLIC	?PutServerName@IRemoteMasterServer@GNETCORELib@@QAEXV_bstr_t@@@Z ; GNETCORELib::IRemoteMasterServer::PutServerName
PUBLIC	?PutPort@IRemoteMasterServer@GNETCORELib@@QAEXJ@Z ; GNETCORELib::IRemoteMasterServer::PutPort
PUBLIC	?PutMaxConcurrentHostQueries@IRemoteMasterServer@GNETCORELib@@QAEXJ@Z ; GNETCORELib::IRemoteMasterServer::PutMaxConcurrentHostQueries
PUBLIC	?Update@IRemoteMasterServer@GNETCORELib@@QAEJXZ	; GNETCORELib::IRemoteMasterServer::Update
PUBLIC	?PutGameFilter@IRemoteMasterServer@GNETCORELib@@QAEXV_bstr_t@@@Z ; GNETCORELib::IRemoteMasterServer::PutGameFilter
PUBLIC	?GetPing@IHost@GNETCORELib@@QAEFXZ		; GNETCORELib::IHost::GetPing
PUBLIC	?GetIP@IHost@GNETCORELib@@QAEKXZ		; GNETCORELib::IHost::GetIP
PUBLIC	??0CGNetUpdater@@QAE@XZ				; CGNetUpdater::CGNetUpdater
PUBLIC	?_InternalQueryInterface@CGNetUpdater@@QAEJABU_GUID@@PAPAX@Z ; CGNetUpdater::_InternalQueryInterface
PUBLIC	?_GetEntries@CGNetUpdater@@SGPBU_ATL_INTMAP_ENTRY@ATL@@XZ ; CGNetUpdater::_GetEntries
PUBLIC	?GetIID@?$_com_IIID@UIRemoteMasterServer@GNETCORELib@@$1?_GUID_e0016343_4124_48a9_9734_93f48700a04a@@3U__s_GUID@@B@@SAABU_GUID@@XZ ; _com_IIID<GNETCORELib::IRemoteMasterServer,&_GUID_e0016343_4124_48a9_9734_93f48700a04a>::GetIID
PUBLIC	?GetIID@?$_com_ptr_t@V?$_com_IIID@UIRemoteMasterServer@GNETCORELib@@$1?_GUID_e0016343_4124_48a9_9734_93f48700a04a@@3U__s_GUID@@B@@@@SAABU_GUID@@XZ ; _com_ptr_t<_com_IIID<GNETCORELib::IRemoteMasterServer,&_GUID_e0016343_4124_48a9_9734_93f48700a04a> >::GetIID
PUBLIC	??0?$_com_ptr_t@V?$_com_IIID@UIRemoteMasterServer@GNETCORELib@@$1?_GUID_e0016343_4124_48a9_9734_93f48700a04a@@3U__s_GUID@@B@@@@QAE@XZ ; _com_ptr_t<_com_IIID<GNETCORELib::IRemoteMasterServer,&_GUID_e0016343_4124_48a9_9734_93f48700a04a> >::_com_ptr_t<_com_IIID<GNETCORELib::IRemoteMasterServer,&_GUID_e0016343_4124_48a9_9734_93f48700a04a> >
PUBLIC	??1?$_com_ptr_t@V?$_com_IIID@UIRemoteMasterServer@GNETCORELib@@$1?_GUID_e0016343_4124_48a9_9734_93f48700a04a@@3U__s_GUID@@B@@@@QAE@XZ ; _com_ptr_t<_com_IIID<GNETCORELib::IRemoteMasterServer,&_GUID_e0016343_4124_48a9_9734_93f48700a04a> >::~_com_ptr_t<_com_IIID<GNETCORELib::IRemoteMasterServer,&_GUID_e0016343_4124_48a9_9734_93f48700a04a> >
PUBLIC	??B?$_com_ptr_t@V?$_com_IIID@UIRemoteMasterServer@GNETCORELib@@$1?_GUID_e0016343_4124_48a9_9734_93f48700a04a@@3U__s_GUID@@B@@@@QBEPAUIRemoteMasterServer@GNETCORELib@@XZ ; _com_ptr_t<_com_IIID<GNETCORELib::IRemoteMasterServer,&_GUID_e0016343_4124_48a9_9734_93f48700a04a> >::operator GNETCORELib::IRemoteMasterServer *
PUBLIC	??C?$_com_ptr_t@V?$_com_IIID@UIRemoteMasterServer@GNETCORELib@@$1?_GUID_e0016343_4124_48a9_9734_93f48700a04a@@3U__s_GUID@@B@@@@QBEPAUIRemoteMasterServer@GNETCORELib@@XZ ; _com_ptr_t<_com_IIID<GNETCORELib::IRemoteMasterServer,&_GUID_e0016343_4124_48a9_9734_93f48700a04a> >::operator->
PUBLIC	??B?$_com_ptr_t@V?$_com_IIID@UIRemoteMasterServer@GNETCORELib@@$1?_GUID_e0016343_4124_48a9_9734_93f48700a04a@@3U__s_GUID@@B@@@@QBE_NXZ ; _com_ptr_t<_com_IIID<GNETCORELib::IRemoteMasterServer,&_GUID_e0016343_4124_48a9_9734_93f48700a04a> >::operator bool
PUBLIC	??8?$_com_ptr_t@V?$_com_IIID@UIRemoteMasterServer@GNETCORELib@@$1?_GUID_e0016343_4124_48a9_9734_93f48700a04a@@3U__s_GUID@@B@@@@QBE_NH@Z ; _com_ptr_t<_com_IIID<GNETCORELib::IRemoteMasterServer,&_GUID_e0016343_4124_48a9_9734_93f48700a04a> >::operator==
PUBLIC	??9?$_com_ptr_t@V?$_com_IIID@UIRemoteMasterServer@GNETCORELib@@$1?_GUID_e0016343_4124_48a9_9734_93f48700a04a@@3U__s_GUID@@B@@@@QBE_NH@Z ; _com_ptr_t<_com_IIID<GNETCORELib::IRemoteMasterServer,&_GUID_e0016343_4124_48a9_9734_93f48700a04a> >::operator!=
PUBLIC	?Release@?$_com_ptr_t@V?$_com_IIID@UIRemoteMasterServer@GNETCORELib@@$1?_GUID_e0016343_4124_48a9_9734_93f48700a04a@@3U__s_GUID@@B@@@@QAEXXZ ; _com_ptr_t<_com_IIID<GNETCORELib::IRemoteMasterServer,&_GUID_e0016343_4124_48a9_9734_93f48700a04a> >::Release
PUBLIC	?CreateInstance@?$_com_ptr_t@V?$_com_IIID@UIRemoteMasterServer@GNETCORELib@@$1?_GUID_e0016343_4124_48a9_9734_93f48700a04a@@3U__s_GUID@@B@@@@QAEJABU_GUID@@PAUIUnknown@@K@Z ; _com_ptr_t<_com_IIID<GNETCORELib::IRemoteMasterServer,&_GUID_e0016343_4124_48a9_9734_93f48700a04a> >::CreateInstance
PUBLIC	?_Release@?$_com_ptr_t@V?$_com_IIID@UIRemoteMasterServer@GNETCORELib@@$1?_GUID_e0016343_4124_48a9_9734_93f48700a04a@@3U__s_GUID@@B@@@@AAEXXZ ; _com_ptr_t<_com_IIID<GNETCORELib::IRemoteMasterServer,&_GUID_e0016343_4124_48a9_9734_93f48700a04a> >::_Release
PUBLIC	?Init@CGNetUpdater@@QAEXXZ			; CGNetUpdater::Init
PUBLIC	?Cleanup@CGNetUpdater@@QAEXXZ			; CGNetUpdater::Cleanup
PUBLIC	?Update@CGNetUpdater@@QAEXXZ			; CGNetUpdater::Update
PUBLIC	?CancelUpdate@CGNetUpdater@@QAEXXZ		; CGNetUpdater::CancelUpdate
PUBLIC	?UpdateGame@CGNetUpdater@@QAEXPAUIGame@@_N@Z	; CGNetUpdater::UpdateGame
PUBLIC	?IsUpdating@CGNetUpdater@@QAE_NXZ		; CGNetUpdater::IsUpdating
PUBLIC	?UpdateComplete@CGNetUpdater@@UAGJPAUIGame@@@Z	; CGNetUpdater::UpdateComplete
PUBLIC	?UpdateAborted@CGNetUpdater@@UAGJPAUIGame@@@Z	; CGNetUpdater::UpdateAborted
PUBLIC	?UpdateComplete@CGNetUpdater@@UAGJH@Z		; CGNetUpdater::UpdateComplete
PUBLIC	?ServerListReceived@CGNetUpdater@@UAGJH@Z	; CGNetUpdater::ServerListReceived
PUBLIC	??1CGNetUpdater@@QAE@XZ				; CGNetUpdater::~CGNetUpdater
PUBLIC	??0?$CComObject@VCGNetUpdater@@@ATL@@QAE@PAX@Z	; ATL::CComObject<CGNetUpdater>::CComObject<CGNetUpdater>
PUBLIC	??1?$CComObject@VCGNetUpdater@@@ATL@@UAE@XZ	; ATL::CComObject<CGNetUpdater>::~CComObject<CGNetUpdater>
PUBLIC	?AddRef@?$CComObject@VCGNetUpdater@@@ATL@@UAGKXZ ; ATL::CComObject<CGNetUpdater>::AddRef
PUBLIC	?Release@?$CComObject@VCGNetUpdater@@@ATL@@UAGKXZ ; ATL::CComObject<CGNetUpdater>::Release
PUBLIC	?QueryInterface@?$CComObject@VCGNetUpdater@@@ATL@@UAGJABU_GUID@@PAPAX@Z ; ATL::CComObject<CGNetUpdater>::QueryInterface
PUBLIC	??_G?$CComObject@VCGNetUpdater@@@ATL@@UAEPAXI@Z	; ATL::CComObject<CGNetUpdater>::`scalar deleting destructor'
PUBLIC	??0GNetUpdater@@QAE@XZ				; GNetUpdater::GNetUpdater
PUBLIC	??1GNetUpdater@@UAE@XZ				; GNetUpdater::~GNetUpdater
PUBLIC	??_GGNetUpdater@@UAEPAXI@Z			; GNetUpdater::`scalar deleting destructor'
PUBLIC	??0C_ServerItem@@QAE@XZ				; C_ServerItem::C_ServerItem
PUBLIC	??0C_ServerItem@@QAE@PAPAD@Z			; C_ServerItem::C_ServerItem
PUBLIC	??0C_ServerItem@@QAE@PAU_iobuf@@@Z		; C_ServerItem::C_ServerItem
PUBLIC	??1C_ServerItem@@UAE@XZ				; C_ServerItem::~C_ServerItem
PUBLIC	?Draw@C_ServerItem@@MAEXPAVSCREEN@@PAUUI95_RECT@@@Z ; C_ServerItem::Draw
PUBLIC	?Size@C_ServerItem@@QAEJXZ			; C_ServerItem::Size
PUBLIC	?Setup@C_ServerItem@@QAEXPAUIGame@@PAVC_TreeList@@@Z ; C_ServerItem::Setup
PUBLIC	?Cleanup@C_ServerItem@@UAEXXZ			; C_ServerItem::Cleanup
PUBLIC	?SetFont@C_ServerItem@@UAEXJ@Z			; C_ServerItem::SetFont
PUBLIC	?CheckHotSpots@C_ServerItem@@UAEJJJ@Z		; C_ServerItem::CheckHotSpots
PUBLIC	?Process@C_ServerItem@@UAEHJF@Z			; C_ServerItem::Process
PUBLIC	?Refresh@C_ServerItem@@UAEXXZ			; C_ServerItem::Refresh
PUBLIC	?CompareText@C_ServerItem@@QAEHPAV1@H@Z		; C_ServerItem::CompareText
PUBLIC	?ComparePing@C_ServerItem@@QAEHPAV1@@Z		; C_ServerItem::ComparePing
PUBLIC	?ComparePlayers@C_ServerItem@@QAEHPAV1@@Z	; C_ServerItem::ComparePlayers
PUBLIC	?Save@C_ServerItem@@QAEXPAPAD@Z			; C_ServerItem::Save
PUBLIC	?Save@C_ServerItem@@QAEXPAU_iobuf@@@Z		; C_ServerItem::Save
PUBLIC	?SetState@C_ServerItem@@UAEXF@Z			; C_ServerItem::SetState
PUBLIC	?GetState@C_ServerItem@@UAEFXZ			; C_ServerItem::GetState
PUBLIC	?SetOwner@C_ServerItem@@QAEXPAVTREELIST@@@Z	; C_ServerItem::SetOwner
PUBLIC	?GetOwner@C_ServerItem@@QAEPAVTREELIST@@XZ	; C_ServerItem::GetOwner
PUBLIC	?GetFont@C_ServerItem@@UAEJXZ			; C_ServerItem::GetFont
PUBLIC	?SetDefaultFlags@C_ServerItem@@QAEXXZ		; C_ServerItem::SetDefaultFlags
PUBLIC	?GetDefaultFlags@C_ServerItem@@QAEJXZ		; C_ServerItem::GetDefaultFlags
PUBLIC	?TrimString@C_ServerItem@@QAEHPADH@Z		; C_ServerItem::TrimString
PUBLIC	?GetIP@C_ServerItem@@QAEKXZ			; C_ServerItem::GetIP
PUBLIC	??_GC_ServerItem@@UAEPAXI@Z			; C_ServerItem::`scalar deleting destructor'
PUBLIC	??0?$allocator@PAUIGame@@@std@@QAE@XZ		; std::allocator<IGame *>::allocator<IGame *>
PUBLIC	?deallocate@?$allocator@PAUIGame@@@std@@QAEXPAPAUIGame@@I@Z ; std::allocator<IGame *>::deallocate
PUBLIC	?allocate@?$allocator@PAUIGame@@@std@@QAEPAPAUIGame@@I@Z ; std::allocator<IGame *>::allocate
PUBLIC	?construct@?$allocator@PAUIGame@@@std@@QAEXPAPAUIGame@@ABQAU3@@Z ; std::allocator<IGame *>::construct
PUBLIC	?max_size@?$allocator@PAUIGame@@@std@@QBEIXZ	; std::allocator<IGame *>::max_size
PUBLIC	?max_size@?$allocator_traits@V?$allocator@PAUIGame@@@std@@@std@@SAIABV?$allocator@PAUIGame@@@2@@Z ; std::allocator_traits<std::allocator<IGame *> >::max_size
PUBLIC	??0?$_Wrap_alloc@V?$allocator@PAUIGame@@@std@@@std@@QAE@XZ ; std::_Wrap_alloc<std::allocator<IGame *> >::_Wrap_alloc<std::allocator<IGame *> >
PUBLIC	?allocate@?$_Wrap_alloc@V?$allocator@PAUIGame@@@std@@@std@@QAEPAPAUIGame@@I@Z ; std::_Wrap_alloc<std::allocator<IGame *> >::allocate
PUBLIC	?deallocate@?$_Wrap_alloc@V?$allocator@PAUIGame@@@std@@@std@@QAEXPAPAUIGame@@I@Z ; std::_Wrap_alloc<std::allocator<IGame *> >::deallocate
PUBLIC	?max_size@?$_Wrap_alloc@V?$allocator@PAUIGame@@@std@@@std@@QBEIXZ ; std::_Wrap_alloc<std::allocator<IGame *> >::max_size
PUBLIC	??0?$_Vector_val@U?$_Simple_types@PAUIGame@@@std@@@std@@QAE@XZ ; std::_Vector_val<std::_Simple_types<IGame *> >::_Vector_val<std::_Simple_types<IGame *> >
PUBLIC	??0?$_Vector_alloc@$0A@U?$_Vec_base_types@PAUIGame@@V?$allocator@PAUIGame@@@std@@@std@@@std@@QAE@ABV?$allocator@PAUIGame@@@1@@Z ; std::_Vector_alloc<0,std::_Vec_base_types<IGame *,std::allocator<IGame *> > >::_Vector_alloc<0,std::_Vec_base_types<IGame *,std::allocator<IGame *> > >
PUBLIC	?_Getal@?$_Vector_alloc@$0A@U?$_Vec_base_types@PAUIGame@@V?$allocator@PAUIGame@@@std@@@std@@@std@@QBE?AU?$_Wrap_alloc@V?$allocator@PAUIGame@@@std@@@2@XZ ; std::_Vector_alloc<0,std::_Vec_base_types<IGame *,std::allocator<IGame *> > >::_Getal
PUBLIC	??0?$vector@PAUIGame@@V?$allocator@PAUIGame@@@std@@@std@@QAE@XZ ; std::vector<IGame *,std::allocator<IGame *> >::vector<IGame *,std::allocator<IGame *> >
PUBLIC	??1?$vector@PAUIGame@@V?$allocator@PAUIGame@@@std@@@std@@QAE@XZ ; std::vector<IGame *,std::allocator<IGame *> >::~vector<IGame *,std::allocator<IGame *> >
PUBLIC	?capacity@?$vector@PAUIGame@@V?$allocator@PAUIGame@@@std@@@std@@QBEIXZ ; std::vector<IGame *,std::allocator<IGame *> >::capacity
PUBLIC	?_Unused_capacity@?$vector@PAUIGame@@V?$allocator@PAUIGame@@@std@@@std@@QBEIXZ ; std::vector<IGame *,std::allocator<IGame *> >::_Unused_capacity
PUBLIC	?begin@?$vector@PAUIGame@@V?$allocator@PAUIGame@@@std@@@std@@QAE?AV?$_Vector_iterator@V?$_Vector_val@U?$_Simple_types@PAUIGame@@@std@@@std@@@2@XZ ; std::vector<IGame *,std::allocator<IGame *> >::begin
PUBLIC	?end@?$vector@PAUIGame@@V?$allocator@PAUIGame@@@std@@@std@@QAE?AV?$_Vector_iterator@V?$_Vector_val@U?$_Simple_types@PAUIGame@@@std@@@std@@@2@XZ ; std::vector<IGame *,std::allocator<IGame *> >::end
PUBLIC	?size@?$vector@PAUIGame@@V?$allocator@PAUIGame@@@std@@@std@@QBEIXZ ; std::vector<IGame *,std::allocator<IGame *> >::size
PUBLIC	?max_size@?$vector@PAUIGame@@V?$allocator@PAUIGame@@@std@@@std@@QBEIXZ ; std::vector<IGame *,std::allocator<IGame *> >::max_size
PUBLIC	?push_back@?$vector@PAUIGame@@V?$allocator@PAUIGame@@@std@@@std@@QAEXABQAUIGame@@@Z ; std::vector<IGame *,std::allocator<IGame *> >::push_back
PUBLIC	?clear@?$vector@PAUIGame@@V?$allocator@PAUIGame@@@std@@@std@@QAEXXZ ; std::vector<IGame *,std::allocator<IGame *> >::clear
PUBLIC	?_Destroy@?$vector@PAUIGame@@V?$allocator@PAUIGame@@@std@@@std@@IAEXPAPAUIGame@@0@Z ; std::vector<IGame *,std::allocator<IGame *> >::_Destroy
PUBLIC	?_Grow_to@?$vector@PAUIGame@@V?$allocator@PAUIGame@@@std@@@std@@IBEII@Z ; std::vector<IGame *,std::allocator<IGame *> >::_Grow_to
PUBLIC	?_Inside@?$vector@PAUIGame@@V?$allocator@PAUIGame@@@std@@@std@@IBE_NPBQAUIGame@@@Z ; std::vector<IGame *,std::allocator<IGame *> >::_Inside
PUBLIC	?_Reallocate@?$vector@PAUIGame@@V?$allocator@PAUIGame@@@std@@@std@@IAEXI@Z ; std::vector<IGame *,std::allocator<IGame *> >::_Reallocate
PUBLIC	?_Reserve@?$vector@PAUIGame@@V?$allocator@PAUIGame@@@std@@@std@@IAEXI@Z ; std::vector<IGame *,std::allocator<IGame *> >::_Reserve
PUBLIC	?_Tidy@?$vector@PAUIGame@@V?$allocator@PAUIGame@@@std@@@std@@IAEXXZ ; std::vector<IGame *,std::allocator<IGame *> >::_Tidy
PUBLIC	?_Xlen@?$vector@PAUIGame@@V?$allocator@PAUIGame@@@std@@@std@@IBEXXZ ; std::vector<IGame *,std::allocator<IGame *> >::_Xlen
PUBLIC	?_Orphan_range@?$vector@PAUIGame@@V?$allocator@PAUIGame@@@std@@@std@@IBEXPAPAUIGame@@0@Z ; std::vector<IGame *,std::allocator<IGame *> >::_Orphan_range
PUBLIC	?ServerListSortCB_Name@@YAHPAVTREELIST@@0@Z	; ServerListSortCB_Name
PUBLIC	?ServerListSortCB_Ping@@YAHPAVTREELIST@@0@Z	; ServerListSortCB_Ping
PUBLIC	?ServerListSortCB_Mode@@YAHPAVTREELIST@@0@Z	; ServerListSortCB_Mode
PUBLIC	?ServerListSortCB_Players@@YAHPAVTREELIST@@0@Z	; ServerListSortCB_Players
PUBLIC	?ServerListSortCB_Location@@YAHPAVTREELIST@@0@Z	; ServerListSortCB_Location
PUBLIC	?HookupServerBrowserControls@@YAXJ@Z		; HookupServerBrowserControls
PUBLIC	??0?$_Vector_const_iterator@V?$_Vector_val@U?$_Simple_types@PAUIGame@@@std@@@std@@@std@@QAE@XZ ; std::_Vector_const_iterator<std::_Vector_val<std::_Simple_types<IGame *> > >::_Vector_const_iterator<std::_Vector_val<std::_Simple_types<IGame *> > >
PUBLIC	??0?$_Vector_const_iterator@V?$_Vector_val@U?$_Simple_types@PAUIGame@@@std@@@std@@@std@@QAE@PAPAUIGame@@PBU_Container_base0@1@@Z ; std::_Vector_const_iterator<std::_Vector_val<std::_Simple_types<IGame *> > >::_Vector_const_iterator<std::_Vector_val<std::_Simple_types<IGame *> > >
PUBLIC	??D?$_Vector_const_iterator@V?$_Vector_val@U?$_Simple_types@PAUIGame@@@std@@@std@@@std@@QBEABQAUIGame@@XZ ; std::_Vector_const_iterator<std::_Vector_val<std::_Simple_types<IGame *> > >::operator*
PUBLIC	??E?$_Vector_const_iterator@V?$_Vector_val@U?$_Simple_types@PAUIGame@@@std@@@std@@@std@@QAEAAV01@XZ ; std::_Vector_const_iterator<std::_Vector_val<std::_Simple_types<IGame *> > >::operator++
PUBLIC	??8?$_Vector_const_iterator@V?$_Vector_val@U?$_Simple_types@PAUIGame@@@std@@@std@@@std@@QBE_NABV01@@Z ; std::_Vector_const_iterator<std::_Vector_val<std::_Simple_types<IGame *> > >::operator==
PUBLIC	??9?$_Vector_const_iterator@V?$_Vector_val@U?$_Simple_types@PAUIGame@@@std@@@std@@@std@@QBE_NABV01@@Z ; std::_Vector_const_iterator<std::_Vector_val<std::_Simple_types<IGame *> > >::operator!=
PUBLIC	?_Compat@?$_Vector_const_iterator@V?$_Vector_val@U?$_Simple_types@PAUIGame@@@std@@@std@@@std@@QBEXABV12@@Z ; std::_Vector_const_iterator<std::_Vector_val<std::_Simple_types<IGame *> > >::_Compat
PUBLIC	??0?$_Vector_iterator@V?$_Vector_val@U?$_Simple_types@PAUIGame@@@std@@@std@@@std@@QAE@XZ ; std::_Vector_iterator<std::_Vector_val<std::_Simple_types<IGame *> > >::_Vector_iterator<std::_Vector_val<std::_Simple_types<IGame *> > >
PUBLIC	??0?$_Vector_iterator@V?$_Vector_val@U?$_Simple_types@PAUIGame@@@std@@@std@@@std@@QAE@PAPAUIGame@@PBU_Container_base0@1@@Z ; std::_Vector_iterator<std::_Vector_val<std::_Simple_types<IGame *> > >::_Vector_iterator<std::_Vector_val<std::_Simple_types<IGame *> > >
PUBLIC	??D?$_Vector_iterator@V?$_Vector_val@U?$_Simple_types@PAUIGame@@@std@@@std@@@std@@QBEAAPAUIGame@@XZ ; std::_Vector_iterator<std::_Vector_val<std::_Simple_types<IGame *> > >::operator*
PUBLIC	??E?$_Vector_iterator@V?$_Vector_val@U?$_Simple_types@PAUIGame@@@std@@@std@@@std@@QAEAAV01@XZ ; std::_Vector_iterator<std::_Vector_val<std::_Simple_types<IGame *> > >::operator++
PUBLIC	??E?$_Vector_iterator@V?$_Vector_val@U?$_Simple_types@PAUIGame@@@std@@@std@@@std@@QAE?AV01@H@Z ; std::_Vector_iterator<std::_Vector_val<std::_Simple_types<IGame *> > >::operator++
PUBLIC	?GetIID@?$_com_IIID@UIGame@GNETCORELib@@$1?_GUID_dda57123_d4e3_11d2_9018_004f4e006398@@3U__s_GUID@@B@@SAABU_GUID@@XZ ; _com_IIID<GNETCORELib::IGame,&_GUID_dda57123_d4e3_11d2_9018_004f4e006398>::GetIID
PUBLIC	?GetIID@?$_com_ptr_t@V?$_com_IIID@UIGame@GNETCORELib@@$1?_GUID_dda57123_d4e3_11d2_9018_004f4e006398@@3U__s_GUID@@B@@@@SAABU_GUID@@XZ ; _com_ptr_t<_com_IIID<GNETCORELib::IGame,&_GUID_dda57123_d4e3_11d2_9018_004f4e006398> >::GetIID
PUBLIC	??0?$_com_ptr_t@V?$_com_IIID@UIGame@GNETCORELib@@$1?_GUID_dda57123_d4e3_11d2_9018_004f4e006398@@3U__s_GUID@@B@@@@QAE@XZ ; _com_ptr_t<_com_IIID<GNETCORELib::IGame,&_GUID_dda57123_d4e3_11d2_9018_004f4e006398> >::_com_ptr_t<_com_IIID<GNETCORELib::IGame,&_GUID_dda57123_d4e3_11d2_9018_004f4e006398> >
PUBLIC	??0?$_com_ptr_t@V?$_com_IIID@UIGame@GNETCORELib@@$1?_GUID_dda57123_d4e3_11d2_9018_004f4e006398@@3U__s_GUID@@B@@@@QAE@ABV0@@Z ; _com_ptr_t<_com_IIID<GNETCORELib::IGame,&_GUID_dda57123_d4e3_11d2_9018_004f4e006398> >::_com_ptr_t<_com_IIID<GNETCORELib::IGame,&_GUID_dda57123_d4e3_11d2_9018_004f4e006398> >
PUBLIC	??$?4UIGame@GNETCORELib@@@?$_com_ptr_t@V?$_com_IIID@UIGame@GNETCORELib@@$1?_GUID_dda57123_d4e3_11d2_9018_004f4e006398@@3U__s_GUID@@B@@@@QAEAAV0@PAUIGame@GNETCORELib@@@Z ; _com_ptr_t<_com_IIID<GNETCORELib::IGame,&_GUID_dda57123_d4e3_11d2_9018_004f4e006398> >::operator=<GNETCORELib::IGame>
PUBLIC	??1?$_com_ptr_t@V?$_com_IIID@UIGame@GNETCORELib@@$1?_GUID_dda57123_d4e3_11d2_9018_004f4e006398@@3U__s_GUID@@B@@@@QAE@XZ ; _com_ptr_t<_com_IIID<GNETCORELib::IGame,&_GUID_dda57123_d4e3_11d2_9018_004f4e006398> >::~_com_ptr_t<_com_IIID<GNETCORELib::IGame,&_GUID_dda57123_d4e3_11d2_9018_004f4e006398> >
PUBLIC	?Attach@?$_com_ptr_t@V?$_com_IIID@UIGame@GNETCORELib@@$1?_GUID_dda57123_d4e3_11d2_9018_004f4e006398@@3U__s_GUID@@B@@@@QAEXPAUIGame@GNETCORELib@@@Z ; _com_ptr_t<_com_IIID<GNETCORELib::IGame,&_GUID_dda57123_d4e3_11d2_9018_004f4e006398> >::Attach
PUBLIC	??C?$_com_ptr_t@V?$_com_IIID@UIGame@GNETCORELib@@$1?_GUID_dda57123_d4e3_11d2_9018_004f4e006398@@3U__s_GUID@@B@@@@QBEPAUIGame@GNETCORELib@@XZ ; _com_ptr_t<_com_IIID<GNETCORELib::IGame,&_GUID_dda57123_d4e3_11d2_9018_004f4e006398> >::operator->
PUBLIC	??B?$_com_ptr_t@V?$_com_IIID@UIGame@GNETCORELib@@$1?_GUID_dda57123_d4e3_11d2_9018_004f4e006398@@3U__s_GUID@@B@@@@QBE_NXZ ; _com_ptr_t<_com_IIID<GNETCORELib::IGame,&_GUID_dda57123_d4e3_11d2_9018_004f4e006398> >::operator bool
PUBLIC	??8?$_com_ptr_t@V?$_com_IIID@UIGame@GNETCORELib@@$1?_GUID_dda57123_d4e3_11d2_9018_004f4e006398@@3U__s_GUID@@B@@@@QBE_NH@Z ; _com_ptr_t<_com_IIID<GNETCORELib::IGame,&_GUID_dda57123_d4e3_11d2_9018_004f4e006398> >::operator==
PUBLIC	??9?$_com_ptr_t@V?$_com_IIID@UIGame@GNETCORELib@@$1?_GUID_dda57123_d4e3_11d2_9018_004f4e006398@@3U__s_GUID@@B@@@@QBE_NH@Z ; _com_ptr_t<_com_IIID<GNETCORELib::IGame,&_GUID_dda57123_d4e3_11d2_9018_004f4e006398> >::operator!=
PUBLIC	?_Release@?$_com_ptr_t@V?$_com_IIID@UIGame@GNETCORELib@@$1?_GUID_dda57123_d4e3_11d2_9018_004f4e006398@@3U__s_GUID@@B@@@@AAEXXZ ; _com_ptr_t<_com_IIID<GNETCORELib::IGame,&_GUID_dda57123_d4e3_11d2_9018_004f4e006398> >::_Release
PUBLIC	?_AddRef@?$_com_ptr_t@V?$_com_IIID@UIGame@GNETCORELib@@$1?_GUID_dda57123_d4e3_11d2_9018_004f4e006398@@3U__s_GUID@@B@@@@AAEXXZ ; _com_ptr_t<_com_IIID<GNETCORELib::IGame,&_GUID_dda57123_d4e3_11d2_9018_004f4e006398> >::_AddRef
PUBLIC	??$?0UIGame@@@?$_com_ptr_t@V?$_com_IIID@UIGame@GNETCORELib@@$1?_GUID_dda57123_d4e3_11d2_9018_004f4e006398@@3U__s_GUID@@B@@@@QAE@PAUIGame@@@Z ; _com_ptr_t<_com_IIID<GNETCORELib::IGame,&_GUID_dda57123_d4e3_11d2_9018_004f4e006398> >::_com_ptr_t<_com_IIID<GNETCORELib::IGame,&_GUID_dda57123_d4e3_11d2_9018_004f4e006398> ><IGame>
PUBLIC	?ServerBrowserExit@@YAXXZ			; ServerBrowserExit
PUBLIC	?GetIID@?$_com_IIID@UIHost@GNETCORELib@@$1?_GUID_b6b03a0c_d547_11d2_9018_004f4e006398@@3U__s_GUID@@B@@SAABU_GUID@@XZ ; _com_IIID<GNETCORELib::IHost,&_GUID_b6b03a0c_d547_11d2_9018_004f4e006398>::GetIID
PUBLIC	?GetIID@?$_com_ptr_t@V?$_com_IIID@UIHost@GNETCORELib@@$1?_GUID_b6b03a0c_d547_11d2_9018_004f4e006398@@3U__s_GUID@@B@@@@SAABU_GUID@@XZ ; _com_ptr_t<_com_IIID<GNETCORELib::IHost,&_GUID_b6b03a0c_d547_11d2_9018_004f4e006398> >::GetIID
PUBLIC	??$?4UIHost@GNETCORELib@@@?$_com_ptr_t@V?$_com_IIID@UIHost@GNETCORELib@@$1?_GUID_b6b03a0c_d547_11d2_9018_004f4e006398@@3U__s_GUID@@B@@@@QAEAAV0@PAUIHost@GNETCORELib@@@Z ; _com_ptr_t<_com_IIID<GNETCORELib::IHost,&_GUID_b6b03a0c_d547_11d2_9018_004f4e006398> >::operator=<GNETCORELib::IHost>
PUBLIC	??1?$_com_ptr_t@V?$_com_IIID@UIHost@GNETCORELib@@$1?_GUID_b6b03a0c_d547_11d2_9018_004f4e006398@@3U__s_GUID@@B@@@@QAE@XZ ; _com_ptr_t<_com_IIID<GNETCORELib::IHost,&_GUID_b6b03a0c_d547_11d2_9018_004f4e006398> >::~_com_ptr_t<_com_IIID<GNETCORELib::IHost,&_GUID_b6b03a0c_d547_11d2_9018_004f4e006398> >
PUBLIC	?Attach@?$_com_ptr_t@V?$_com_IIID@UIHost@GNETCORELib@@$1?_GUID_b6b03a0c_d547_11d2_9018_004f4e006398@@3U__s_GUID@@B@@@@QAEXPAUIHost@GNETCORELib@@@Z ; _com_ptr_t<_com_IIID<GNETCORELib::IHost,&_GUID_b6b03a0c_d547_11d2_9018_004f4e006398> >::Attach
PUBLIC	??C?$_com_ptr_t@V?$_com_IIID@UIHost@GNETCORELib@@$1?_GUID_b6b03a0c_d547_11d2_9018_004f4e006398@@3U__s_GUID@@B@@@@QBEPAUIHost@GNETCORELib@@XZ ; _com_ptr_t<_com_IIID<GNETCORELib::IHost,&_GUID_b6b03a0c_d547_11d2_9018_004f4e006398> >::operator->
PUBLIC	?_Release@?$_com_ptr_t@V?$_com_IIID@UIHost@GNETCORELib@@$1?_GUID_b6b03a0c_d547_11d2_9018_004f4e006398@@3U__s_GUID@@B@@@@AAEXXZ ; _com_ptr_t<_com_IIID<GNETCORELib::IHost,&_GUID_b6b03a0c_d547_11d2_9018_004f4e006398> >::_Release
PUBLIC	?_AddRef@?$_com_ptr_t@V?$_com_IIID@UIHost@GNETCORELib@@$1?_GUID_b6b03a0c_d547_11d2_9018_004f4e006398@@3U__s_GUID@@B@@@@AAEXXZ ; _com_ptr_t<_com_IIID<GNETCORELib::IHost,&_GUID_b6b03a0c_d547_11d2_9018_004f4e006398> >::_AddRef
PUBLIC	??$?0V?$_com_IIID@UIGame@GNETCORELib@@$1?_GUID_dda57123_d4e3_11d2_9018_004f4e006398@@3U__s_GUID@@B@@@?$_com_ptr_t@V?$_com_IIID@UIHost@GNETCORELib@@$1?_GUID_b6b03a0c_d547_11d2_9018_004f4e006398@@3U__s_GUID@@B@@@@QAE@ABV?$_com_ptr_t@V?$_com_IIID@UIGame@GNETCORELib@@$1?_GUID_dda57123_d4e3_11d2_9018_004f4e006398@@3U__s_GUID@@B@@@@@Z ; _com_ptr_t<_com_IIID<GNETCORELib::IHost,&_GUID_b6b03a0c_d547_11d2_9018_004f4e006398> >::_com_ptr_t<_com_IIID<GNETCORELib::IHost,&_GUID_b6b03a0c_d547_11d2_9018_004f4e006398> ><_com_IIID<GNETCORELib::IGame,&_GUID_dda57123_d4e3_11d2_9018_004f4e006398> >
PUBLIC	??$addressof@QAUIGame@@@std@@YAPBQAUIGame@@ABQAU1@@Z ; std::addressof<IGame * const>
PUBLIC	??$construct@PAUIGame@@AAPAU1@@?$_Wrap_alloc@V?$allocator@PAUIGame@@@std@@@std@@QAEXPAPAUIGame@@AAPAU2@@Z ; std::_Wrap_alloc<std::allocator<IGame *> >::construct<IGame *,IGame * &>
PUBLIC	??$construct@PAUIGame@@ABQAU1@@?$_Wrap_alloc@V?$allocator@PAUIGame@@@std@@@std@@QAEXPAPAUIGame@@ABQAU2@@Z ; std::_Wrap_alloc<std::allocator<IGame *> >::construct<IGame *,IGame * const &>
PUBLIC	??$construct@PADAAPAD@?$_Wrap_alloc@V?$allocator@D@std@@@std@@QAEXPAPADAAPAD@Z ; std::_Wrap_alloc<std::allocator<char> >::construct<char *,char * &>
PUBLIC	??$destroy@PAD@?$_Wrap_alloc@V?$allocator@D@std@@@std@@QAEXPAPAD@Z ; std::_Wrap_alloc<std::allocator<char> >::destroy<char *>
PUBLIC	??$addressof@D@std@@YAPADAAD@Z			; std::addressof<char>
PUBLIC	??$_Destroy_range@U?$_Wrap_alloc@V?$allocator@PAUIGame@@@std@@@std@@@std@@YAXPAPAUIGame@@0AAU?$_Wrap_alloc@V?$allocator@PAUIGame@@@std@@@0@@Z ; std::_Destroy_range<std::_Wrap_alloc<std::allocator<IGame *> > >
PUBLIC	??$_Umove@PAPAUIGame@@@?$vector@PAUIGame@@V?$allocator@PAUIGame@@@std@@@std@@IAEPAPAUIGame@@PAPAU2@00@Z ; std::vector<IGame *,std::allocator<IGame *> >::_Umove<IGame * *>
PUBLIC	??$_Allocate@PAUIGame@@@std@@YAPAPAUIGame@@IPAPAU1@@Z ; std::_Allocate<IGame *>
PUBLIC	??$_Allocate@D@std@@YAPADIPAD@Z			; std::_Allocate<char>
PUBLIC	??$_QueryInterface@PAUIGame@@@?$_com_ptr_t@V?$_com_IIID@UIGame@GNETCORELib@@$1?_GUID_dda57123_d4e3_11d2_9018_004f4e006398@@3U__s_GUID@@B@@@@AAEJPAUIGame@@@Z ; _com_ptr_t<_com_IIID<GNETCORELib::IGame,&_GUID_dda57123_d4e3_11d2_9018_004f4e006398> >::_QueryInterface<IGame *>
PUBLIC	??$_QueryInterface@V?$_com_ptr_t@V?$_com_IIID@UIGame@GNETCORELib@@$1?_GUID_dda57123_d4e3_11d2_9018_004f4e006398@@3U__s_GUID@@B@@@@@?$_com_ptr_t@V?$_com_IIID@UIHost@GNETCORELib@@$1?_GUID_b6b03a0c_d547_11d2_9018_004f4e006398@@3U__s_GUID@@B@@@@AAEJV?$_com_ptr_t@V?$_com_IIID@UIGame@GNETCORELib@@$1?_GUID_dda57123_d4e3_11d2_9018_004f4e006398@@3U__s_GUID@@B@@@@@Z ; _com_ptr_t<_com_IIID<GNETCORELib::IHost,&_GUID_b6b03a0c_d547_11d2_9018_004f4e006398> >::_QueryInterface<_com_ptr_t<_com_IIID<GNETCORELib::IGame,&_GUID_dda57123_d4e3_11d2_9018_004f4e006398> > >
PUBLIC	??$forward@AAPAUIGame@@@std@@YAAAPAUIGame@@AAPAU1@@Z ; std::forward<IGame * &>
PUBLIC	??$construct@PAUIGame@@AAPAU1@@?$allocator_traits@V?$allocator@PAUIGame@@@std@@@std@@SAXAAV?$allocator@PAUIGame@@@1@PAPAUIGame@@AAPAU3@@Z ; std::allocator_traits<std::allocator<IGame *> >::construct<IGame *,IGame * &>
PUBLIC	??$forward@ABQAUIGame@@@std@@YAABQAUIGame@@ABQAU1@@Z ; std::forward<IGame * const &>
PUBLIC	??$construct@PAUIGame@@ABQAU1@@?$allocator_traits@V?$allocator@PAUIGame@@@std@@@std@@SAXAAV?$allocator@PAUIGame@@@1@PAPAUIGame@@ABQAU3@@Z ; std::allocator_traits<std::allocator<IGame *> >::construct<IGame *,IGame * const &>
PUBLIC	??$forward@AAPAD@std@@YAAAPADAAPAD@Z		; std::forward<char * &>
PUBLIC	??$construct@PADAAPAD@?$allocator_traits@V?$allocator@D@std@@@std@@SAXAAV?$allocator@D@1@PAPADAAPAD@Z ; std::allocator_traits<std::allocator<char> >::construct<char *,char * &>
PUBLIC	??$destroy@PAD@?$allocator_traits@V?$allocator@D@std@@@std@@SAXAAV?$allocator@D@1@PAPAD@Z ; std::allocator_traits<std::allocator<char> >::destroy<char *>
PUBLIC	??$_Ptr_cat@PAUIGame@@PAU1@@std@@YA?AU_Scalar_ptr_iterator_tag@0@PAPAUIGame@@0@Z ; std::_Ptr_cat<IGame *,IGame *>
PUBLIC	??$_Destroy_range@U?$_Wrap_alloc@V?$allocator@PAUIGame@@@std@@@std@@@std@@YAXPAPAUIGame@@0AAU?$_Wrap_alloc@V?$allocator@PAUIGame@@@std@@@0@U_Scalar_ptr_iterator_tag@0@@Z ; std::_Destroy_range<std::_Wrap_alloc<std::allocator<IGame *> > >
PUBLIC	??$_Uninitialized_move@PAPAUIGame@@PAPAU1@U?$_Wrap_alloc@V?$allocator@PAUIGame@@@std@@@std@@@std@@YAPAPAUIGame@@PAPAU1@00AAU?$_Wrap_alloc@V?$allocator@PAUIGame@@@std@@@0@@Z ; std::_Uninitialized_move<IGame * *,IGame * *,std::_Wrap_alloc<std::allocator<IGame *> > >
PUBLIC	??$construct@PAUIGame@@AAPAU1@@?$allocator@PAUIGame@@@std@@QAEXPAPAUIGame@@AAPAU2@@Z ; std::allocator<IGame *>::construct<IGame *,IGame * &>
PUBLIC	??$construct@PADAAPAD@?$allocator@D@std@@QAEXPAPADAAPAD@Z ; std::allocator<char>::construct<char *,char * &>
PUBLIC	??$destroy@PAD@?$allocator@D@std@@QAEXPAPAD@Z	; std::allocator<char>::destroy<char *>
PUBLIC	??$_Val_type@PAPAUIGame@@@std@@YAPAPAUIGame@@PAPAU1@@Z ; std::_Val_type<IGame * *>
PUBLIC	??$_Uninit_move@PAUIGame@@PAU1@PAU1@@std@@YAPAPAUIGame@@PAPAU1@00AAU?$_Wrap_alloc@V?$allocator@PAUIGame@@@std@@@0@0U_Scalar_ptr_iterator_tag@0@@Z ; std::_Uninit_move<IGame *,IGame *,IGame *>
PUBLIC	?QueryInterface@?$CComObject@VCGNetUpdater@@@ATL@@W3AGJABU_GUID@@PAPAX@Z ; [thunk]:ATL::CComObject<CGNetUpdater>::QueryInterface`adjustor{4}'
PUBLIC	?AddRef@?$CComObject@VCGNetUpdater@@@ATL@@W3AGKXZ ; [thunk]:ATL::CComObject<CGNetUpdater>::AddRef`adjustor{4}'
PUBLIC	?Release@?$CComObject@VCGNetUpdater@@@ATL@@W3AGKXZ ; [thunk]:ATL::CComObject<CGNetUpdater>::Release`adjustor{4}'
PUBLIC	??_7error_category@std@@6B@			; std::error_category::`vftable'
PUBLIC	??_7_Generic_error_category@std@@6B@		; std::_Generic_error_category::`vftable'
PUBLIC	??_C@_07DCLBNMLN@generic?$AA@			; `string'
PUBLIC	??_C@_0O@BFJCFAAK@unknown?5error?$AA@		; `string'
PUBLIC	??_7_Iostream_error_category@std@@6B@		; std::_Iostream_error_category::`vftable'
PUBLIC	??_C@_08LLGCOLLL@iostream?$AA@			; `string'
PUBLIC	??_C@_0BG@PADBLCHM@iostream?5stream?5error?$AA@	; `string'
PUBLIC	??_7_System_error_category@std@@6B@		; std::_System_error_category::`vftable'
PUBLIC	??_C@_06FHFOAHML@system?$AA@			; `string'
PUBLIC	?_Generic_object@?$_Error_objects@H@std@@2V_Generic_error_category@2@A ; std::_Error_objects<int>::_Generic_object
PUBLIC	?_Iostream_object@?$_Error_objects@H@std@@2V_Iostream_error_category@2@A ; std::_Error_objects<int>::_Iostream_object
PUBLIC	?_System_object@?$_Error_objects@H@std@@2V_System_error_category@2@A ; std::_Error_objects<int>::_System_object
PUBLIC	?id@?$num_put@DV?$back_insert_iterator@V?$basic_string@DU?$char_traits@D@std@@V?$allocator@D@2@@std@@@std@@@std@@2V0locale@2@A ; std::num_put<char,std::back_insert_iterator<std::basic_string<char,std::char_traits<char>,std::allocator<char> > > >::id
PUBLIC	?id@?$num_put@_WV?$back_insert_iterator@V?$basic_string@_WU?$char_traits@_W@std@@V?$allocator@_W@2@@std@@@std@@@std@@2V0locale@2@A ; std::num_put<wchar_t,std::back_insert_iterator<std::basic_string<wchar_t,std::char_traits<wchar_t>,std::allocator<wchar_t> > > >::id
PUBLIC	??_7C_Base@@6B@					; C_Base::`vftable'
PUBLIC	??_7C_Control@@6B@				; C_Control::`vftable'
PUBLIC	??_7_com_error@@6B@				; _com_error::`vftable'
PUBLIC	??_7CGNetUpdater@@6BIGameEvents@@@		; CGNetUpdater::`vftable'
PUBLIC	??_7CGNetUpdater@@6BIRemoteMasterServerEvents@@@ ; CGNetUpdater::`vftable'
PUBLIC	?_entries@?1??_GetEntries@CGNetUpdater@@SGPBU_ATL_INTMAP_ENTRY@ATL@@XZ@4QBU34@B ; `CGNetUpdater::_GetEntries'::`2'::_entries
PUBLIC	??_7?$CComObject@VCGNetUpdater@@@ATL@@6BIGameEvents@@@ ; ATL::CComObject<CGNetUpdater>::`vftable'
PUBLIC	??_7?$CComObject@VCGNetUpdater@@@ATL@@6BIRemoteMasterServerEvents@@@ ; ATL::CComObject<CGNetUpdater>::`vftable'
PUBLIC	??_7GNetUpdater@@6BIGameEvents@@@		; GNetUpdater::`vftable'
PUBLIC	??_7GNetUpdater@@6BIRemoteMasterServerEvents@@@	; GNetUpdater::`vftable'
PUBLIC	??_7C_ServerItem@@6B@				; C_ServerItem::`vftable'
PUBLIC	??_C@_0N@HBACIAED@Aborting?5?4?4?4?$AA@		; `string'
PUBLIC	??_C@_0BB@MDFKAALD@?$CF1d?4?$CF02d?4?$CF1d?4?$CF5d?$AA@ ; `string'
PUBLIC	??_R0?AV_com_error@@@8				; _com_error `RTTI Type Descriptor'
PUBLIC	??_C@_0CB@FJNCFHFD@MakeServerItem?5?9?5_com_error?50x?$CFX@ ; `string'
PUBLIC	__TI1?AV_com_error@@
PUBLIC	__CTA1?AV_com_error@@
PUBLIC	__CT??_R0?AV_com_error@@@8??0_com_error@@QAE@ABV0@@Z16
PUBLIC	??_C@_0BJ@DFJKLFBN@Update?5?9?5_com_error?50x?$CFX?$AA@ ; `string'
PUBLIC	??_C@_02JLAAGLDA@CA?$AA@			; `string'
PUBLIC	??_C@_02OGAFBLMB@TE?$AA@			; `string'
PUBLIC	??_C@_02NBAOOLHC@DF?$AA@			; `string'
PUBLIC	??_C@_0CA@NINGCFFI@UpdateDisplay?5?9?5_com_error?50x?$CFX?$AA@ ; `string'
PUBLIC	??_C@_0CI@CFGAOGGF@Connected?5?4?4?5getting?5server?5info@ ; `string'
PUBLIC	??_C@_0L@FEIOPENH@?$CFd?5Servers?$AA@		; `string'
PUBLIC	??_C@_0CD@CPCOMKHD@Failed?5to?5connect?5to?5master?5serv@ ; `string'
PUBLIC	??_C@_0O@BMKHJNFD@Update?5failed?$AA@		; `string'
PUBLIC	??_C@_0BK@EENOLLKJ@?$CF?41f?$CF?$CF?5?$CI?$CFd?5of?5?$CFd?5Servers?$CJ?$AA@ ; `string'
PUBLIC	??_C@_03GLKEJMAA@?$CF4d?$AA@			; `string'
PUBLIC	??_C@_07HFNBMNBH@?$CF2d?1?$CF2d?$AA@		; `string'
PUBLIC	??_C@_0BN@NBJLJDOH@Contacting?5master?5server?5?4?4?4?$AA@ ; `string'
PUBLIC	??_C@_07GDGMJMJJ@Falcon4?$AA@			; `string'
PUBLIC	??_C@_0CL@LLDBCDGC@CGNetUpdater?3?3UpdateGame?5?9?5_com_@ ; `string'
PUBLIC	??_C@_0CI@LHGKFGHD@CGNetUpdater?3?3Refresh?5?9?5_com_err@ ; `string'
PUBLIC	?id@?$numpunct@D@std@@2V0locale@2@A		; std::numpunct<char>::id
PUBLIC	?id@?$numpunct@_W@std@@2V0locale@2@A		; std::numpunct<wchar_t>::id
PUBLIC	??_C@_0BI@CFPLBAOH@invalid?5string?5position?$AA@ ; `string'
PUBLIC	??_C@_0BD@OLBABOEK@vector?$DMT?$DO?5too?5long?$AA@ ; `string'
PUBLIC	??_C@_0BA@JFNIOLAK@string?5too?5long?$AA@	; `string'
PUBLIC	??_R0?AUIUnknown@@@8				; IUnknown `RTTI Type Descriptor'
PUBLIC	??_R3IUnknown@@8				; IUnknown::`RTTI Class Hierarchy Descriptor'
PUBLIC	??_R2IUnknown@@8				; IUnknown::`RTTI Base Class Array'
PUBLIC	??_R1A@?0A@EA@IUnknown@@8			; IUnknown::`RTTI Base Class Descriptor at (0,-1,0,64)'
PUBLIC	??_R4error_category@std@@6B@			; std::error_category::`RTTI Complete Object Locator'
PUBLIC	??_R0?AVerror_category@std@@@8			; std::error_category `RTTI Type Descriptor'
PUBLIC	??_R3error_category@std@@8			; std::error_category::`RTTI Class Hierarchy Descriptor'
PUBLIC	??_R2error_category@std@@8			; std::error_category::`RTTI Base Class Array'
PUBLIC	??_R1A@?0A@EA@error_category@std@@8		; std::error_category::`RTTI Base Class Descriptor at (0,-1,0,64)'
PUBLIC	??_R4_Generic_error_category@std@@6B@		; std::_Generic_error_category::`RTTI Complete Object Locator'
PUBLIC	??_R0?AV_Generic_error_category@std@@@8		; std::_Generic_error_category `RTTI Type Descriptor'
PUBLIC	??_R3_Generic_error_category@std@@8		; std::_Generic_error_category::`RTTI Class Hierarchy Descriptor'
PUBLIC	??_R2_Generic_error_category@std@@8		; std::_Generic_error_category::`RTTI Base Class Array'
PUBLIC	??_R1A@?0A@EA@_Generic_error_category@std@@8	; std::_Generic_error_category::`RTTI Base Class Descriptor at (0,-1,0,64)'
PUBLIC	??_R4_Iostream_error_category@std@@6B@		; std::_Iostream_error_category::`RTTI Complete Object Locator'
PUBLIC	??_R0?AV_Iostream_error_category@std@@@8	; std::_Iostream_error_category `RTTI Type Descriptor'
PUBLIC	??_R3_Iostream_error_category@std@@8		; std::_Iostream_error_category::`RTTI Class Hierarchy Descriptor'
PUBLIC	??_R2_Iostream_error_category@std@@8		; std::_Iostream_error_category::`RTTI Base Class Array'
PUBLIC	??_R1A@?0A@EA@_Iostream_error_category@std@@8	; std::_Iostream_error_category::`RTTI Base Class Descriptor at (0,-1,0,64)'
PUBLIC	??_R4_System_error_category@std@@6B@		; std::_System_error_category::`RTTI Complete Object Locator'
PUBLIC	??_R0?AV_System_error_category@std@@@8		; std::_System_error_category `RTTI Type Descriptor'
PUBLIC	??_R3_System_error_category@std@@8		; std::_System_error_category::`RTTI Class Hierarchy Descriptor'
PUBLIC	??_R2_System_error_category@std@@8		; std::_System_error_category::`RTTI Base Class Array'
PUBLIC	??_R1A@?0A@EA@_System_error_category@std@@8	; std::_System_error_category::`RTTI Base Class Descriptor at (0,-1,0,64)'
PUBLIC	??_R4C_Base@@6B@				; C_Base::`RTTI Complete Object Locator'
PUBLIC	??_R0?AVC_Base@@@8				; C_Base `RTTI Type Descriptor'
PUBLIC	??_R3C_Base@@8					; C_Base::`RTTI Class Hierarchy Descriptor'
PUBLIC	??_R2C_Base@@8					; C_Base::`RTTI Base Class Array'
PUBLIC	??_R1A@?0A@EA@C_Base@@8				; C_Base::`RTTI Base Class Descriptor at (0,-1,0,64)'
PUBLIC	??_R4C_Control@@6B@				; C_Control::`RTTI Complete Object Locator'
PUBLIC	??_R0?AVC_Control@@@8				; C_Control `RTTI Type Descriptor'
PUBLIC	??_R3C_Control@@8				; C_Control::`RTTI Class Hierarchy Descriptor'
PUBLIC	??_R2C_Control@@8				; C_Control::`RTTI Base Class Array'
PUBLIC	??_R1A@?0A@EA@C_Control@@8			; C_Control::`RTTI Base Class Descriptor at (0,-1,0,64)'
PUBLIC	??_R4_com_error@@6B@				; _com_error::`RTTI Complete Object Locator'
PUBLIC	??_R3_com_error@@8				; _com_error::`RTTI Class Hierarchy Descriptor'
PUBLIC	??_R2_com_error@@8				; _com_error::`RTTI Base Class Array'
PUBLIC	??_R1A@?0A@EA@_com_error@@8			; _com_error::`RTTI Base Class Descriptor at (0,-1,0,64)'
PUBLIC	??_R0?AV?$CComObjectRootEx@VCComMultiThreadModel@ATL@@@ATL@@@8 ; ATL::CComObjectRootEx<ATL::CComMultiThreadModel> `RTTI Type Descriptor'
PUBLIC	??_R3?$CComObjectRootEx@VCComMultiThreadModel@ATL@@@ATL@@8 ; ATL::CComObjectRootEx<ATL::CComMultiThreadModel>::`RTTI Class Hierarchy Descriptor'
PUBLIC	??_R2?$CComObjectRootEx@VCComMultiThreadModel@ATL@@@ATL@@8 ; ATL::CComObjectRootEx<ATL::CComMultiThreadModel>::`RTTI Base Class Array'
PUBLIC	??_R1A@?0A@EA@?$CComObjectRootEx@VCComMultiThreadModel@ATL@@@ATL@@8 ; ATL::CComObjectRootEx<ATL::CComMultiThreadModel>::`RTTI Base Class Descriptor at (0,-1,0,64)'
PUBLIC	??_R1A@?0A@EA@CComObjectRootBase@ATL@@8		; ATL::CComObjectRootBase::`RTTI Base Class Descriptor at (0,-1,0,64)'
PUBLIC	??_R0?AVCComObjectRootBase@ATL@@@8		; ATL::CComObjectRootBase `RTTI Type Descriptor'
PUBLIC	??_R3CComObjectRootBase@ATL@@8			; ATL::CComObjectRootBase::`RTTI Class Hierarchy Descriptor'
PUBLIC	??_R2CComObjectRootBase@ATL@@8			; ATL::CComObjectRootBase::`RTTI Base Class Array'
PUBLIC	??_R0?AUIGameEvents@@@8				; IGameEvents `RTTI Type Descriptor'
PUBLIC	??_R3IGameEvents@@8				; IGameEvents::`RTTI Class Hierarchy Descriptor'
PUBLIC	??_R2IGameEvents@@8				; IGameEvents::`RTTI Base Class Array'
PUBLIC	??_R1A@?0A@EA@IGameEvents@@8			; IGameEvents::`RTTI Base Class Descriptor at (0,-1,0,64)'
PUBLIC	??_R0?AUIRemoteMasterServerEvents@@@8		; IRemoteMasterServerEvents `RTTI Type Descriptor'
PUBLIC	??_R3IRemoteMasterServerEvents@@8		; IRemoteMasterServerEvents::`RTTI Class Hierarchy Descriptor'
PUBLIC	??_R2IRemoteMasterServerEvents@@8		; IRemoteMasterServerEvents::`RTTI Base Class Array'
PUBLIC	??_R1A@?0A@EA@IRemoteMasterServerEvents@@8	; IRemoteMasterServerEvents::`RTTI Base Class Descriptor at (0,-1,0,64)'
PUBLIC	??_R4CGNetUpdater@@6BIGameEvents@@@		; CGNetUpdater::`RTTI Complete Object Locator'
PUBLIC	??_R0?AVCGNetUpdater@@@8			; CGNetUpdater `RTTI Type Descriptor'
PUBLIC	??_R3CGNetUpdater@@8				; CGNetUpdater::`RTTI Class Hierarchy Descriptor'
PUBLIC	??_R2CGNetUpdater@@8				; CGNetUpdater::`RTTI Base Class Array'
PUBLIC	??_R1A@?0A@EA@CGNetUpdater@@8			; CGNetUpdater::`RTTI Base Class Descriptor at (0,-1,0,64)'
PUBLIC	??_R17?0A@EA@?$CComObjectRootEx@VCComMultiThreadModel@ATL@@@ATL@@8 ; ATL::CComObjectRootEx<ATL::CComMultiThreadModel>::`RTTI Base Class Descriptor at (8,-1,0,64)'
PUBLIC	??_R17?0A@EA@CComObjectRootBase@ATL@@8		; ATL::CComObjectRootBase::`RTTI Base Class Descriptor at (8,-1,0,64)'
PUBLIC	??_R1A@?0A@EC@IUnknown@@8			; IUnknown::`RTTI Base Class Descriptor at (0,-1,0,66)'
PUBLIC	??_R13?0A@EA@IRemoteMasterServerEvents@@8	; IRemoteMasterServerEvents::`RTTI Base Class Descriptor at (4,-1,0,64)'
PUBLIC	??_R13?0A@EC@IUnknown@@8			; IUnknown::`RTTI Base Class Descriptor at (4,-1,0,66)'
PUBLIC	??_R4CGNetUpdater@@6BIRemoteMasterServerEvents@@@ ; CGNetUpdater::`RTTI Complete Object Locator'
PUBLIC	??_R4GNetUpdater@@6BIGameEvents@@@		; GNetUpdater::`RTTI Complete Object Locator'
PUBLIC	??_R0?AVGNetUpdater@@@8				; GNetUpdater `RTTI Type Descriptor'
PUBLIC	??_R3GNetUpdater@@8				; GNetUpdater::`RTTI Class Hierarchy Descriptor'
PUBLIC	??_R2GNetUpdater@@8				; GNetUpdater::`RTTI Base Class Array'
PUBLIC	??_R1A@?0A@EA@GNetUpdater@@8			; GNetUpdater::`RTTI Base Class Descriptor at (0,-1,0,64)'
PUBLIC	??_R1A@?0A@EA@?$CComObject@VCGNetUpdater@@@ATL@@8 ; ATL::CComObject<CGNetUpdater>::`RTTI Base Class Descriptor at (0,-1,0,64)'
PUBLIC	??_R0?AV?$CComObject@VCGNetUpdater@@@ATL@@@8	; ATL::CComObject<CGNetUpdater> `RTTI Type Descriptor'
PUBLIC	??_R3?$CComObject@VCGNetUpdater@@@ATL@@8	; ATL::CComObject<CGNetUpdater>::`RTTI Class Hierarchy Descriptor'
PUBLIC	??_R2?$CComObject@VCGNetUpdater@@@ATL@@8	; ATL::CComObject<CGNetUpdater>::`RTTI Base Class Array'
PUBLIC	??_R4GNetUpdater@@6BIRemoteMasterServerEvents@@@ ; GNetUpdater::`RTTI Complete Object Locator'
PUBLIC	??_R4?$CComObject@VCGNetUpdater@@@ATL@@6BIGameEvents@@@ ; ATL::CComObject<CGNetUpdater>::`RTTI Complete Object Locator'
PUBLIC	??_R4?$CComObject@VCGNetUpdater@@@ATL@@6BIRemoteMasterServerEvents@@@ ; ATL::CComObject<CGNetUpdater>::`RTTI Complete Object Locator'
PUBLIC	??_R4C_ServerItem@@6B@				; C_ServerItem::`RTTI Complete Object Locator'
PUBLIC	??_R0?AVC_ServerItem@@@8			; C_ServerItem `RTTI Type Descriptor'
PUBLIC	??_R3C_ServerItem@@8				; C_ServerItem::`RTTI Class Hierarchy Descriptor'
PUBLIC	??_R2C_ServerItem@@8				; C_ServerItem::`RTTI Base Class Array'
PUBLIC	??_R1A@?0A@EA@C_ServerItem@@8			; C_ServerItem::`RTTI Base Class Descriptor at (0,-1,0,64)'
PUBLIC	__real@42c80000
EXTRN	??_M@YGXPAXIHP6EX0@Z@Z:PROC			; `eh vector destructor iterator'
EXTRN	__purecall:PROC
EXTRN	??2@YAPAXI@Z:PROC				; operator new
EXTRN	??3@YAXPAX@Z:PROC				; operator delete
EXTRN	_atexit:PROC
EXTRN	_memcpy:PROC
EXTRN	_memset:PROC
EXTRN	_strcmp:PROC
EXTRN	_strlen:PROC
EXTRN	_memmove:PROC
EXTRN	__imp__CloseHandle@4:PROC
EXTRN	__imp__DeleteCriticalSection@4:PROC
EXTRN	__imp__SetEvent@4:PROC
EXTRN	__imp__WaitForSingleObject@8:PROC
EXTRN	__imp__CreateEventA@16:PROC
EXTRN	__imp__InterlockedIncrement@4:PROC
EXTRN	__imp__InterlockedDecrement@4:PROC
EXTRN	__imp__LocalFree@4:PROC
EXTRN	__imp__GetMessageA@16:PROC
EXTRN	__imp__GetMessageW@16:PROC
EXTRN	__imp__TranslateMessage@4:PROC
EXTRN	__imp__DispatchMessageA@4:PROC
EXTRN	__imp__DispatchMessageW@4:PROC
EXTRN	__imp__PeekMessageA@20:PROC
EXTRN	__imp__MsgWaitForMultipleObjectsEx@20:PROC
EXTRN	__imp__IsWindowUnicode@4:PROC
EXTRN	_sprintf:PROC
EXTRN	_vsprintf:PROC
EXTRN	_MonoPrint:PROC
EXTRN	??_V@YAXPAX@Z:PROC				; operator delete[]
EXTRN	?_Xbad_alloc@std@@YAXXZ:PROC			; std::_Xbad_alloc
EXTRN	?_Xlength_error@std@@YAXPBD@Z:PROC		; std::_Xlength_error
EXTRN	?_Xout_of_range@std@@YAXPBD@Z:PROC		; std::_Xout_of_range
EXTRN	__imp__CoCreateInstance@20:PROC
EXTRN	??_Eerror_category@std@@UAEPAXI@Z:PROC		; std::error_category::`vector deleting destructor'
EXTRN	?_Syserror_map@std@@YAPBDH@Z:PROC		; std::_Syserror_map
EXTRN	?_Winerror_map@std@@YAPBDH@Z:PROC		; std::_Winerror_map
EXTRN	??_E_Generic_error_category@std@@UAEPAXI@Z:PROC	; std::_Generic_error_category::`vector deleting destructor'
EXTRN	??_E_Iostream_error_category@std@@UAEPAXI@Z:PROC ; std::_Iostream_error_category::`vector deleting destructor'
EXTRN	??_E_System_error_category@std@@UAEPAXI@Z:PROC	; std::_System_error_category::`vector deleting destructor'
EXTRN	??1C_Hash@@QAE@XZ:PROC				; C_Hash::~C_Hash
EXTRN	?Cleanup@C_Hash@@QAEXXZ:PROC			; C_Hash::Cleanup
EXTRN	?GetHeight@C_Font@@QAEHJ@Z:PROC			; C_Font::GetHeight
EXTRN	?StrWidth@C_Font@@QAEHJPADH@Z:PROC		; C_Font::StrWidth
EXTRN	?PlaySoundA@C_Sound@@QAEHPAVSOUND_RES@@@Z:PROC	; C_Sound::PlaySoundA
EXTRN	?Draw@O_Output@@QAEXPAVSCREEN@@PAUUI95_RECT@@@Z:PROC ; O_Output::Draw
EXTRN	?Cleanup@O_Output@@QAEXXZ:PROC			; O_Output::Cleanup
EXTRN	?SetInfo@O_Output@@QAEXXZ:PROC			; O_Output::SetInfo
EXTRN	?SetText@O_Output@@QAEXPAD@Z:PROC		; O_Output::SetText
EXTRN	?SetTextWidth@O_Output@@QAEXJ@Z:PROC		; O_Output::SetTextWidth
EXTRN	?GetUserNumber@C_Base@@QAEJJ@Z:PROC		; C_Base::GetUserNumber
EXTRN	??_EC_Base@@UAEPAXI@Z:PROC			; C_Base::`vector deleting destructor'
EXTRN	??0C_Control@@QAE@XZ:PROC			; C_Control::C_Control
EXTRN	??0C_Control@@QAE@PAPAD@Z:PROC			; C_Control::C_Control
EXTRN	??0C_Control@@QAE@PAU_iobuf@@@Z:PROC		; C_Control::C_Control
EXTRN	?MouseOver@C_Control@@UAEHJJPAVC_Base@@@Z:PROC	; C_Control::MouseOver
EXTRN	?SetSound@C_Control@@UAEXJF@Z:PROC		; C_Control::SetSound
EXTRN	?HighLite@C_Control@@UAEXPAVSCREEN@@PAUUI95_RECT@@@Z:PROC ; C_Control::HighLite
EXTRN	?GetSound@C_Control@@UAEPAVSOUND_RES@@F@Z:PROC	; C_Control::GetSound
EXTRN	??_EC_Control@@UAEPAXI@Z:PROC			; C_Control::`vector deleting destructor'
EXTRN	?CreateItem@C_TreeList@@QAEPAVTREELIST@@JJPAVC_Base@@@Z:PROC ; C_TreeList::CreateItem
EXTRN	?AddItem@C_TreeList@@QAEHPAVTREELIST@@0@Z:PROC	; C_TreeList::AddItem
EXTRN	?DeleteBranch@C_TreeList@@QAEXPAVTREELIST@@@Z:PROC ; C_TreeList::DeleteBranch
EXTRN	?RecalcSize@C_TreeList@@QAEXXZ:PROC		; C_TreeList::RecalcSize
EXTRN	?ReorderBranch@C_TreeList@@QAEXPAVTREELIST@@@Z:PROC ; C_TreeList::ReorderBranch
EXTRN	?SetUpdateRect@C_Window@@QAEXJJJJJJ@Z:PROC	; C_Window::SetUpdateRect
EXTRN	?RefreshClient@C_Window@@QAEXJ@Z:PROC		; C_Window::RefreshClient
EXTRN	?FindControl@C_Window@@QAEPAVC_Base@@J@Z:PROC	; C_Window::FindControl
EXTRN	?FindWindowA@C_Handler@@QAEPAVC_Window@@J@Z:PROC ; C_Handler::FindWindowA
EXTRN	__imp__SysAllocString@4:PROC
EXTRN	__imp__SysFreeString@4:PROC
EXTRN	__imp__SysStringLen@4:PROC
EXTRN	__imp__SysStringByteLen@4:PROC
EXTRN	__imp__SysAllocStringByteLen@8:PROC
EXTRN	__imp__OleRun@4:PROC
EXTRN	?_com_issue_error@@YGXJ@Z:PROC			; _com_issue_error
EXTRN	?ConvertStringToBSTR@_com_util@@YGPA_WPBD@Z:PROC ; _com_util::ConvertStringToBSTR
EXTRN	?ConvertBSTRToString@_com_util@@YGPADPA_W@Z:PROC ; _com_util::ConvertBSTRToString
EXTRN	?_com_issue_errorex@@YGXJPAUIUnknown@@ABU_GUID@@@Z:PROC ; _com_issue_errorex
EXTRN	??_E_com_error@@UAEPAXI@Z:PROC			; _com_error::`vector deleting destructor'
EXTRN	?CheckHR@@YAXJ@Z:PROC				; CheckHR
EXTRN	?CloseWindowCB@@YAXJFPAVC_Base@@@Z:PROC		; CloseWindowCB
EXTRN	?Phone_Connect_CB@@YAXJFPAVC_Base@@@Z:PROC	; Phone_Connect_CB
EXTRN	??_E?$CComObject@VCGNetUpdater@@@ATL@@UAEPAXI@Z:PROC ; ATL::CComObject<CGNetUpdater>::`vector deleting destructor'
EXTRN	??_EGNetUpdater@@UAEPAXI@Z:PROC			; GNetUpdater::`vector deleting destructor'
EXTRN	??_EC_ServerItem@@UAEPAXI@Z:PROC		; C_ServerItem::`vector deleting destructor'
EXTRN	@__security_check_cookie@4:PROC
EXTRN	__CxxThrowException@8:PROC
EXTRN	___CxxFrameHandler3:PROC
EXTRN	??_7type_info@@6B@:QWORD			; type_info::`vftable'
EXTRN	?gFontList@@3PAVC_Font@@A:DWORD			; gFontList
EXTRN	?gSoundMgr@@3PAVC_Sound@@A:DWORD		; gSoundMgr
EXTRN	_IID_IGameEvents:BYTE
EXTRN	_IID_IRemoteMasterServerEvents:BYTE
EXTRN	?gMainHandler@@3PAVC_Handler@@A:DWORD		; gMainHandler
EXTRN	?g_strMasterServerName@@3PADA:BYTE		; g_strMasterServerName
EXTRN	?MajorVersion@@3HA:DWORD			; MajorVersion
EXTRN	?MinorVersion@@3HA:DWORD			; MinorVersion
EXTRN	?gLangIDNum@@3HA:DWORD				; gLangIDNum
EXTRN	?BuildNumber@@3HA:DWORD				; BuildNumber
EXTRN	___security_cookie:DWORD
EXTRN	__fltused:DWORD
_BSS	SEGMENT
_piecewise_construct DB 01H DUP (?)
	ALIGN	4

_allocator_arg DB 01H DUP (?)
_BSS	ENDS
;	COMDAT ?_Generic_object@?$_Error_objects@H@std@@2V_Generic_error_category@2@A
_BSS	SEGMENT
?_Generic_object@?$_Error_objects@H@std@@2V_Generic_error_category@2@A DD 01H DUP (?) ; std::_Error_objects<int>::_Generic_object
_BSS	ENDS
;	COMDAT ?_Iostream_object@?$_Error_objects@H@std@@2V_Iostream_error_category@2@A
_BSS	SEGMENT
?_Iostream_object@?$_Error_objects@H@std@@2V_Iostream_error_category@2@A DD 01H DUP (?) ; std::_Error_objects<int>::_Iostream_object
_BSS	ENDS
;	COMDAT ?_System_object@?$_Error_objects@H@std@@2V_System_error_category@2@A
_BSS	SEGMENT
?_System_object@?$_Error_objects@H@std@@2V_System_error_category@2@A DD 01H DUP (?) ; std::_Error_objects<int>::_System_object
_BSS	ENDS
;	COMDAT ?id@?$num_put@DV?$back_insert_iterator@V?$basic_string@DU?$char_traits@D@std@@V?$allocator@D@2@@std@@@std@@@std@@2V0locale@2@A
_BSS	SEGMENT
?id@?$num_put@DV?$back_insert_iterator@V?$basic_string@DU?$char_traits@D@std@@V?$allocator@D@2@@std@@@std@@@std@@2V0locale@2@A DD 01H DUP (?) ; std::num_put<char,std::back_insert_iterator<std::basic_string<char,std::char_traits<char>,std::allocator<char> > > >::id
_BSS	ENDS
;	COMDAT ?id@?$num_put@_WV?$back_insert_iterator@V?$basic_string@_WU?$char_traits@_W@std@@V?$allocator@_W@2@@std@@@std@@@std@@2V0locale@2@A
_BSS	SEGMENT
?id@?$num_put@_WV?$back_insert_iterator@V?$basic_string@_WU?$char_traits@_W@std@@V?$allocator@_W@2@@std@@@std@@@std@@2V0locale@2@A DD 01H DUP (?) ; std::num_put<wchar_t,std::back_insert_iterator<std::basic_string<wchar_t,std::char_traits<wchar_t>,std::allocator<wchar_t> > > >::id
_BSS	ENDS
_BSS	SEGMENT
	ALIGN	4

_m_arrGames DB	0cH DUP (?)
_m_pWnd	DD	01H DUP (?)
_m_pWndStatus DD 01H DUP (?)
_BSS	ENDS
;	COMDAT ?bstrCA@?4??FilterGame@@YA_NPAUIGame@@@Z@4V_bstr_t@@B
_BSS	SEGMENT
?bstrCA@?4??FilterGame@@YA_NPAUIGame@@@Z@4V_bstr_t@@B DD 01H DUP (?) ; `FilterGame'::`5'::bstrCA
_BSS	ENDS
;	COMDAT ?$S1@?4??FilterGame@@YA_NPAUIGame@@@Z@4IA
_BSS	SEGMENT
?$S1@?4??FilterGame@@YA_NPAUIGame@@@Z@4IA DD 01H DUP (?) ; `FilterGame'::`5'::$S1
_BSS	ENDS
;	COMDAT ?bstrTE@?5??FilterGame@@YA_NPAUIGame@@@Z@4V_bstr_t@@B
_BSS	SEGMENT
?bstrTE@?5??FilterGame@@YA_NPAUIGame@@@Z@4V_bstr_t@@B DD 01H DUP (?) ; `FilterGame'::`6'::bstrTE
_BSS	ENDS
;	COMDAT ?bstrDF@?6??FilterGame@@YA_NPAUIGame@@@Z@4V_bstr_t@@B
_BSS	SEGMENT
?bstrDF@?6??FilterGame@@YA_NPAUIGame@@@Z@4V_bstr_t@@B DD 01H DUP (?) ; `FilterGame'::`7'::bstrDF
_BSS	ENDS
;	COMDAT ?id@?$numpunct@D@std@@2V0locale@2@A
_BSS	SEGMENT
?id@?$numpunct@D@std@@2V0locale@2@A DD 01H DUP (?)	; std::numpunct<char>::id
_BSS	ENDS
;	COMDAT ?id@?$numpunct@_W@std@@2V0locale@2@A
_BSS	SEGMENT
?id@?$numpunct@_W@std@@2V0locale@2@A DD 01H DUP (?)	; std::numpunct<wchar_t>::id
_BSS	ENDS
CRT$XCU	SEGMENT
_piecewise_construct$initializer$ DD FLAT:??__Epiecewise_construct@std@@YAXXZ
CRT$XCU	ENDS
;	COMDAT __real@42c80000
CONST	SEGMENT
__real@42c80000 DD 042c80000r			; 100
CONST	ENDS
;	COMDAT ??_R1A@?0A@EA@C_ServerItem@@8
rdata$r	SEGMENT
??_R1A@?0A@EA@C_ServerItem@@8 DD FLAT:??_R0?AVC_ServerItem@@@8 ; C_ServerItem::`RTTI Base Class Descriptor at (0,-1,0,64)'
	DD	02H
	DD	00H
	DD	0ffffffffH
	DD	00H
	DD	040H
	DD	FLAT:??_R3C_ServerItem@@8
rdata$r	ENDS
;	COMDAT ??_R2C_ServerItem@@8
rdata$r	SEGMENT
??_R2C_ServerItem@@8 DD FLAT:??_R1A@?0A@EA@C_ServerItem@@8 ; C_ServerItem::`RTTI Base Class Array'
	DD	FLAT:??_R1A@?0A@EA@C_Control@@8
	DD	FLAT:??_R1A@?0A@EA@C_Base@@8
rdata$r	ENDS
;	COMDAT ??_R3C_ServerItem@@8
rdata$r	SEGMENT
??_R3C_ServerItem@@8 DD 00H				; C_ServerItem::`RTTI Class Hierarchy Descriptor'
	DD	00H
	DD	03H
	DD	FLAT:??_R2C_ServerItem@@8
rdata$r	ENDS
;	COMDAT ??_R0?AVC_ServerItem@@@8
_DATA	SEGMENT
??_R0?AVC_ServerItem@@@8 DD FLAT:??_7type_info@@6B@	; C_ServerItem `RTTI Type Descriptor'
	DD	00H
	DB	'.?AVC_ServerItem@@', 00H
_DATA	ENDS
;	COMDAT ??_R4C_ServerItem@@6B@
rdata$r	SEGMENT
??_R4C_ServerItem@@6B@ DD 00H				; C_ServerItem::`RTTI Complete Object Locator'
	DD	00H
	DD	00H
	DD	FLAT:??_R0?AVC_ServerItem@@@8
	DD	FLAT:??_R3C_ServerItem@@8
rdata$r	ENDS
;	COMDAT ??_R4?$CComObject@VCGNetUpdater@@@ATL@@6BIRemoteMasterServerEvents@@@
rdata$r	SEGMENT
??_R4?$CComObject@VCGNetUpdater@@@ATL@@6BIRemoteMasterServerEvents@@@ DD 00H ; ATL::CComObject<CGNetUpdater>::`RTTI Complete Object Locator'
	DD	04H
	DD	00H
	DD	FLAT:??_R0?AV?$CComObject@VCGNetUpdater@@@ATL@@@8
	DD	FLAT:??_R3?$CComObject@VCGNetUpdater@@@ATL@@8
rdata$r	ENDS
;	COMDAT ??_R4?$CComObject@VCGNetUpdater@@@ATL@@6BIGameEvents@@@
rdata$r	SEGMENT
??_R4?$CComObject@VCGNetUpdater@@@ATL@@6BIGameEvents@@@ DD 00H ; ATL::CComObject<CGNetUpdater>::`RTTI Complete Object Locator'
	DD	00H
	DD	00H
	DD	FLAT:??_R0?AV?$CComObject@VCGNetUpdater@@@ATL@@@8
	DD	FLAT:??_R3?$CComObject@VCGNetUpdater@@@ATL@@8
rdata$r	ENDS
;	COMDAT ??_R4GNetUpdater@@6BIRemoteMasterServerEvents@@@
rdata$r	SEGMENT
??_R4GNetUpdater@@6BIRemoteMasterServerEvents@@@ DD 00H	; GNetUpdater::`RTTI Complete Object Locator'
	DD	04H
	DD	00H
	DD	FLAT:??_R0?AVGNetUpdater@@@8
	DD	FLAT:??_R3GNetUpdater@@8
rdata$r	ENDS
;	COMDAT ??_R2?$CComObject@VCGNetUpdater@@@ATL@@8
rdata$r	SEGMENT
??_R2?$CComObject@VCGNetUpdater@@@ATL@@8 DD FLAT:??_R1A@?0A@EA@?$CComObject@VCGNetUpdater@@@ATL@@8 ; ATL::CComObject<CGNetUpdater>::`RTTI Base Class Array'
	DD	FLAT:??_R1A@?0A@EA@CGNetUpdater@@8
	DD	FLAT:??_R17?0A@EA@?$CComObjectRootEx@VCComMultiThreadModel@ATL@@@ATL@@8
	DD	FLAT:??_R17?0A@EA@CComObjectRootBase@ATL@@8
	DD	FLAT:??_R1A@?0A@EA@IGameEvents@@8
	DD	FLAT:??_R1A@?0A@EC@IUnknown@@8
	DD	FLAT:??_R13?0A@EA@IRemoteMasterServerEvents@@8
	DD	FLAT:??_R13?0A@EC@IUnknown@@8
rdata$r	ENDS
;	COMDAT ??_R3?$CComObject@VCGNetUpdater@@@ATL@@8
rdata$r	SEGMENT
??_R3?$CComObject@VCGNetUpdater@@@ATL@@8 DD 00H		; ATL::CComObject<CGNetUpdater>::`RTTI Class Hierarchy Descriptor'
	DD	01H
	DD	08H
	DD	FLAT:??_R2?$CComObject@VCGNetUpdater@@@ATL@@8
rdata$r	ENDS
;	COMDAT ??_R0?AV?$CComObject@VCGNetUpdater@@@ATL@@@8
_DATA	SEGMENT
??_R0?AV?$CComObject@VCGNetUpdater@@@ATL@@@8 DD FLAT:??_7type_info@@6B@ ; ATL::CComObject<CGNetUpdater> `RTTI Type Descriptor'
	DD	00H
	DB	'.?AV?$CComObject@VCGNetUpdater@@@ATL@@', 00H
_DATA	ENDS
;	COMDAT ??_R1A@?0A@EA@?$CComObject@VCGNetUpdater@@@ATL@@8
rdata$r	SEGMENT
??_R1A@?0A@EA@?$CComObject@VCGNetUpdater@@@ATL@@8 DD FLAT:??_R0?AV?$CComObject@VCGNetUpdater@@@ATL@@@8 ; ATL::CComObject<CGNetUpdater>::`RTTI Base Class Descriptor at (0,-1,0,64)'
	DD	07H
	DD	00H
	DD	0ffffffffH
	DD	00H
	DD	040H
	DD	FLAT:??_R3?$CComObject@VCGNetUpdater@@@ATL@@8
rdata$r	ENDS
;	COMDAT ??_R1A@?0A@EA@GNetUpdater@@8
rdata$r	SEGMENT
??_R1A@?0A@EA@GNetUpdater@@8 DD FLAT:??_R0?AVGNetUpdater@@@8 ; GNetUpdater::`RTTI Base Class Descriptor at (0,-1,0,64)'
	DD	08H
	DD	00H
	DD	0ffffffffH
	DD	00H
	DD	040H
	DD	FLAT:??_R3GNetUpdater@@8
rdata$r	ENDS
;	COMDAT ??_R2GNetUpdater@@8
rdata$r	SEGMENT
??_R2GNetUpdater@@8 DD FLAT:??_R1A@?0A@EA@GNetUpdater@@8 ; GNetUpdater::`RTTI Base Class Array'
	DD	FLAT:??_R1A@?0A@EA@?$CComObject@VCGNetUpdater@@@ATL@@8
	DD	FLAT:??_R1A@?0A@EA@CGNetUpdater@@8
	DD	FLAT:??_R17?0A@EA@?$CComObjectRootEx@VCComMultiThreadModel@ATL@@@ATL@@8
	DD	FLAT:??_R17?0A@EA@CComObjectRootBase@ATL@@8
	DD	FLAT:??_R1A@?0A@EA@IGameEvents@@8
	DD	FLAT:??_R1A@?0A@EC@IUnknown@@8
	DD	FLAT:??_R13?0A@EA@IRemoteMasterServerEvents@@8
	DD	FLAT:??_R13?0A@EC@IUnknown@@8
rdata$r	ENDS
;	COMDAT ??_R3GNetUpdater@@8
rdata$r	SEGMENT
??_R3GNetUpdater@@8 DD 00H				; GNetUpdater::`RTTI Class Hierarchy Descriptor'
	DD	01H
	DD	09H
	DD	FLAT:??_R2GNetUpdater@@8
rdata$r	ENDS
;	COMDAT ??_R0?AVGNetUpdater@@@8
_DATA	SEGMENT
??_R0?AVGNetUpdater@@@8 DD FLAT:??_7type_info@@6B@	; GNetUpdater `RTTI Type Descriptor'
	DD	00H
	DB	'.?AVGNetUpdater@@', 00H
_DATA	ENDS
;	COMDAT ??_R4GNetUpdater@@6BIGameEvents@@@
rdata$r	SEGMENT
??_R4GNetUpdater@@6BIGameEvents@@@ DD 00H		; GNetUpdater::`RTTI Complete Object Locator'
	DD	00H
	DD	00H
	DD	FLAT:??_R0?AVGNetUpdater@@@8
	DD	FLAT:??_R3GNetUpdater@@8
rdata$r	ENDS
;	COMDAT ??_R4CGNetUpdater@@6BIRemoteMasterServerEvents@@@
rdata$r	SEGMENT
??_R4CGNetUpdater@@6BIRemoteMasterServerEvents@@@ DD 00H ; CGNetUpdater::`RTTI Complete Object Locator'
	DD	04H
	DD	00H
	DD	FLAT:??_R0?AVCGNetUpdater@@@8
	DD	FLAT:??_R3CGNetUpdater@@8
rdata$r	ENDS
;	COMDAT ??_R13?0A@EC@IUnknown@@8
rdata$r	SEGMENT
??_R13?0A@EC@IUnknown@@8 DD FLAT:??_R0?AUIUnknown@@@8	; IUnknown::`RTTI Base Class Descriptor at (4,-1,0,66)'
	DD	00H
	DD	04H
	DD	0ffffffffH
	DD	00H
	DD	042H
	DD	FLAT:??_R3IUnknown@@8
rdata$r	ENDS
;	COMDAT ??_R13?0A@EA@IRemoteMasterServerEvents@@8
rdata$r	SEGMENT
??_R13?0A@EA@IRemoteMasterServerEvents@@8 DD FLAT:??_R0?AUIRemoteMasterServerEvents@@@8 ; IRemoteMasterServerEvents::`RTTI Base Class Descriptor at (4,-1,0,64)'
	DD	01H
	DD	04H
	DD	0ffffffffH
	DD	00H
	DD	040H
	DD	FLAT:??_R3IRemoteMasterServerEvents@@8
rdata$r	ENDS
;	COMDAT ??_R1A@?0A@EC@IUnknown@@8
rdata$r	SEGMENT
??_R1A@?0A@EC@IUnknown@@8 DD FLAT:??_R0?AUIUnknown@@@8	; IUnknown::`RTTI Base Class Descriptor at (0,-1,0,66)'
	DD	00H
	DD	00H
	DD	0ffffffffH
	DD	00H
	DD	042H
	DD	FLAT:??_R3IUnknown@@8
rdata$r	ENDS
;	COMDAT ??_R17?0A@EA@CComObjectRootBase@ATL@@8
rdata$r	SEGMENT
??_R17?0A@EA@CComObjectRootBase@ATL@@8 DD FLAT:??_R0?AVCComObjectRootBase@ATL@@@8 ; ATL::CComObjectRootBase::`RTTI Base Class Descriptor at (8,-1,0,64)'
	DD	00H
	DD	08H
	DD	0ffffffffH
	DD	00H
	DD	040H
	DD	FLAT:??_R3CComObjectRootBase@ATL@@8
rdata$r	ENDS
;	COMDAT ??_R17?0A@EA@?$CComObjectRootEx@VCComMultiThreadModel@ATL@@@ATL@@8
rdata$r	SEGMENT
??_R17?0A@EA@?$CComObjectRootEx@VCComMultiThreadModel@ATL@@@ATL@@8 DD FLAT:??_R0?AV?$CComObjectRootEx@VCComMultiThreadModel@ATL@@@ATL@@@8 ; ATL::CComObjectRootEx<ATL::CComMultiThreadModel>::`RTTI Base Class Descriptor at (8,-1,0,64)'
	DD	01H
	DD	08H
	DD	0ffffffffH
	DD	00H
	DD	040H
	DD	FLAT:??_R3?$CComObjectRootEx@VCComMultiThreadModel@ATL@@@ATL@@8
rdata$r	ENDS
;	COMDAT ??_R1A@?0A@EA@CGNetUpdater@@8
rdata$r	SEGMENT
??_R1A@?0A@EA@CGNetUpdater@@8 DD FLAT:??_R0?AVCGNetUpdater@@@8 ; CGNetUpdater::`RTTI Base Class Descriptor at (0,-1,0,64)'
	DD	06H
	DD	00H
	DD	0ffffffffH
	DD	00H
	DD	040H
	DD	FLAT:??_R3CGNetUpdater@@8
rdata$r	ENDS
;	COMDAT ??_R2CGNetUpdater@@8
rdata$r	SEGMENT
??_R2CGNetUpdater@@8 DD FLAT:??_R1A@?0A@EA@CGNetUpdater@@8 ; CGNetUpdater::`RTTI Base Class Array'
	DD	FLAT:??_R17?0A@EA@?$CComObjectRootEx@VCComMultiThreadModel@ATL@@@ATL@@8
	DD	FLAT:??_R17?0A@EA@CComObjectRootBase@ATL@@8
	DD	FLAT:??_R1A@?0A@EA@IGameEvents@@8
	DD	FLAT:??_R1A@?0A@EC@IUnknown@@8
	DD	FLAT:??_R13?0A@EA@IRemoteMasterServerEvents@@8
	DD	FLAT:??_R13?0A@EC@IUnknown@@8
rdata$r	ENDS
;	COMDAT ??_R3CGNetUpdater@@8
rdata$r	SEGMENT
??_R3CGNetUpdater@@8 DD 00H				; CGNetUpdater::`RTTI Class Hierarchy Descriptor'
	DD	05H
	DD	07H
	DD	FLAT:??_R2CGNetUpdater@@8
rdata$r	ENDS
;	COMDAT ??_R0?AVCGNetUpdater@@@8
_DATA	SEGMENT
??_R0?AVCGNetUpdater@@@8 DD FLAT:??_7type_info@@6B@	; CGNetUpdater `RTTI Type Descriptor'
	DD	00H
	DB	'.?AVCGNetUpdater@@', 00H
_DATA	ENDS
;	COMDAT ??_R4CGNetUpdater@@6BIGameEvents@@@
rdata$r	SEGMENT
??_R4CGNetUpdater@@6BIGameEvents@@@ DD 00H		; CGNetUpdater::`RTTI Complete Object Locator'
	DD	00H
	DD	00H
	DD	FLAT:??_R0?AVCGNetUpdater@@@8
	DD	FLAT:??_R3CGNetUpdater@@8
rdata$r	ENDS
;	COMDAT ??_R1A@?0A@EA@IRemoteMasterServerEvents@@8
rdata$r	SEGMENT
??_R1A@?0A@EA@IRemoteMasterServerEvents@@8 DD FLAT:??_R0?AUIRemoteMasterServerEvents@@@8 ; IRemoteMasterServerEvents::`RTTI Base Class Descriptor at (0,-1,0,64)'
	DD	01H
	DD	00H
	DD	0ffffffffH
	DD	00H
	DD	040H
	DD	FLAT:??_R3IRemoteMasterServerEvents@@8
rdata$r	ENDS
;	COMDAT ??_R2IRemoteMasterServerEvents@@8
rdata$r	SEGMENT
??_R2IRemoteMasterServerEvents@@8 DD FLAT:??_R1A@?0A@EA@IRemoteMasterServerEvents@@8 ; IRemoteMasterServerEvents::`RTTI Base Class Array'
	DD	FLAT:??_R1A@?0A@EA@IUnknown@@8
rdata$r	ENDS
;	COMDAT ??_R3IRemoteMasterServerEvents@@8
rdata$r	SEGMENT
??_R3IRemoteMasterServerEvents@@8 DD 00H		; IRemoteMasterServerEvents::`RTTI Class Hierarchy Descriptor'
	DD	00H
	DD	02H
	DD	FLAT:??_R2IRemoteMasterServerEvents@@8
rdata$r	ENDS
;	COMDAT ??_R0?AUIRemoteMasterServerEvents@@@8
_DATA	SEGMENT
??_R0?AUIRemoteMasterServerEvents@@@8 DD FLAT:??_7type_info@@6B@ ; IRemoteMasterServerEvents `RTTI Type Descriptor'
	DD	00H
	DB	'.?AUIRemoteMasterServerEvents@@', 00H
_DATA	ENDS
;	COMDAT ??_R1A@?0A@EA@IGameEvents@@8
rdata$r	SEGMENT
??_R1A@?0A@EA@IGameEvents@@8 DD FLAT:??_R0?AUIGameEvents@@@8 ; IGameEvents::`RTTI Base Class Descriptor at (0,-1,0,64)'
	DD	01H
	DD	00H
	DD	0ffffffffH
	DD	00H
	DD	040H
	DD	FLAT:??_R3IGameEvents@@8
rdata$r	ENDS
;	COMDAT ??_R2IGameEvents@@8
rdata$r	SEGMENT
??_R2IGameEvents@@8 DD FLAT:??_R1A@?0A@EA@IGameEvents@@8 ; IGameEvents::`RTTI Base Class Array'
	DD	FLAT:??_R1A@?0A@EA@IUnknown@@8
rdata$r	ENDS
;	COMDAT ??_R3IGameEvents@@8
rdata$r	SEGMENT
??_R3IGameEvents@@8 DD 00H				; IGameEvents::`RTTI Class Hierarchy Descriptor'
	DD	00H
	DD	02H
	DD	FLAT:??_R2IGameEvents@@8
rdata$r	ENDS
;	COMDAT ??_R0?AUIGameEvents@@@8
_DATA	SEGMENT
??_R0?AUIGameEvents@@@8 DD FLAT:??_7type_info@@6B@	; IGameEvents `RTTI Type Descriptor'
	DD	00H
	DB	'.?AUIGameEvents@@', 00H
_DATA	ENDS
;	COMDAT ??_R2CComObjectRootBase@ATL@@8
rdata$r	SEGMENT
??_R2CComObjectRootBase@ATL@@8 DD FLAT:??_R1A@?0A@EA@CComObjectRootBase@ATL@@8 ; ATL::CComObjectRootBase::`RTTI Base Class Array'
rdata$r	ENDS
;	COMDAT ??_R3CComObjectRootBase@ATL@@8
rdata$r	SEGMENT
??_R3CComObjectRootBase@ATL@@8 DD 00H			; ATL::CComObjectRootBase::`RTTI Class Hierarchy Descriptor'
	DD	00H
	DD	01H
	DD	FLAT:??_R2CComObjectRootBase@ATL@@8
rdata$r	ENDS
;	COMDAT ??_R0?AVCComObjectRootBase@ATL@@@8
_DATA	SEGMENT
??_R0?AVCComObjectRootBase@ATL@@@8 DD FLAT:??_7type_info@@6B@ ; ATL::CComObjectRootBase `RTTI Type Descriptor'
	DD	00H
	DB	'.?AVCComObjectRootBase@ATL@@', 00H
_DATA	ENDS
;	COMDAT ??_R1A@?0A@EA@CComObjectRootBase@ATL@@8
rdata$r	SEGMENT
??_R1A@?0A@EA@CComObjectRootBase@ATL@@8 DD FLAT:??_R0?AVCComObjectRootBase@ATL@@@8 ; ATL::CComObjectRootBase::`RTTI Base Class Descriptor at (0,-1,0,64)'
	DD	00H
	DD	00H
	DD	0ffffffffH
	DD	00H
	DD	040H
	DD	FLAT:??_R3CComObjectRootBase@ATL@@8
rdata$r	ENDS
;	COMDAT ??_R1A@?0A@EA@?$CComObjectRootEx@VCComMultiThreadModel@ATL@@@ATL@@8
rdata$r	SEGMENT
??_R1A@?0A@EA@?$CComObjectRootEx@VCComMultiThreadModel@ATL@@@ATL@@8 DD FLAT:??_R0?AV?$CComObjectRootEx@VCComMultiThreadModel@ATL@@@ATL@@@8 ; ATL::CComObjectRootEx<ATL::CComMultiThreadModel>::`RTTI Base Class Descriptor at (0,-1,0,64)'
	DD	01H
	DD	00H
	DD	0ffffffffH
	DD	00H
	DD	040H
	DD	FLAT:??_R3?$CComObjectRootEx@VCComMultiThreadModel@ATL@@@ATL@@8
rdata$r	ENDS
;	COMDAT ??_R2?$CComObjectRootEx@VCComMultiThreadModel@ATL@@@ATL@@8
rdata$r	SEGMENT
??_R2?$CComObjectRootEx@VCComMultiThreadModel@ATL@@@ATL@@8 DD FLAT:??_R1A@?0A@EA@?$CComObjectRootEx@VCComMultiThreadModel@ATL@@@ATL@@8 ; ATL::CComObjectRootEx<ATL::CComMultiThreadModel>::`RTTI Base Class Array'
	DD	FLAT:??_R1A@?0A@EA@CComObjectRootBase@ATL@@8
rdata$r	ENDS
;	COMDAT ??_R3?$CComObjectRootEx@VCComMultiThreadModel@ATL@@@ATL@@8
rdata$r	SEGMENT
??_R3?$CComObjectRootEx@VCComMultiThreadModel@ATL@@@ATL@@8 DD 00H ; ATL::CComObjectRootEx<ATL::CComMultiThreadModel>::`RTTI Class Hierarchy Descriptor'
	DD	00H
	DD	02H
	DD	FLAT:??_R2?$CComObjectRootEx@VCComMultiThreadModel@ATL@@@ATL@@8
rdata$r	ENDS
;	COMDAT ??_R0?AV?$CComObjectRootEx@VCComMultiThreadModel@ATL@@@ATL@@@8
_DATA	SEGMENT
??_R0?AV?$CComObjectRootEx@VCComMultiThreadModel@ATL@@@ATL@@@8 DD FLAT:??_7type_info@@6B@ ; ATL::CComObjectRootEx<ATL::CComMultiThreadModel> `RTTI Type Descriptor'
	DD	00H
	DB	'.?AV?$CComObjectRootEx@VCComMultiThreadModel@ATL@@@ATL@@'
	DB	00H
_DATA	ENDS
;	COMDAT ??_R1A@?0A@EA@_com_error@@8
rdata$r	SEGMENT
??_R1A@?0A@EA@_com_error@@8 DD FLAT:??_R0?AV_com_error@@@8 ; _com_error::`RTTI Base Class Descriptor at (0,-1,0,64)'
	DD	00H
	DD	00H
	DD	0ffffffffH
	DD	00H
	DD	040H
	DD	FLAT:??_R3_com_error@@8
rdata$r	ENDS
;	COMDAT ??_R2_com_error@@8
rdata$r	SEGMENT
??_R2_com_error@@8 DD FLAT:??_R1A@?0A@EA@_com_error@@8	; _com_error::`RTTI Base Class Array'
rdata$r	ENDS
;	COMDAT ??_R3_com_error@@8
rdata$r	SEGMENT
??_R3_com_error@@8 DD 00H				; _com_error::`RTTI Class Hierarchy Descriptor'
	DD	00H
	DD	01H
	DD	FLAT:??_R2_com_error@@8
rdata$r	ENDS
;	COMDAT ??_R4_com_error@@6B@
rdata$r	SEGMENT
??_R4_com_error@@6B@ DD 00H				; _com_error::`RTTI Complete Object Locator'
	DD	00H
	DD	00H
	DD	FLAT:??_R0?AV_com_error@@@8
	DD	FLAT:??_R3_com_error@@8
rdata$r	ENDS
;	COMDAT ??_R1A@?0A@EA@C_Control@@8
rdata$r	SEGMENT
??_R1A@?0A@EA@C_Control@@8 DD FLAT:??_R0?AVC_Control@@@8 ; C_Control::`RTTI Base Class Descriptor at (0,-1,0,64)'
	DD	01H
	DD	00H
	DD	0ffffffffH
	DD	00H
	DD	040H
	DD	FLAT:??_R3C_Control@@8
rdata$r	ENDS
;	COMDAT ??_R2C_Control@@8
rdata$r	SEGMENT
??_R2C_Control@@8 DD FLAT:??_R1A@?0A@EA@C_Control@@8	; C_Control::`RTTI Base Class Array'
	DD	FLAT:??_R1A@?0A@EA@C_Base@@8
rdata$r	ENDS
;	COMDAT ??_R3C_Control@@8
rdata$r	SEGMENT
??_R3C_Control@@8 DD 00H				; C_Control::`RTTI Class Hierarchy Descriptor'
	DD	00H
	DD	02H
	DD	FLAT:??_R2C_Control@@8
rdata$r	ENDS
;	COMDAT ??_R0?AVC_Control@@@8
_DATA	SEGMENT
??_R0?AVC_Control@@@8 DD FLAT:??_7type_info@@6B@	; C_Control `RTTI Type Descriptor'
	DD	00H
	DB	'.?AVC_Control@@', 00H
_DATA	ENDS
;	COMDAT ??_R4C_Control@@6B@
rdata$r	SEGMENT
??_R4C_Control@@6B@ DD 00H				; C_Control::`RTTI Complete Object Locator'
	DD	00H
	DD	00H
	DD	FLAT:??_R0?AVC_Control@@@8
	DD	FLAT:??_R3C_Control@@8
rdata$r	ENDS
;	COMDAT ??_R1A@?0A@EA@C_Base@@8
rdata$r	SEGMENT
??_R1A@?0A@EA@C_Base@@8 DD FLAT:??_R0?AVC_Base@@@8	; C_Base::`RTTI Base Class Descriptor at (0,-1,0,64)'
	DD	00H
	DD	00H
	DD	0ffffffffH
	DD	00H
	DD	040H
	DD	FLAT:??_R3C_Base@@8
rdata$r	ENDS
;	COMDAT ??_R2C_Base@@8
rdata$r	SEGMENT
??_R2C_Base@@8 DD FLAT:??_R1A@?0A@EA@C_Base@@8		; C_Base::`RTTI Base Class Array'
rdata$r	ENDS
;	COMDAT ??_R3C_Base@@8
rdata$r	SEGMENT
??_R3C_Base@@8 DD 00H					; C_Base::`RTTI Class Hierarchy Descriptor'
	DD	00H
	DD	01H
	DD	FLAT:??_R2C_Base@@8
rdata$r	ENDS
;	COMDAT ??_R0?AVC_Base@@@8
_DATA	SEGMENT
??_R0?AVC_Base@@@8 DD FLAT:??_7type_info@@6B@		; C_Base `RTTI Type Descriptor'
	DD	00H
	DB	'.?AVC_Base@@', 00H
_DATA	ENDS
;	COMDAT ??_R4C_Base@@6B@
rdata$r	SEGMENT
??_R4C_Base@@6B@ DD 00H					; C_Base::`RTTI Complete Object Locator'
	DD	00H
	DD	00H
	DD	FLAT:??_R0?AVC_Base@@@8
	DD	FLAT:??_R3C_Base@@8
rdata$r	ENDS
;	COMDAT ??_R1A@?0A@EA@_System_error_category@std@@8
rdata$r	SEGMENT
??_R1A@?0A@EA@_System_error_category@std@@8 DD FLAT:??_R0?AV_System_error_category@std@@@8 ; std::_System_error_category::`RTTI Base Class Descriptor at (0,-1,0,64)'
	DD	02H
	DD	00H
	DD	0ffffffffH
	DD	00H
	DD	040H
	DD	FLAT:??_R3_System_error_category@std@@8
rdata$r	ENDS
;	COMDAT ??_R2_System_error_category@std@@8
rdata$r	SEGMENT
??_R2_System_error_category@std@@8 DD FLAT:??_R1A@?0A@EA@_System_error_category@std@@8 ; std::_System_error_category::`RTTI Base Class Array'
	DD	FLAT:??_R1A@?0A@EA@_Generic_error_category@std@@8
	DD	FLAT:??_R1A@?0A@EA@error_category@std@@8
rdata$r	ENDS
;	COMDAT ??_R3_System_error_category@std@@8
rdata$r	SEGMENT
??_R3_System_error_category@std@@8 DD 00H		; std::_System_error_category::`RTTI Class Hierarchy Descriptor'
	DD	00H
	DD	03H
	DD	FLAT:??_R2_System_error_category@std@@8
rdata$r	ENDS
;	COMDAT ??_R0?AV_System_error_category@std@@@8
_DATA	SEGMENT
??_R0?AV_System_error_category@std@@@8 DD FLAT:??_7type_info@@6B@ ; std::_System_error_category `RTTI Type Descriptor'
	DD	00H
	DB	'.?AV_System_error_category@std@@', 00H
_DATA	ENDS
;	COMDAT ??_R4_System_error_category@std@@6B@
rdata$r	SEGMENT
??_R4_System_error_category@std@@6B@ DD 00H		; std::_System_error_category::`RTTI Complete Object Locator'
	DD	00H
	DD	00H
	DD	FLAT:??_R0?AV_System_error_category@std@@@8
	DD	FLAT:??_R3_System_error_category@std@@8
rdata$r	ENDS
;	COMDAT ??_R1A@?0A@EA@_Iostream_error_category@std@@8
rdata$r	SEGMENT
??_R1A@?0A@EA@_Iostream_error_category@std@@8 DD FLAT:??_R0?AV_Iostream_error_category@std@@@8 ; std::_Iostream_error_category::`RTTI Base Class Descriptor at (0,-1,0,64)'
	DD	02H
	DD	00H
	DD	0ffffffffH
	DD	00H
	DD	040H
	DD	FLAT:??_R3_Iostream_error_category@std@@8
rdata$r	ENDS
;	COMDAT ??_R2_Iostream_error_category@std@@8
rdata$r	SEGMENT
??_R2_Iostream_error_category@std@@8 DD FLAT:??_R1A@?0A@EA@_Iostream_error_category@std@@8 ; std::_Iostream_error_category::`RTTI Base Class Array'
	DD	FLAT:??_R1A@?0A@EA@_Generic_error_category@std@@8
	DD	FLAT:??_R1A@?0A@EA@error_category@std@@8
rdata$r	ENDS
;	COMDAT ??_R3_Iostream_error_category@std@@8
rdata$r	SEGMENT
??_R3_Iostream_error_category@std@@8 DD 00H		; std::_Iostream_error_category::`RTTI Class Hierarchy Descriptor'
	DD	00H
	DD	03H
	DD	FLAT:??_R2_Iostream_error_category@std@@8
rdata$r	ENDS
;	COMDAT ??_R0?AV_Iostream_error_category@std@@@8
_DATA	SEGMENT
??_R0?AV_Iostream_error_category@std@@@8 DD FLAT:??_7type_info@@6B@ ; std::_Iostream_error_category `RTTI Type Descriptor'
	DD	00H
	DB	'.?AV_Iostream_error_category@std@@', 00H
_DATA	ENDS
;	COMDAT ??_R4_Iostream_error_category@std@@6B@
rdata$r	SEGMENT
??_R4_Iostream_error_category@std@@6B@ DD 00H		; std::_Iostream_error_category::`RTTI Complete Object Locator'
	DD	00H
	DD	00H
	DD	FLAT:??_R0?AV_Iostream_error_category@std@@@8
	DD	FLAT:??_R3_Iostream_error_category@std@@8
rdata$r	ENDS
;	COMDAT ??_R1A@?0A@EA@_Generic_error_category@std@@8
rdata$r	SEGMENT
??_R1A@?0A@EA@_Generic_error_category@std@@8 DD FLAT:??_R0?AV_Generic_error_category@std@@@8 ; std::_Generic_error_category::`RTTI Base Class Descriptor at (0,-1,0,64)'
	DD	01H
	DD	00H
	DD	0ffffffffH
	DD	00H
	DD	040H
	DD	FLAT:??_R3_Generic_error_category@std@@8
rdata$r	ENDS
;	COMDAT ??_R2_Generic_error_category@std@@8
rdata$r	SEGMENT
??_R2_Generic_error_category@std@@8 DD FLAT:??_R1A@?0A@EA@_Generic_error_category@std@@8 ; std::_Generic_error_category::`RTTI Base Class Array'
	DD	FLAT:??_R1A@?0A@EA@error_category@std@@8
rdata$r	ENDS
;	COMDAT ??_R3_Generic_error_category@std@@8
rdata$r	SEGMENT
??_R3_Generic_error_category@std@@8 DD 00H		; std::_Generic_error_category::`RTTI Class Hierarchy Descriptor'
	DD	00H
	DD	02H
	DD	FLAT:??_R2_Generic_error_category@std@@8
rdata$r	ENDS
;	COMDAT ??_R0?AV_Generic_error_category@std@@@8
_DATA	SEGMENT
??_R0?AV_Generic_error_category@std@@@8 DD FLAT:??_7type_info@@6B@ ; std::_Generic_error_category `RTTI Type Descriptor'
	DD	00H
	DB	'.?AV_Generic_error_category@std@@', 00H
_DATA	ENDS
;	COMDAT ??_R4_Generic_error_category@std@@6B@
rdata$r	SEGMENT
??_R4_Generic_error_category@std@@6B@ DD 00H		; std::_Generic_error_category::`RTTI Complete Object Locator'
	DD	00H
	DD	00H
	DD	FLAT:??_R0?AV_Generic_error_category@std@@@8
	DD	FLAT:??_R3_Generic_error_category@std@@8
rdata$r	ENDS
;	COMDAT ??_R1A@?0A@EA@error_category@std@@8
rdata$r	SEGMENT
??_R1A@?0A@EA@error_category@std@@8 DD FLAT:??_R0?AVerror_category@std@@@8 ; std::error_category::`RTTI Base Class Descriptor at (0,-1,0,64)'
	DD	00H
	DD	00H
	DD	0ffffffffH
	DD	00H
	DD	040H
	DD	FLAT:??_R3error_category@std@@8
rdata$r	ENDS
;	COMDAT ??_R2error_category@std@@8
rdata$r	SEGMENT
??_R2error_category@std@@8 DD FLAT:??_R1A@?0A@EA@error_category@std@@8 ; std::error_category::`RTTI Base Class Array'
rdata$r	ENDS
;	COMDAT ??_R3error_category@std@@8
rdata$r	SEGMENT
??_R3error_category@std@@8 DD 00H			; std::error_category::`RTTI Class Hierarchy Descriptor'
	DD	00H
	DD	01H
	DD	FLAT:??_R2error_category@std@@8
rdata$r	ENDS
;	COMDAT ??_R0?AVerror_category@std@@@8
_DATA	SEGMENT
??_R0?AVerror_category@std@@@8 DD FLAT:??_7type_info@@6B@ ; std::error_category `RTTI Type Descriptor'
	DD	00H
	DB	'.?AVerror_category@std@@', 00H
_DATA	ENDS
;	COMDAT ??_R4error_category@std@@6B@
rdata$r	SEGMENT
??_R4error_category@std@@6B@ DD 00H			; std::error_category::`RTTI Complete Object Locator'
	DD	00H
	DD	00H
	DD	FLAT:??_R0?AVerror_category@std@@@8
	DD	FLAT:??_R3error_category@std@@8
rdata$r	ENDS
;	COMDAT ??_R1A@?0A@EA@IUnknown@@8
rdata$r	SEGMENT
??_R1A@?0A@EA@IUnknown@@8 DD FLAT:??_R0?AUIUnknown@@@8	; IUnknown::`RTTI Base Class Descriptor at (0,-1,0,64)'
	DD	00H
	DD	00H
	DD	0ffffffffH
	DD	00H
	DD	040H
	DD	FLAT:??_R3IUnknown@@8
rdata$r	ENDS
;	COMDAT ??_R2IUnknown@@8
rdata$r	SEGMENT
??_R2IUnknown@@8 DD FLAT:??_R1A@?0A@EA@IUnknown@@8	; IUnknown::`RTTI Base Class Array'
rdata$r	ENDS
;	COMDAT ??_R3IUnknown@@8
rdata$r	SEGMENT
??_R3IUnknown@@8 DD 00H					; IUnknown::`RTTI Class Hierarchy Descriptor'
	DD	00H
	DD	01H
	DD	FLAT:??_R2IUnknown@@8
rdata$r	ENDS
;	COMDAT ??_R0?AUIUnknown@@@8
_DATA	SEGMENT
??_R0?AUIUnknown@@@8 DD FLAT:??_7type_info@@6B@		; IUnknown `RTTI Type Descriptor'
	DD	00H
	DB	'.?AUIUnknown@@', 00H
_DATA	ENDS
;	COMDAT ??_C@_0BA@JFNIOLAK@string?5too?5long?$AA@
CONST	SEGMENT
??_C@_0BA@JFNIOLAK@string?5too?5long?$AA@ DB 'string too long', 00H ; `string'
CONST	ENDS
;	COMDAT ??_C@_0BD@OLBABOEK@vector?$DMT?$DO?5too?5long?$AA@
CONST	SEGMENT
??_C@_0BD@OLBABOEK@vector?$DMT?$DO?5too?5long?$AA@ DB 'vector<T> too long'
	DB	00H						; `string'
CONST	ENDS
;	COMDAT ??_C@_0BI@CFPLBAOH@invalid?5string?5position?$AA@
CONST	SEGMENT
??_C@_0BI@CFPLBAOH@invalid?5string?5position?$AA@ DB 'invalid string posi'
	DB	'tion', 00H					; `string'
CONST	ENDS
;	COMDAT ??_C@_0CI@LHGKFGHD@CGNetUpdater?3?3Refresh?5?9?5_com_err@
CONST	SEGMENT
??_C@_0CI@LHGKFGHD@CGNetUpdater?3?3Refresh?5?9?5_com_err@ DB 'CGNetUpdate'
	DB	'r::Refresh - _com_error 0x%X', 00H		; `string'
CONST	ENDS
;	COMDAT ??_C@_0CL@LLDBCDGC@CGNetUpdater?3?3UpdateGame?5?9?5_com_@
CONST	SEGMENT
??_C@_0CL@LLDBCDGC@CGNetUpdater?3?3UpdateGame?5?9?5_com_@ DB 'CGNetUpdate'
	DB	'r::UpdateGame - _com_error 0x%X', 00H	; `string'
CONST	ENDS
;	COMDAT ??_C@_07GDGMJMJJ@Falcon4?$AA@
CONST	SEGMENT
??_C@_07GDGMJMJJ@Falcon4?$AA@ DB 'Falcon4', 00H		; `string'
CONST	ENDS
;	COMDAT ??_C@_0BN@NBJLJDOH@Contacting?5master?5server?5?4?4?4?$AA@
CONST	SEGMENT
??_C@_0BN@NBJLJDOH@Contacting?5master?5server?5?4?4?4?$AA@ DB 'Contacting'
	DB	' master server ...', 00H			; `string'
CONST	ENDS
;	COMDAT ??_C@_07HFNBMNBH@?$CF2d?1?$CF2d?$AA@
CONST	SEGMENT
??_C@_07HFNBMNBH@?$CF2d?1?$CF2d?$AA@ DB '%2d/%2d', 00H	; `string'
CONST	ENDS
;	COMDAT ??_C@_03GLKEJMAA@?$CF4d?$AA@
CONST	SEGMENT
??_C@_03GLKEJMAA@?$CF4d?$AA@ DB '%4d', 00H		; `string'
CONST	ENDS
;	COMDAT ??_C@_0BK@EENOLLKJ@?$CF?41f?$CF?$CF?5?$CI?$CFd?5of?5?$CFd?5Servers?$CJ?$AA@
CONST	SEGMENT
??_C@_0BK@EENOLLKJ@?$CF?41f?$CF?$CF?5?$CI?$CFd?5of?5?$CFd?5Servers?$CJ?$AA@ DB '%'
	DB	'.1f%% (%d of %d Servers)', 00H		; `string'
CONST	ENDS
;	COMDAT ??_C@_0O@BMKHJNFD@Update?5failed?$AA@
CONST	SEGMENT
??_C@_0O@BMKHJNFD@Update?5failed?$AA@ DB 'Update failed', 00H ; `string'
CONST	ENDS
;	COMDAT ??_C@_0CD@CPCOMKHD@Failed?5to?5connect?5to?5master?5serv@
CONST	SEGMENT
??_C@_0CD@CPCOMKHD@Failed?5to?5connect?5to?5master?5serv@ DB 'Failed to c'
	DB	'onnect to master server', 00H		; `string'
CONST	ENDS
;	COMDAT ??_C@_0L@FEIOPENH@?$CFd?5Servers?$AA@
CONST	SEGMENT
??_C@_0L@FEIOPENH@?$CFd?5Servers?$AA@ DB '%d Servers', 00H ; `string'
CONST	ENDS
;	COMDAT ??_C@_0CI@CFGAOGGF@Connected?5?4?4?5getting?5server?5info@
CONST	SEGMENT
??_C@_0CI@CFGAOGGF@Connected?5?4?4?5getting?5server?5info@ DB 'Connected '
	DB	'.. getting server information', 00H		; `string'
CONST	ENDS
;	COMDAT ??_C@_0CA@NINGCFFI@UpdateDisplay?5?9?5_com_error?50x?$CFX?$AA@
CONST	SEGMENT
??_C@_0CA@NINGCFFI@UpdateDisplay?5?9?5_com_error?50x?$CFX?$AA@ DB 'Update'
	DB	'Display - _com_error 0x%X', 00H		; `string'
CONST	ENDS
;	COMDAT ??_C@_02NBAOOLHC@DF?$AA@
CONST	SEGMENT
??_C@_02NBAOOLHC@DF?$AA@ DB 'DF', 00H			; `string'
CONST	ENDS
;	COMDAT ??_C@_02OGAFBLMB@TE?$AA@
CONST	SEGMENT
??_C@_02OGAFBLMB@TE?$AA@ DB 'TE', 00H			; `string'
CONST	ENDS
;	COMDAT ??_C@_02JLAAGLDA@CA?$AA@
CONST	SEGMENT
??_C@_02JLAAGLDA@CA?$AA@ DB 'CA', 00H			; `string'
CONST	ENDS
;	COMDAT ??_C@_0BJ@DFJKLFBN@Update?5?9?5_com_error?50x?$CFX?$AA@
CONST	SEGMENT
??_C@_0BJ@DFJKLFBN@Update?5?9?5_com_error?50x?$CFX?$AA@ DB 'Update - _com'
	DB	'_error 0x%X', 00H				; `string'
CONST	ENDS
;	COMDAT __CT??_R0?AV_com_error@@@8??0_com_error@@QAE@ABV0@@Z16
xdata$x	SEGMENT
__CT??_R0?AV_com_error@@@8??0_com_error@@QAE@ABV0@@Z16 DD 00H
	DD	FLAT:??_R0?AV_com_error@@@8
	DD	00H
	DD	0ffffffffH
	ORG $+4
	DD	010H
	DD	FLAT:??0_com_error@@QAE@ABV0@@Z
xdata$x	ENDS
;	COMDAT __CTA1?AV_com_error@@
xdata$x	SEGMENT
__CTA1?AV_com_error@@ DD 01H
	DD	FLAT:__CT??_R0?AV_com_error@@@8??0_com_error@@QAE@ABV0@@Z16
xdata$x	ENDS
;	COMDAT __TI1?AV_com_error@@
xdata$x	SEGMENT
__TI1?AV_com_error@@ DD 00H
	DD	FLAT:??1_com_error@@UAE@XZ
	DD	00H
	DD	FLAT:__CTA1?AV_com_error@@
xdata$x	ENDS
;	COMDAT ??_C@_0CB@FJNCFHFD@MakeServerItem?5?9?5_com_error?50x?$CFX@
CONST	SEGMENT
??_C@_0CB@FJNCFHFD@MakeServerItem?5?9?5_com_error?50x?$CFX@ DB 'MakeServe'
	DB	'rItem - _com_error 0x%X', 00H		; `string'
CONST	ENDS
;	COMDAT ??_R0?AV_com_error@@@8
_DATA	SEGMENT
??_R0?AV_com_error@@@8 DD FLAT:??_7type_info@@6B@	; _com_error `RTTI Type Descriptor'
	DD	00H
	DB	'.?AV_com_error@@', 00H
_DATA	ENDS
;	COMDAT ??_C@_0BB@MDFKAALD@?$CF1d?4?$CF02d?4?$CF1d?4?$CF5d?$AA@
CONST	SEGMENT
??_C@_0BB@MDFKAALD@?$CF1d?4?$CF02d?4?$CF1d?4?$CF5d?$AA@ DB '%1d.%02d.%1d.'
	DB	'%5d', 00H					; `string'
CONST	ENDS
;	COMDAT ??_C@_0N@HBACIAED@Aborting?5?4?4?4?$AA@
CONST	SEGMENT
??_C@_0N@HBACIAED@Aborting?5?4?4?4?$AA@ DB 'Aborting ...', 00H ; `string'
CONST	ENDS
;	COMDAT ??_7C_ServerItem@@6B@
CONST	SEGMENT
??_7C_ServerItem@@6B@ DD FLAT:??_R4C_ServerItem@@6B@	; C_ServerItem::`vftable'
	DD	FLAT:??_EC_ServerItem@@UAEPAXI@Z
	DD	FLAT:?SetFlags@C_Base@@UAEXJ@Z
	DD	FLAT:?SetFlagBitOn@C_Base@@UAEXJ@Z
	DD	FLAT:?SetFlagBitOff@C_Base@@UAEXJ@Z
	DD	FLAT:?SetX@C_Base@@UAEXJ@Z
	DD	FLAT:?SetY@C_Base@@UAEXJ@Z
	DD	FLAT:?SetW@C_Base@@UAEXJ@Z
	DD	FLAT:?SetH@C_Base@@UAEXJ@Z
	DD	FLAT:?SetXY@C_Base@@UAEXJJ@Z
	DD	FLAT:?SetWH@C_Base@@UAEXJJ@Z
	DD	FLAT:?SetXYWH@C_Base@@UAEXJJJJ@Z
	DD	FLAT:?SetRelX@C_Control@@UAEXJ@Z
	DD	FLAT:?SetRelY@C_Control@@UAEXJ@Z
	DD	FLAT:?SetRelXY@C_Control@@UAEXJJ@Z
	DD	FLAT:?SetState@C_ServerItem@@UAEXF@Z
	DD	FLAT:?SetHotKey@C_Control@@UAEXF@Z
	DD	FLAT:?SetMenu@C_Control@@UAEXJ@Z
	DD	FLAT:?SetFont@C_ServerItem@@UAEXJ@Z
	DD	FLAT:?SetSound@C_Control@@UAEXJF@Z
	DD	FLAT:?SetCursorID@C_Control@@UAEXJ@Z
	DD	FLAT:?SetDragCursorID@C_Control@@UAEXJ@Z
	DD	FLAT:?SetHelpText@C_Control@@UAEXJ@Z
	DD	FLAT:?SetMouseOver@C_Control@@UAEXF@Z
	DD	FLAT:?SetMouseOverColor@C_Control@@UAEXK@Z
	DD	FLAT:?SetMouseOverPerc@C_Control@@UAEXF@Z
	DD	FLAT:?SetCallback@C_Control@@UAEXP6AXJFPAVC_Base@@@Z@Z
	DD	FLAT:?GetRelX@C_Control@@UAEJXZ
	DD	FLAT:?GetRelY@C_Control@@UAEJXZ
	DD	FLAT:?GetState@C_ServerItem@@UAEFXZ
	DD	FLAT:?GetHotKey@C_Control@@UAEFXZ
	DD	FLAT:?GetMenu@C_Control@@UAEJXZ
	DD	FLAT:?GetFont@C_ServerItem@@UAEJXZ
	DD	FLAT:?GetHelpText@C_Control@@UAEJXZ
	DD	FLAT:?GetSound@C_Control@@UAEPAVSOUND_RES@@F@Z
	DD	FLAT:?GetMouseOver@C_Control@@UAEFXZ
	DD	FLAT:?GetCursorID@C_Control@@UAEJXZ
	DD	FLAT:?GetDragCursorID@C_Control@@UAEJXZ
	DD	FLAT:?GetCallback@C_Control@@UAEP6AXJFPAVC_Base@@@ZXZ
	DD	FLAT:?IsBase@C_Control@@UAEHXZ
	DD	FLAT:?IsControl@C_Control@@UAEHXZ
	DD	FLAT:?Refresh@C_ServerItem@@UAEXXZ
	DD	FLAT:?Draw@C_ServerItem@@MAEXPAVSCREEN@@PAUUI95_RECT@@@Z
	DD	FLAT:?HighLite@C_Control@@UAEXPAVSCREEN@@PAUUI95_RECT@@@Z
	DD	FLAT:?SetSubParents@C_Base@@UAEXPAVC_Window@@@Z
	DD	FLAT:?Cleanup@C_ServerItem@@UAEXXZ
	DD	FLAT:?TimerUpdate@C_Base@@UAEHXZ
	DD	FLAT:?Activate@C_Base@@UAEXXZ
	DD	FLAT:?Deactivate@C_Base@@UAEXXZ
	DD	FLAT:?CheckHotSpots@C_ServerItem@@UAEJJJ@Z
	DD	FLAT:?CheckKeyboard@C_Base@@UAEHEEEJ@Z
	DD	FLAT:?Process@C_ServerItem@@UAEHJF@Z
	DD	FLAT:?CloseWindow@C_Base@@UAEHXZ
	DD	FLAT:?MouseOver@C_Control@@UAEHJJPAVC_Base@@@Z
	DD	FLAT:?GetMe@C_Base@@UAEPAV1@XZ
	DD	FLAT:?Dragable@C_Base@@UAEHJ@Z
	DD	FLAT:?GetItemXY@C_Base@@UAEXJPAJ0@Z
	DD	FLAT:?Drag@C_Base@@UAEHPAUGRABBER@@GGPAVC_Window@@@Z
	DD	FLAT:?Drop@C_Base@@UAEHPAUGRABBER@@GGPAVC_Window@@@Z
	DD	FLAT:?Wheel@C_Base@@UAEHHGG@Z
	DD	FLAT:?LocalFind@C_Base@@UAEFPAD@Z
	DD	FLAT:?LocalFunction@C_Base@@UAEXFQAJPADPAVC_Handler@@@Z
	DD	FLAT:?SaveText@C_Base@@UAEXPAXPAVC_Parser@@@Z
CONST	ENDS
;	COMDAT ??_7GNetUpdater@@6BIRemoteMasterServerEvents@@@
CONST	SEGMENT
??_7GNetUpdater@@6BIRemoteMasterServerEvents@@@ DD FLAT:??_R4GNetUpdater@@6BIRemoteMasterServerEvents@@@ ; GNetUpdater::`vftable'
	DD	FLAT:?QueryInterface@?$CComObject@VCGNetUpdater@@@ATL@@W3AGJABU_GUID@@PAPAX@Z
	DD	FLAT:?AddRef@?$CComObject@VCGNetUpdater@@@ATL@@W3AGKXZ
	DD	FLAT:?Release@?$CComObject@VCGNetUpdater@@@ATL@@W3AGKXZ
	DD	FLAT:?ServerListReceived@CGNetUpdater@@UAGJH@Z
	DD	FLAT:?UpdateComplete@CGNetUpdater@@UAGJH@Z
CONST	ENDS
;	COMDAT ??_7GNetUpdater@@6BIGameEvents@@@
CONST	SEGMENT
??_7GNetUpdater@@6BIGameEvents@@@ DD FLAT:??_R4GNetUpdater@@6BIGameEvents@@@ ; GNetUpdater::`vftable'
	DD	FLAT:?QueryInterface@?$CComObject@VCGNetUpdater@@@ATL@@UAGJABU_GUID@@PAPAX@Z
	DD	FLAT:?AddRef@?$CComObject@VCGNetUpdater@@@ATL@@UAGKXZ
	DD	FLAT:?Release@?$CComObject@VCGNetUpdater@@@ATL@@UAGKXZ
	DD	FLAT:?UpdateComplete@CGNetUpdater@@UAGJPAUIGame@@@Z
	DD	FLAT:?UpdateAborted@CGNetUpdater@@UAGJPAUIGame@@@Z
	DD	FLAT:??_EGNetUpdater@@UAEPAXI@Z
CONST	ENDS
;	COMDAT ??_7?$CComObject@VCGNetUpdater@@@ATL@@6BIRemoteMasterServerEvents@@@
CONST	SEGMENT
??_7?$CComObject@VCGNetUpdater@@@ATL@@6BIRemoteMasterServerEvents@@@ DD FLAT:??_R4?$CComObject@VCGNetUpdater@@@ATL@@6BIRemoteMasterServerEvents@@@ ; ATL::CComObject<CGNetUpdater>::`vftable'
	DD	FLAT:?QueryInterface@?$CComObject@VCGNetUpdater@@@ATL@@W3AGJABU_GUID@@PAPAX@Z
	DD	FLAT:?AddRef@?$CComObject@VCGNetUpdater@@@ATL@@W3AGKXZ
	DD	FLAT:?Release@?$CComObject@VCGNetUpdater@@@ATL@@W3AGKXZ
	DD	FLAT:?ServerListReceived@CGNetUpdater@@UAGJH@Z
	DD	FLAT:?UpdateComplete@CGNetUpdater@@UAGJH@Z
CONST	ENDS
;	COMDAT ??_7?$CComObject@VCGNetUpdater@@@ATL@@6BIGameEvents@@@
CONST	SEGMENT
??_7?$CComObject@VCGNetUpdater@@@ATL@@6BIGameEvents@@@ DD FLAT:??_R4?$CComObject@VCGNetUpdater@@@ATL@@6BIGameEvents@@@ ; ATL::CComObject<CGNetUpdater>::`vftable'
	DD	FLAT:?QueryInterface@?$CComObject@VCGNetUpdater@@@ATL@@UAGJABU_GUID@@PAPAX@Z
	DD	FLAT:?AddRef@?$CComObject@VCGNetUpdater@@@ATL@@UAGKXZ
	DD	FLAT:?Release@?$CComObject@VCGNetUpdater@@@ATL@@UAGKXZ
	DD	FLAT:?UpdateComplete@CGNetUpdater@@UAGJPAUIGame@@@Z
	DD	FLAT:?UpdateAborted@CGNetUpdater@@UAGJPAUIGame@@@Z
	DD	FLAT:??_E?$CComObject@VCGNetUpdater@@@ATL@@UAEPAXI@Z
CONST	ENDS
;	COMDAT ?_entries@?1??_GetEntries@CGNetUpdater@@SGPBU_ATL_INTMAP_ENTRY@ATL@@XZ@4QBU34@B
CONST	SEGMENT
?_entries@?1??_GetEntries@CGNetUpdater@@SGPBU_ATL_INTMAP_ENTRY@ATL@@XZ@4QBU34@B DD FLAT:__GUID_b8d1f614_d5e4_4bd1_8f01_17371deaf685 ; `CGNetUpdater::_GetEntries'::`2'::_entries
	DD	00H
	DD	01H
	DD	FLAT:__GUID_36b5b50d_69bb_43d5_83f6_aaf7eb9fff7b
	DD	04H
	DD	01H
	DD	00H
	DD	00H
	DD	00H
CONST	ENDS
;	COMDAT ??_7CGNetUpdater@@6BIRemoteMasterServerEvents@@@
CONST	SEGMENT
??_7CGNetUpdater@@6BIRemoteMasterServerEvents@@@ DD FLAT:??_R4CGNetUpdater@@6BIRemoteMasterServerEvents@@@ ; CGNetUpdater::`vftable'
	DD	FLAT:__purecall
	DD	FLAT:__purecall
	DD	FLAT:__purecall
	DD	FLAT:?ServerListReceived@CGNetUpdater@@UAGJH@Z
	DD	FLAT:?UpdateComplete@CGNetUpdater@@UAGJH@Z
CONST	ENDS
;	COMDAT ??_7CGNetUpdater@@6BIGameEvents@@@
CONST	SEGMENT
??_7CGNetUpdater@@6BIGameEvents@@@ DD FLAT:??_R4CGNetUpdater@@6BIGameEvents@@@ ; CGNetUpdater::`vftable'
	DD	FLAT:__purecall
	DD	FLAT:__purecall
	DD	FLAT:__purecall
	DD	FLAT:?UpdateComplete@CGNetUpdater@@UAGJPAUIGame@@@Z
	DD	FLAT:?UpdateAborted@CGNetUpdater@@UAGJPAUIGame@@@Z
CONST	ENDS
;	COMDAT ??_7_com_error@@6B@
CONST	SEGMENT
??_7_com_error@@6B@ DD FLAT:??_R4_com_error@@6B@	; _com_error::`vftable'
	DD	FLAT:??_E_com_error@@UAEPAXI@Z
CONST	ENDS
;	COMDAT ??_7C_Control@@6B@
CONST	SEGMENT
??_7C_Control@@6B@ DD FLAT:??_R4C_Control@@6B@		; C_Control::`vftable'
	DD	FLAT:??_EC_Control@@UAEPAXI@Z
	DD	FLAT:?SetFlags@C_Base@@UAEXJ@Z
	DD	FLAT:?SetFlagBitOn@C_Base@@UAEXJ@Z
	DD	FLAT:?SetFlagBitOff@C_Base@@UAEXJ@Z
	DD	FLAT:?SetX@C_Base@@UAEXJ@Z
	DD	FLAT:?SetY@C_Base@@UAEXJ@Z
	DD	FLAT:?SetW@C_Base@@UAEXJ@Z
	DD	FLAT:?SetH@C_Base@@UAEXJ@Z
	DD	FLAT:?SetXY@C_Base@@UAEXJJ@Z
	DD	FLAT:?SetWH@C_Base@@UAEXJJ@Z
	DD	FLAT:?SetXYWH@C_Base@@UAEXJJJJ@Z
	DD	FLAT:?SetRelX@C_Control@@UAEXJ@Z
	DD	FLAT:?SetRelY@C_Control@@UAEXJ@Z
	DD	FLAT:?SetRelXY@C_Control@@UAEXJJ@Z
	DD	FLAT:?SetState@C_Base@@UAEXF@Z
	DD	FLAT:?SetHotKey@C_Control@@UAEXF@Z
	DD	FLAT:?SetMenu@C_Control@@UAEXJ@Z
	DD	FLAT:?SetFont@C_Base@@UAEXJ@Z
	DD	FLAT:?SetSound@C_Control@@UAEXJF@Z
	DD	FLAT:?SetCursorID@C_Control@@UAEXJ@Z
	DD	FLAT:?SetDragCursorID@C_Control@@UAEXJ@Z
	DD	FLAT:?SetHelpText@C_Control@@UAEXJ@Z
	DD	FLAT:?SetMouseOver@C_Control@@UAEXF@Z
	DD	FLAT:?SetMouseOverColor@C_Control@@UAEXK@Z
	DD	FLAT:?SetMouseOverPerc@C_Control@@UAEXF@Z
	DD	FLAT:?SetCallback@C_Control@@UAEXP6AXJFPAVC_Base@@@Z@Z
	DD	FLAT:?GetRelX@C_Control@@UAEJXZ
	DD	FLAT:?GetRelY@C_Control@@UAEJXZ
	DD	FLAT:?GetState@C_Base@@UAEFXZ
	DD	FLAT:?GetHotKey@C_Control@@UAEFXZ
	DD	FLAT:?GetMenu@C_Control@@UAEJXZ
	DD	FLAT:?GetFont@C_Base@@UAEJXZ
	DD	FLAT:?GetHelpText@C_Control@@UAEJXZ
	DD	FLAT:?GetSound@C_Control@@UAEPAVSOUND_RES@@F@Z
	DD	FLAT:?GetMouseOver@C_Control@@UAEFXZ
	DD	FLAT:?GetCursorID@C_Control@@UAEJXZ
	DD	FLAT:?GetDragCursorID@C_Control@@UAEJXZ
	DD	FLAT:?GetCallback@C_Control@@UAEP6AXJFPAVC_Base@@@ZXZ
	DD	FLAT:?IsBase@C_Control@@UAEHXZ
	DD	FLAT:?IsControl@C_Control@@UAEHXZ
	DD	FLAT:?Refresh@C_Base@@UAEXXZ
	DD	FLAT:?Draw@C_Base@@UAEXPAVSCREEN@@PAUUI95_RECT@@@Z
	DD	FLAT:?HighLite@C_Control@@UAEXPAVSCREEN@@PAUUI95_RECT@@@Z
	DD	FLAT:?SetSubParents@C_Base@@UAEXPAVC_Window@@@Z
	DD	FLAT:?Cleanup@C_Base@@UAEXXZ
	DD	FLAT:?TimerUpdate@C_Base@@UAEHXZ
	DD	FLAT:?Activate@C_Base@@UAEXXZ
	DD	FLAT:?Deactivate@C_Base@@UAEXXZ
	DD	FLAT:?CheckHotSpots@C_Base@@UAEJJJ@Z
	DD	FLAT:?CheckKeyboard@C_Base@@UAEHEEEJ@Z
	DD	FLAT:?Process@C_Base@@UAEHJF@Z
	DD	FLAT:?CloseWindow@C_Base@@UAEHXZ
	DD	FLAT:?MouseOver@C_Control@@UAEHJJPAVC_Base@@@Z
	DD	FLAT:?GetMe@C_Base@@UAEPAV1@XZ
	DD	FLAT:?Dragable@C_Base@@UAEHJ@Z
	DD	FLAT:?GetItemXY@C_Base@@UAEXJPAJ0@Z
	DD	FLAT:?Drag@C_Base@@UAEHPAUGRABBER@@GGPAVC_Window@@@Z
	DD	FLAT:?Drop@C_Base@@UAEHPAUGRABBER@@GGPAVC_Window@@@Z
	DD	FLAT:?Wheel@C_Base@@UAEHHGG@Z
	DD	FLAT:?LocalFind@C_Base@@UAEFPAD@Z
	DD	FLAT:?LocalFunction@C_Base@@UAEXFQAJPADPAVC_Handler@@@Z
	DD	FLAT:?SaveText@C_Base@@UAEXPAXPAVC_Parser@@@Z
CONST	ENDS
;	COMDAT ??_7C_Base@@6B@
CONST	SEGMENT
??_7C_Base@@6B@ DD FLAT:??_R4C_Base@@6B@		; C_Base::`vftable'
	DD	FLAT:??_EC_Base@@UAEPAXI@Z
	DD	FLAT:?SetFlags@C_Base@@UAEXJ@Z
	DD	FLAT:?SetFlagBitOn@C_Base@@UAEXJ@Z
	DD	FLAT:?SetFlagBitOff@C_Base@@UAEXJ@Z
	DD	FLAT:?SetX@C_Base@@UAEXJ@Z
	DD	FLAT:?SetY@C_Base@@UAEXJ@Z
	DD	FLAT:?SetW@C_Base@@UAEXJ@Z
	DD	FLAT:?SetH@C_Base@@UAEXJ@Z
	DD	FLAT:?SetXY@C_Base@@UAEXJJ@Z
	DD	FLAT:?SetWH@C_Base@@UAEXJJ@Z
	DD	FLAT:?SetXYWH@C_Base@@UAEXJJJJ@Z
	DD	FLAT:?SetRelX@C_Base@@UAEXJ@Z
	DD	FLAT:?SetRelY@C_Base@@UAEXJ@Z
	DD	FLAT:?SetRelXY@C_Base@@UAEXJJ@Z
	DD	FLAT:?SetState@C_Base@@UAEXF@Z
	DD	FLAT:?SetHotKey@C_Base@@UAEXF@Z
	DD	FLAT:?SetMenu@C_Base@@UAEXJ@Z
	DD	FLAT:?SetFont@C_Base@@UAEXJ@Z
	DD	FLAT:?SetSound@C_Base@@UAEXJF@Z
	DD	FLAT:?SetCursorID@C_Base@@UAEXJ@Z
	DD	FLAT:?SetDragCursorID@C_Base@@UAEXJ@Z
	DD	FLAT:?SetHelpText@C_Base@@UAEXJ@Z
	DD	FLAT:?SetMouseOver@C_Base@@UAEXF@Z
	DD	FLAT:?SetMouseOverColor@C_Base@@UAEXK@Z
	DD	FLAT:?SetMouseOverPerc@C_Base@@UAEXF@Z
	DD	FLAT:?SetCallback@C_Base@@UAEXP6AXJFPAV1@@Z@Z
	DD	FLAT:?GetRelX@C_Base@@UAEJXZ
	DD	FLAT:?GetRelY@C_Base@@UAEJXZ
	DD	FLAT:?GetState@C_Base@@UAEFXZ
	DD	FLAT:?GetHotKey@C_Base@@UAEFXZ
	DD	FLAT:?GetMenu@C_Base@@UAEJXZ
	DD	FLAT:?GetFont@C_Base@@UAEJXZ
	DD	FLAT:?GetHelpText@C_Base@@UAEJXZ
	DD	FLAT:?GetSound@C_Base@@UAEPAVSOUND_RES@@F@Z
	DD	FLAT:?GetMouseOver@C_Base@@UAEFXZ
	DD	FLAT:?GetCursorID@C_Base@@UAEJXZ
	DD	FLAT:?GetDragCursorID@C_Base@@UAEJXZ
	DD	FLAT:?GetCallback@C_Base@@UAEP6AXJFPAV1@@ZXZ
	DD	FLAT:?IsBase@C_Base@@UAEHXZ
	DD	FLAT:?IsControl@C_Base@@UAEHXZ
	DD	FLAT:?Refresh@C_Base@@UAEXXZ
	DD	FLAT:?Draw@C_Base@@UAEXPAVSCREEN@@PAUUI95_RECT@@@Z
	DD	FLAT:?HighLite@C_Base@@UAEXPAVSCREEN@@PAUUI95_RECT@@@Z
	DD	FLAT:?SetSubParents@C_Base@@UAEXPAVC_Window@@@Z
	DD	FLAT:?Cleanup@C_Base@@UAEXXZ
	DD	FLAT:?TimerUpdate@C_Base@@UAEHXZ
	DD	FLAT:?Activate@C_Base@@UAEXXZ
	DD	FLAT:?Deactivate@C_Base@@UAEXXZ
	DD	FLAT:?CheckHotSpots@C_Base@@UAEJJJ@Z
	DD	FLAT:?CheckKeyboard@C_Base@@UAEHEEEJ@Z
	DD	FLAT:?Process@C_Base@@UAEHJF@Z
	DD	FLAT:?CloseWindow@C_Base@@UAEHXZ
	DD	FLAT:?MouseOver@C_Base@@UAEHJJPAV1@@Z
	DD	FLAT:?GetMe@C_Base@@UAEPAV1@XZ
	DD	FLAT:?Dragable@C_Base@@UAEHJ@Z
	DD	FLAT:?GetItemXY@C_Base@@UAEXJPAJ0@Z
	DD	FLAT:?Drag@C_Base@@UAEHPAUGRABBER@@GGPAVC_Window@@@Z
	DD	FLAT:?Drop@C_Base@@UAEHPAUGRABBER@@GGPAVC_Window@@@Z
	DD	FLAT:?Wheel@C_Base@@UAEHHGG@Z
	DD	FLAT:?LocalFind@C_Base@@UAEFPAD@Z
	DD	FLAT:?LocalFunction@C_Base@@UAEXFQAJPADPAVC_Handler@@@Z
	DD	FLAT:?SaveText@C_Base@@UAEXPAXPAVC_Parser@@@Z
CONST	ENDS
;	COMDAT ??_C@_06FHFOAHML@system?$AA@
CONST	SEGMENT
??_C@_06FHFOAHML@system?$AA@ DB 'system', 00H		; `string'
CONST	ENDS
;	COMDAT ??_7_System_error_category@std@@6B@
CONST	SEGMENT
??_7_System_error_category@std@@6B@ DD FLAT:??_R4_System_error_category@std@@6B@ ; std::_System_error_category::`vftable'
	DD	FLAT:??_E_System_error_category@std@@UAEPAXI@Z
	DD	FLAT:?name@_System_error_category@std@@UBEPBDXZ
	DD	FLAT:?message@_System_error_category@std@@UBE?AV?$basic_string@DU?$char_traits@D@std@@V?$allocator@D@2@@2@H@Z
	DD	FLAT:?default_error_condition@_System_error_category@std@@UBE?AVerror_condition@2@H@Z
	DD	FLAT:?equivalent@error_category@std@@UBE_NABVerror_code@2@H@Z
	DD	FLAT:?equivalent@error_category@std@@UBE_NHABVerror_condition@2@@Z
CONST	ENDS
;	COMDAT ??_C@_0BG@PADBLCHM@iostream?5stream?5error?$AA@
CONST	SEGMENT
??_C@_0BG@PADBLCHM@iostream?5stream?5error?$AA@ DB 'iostream stream error'
	DB	00H						; `string'
CONST	ENDS
;	COMDAT ??_C@_08LLGCOLLL@iostream?$AA@
CONST	SEGMENT
??_C@_08LLGCOLLL@iostream?$AA@ DB 'iostream', 00H	; `string'
CONST	ENDS
;	COMDAT ??_7_Iostream_error_category@std@@6B@
CONST	SEGMENT
??_7_Iostream_error_category@std@@6B@ DD FLAT:??_R4_Iostream_error_category@std@@6B@ ; std::_Iostream_error_category::`vftable'
	DD	FLAT:??_E_Iostream_error_category@std@@UAEPAXI@Z
	DD	FLAT:?name@_Iostream_error_category@std@@UBEPBDXZ
	DD	FLAT:?message@_Iostream_error_category@std@@UBE?AV?$basic_string@DU?$char_traits@D@std@@V?$allocator@D@2@@2@H@Z
	DD	FLAT:?default_error_condition@error_category@std@@UBE?AVerror_condition@2@H@Z
	DD	FLAT:?equivalent@error_category@std@@UBE_NABVerror_code@2@H@Z
	DD	FLAT:?equivalent@error_category@std@@UBE_NHABVerror_condition@2@@Z
CONST	ENDS
;	COMDAT ??_C@_0O@BFJCFAAK@unknown?5error?$AA@
CONST	SEGMENT
??_C@_0O@BFJCFAAK@unknown?5error?$AA@ DB 'unknown error', 00H ; `string'
CONST	ENDS
;	COMDAT ??_C@_07DCLBNMLN@generic?$AA@
CONST	SEGMENT
??_C@_07DCLBNMLN@generic?$AA@ DB 'generic', 00H		; `string'
CONST	ENDS
;	COMDAT ??_7_Generic_error_category@std@@6B@
CONST	SEGMENT
??_7_Generic_error_category@std@@6B@ DD FLAT:??_R4_Generic_error_category@std@@6B@ ; std::_Generic_error_category::`vftable'
	DD	FLAT:??_E_Generic_error_category@std@@UAEPAXI@Z
	DD	FLAT:?name@_Generic_error_category@std@@UBEPBDXZ
	DD	FLAT:?message@_Generic_error_category@std@@UBE?AV?$basic_string@DU?$char_traits@D@std@@V?$allocator@D@2@@2@H@Z
	DD	FLAT:?default_error_condition@error_category@std@@UBE?AVerror_condition@2@H@Z
	DD	FLAT:?equivalent@error_category@std@@UBE_NABVerror_code@2@H@Z
	DD	FLAT:?equivalent@error_category@std@@UBE_NHABVerror_condition@2@@Z
CONST	ENDS
;	COMDAT ??_7error_category@std@@6B@
CONST	SEGMENT
??_7error_category@std@@6B@ DD FLAT:??_R4error_category@std@@6B@ ; std::error_category::`vftable'
	DD	FLAT:??_Eerror_category@std@@UAEPAXI@Z
	DD	FLAT:__purecall
	DD	FLAT:__purecall
	DD	FLAT:?default_error_condition@error_category@std@@UBE?AVerror_condition@2@H@Z
	DD	FLAT:?equivalent@error_category@std@@UBE_NABVerror_code@2@H@Z
	DD	FLAT:?equivalent@error_category@std@@UBE_NHABVerror_condition@2@@Z
CONST	ENDS
;	COMDAT xdata$x
xdata$x	SEGMENT
__unwindtable$??$construct@PADAAPAD@?$allocator@D@std@@QAEXPAPADAAPAD@Z DD 0ffffffffH
	DD	FLAT:__unwindfunclet$??$construct@PADAAPAD@?$allocator@D@std@@QAEXPAPADAAPAD@Z$0
__ehfuncinfo$??$construct@PADAAPAD@?$allocator@D@std@@QAEXPAPADAAPAD@Z DD 019930522H
	DD	01H
	DD	FLAT:__unwindtable$??$construct@PADAAPAD@?$allocator@D@std@@QAEXPAPADAAPAD@Z
	DD	2 DUP(00H)
	DD	2 DUP(00H)
	DD	00H
	DD	01H
xdata$x	ENDS
;	COMDAT xdata$x
xdata$x	SEGMENT
__unwindtable$??$construct@PAUIGame@@AAPAU1@@?$allocator@PAUIGame@@@std@@QAEXPAPAUIGame@@AAPAU2@@Z DD 0ffffffffH
	DD	FLAT:__unwindfunclet$??$construct@PAUIGame@@AAPAU1@@?$allocator@PAUIGame@@@std@@QAEXPAPAUIGame@@AAPAU2@@Z$0
__ehfuncinfo$??$construct@PAUIGame@@AAPAU1@@?$allocator@PAUIGame@@@std@@QAEXPAPAUIGame@@AAPAU2@@Z DD 019930522H
	DD	01H
	DD	FLAT:__unwindtable$??$construct@PAUIGame@@AAPAU1@@?$allocator@PAUIGame@@@std@@QAEXPAPAUIGame@@AAPAU2@@Z
	DD	2 DUP(00H)
	DD	2 DUP(00H)
	DD	00H
	DD	01H
xdata$x	ENDS
;	COMDAT xdata$x
xdata$x	SEGMENT
__catchsym$?_Reallocate@?$vector@PAUIGame@@V?$allocator@PAUIGame@@@std@@@std@@IAEXI@Z$2 DD 040H
	DD	00H
	DD	00H
	DD	FLAT:__catch$?_Reallocate@?$vector@PAUIGame@@V?$allocator@PAUIGame@@@std@@@std@@IAEXI@Z$0
__unwindtable$?_Reallocate@?$vector@PAUIGame@@V?$allocator@PAUIGame@@@std@@@std@@IAEXI@Z DD 0ffffffffH
	DD	00H
	DD	0ffffffffH
	DD	00H
__tryblocktable$?_Reallocate@?$vector@PAUIGame@@V?$allocator@PAUIGame@@@std@@@std@@IAEXI@Z DD 00H
	DD	00H
	DD	01H
	DD	01H
	DD	FLAT:__catchsym$?_Reallocate@?$vector@PAUIGame@@V?$allocator@PAUIGame@@@std@@@std@@IAEXI@Z$2
__ehfuncinfo$?_Reallocate@?$vector@PAUIGame@@V?$allocator@PAUIGame@@@std@@@std@@IAEXI@Z DD 019930522H
	DD	02H
	DD	FLAT:__unwindtable$?_Reallocate@?$vector@PAUIGame@@V?$allocator@PAUIGame@@@std@@@std@@IAEXI@Z
	DD	01H
	DD	FLAT:__tryblocktable$?_Reallocate@?$vector@PAUIGame@@V?$allocator@PAUIGame@@@std@@@std@@IAEXI@Z
	DD	2 DUP(00H)
	DD	00H
	DD	01H
xdata$x	ENDS
;	COMDAT xdata$x
xdata$x	SEGMENT
__unwindtable$??1?$CComObject@VCGNetUpdater@@@ATL@@UAE@XZ DD 0ffffffffH
	DD	FLAT:__unwindfunclet$??1?$CComObject@VCGNetUpdater@@@ATL@@UAE@XZ$0
__ehfuncinfo$??1?$CComObject@VCGNetUpdater@@@ATL@@UAE@XZ DD 019930522H
	DD	01H
	DD	FLAT:__unwindtable$??1?$CComObject@VCGNetUpdater@@@ATL@@UAE@XZ
	DD	2 DUP(00H)
	DD	2 DUP(00H)
	DD	00H
	DD	01H
xdata$x	ENDS
;	COMDAT xdata$x
xdata$x	SEGMENT
__unwindtable$??0?$CComObject@VCGNetUpdater@@@ATL@@QAE@PAX@Z DD 0ffffffffH
	DD	FLAT:__unwindfunclet$??0?$CComObject@VCGNetUpdater@@@ATL@@QAE@PAX@Z$0
__ehfuncinfo$??0?$CComObject@VCGNetUpdater@@@ATL@@QAE@PAX@Z DD 019930522H
	DD	01H
	DD	FLAT:__unwindtable$??0?$CComObject@VCGNetUpdater@@@ATL@@QAE@PAX@Z
	DD	2 DUP(00H)
	DD	2 DUP(00H)
	DD	00H
	DD	01H
xdata$x	ENDS
xdata$x	SEGMENT
__unwindtable$??0C_ServerItem@@QAE@XZ DD 0ffffffffH
	DD	FLAT:__unwindfunclet$??0C_ServerItem@@QAE@XZ$0
__catchsym$?UpdateDisplay@@YAXXZ$4 DD 00H
	DD	FLAT:??_R0?AV_com_error@@@8
	DD	0ffffffb8H
	DD	FLAT:__catch$?UpdateDisplay@@YAXXZ$0
__catchsym$?Update@@YAXXZ$4 DD 00H
	DD	FLAT:??_R0?AV_com_error@@@8
	DD	0ffffffb0H
	DD	FLAT:__catch$?Update@@YAXXZ$0
__catchsym$?MakeServerItem@@YAPAVC_ServerItem@@PAVC_TreeList@@PAUIGame@@@Z$4 DD 00H
	DD	FLAT:??_R0?AV_com_error@@@8
	DD	0ffffff8cH
	DD	FLAT:__catch$?MakeServerItem@@YAPAVC_ServerItem@@PAVC_TreeList@@PAUIGame@@@Z$0
__catchsym$?ServerListReceived@CGNetUpdater@@UAGJH@Z$8 DD 00H
	DD	FLAT:??_R0?AV_com_error@@@8
	DD	0ffffffa0H
	DD	FLAT:__catch$?ServerListReceived@CGNetUpdater@@UAGJH@Z$0
__unwindtable$?ServerListReceived@CGNetUpdater@@UAGJH@Z DD 0ffffffffH
	DD	00H
	DD	0ffffffffH
	DD	00H
__catchsym$?UpdateGame@CGNetUpdater@@QAEXPAUIGame@@_N@Z$5 DD 00H
	DD	FLAT:??_R0?AV_com_error@@@8
	DD	0ffffffacH
	DD	FLAT:__catch$?UpdateGame@CGNetUpdater@@QAEXPAUIGame@@_N@Z$0
__catchsym$?Update@CGNetUpdater@@QAEXXZ$5 DD 00H
	DD	FLAT:??_R0?AV_com_error@@@8
	DD	0ffffffb4H
	DD	FLAT:__catch$?Update@CGNetUpdater@@QAEXXZ$0
__tryblocktable$?UpdateDisplay@@YAXXZ DD 00H
	DD	01H
	DD	02H
	DD	01H
	DD	FLAT:__catchsym$?UpdateDisplay@@YAXXZ$4
__tryblocktable$?Update@@YAXXZ DD 00H
	DD	01H
	DD	02H
	DD	01H
	DD	FLAT:__catchsym$?Update@@YAXXZ$4
__tryblocktable$?MakeServerItem@@YAPAVC_ServerItem@@PAVC_TreeList@@PAUIGame@@@Z DD 00H
	DD	01H
	DD	02H
	DD	01H
	DD	FLAT:__catchsym$?MakeServerItem@@YAPAVC_ServerItem@@PAVC_TreeList@@PAUIGame@@@Z$4
__tryblocktable$?ServerListReceived@CGNetUpdater@@UAGJH@Z DD 00H
	DD	00H
	DD	01H
	DD	01H
	DD	FLAT:__catchsym$?ServerListReceived@CGNetUpdater@@UAGJH@Z$8
__tryblocktable$?UpdateGame@CGNetUpdater@@QAEXPAUIGame@@_N@Z DD 00H
	DD	01H
	DD	02H
	DD	01H
	DD	FLAT:__catchsym$?UpdateGame@CGNetUpdater@@QAEXPAUIGame@@_N@Z$5
__tryblocktable$?Update@CGNetUpdater@@QAEXXZ DD 00H
	DD	02H
	DD	03H
	DD	01H
	DD	FLAT:__catchsym$?Update@CGNetUpdater@@QAEXXZ$5
__unwindtable$?UpdateDisplay@@YAXXZ DD 0ffffffffH
	DD	00H
	DD	00H
	DD	FLAT:__unwindfunclet$?UpdateDisplay@@YAXXZ$2
	DD	0ffffffffH
	DD	00H
__unwindtable$?Update@@YAXXZ DD 0ffffffffH
	DD	00H
	DD	00H
	DD	FLAT:__unwindfunclet$?Update@@YAXXZ$2
	DD	0ffffffffH
	DD	00H
__unwindtable$?MakeServerItem@@YAPAVC_ServerItem@@PAVC_TreeList@@PAUIGame@@@Z DD 0ffffffffH
	DD	00H
	DD	00H
	DD	FLAT:__unwindfunclet$?MakeServerItem@@YAPAVC_ServerItem@@PAVC_TreeList@@PAUIGame@@@Z$2
	DD	0ffffffffH
	DD	00H
__unwindtable$?UpdateGame@CGNetUpdater@@QAEXPAUIGame@@_N@Z DD 0ffffffffH
	DD	00H
	DD	00H
	DD	FLAT:__unwindfunclet$?UpdateGame@CGNetUpdater@@QAEXPAUIGame@@_N@Z$2
	DD	0ffffffffH
	DD	00H
__unwindtable$?Update@CGNetUpdater@@QAEXXZ DD 0ffffffffH
	DD	00H
	DD	00H
	DD	FLAT:__unwindfunclet$?Update@CGNetUpdater@@QAEXXZ$2
	DD	00H
	DD	FLAT:__unwindfunclet$?Update@CGNetUpdater@@QAEXXZ$3
	DD	0ffffffffH
	DD	00H
__ehfuncinfo$?FilterGame@@YA_NPAUIGame@@@Z DD 019930522H
	DD	07H
	DD	FLAT:__unwindtable$?FilterGame@@YA_NPAUIGame@@@Z
	DD	2 DUP(00H)
	DD	2 DUP(00H)
	DD	00H
	DD	01H
__ehfuncinfo$?UpdateDisplay@@YAXXZ DD 019930522H
	DD	03H
	DD	FLAT:__unwindtable$?UpdateDisplay@@YAXXZ
	DD	01H
	DD	FLAT:__tryblocktable$?UpdateDisplay@@YAXXZ
	DD	2 DUP(00H)
	DD	00H
	DD	01H
__ehfuncinfo$?Update@@YAXXZ DD 019930522H
	DD	03H
	DD	FLAT:__unwindtable$?Update@@YAXXZ
	DD	01H
	DD	FLAT:__tryblocktable$?Update@@YAXXZ
	DD	2 DUP(00H)
	DD	00H
	DD	01H
__ehfuncinfo$?MakeServerItem@@YAPAVC_ServerItem@@PAVC_TreeList@@PAUIGame@@@Z DD 019930522H
	DD	03H
	DD	FLAT:__unwindtable$?MakeServerItem@@YAPAVC_ServerItem@@PAVC_TreeList@@PAUIGame@@@Z
	DD	01H
	DD	FLAT:__tryblocktable$?MakeServerItem@@YAPAVC_ServerItem@@PAVC_TreeList@@PAUIGame@@@Z
	DD	2 DUP(00H)
	DD	00H
	DD	01H
__ehfuncinfo$?Setup@C_ServerItem@@QAEXPAUIGame@@PAVC_TreeList@@@Z DD 019930522H
	DD	0aH
	DD	FLAT:__unwindtable$?Setup@C_ServerItem@@QAEXPAUIGame@@PAVC_TreeList@@@Z
	DD	2 DUP(00H)
	DD	2 DUP(00H)
	DD	00H
	DD	01H
__ehfuncinfo$??0C_ServerItem@@QAE@XZ DD 019930522H
	DD	01H
	DD	FLAT:__unwindtable$??0C_ServerItem@@QAE@XZ
	DD	2 DUP(00H)
	DD	2 DUP(00H)
	DD	00H
	DD	01H
__ehfuncinfo$?ServerListReceived@CGNetUpdater@@UAGJH@Z DD 019930522H
	DD	02H
	DD	FLAT:__unwindtable$?ServerListReceived@CGNetUpdater@@UAGJH@Z
	DD	01H
	DD	FLAT:__tryblocktable$?ServerListReceived@CGNetUpdater@@UAGJH@Z
	DD	2 DUP(00H)
	DD	00H
	DD	01H
__ehfuncinfo$?UpdateGame@CGNetUpdater@@QAEXPAUIGame@@_N@Z DD 019930522H
	DD	03H
	DD	FLAT:__unwindtable$?UpdateGame@CGNetUpdater@@QAEXPAUIGame@@_N@Z
	DD	01H
	DD	FLAT:__tryblocktable$?UpdateGame@CGNetUpdater@@QAEXPAUIGame@@_N@Z
	DD	2 DUP(00H)
	DD	00H
	DD	01H
__ehfuncinfo$?Update@CGNetUpdater@@QAEXXZ DD 019930522H
	DD	04H
	DD	FLAT:__unwindtable$?Update@CGNetUpdater@@QAEXXZ
	DD	01H
	DD	FLAT:__tryblocktable$?Update@CGNetUpdater@@QAEXXZ
	DD	2 DUP(00H)
	DD	00H
	DD	01H
__unwindtable$?FilterGame@@YA_NPAUIGame@@@Z DD 0ffffffffH
	DD	FLAT:__unwindfunclet$?FilterGame@@YA_NPAUIGame@@@Z$0
	DD	0ffffffffH
	DD	FLAT:__unwindfunclet$?FilterGame@@YA_NPAUIGame@@@Z$1
	DD	0ffffffffH
	DD	FLAT:__unwindfunclet$?FilterGame@@YA_NPAUIGame@@@Z$3
	DD	0ffffffffH
	DD	FLAT:__unwindfunclet$?FilterGame@@YA_NPAUIGame@@@Z$4
	DD	0ffffffffH
	DD	FLAT:__unwindfunclet$?FilterGame@@YA_NPAUIGame@@@Z$6
	DD	0ffffffffH
	DD	FLAT:__unwindfunclet$?FilterGame@@YA_NPAUIGame@@@Z$7
	DD	0ffffffffH
	DD	FLAT:__unwindfunclet$?FilterGame@@YA_NPAUIGame@@@Z$9
__unwindtable$?Setup@C_ServerItem@@QAEXPAUIGame@@PAVC_TreeList@@@Z DD 0ffffffffH
	DD	FLAT:__unwindfunclet$?Setup@C_ServerItem@@QAEXPAUIGame@@PAVC_TreeList@@@Z$0
	DD	00H
	DD	FLAT:__unwindfunclet$?Setup@C_ServerItem@@QAEXPAUIGame@@PAVC_TreeList@@@Z$1
	DD	00H
	DD	FLAT:__unwindfunclet$?Setup@C_ServerItem@@QAEXPAUIGame@@PAVC_TreeList@@@Z$2
	DD	00H
	DD	FLAT:__unwindfunclet$?Setup@C_ServerItem@@QAEXPAUIGame@@PAVC_TreeList@@@Z$3
	DD	03H
	DD	FLAT:__unwindfunclet$?Setup@C_ServerItem@@QAEXPAUIGame@@PAVC_TreeList@@@Z$4
	DD	03H
	DD	FLAT:__unwindfunclet$?Setup@C_ServerItem@@QAEXPAUIGame@@PAVC_TreeList@@@Z$6
	DD	03H
	DD	FLAT:__unwindfunclet$?Setup@C_ServerItem@@QAEXPAUIGame@@PAVC_TreeList@@@Z$7
	DD	03H
	DD	FLAT:__unwindfunclet$?Setup@C_ServerItem@@QAEXPAUIGame@@PAVC_TreeList@@@Z$8
	DD	03H
	DD	FLAT:__unwindfunclet$?Setup@C_ServerItem@@QAEXPAUIGame@@PAVC_TreeList@@@Z$10
	DD	03H
	DD	FLAT:__unwindfunclet$?Setup@C_ServerItem@@QAEXPAUIGame@@PAVC_TreeList@@@Z$11
xdata$x	ENDS
;	COMDAT xdata$x
xdata$x	SEGMENT
__unwindtable$?PutGameFilter@IRemoteMasterServer@GNETCORELib@@QAEXV_bstr_t@@@Z DD 0ffffffffH
	DD	FLAT:__unwindfunclet$?PutGameFilter@IRemoteMasterServer@GNETCORELib@@QAEXV_bstr_t@@@Z$0
__ehfuncinfo$?PutGameFilter@IRemoteMasterServer@GNETCORELib@@QAEXV_bstr_t@@@Z DD 019930522H
	DD	01H
	DD	FLAT:__unwindtable$?PutGameFilter@IRemoteMasterServer@GNETCORELib@@QAEXV_bstr_t@@@Z
	DD	2 DUP(00H)
	DD	2 DUP(00H)
	DD	00H
	DD	01H
xdata$x	ENDS
;	COMDAT xdata$x
xdata$x	SEGMENT
__unwindtable$?PutServerName@IRemoteMasterServer@GNETCORELib@@QAEXV_bstr_t@@@Z DD 0ffffffffH
	DD	FLAT:__unwindfunclet$?PutServerName@IRemoteMasterServer@GNETCORELib@@QAEXV_bstr_t@@@Z$0
__ehfuncinfo$?PutServerName@IRemoteMasterServer@GNETCORELib@@QAEXV_bstr_t@@@Z DD 019930522H
	DD	01H
	DD	FLAT:__unwindtable$?PutServerName@IRemoteMasterServer@GNETCORELib@@QAEXV_bstr_t@@@Z
	DD	2 DUP(00H)
	DD	2 DUP(00H)
	DD	00H
	DD	01H
xdata$x	ENDS
;	COMDAT xdata$x
xdata$x	SEGMENT
__unwindtable$??0?$CComObjectRootEx@VCComMultiThreadModel@ATL@@@ATL@@QAE@XZ DD 0ffffffffH
	DD	FLAT:__unwindfunclet$??0?$CComObjectRootEx@VCComMultiThreadModel@ATL@@@ATL@@QAE@XZ$0
__ehfuncinfo$??0?$CComObjectRootEx@VCComMultiThreadModel@ATL@@@ATL@@QAE@XZ DD 019930522H
	DD	01H
	DD	FLAT:__unwindtable$??0?$CComObjectRootEx@VCComMultiThreadModel@ATL@@@ATL@@QAE@XZ
	DD	2 DUP(00H)
	DD	2 DUP(00H)
	DD	00H
	DD	01H
xdata$x	ENDS
;	COMDAT xdata$x
xdata$x	SEGMENT
__unwindtable$??0_bstr_t@@QAE@PA_W_N@Z DD 0ffffffffH
	DD	FLAT:__unwindfunclet$??0_bstr_t@@QAE@PA_W_N@Z$0
__ehfuncinfo$??0_bstr_t@@QAE@PA_W_N@Z DD 019930522H
	DD	01H
	DD	FLAT:__unwindtable$??0_bstr_t@@QAE@PA_W_N@Z
	DD	2 DUP(00H)
	DD	2 DUP(00H)
	DD	00H
	DD	01H
xdata$x	ENDS
;	COMDAT xdata$x
xdata$x	SEGMENT
__unwindtable$??0_bstr_t@@QAE@PB_W@Z DD 0ffffffffH
	DD	FLAT:__unwindfunclet$??0_bstr_t@@QAE@PB_W@Z$0
__ehfuncinfo$??0_bstr_t@@QAE@PB_W@Z DD 019930522H
	DD	01H
	DD	FLAT:__unwindtable$??0_bstr_t@@QAE@PB_W@Z
	DD	2 DUP(00H)
	DD	2 DUP(00H)
	DD	00H
	DD	01H
xdata$x	ENDS
;	COMDAT xdata$x
xdata$x	SEGMENT
__unwindtable$??0_bstr_t@@QAE@PBD@Z DD 0ffffffffH
	DD	FLAT:__unwindfunclet$??0_bstr_t@@QAE@PBD@Z$0
__ehfuncinfo$??0_bstr_t@@QAE@PBD@Z DD 019930522H
	DD	01H
	DD	FLAT:__unwindtable$??0_bstr_t@@QAE@PBD@Z
	DD	2 DUP(00H)
	DD	2 DUP(00H)
	DD	00H
	DD	01H
xdata$x	ENDS
;	COMDAT xdata$x
xdata$x	SEGMENT
__unwindtable$??1C_Control@@UAE@XZ DD 0ffffffffH
	DD	FLAT:__unwindfunclet$??1C_Control@@UAE@XZ$0
__ehfuncinfo$??1C_Control@@UAE@XZ DD 019930522H
	DD	01H
	DD	FLAT:__unwindtable$??1C_Control@@UAE@XZ
	DD	2 DUP(00H)
	DD	2 DUP(00H)
	DD	00H
	DD	01H
xdata$x	ENDS
;	COMDAT xdata$x
xdata$x	SEGMENT
__catchsym$?_Copy@?$basic_string@DU?$char_traits@D@std@@V?$allocator@D@2@@std@@QAEXII@Z$5 DD 040H
	DD	00H
	DD	00H
	DD	FLAT:__catch$?_Copy@?$basic_string@DU?$char_traits@D@std@@V?$allocator@D@2@@std@@QAEXII@Z$0
__catchsym$?_Copy@?$basic_string@DU?$char_traits@D@std@@V?$allocator@D@2@@std@@QAEXII@Z$4 DD 040H
	DD	00H
	DD	00H
	DD	FLAT:__catch$?_Copy@?$basic_string@DU?$char_traits@D@std@@V?$allocator@D@2@@std@@QAEXII@Z$1
__unwindtable$?_Copy@?$basic_string@DU?$char_traits@D@std@@V?$allocator@D@2@@std@@QAEXII@Z DD 0ffffffffH
	DD	00H
	DD	0ffffffffH
	DD	00H
	DD	01H
	DD	00H
	DD	01H
	DD	00H
__ehfuncinfo$?_Copy@?$basic_string@DU?$char_traits@D@std@@V?$allocator@D@2@@std@@QAEXII@Z DD 019930522H
	DD	04H
	DD	FLAT:__unwindtable$?_Copy@?$basic_string@DU?$char_traits@D@std@@V?$allocator@D@2@@std@@QAEXII@Z
	DD	02H
	DD	FLAT:__tryblocktable$?_Copy@?$basic_string@DU?$char_traits@D@std@@V?$allocator@D@2@@std@@QAEXII@Z
	DD	2 DUP(00H)
	DD	00H
	DD	01H
__tryblocktable$?_Copy@?$basic_string@DU?$char_traits@D@std@@V?$allocator@D@2@@std@@QAEXII@Z DD 02H
	DD	02H
	DD	03H
	DD	01H
	DD	FLAT:__catchsym$?_Copy@?$basic_string@DU?$char_traits@D@std@@V?$allocator@D@2@@std@@QAEXII@Z$4
	DD	00H
	DD	00H
	DD	03H
	DD	01H
	DD	FLAT:__catchsym$?_Copy@?$basic_string@DU?$char_traits@D@std@@V?$allocator@D@2@@std@@QAEXII@Z$5
xdata$x	ENDS
CRT$XCU	SEGMENT
_allocator_arg$initializer$ DD FLAT:??__Eallocator_arg@std@@YAXXZ
CRT$XCU	ENDS
CRT$XCU	SEGMENT
_m_arrGames$initializer$ DD FLAT:??__Em_arrGames@@YAXXZ
CRT$XCU	ENDS
;	COMDAT CRT$XCU
CRT$XCU	SEGMENT
?_Generic_object$initializer$@?$_Error_objects@H@std@@2P6AXXZA DD FLAT:??__E?_Generic_object@?$_Error_objects@H@std@@2V_Generic_error_category@2@A@@YAXXZ ; std::_Error_objects<int>::_Generic_object$initializer$
CRT$XCU	ENDS
;	COMDAT CRT$XCU
CRT$XCU	SEGMENT
?_Iostream_object$initializer$@?$_Error_objects@H@std@@2P6AXXZA DD FLAT:??__E?_Iostream_object@?$_Error_objects@H@std@@2V_Iostream_error_category@2@A@@YAXXZ ; std::_Error_objects<int>::_Iostream_object$initializer$
CRT$XCU	ENDS
;	COMDAT CRT$XCU
CRT$XCU	SEGMENT
?_System_object$initializer$@?$_Error_objects@H@std@@2P6AXXZA DD FLAT:??__E?_System_object@?$_Error_objects@H@std@@2V_System_error_category@2@A@@YAXXZ ; std::_Error_objects<int>::_System_object$initializer$
CRT$XCU	ENDS
;	COMDAT CRT$XCU
CRT$XCU	SEGMENT
?id$initializer$@?$num_put@DV?$back_insert_iterator@V?$basic_string@DU?$char_traits@D@std@@V?$allocator@D@2@@std@@@std@@@std@@2P6AXXZA DD FLAT:??__E?id@?$num_put@DV?$back_insert_iterator@V?$basic_string@DU?$char_traits@D@std@@V?$allocator@D@2@@std@@@std@@@std@@2V0locale@2@A@@YAXXZ ; std::num_put<char,std::back_insert_iterator<std::basic_string<char,std::char_traits<char>,std::allocator<char> > > >::id$initializer$
CRT$XCU	ENDS
;	COMDAT CRT$XCU
CRT$XCU	SEGMENT
?id$initializer$@?$num_put@_WV?$back_insert_iterator@V?$basic_string@_WU?$char_traits@_W@std@@V?$allocator@_W@2@@std@@@std@@@std@@2P6AXXZA DD FLAT:??__E?id@?$num_put@_WV?$back_insert_iterator@V?$basic_string@_WU?$char_traits@_W@std@@V?$allocator@_W@2@@std@@@std@@@std@@2V0locale@2@A@@YAXXZ ; std::num_put<wchar_t,std::back_insert_iterator<std::basic_string<wchar_t,std::char_traits<wchar_t>,std::allocator<wchar_t> > > >::id$initializer$
CRT$XCU	ENDS
;	COMDAT CRT$XCU
CRT$XCU	SEGMENT
?id$initializer$@?$numpunct@D@std@@2P6AXXZA DD FLAT:??__E?id@?$numpunct@D@std@@2V0locale@2@A@@YAXXZ ; std::numpunct<char>::id$initializer$
CRT$XCU	ENDS
;	COMDAT CRT$XCU
CRT$XCU	SEGMENT
?id$initializer$@?$numpunct@_W@std@@2P6AXXZA DD FLAT:??__E?id@?$numpunct@_W@std@@2V0locale@2@A@@YAXXZ ; std::numpunct<wchar_t>::id$initializer$
CRT$XCU	ENDS
; Function compile flags: /Odsp
;	COMDAT ?Release@?$CComObject@VCGNetUpdater@@@ATL@@W3AGKXZ
_TEXT	SEGMENT
?Release@?$CComObject@VCGNetUpdater@@@ATL@@W3AGKXZ PROC	; [thunk]:ATL::CComObject<CGNetUpdater>::Release`adjustor{4}', COMDAT
	sub	DWORD PTR [esp+4], 4
	jmp	?Release@?$CComObject@VCGNetUpdater@@@ATL@@UAGKXZ ; ATL::CComObject<CGNetUpdater>::Release
?Release@?$CComObject@VCGNetUpdater@@@ATL@@W3AGKXZ ENDP	; [thunk]:ATL::CComObject<CGNetUpdater>::Release`adjustor{4}'
_TEXT	ENDS
; Function compile flags: /Odsp
;	COMDAT ?AddRef@?$CComObject@VCGNetUpdater@@@ATL@@W3AGKXZ
_TEXT	SEGMENT
?AddRef@?$CComObject@VCGNetUpdater@@@ATL@@W3AGKXZ PROC	; [thunk]:ATL::CComObject<CGNetUpdater>::AddRef`adjustor{4}', COMDAT
	sub	DWORD PTR [esp+4], 4
	jmp	?AddRef@?$CComObject@VCGNetUpdater@@@ATL@@UAGKXZ ; ATL::CComObject<CGNetUpdater>::AddRef
?AddRef@?$CComObject@VCGNetUpdater@@@ATL@@W3AGKXZ ENDP	; [thunk]:ATL::CComObject<CGNetUpdater>::AddRef`adjustor{4}'
_TEXT	ENDS
; Function compile flags: /Odsp
;	COMDAT ?QueryInterface@?$CComObject@VCGNetUpdater@@@ATL@@W3AGJABU_GUID@@PAPAX@Z
_TEXT	SEGMENT
?QueryInterface@?$CComObject@VCGNetUpdater@@@ATL@@W3AGJABU_GUID@@PAPAX@Z PROC ; [thunk]:ATL::CComObject<CGNetUpdater>::QueryInterface`adjustor{4}', COMDAT
	sub	DWORD PTR [esp+4], 4
	jmp	?QueryInterface@?$CComObject@VCGNetUpdater@@@ATL@@UAGJABU_GUID@@PAPAX@Z ; ATL::CComObject<CGNetUpdater>::QueryInterface
?QueryInterface@?$CComObject@VCGNetUpdater@@@ATL@@W3AGJABU_GUID@@PAPAX@Z ENDP ; [thunk]:ATL::CComObject<CGNetUpdater>::QueryInterface`adjustor{4}'
_TEXT	ENDS
; Function compile flags: /Odtp
; File c:\program files (x86)\microsoft visual studio 11.0\vc\include\xmemory
;	COMDAT ??$_Uninit_move@PAUIGame@@PAU1@PAU1@@std@@YAPAPAUIGame@@PAPAU1@00AAU?$_Wrap_alloc@V?$allocator@PAUIGame@@@std@@@0@0U_Scalar_ptr_iterator_tag@0@@Z
_TEXT	SEGMENT
__Count$ = -4						; size = 4
__First$ = 8						; size = 4
__Last$ = 12						; size = 4
__Dest$ = 16						; size = 4
___formal$ = 20						; size = 4
___formal$ = 24						; size = 4
___formal$ = 28						; size = 1
??$_Uninit_move@PAUIGame@@PAU1@PAU1@@std@@YAPAPAUIGame@@PAPAU1@00AAU?$_Wrap_alloc@V?$allocator@PAUIGame@@@std@@@0@0U_Scalar_ptr_iterator_tag@0@@Z PROC ; std::_Uninit_move<IGame *,IGame *,IGame *>, COMDAT

; 458  : 	{	// move [_First, _Last) to raw _Dest, scalar type

	push	ebp
	mov	ebp, esp
	push	ecx

; 459  : 	_DEBUG_RANGE(_First, _Last);
; 460  : 	_DEBUG_POINTER(_Dest);
; 461  : 	size_t _Count = (size_t)(_Last - _First);

	mov	eax, DWORD PTR __Last$[ebp]
	sub	eax, DWORD PTR __First$[ebp]
	sar	eax, 2
	mov	DWORD PTR __Count$[ebp], eax

; 462  : 	return ((_Ty2 *)_CSTD memmove(&*_Dest, &*_First,
; 463  : 		_Count * sizeof (*_First)) + _Count);	// NB: non-overlapping move

	mov	ecx, DWORD PTR __Count$[ebp]
	shl	ecx, 2
	push	ecx
	mov	edx, DWORD PTR __First$[ebp]
	push	edx
	mov	eax, DWORD PTR __Dest$[ebp]
	push	eax
	call	_memmove
	add	esp, 12					; 0000000cH
	mov	ecx, DWORD PTR __Count$[ebp]
	lea	eax, DWORD PTR [eax+ecx*4]

; 464  : 	}

	mov	esp, ebp
	pop	ebp
	ret	0
??$_Uninit_move@PAUIGame@@PAU1@PAU1@@std@@YAPAPAUIGame@@PAPAU1@00AAU?$_Wrap_alloc@V?$allocator@PAUIGame@@@std@@@0@0U_Scalar_ptr_iterator_tag@0@@Z ENDP ; std::_Uninit_move<IGame *,IGame *,IGame *>
_TEXT	ENDS
; Function compile flags: /Odtp
; File c:\program files (x86)\microsoft visual studio 11.0\vc\include\xutility
;	COMDAT ??$_Val_type@PAPAUIGame@@@std@@YAPAPAUIGame@@PAPAU1@@Z
_TEXT	SEGMENT
___formal$ = 8						; size = 4
??$_Val_type@PAPAUIGame@@@std@@YAPAPAUIGame@@PAPAU1@@Z PROC ; std::_Val_type<IGame * *>, COMDAT

; 710  : 	{	// return value type from arbitrary argument

	push	ebp
	mov	ebp, esp

; 711  : 	return (0);

	xor	eax, eax

; 712  : 	}

	pop	ebp
	ret	0
??$_Val_type@PAPAUIGame@@@std@@YAPAPAUIGame@@PAPAU1@@Z ENDP ; std::_Val_type<IGame * *>
_TEXT	ENDS
; Function compile flags: /Odtp
; File c:\program files (x86)\microsoft visual studio 11.0\vc\include\xmemory0
;	COMDAT ??$destroy@PAD@?$allocator@D@std@@QAEXPAPAD@Z
_TEXT	SEGMENT
_this$ = -4						; size = 4
__Ptr$ = 8						; size = 4
??$destroy@PAD@?$allocator@D@std@@QAEXPAPAD@Z PROC	; std::allocator<char>::destroy<char *>, COMDAT
; _this$ = ecx

; 621  : 		void destroy(_Uty *_Ptr)

	push	ebp
	mov	ebp, esp
	push	ecx
	mov	DWORD PTR _this$[ebp], ecx

; 622  : 		{	// destroy object at _Ptr
; 623  : 		_Ptr->~_Uty();
; 624  : 		}

	mov	esp, ebp
	pop	ebp
	ret	4
??$destroy@PAD@?$allocator@D@std@@QAEXPAPAD@Z ENDP	; std::allocator<char>::destroy<char *>
_TEXT	ENDS
; Function compile flags: /Odtp
; File c:\program files (x86)\microsoft visual studio 11.0\vc\include\xmemory0
;	COMDAT ??$construct@PADAAPAD@?$allocator@D@std@@QAEXPAPADAAPAD@Z
_TEXT	SEGMENT
$T2 = -28						; size = 4
_this$ = -24						; size = 4
tv73 = -20						; size = 4
$T3 = -16						; size = 4
__$EHRec$ = -12						; size = 12
__Ptr$ = 8						; size = 4
__V0$ = 12						; size = 4
??$construct@PADAAPAD@?$allocator@D@std@@QAEXPAPADAAPAD@Z PROC ; std::allocator<char>::construct<char *,char * &>, COMDAT
; _this$ = ecx

; 617  : _VARIADIC_EXPAND_0X(_ALLOC_MEMBER_CONSTRUCT, , , , )

	push	ebp
	mov	ebp, esp
	push	-1
	push	__ehhandler$??$construct@PADAAPAD@?$allocator@D@std@@QAEXPAPADAAPAD@Z
	mov	eax, DWORD PTR fs:0
	push	eax
	sub	esp, 16					; 00000010H
	mov	eax, DWORD PTR ___security_cookie
	xor	eax, ebp
	push	eax
	lea	eax, DWORD PTR __$EHRec$[ebp]
	mov	DWORD PTR fs:0, eax
	mov	DWORD PTR _this$[ebp], ecx
	mov	eax, DWORD PTR __Ptr$[ebp]
	push	eax
	push	4
	call	??2@YAPAXIPAX@Z				; operator new
	add	esp, 8
	mov	DWORD PTR $T3[ebp], eax
	mov	DWORD PTR __$EHRec$[ebp+8], 0
	cmp	DWORD PTR $T3[ebp], 0
	je	SHORT $LN3@construct
	mov	ecx, DWORD PTR __V0$[ebp]
	push	ecx
	call	??$forward@AAPAD@std@@YAAAPADAAPAD@Z	; std::forward<char * &>
	add	esp, 4
	mov	edx, DWORD PTR $T3[ebp]
	mov	eax, DWORD PTR [eax]
	mov	DWORD PTR [edx], eax
	mov	ecx, DWORD PTR $T3[ebp]
	mov	DWORD PTR tv73[ebp], ecx
	jmp	SHORT $LN4@construct
$LN3@construct:
	mov	DWORD PTR tv73[ebp], 0
$LN4@construct:
	mov	edx, DWORD PTR tv73[ebp]
	mov	DWORD PTR $T2[ebp], edx
	mov	DWORD PTR __$EHRec$[ebp+8], -1
	mov	ecx, DWORD PTR __$EHRec$[ebp]
	mov	DWORD PTR fs:0, ecx
	pop	ecx
	mov	esp, ebp
	pop	ebp
	ret	8
_TEXT	ENDS
;	COMDAT text$x
text$x	SEGMENT
__unwindfunclet$??$construct@PADAAPAD@?$allocator@D@std@@QAEXPAPADAAPAD@Z$0:
	mov	eax, DWORD PTR __Ptr$[ebp]
	push	eax
	mov	eax, DWORD PTR $T3[ebp]
	push	eax
	call	??3@YAXPAX0@Z				; operator delete
	add	esp, 8
	ret	0
__ehhandler$??$construct@PADAAPAD@?$allocator@D@std@@QAEXPAPADAAPAD@Z:
	mov	edx, DWORD PTR [esp+8]
	lea	eax, DWORD PTR [edx+12]
	mov	ecx, DWORD PTR [edx-20]
	xor	ecx, eax
	call	@__security_check_cookie@4
	mov	eax, OFFSET __ehfuncinfo$??$construct@PADAAPAD@?$allocator@D@std@@QAEXPAPADAAPAD@Z
	jmp	___CxxFrameHandler3
text$x	ENDS
??$construct@PADAAPAD@?$allocator@D@std@@QAEXPAPADAAPAD@Z ENDP ; std::allocator<char>::construct<char *,char * &>
; Function compile flags: /Odtp
; File c:\program files (x86)\microsoft visual studio 11.0\vc\include\xmemory0
;	COMDAT ??$construct@PAUIGame@@AAPAU1@@?$allocator@PAUIGame@@@std@@QAEXPAPAUIGame@@AAPAU2@@Z
_TEXT	SEGMENT
$T2 = -28						; size = 4
_this$ = -24						; size = 4
tv73 = -20						; size = 4
$T3 = -16						; size = 4
__$EHRec$ = -12						; size = 12
__Ptr$ = 8						; size = 4
__V0$ = 12						; size = 4
??$construct@PAUIGame@@AAPAU1@@?$allocator@PAUIGame@@@std@@QAEXPAPAUIGame@@AAPAU2@@Z PROC ; std::allocator<IGame *>::construct<IGame *,IGame * &>, COMDAT
; _this$ = ecx

; 617  : _VARIADIC_EXPAND_0X(_ALLOC_MEMBER_CONSTRUCT, , , , )

	push	ebp
	mov	ebp, esp
	push	-1
	push	__ehhandler$??$construct@PAUIGame@@AAPAU1@@?$allocator@PAUIGame@@@std@@QAEXPAPAUIGame@@AAPAU2@@Z
	mov	eax, DWORD PTR fs:0
	push	eax
	sub	esp, 16					; 00000010H
	mov	eax, DWORD PTR ___security_cookie
	xor	eax, ebp
	push	eax
	lea	eax, DWORD PTR __$EHRec$[ebp]
	mov	DWORD PTR fs:0, eax
	mov	DWORD PTR _this$[ebp], ecx
	mov	eax, DWORD PTR __Ptr$[ebp]
	push	eax
	push	4
	call	??2@YAPAXIPAX@Z				; operator new
	add	esp, 8
	mov	DWORD PTR $T3[ebp], eax
	mov	DWORD PTR __$EHRec$[ebp+8], 0
	cmp	DWORD PTR $T3[ebp], 0
	je	SHORT $LN3@construct
	mov	ecx, DWORD PTR __V0$[ebp]
	push	ecx
	call	??$forward@AAPAUIGame@@@std@@YAAAPAUIGame@@AAPAU1@@Z ; std::forward<IGame * &>
	add	esp, 4
	mov	edx, DWORD PTR $T3[ebp]
	mov	eax, DWORD PTR [eax]
	mov	DWORD PTR [edx], eax
	mov	ecx, DWORD PTR $T3[ebp]
	mov	DWORD PTR tv73[ebp], ecx
	jmp	SHORT $LN4@construct
$LN3@construct:
	mov	DWORD PTR tv73[ebp], 0
$LN4@construct:
	mov	edx, DWORD PTR tv73[ebp]
	mov	DWORD PTR $T2[ebp], edx
	mov	DWORD PTR __$EHRec$[ebp+8], -1
	mov	ecx, DWORD PTR __$EHRec$[ebp]
	mov	DWORD PTR fs:0, ecx
	pop	ecx
	mov	esp, ebp
	pop	ebp
	ret	8
_TEXT	ENDS
;	COMDAT text$x
text$x	SEGMENT
__unwindfunclet$??$construct@PAUIGame@@AAPAU1@@?$allocator@PAUIGame@@@std@@QAEXPAPAUIGame@@AAPAU2@@Z$0:
	mov	eax, DWORD PTR __Ptr$[ebp]
	push	eax
	mov	eax, DWORD PTR $T3[ebp]
	push	eax
	call	??3@YAXPAX0@Z				; operator delete
	add	esp, 8
	ret	0
__ehhandler$??$construct@PAUIGame@@AAPAU1@@?$allocator@PAUIGame@@@std@@QAEXPAPAUIGame@@AAPAU2@@Z:
	mov	edx, DWORD PTR [esp+8]
	lea	eax, DWORD PTR [edx+12]
	mov	ecx, DWORD PTR [edx-20]
	xor	ecx, eax
	call	@__security_check_cookie@4
	mov	eax, OFFSET __ehfuncinfo$??$construct@PAUIGame@@AAPAU1@@?$allocator@PAUIGame@@@std@@QAEXPAPAUIGame@@AAPAU2@@Z
	jmp	___CxxFrameHandler3
text$x	ENDS
??$construct@PAUIGame@@AAPAU1@@?$allocator@PAUIGame@@@std@@QAEXPAPAUIGame@@AAPAU2@@Z ENDP ; std::allocator<IGame *>::construct<IGame *,IGame * &>
; Function compile flags: /Odtp
; File c:\program files (x86)\microsoft visual studio 11.0\vc\include\xlocnum
;	COMDAT ??__E?id@?$numpunct@_W@std@@2V0locale@2@A@@YAXXZ
text$yc	SEGMENT
??__E?id@?$numpunct@_W@std@@2V0locale@2@A@@YAXXZ PROC	; `dynamic initializer for 'std::numpunct<wchar_t>::id'', COMDAT

; 155  : 		void _Getvals(wchar_t, const lconv *_Ptr, _Locinfo::_Cvtvec)

	push	ebp
	mov	ebp, esp
	push	0
	mov	ecx, OFFSET ?id@?$numpunct@_W@std@@2V0locale@2@A ; std::numpunct<wchar_t>::id
	call	??0id@locale@std@@QAE@I@Z		; std::locale::id::id
	pop	ebp
	ret	0
??__E?id@?$numpunct@_W@std@@2V0locale@2@A@@YAXXZ ENDP	; `dynamic initializer for 'std::numpunct<wchar_t>::id''
text$yc	ENDS
; Function compile flags: /Odtp
; File c:\program files (x86)\microsoft visual studio 11.0\vc\include\xlocnum
;	COMDAT ??__E?id@?$numpunct@D@std@@2V0locale@2@A@@YAXXZ
text$yc	SEGMENT
??__E?id@?$numpunct@D@std@@2V0locale@2@A@@YAXXZ PROC	; `dynamic initializer for 'std::numpunct<char>::id'', COMDAT

; 155  : 		void _Getvals(wchar_t, const lconv *_Ptr, _Locinfo::_Cvtvec)

	push	ebp
	mov	ebp, esp
	push	0
	mov	ecx, OFFSET ?id@?$numpunct@D@std@@2V0locale@2@A ; std::numpunct<char>::id
	call	??0id@locale@std@@QAE@I@Z		; std::locale::id::id
	pop	ebp
	ret	0
??__E?id@?$numpunct@D@std@@2V0locale@2@A@@YAXXZ ENDP	; `dynamic initializer for 'std::numpunct<char>::id''
text$yc	ENDS
; Function compile flags: /Odtp
; File c:\program files (x86)\microsoft visual studio 11.0\vc\include\xlocnum
;	COMDAT ??__E?id@?$num_put@_WV?$back_insert_iterator@V?$basic_string@_WU?$char_traits@_W@std@@V?$allocator@_W@2@@std@@@std@@@std@@2V0locale@2@A@@YAXXZ
text$yc	SEGMENT
??__E?id@?$num_put@_WV?$back_insert_iterator@V?$basic_string@_WU?$char_traits@_W@std@@V?$allocator@_W@2@@std@@@std@@@std@@2V0locale@2@A@@YAXXZ PROC ; `dynamic initializer for 'std::num_put<wchar_t,std::back_insert_iterator<std::basic_string<wchar_t,std::char_traits<wchar_t>,std::allocator<wchar_t> > > >::id'', COMDAT

; 155  : 		void _Getvals(wchar_t, const lconv *_Ptr, _Locinfo::_Cvtvec)

	push	ebp
	mov	ebp, esp
	push	0
	mov	ecx, OFFSET ?id@?$num_put@_WV?$back_insert_iterator@V?$basic_string@_WU?$char_traits@_W@std@@V?$allocator@_W@2@@std@@@std@@@std@@2V0locale@2@A ; std::num_put<wchar_t,std::back_insert_iterator<std::basic_string<wchar_t,std::char_traits<wchar_t>,std::allocator<wchar_t> > > >::id
	call	??0id@locale@std@@QAE@I@Z		; std::locale::id::id
	pop	ebp
	ret	0
??__E?id@?$num_put@_WV?$back_insert_iterator@V?$basic_string@_WU?$char_traits@_W@std@@V?$allocator@_W@2@@std@@@std@@@std@@2V0locale@2@A@@YAXXZ ENDP ; `dynamic initializer for 'std::num_put<wchar_t,std::back_insert_iterator<std::basic_string<wchar_t,std::char_traits<wchar_t>,std::allocator<wchar_t> > > >::id''
text$yc	ENDS
; Function compile flags: /Odtp
; File c:\program files (x86)\microsoft visual studio 11.0\vc\include\xlocnum
;	COMDAT ??__E?id@?$num_put@DV?$back_insert_iterator@V?$basic_string@DU?$char_traits@D@std@@V?$allocator@D@2@@std@@@std@@@std@@2V0locale@2@A@@YAXXZ
text$yc	SEGMENT
??__E?id@?$num_put@DV?$back_insert_iterator@V?$basic_string@DU?$char_traits@D@std@@V?$allocator@D@2@@std@@@std@@@std@@2V0locale@2@A@@YAXXZ PROC ; `dynamic initializer for 'std::num_put<char,std::back_insert_iterator<std::basic_string<char,std::char_traits<char>,std::allocator<char> > > >::id'', COMDAT

; 155  : 		void _Getvals(wchar_t, const lconv *_Ptr, _Locinfo::_Cvtvec)

	push	ebp
	mov	ebp, esp
	push	0
	mov	ecx, OFFSET ?id@?$num_put@DV?$back_insert_iterator@V?$basic_string@DU?$char_traits@D@std@@V?$allocator@D@2@@std@@@std@@@std@@2V0locale@2@A ; std::num_put<char,std::back_insert_iterator<std::basic_string<char,std::char_traits<char>,std::allocator<char> > > >::id
	call	??0id@locale@std@@QAE@I@Z		; std::locale::id::id
	pop	ebp
	ret	0
??__E?id@?$num_put@DV?$back_insert_iterator@V?$basic_string@DU?$char_traits@D@std@@V?$allocator@D@2@@std@@@std@@@std@@2V0locale@2@A@@YAXXZ ENDP ; `dynamic initializer for 'std::num_put<char,std::back_insert_iterator<std::basic_string<char,std::char_traits<char>,std::allocator<char> > > >::id''
text$yc	ENDS
; Function compile flags: /Odtp
; File c:\program files (x86)\microsoft visual studio 11.0\vc\include\xmemory
;	COMDAT ??$_Uninitialized_move@PAPAUIGame@@PAPAU1@U?$_Wrap_alloc@V?$allocator@PAUIGame@@@std@@@std@@@std@@YAPAPAUIGame@@PAPAU1@00AAU?$_Wrap_alloc@V?$allocator@PAUIGame@@@std@@@0@@Z
_TEXT	SEGMENT
$T1 = -1						; size = 1
__First$ = 8						; size = 4
__Last$ = 12						; size = 4
__Dest$ = 16						; size = 4
__Al$ = 20						; size = 4
??$_Uninitialized_move@PAPAUIGame@@PAPAU1@U?$_Wrap_alloc@V?$allocator@PAUIGame@@@std@@@std@@@std@@YAPAPAUIGame@@PAPAU1@00AAU?$_Wrap_alloc@V?$allocator@PAUIGame@@@std@@@0@@Z PROC ; std::_Uninitialized_move<IGame * *,IGame * *,std::_Wrap_alloc<std::allocator<IGame *> > >, COMDAT

; 471  : 	{	// move [_First, _Last) to raw _Dest, using _Al

	push	ebp
	mov	ebp, esp
	push	ecx

; 472  : 	return (_Uninit_move(_First, _Last, _Dest, _Al,
; 473  : 		_Val_type(_First), _Ptr_cat(_First, _Dest)));

	mov	eax, DWORD PTR __Dest$[ebp]
	push	eax
	mov	ecx, DWORD PTR __First$[ebp]
	push	ecx
	call	??$_Ptr_cat@PAUIGame@@PAU1@@std@@YA?AU_Scalar_ptr_iterator_tag@0@PAPAUIGame@@0@Z ; std::_Ptr_cat<IGame *,IGame *>
	add	esp, 8
	mov	BYTE PTR $T1[ebp], al
	movzx	edx, BYTE PTR $T1[ebp]
	push	edx
	mov	eax, DWORD PTR __First$[ebp]
	push	eax
	call	??$_Val_type@PAPAUIGame@@@std@@YAPAPAUIGame@@PAPAU1@@Z ; std::_Val_type<IGame * *>
	add	esp, 4
	push	eax
	mov	ecx, DWORD PTR __Al$[ebp]
	push	ecx
	mov	edx, DWORD PTR __Dest$[ebp]
	push	edx
	mov	eax, DWORD PTR __Last$[ebp]
	push	eax
	mov	ecx, DWORD PTR __First$[ebp]
	push	ecx
	call	??$_Uninit_move@PAUIGame@@PAU1@PAU1@@std@@YAPAPAUIGame@@PAPAU1@00AAU?$_Wrap_alloc@V?$allocator@PAUIGame@@@std@@@0@0U_Scalar_ptr_iterator_tag@0@@Z ; std::_Uninit_move<IGame *,IGame *,IGame *>
	add	esp, 24					; 00000018H

; 474  : 	}

	mov	esp, ebp
	pop	ebp
	ret	0
??$_Uninitialized_move@PAPAUIGame@@PAPAU1@U?$_Wrap_alloc@V?$allocator@PAUIGame@@@std@@@std@@@std@@YAPAPAUIGame@@PAPAU1@00AAU?$_Wrap_alloc@V?$allocator@PAUIGame@@@std@@@0@@Z ENDP ; std::_Uninitialized_move<IGame * *,IGame * *,std::_Wrap_alloc<std::allocator<IGame *> > >
_TEXT	ENDS
; Function compile flags: /Odtp
; File c:\program files (x86)\microsoft visual studio 11.0\vc\include\xmemory0
;	COMDAT ??$_Destroy_range@U?$_Wrap_alloc@V?$allocator@PAUIGame@@@std@@@std@@@std@@YAXPAPAUIGame@@0AAU?$_Wrap_alloc@V?$allocator@PAUIGame@@@std@@@0@U_Scalar_ptr_iterator_tag@0@@Z
_TEXT	SEGMENT
__First$ = 8						; size = 4
__Last$ = 12						; size = 4
__Al$ = 16						; size = 4
___formal$ = 20						; size = 1
??$_Destroy_range@U?$_Wrap_alloc@V?$allocator@PAUIGame@@@std@@@std@@@std@@YAXPAPAUIGame@@0AAU?$_Wrap_alloc@V?$allocator@PAUIGame@@@std@@@0@U_Scalar_ptr_iterator_tag@0@@Z PROC ; std::_Destroy_range<std::_Wrap_alloc<std::allocator<IGame *> > >, COMDAT

; 96   : 	{	// destroy [_First, _Last), scalar type (do nothing)

	push	ebp
	mov	ebp, esp

; 97   : 	}

	pop	ebp
	ret	0
??$_Destroy_range@U?$_Wrap_alloc@V?$allocator@PAUIGame@@@std@@@std@@@std@@YAXPAPAUIGame@@0AAU?$_Wrap_alloc@V?$allocator@PAUIGame@@@std@@@0@U_Scalar_ptr_iterator_tag@0@@Z ENDP ; std::_Destroy_range<std::_Wrap_alloc<std::allocator<IGame *> > >
_TEXT	ENDS
; Function compile flags: /Odtp
; File c:\program files (x86)\microsoft visual studio 11.0\vc\include\xutility
;	COMDAT ??$_Ptr_cat@PAUIGame@@PAU1@@std@@YA?AU_Scalar_ptr_iterator_tag@0@PAPAUIGame@@0@Z
_TEXT	SEGMENT
__Cat$ = -1						; size = 1
___formal$ = 8						; size = 4
___formal$ = 12						; size = 4
??$_Ptr_cat@PAUIGame@@PAU1@@std@@YA?AU_Scalar_ptr_iterator_tag@0@PAPAUIGame@@0@Z PROC ; std::_Ptr_cat<IGame *,IGame *>, COMDAT

; 437  : 	{	// return pointer category from pointers

	push	ebp
	mov	ebp, esp
	push	ecx

; 438  : 	typename _Ptr_cat_helper<_Elem1, _Elem2>::type _Cat;
; 439  : 	return (_Cat);

	mov	al, BYTE PTR __Cat$[ebp]

; 440  : 	}

	mov	esp, ebp
	pop	ebp
	ret	0
??$_Ptr_cat@PAUIGame@@PAU1@@std@@YA?AU_Scalar_ptr_iterator_tag@0@PAPAUIGame@@0@Z ENDP ; std::_Ptr_cat<IGame *,IGame *>
_TEXT	ENDS
; Function compile flags: /Odtp
; File c:\program files (x86)\microsoft visual studio 11.0\vc\include\xmemory0
;	COMDAT ??$destroy@PAD@?$allocator_traits@V?$allocator@D@std@@@std@@SAXAAV?$allocator@D@1@PAPAD@Z
_TEXT	SEGMENT
__Al$ = 8						; size = 4
__Ptr$ = 12						; size = 4
??$destroy@PAD@?$allocator_traits@V?$allocator@D@std@@@std@@SAXAAV?$allocator@D@1@PAPAD@Z PROC ; std::allocator_traits<std::allocator<char> >::destroy<char *>, COMDAT

; 755  : 		static void destroy(_Alloc& _Al, _Uty *_Ptr)

	push	ebp
	mov	ebp, esp

; 756  : 		{	// destroy object at _Ptr
; 757  : 		_Al.destroy(_Ptr);

	mov	eax, DWORD PTR __Ptr$[ebp]
	push	eax
	mov	ecx, DWORD PTR __Al$[ebp]
	call	??$destroy@PAD@?$allocator@D@std@@QAEXPAPAD@Z ; std::allocator<char>::destroy<char *>

; 758  : 		}

	pop	ebp
	ret	0
??$destroy@PAD@?$allocator_traits@V?$allocator@D@std@@@std@@SAXAAV?$allocator@D@1@PAPAD@Z ENDP ; std::allocator_traits<std::allocator<char> >::destroy<char *>
_TEXT	ENDS
; Function compile flags: /Odtp
; File c:\program files (x86)\microsoft visual studio 11.0\vc\include\xmemory0
;	COMDAT ??$construct@PADAAPAD@?$allocator_traits@V?$allocator@D@std@@@std@@SAXAAV?$allocator@D@1@PAPADAAPAD@Z
_TEXT	SEGMENT
__Al$ = 8						; size = 4
__Ptr$ = 12						; size = 4
__V0$ = 16						; size = 4
??$construct@PADAAPAD@?$allocator_traits@V?$allocator@D@std@@@std@@SAXAAV?$allocator@D@1@PAPADAAPAD@Z PROC ; std::allocator_traits<std::allocator<char> >::construct<char *,char * &>, COMDAT

; 751  : _VARIADIC_EXPAND_0X(_ALLOC_TRAITS_SPECIAL_CONSTRUCT, , , , )

	push	ebp
	mov	ebp, esp
	mov	eax, DWORD PTR __V0$[ebp]
	push	eax
	call	??$forward@AAPAD@std@@YAAAPADAAPAD@Z	; std::forward<char * &>
	add	esp, 4
	push	eax
	mov	ecx, DWORD PTR __Ptr$[ebp]
	push	ecx
	mov	ecx, DWORD PTR __Al$[ebp]
	call	??$construct@PADAAPAD@?$allocator@D@std@@QAEXPAPADAAPAD@Z ; std::allocator<char>::construct<char *,char * &>
	pop	ebp
	ret	0
??$construct@PADAAPAD@?$allocator_traits@V?$allocator@D@std@@@std@@SAXAAV?$allocator@D@1@PAPADAAPAD@Z ENDP ; std::allocator_traits<std::allocator<char> >::construct<char *,char * &>
_TEXT	ENDS
; Function compile flags: /Odtp
; File c:\program files (x86)\microsoft visual studio 11.0\vc\include\type_traits
;	COMDAT ??$forward@AAPAD@std@@YAAAPADAAPAD@Z
_TEXT	SEGMENT
__Arg$ = 8						; size = 4
??$forward@AAPAD@std@@YAAAPADAAPAD@Z PROC		; std::forward<char * &>, COMDAT

; 1775 : 	{	// forward an lvalue

	push	ebp
	mov	ebp, esp

; 1776 : 	return (static_cast<_Ty&&>(_Arg));

	mov	eax, DWORD PTR __Arg$[ebp]

; 1777 : 	}

	pop	ebp
	ret	0
??$forward@AAPAD@std@@YAAAPADAAPAD@Z ENDP		; std::forward<char * &>
_TEXT	ENDS
; Function compile flags: /Odtp
; File c:\program files (x86)\microsoft visual studio 11.0\vc\include\xmemory0
;	COMDAT ??$construct@PAUIGame@@ABQAU1@@?$allocator_traits@V?$allocator@PAUIGame@@@std@@@std@@SAXAAV?$allocator@PAUIGame@@@1@PAPAUIGame@@ABQAU3@@Z
_TEXT	SEGMENT
__Al$ = 8						; size = 4
__Ptr$ = 12						; size = 4
__V0$ = 16						; size = 4
??$construct@PAUIGame@@ABQAU1@@?$allocator_traits@V?$allocator@PAUIGame@@@std@@@std@@SAXAAV?$allocator@PAUIGame@@@1@PAPAUIGame@@ABQAU3@@Z PROC ; std::allocator_traits<std::allocator<IGame *> >::construct<IGame *,IGame * const &>, COMDAT

; 751  : _VARIADIC_EXPAND_0X(_ALLOC_TRAITS_SPECIAL_CONSTRUCT, , , , )

	push	ebp
	mov	ebp, esp
	mov	eax, DWORD PTR __V0$[ebp]
	push	eax
	call	??$forward@ABQAUIGame@@@std@@YAABQAUIGame@@ABQAU1@@Z ; std::forward<IGame * const &>
	add	esp, 4
	push	eax
	mov	ecx, DWORD PTR __Ptr$[ebp]
	push	ecx
	mov	ecx, DWORD PTR __Al$[ebp]
	call	?construct@?$allocator@PAUIGame@@@std@@QAEXPAPAUIGame@@ABQAU3@@Z ; std::allocator<IGame *>::construct
	pop	ebp
	ret	0
??$construct@PAUIGame@@ABQAU1@@?$allocator_traits@V?$allocator@PAUIGame@@@std@@@std@@SAXAAV?$allocator@PAUIGame@@@1@PAPAUIGame@@ABQAU3@@Z ENDP ; std::allocator_traits<std::allocator<IGame *> >::construct<IGame *,IGame * const &>
_TEXT	ENDS
; Function compile flags: /Odtp
; File c:\program files (x86)\microsoft visual studio 11.0\vc\include\type_traits
;	COMDAT ??$forward@ABQAUIGame@@@std@@YAABQAUIGame@@ABQAU1@@Z
_TEXT	SEGMENT
__Arg$ = 8						; size = 4
??$forward@ABQAUIGame@@@std@@YAABQAUIGame@@ABQAU1@@Z PROC ; std::forward<IGame * const &>, COMDAT

; 1775 : 	{	// forward an lvalue

	push	ebp
	mov	ebp, esp

; 1776 : 	return (static_cast<_Ty&&>(_Arg));

	mov	eax, DWORD PTR __Arg$[ebp]

; 1777 : 	}

	pop	ebp
	ret	0
??$forward@ABQAUIGame@@@std@@YAABQAUIGame@@ABQAU1@@Z ENDP ; std::forward<IGame * const &>
_TEXT	ENDS
; Function compile flags: /Odtp
; File c:\program files (x86)\microsoft visual studio 11.0\vc\include\xmemory0
;	COMDAT ??$construct@PAUIGame@@AAPAU1@@?$allocator_traits@V?$allocator@PAUIGame@@@std@@@std@@SAXAAV?$allocator@PAUIGame@@@1@PAPAUIGame@@AAPAU3@@Z
_TEXT	SEGMENT
__Al$ = 8						; size = 4
__Ptr$ = 12						; size = 4
__V0$ = 16						; size = 4
??$construct@PAUIGame@@AAPAU1@@?$allocator_traits@V?$allocator@PAUIGame@@@std@@@std@@SAXAAV?$allocator@PAUIGame@@@1@PAPAUIGame@@AAPAU3@@Z PROC ; std::allocator_traits<std::allocator<IGame *> >::construct<IGame *,IGame * &>, COMDAT

; 751  : _VARIADIC_EXPAND_0X(_ALLOC_TRAITS_SPECIAL_CONSTRUCT, , , , )

	push	ebp
	mov	ebp, esp
	mov	eax, DWORD PTR __V0$[ebp]
	push	eax
	call	??$forward@AAPAUIGame@@@std@@YAAAPAUIGame@@AAPAU1@@Z ; std::forward<IGame * &>
	add	esp, 4
	push	eax
	mov	ecx, DWORD PTR __Ptr$[ebp]
	push	ecx
	mov	ecx, DWORD PTR __Al$[ebp]
	call	??$construct@PAUIGame@@AAPAU1@@?$allocator@PAUIGame@@@std@@QAEXPAPAUIGame@@AAPAU2@@Z ; std::allocator<IGame *>::construct<IGame *,IGame * &>
	pop	ebp
	ret	0
??$construct@PAUIGame@@AAPAU1@@?$allocator_traits@V?$allocator@PAUIGame@@@std@@@std@@SAXAAV?$allocator@PAUIGame@@@1@PAPAUIGame@@AAPAU3@@Z ENDP ; std::allocator_traits<std::allocator<IGame *> >::construct<IGame *,IGame * &>
_TEXT	ENDS
; Function compile flags: /Odtp
; File c:\program files (x86)\microsoft visual studio 11.0\vc\include\type_traits
;	COMDAT ??$forward@AAPAUIGame@@@std@@YAAAPAUIGame@@AAPAU1@@Z
_TEXT	SEGMENT
__Arg$ = 8						; size = 4
??$forward@AAPAUIGame@@@std@@YAAAPAUIGame@@AAPAU1@@Z PROC ; std::forward<IGame * &>, COMDAT

; 1775 : 	{	// forward an lvalue

	push	ebp
	mov	ebp, esp

; 1776 : 	return (static_cast<_Ty&&>(_Arg));

	mov	eax, DWORD PTR __Arg$[ebp]

; 1777 : 	}

	pop	ebp
	ret	0
??$forward@AAPAUIGame@@@std@@YAAAPAUIGame@@AAPAU1@@Z ENDP ; std::forward<IGame * &>
_TEXT	ENDS
; Function compile flags: /Odtp
; File c:\program files (x86)\microsoft visual studio 11.0\vc\include\comip.h
;	COMDAT ??$_QueryInterface@V?$_com_ptr_t@V?$_com_IIID@UIGame@GNETCORELib@@$1?_GUID_dda57123_d4e3_11d2_9018_004f4e006398@@3U__s_GUID@@B@@@@@?$_com_ptr_t@V?$_com_IIID@UIHost@GNETCORELib@@$1?_GUID_b6b03a0c_d547_11d2_9018_004f4e006398@@3U__s_GUID@@B@@@@AAEJV?$_com_ptr_t@V?$_com_IIID@UIGame@GNETCORELib@@$1?_GUID_dda57123_d4e3_11d2_9018_004f4e006398@@3U__s_GUID@@B@@@@@Z
_TEXT	SEGMENT
$T1 = -24						; size = 4
_pInterface$2 = -20					; size = 4
_this$ = -16						; size = 4
tv86 = -12						; size = 4
tv77 = -8						; size = 4
_hr$ = -4						; size = 4
_p$ = 8							; size = 4
??$_QueryInterface@V?$_com_ptr_t@V?$_com_IIID@UIGame@GNETCORELib@@$1?_GUID_dda57123_d4e3_11d2_9018_004f4e006398@@3U__s_GUID@@B@@@@@?$_com_ptr_t@V?$_com_IIID@UIHost@GNETCORELib@@$1?_GUID_b6b03a0c_d547_11d2_9018_004f4e006398@@3U__s_GUID@@B@@@@AAEJV?$_com_ptr_t@V?$_com_IIID@UIGame@GNETCORELib@@$1?_GUID_dda57123_d4e3_11d2_9018_004f4e006398@@3U__s_GUID@@B@@@@@Z PROC ; _com_ptr_t<_com_IIID<GNETCORELib::IHost,&_GUID_b6b03a0c_d547_11d2_9018_004f4e006398> >::_QueryInterface<_com_ptr_t<_com_IIID<GNETCORELib::IGame,&_GUID_dda57123_d4e3_11d2_9018_004f4e006398> > >, COMDAT
; _this$ = ecx

; 800  :     template<typename _InterfacePtr> HRESULT _QueryInterface(_InterfacePtr p) throw()

	push	ebp
	mov	ebp, esp
	sub	esp, 24					; 00000018H
	mov	DWORD PTR _this$[ebp], ecx

; 801  :     {
; 802  :         HRESULT hr;
; 803  : 
; 804  :         // Can't QI NULL
; 805  :         //
; 806  :         if (p != NULL) {

	push	0
	lea	ecx, DWORD PTR _p$[ebp]
	call	??9?$_com_ptr_t@V?$_com_IIID@UIGame@GNETCORELib@@$1?_GUID_dda57123_d4e3_11d2_9018_004f4e006398@@3U__s_GUID@@B@@@@QBE_NH@Z ; _com_ptr_t<_com_IIID<GNETCORELib::IGame,&_GUID_dda57123_d4e3_11d2_9018_004f4e006398> >::operator!=
	movzx	eax, al
	test	eax, eax
	je	SHORT $LN2@QueryInter

; 807  :             // Query for this interface
; 808  :             //
; 809  :             Interface* pInterface;
; 810  :             hr = p->QueryInterface(GetIID(), reinterpret_cast<void**>(&pInterface));

	lea	ecx, DWORD PTR _p$[ebp]
	call	??C?$_com_ptr_t@V?$_com_IIID@UIGame@GNETCORELib@@$1?_GUID_dda57123_d4e3_11d2_9018_004f4e006398@@3U__s_GUID@@B@@@@QBEPAUIGame@GNETCORELib@@XZ ; _com_ptr_t<_com_IIID<GNETCORELib::IGame,&_GUID_dda57123_d4e3_11d2_9018_004f4e006398> >::operator->
	mov	DWORD PTR tv77[ebp], eax
	lea	ecx, DWORD PTR _pInterface$2[ebp]
	push	ecx
	call	?GetIID@?$_com_ptr_t@V?$_com_IIID@UIHost@GNETCORELib@@$1?_GUID_b6b03a0c_d547_11d2_9018_004f4e006398@@3U__s_GUID@@B@@@@SAABU_GUID@@XZ ; _com_ptr_t<_com_IIID<GNETCORELib::IHost,&_GUID_b6b03a0c_d547_11d2_9018_004f4e006398> >::GetIID
	push	eax
	mov	edx, DWORD PTR tv77[ebp]
	push	edx
	mov	eax, DWORD PTR tv77[ebp]
	mov	ecx, DWORD PTR [eax]
	mov	edx, DWORD PTR [ecx]
	call	edx
	mov	DWORD PTR _hr$[ebp], eax

; 811  : 
; 812  :             // Save the interface without AddRef()ing.
; 813  :             //
; 814  :             Attach(SUCCEEDED(hr)? pInterface: NULL);

	cmp	DWORD PTR _hr$[ebp], 0
	jl	SHORT $LN5@QueryInter
	mov	eax, DWORD PTR _pInterface$2[ebp]
	mov	DWORD PTR tv86[ebp], eax
	jmp	SHORT $LN6@QueryInter
$LN5@QueryInter:
	mov	DWORD PTR tv86[ebp], 0
$LN6@QueryInter:
	mov	ecx, DWORD PTR tv86[ebp]
	push	ecx
	mov	ecx, DWORD PTR _this$[ebp]
	call	?Attach@?$_com_ptr_t@V?$_com_IIID@UIHost@GNETCORELib@@$1?_GUID_b6b03a0c_d547_11d2_9018_004f4e006398@@3U__s_GUID@@B@@@@QAEXPAUIHost@GNETCORELib@@@Z ; _com_ptr_t<_com_IIID<GNETCORELib::IHost,&_GUID_b6b03a0c_d547_11d2_9018_004f4e006398> >::Attach

; 815  :         }
; 816  :         else {

	jmp	SHORT $LN1@QueryInter
$LN2@QueryInter:

; 817  :             operator=(static_cast<Interface*>(NULL));

	push	0
	mov	ecx, DWORD PTR _this$[ebp]
	call	??$?4UIHost@GNETCORELib@@@?$_com_ptr_t@V?$_com_IIID@UIHost@GNETCORELib@@$1?_GUID_b6b03a0c_d547_11d2_9018_004f4e006398@@3U__s_GUID@@B@@@@QAEAAV0@PAUIHost@GNETCORELib@@@Z ; _com_ptr_t<_com_IIID<GNETCORELib::IHost,&_GUID_b6b03a0c_d547_11d2_9018_004f4e006398> >::operator=<GNETCORELib::IHost>

; 818  :             hr = E_NOINTERFACE;

	mov	DWORD PTR _hr$[ebp], -2147467262	; 80004002H
$LN1@QueryInter:

; 819  :         }
; 820  : 
; 821  :         return hr;

	mov	edx, DWORD PTR _hr$[ebp]
	mov	DWORD PTR $T1[ebp], edx
	lea	ecx, DWORD PTR _p$[ebp]
	call	??1?$_com_ptr_t@V?$_com_IIID@UIGame@GNETCORELib@@$1?_GUID_dda57123_d4e3_11d2_9018_004f4e006398@@3U__s_GUID@@B@@@@QAE@XZ ; _com_ptr_t<_com_IIID<GNETCORELib::IGame,&_GUID_dda57123_d4e3_11d2_9018_004f4e006398> >::~_com_ptr_t<_com_IIID<GNETCORELib::IGame,&_GUID_dda57123_d4e3_11d2_9018_004f4e006398> >
	mov	eax, DWORD PTR $T1[ebp]

; 822  :     }

	mov	esp, ebp
	pop	ebp
	ret	4
??$_QueryInterface@V?$_com_ptr_t@V?$_com_IIID@UIGame@GNETCORELib@@$1?_GUID_dda57123_d4e3_11d2_9018_004f4e006398@@3U__s_GUID@@B@@@@@?$_com_ptr_t@V?$_com_IIID@UIHost@GNETCORELib@@$1?_GUID_b6b03a0c_d547_11d2_9018_004f4e006398@@3U__s_GUID@@B@@@@AAEJV?$_com_ptr_t@V?$_com_IIID@UIGame@GNETCORELib@@$1?_GUID_dda57123_d4e3_11d2_9018_004f4e006398@@3U__s_GUID@@B@@@@@Z ENDP ; _com_ptr_t<_com_IIID<GNETCORELib::IHost,&_GUID_b6b03a0c_d547_11d2_9018_004f4e006398> >::_QueryInterface<_com_ptr_t<_com_IIID<GNETCORELib::IGame,&_GUID_dda57123_d4e3_11d2_9018_004f4e006398> > >
_TEXT	ENDS
; Function compile flags: /Odtp
; File c:\program files (x86)\microsoft visual studio 11.0\vc\include\comip.h
;	COMDAT ??$_QueryInterface@PAUIGame@@@?$_com_ptr_t@V?$_com_IIID@UIGame@GNETCORELib@@$1?_GUID_dda57123_d4e3_11d2_9018_004f4e006398@@3U__s_GUID@@B@@@@AAEJPAUIGame@@@Z
_TEXT	SEGMENT
_pInterface$1 = -16					; size = 4
_this$ = -12						; size = 4
tv78 = -8						; size = 4
_hr$ = -4						; size = 4
_p$ = 8							; size = 4
??$_QueryInterface@PAUIGame@@@?$_com_ptr_t@V?$_com_IIID@UIGame@GNETCORELib@@$1?_GUID_dda57123_d4e3_11d2_9018_004f4e006398@@3U__s_GUID@@B@@@@AAEJPAUIGame@@@Z PROC ; _com_ptr_t<_com_IIID<GNETCORELib::IGame,&_GUID_dda57123_d4e3_11d2_9018_004f4e006398> >::_QueryInterface<IGame *>, COMDAT
; _this$ = ecx

; 800  :     template<typename _InterfacePtr> HRESULT _QueryInterface(_InterfacePtr p) throw()

	push	ebp
	mov	ebp, esp
	sub	esp, 16					; 00000010H
	mov	DWORD PTR _this$[ebp], ecx

; 801  :     {
; 802  :         HRESULT hr;
; 803  : 
; 804  :         // Can't QI NULL
; 805  :         //
; 806  :         if (p != NULL) {

	cmp	DWORD PTR _p$[ebp], 0
	je	SHORT $LN2@QueryInter

; 807  :             // Query for this interface
; 808  :             //
; 809  :             Interface* pInterface;
; 810  :             hr = p->QueryInterface(GetIID(), reinterpret_cast<void**>(&pInterface));

	lea	eax, DWORD PTR _pInterface$1[ebp]
	push	eax
	call	?GetIID@?$_com_ptr_t@V?$_com_IIID@UIGame@GNETCORELib@@$1?_GUID_dda57123_d4e3_11d2_9018_004f4e006398@@3U__s_GUID@@B@@@@SAABU_GUID@@XZ ; _com_ptr_t<_com_IIID<GNETCORELib::IGame,&_GUID_dda57123_d4e3_11d2_9018_004f4e006398> >::GetIID
	push	eax
	mov	ecx, DWORD PTR _p$[ebp]
	mov	edx, DWORD PTR [ecx]
	mov	eax, DWORD PTR _p$[ebp]
	push	eax
	mov	ecx, DWORD PTR [edx]
	call	ecx
	mov	DWORD PTR _hr$[ebp], eax

; 811  : 
; 812  :             // Save the interface without AddRef()ing.
; 813  :             //
; 814  :             Attach(SUCCEEDED(hr)? pInterface: NULL);

	cmp	DWORD PTR _hr$[ebp], 0
	jl	SHORT $LN5@QueryInter
	mov	edx, DWORD PTR _pInterface$1[ebp]
	mov	DWORD PTR tv78[ebp], edx
	jmp	SHORT $LN6@QueryInter
$LN5@QueryInter:
	mov	DWORD PTR tv78[ebp], 0
$LN6@QueryInter:
	mov	eax, DWORD PTR tv78[ebp]
	push	eax
	mov	ecx, DWORD PTR _this$[ebp]
	call	?Attach@?$_com_ptr_t@V?$_com_IIID@UIGame@GNETCORELib@@$1?_GUID_dda57123_d4e3_11d2_9018_004f4e006398@@3U__s_GUID@@B@@@@QAEXPAUIGame@GNETCORELib@@@Z ; _com_ptr_t<_com_IIID<GNETCORELib::IGame,&_GUID_dda57123_d4e3_11d2_9018_004f4e006398> >::Attach

; 815  :         }
; 816  :         else {

	jmp	SHORT $LN1@QueryInter
$LN2@QueryInter:

; 817  :             operator=(static_cast<Interface*>(NULL));

	push	0
	mov	ecx, DWORD PTR _this$[ebp]
	call	??$?4UIGame@GNETCORELib@@@?$_com_ptr_t@V?$_com_IIID@UIGame@GNETCORELib@@$1?_GUID_dda57123_d4e3_11d2_9018_004f4e006398@@3U__s_GUID@@B@@@@QAEAAV0@PAUIGame@GNETCORELib@@@Z ; _com_ptr_t<_com_IIID<GNETCORELib::IGame,&_GUID_dda57123_d4e3_11d2_9018_004f4e006398> >::operator=<GNETCORELib::IGame>

; 818  :             hr = E_NOINTERFACE;

	mov	DWORD PTR _hr$[ebp], -2147467262	; 80004002H
$LN1@QueryInter:

; 819  :         }
; 820  : 
; 821  :         return hr;

	mov	eax, DWORD PTR _hr$[ebp]

; 822  :     }

	mov	esp, ebp
	pop	ebp
	ret	4
??$_QueryInterface@PAUIGame@@@?$_com_ptr_t@V?$_com_IIID@UIGame@GNETCORELib@@$1?_GUID_dda57123_d4e3_11d2_9018_004f4e006398@@3U__s_GUID@@B@@@@AAEJPAUIGame@@@Z ENDP ; _com_ptr_t<_com_IIID<GNETCORELib::IGame,&_GUID_dda57123_d4e3_11d2_9018_004f4e006398> >::_QueryInterface<IGame *>
_TEXT	ENDS
; Function compile flags: /Odtp
;	COMDAT ??__F?_System_object@?$_Error_objects@H@std@@2V_System_error_category@2@A@@YAXXZ
text$yd	SEGMENT
??__F?_System_object@?$_Error_objects@H@std@@2V_System_error_category@2@A@@YAXXZ PROC ; `dynamic atexit destructor for 'std::_Error_objects<int>::_System_object'', COMDAT
	push	ebp
	mov	ebp, esp
	mov	ecx, OFFSET ?_System_object@?$_Error_objects@H@std@@2V_System_error_category@2@A ; std::_Error_objects<int>::_System_object
	call	??1_System_error_category@std@@UAE@XZ
	pop	ebp
	ret	0
??__F?_System_object@?$_Error_objects@H@std@@2V_System_error_category@2@A@@YAXXZ ENDP ; `dynamic atexit destructor for 'std::_Error_objects<int>::_System_object''
text$yd	ENDS
; Function compile flags: /Odtp
; File c:\program files (x86)\microsoft visual studio 11.0\vc\include\xmemory0
;	COMDAT ??__E?_System_object@?$_Error_objects@H@std@@2V_System_error_category@2@A@@YAXXZ
text$yc	SEGMENT
??__E?_System_object@?$_Error_objects@H@std@@2V_System_error_category@2@A@@YAXXZ PROC ; `dynamic initializer for 'std::_Error_objects<int>::_System_object'', COMDAT

; 627  : 		{	// estimate maximum array size

	push	ebp
	mov	ebp, esp
	mov	ecx, OFFSET ?_System_object@?$_Error_objects@H@std@@2V_System_error_category@2@A ; std::_Error_objects<int>::_System_object
	call	??0_System_error_category@std@@QAE@XZ	; std::_System_error_category::_System_error_category
	push	OFFSET ??__F?_System_object@?$_Error_objects@H@std@@2V_System_error_category@2@A@@YAXXZ ; `dynamic atexit destructor for 'std::_Error_objects<int>::_System_object''
	call	_atexit
	add	esp, 4
	pop	ebp
	ret	0
??__E?_System_object@?$_Error_objects@H@std@@2V_System_error_category@2@A@@YAXXZ ENDP ; `dynamic initializer for 'std::_Error_objects<int>::_System_object''
text$yc	ENDS
; Function compile flags: /Odtp
;	COMDAT ??__F?_Iostream_object@?$_Error_objects@H@std@@2V_Iostream_error_category@2@A@@YAXXZ
text$yd	SEGMENT
??__F?_Iostream_object@?$_Error_objects@H@std@@2V_Iostream_error_category@2@A@@YAXXZ PROC ; `dynamic atexit destructor for 'std::_Error_objects<int>::_Iostream_object'', COMDAT
	push	ebp
	mov	ebp, esp
	mov	ecx, OFFSET ?_Iostream_object@?$_Error_objects@H@std@@2V_Iostream_error_category@2@A ; std::_Error_objects<int>::_Iostream_object
	call	??1_Iostream_error_category@std@@UAE@XZ
	pop	ebp
	ret	0
??__F?_Iostream_object@?$_Error_objects@H@std@@2V_Iostream_error_category@2@A@@YAXXZ ENDP ; `dynamic atexit destructor for 'std::_Error_objects<int>::_Iostream_object''
text$yd	ENDS
; Function compile flags: /Odtp
; File c:\program files (x86)\microsoft visual studio 11.0\vc\include\xmemory0
;	COMDAT ??__E?_Iostream_object@?$_Error_objects@H@std@@2V_Iostream_error_category@2@A@@YAXXZ
text$yc	SEGMENT
??__E?_Iostream_object@?$_Error_objects@H@std@@2V_Iostream_error_category@2@A@@YAXXZ PROC ; `dynamic initializer for 'std::_Error_objects<int>::_Iostream_object'', COMDAT

; 627  : 		{	// estimate maximum array size

	push	ebp
	mov	ebp, esp
	mov	ecx, OFFSET ?_Iostream_object@?$_Error_objects@H@std@@2V_Iostream_error_category@2@A ; std::_Error_objects<int>::_Iostream_object
	call	??0_Iostream_error_category@std@@QAE@XZ	; std::_Iostream_error_category::_Iostream_error_category
	push	OFFSET ??__F?_Iostream_object@?$_Error_objects@H@std@@2V_Iostream_error_category@2@A@@YAXXZ ; `dynamic atexit destructor for 'std::_Error_objects<int>::_Iostream_object''
	call	_atexit
	add	esp, 4
	pop	ebp
	ret	0
??__E?_Iostream_object@?$_Error_objects@H@std@@2V_Iostream_error_category@2@A@@YAXXZ ENDP ; `dynamic initializer for 'std::_Error_objects<int>::_Iostream_object''
text$yc	ENDS
; Function compile flags: /Odtp
;	COMDAT ??__F?_Generic_object@?$_Error_objects@H@std@@2V_Generic_error_category@2@A@@YAXXZ
text$yd	SEGMENT
??__F?_Generic_object@?$_Error_objects@H@std@@2V_Generic_error_category@2@A@@YAXXZ PROC ; `dynamic atexit destructor for 'std::_Error_objects<int>::_Generic_object'', COMDAT
	push	ebp
	mov	ebp, esp
	mov	ecx, OFFSET ?_Generic_object@?$_Error_objects@H@std@@2V_Generic_error_category@2@A ; std::_Error_objects<int>::_Generic_object
	call	??1_Generic_error_category@std@@UAE@XZ
	pop	ebp
	ret	0
??__F?_Generic_object@?$_Error_objects@H@std@@2V_Generic_error_category@2@A@@YAXXZ ENDP ; `dynamic atexit destructor for 'std::_Error_objects<int>::_Generic_object''
text$yd	ENDS
; Function compile flags: /Odtp
; File c:\program files (x86)\microsoft visual studio 11.0\vc\include\xmemory0
;	COMDAT ??__E?_Generic_object@?$_Error_objects@H@std@@2V_Generic_error_category@2@A@@YAXXZ
text$yc	SEGMENT
??__E?_Generic_object@?$_Error_objects@H@std@@2V_Generic_error_category@2@A@@YAXXZ PROC ; `dynamic initializer for 'std::_Error_objects<int>::_Generic_object'', COMDAT

; 627  : 		{	// estimate maximum array size

	push	ebp
	mov	ebp, esp
	mov	ecx, OFFSET ?_Generic_object@?$_Error_objects@H@std@@2V_Generic_error_category@2@A ; std::_Error_objects<int>::_Generic_object
	call	??0_Generic_error_category@std@@QAE@XZ	; std::_Generic_error_category::_Generic_error_category
	push	OFFSET ??__F?_Generic_object@?$_Error_objects@H@std@@2V_Generic_error_category@2@A@@YAXXZ ; `dynamic atexit destructor for 'std::_Error_objects<int>::_Generic_object''
	call	_atexit
	add	esp, 4
	pop	ebp
	ret	0
??__E?_Generic_object@?$_Error_objects@H@std@@2V_Generic_error_category@2@A@@YAXXZ ENDP ; `dynamic initializer for 'std::_Error_objects<int>::_Generic_object''
text$yc	ENDS
; Function compile flags: /Odtp
; File c:\program files (x86)\microsoft visual studio 11.0\vc\include\xmemory0
;	COMDAT ??$_Allocate@D@std@@YAPADIPAD@Z
_TEXT	SEGMENT
__Ptr$ = -4						; size = 4
__Count$ = 8						; size = 4
___formal$ = 12						; size = 4
??$_Allocate@D@std@@YAPADIPAD@Z PROC			; std::_Allocate<char>, COMDAT

; 22   : 	{	// allocate storage for _Count elements of type _Ty

	push	ebp
	mov	ebp, esp
	push	ecx

; 23   : 	void *_Ptr = 0;

	mov	DWORD PTR __Ptr$[ebp], 0

; 24   : 
; 25   : 	if (_Count == 0)

	cmp	DWORD PTR __Count$[ebp], 0
	jne	SHORT $LN4@Allocate

; 26   : 		;
; 27   : 	else if (((size_t)(-1) / sizeof (_Ty) < _Count)

	jmp	SHORT $LN3@Allocate
$LN4@Allocate:

; 28   : 		|| (_Ptr = ::operator new(_Count * sizeof (_Ty))) == 0)

	cmp	DWORD PTR __Count$[ebp], -1
	ja	SHORT $LN1@Allocate
	mov	eax, DWORD PTR __Count$[ebp]
	push	eax
	call	??2@YAPAXI@Z				; operator new
	add	esp, 4
	mov	DWORD PTR __Ptr$[ebp], eax
	cmp	DWORD PTR __Ptr$[ebp], 0
	jne	SHORT $LN3@Allocate
$LN1@Allocate:

; 29   : 		_Xbad_alloc();	// report no memory

	call	?_Xbad_alloc@std@@YAXXZ			; std::_Xbad_alloc
$LN3@Allocate:

; 30   : 
; 31   : 	return ((_Ty *)_Ptr);

	mov	eax, DWORD PTR __Ptr$[ebp]
$LN6@Allocate:

; 32   : 	}

	mov	esp, ebp
	pop	ebp
	ret	0
??$_Allocate@D@std@@YAPADIPAD@Z ENDP			; std::_Allocate<char>
_TEXT	ENDS
; Function compile flags: /Odtp
; File c:\program files (x86)\microsoft visual studio 11.0\vc\include\xmemory0
;	COMDAT ??$_Allocate@PAUIGame@@@std@@YAPAPAUIGame@@IPAPAU1@@Z
_TEXT	SEGMENT
__Ptr$ = -4						; size = 4
__Count$ = 8						; size = 4
___formal$ = 12						; size = 4
??$_Allocate@PAUIGame@@@std@@YAPAPAUIGame@@IPAPAU1@@Z PROC ; std::_Allocate<IGame *>, COMDAT

; 22   : 	{	// allocate storage for _Count elements of type _Ty

	push	ebp
	mov	ebp, esp
	push	ecx

; 23   : 	void *_Ptr = 0;

	mov	DWORD PTR __Ptr$[ebp], 0

; 24   : 
; 25   : 	if (_Count == 0)

	cmp	DWORD PTR __Count$[ebp], 0
	jne	SHORT $LN4@Allocate

; 26   : 		;
; 27   : 	else if (((size_t)(-1) / sizeof (_Ty) < _Count)

	jmp	SHORT $LN3@Allocate
$LN4@Allocate:

; 28   : 		|| (_Ptr = ::operator new(_Count * sizeof (_Ty))) == 0)

	cmp	DWORD PTR __Count$[ebp], 1073741823	; 3fffffffH
	ja	SHORT $LN1@Allocate
	mov	eax, DWORD PTR __Count$[ebp]
	shl	eax, 2
	push	eax
	call	??2@YAPAXI@Z				; operator new
	add	esp, 4
	mov	DWORD PTR __Ptr$[ebp], eax
	cmp	DWORD PTR __Ptr$[ebp], 0
	jne	SHORT $LN3@Allocate
$LN1@Allocate:

; 29   : 		_Xbad_alloc();	// report no memory

	call	?_Xbad_alloc@std@@YAXXZ			; std::_Xbad_alloc
$LN3@Allocate:

; 30   : 
; 31   : 	return ((_Ty *)_Ptr);

	mov	eax, DWORD PTR __Ptr$[ebp]
$LN6@Allocate:

; 32   : 	}

	mov	esp, ebp
	pop	ebp
	ret	0
??$_Allocate@PAUIGame@@@std@@YAPAPAUIGame@@IPAPAU1@@Z ENDP ; std::_Allocate<IGame *>
_TEXT	ENDS
; Function compile flags: /Odtp
; File c:\program files (x86)\microsoft visual studio 11.0\vc\include\vector
;	COMDAT ??$_Umove@PAPAUIGame@@@?$vector@PAUIGame@@V?$allocator@PAUIGame@@@std@@@std@@IAEPAPAUIGame@@PAPAU2@00@Z
_TEXT	SEGMENT
_this$ = -8						; size = 4
__Alval$ = -1						; size = 1
__First$ = 8						; size = 4
__Last$ = 12						; size = 4
__Ptr$ = 16						; size = 4
??$_Umove@PAPAUIGame@@@?$vector@PAUIGame@@V?$allocator@PAUIGame@@@std@@@std@@IAEPAPAUIGame@@PAPAU2@00@Z PROC ; std::vector<IGame *,std::allocator<IGame *> >::_Umove<IGame * *>, COMDAT
; _this$ = ecx

; 1557 : 		pointer _Umove(_Iter _First, _Iter _Last, pointer _Ptr)

	push	ebp
	mov	ebp, esp
	sub	esp, 8
	mov	DWORD PTR _this$[ebp], ecx

; 1558 : 		{	// move initializing [_First, _Last), using allocator
; 1559 : 		_Alty _Alval(this->_Getal());

	lea	eax, DWORD PTR __Alval$[ebp]
	push	eax
	mov	ecx, DWORD PTR _this$[ebp]
	call	?_Getal@?$_Vector_alloc@$0A@U?$_Vec_base_types@PAUIGame@@V?$allocator@PAUIGame@@@std@@@std@@@std@@QBE?AU?$_Wrap_alloc@V?$allocator@PAUIGame@@@std@@@2@XZ ; std::_Vector_alloc<0,std::_Vec_base_types<IGame *,std::allocator<IGame *> > >::_Getal

; 1560 : 		return (_Uninitialized_move(_First, _Last,
; 1561 : 			_Ptr, _Alval));

	lea	ecx, DWORD PTR __Alval$[ebp]
	push	ecx
	mov	edx, DWORD PTR __Ptr$[ebp]
	push	edx
	mov	eax, DWORD PTR __Last$[ebp]
	push	eax
	mov	ecx, DWORD PTR __First$[ebp]
	push	ecx
	call	??$_Uninitialized_move@PAPAUIGame@@PAPAU1@U?$_Wrap_alloc@V?$allocator@PAUIGame@@@std@@@std@@@std@@YAPAPAUIGame@@PAPAU1@00AAU?$_Wrap_alloc@V?$allocator@PAUIGame@@@std@@@0@@Z ; std::_Uninitialized_move<IGame * *,IGame * *,std::_Wrap_alloc<std::allocator<IGame *> > >
	add	esp, 16					; 00000010H

; 1562 : 		}

	mov	esp, ebp
	pop	ebp
	ret	12					; 0000000cH
