; Listing generated by Microsoft (R) Optimizing Compiler Version 17.00.51106.1 

	TITLE	C:\Users\Zhitao Li\Documents\Visual Studio 2012\Projects\Freefalcon\UI\SRC\comms\ui_comms.cpp
	.686P
	.XMM
	include listing.inc
	.model	flat

INCLUDELIB LIBCMT
INCLUDELIB OLDNAMES

PUBLIC	?traps@_Num_base@std@@2_NB			; std::_Num_base::traps
PUBLIC	_IID_IRemoteMasterServer
PUBLIC	_IID_IRemoteMasterServerEvents
PUBLIC	_IID_IGame
PUBLIC	?round_style@_Num_base@std@@2W4float_round_style@2@B ; std::_Num_base::round_style
PUBLIC	?VT@?$CVarTypeInfo@PA_K@ATL@@2GB		; ATL::CVarTypeInfo<unsigned __int64 *>::VT
PUBLIC	_IID_IGameEvents
PUBLIC	?pmField@?$CVarTypeInfo@PA_K@ATL@@2QQtagVARIANT@@PA_KQ3@ ; ATL::CVarTypeInfo<unsigned __int64 *>::pmField
PUBLIC	?digits@_Num_base@std@@2HB			; std::_Num_base::digits
PUBLIC	?digits10@_Num_base@std@@2HB			; std::_Num_base::digits10
PUBLIC	?max_digits10@_Num_base@std@@2HB		; std::_Num_base::max_digits10
PUBLIC	?max_exponent@_Num_base@std@@2HB		; std::_Num_base::max_exponent
PUBLIC	?VT@?$CVarTypeInfo@M@ATL@@2GB			; ATL::CVarTypeInfo<float>::VT
PUBLIC	?max_exponent10@_Num_base@std@@2HB		; std::_Num_base::max_exponent10
PUBLIC	?pmField@?$CVarTypeInfo@M@ATL@@2QQtagVARIANT@@MQ3@ ; ATL::CVarTypeInfo<float>::pmField
PUBLIC	?min_exponent@_Num_base@std@@2HB		; std::_Num_base::min_exponent
PUBLIC	?min_exponent10@_Num_base@std@@2HB		; std::_Num_base::min_exponent10
PUBLIC	?radix@_Num_base@std@@2HB			; std::_Num_base::radix
PUBLIC	?VT@?$CVarTypeInfo@PAM@ATL@@2GB			; ATL::CVarTypeInfo<float *>::VT
PUBLIC	?pmField@?$CVarTypeInfo@PAM@ATL@@2QQtagVARIANT@@PAMQ3@ ; ATL::CVarTypeInfo<float *>::pmField
PUBLIC	?VT@?$CVarTypeInfo@N@ATL@@2GB			; ATL::CVarTypeInfo<double>::VT
PUBLIC	?pmField@?$CVarTypeInfo@N@ATL@@2QQtagVARIANT@@NQ3@ ; ATL::CVarTypeInfo<double>::pmField
PUBLIC	?VT@?$CVarTypeInfo@PAN@ATL@@2GB			; ATL::CVarTypeInfo<double *>::VT
PUBLIC	?is_bounded@_Num_int_base@std@@2_NB		; std::_Num_int_base::is_bounded
PUBLIC	?pmField@?$CVarTypeInfo@PAN@ATL@@2QQtagVARIANT@@PANQ3@ ; ATL::CVarTypeInfo<double *>::pmField
PUBLIC	?is_exact@_Num_int_base@std@@2_NB		; std::_Num_int_base::is_exact
PUBLIC	?is_integer@_Num_int_base@std@@2_NB		; std::_Num_int_base::is_integer
PUBLIC	?is_modulo@_Num_int_base@std@@2_NB		; std::_Num_int_base::is_modulo
PUBLIC	?VT@?$CVarTypeInfo@PAUtagVARIANT@@@ATL@@2GB	; ATL::CVarTypeInfo<tagVARIANT *>::VT
PUBLIC	?is_specialized@_Num_int_base@std@@2_NB		; std::_Num_int_base::is_specialized
PUBLIC	?radix@_Num_int_base@std@@2HB			; std::_Num_int_base::radix
PUBLIC	?VT@?$CVarTypeInfo@PA_W@ATL@@2GB		; ATL::CVarTypeInfo<wchar_t *>::VT
PUBLIC	?pmField@?$CVarTypeInfo@PA_W@ATL@@2QQtagVARIANT@@PA_WQ3@ ; ATL::CVarTypeInfo<wchar_t *>::pmField
PUBLIC	?has_denorm@_Num_float_base@std@@2W4float_denorm_style@2@B ; std::_Num_float_base::has_denorm
PUBLIC	?has_denorm_loss@_Num_float_base@std@@2_NB	; std::_Num_float_base::has_denorm_loss
PUBLIC	?SIMDIRTYDATA_INTERVAL@FalconEntity@@2KB	; FalconEntity::SIMDIRTYDATA_INTERVAL
PUBLIC	?CMPDIRTYDATA_INTERVAL@FalconEntity@@2KB	; FalconEntity::CMPDIRTYDATA_INTERVAL
PUBLIC	?has_infinity@_Num_float_base@std@@2_NB		; std::_Num_float_base::has_infinity
PUBLIC	?_pAtlModule@ATL@@3PAVCAtlModule@1@A		; ATL::_pAtlModule
PUBLIC	?has_quiet_NaN@_Num_float_base@std@@2_NB	; std::_Num_float_base::has_quiet_NaN
PUBLIC	?VT@?$CVarTypeInfo@PAPA_W@ATL@@2GB		; ATL::CVarTypeInfo<wchar_t * *>::VT
PUBLIC	?pmField@?$CVarTypeInfo@PAPA_W@ATL@@2QQtagVARIANT@@PAPA_WQ3@ ; ATL::CVarTypeInfo<wchar_t * *>::pmField
PUBLIC	?has_signaling_NaN@_Num_float_base@std@@2_NB	; std::_Num_float_base::has_signaling_NaN
PUBLIC	?m_libid@CAtlModule@ATL@@2U_GUID@@A		; ATL::CAtlModule::m_libid
PUBLIC	?is_bounded@_Num_float_base@std@@2_NB		; std::_Num_float_base::is_bounded
PUBLIC	?is_exact@_Num_float_base@std@@2_NB		; std::_Num_float_base::is_exact
PUBLIC	?is_iec559@_Num_float_base@std@@2_NB		; std::_Num_float_base::is_iec559
PUBLIC	?VT@?$CVarTypeInfo@PAUIUnknown@@@ATL@@2GB	; ATL::CVarTypeInfo<IUnknown *>::VT
PUBLIC	?is_integer@_Num_float_base@std@@2_NB		; std::_Num_float_base::is_integer
PUBLIC	?pmField@?$CVarTypeInfo@PAUIUnknown@@@ATL@@2QQtagVARIANT@@PAUIUnknown@@Q3@ ; ATL::CVarTypeInfo<IUnknown *>::pmField
PUBLIC	?is_modulo@_Num_float_base@std@@2_NB		; std::_Num_float_base::is_modulo
PUBLIC	?is_signed@_Num_float_base@std@@2_NB		; std::_Num_float_base::is_signed
PUBLIC	?is_specialized@_Num_float_base@std@@2_NB	; std::_Num_float_base::is_specialized
PUBLIC	?VT@?$CVarTypeInfo@PAPAUIUnknown@@@ATL@@2GB	; ATL::CVarTypeInfo<IUnknown * *>::VT
PUBLIC	?tinyness_before@_Num_float_base@std@@2_NB	; std::_Num_float_base::tinyness_before
PUBLIC	?pmField@?$CVarTypeInfo@PAPAUIUnknown@@@ATL@@2QQtagVARIANT@@PAPAUIUnknown@@Q3@ ; ATL::CVarTypeInfo<IUnknown * *>::pmField
PUBLIC	?traps@_Num_float_base@std@@2_NB		; std::_Num_float_base::traps
PUBLIC	?round_style@_Num_float_base@std@@2W4float_round_style@2@B ; std::_Num_float_base::round_style
PUBLIC	?radix@_Num_float_base@std@@2HB			; std::_Num_float_base::radix
PUBLIC	?VT@?$CVarTypeInfo@PAUIDispatch@@@ATL@@2GB	; ATL::CVarTypeInfo<IDispatch *>::VT
PUBLIC	?pmField@?$CVarTypeInfo@PAUIDispatch@@@ATL@@2QQtagVARIANT@@PAUIDispatch@@Q3@ ; ATL::CVarTypeInfo<IDispatch *>::pmField
PUBLIC	_IID_IAxWinHostWindow
PUBLIC	?VT@?$CVarTypeInfo@PAPAUIDispatch@@@ATL@@2GB	; ATL::CVarTypeInfo<IDispatch * *>::VT
PUBLIC	?pmField@?$CVarTypeInfo@PAPAUIDispatch@@@ATL@@2QQtagVARIANT@@PAPAUIDispatch@@Q3@ ; ATL::CVarTypeInfo<IDispatch * *>::pmField
PUBLIC	?is_signed@?$numeric_limits@D@std@@2_NB		; std::numeric_limits<char>::is_signed
PUBLIC	?digits@?$numeric_limits@D@std@@2HB		; std::numeric_limits<char>::digits
PUBLIC	?digits10@?$numeric_limits@D@std@@2HB		; std::numeric_limits<char>::digits10
PUBLIC	?collate@?$_Locbase@H@std@@2HB			; std::_Locbase<int>::collate
PUBLIC	?VT@?$CVarTypeInfo@TtagCY@@@ATL@@2GB		; ATL::CVarTypeInfo<tagCY>::VT
PUBLIC	?ctype@?$_Locbase@H@std@@2HB			; std::_Locbase<int>::ctype
PUBLIC	?pmField@?$CVarTypeInfo@TtagCY@@@ATL@@2QQtagVARIANT@@TtagCY@@Q3@ ; ATL::CVarTypeInfo<tagCY>::pmField
PUBLIC	?monetary@?$_Locbase@H@std@@2HB			; std::_Locbase<int>::monetary
PUBLIC	?numeric@?$_Locbase@H@std@@2HB			; std::_Locbase<int>::numeric
PUBLIC	?time@?$_Locbase@H@std@@2HB			; std::_Locbase<int>::time
PUBLIC	?messages@?$_Locbase@H@std@@2HB			; std::_Locbase<int>::messages
PUBLIC	?all@?$_Locbase@H@std@@2HB			; std::_Locbase<int>::all
PUBLIC	?none@?$_Locbase@H@std@@2HB			; std::_Locbase<int>::none
PUBLIC	?VT@?$CVarTypeInfo@PATtagCY@@@ATL@@2GB		; ATL::CVarTypeInfo<tagCY *>::VT
PUBLIC	?pmField@?$CVarTypeInfo@PATtagCY@@@ATL@@2QQtagVARIANT@@PATtagCY@@Q3@ ; ATL::CVarTypeInfo<tagCY *>::pmField
PUBLIC	__GUID_00000146_0000_0000_c000_000000000046
PUBLIC	?is_signed@?$numeric_limits@_W@std@@2_NB	; std::numeric_limits<wchar_t>::is_signed
PUBLIC	?digits@?$numeric_limits@_W@std@@2HB		; std::numeric_limits<wchar_t>::digits
PUBLIC	?digits10@?$numeric_limits@_W@std@@2HB		; std::numeric_limits<wchar_t>::digits10
PUBLIC	?m_bInitFailed@CAtlBaseModule@ATL@@2_NA		; ATL::CAtlBaseModule::m_bInitFailed
PUBLIC	?is_modulo@?$numeric_limits@_N@std@@2_NB	; std::numeric_limits<bool>::is_modulo
PUBLIC	_IID_IAxWinHostWindowLic
PUBLIC	?is_signed@?$numeric_limits@_N@std@@2_NB	; std::numeric_limits<bool>::is_signed
PUBLIC	?digits@?$numeric_limits@_N@std@@2HB		; std::numeric_limits<bool>::digits
PUBLIC	?digits10@?$numeric_limits@_N@std@@2HB		; std::numeric_limits<bool>::digits10
PUBLIC	?is_signed@?$numeric_limits@C@std@@2_NB		; std::numeric_limits<signed char>::is_signed
PUBLIC	?digits@?$numeric_limits@C@std@@2HB		; std::numeric_limits<signed char>::digits
PUBLIC	?digits10@?$numeric_limits@C@std@@2HB		; std::numeric_limits<signed char>::digits10
PUBLIC	_IID_IAxWinAmbientDispatch
PUBLIC	?table_size@?$ctype@D@std@@2IB			; std::ctype<char>::table_size
PUBLIC	_LIBID_ATLLib
PUBLIC	?is_signed@?$numeric_limits@E@std@@2_NB		; std::numeric_limits<unsigned char>::is_signed
PUBLIC	?value@?$integral_constant@_N$0A@@std@@2_NB	; std::integral_constant<bool,0>::value
PUBLIC	?digits@?$numeric_limits@E@std@@2HB		; std::numeric_limits<unsigned char>::digits
PUBLIC	?digits10@?$numeric_limits@E@std@@2HB		; std::numeric_limits<unsigned char>::digits10
PUBLIC	?value@?$integral_constant@_N$00@std@@2_NB	; std::integral_constant<bool,1>::value
PUBLIC	?is_signed@?$numeric_limits@F@std@@2_NB		; std::numeric_limits<short>::is_signed
PUBLIC	?digits@?$numeric_limits@F@std@@2HB		; std::numeric_limits<short>::digits
PUBLIC	?digits10@?$numeric_limits@F@std@@2HB		; std::numeric_limits<short>::digits10
PUBLIC	__GUID_fc4801a3_2ba9_11cf_a229_00aa003d7352
PUBLIC	?_pModule@ATL@@3PAVCComModule@1@A		; ATL::_pModule
PUBLIC	?is_signed@?$numeric_limits@G@std@@2_NB		; std::numeric_limits<unsigned short>::is_signed
PUBLIC	?digits@?$numeric_limits@G@std@@2HB		; std::numeric_limits<unsigned short>::digits
PUBLIC	?digits10@?$numeric_limits@G@std@@2HB		; std::numeric_limits<unsigned short>::digits10
PUBLIC	__GUID_8edbef0a_aeb1_48ad_9ed2_bd41cd1075bd
PUBLIC	__GUID_dda57120_d4e3_11d2_9018_004f4e006398
PUBLIC	__GUID_dda57123_d4e3_11d2_9018_004f4e006398
PUBLIC	?is_signed@?$numeric_limits@H@std@@2_NB		; std::numeric_limits<int>::is_signed
PUBLIC	?value@?$_Sizeof@HU_Nil@std@@U12@U12@U12@U12@U12@U12@@std@@2IB ; std::_Sizeof<int,std::_Nil,std::_Nil,std::_Nil,std::_Nil,std::_Nil,std::_Nil,std::_Nil>::value
PUBLIC	?digits@?$numeric_limits@H@std@@2HB		; std::numeric_limits<int>::digits
PUBLIC	__GUID_b8d1f614_d5e4_4bd1_8f01_17371deaf685
PUBLIC	?digits10@?$numeric_limits@H@std@@2HB		; std::numeric_limits<int>::digits10
PUBLIC	__GUID_dda57125_d4e3_11d2_9018_004f4e006398
PUBLIC	___pobjMapEntryFirst
PUBLIC	___pobjMapEntryLast
PUBLIC	__GUID_dda57127_d4e3_11d2_9018_004f4e006398
PUBLIC	__GUID_9d9bb9a8_d54c_11d2_9018_004f4e006398
PUBLIC	??_C@_0BF@HDDNNDFH@Component?5Categories?$AA@	; `string'
PUBLIC	??_C@_08PICKODJL@FileType?$AA@			; `string'
PUBLIC	??_C@_09JKPGEJCH@Interface?$AA@			; `string'
PUBLIC	__GUID_e0016343_4124_48a9_9734_93f48700a04a
PUBLIC	??_C@_08PPIOJEA@Hardware?$AA@			; `string'
PUBLIC	??_C@_04IHBFOLAC@Mime?$AA@			; `string'
PUBLIC	?_pPerfRegFunc@ATL@@3P6AJPAUHINSTANCE__@@@ZA	; ATL::_pPerfRegFunc
PUBLIC	??_C@_03DDIMFGBA@SAM?$AA@			; `string'
PUBLIC	?_pPerfUnRegFunc@ATL@@3P6AJXZA			; ATL::_pPerfUnRegFunc
PUBLIC	??_C@_08LOPHEHKG@SECURITY?$AA@			; `string'
PUBLIC	?is_signed@?$numeric_limits@I@std@@2_NB		; std::numeric_limits<unsigned int>::is_signed
PUBLIC	?_AtlRegisterPerUser@ATL@@3_NA			; ATL::_AtlRegisterPerUser
PUBLIC	??_C@_06FDHFNJBJ@SYSTEM?$AA@			; `string'
PUBLIC	??_C@_08KEKAJNJI@Software?$AA@			; `string'
PUBLIC	__GUID_36b5b50d_69bb_43d5_83f6_aaf7eb9fff7b
PUBLIC	??_C@_07KJLOKDKB@TypeLib?$AA@			; `string'
PUBLIC	?digits@?$numeric_limits@I@std@@2HB		; std::numeric_limits<unsigned int>::digits
PUBLIC	?digits10@?$numeric_limits@I@std@@2HB		; std::numeric_limits<unsigned int>::digits10
PUBLIC	__GUID_b6b03a0c_d547_11d2_9018_004f4e006398
PUBLIC	__GUID_d783c329_d613_11d2_9018_004f4e006398
PUBLIC	__GUID_dda57122_d4e3_11d2_9018_004f4e006398
PUBLIC	__GUID_0f70ccce_d716_11d2_9018_004f4e006398
PUBLIC	__GUID_1386ae5c_d6f3_11d2_9018_004f4e006398
PUBLIC	?DoDFUpdate@@3HA				; DoDFUpdate
PUBLIC	?is_signed@?$numeric_limits@J@std@@2_NB		; std::numeric_limits<long>::is_signed
PUBLIC	__GUID_1386ae5a_d6f3_11d2_9018_004f4e006398
PUBLIC	?digits@?$numeric_limits@J@std@@2HB		; std::numeric_limits<long>::digits
PUBLIC	__GUID_1386ae5d_d6f3_11d2_9018_004f4e006398
PUBLIC	?digits10@?$numeric_limits@J@std@@2HB		; std::numeric_limits<long>::digits10
PUBLIC	?_IsF16_@@3JA					; _IsF16_
PUBLIC	__GUID_df360ef0_de0d_11d2_9023_004f4e006398
PUBLIC	__GUID_00000000_0000_0000_0000_000000000000
PUBLIC	__GUID_90efd9f9_d7a8_11d2_901a_004f4e006398
PUBLIC	__GUID_5ff85b6b_de05_42b9_831f_dc6a4e30a513
PUBLIC	?is_signed@?$numeric_limits@K@std@@2_NB		; std::numeric_limits<unsigned long>::is_signed
PUBLIC	__GUID_0002e012_0000_0000_c000_000000000046
PUBLIC	?digits@?$numeric_limits@K@std@@2HB		; std::numeric_limits<unsigned long>::digits
PUBLIC	?digits10@?$numeric_limits@K@std@@2HB		; std::numeric_limits<unsigned long>::digits10
PUBLIC	_IID_IAxWinAmbientDispatchEx
PUBLIC	?People@@3PAVC_TreeList@@A			; People
PUBLIC	?DogfightGames@@3PAVC_TreeList@@A		; DogfightGames
PUBLIC	?is_signed@?$numeric_limits@_J@std@@2_NB	; std::numeric_limits<__int64>::is_signed
PUBLIC	?TacticalGames@@3PAVC_TreeList@@A		; TacticalGames
PUBLIC	?CampaignGames@@3PAVC_TreeList@@A		; CampaignGames
PUBLIC	?gNewMessage@@3HA				; gNewMessage
PUBLIC	__GUID_00000109_0000_0000_c000_000000000046
PUBLIC	?digits@?$numeric_limits@_J@std@@2HB		; std::numeric_limits<__int64>::digits
PUBLIC	?digits10@?$numeric_limits@_J@std@@2HB		; std::numeric_limits<__int64>::digits10
PUBLIC	__GUID_7fd52380_4e07_101b_ae2d_08002b2ec713
PUBLIC	_IID_IInternalConnection
PUBLIC	??_C@_05GIBEAPNE@CLSID?$AA@			; `string'
PUBLIC	?is_signed@?$numeric_limits@_K@std@@2_NB	; std::numeric_limits<unsigned __int64>::is_signed
PUBLIC	?digits@?$numeric_limits@_K@std@@2HB		; std::numeric_limits<unsigned __int64>::digits
PUBLIC	?digits10@?$numeric_limits@_K@std@@2HB		; std::numeric_limits<unsigned __int64>::digits10
PUBLIC	??_C@_05PDIKPLII@AppID?$AA@			; `string'
PUBLIC	?digits@?$numeric_limits@M@std@@2HB		; std::numeric_limits<float>::digits
PUBLIC	?digits10@?$numeric_limits@M@std@@2HB		; std::numeric_limits<float>::digits10
PUBLIC	?max_digits10@?$numeric_limits@M@std@@2HB	; std::numeric_limits<float>::max_digits10
PUBLIC	?max_exponent@?$numeric_limits@M@std@@2HB	; std::numeric_limits<float>::max_exponent
PUBLIC	?max_exponent10@?$numeric_limits@M@std@@2HB	; std::numeric_limits<float>::max_exponent10
PUBLIC	?min_exponent@?$numeric_limits@M@std@@2HB	; std::numeric_limits<float>::min_exponent
PUBLIC	?min_exponent10@?$numeric_limits@M@std@@2HB	; std::numeric_limits<float>::min_exponent10
PUBLIC	?chDirSep@ATL@@3DB				; ATL::chDirSep
PUBLIC	?chRightBracket@ATL@@3DB			; ATL::chRightBracket
PUBLIC	?chLeftBracket@ATL@@3DB				; ATL::chLeftBracket
PUBLIC	?chQuote@ATL@@3DB				; ATL::chQuote
PUBLIC	?chEquals@ATL@@3DB				; ATL::chEquals
PUBLIC	?szStringVal@ATL@@3QBDB				; ATL::szStringVal
PUBLIC	??_C@_01CPLAODJH@S?$AA@				; `string'
PUBLIC	?multiszStringVal@ATL@@3QBDB			; ATL::multiszStringVal
PUBLIC	??_C@_01PLPBNMEI@M?$AA@				; `string'
PUBLIC	?szDwordVal@ATL@@3QBDB				; ATL::szDwordVal
PUBLIC	??_C@_01CKDDGHAB@D?$AA@				; `string'
PUBLIC	?szBinaryVal@ATL@@3QBDB				; ATL::szBinaryVal
PUBLIC	??_C@_01HMGJMAIH@B?$AA@				; `string'
PUBLIC	?szValToken@ATL@@3QBDB				; ATL::szValToken
PUBLIC	??_C@_03LAIAPFCB@Val?$AA@			; `string'
PUBLIC	?szForceRemove@ATL@@3QBDB			; ATL::szForceRemove
PUBLIC	??_C@_0M@DBGDLGLL@ForceRemove?$AA@		; `string'
PUBLIC	?value@?$integral_constant@I$0A@@std@@2IB	; std::integral_constant<unsigned int,0>::value
PUBLIC	?szNoRemove@ATL@@3QBDB				; ATL::szNoRemove
PUBLIC	??_C@_08KAAPDIAN@NoRemove?$AA@			; `string'
PUBLIC	?digits@?$numeric_limits@N@std@@2HB		; std::numeric_limits<double>::digits
PUBLIC	?szDelete@ATL@@3QBDB				; ATL::szDelete
PUBLIC	??_C@_06JBKGCNBB@Delete?$AA@			; `string'
PUBLIC	?digits10@?$numeric_limits@N@std@@2HB		; std::numeric_limits<double>::digits10
PUBLIC	?max_digits10@?$numeric_limits@N@std@@2HB	; std::numeric_limits<double>::max_digits10
PUBLIC	?max_exponent@?$numeric_limits@N@std@@2HB	; std::numeric_limits<double>::max_exponent
PUBLIC	?max_exponent10@?$numeric_limits@N@std@@2HB	; std::numeric_limits<double>::max_exponent10
PUBLIC	?ATL_CREATE_OBJECT@CComApartment@ATL@@2IA	; ATL::CComApartment::ATL_CREATE_OBJECT
PUBLIC	?min_exponent@?$numeric_limits@N@std@@2HB	; std::numeric_limits<double>::min_exponent
PUBLIC	?_Min@?$AtlLimits@H@ATL@@2HB			; ATL::AtlLimits<int>::_Min
PUBLIC	?min_exponent10@?$numeric_limits@N@std@@2HB	; std::numeric_limits<double>::min_exponent10
PUBLIC	?_Max@?$AtlLimits@H@ATL@@2HB			; ATL::AtlLimits<int>::_Max
PUBLIC	?_Min@?$AtlLimits@I@ATL@@2IB			; ATL::AtlLimits<unsigned int>::_Min
PUBLIC	?_Max@?$AtlLimits@I@ATL@@2IB			; ATL::AtlLimits<unsigned int>::_Max
PUBLIC	?g_nmissiletrial@@3HA				; g_nmissiletrial
PUBLIC	?g_bDrawBoundingBox@@3_NA			; g_bDrawBoundingBox
PUBLIC	?_Min@?$AtlLimits@J@ATL@@2JB			; ATL::AtlLimits<long>::_Min
PUBLIC	?_Max@?$AtlLimits@J@ATL@@2JB			; ATL::AtlLimits<long>::_Max
PUBLIC	?g_nboostguidesec@@3MA				; g_nboostguidesec
PUBLIC	?g_nterminalguiderange@@3MA			; g_nterminalguiderange
PUBLIC	?g_nboostguideSensorPrecision@@3MA		; g_nboostguideSensorPrecision
PUBLIC	?g_nsustainguideSensorPrecision@@3MA		; g_nsustainguideSensorPrecision
PUBLIC	?g_nterminalguideSensorPrecision@@3MA		; g_nterminalguideSensorPrecision
PUBLIC	?digits@?$numeric_limits@O@std@@2HB		; std::numeric_limits<long double>::digits
PUBLIC	?g_nboostguideLead@@3MA				; g_nboostguideLead
PUBLIC	?g_nsustainguideLead@@3MA			; g_nsustainguideLead
PUBLIC	?g_nterminalguideLead@@3MA			; g_nterminalguideLead
PUBLIC	?digits10@?$numeric_limits@O@std@@2HB		; std::numeric_limits<long double>::digits10
PUBLIC	?g_nboostguideGnav@@3MA				; g_nboostguideGnav
PUBLIC	?_Min@?$AtlLimits@K@ATL@@2KB			; ATL::AtlLimits<unsigned long>::_Min
PUBLIC	?g_nsustainguideGnav@@3MA			; g_nsustainguideGnav
PUBLIC	?skipws@?$_Iosb@H@std@@2W4_Fmtflags@12@B	; std::_Iosb<int>::skipws
PUBLIC	?g_nterminalguideGnav@@3MA			; g_nterminalguideGnav
PUBLIC	?max_digits10@?$numeric_limits@O@std@@2HB	; std::numeric_limits<long double>::max_digits10
PUBLIC	?_Max@?$AtlLimits@K@ATL@@2KB			; ATL::AtlLimits<unsigned long>::_Max
PUBLIC	?g_nboostguideBwap@@3MA				; g_nboostguideBwap
PUBLIC	?g_nsustainguideBwap@@3MA			; g_nsustainguideBwap
PUBLIC	?unitbuf@?$_Iosb@H@std@@2W4_Fmtflags@12@B	; std::_Iosb<int>::unitbuf
PUBLIC	?g_nterminalguideBwap@@3MA			; g_nterminalguideBwap
PUBLIC	?g_nMpdelaytweakfactor@@3MA			; g_nMpdelaytweakfactor
PUBLIC	?max_exponent@?$numeric_limits@O@std@@2HB	; std::numeric_limits<long double>::max_exponent
PUBLIC	?uppercase@?$_Iosb@H@std@@2W4_Fmtflags@12@B	; std::_Iosb<int>::uppercase
PUBLIC	?showbase@?$_Iosb@H@std@@2W4_Fmtflags@12@B	; std::_Iosb<int>::showbase
PUBLIC	?max_exponent10@?$numeric_limits@O@std@@2HB	; std::numeric_limits<long double>::max_exponent10
PUBLIC	?_Min@?$AtlLimits@_J@ATL@@2_JB			; ATL::AtlLimits<__int64>::_Min
PUBLIC	?showpoint@?$_Iosb@H@std@@2W4_Fmtflags@12@B	; std::_Iosb<int>::showpoint
PUBLIC	?min_exponent@?$numeric_limits@O@std@@2HB	; std::numeric_limits<long double>::min_exponent
PUBLIC	?_Max@?$AtlLimits@_J@ATL@@2_JB			; ATL::AtlLimits<__int64>::_Max
PUBLIC	?showpos@?$_Iosb@H@std@@2W4_Fmtflags@12@B	; std::_Iosb<int>::showpos
PUBLIC	?min_exponent10@?$numeric_limits@O@std@@2HB	; std::numeric_limits<long double>::min_exponent10
PUBLIC	__GUID_00020400_0000_0000_c000_000000000046
PUBLIC	?left@?$_Iosb@H@std@@2W4_Fmtflags@12@B		; std::_Iosb<int>::left
PUBLIC	?right@?$_Iosb@H@std@@2W4_Fmtflags@12@B		; std::_Iosb<int>::right
PUBLIC	?_Min@?$AtlLimits@_K@ATL@@2_KB			; ATL::AtlLimits<unsigned __int64>::_Min
PUBLIC	?internal@?$_Iosb@H@std@@2W4_Fmtflags@12@B	; std::_Iosb<int>::internal
PUBLIC	?_Max@?$AtlLimits@_K@ATL@@2_KB			; ATL::AtlLimits<unsigned __int64>::_Max
PUBLIC	?dec@?$_Iosb@H@std@@2W4_Fmtflags@12@B		; std::_Iosb<int>::dec
PUBLIC	?oct@?$_Iosb@H@std@@2W4_Fmtflags@12@B		; std::_Iosb<int>::oct
PUBLIC	?VT@?$CVarTypeInfo@D@ATL@@2GB			; ATL::CVarTypeInfo<char>::VT
PUBLIC	?hex@?$_Iosb@H@std@@2W4_Fmtflags@12@B		; std::_Iosb<int>::hex
PUBLIC	?_pAtlAutoThreadModule@ATL@@3PAUIAtlAutoThreadModule@1@A ; ATL::_pAtlAutoThreadModule
PUBLIC	?pmField@?$CVarTypeInfo@D@ATL@@2QQtagVARIANT@@DQ3@ ; ATL::CVarTypeInfo<char>::pmField
PUBLIC	?scientific@?$_Iosb@H@std@@2W4_Fmtflags@12@B	; std::_Iosb<int>::scientific
PUBLIC	?fixed@?$_Iosb@H@std@@2W4_Fmtflags@12@B		; std::_Iosb<int>::fixed
PUBLIC	?hexfloat@?$_Iosb@H@std@@2W4_Fmtflags@12@B	; std::_Iosb<int>::hexfloat
PUBLIC	?boolalpha@?$_Iosb@H@std@@2W4_Fmtflags@12@B	; std::_Iosb<int>::boolalpha
PUBLIC	?VT@?$CVarTypeInfo@E@ATL@@2GB			; ATL::CVarTypeInfo<unsigned char>::VT
PUBLIC	?pmField@?$CVarTypeInfo@E@ATL@@2QQtagVARIANT@@EQ3@ ; ATL::CVarTypeInfo<unsigned char>::pmField
PUBLIC	?_Stdio@?$_Iosb@H@std@@2W4_Fmtflags@12@B	; std::_Iosb<int>::_Stdio
PUBLIC	_CLSID_Registrar
PUBLIC	?adjustfield@?$_Iosb@H@std@@2W4_Fmtflags@12@B	; std::_Iosb<int>::adjustfield
PUBLIC	?basefield@?$_Iosb@H@std@@2W4_Fmtflags@12@B	; std::_Iosb<int>::basefield
PUBLIC	?floatfield@?$_Iosb@H@std@@2W4_Fmtflags@12@B	; std::_Iosb<int>::floatfield
PUBLIC	?VT@?$CVarTypeInfo@PAD@ATL@@2GB			; ATL::CVarTypeInfo<char *>::VT
PUBLIC	?pmField@?$CVarTypeInfo@PAD@ATL@@2QQtagVARIANT@@PADQ3@ ; ATL::CVarTypeInfo<char *>::pmField
PUBLIC	?goodbit@?$_Iosb@H@std@@2W4_Iostate@12@B	; std::_Iosb<int>::goodbit
PUBLIC	?eofbit@?$_Iosb@H@std@@2W4_Iostate@12@B		; std::_Iosb<int>::eofbit
PUBLIC	?failbit@?$_Iosb@H@std@@2W4_Iostate@12@B	; std::_Iosb<int>::failbit
PUBLIC	?badbit@?$_Iosb@H@std@@2W4_Iostate@12@B		; std::_Iosb<int>::badbit
PUBLIC	?VT@?$CVarTypeInfo@PAE@ATL@@2GB			; ATL::CVarTypeInfo<unsigned char *>::VT
PUBLIC	?pmField@?$CVarTypeInfo@PAE@ATL@@2QQtagVARIANT@@PAEQ3@ ; ATL::CVarTypeInfo<unsigned char *>::pmField
PUBLIC	?_Hardfail@?$_Iosb@H@std@@2W4_Iostate@12@B	; std::_Iosb<int>::_Hardfail
PUBLIC	?in@?$_Iosb@H@std@@2W4_Openmode@12@B		; std::_Iosb<int>::in
PUBLIC	?out@?$_Iosb@H@std@@2W4_Openmode@12@B		; std::_Iosb<int>::out
PUBLIC	_IID_IRegistrar
PUBLIC	?VT@?$CVarTypeInfo@F@ATL@@2GB			; ATL::CVarTypeInfo<short>::VT
PUBLIC	?ate@?$_Iosb@H@std@@2W4_Openmode@12@B		; std::_Iosb<int>::ate
PUBLIC	?pmField@?$CVarTypeInfo@F@ATL@@2QQtagVARIANT@@FQ3@ ; ATL::CVarTypeInfo<short>::pmField
PUBLIC	?app@?$_Iosb@H@std@@2W4_Openmode@12@B		; std::_Iosb<int>::app
PUBLIC	?trunc@?$_Iosb@H@std@@2W4_Openmode@12@B		; std::_Iosb<int>::trunc
PUBLIC	?_Nocreate@?$_Iosb@H@std@@2W4_Openmode@12@B	; std::_Iosb<int>::_Nocreate
PUBLIC	?_Noreplace@?$_Iosb@H@std@@2W4_Openmode@12@B	; std::_Iosb<int>::_Noreplace
PUBLIC	?VT@?$CVarTypeInfo@PAF@ATL@@2GB			; ATL::CVarTypeInfo<short *>::VT
PUBLIC	?pmField@?$CVarTypeInfo@PAF@ATL@@2QQtagVARIANT@@PAFQ3@ ; ATL::CVarTypeInfo<short *>::pmField
PUBLIC	?binary@?$_Iosb@H@std@@2W4_Openmode@12@B	; std::_Iosb<int>::binary
PUBLIC	?beg@?$_Iosb@H@std@@2W4_Seekdir@12@B		; std::_Iosb<int>::beg
PUBLIC	?cur@?$_Iosb@H@std@@2W4_Seekdir@12@B		; std::_Iosb<int>::cur
PUBLIC	?VT@?$CVarTypeInfo@G@ATL@@2GB			; ATL::CVarTypeInfo<unsigned short>::VT
PUBLIC	?end@?$_Iosb@H@std@@2W4_Seekdir@12@B		; std::_Iosb<int>::end
PUBLIC	?pmField@?$CVarTypeInfo@G@ATL@@2QQtagVARIANT@@GQ3@ ; ATL::CVarTypeInfo<unsigned short>::pmField
PUBLIC	?VT@?$CVarTypeInfo@PAG@ATL@@2GB			; ATL::CVarTypeInfo<unsigned short *>::VT
PUBLIC	?pmField@?$CVarTypeInfo@PAG@ATL@@2QQtagVARIANT@@PAGQ3@ ; ATL::CVarTypeInfo<unsigned short *>::pmField
PUBLIC	?VT@?$CVarTypeInfo@H@ATL@@2GB			; ATL::CVarTypeInfo<int>::VT
PUBLIC	?pmField@?$CVarTypeInfo@H@ATL@@2QQtagVARIANT@@HQ3@ ; ATL::CVarTypeInfo<int>::pmField
PUBLIC	?_Stream_err@failure@ios_base@std@@0W4io_errc@43@B ; std::ios_base::failure::_Stream_err
PUBLIC	?value@?$_Sizeof@U_Nil@std@@U12@U12@U12@U12@U12@U12@U12@@std@@2IB ; std::_Sizeof<std::_Nil,std::_Nil,std::_Nil,std::_Nil,std::_Nil,std::_Nil,std::_Nil,std::_Nil>::value
PUBLIC	?VT@?$CVarTypeInfo@PAH@ATL@@2GB			; ATL::CVarTypeInfo<int *>::VT
PUBLIC	?pmField@?$CVarTypeInfo@PAH@ATL@@2QQtagVARIANT@@PAHQ3@ ; ATL::CVarTypeInfo<int *>::pmField
PUBLIC	?MAX_VALUE@CRegParser@ATL@@1HB			; ATL::CRegParser::MAX_VALUE
PUBLIC	?VT@?$CVarTypeInfo@I@ATL@@2GB			; ATL::CVarTypeInfo<unsigned int>::VT
PUBLIC	?pmField@?$CVarTypeInfo@I@ATL@@2QQtagVARIANT@@IQ3@ ; ATL::CVarTypeInfo<unsigned int>::pmField
PUBLIC	?VT@?$CVarTypeInfo@PAI@ATL@@2GB			; ATL::CVarTypeInfo<unsigned int *>::VT
PUBLIC	?pmField@?$CVarTypeInfo@PAI@ATL@@2QQtagVARIANT@@PAIQ3@ ; ATL::CVarTypeInfo<unsigned int *>::pmField
PUBLIC	__GUID_00000000_0000_0000_c000_000000000046
PUBLIC	?VT@?$CVarTypeInfo@J@ATL@@2GB			; ATL::CVarTypeInfo<long>::VT
PUBLIC	?pmField@?$CVarTypeInfo@J@ATL@@2QQtagVARIANT@@JQ3@ ; ATL::CVarTypeInfo<long>::pmField
PUBLIC	?rgszNeverDelete@CRegParser@ATL@@1QBQBDB	; ATL::CRegParser::rgszNeverDelete
PUBLIC	?cbNeverDelete@CRegParser@ATL@@1HB		; ATL::CRegParser::cbNeverDelete
PUBLIC	?VT@?$CVarTypeInfo@PAJ@ATL@@2GB			; ATL::CVarTypeInfo<long *>::VT
PUBLIC	?MAX_TYPE@CRegParser@ATL@@1HB			; ATL::CRegParser::MAX_TYPE
PUBLIC	?pmField@?$CVarTypeInfo@PAJ@ATL@@2QQtagVARIANT@@PAJQ3@ ; ATL::CVarTypeInfo<long *>::pmField
PUBLIC	_IID_IDocHostUIHandlerDispatch
PUBLIC	?VT@?$CVarTypeInfo@K@ATL@@2GB			; ATL::CVarTypeInfo<unsigned long>::VT
PUBLIC	?pmField@?$CVarTypeInfo@K@ATL@@2QQtagVARIANT@@KQ3@ ; ATL::CVarTypeInfo<unsigned long>::pmField
PUBLIC	?VT@?$CVarTypeInfo@PAK@ATL@@2GB			; ATL::CVarTypeInfo<unsigned long *>::VT
PUBLIC	?pmField@?$CVarTypeInfo@PAK@ATL@@2QQtagVARIANT@@PAKQ3@ ; ATL::CVarTypeInfo<unsigned long *>::pmField
PUBLIC	?has_denorm@_Num_base@std@@2W4float_denorm_style@2@B ; std::_Num_base::has_denorm
PUBLIC	__GUID_b196b284_bab4_101a_b69c_00aa00341d07
PUBLIC	?has_denorm_loss@_Num_base@std@@2_NB		; std::_Num_base::has_denorm_loss
PUBLIC	?VT@?$CVarTypeInfo@_J@ATL@@2GB			; ATL::CVarTypeInfo<__int64>::VT
PUBLIC	?pmField@?$CVarTypeInfo@_J@ATL@@2QQtagVARIANT@@_JQ3@ ; ATL::CVarTypeInfo<__int64>::pmField
PUBLIC	?has_infinity@_Num_base@std@@2_NB		; std::_Num_base::has_infinity
PUBLIC	?has_quiet_NaN@_Num_base@std@@2_NB		; std::_Num_base::has_quiet_NaN
PUBLIC	?has_signaling_NaN@_Num_base@std@@2_NB		; std::_Num_base::has_signaling_NaN
PUBLIC	?is_bounded@_Num_base@std@@2_NB			; std::_Num_base::is_bounded
PUBLIC	?VT@?$CVarTypeInfo@PA_J@ATL@@2GB		; ATL::CVarTypeInfo<__int64 *>::VT
PUBLIC	?is_exact@_Num_base@std@@2_NB			; std::_Num_base::is_exact
PUBLIC	?pmField@?$CVarTypeInfo@PA_J@ATL@@2QQtagVARIANT@@PA_JQ3@ ; ATL::CVarTypeInfo<__int64 *>::pmField
PUBLIC	?is_iec559@_Num_base@std@@2_NB			; std::_Num_base::is_iec559
PUBLIC	?is_integer@_Num_base@std@@2_NB			; std::_Num_base::is_integer
PUBLIC	?is_modulo@_Num_base@std@@2_NB			; std::_Num_base::is_modulo
PUBLIC	?VT@?$CVarTypeInfo@_K@ATL@@2GB			; ATL::CVarTypeInfo<unsigned __int64>::VT
PUBLIC	?is_signed@_Num_base@std@@2_NB			; std::_Num_base::is_signed
PUBLIC	?pmField@?$CVarTypeInfo@_K@ATL@@2QQtagVARIANT@@_KQ3@ ; ATL::CVarTypeInfo<unsigned __int64>::pmField
PUBLIC	_LIBID_SHAREDLib
PUBLIC	?is_specialized@_Num_base@std@@2_NB		; std::_Num_base::is_specialized
PUBLIC	_CLSID_Host
PUBLIC	_IID_IHost
PUBLIC	_CLSID_Player
PUBLIC	?tinyness_before@_Num_base@std@@2_NB		; std::_Num_base::tinyness_before
PUBLIC	_IID_IPlayer
PUBLIC	_CLSID_RemoteMasterServer
PUBLIC	_IID_IMasterServer
;	COMDAT ?_pAtlModule@ATL@@3PAVCAtlModule@1@A
_BSS	SEGMENT
?_pAtlModule@ATL@@3PAVCAtlModule@1@A DD 01H DUP (?)	; ATL::_pAtlModule
_BSS	ENDS
;	COMDAT ?m_libid@CAtlModule@ATL@@2U_GUID@@A
_BSS	SEGMENT
?m_libid@CAtlModule@ATL@@2U_GUID@@A DB 010H DUP (?)	; ATL::CAtlModule::m_libid
_BSS	ENDS
;	COMDAT ?m_bInitFailed@CAtlBaseModule@ATL@@2_NA
_BSS	SEGMENT
?m_bInitFailed@CAtlBaseModule@ATL@@2_NA DB 01H DUP (?)	; ATL::CAtlBaseModule::m_bInitFailed
_BSS	ENDS
;	COMDAT ?_pModule@ATL@@3PAVCComModule@1@A
_BSS	SEGMENT
?_pModule@ATL@@3PAVCComModule@1@A DD 01H DUP (?)	; ATL::_pModule
_BSS	ENDS
;	COMDAT ?_pPerfRegFunc@ATL@@3P6AJPAUHINSTANCE__@@@ZA
_BSS	SEGMENT
?_pPerfRegFunc@ATL@@3P6AJPAUHINSTANCE__@@@ZA DD 01H DUP (?) ; ATL::_pPerfRegFunc
_BSS	ENDS
;	COMDAT ?_pPerfUnRegFunc@ATL@@3P6AJXZA
_BSS	SEGMENT
?_pPerfUnRegFunc@ATL@@3P6AJXZA DD 01H DUP (?)		; ATL::_pPerfUnRegFunc
_BSS	ENDS
;	COMDAT ?_AtlRegisterPerUser@ATL@@3_NA
_BSS	SEGMENT
?_AtlRegisterPerUser@ATL@@3_NA DB 01H DUP (?)		; ATL::_AtlRegisterPerUser
_BSS	ENDS
_BSS	SEGMENT
?DoDFUpdate@@3HA DD 01H DUP (?)				; DoDFUpdate
?_IsF16_@@3JA DD 01H DUP (?)				; _IsF16_
_CurChatY DD	01H DUP (?)
?People@@3PAVC_TreeList@@A DD 01H DUP (?)		; People
?DogfightGames@@3PAVC_TreeList@@A DD 01H DUP (?)	; DogfightGames
?TacticalGames@@3PAVC_TreeList@@A DD 01H DUP (?)	; TacticalGames
?CampaignGames@@3PAVC_TreeList@@A DD 01H DUP (?)	; CampaignGames
?gNewMessage@@3HA DD 01H DUP (?)			; gNewMessage
_BSS	ENDS
;	COMDAT ?ATL_CREATE_OBJECT@CComApartment@ATL@@2IA
_BSS	SEGMENT
?ATL_CREATE_OBJECT@CComApartment@ATL@@2IA DD 01H DUP (?) ; ATL::CComApartment::ATL_CREATE_OBJECT
_BSS	ENDS
_BSS	SEGMENT
?g_nmissiletrial@@3HA DD 01H DUP (?)			; g_nmissiletrial
?g_bDrawBoundingBox@@3_NA DB 01H DUP (?)		; g_bDrawBoundingBox
	ALIGN	4

?g_nboostguidesec@@3MA DD 01H DUP (?)			; g_nboostguidesec
?g_nterminalguiderange@@3MA DD 01H DUP (?)		; g_nterminalguiderange
?g_nboostguideSensorPrecision@@3MA DD 01H DUP (?)	; g_nboostguideSensorPrecision
?g_nsustainguideSensorPrecision@@3MA DD 01H DUP (?)	; g_nsustainguideSensorPrecision
?g_nterminalguideSensorPrecision@@3MA DD 01H DUP (?)	; g_nterminalguideSensorPrecision
?g_nboostguideLead@@3MA DD 01H DUP (?)			; g_nboostguideLead
?g_nsustainguideLead@@3MA DD 01H DUP (?)		; g_nsustainguideLead
?g_nterminalguideLead@@3MA DD 01H DUP (?)		; g_nterminalguideLead
?g_nboostguideGnav@@3MA DD 01H DUP (?)			; g_nboostguideGnav
?g_nsustainguideGnav@@3MA DD 01H DUP (?)		; g_nsustainguideGnav
?g_nterminalguideGnav@@3MA DD 01H DUP (?)		; g_nterminalguideGnav
?g_nboostguideBwap@@3MA DD 01H DUP (?)			; g_nboostguideBwap
?g_nsustainguideBwap@@3MA DD 01H DUP (?)		; g_nsustainguideBwap
?g_nterminalguideBwap@@3MA DD 01H DUP (?)		; g_nterminalguideBwap
?g_nMpdelaytweakfactor@@3MA DD 01H DUP (?)		; g_nMpdelaytweakfactor
_BSS	ENDS
;	COMDAT ?_pAtlAutoThreadModule@ATL@@3PAUIAtlAutoThreadModule@1@A
_BSS	SEGMENT
?_pAtlAutoThreadModule@ATL@@3PAUIAtlAutoThreadModule@1@A DD 01H DUP (?) ; ATL::_pAtlAutoThreadModule
_BSS	ENDS
;	COMDAT _IID_IMasterServer
CONST	SEGMENT
_IID_IMasterServer DD 0dda57127H
	DW	0d4e3H
	DW	011d2H
	DB	090H
	DB	018H
	DB	00H
	DB	04fH
	DB	04eH
	DB	00H
	DB	063H
	DB	098H
CONST	ENDS
;	COMDAT _CLSID_RemoteMasterServer
CONST	SEGMENT
_CLSID_RemoteMasterServer DD 045292708H
	DW	037a2H
	DW	0483bH
	DB	08eH
	DB	04aH
	DB	0e3H
	DB	0b6H
	DB	01fH
	DB	053H
	DB	07aH
	DB	0fH
CONST	ENDS
;	COMDAT _IID_IPlayer
CONST	SEGMENT
_IID_IPlayer DD	0dda57125H
	DW	0d4e3H
	DW	011d2H
	DB	090H
	DB	018H
	DB	00H
	DB	04fH
	DB	04eH
	DB	00H
	DB	063H
	DB	098H
CONST	ENDS
;	COMDAT ?tinyness_before@_Num_base@std@@2_NB
CONST	SEGMENT
?tinyness_before@_Num_base@std@@2_NB DB 00H		; std::_Num_base::tinyness_before
CONST	ENDS
;	COMDAT _CLSID_Player
CONST	SEGMENT
_CLSID_Player DD 0546dbb68H
	DW	0338fH
	DW	04c04H
	DB	083H
	DB	0b7H
	DB	0dbH
	DB	0c0H
	DB	0efH
	DB	08fH
	DB	09H
	DB	0a6H
CONST	ENDS
;	COMDAT _IID_IHost
CONST	SEGMENT
_IID_IHost DD	0b6b03a0cH
	DW	0d547H
	DW	011d2H
	DB	090H
	DB	018H
	DB	00H
	DB	04fH
	DB	04eH
	DB	00H
	DB	063H
	DB	098H
CONST	ENDS
;	COMDAT _CLSID_Host
CONST	SEGMENT
_CLSID_Host DD	0b6b03a0dH
	DW	0d547H
	DW	011d2H
	DB	090H
	DB	018H
	DB	00H
	DB	04fH
	DB	04eH
	DB	00H
	DB	063H
	DB	098H
CONST	ENDS
;	COMDAT ?is_specialized@_Num_base@std@@2_NB
CONST	SEGMENT
?is_specialized@_Num_base@std@@2_NB DB 00H		; std::_Num_base::is_specialized
CONST	ENDS
;	COMDAT _LIBID_SHAREDLib
CONST	SEGMENT
_LIBID_SHAREDLib DD 0890a47f1H
	DW	0d62fH
	DW	011d2H
	DB	090H
	DB	018H
	DB	00H
	DB	04fH
	DB	04eH
	DB	00H
	DB	063H
	DB	098H
CONST	ENDS
;	COMDAT ?pmField@?$CVarTypeInfo@_K@ATL@@2QQtagVARIANT@@_KQ3@
CONST	SEGMENT
?pmField@?$CVarTypeInfo@_K@ATL@@2QQtagVARIANT@@_KQ3@ DD 08H ; ATL::CVarTypeInfo<unsigned __int64>::pmField
CONST	ENDS
;	COMDAT ?is_signed@_Num_base@std@@2_NB
CONST	SEGMENT
?is_signed@_Num_base@std@@2_NB DB 00H			; std::_Num_base::is_signed
CONST	ENDS
;	COMDAT ?VT@?$CVarTypeInfo@_K@ATL@@2GB
CONST	SEGMENT
?VT@?$CVarTypeInfo@_K@ATL@@2GB DW 015H			; ATL::CVarTypeInfo<unsigned __int64>::VT
CONST	ENDS
;	COMDAT ?is_modulo@_Num_base@std@@2_NB
CONST	SEGMENT
?is_modulo@_Num_base@std@@2_NB DB 00H			; std::_Num_base::is_modulo
CONST	ENDS
;	COMDAT ?is_integer@_Num_base@std@@2_NB
CONST	SEGMENT
?is_integer@_Num_base@std@@2_NB DB 00H			; std::_Num_base::is_integer
CONST	ENDS
;	COMDAT ?is_iec559@_Num_base@std@@2_NB
CONST	SEGMENT
?is_iec559@_Num_base@std@@2_NB DB 00H			; std::_Num_base::is_iec559
CONST	ENDS
;	COMDAT ?pmField@?$CVarTypeInfo@PA_J@ATL@@2QQtagVARIANT@@PA_JQ3@
CONST	SEGMENT
?pmField@?$CVarTypeInfo@PA_J@ATL@@2QQtagVARIANT@@PA_JQ3@ DD 08H ; ATL::CVarTypeInfo<__int64 *>::pmField
CONST	ENDS
;	COMDAT ?is_exact@_Num_base@std@@2_NB
CONST	SEGMENT
?is_exact@_Num_base@std@@2_NB DB 00H			; std::_Num_base::is_exact
CONST	ENDS
;	COMDAT ?VT@?$CVarTypeInfo@PA_J@ATL@@2GB
CONST	SEGMENT
?VT@?$CVarTypeInfo@PA_J@ATL@@2GB DW 04014H		; ATL::CVarTypeInfo<__int64 *>::VT
CONST	ENDS
;	COMDAT ?is_bounded@_Num_base@std@@2_NB
CONST	SEGMENT
?is_bounded@_Num_base@std@@2_NB DB 00H			; std::_Num_base::is_bounded
CONST	ENDS
;	COMDAT ?has_signaling_NaN@_Num_base@std@@2_NB
CONST	SEGMENT
?has_signaling_NaN@_Num_base@std@@2_NB DB 00H		; std::_Num_base::has_signaling_NaN
CONST	ENDS
;	COMDAT ?has_quiet_NaN@_Num_base@std@@2_NB
CONST	SEGMENT
?has_quiet_NaN@_Num_base@std@@2_NB DB 00H		; std::_Num_base::has_quiet_NaN
CONST	ENDS
;	COMDAT ?has_infinity@_Num_base@std@@2_NB
CONST	SEGMENT
?has_infinity@_Num_base@std@@2_NB DB 00H		; std::_Num_base::has_infinity
CONST	ENDS
;	COMDAT ?pmField@?$CVarTypeInfo@_J@ATL@@2QQtagVARIANT@@_JQ3@
CONST	SEGMENT
?pmField@?$CVarTypeInfo@_J@ATL@@2QQtagVARIANT@@_JQ3@ DD 08H ; ATL::CVarTypeInfo<__int64>::pmField
CONST	ENDS
;	COMDAT ?VT@?$CVarTypeInfo@_J@ATL@@2GB
CONST	SEGMENT
?VT@?$CVarTypeInfo@_J@ATL@@2GB DW 014H			; ATL::CVarTypeInfo<__int64>::VT
CONST	ENDS
;	COMDAT ?has_denorm_loss@_Num_base@std@@2_NB
CONST	SEGMENT
?has_denorm_loss@_Num_base@std@@2_NB DB 00H		; std::_Num_base::has_denorm_loss
CONST	ENDS
;	COMDAT __GUID_b196b284_bab4_101a_b69c_00aa00341d07
CONST	SEGMENT
__GUID_b196b284_bab4_101a_b69c_00aa00341d07 DD 0b196b284H
	DW	0bab4H
	DW	0101aH
	DB	0b6H
	DB	09cH
	DB	00H
	DB	0aaH
	DB	00H
	DB	034H
	DB	01dH
	DB	07H
CONST	ENDS
;	COMDAT ?has_denorm@_Num_base@std@@2W4float_denorm_style@2@B
CONST	SEGMENT
?has_denorm@_Num_base@std@@2W4float_denorm_style@2@B DD 00H ; std::_Num_base::has_denorm
CONST	ENDS
;	COMDAT ?pmField@?$CVarTypeInfo@PAK@ATL@@2QQtagVARIANT@@PAKQ3@
CONST	SEGMENT
?pmField@?$CVarTypeInfo@PAK@ATL@@2QQtagVARIANT@@PAKQ3@ DD 08H ; ATL::CVarTypeInfo<unsigned long *>::pmField
CONST	ENDS
;	COMDAT ?VT@?$CVarTypeInfo@PAK@ATL@@2GB
CONST	SEGMENT
?VT@?$CVarTypeInfo@PAK@ATL@@2GB DW 04013H		; ATL::CVarTypeInfo<unsigned long *>::VT
CONST	ENDS
;	COMDAT ?pmField@?$CVarTypeInfo@K@ATL@@2QQtagVARIANT@@KQ3@
CONST	SEGMENT
?pmField@?$CVarTypeInfo@K@ATL@@2QQtagVARIANT@@KQ3@ DD 08H ; ATL::CVarTypeInfo<unsigned long>::pmField
CONST	ENDS
;	COMDAT ?VT@?$CVarTypeInfo@K@ATL@@2GB
CONST	SEGMENT
?VT@?$CVarTypeInfo@K@ATL@@2GB DW 013H			; ATL::CVarTypeInfo<unsigned long>::VT
CONST	ENDS
;	COMDAT _IID_IDocHostUIHandlerDispatch
CONST	SEGMENT
_IID_IDocHostUIHandlerDispatch DD 0425b5af0H
	DW	065f1H
	DW	011d1H
	DB	096H
	DB	011H
	DB	00H
	DB	00H
	DB	0f8H
	DB	01eH
	DB	0dH
	DB	0dH
CONST	ENDS
;	COMDAT ?pmField@?$CVarTypeInfo@PAJ@ATL@@2QQtagVARIANT@@PAJQ3@
CONST	SEGMENT
?pmField@?$CVarTypeInfo@PAJ@ATL@@2QQtagVARIANT@@PAJQ3@ DD 08H ; ATL::CVarTypeInfo<long *>::pmField
CONST	ENDS
;	COMDAT ?MAX_TYPE@CRegParser@ATL@@1HB
CONST	SEGMENT
?MAX_TYPE@CRegParser@ATL@@1HB DD 01000H			; ATL::CRegParser::MAX_TYPE
CONST	ENDS
;	COMDAT ?VT@?$CVarTypeInfo@PAJ@ATL@@2GB
CONST	SEGMENT
?VT@?$CVarTypeInfo@PAJ@ATL@@2GB DW 04003H		; ATL::CVarTypeInfo<long *>::VT
CONST	ENDS
;	COMDAT ?cbNeverDelete@CRegParser@ATL@@1HB
CONST	SEGMENT
?cbNeverDelete@CRegParser@ATL@@1HB DD 0cH		; ATL::CRegParser::cbNeverDelete
CONST	ENDS
;	COMDAT ?rgszNeverDelete@CRegParser@ATL@@1QBQBDB
CONST	SEGMENT
?rgszNeverDelete@CRegParser@ATL@@1QBQBDB DD FLAT:??_C@_05PDIKPLII@AppID?$AA@ ; ATL::CRegParser::rgszNeverDelete
	DD	FLAT:??_C@_05GIBEAPNE@CLSID?$AA@
	DD	FLAT:??_C@_0BF@HDDNNDFH@Component?5Categories?$AA@
	DD	FLAT:??_C@_08PICKODJL@FileType?$AA@
	DD	FLAT:??_C@_09JKPGEJCH@Interface?$AA@
	DD	FLAT:??_C@_08PPIOJEA@Hardware?$AA@
	DD	FLAT:??_C@_04IHBFOLAC@Mime?$AA@
	DD	FLAT:??_C@_03DDIMFGBA@SAM?$AA@
	DD	FLAT:??_C@_08LOPHEHKG@SECURITY?$AA@
	DD	FLAT:??_C@_06FDHFNJBJ@SYSTEM?$AA@
	DD	FLAT:??_C@_08KEKAJNJI@Software?$AA@
	DD	FLAT:??_C@_07KJLOKDKB@TypeLib?$AA@
CONST	ENDS
;	COMDAT ?pmField@?$CVarTypeInfo@J@ATL@@2QQtagVARIANT@@JQ3@
CONST	SEGMENT
?pmField@?$CVarTypeInfo@J@ATL@@2QQtagVARIANT@@JQ3@ DD 08H ; ATL::CVarTypeInfo<long>::pmField
CONST	ENDS
;	COMDAT ?VT@?$CVarTypeInfo@J@ATL@@2GB
CONST	SEGMENT
?VT@?$CVarTypeInfo@J@ATL@@2GB DW 03H			; ATL::CVarTypeInfo<long>::VT
CONST	ENDS
;	COMDAT __GUID_00000000_0000_0000_c000_000000000046
CONST	SEGMENT
__GUID_00000000_0000_0000_c000_000000000046 DD 00H
	DW	00H
	DW	00H
	DB	0c0H
	DB	00H
	DB	00H
	DB	00H
	DB	00H
	DB	00H
	DB	00H
	DB	046H
CONST	ENDS
;	COMDAT ?pmField@?$CVarTypeInfo@PAI@ATL@@2QQtagVARIANT@@PAIQ3@
CONST	SEGMENT
?pmField@?$CVarTypeInfo@PAI@ATL@@2QQtagVARIANT@@PAIQ3@ DD 08H ; ATL::CVarTypeInfo<unsigned int *>::pmField
CONST	ENDS
;	COMDAT ?VT@?$CVarTypeInfo@PAI@ATL@@2GB
CONST	SEGMENT
?VT@?$CVarTypeInfo@PAI@ATL@@2GB DW 04013H		; ATL::CVarTypeInfo<unsigned int *>::VT
CONST	ENDS
;	COMDAT ?pmField@?$CVarTypeInfo@I@ATL@@2QQtagVARIANT@@IQ3@
CONST	SEGMENT
?pmField@?$CVarTypeInfo@I@ATL@@2QQtagVARIANT@@IQ3@ DD 08H ; ATL::CVarTypeInfo<unsigned int>::pmField
CONST	ENDS
;	COMDAT ?VT@?$CVarTypeInfo@I@ATL@@2GB
CONST	SEGMENT
?VT@?$CVarTypeInfo@I@ATL@@2GB DW 013H			; ATL::CVarTypeInfo<unsigned int>::VT
CONST	ENDS
;	COMDAT ?MAX_VALUE@CRegParser@ATL@@1HB
CONST	SEGMENT
?MAX_VALUE@CRegParser@ATL@@1HB DD 01000H		; ATL::CRegParser::MAX_VALUE
CONST	ENDS
;	COMDAT ?pmField@?$CVarTypeInfo@PAH@ATL@@2QQtagVARIANT@@PAHQ3@
CONST	SEGMENT
?pmField@?$CVarTypeInfo@PAH@ATL@@2QQtagVARIANT@@PAHQ3@ DD 08H ; ATL::CVarTypeInfo<int *>::pmField
CONST	ENDS
;	COMDAT ?VT@?$CVarTypeInfo@PAH@ATL@@2GB
CONST	SEGMENT
?VT@?$CVarTypeInfo@PAH@ATL@@2GB DW 04003H		; ATL::CVarTypeInfo<int *>::VT
CONST	ENDS
;	COMDAT ?value@?$_Sizeof@U_Nil@std@@U12@U12@U12@U12@U12@U12@U12@@std@@2IB
CONST	SEGMENT
?value@?$_Sizeof@U_Nil@std@@U12@U12@U12@U12@U12@U12@U12@@std@@2IB DD 00H ; std::_Sizeof<std::_Nil,std::_Nil,std::_Nil,std::_Nil,std::_Nil,std::_Nil,std::_Nil,std::_Nil>::value
CONST	ENDS
;	COMDAT ?_Stream_err@failure@ios_base@std@@0W4io_errc@43@B
CONST	SEGMENT
?_Stream_err@failure@ios_base@std@@0W4io_errc@43@B DD 01H ; std::ios_base::failure::_Stream_err
CONST	ENDS
;	COMDAT ?pmField@?$CVarTypeInfo@H@ATL@@2QQtagVARIANT@@HQ3@
CONST	SEGMENT
?pmField@?$CVarTypeInfo@H@ATL@@2QQtagVARIANT@@HQ3@ DD 08H ; ATL::CVarTypeInfo<int>::pmField
CONST	ENDS
;	COMDAT ?VT@?$CVarTypeInfo@H@ATL@@2GB
CONST	SEGMENT
?VT@?$CVarTypeInfo@H@ATL@@2GB DW 03H			; ATL::CVarTypeInfo<int>::VT
CONST	ENDS
;	COMDAT ?pmField@?$CVarTypeInfo@PAG@ATL@@2QQtagVARIANT@@PAGQ3@
CONST	SEGMENT
?pmField@?$CVarTypeInfo@PAG@ATL@@2QQtagVARIANT@@PAGQ3@ DD 08H ; ATL::CVarTypeInfo<unsigned short *>::pmField
CONST	ENDS
;	COMDAT ?VT@?$CVarTypeInfo@PAG@ATL@@2GB
CONST	SEGMENT
?VT@?$CVarTypeInfo@PAG@ATL@@2GB DW 04012H		; ATL::CVarTypeInfo<unsigned short *>::VT
CONST	ENDS
;	COMDAT ?pmField@?$CVarTypeInfo@G@ATL@@2QQtagVARIANT@@GQ3@
CONST	SEGMENT
?pmField@?$CVarTypeInfo@G@ATL@@2QQtagVARIANT@@GQ3@ DD 08H ; ATL::CVarTypeInfo<unsigned short>::pmField
CONST	ENDS
;	COMDAT ?end@?$_Iosb@H@std@@2W4_Seekdir@12@B
CONST	SEGMENT
?end@?$_Iosb@H@std@@2W4_Seekdir@12@B DD 02H		; std::_Iosb<int>::end
CONST	ENDS
;	COMDAT ?VT@?$CVarTypeInfo@G@ATL@@2GB
CONST	SEGMENT
?VT@?$CVarTypeInfo@G@ATL@@2GB DW 012H			; ATL::CVarTypeInfo<unsigned short>::VT
CONST	ENDS
;	COMDAT ?cur@?$_Iosb@H@std@@2W4_Seekdir@12@B
CONST	SEGMENT
?cur@?$_Iosb@H@std@@2W4_Seekdir@12@B DD 01H		; std::_Iosb<int>::cur
CONST	ENDS
;	COMDAT ?beg@?$_Iosb@H@std@@2W4_Seekdir@12@B
CONST	SEGMENT
?beg@?$_Iosb@H@std@@2W4_Seekdir@12@B DD 00H		; std::_Iosb<int>::beg
CONST	ENDS
;	COMDAT ?binary@?$_Iosb@H@std@@2W4_Openmode@12@B
CONST	SEGMENT
?binary@?$_Iosb@H@std@@2W4_Openmode@12@B DD 020H	; std::_Iosb<int>::binary
CONST	ENDS
;	COMDAT ?pmField@?$CVarTypeInfo@PAF@ATL@@2QQtagVARIANT@@PAFQ3@
CONST	SEGMENT
?pmField@?$CVarTypeInfo@PAF@ATL@@2QQtagVARIANT@@PAFQ3@ DD 08H ; ATL::CVarTypeInfo<short *>::pmField
CONST	ENDS
;	COMDAT ?VT@?$CVarTypeInfo@PAF@ATL@@2GB
CONST	SEGMENT
?VT@?$CVarTypeInfo@PAF@ATL@@2GB DW 04002H		; ATL::CVarTypeInfo<short *>::VT
CONST	ENDS
;	COMDAT ?_Noreplace@?$_Iosb@H@std@@2W4_Openmode@12@B
CONST	SEGMENT
?_Noreplace@?$_Iosb@H@std@@2W4_Openmode@12@B DD 080H	; std::_Iosb<int>::_Noreplace
CONST	ENDS
;	COMDAT ?_Nocreate@?$_Iosb@H@std@@2W4_Openmode@12@B
CONST	SEGMENT
?_Nocreate@?$_Iosb@H@std@@2W4_Openmode@12@B DD 040H	; std::_Iosb<int>::_Nocreate
CONST	ENDS
;	COMDAT ?trunc@?$_Iosb@H@std@@2W4_Openmode@12@B
CONST	SEGMENT
?trunc@?$_Iosb@H@std@@2W4_Openmode@12@B DD 010H		; std::_Iosb<int>::trunc
CONST	ENDS
;	COMDAT ?app@?$_Iosb@H@std@@2W4_Openmode@12@B
CONST	SEGMENT
?app@?$_Iosb@H@std@@2W4_Openmode@12@B DD 08H		; std::_Iosb<int>::app
CONST	ENDS
;	COMDAT ?pmField@?$CVarTypeInfo@F@ATL@@2QQtagVARIANT@@FQ3@
CONST	SEGMENT
?pmField@?$CVarTypeInfo@F@ATL@@2QQtagVARIANT@@FQ3@ DD 08H ; ATL::CVarTypeInfo<short>::pmField
CONST	ENDS
;	COMDAT ?ate@?$_Iosb@H@std@@2W4_Openmode@12@B
CONST	SEGMENT
?ate@?$_Iosb@H@std@@2W4_Openmode@12@B DD 04H		; std::_Iosb<int>::ate
CONST	ENDS
;	COMDAT ?VT@?$CVarTypeInfo@F@ATL@@2GB
CONST	SEGMENT
?VT@?$CVarTypeInfo@F@ATL@@2GB DW 02H			; ATL::CVarTypeInfo<short>::VT
CONST	ENDS
;	COMDAT _IID_IRegistrar
CONST	SEGMENT
_IID_IRegistrar DD 044ec053bH
	DW	0400fH
	DW	011d0H
	DB	09dH
	DB	0cdH
	DB	00H
	DB	0a0H
	DB	0c9H
	DB	03H
	DB	091H
	DB	0d3H
CONST	ENDS
;	COMDAT ?out@?$_Iosb@H@std@@2W4_Openmode@12@B
CONST	SEGMENT
?out@?$_Iosb@H@std@@2W4_Openmode@12@B DD 02H		; std::_Iosb<int>::out
CONST	ENDS
;	COMDAT ?in@?$_Iosb@H@std@@2W4_Openmode@12@B
CONST	SEGMENT
?in@?$_Iosb@H@std@@2W4_Openmode@12@B DD 01H		; std::_Iosb<int>::in
CONST	ENDS
;	COMDAT ?_Hardfail@?$_Iosb@H@std@@2W4_Iostate@12@B
CONST	SEGMENT
?_Hardfail@?$_Iosb@H@std@@2W4_Iostate@12@B DD 010H	; std::_Iosb<int>::_Hardfail
CONST	ENDS
;	COMDAT ?pmField@?$CVarTypeInfo@PAE@ATL@@2QQtagVARIANT@@PAEQ3@
CONST	SEGMENT
?pmField@?$CVarTypeInfo@PAE@ATL@@2QQtagVARIANT@@PAEQ3@ DD 08H ; ATL::CVarTypeInfo<unsigned char *>::pmField
CONST	ENDS
;	COMDAT ?VT@?$CVarTypeInfo@PAE@ATL@@2GB
CONST	SEGMENT
?VT@?$CVarTypeInfo@PAE@ATL@@2GB DW 04011H		; ATL::CVarTypeInfo<unsigned char *>::VT
CONST	ENDS
;	COMDAT ?badbit@?$_Iosb@H@std@@2W4_Iostate@12@B
CONST	SEGMENT
?badbit@?$_Iosb@H@std@@2W4_Iostate@12@B DD 04H		; std::_Iosb<int>::badbit
CONST	ENDS
;	COMDAT ?failbit@?$_Iosb@H@std@@2W4_Iostate@12@B
CONST	SEGMENT
?failbit@?$_Iosb@H@std@@2W4_Iostate@12@B DD 02H		; std::_Iosb<int>::failbit
CONST	ENDS
;	COMDAT ?eofbit@?$_Iosb@H@std@@2W4_Iostate@12@B
CONST	SEGMENT
?eofbit@?$_Iosb@H@std@@2W4_Iostate@12@B DD 01H		; std::_Iosb<int>::eofbit
CONST	ENDS
;	COMDAT ?goodbit@?$_Iosb@H@std@@2W4_Iostate@12@B
CONST	SEGMENT
?goodbit@?$_Iosb@H@std@@2W4_Iostate@12@B DD 00H		; std::_Iosb<int>::goodbit
CONST	ENDS
;	COMDAT ?pmField@?$CVarTypeInfo@PAD@ATL@@2QQtagVARIANT@@PADQ3@
CONST	SEGMENT
?pmField@?$CVarTypeInfo@PAD@ATL@@2QQtagVARIANT@@PADQ3@ DD 08H ; ATL::CVarTypeInfo<char *>::pmField
CONST	ENDS
;	COMDAT ?VT@?$CVarTypeInfo@PAD@ATL@@2GB
CONST	SEGMENT
?VT@?$CVarTypeInfo@PAD@ATL@@2GB DW 04010H		; ATL::CVarTypeInfo<char *>::VT
CONST	ENDS
;	COMDAT ?floatfield@?$_Iosb@H@std@@2W4_Fmtflags@12@B
CONST	SEGMENT
?floatfield@?$_Iosb@H@std@@2W4_Fmtflags@12@B DD 03000H	; std::_Iosb<int>::floatfield
CONST	ENDS
;	COMDAT ?basefield@?$_Iosb@H@std@@2W4_Fmtflags@12@B
CONST	SEGMENT
?basefield@?$_Iosb@H@std@@2W4_Fmtflags@12@B DD 0e00H	; std::_Iosb<int>::basefield
CONST	ENDS
;	COMDAT ?adjustfield@?$_Iosb@H@std@@2W4_Fmtflags@12@B
CONST	SEGMENT
?adjustfield@?$_Iosb@H@std@@2W4_Fmtflags@12@B DD 01c0H	; std::_Iosb<int>::adjustfield
CONST	ENDS
;	COMDAT _CLSID_Registrar
CONST	SEGMENT
_CLSID_Registrar DD 044ec053aH
	DW	0400fH
	DW	011d0H
	DB	09dH
	DB	0cdH
	DB	00H
	DB	0a0H
	DB	0c9H
	DB	03H
	DB	091H
	DB	0d3H
CONST	ENDS
;	COMDAT ?_Stdio@?$_Iosb@H@std@@2W4_Fmtflags@12@B
CONST	SEGMENT
?_Stdio@?$_Iosb@H@std@@2W4_Fmtflags@12@B DD 08000H	; std::_Iosb<int>::_Stdio
CONST	ENDS
;	COMDAT ?pmField@?$CVarTypeInfo@E@ATL@@2QQtagVARIANT@@EQ3@
CONST	SEGMENT
?pmField@?$CVarTypeInfo@E@ATL@@2QQtagVARIANT@@EQ3@ DD 08H ; ATL::CVarTypeInfo<unsigned char>::pmField
CONST	ENDS
;	COMDAT ?VT@?$CVarTypeInfo@E@ATL@@2GB
CONST	SEGMENT
?VT@?$CVarTypeInfo@E@ATL@@2GB DW 011H			; ATL::CVarTypeInfo<unsigned char>::VT
CONST	ENDS
;	COMDAT ?boolalpha@?$_Iosb@H@std@@2W4_Fmtflags@12@B
CONST	SEGMENT
?boolalpha@?$_Iosb@H@std@@2W4_Fmtflags@12@B DD 04000H	; std::_Iosb<int>::boolalpha
CONST	ENDS
;	COMDAT ?hexfloat@?$_Iosb@H@std@@2W4_Fmtflags@12@B
CONST	SEGMENT
?hexfloat@?$_Iosb@H@std@@2W4_Fmtflags@12@B DD 03000H	; std::_Iosb<int>::hexfloat
CONST	ENDS
;	COMDAT ?fixed@?$_Iosb@H@std@@2W4_Fmtflags@12@B
CONST	SEGMENT
?fixed@?$_Iosb@H@std@@2W4_Fmtflags@12@B DD 02000H	; std::_Iosb<int>::fixed
CONST	ENDS
;	COMDAT ?scientific@?$_Iosb@H@std@@2W4_Fmtflags@12@B
CONST	SEGMENT
?scientific@?$_Iosb@H@std@@2W4_Fmtflags@12@B DD 01000H	; std::_Iosb<int>::scientific
CONST	ENDS
;	COMDAT ?pmField@?$CVarTypeInfo@D@ATL@@2QQtagVARIANT@@DQ3@
CONST	SEGMENT
?pmField@?$CVarTypeInfo@D@ATL@@2QQtagVARIANT@@DQ3@ DD 08H ; ATL::CVarTypeInfo<char>::pmField
CONST	ENDS
;	COMDAT ?hex@?$_Iosb@H@std@@2W4_Fmtflags@12@B
CONST	SEGMENT
?hex@?$_Iosb@H@std@@2W4_Fmtflags@12@B DD 0800H		; std::_Iosb<int>::hex
CONST	ENDS
;	COMDAT ?VT@?$CVarTypeInfo@D@ATL@@2GB
CONST	SEGMENT
?VT@?$CVarTypeInfo@D@ATL@@2GB DW 010H			; ATL::CVarTypeInfo<char>::VT
CONST	ENDS
;	COMDAT ?oct@?$_Iosb@H@std@@2W4_Fmtflags@12@B
CONST	SEGMENT
?oct@?$_Iosb@H@std@@2W4_Fmtflags@12@B DD 0400H		; std::_Iosb<int>::oct
CONST	ENDS
;	COMDAT ?dec@?$_Iosb@H@std@@2W4_Fmtflags@12@B
CONST	SEGMENT
?dec@?$_Iosb@H@std@@2W4_Fmtflags@12@B DD 0200H		; std::_Iosb<int>::dec
CONST	ENDS
;	COMDAT ?_Max@?$AtlLimits@_K@ATL@@2_KB
CONST	SEGMENT
?_Max@?$AtlLimits@_K@ATL@@2_KB DQ ffffffffffffffffH	; ATL::AtlLimits<unsigned __int64>::_Max
CONST	ENDS
;	COMDAT ?internal@?$_Iosb@H@std@@2W4_Fmtflags@12@B
CONST	SEGMENT
?internal@?$_Iosb@H@std@@2W4_Fmtflags@12@B DD 0100H	; std::_Iosb<int>::internal
CONST	ENDS
;	COMDAT ?_Min@?$AtlLimits@_K@ATL@@2_KB
CONST	SEGMENT
?_Min@?$AtlLimits@_K@ATL@@2_KB DQ 0000000000000000H	; ATL::AtlLimits<unsigned __int64>::_Min
CONST	ENDS
;	COMDAT ?right@?$_Iosb@H@std@@2W4_Fmtflags@12@B
CONST	SEGMENT
?right@?$_Iosb@H@std@@2W4_Fmtflags@12@B DD 080H		; std::_Iosb<int>::right
CONST	ENDS
;	COMDAT ?left@?$_Iosb@H@std@@2W4_Fmtflags@12@B
CONST	SEGMENT
?left@?$_Iosb@H@std@@2W4_Fmtflags@12@B DD 040H		; std::_Iosb<int>::left
CONST	ENDS
;	COMDAT __GUID_00020400_0000_0000_c000_000000000046
CONST	SEGMENT
__GUID_00020400_0000_0000_c000_000000000046 DD 020400H
	DW	00H
	DW	00H
	DB	0c0H
	DB	00H
	DB	00H
	DB	00H
	DB	00H
	DB	00H
	DB	00H
	DB	046H
CONST	ENDS
;	COMDAT ?min_exponent10@?$numeric_limits@O@std@@2HB
CONST	SEGMENT
?min_exponent10@?$numeric_limits@O@std@@2HB DD 0fffffecdH ; std::numeric_limits<long double>::min_exponent10
CONST	ENDS
;	COMDAT ?showpos@?$_Iosb@H@std@@2W4_Fmtflags@12@B
CONST	SEGMENT
?showpos@?$_Iosb@H@std@@2W4_Fmtflags@12@B DD 020H	; std::_Iosb<int>::showpos
CONST	ENDS
;	COMDAT ?_Max@?$AtlLimits@_J@ATL@@2_JB
CONST	SEGMENT
?_Max@?$AtlLimits@_J@ATL@@2_JB DQ 7fffffffffffffffH	; ATL::AtlLimits<__int64>::_Max
CONST	ENDS
;	COMDAT ?min_exponent@?$numeric_limits@O@std@@2HB
CONST	SEGMENT
?min_exponent@?$numeric_limits@O@std@@2HB DD 0fffffc03H	; std::numeric_limits<long double>::min_exponent
CONST	ENDS
;	COMDAT ?showpoint@?$_Iosb@H@std@@2W4_Fmtflags@12@B
CONST	SEGMENT
?showpoint@?$_Iosb@H@std@@2W4_Fmtflags@12@B DD 010H	; std::_Iosb<int>::showpoint
CONST	ENDS
;	COMDAT ?_Min@?$AtlLimits@_J@ATL@@2_JB
CONST	SEGMENT
?_Min@?$AtlLimits@_J@ATL@@2_JB DQ 8000000000000000H	; ATL::AtlLimits<__int64>::_Min
CONST	ENDS
;	COMDAT ?max_exponent10@?$numeric_limits@O@std@@2HB
CONST	SEGMENT
?max_exponent10@?$numeric_limits@O@std@@2HB DD 0134H	; std::numeric_limits<long double>::max_exponent10
CONST	ENDS
;	COMDAT ?showbase@?$_Iosb@H@std@@2W4_Fmtflags@12@B
CONST	SEGMENT
?showbase@?$_Iosb@H@std@@2W4_Fmtflags@12@B DD 08H	; std::_Iosb<int>::showbase
CONST	ENDS
;	COMDAT ?uppercase@?$_Iosb@H@std@@2W4_Fmtflags@12@B
CONST	SEGMENT
?uppercase@?$_Iosb@H@std@@2W4_Fmtflags@12@B DD 04H	; std::_Iosb<int>::uppercase
CONST	ENDS
;	COMDAT ?max_exponent@?$numeric_limits@O@std@@2HB
CONST	SEGMENT
?max_exponent@?$numeric_limits@O@std@@2HB DD 0400H	; std::numeric_limits<long double>::max_exponent
CONST	ENDS
;	COMDAT ?unitbuf@?$_Iosb@H@std@@2W4_Fmtflags@12@B
CONST	SEGMENT
?unitbuf@?$_Iosb@H@std@@2W4_Fmtflags@12@B DD 02H	; std::_Iosb<int>::unitbuf
CONST	ENDS
;	COMDAT ?_Max@?$AtlLimits@K@ATL@@2KB
CONST	SEGMENT
?_Max@?$AtlLimits@K@ATL@@2KB DD 0ffffffffH		; ATL::AtlLimits<unsigned long>::_Max
CONST	ENDS
;	COMDAT ?max_digits10@?$numeric_limits@O@std@@2HB
CONST	SEGMENT
?max_digits10@?$numeric_limits@O@std@@2HB DD 011H	; std::numeric_limits<long double>::max_digits10
CONST	ENDS
;	COMDAT ?skipws@?$_Iosb@H@std@@2W4_Fmtflags@12@B
CONST	SEGMENT
?skipws@?$_Iosb@H@std@@2W4_Fmtflags@12@B DD 01H		; std::_Iosb<int>::skipws
CONST	ENDS
;	COMDAT ?_Min@?$AtlLimits@K@ATL@@2KB
CONST	SEGMENT
?_Min@?$AtlLimits@K@ATL@@2KB DD 00H			; ATL::AtlLimits<unsigned long>::_Min
CONST	ENDS
;	COMDAT ?digits10@?$numeric_limits@O@std@@2HB
CONST	SEGMENT
?digits10@?$numeric_limits@O@std@@2HB DD 0fH		; std::numeric_limits<long double>::digits10
CONST	ENDS
;	COMDAT ?digits@?$numeric_limits@O@std@@2HB
CONST	SEGMENT
?digits@?$numeric_limits@O@std@@2HB DD 035H		; std::numeric_limits<long double>::digits
CONST	ENDS
;	COMDAT ?_Max@?$AtlLimits@J@ATL@@2JB
CONST	SEGMENT
?_Max@?$AtlLimits@J@ATL@@2JB DD 07fffffffH		; ATL::AtlLimits<long>::_Max
CONST	ENDS
;	COMDAT ?_Min@?$AtlLimits@J@ATL@@2JB
CONST	SEGMENT
?_Min@?$AtlLimits@J@ATL@@2JB DD 080000000H		; ATL::AtlLimits<long>::_Min
CONST	ENDS
;	COMDAT ?_Max@?$AtlLimits@I@ATL@@2IB
CONST	SEGMENT
?_Max@?$AtlLimits@I@ATL@@2IB DD 0ffffffffH		; ATL::AtlLimits<unsigned int>::_Max
CONST	ENDS
;	COMDAT ?_Min@?$AtlLimits@I@ATL@@2IB
CONST	SEGMENT
?_Min@?$AtlLimits@I@ATL@@2IB DD 00H			; ATL::AtlLimits<unsigned int>::_Min
CONST	ENDS
;	COMDAT ?_Max@?$AtlLimits@H@ATL@@2HB
CONST	SEGMENT
?_Max@?$AtlLimits@H@ATL@@2HB DD 07fffffffH		; ATL::AtlLimits<int>::_Max
CONST	ENDS
;	COMDAT ?min_exponent10@?$numeric_limits@N@std@@2HB
CONST	SEGMENT
?min_exponent10@?$numeric_limits@N@std@@2HB DD 0fffffecdH ; std::numeric_limits<double>::min_exponent10
CONST	ENDS
;	COMDAT ?_Min@?$AtlLimits@H@ATL@@2HB
CONST	SEGMENT
?_Min@?$AtlLimits@H@ATL@@2HB DD 080000000H		; ATL::AtlLimits<int>::_Min
CONST	ENDS
;	COMDAT ?min_exponent@?$numeric_limits@N@std@@2HB
CONST	SEGMENT
?min_exponent@?$numeric_limits@N@std@@2HB DD 0fffffc03H	; std::numeric_limits<double>::min_exponent
CONST	ENDS
;	COMDAT ?max_exponent10@?$numeric_limits@N@std@@2HB
CONST	SEGMENT
?max_exponent10@?$numeric_limits@N@std@@2HB DD 0134H	; std::numeric_limits<double>::max_exponent10
CONST	ENDS
;	COMDAT ?max_exponent@?$numeric_limits@N@std@@2HB
CONST	SEGMENT
?max_exponent@?$numeric_limits@N@std@@2HB DD 0400H	; std::numeric_limits<double>::max_exponent
CONST	ENDS
;	COMDAT ?max_digits10@?$numeric_limits@N@std@@2HB
CONST	SEGMENT
?max_digits10@?$numeric_limits@N@std@@2HB DD 011H	; std::numeric_limits<double>::max_digits10
CONST	ENDS
;	COMDAT ?digits10@?$numeric_limits@N@std@@2HB
CONST	SEGMENT
?digits10@?$numeric_limits@N@std@@2HB DD 0fH		; std::numeric_limits<double>::digits10
CONST	ENDS
;	COMDAT ??_C@_06JBKGCNBB@Delete?$AA@
CONST	SEGMENT
??_C@_06JBKGCNBB@Delete?$AA@ DB 'Delete', 00H		; `string'
CONST	ENDS
;	COMDAT ?szDelete@ATL@@3QBDB
CONST	SEGMENT
?szDelete@ATL@@3QBDB DD FLAT:??_C@_06JBKGCNBB@Delete?$AA@ ; ATL::szDelete
CONST	ENDS
;	COMDAT ?digits@?$numeric_limits@N@std@@2HB
CONST	SEGMENT
?digits@?$numeric_limits@N@std@@2HB DD 035H		; std::numeric_limits<double>::digits
CONST	ENDS
;	COMDAT ??_C@_08KAAPDIAN@NoRemove?$AA@
CONST	SEGMENT
??_C@_08KAAPDIAN@NoRemove?$AA@ DB 'NoRemove', 00H	; `string'
CONST	ENDS
;	COMDAT ?szNoRemove@ATL@@3QBDB
CONST	SEGMENT
?szNoRemove@ATL@@3QBDB DD FLAT:??_C@_08KAAPDIAN@NoRemove?$AA@ ; ATL::szNoRemove
CONST	ENDS
;	COMDAT ?value@?$integral_constant@I$0A@@std@@2IB
CONST	SEGMENT
?value@?$integral_constant@I$0A@@std@@2IB DD 00H	; std::integral_constant<unsigned int,0>::value
CONST	ENDS
;	COMDAT ??_C@_0M@DBGDLGLL@ForceRemove?$AA@
CONST	SEGMENT
??_C@_0M@DBGDLGLL@ForceRemove?$AA@ DB 'ForceRemove', 00H ; `string'
CONST	ENDS
;	COMDAT ?szForceRemove@ATL@@3QBDB
CONST	SEGMENT
?szForceRemove@ATL@@3QBDB DD FLAT:??_C@_0M@DBGDLGLL@ForceRemove?$AA@ ; ATL::szForceRemove
CONST	ENDS
;	COMDAT ??_C@_03LAIAPFCB@Val?$AA@
CONST	SEGMENT
??_C@_03LAIAPFCB@Val?$AA@ DB 'Val', 00H			; `string'
CONST	ENDS
;	COMDAT ?szValToken@ATL@@3QBDB
CONST	SEGMENT
?szValToken@ATL@@3QBDB DD FLAT:??_C@_03LAIAPFCB@Val?$AA@ ; ATL::szValToken
CONST	ENDS
;	COMDAT ??_C@_01HMGJMAIH@B?$AA@
CONST	SEGMENT
??_C@_01HMGJMAIH@B?$AA@ DB 'B', 00H			; `string'
CONST	ENDS
;	COMDAT ?szBinaryVal@ATL@@3QBDB
CONST	SEGMENT
?szBinaryVal@ATL@@3QBDB DD FLAT:??_C@_01HMGJMAIH@B?$AA@	; ATL::szBinaryVal
CONST	ENDS
;	COMDAT ??_C@_01CKDDGHAB@D?$AA@
CONST	SEGMENT
??_C@_01CKDDGHAB@D?$AA@ DB 'D', 00H			; `string'
CONST	ENDS
;	COMDAT ?szDwordVal@ATL@@3QBDB
CONST	SEGMENT
?szDwordVal@ATL@@3QBDB DD FLAT:??_C@_01CKDDGHAB@D?$AA@	; ATL::szDwordVal
CONST	ENDS
;	COMDAT ??_C@_01PLPBNMEI@M?$AA@
CONST	SEGMENT
??_C@_01PLPBNMEI@M?$AA@ DB 'M', 00H			; `string'
CONST	ENDS
;	COMDAT ?multiszStringVal@ATL@@3QBDB
CONST	SEGMENT
?multiszStringVal@ATL@@3QBDB DD FLAT:??_C@_01PLPBNMEI@M?$AA@ ; ATL::multiszStringVal
CONST	ENDS
;	COMDAT ??_C@_01CPLAODJH@S?$AA@
CONST	SEGMENT
??_C@_01CPLAODJH@S?$AA@ DB 'S', 00H			; `string'
CONST	ENDS
;	COMDAT ?szStringVal@ATL@@3QBDB
CONST	SEGMENT
?szStringVal@ATL@@3QBDB DD FLAT:??_C@_01CPLAODJH@S?$AA@	; ATL::szStringVal
CONST	ENDS
;	COMDAT ?chEquals@ATL@@3DB
CONST	SEGMENT
?chEquals@ATL@@3DB DB 03dH				; ATL::chEquals
CONST	ENDS
;	COMDAT ?chQuote@ATL@@3DB
CONST	SEGMENT
?chQuote@ATL@@3DB DB 027H				; ATL::chQuote
CONST	ENDS
;	COMDAT ?chLeftBracket@ATL@@3DB
CONST	SEGMENT
?chLeftBracket@ATL@@3DB DB 07bH				; ATL::chLeftBracket
CONST	ENDS
;	COMDAT ?chRightBracket@ATL@@3DB
CONST	SEGMENT
?chRightBracket@ATL@@3DB DB 07dH			; ATL::chRightBracket
CONST	ENDS
;	COMDAT ?chDirSep@ATL@@3DB
CONST	SEGMENT
?chDirSep@ATL@@3DB DB 05cH				; ATL::chDirSep
CONST	ENDS
;	COMDAT ?min_exponent10@?$numeric_limits@M@std@@2HB
CONST	SEGMENT
?min_exponent10@?$numeric_limits@M@std@@2HB DD 0ffffffdbH ; std::numeric_limits<float>::min_exponent10
CONST	ENDS
;	COMDAT ?min_exponent@?$numeric_limits@M@std@@2HB
CONST	SEGMENT
?min_exponent@?$numeric_limits@M@std@@2HB DD 0ffffff83H	; std::numeric_limits<float>::min_exponent
CONST	ENDS
;	COMDAT ?max_exponent10@?$numeric_limits@M@std@@2HB
CONST	SEGMENT
?max_exponent10@?$numeric_limits@M@std@@2HB DD 026H	; std::numeric_limits<float>::max_exponent10
CONST	ENDS
;	COMDAT ?max_exponent@?$numeric_limits@M@std@@2HB
CONST	SEGMENT
?max_exponent@?$numeric_limits@M@std@@2HB DD 080H	; std::numeric_limits<float>::max_exponent
CONST	ENDS
;	COMDAT ?max_digits10@?$numeric_limits@M@std@@2HB
CONST	SEGMENT
?max_digits10@?$numeric_limits@M@std@@2HB DD 09H	; std::numeric_limits<float>::max_digits10
CONST	ENDS
;	COMDAT ?digits10@?$numeric_limits@M@std@@2HB
CONST	SEGMENT
?digits10@?$numeric_limits@M@std@@2HB DD 06H		; std::numeric_limits<float>::digits10
CONST	ENDS
;	COMDAT ?digits@?$numeric_limits@M@std@@2HB
CONST	SEGMENT
?digits@?$numeric_limits@M@std@@2HB DD 018H		; std::numeric_limits<float>::digits
CONST	ENDS
;	COMDAT ??_C@_05PDIKPLII@AppID?$AA@
CONST	SEGMENT
??_C@_05PDIKPLII@AppID?$AA@ DB 'AppID', 00H		; `string'
CONST	ENDS
;	COMDAT ?digits10@?$numeric_limits@_K@std@@2HB
CONST	SEGMENT
?digits10@?$numeric_limits@_K@std@@2HB DD 013H		; std::numeric_limits<unsigned __int64>::digits10
CONST	ENDS
;	COMDAT ?digits@?$numeric_limits@_K@std@@2HB
CONST	SEGMENT
?digits@?$numeric_limits@_K@std@@2HB DD 040H		; std::numeric_limits<unsigned __int64>::digits
CONST	ENDS
;	COMDAT ?is_signed@?$numeric_limits@_K@std@@2_NB
CONST	SEGMENT
?is_signed@?$numeric_limits@_K@std@@2_NB DB 00H		; std::numeric_limits<unsigned __int64>::is_signed
CONST	ENDS
;	COMDAT ??_C@_05GIBEAPNE@CLSID?$AA@
CONST	SEGMENT
??_C@_05GIBEAPNE@CLSID?$AA@ DB 'CLSID', 00H		; `string'
CONST	ENDS
;	COMDAT _IID_IInternalConnection
CONST	SEGMENT
_IID_IInternalConnection DD 072ad0770H
	DW	06a9fH
	DW	011d1H
	DB	0bcH
	DB	0ecH
	DB	00H
	DB	060H
	DB	08H
	DB	08fH
	DB	044H
	DB	04eH
CONST	ENDS
;	COMDAT __GUID_7fd52380_4e07_101b_ae2d_08002b2ec713
CONST	SEGMENT
__GUID_7fd52380_4e07_101b_ae2d_08002b2ec713 DD 07fd52380H
	DW	04e07H
	DW	0101bH
	DB	0aeH
	DB	02dH
	DB	08H
	DB	00H
	DB	02bH
	DB	02eH
	DB	0c7H
	DB	013H
CONST	ENDS
;	COMDAT ?digits10@?$numeric_limits@_J@std@@2HB
CONST	SEGMENT
?digits10@?$numeric_limits@_J@std@@2HB DD 012H		; std::numeric_limits<__int64>::digits10
CONST	ENDS
;	COMDAT ?digits@?$numeric_limits@_J@std@@2HB
CONST	SEGMENT
?digits@?$numeric_limits@_J@std@@2HB DD 03fH		; std::numeric_limits<__int64>::digits
CONST	ENDS
;	COMDAT __GUID_00000109_0000_0000_c000_000000000046
CONST	SEGMENT
__GUID_00000109_0000_0000_c000_000000000046 DD 0109H
	DW	00H
	DW	00H
	DB	0c0H
	DB	00H
	DB	00H
	DB	00H
	DB	00H
	DB	00H
	DB	00H
	DB	046H
CONST	ENDS
;	COMDAT ?is_signed@?$numeric_limits@_J@std@@2_NB
CONST	SEGMENT
?is_signed@?$numeric_limits@_J@std@@2_NB DB 01H		; std::numeric_limits<__int64>::is_signed
CONST	ENDS
;	COMDAT _IID_IAxWinAmbientDispatchEx
CONST	SEGMENT
_IID_IAxWinAmbientDispatchEx DD 0b2d0778bH
	DW	0ac99H
	DW	04c58H
	DB	0a5H
	DB	0c8H
	DB	0e7H
	DB	072H
	DB	04eH
	DB	053H
	DB	016H
	DB	0b5H
CONST	ENDS
;	COMDAT ?digits10@?$numeric_limits@K@std@@2HB
CONST	SEGMENT
?digits10@?$numeric_limits@K@std@@2HB DD 09H		; std::numeric_limits<unsigned long>::digits10
CONST	ENDS
;	COMDAT ?digits@?$numeric_limits@K@std@@2HB
CONST	SEGMENT
?digits@?$numeric_limits@K@std@@2HB DD 020H		; std::numeric_limits<unsigned long>::digits
CONST	ENDS
;	COMDAT __GUID_0002e012_0000_0000_c000_000000000046
CONST	SEGMENT
__GUID_0002e012_0000_0000_c000_000000000046 DD 02e012H
	DW	00H
	DW	00H
	DB	0c0H
	DB	00H
	DB	00H
	DB	00H
	DB	00H
	DB	00H
	DB	00H
	DB	046H
CONST	ENDS
;	COMDAT ?is_signed@?$numeric_limits@K@std@@2_NB
CONST	SEGMENT
?is_signed@?$numeric_limits@K@std@@2_NB DB 00H		; std::numeric_limits<unsigned long>::is_signed
CONST	ENDS
;	COMDAT __GUID_5ff85b6b_de05_42b9_831f_dc6a4e30a513
CONST	SEGMENT
__GUID_5ff85b6b_de05_42b9_831f_dc6a4e30a513 DD 05ff85b6bH
	DW	0de05H
	DW	042b9H
	DB	083H
	DB	01fH
	DB	0dcH
	DB	06aH
	DB	04eH
	DB	030H
	DB	0a5H
	DB	013H
CONST	ENDS
;	COMDAT __GUID_90efd9f9_d7a8_11d2_901a_004f4e006398
CONST	SEGMENT
__GUID_90efd9f9_d7a8_11d2_901a_004f4e006398 DD 090efd9f9H
	DW	0d7a8H
	DW	011d2H
	DB	090H
	DB	01aH
	DB	00H
	DB	04fH
	DB	04eH
	DB	00H
	DB	063H
	DB	098H
CONST	ENDS
;	COMDAT __GUID_00000000_0000_0000_0000_000000000000
CONST	SEGMENT
__GUID_00000000_0000_0000_0000_000000000000 DD 00H
	DW	00H
	DW	00H
	DB	00H
	DB	00H
	DB	00H
	DB	00H
	DB	00H
	DB	00H
	DB	00H
	DB	00H
CONST	ENDS
;	COMDAT __GUID_df360ef0_de0d_11d2_9023_004f4e006398
CONST	SEGMENT
__GUID_df360ef0_de0d_11d2_9023_004f4e006398 DD 0df360ef0H
	DW	0de0dH
	DW	011d2H
	DB	090H
	DB	023H
	DB	00H
	DB	04fH
	DB	04eH
	DB	00H
	DB	063H
	DB	098H
CONST	ENDS
;	COMDAT ?digits10@?$numeric_limits@J@std@@2HB
CONST	SEGMENT
?digits10@?$numeric_limits@J@std@@2HB DD 09H		; std::numeric_limits<long>::digits10
CONST	ENDS
_DATA	SEGMENT
_gCommsUniqueID DD 01H
_PeopleChatType DW 01H
_DATA	ENDS
;	COMDAT __GUID_1386ae5d_d6f3_11d2_9018_004f4e006398
CONST	SEGMENT
__GUID_1386ae5d_d6f3_11d2_9018_004f4e006398 DD 01386ae5dH
	DW	0d6f3H
	DW	011d2H
	DB	090H
	DB	018H
	DB	00H
	DB	04fH
	DB	04eH
	DB	00H
	DB	063H
	DB	098H
CONST	ENDS
;	COMDAT ?digits@?$numeric_limits@J@std@@2HB
CONST	SEGMENT
?digits@?$numeric_limits@J@std@@2HB DD 01fH		; std::numeric_limits<long>::digits
CONST	ENDS
;	COMDAT __GUID_1386ae5a_d6f3_11d2_9018_004f4e006398
CONST	SEGMENT
__GUID_1386ae5a_d6f3_11d2_9018_004f4e006398 DD 01386ae5aH
	DW	0d6f3H
	DW	011d2H
	DB	090H
	DB	018H
	DB	00H
	DB	04fH
	DB	04eH
	DB	00H
	DB	063H
	DB	098H
CONST	ENDS
;	COMDAT ?is_signed@?$numeric_limits@J@std@@2_NB
CONST	SEGMENT
?is_signed@?$numeric_limits@J@std@@2_NB DB 01H		; std::numeric_limits<long>::is_signed
CONST	ENDS
;	COMDAT __GUID_1386ae5c_d6f3_11d2_9018_004f4e006398
CONST	SEGMENT
__GUID_1386ae5c_d6f3_11d2_9018_004f4e006398 DD 01386ae5cH
	DW	0d6f3H
	DW	011d2H
	DB	090H
	DB	018H
	DB	00H
	DB	04fH
	DB	04eH
	DB	00H
	DB	063H
	DB	098H
CONST	ENDS
;	COMDAT __GUID_0f70ccce_d716_11d2_9018_004f4e006398
CONST	SEGMENT
__GUID_0f70ccce_d716_11d2_9018_004f4e006398 DD 0f70ccceH
	DW	0d716H
	DW	011d2H
	DB	090H
	DB	018H
	DB	00H
	DB	04fH
	DB	04eH
	DB	00H
	DB	063H
	DB	098H
CONST	ENDS
;	COMDAT __GUID_dda57122_d4e3_11d2_9018_004f4e006398
CONST	SEGMENT
__GUID_dda57122_d4e3_11d2_9018_004f4e006398 DD 0dda57122H
	DW	0d4e3H
	DW	011d2H
	DB	090H
	DB	018H
	DB	00H
	DB	04fH
	DB	04eH
	DB	00H
	DB	063H
	DB	098H
CONST	ENDS
;	COMDAT __GUID_d783c329_d613_11d2_9018_004f4e006398
CONST	SEGMENT
__GUID_d783c329_d613_11d2_9018_004f4e006398 DD 0d783c329H
	DW	0d613H
	DW	011d2H
	DB	090H
	DB	018H
	DB	00H
	DB	04fH
	DB	04eH
	DB	00H
	DB	063H
	DB	098H
CONST	ENDS
;	COMDAT __GUID_b6b03a0c_d547_11d2_9018_004f4e006398
CONST	SEGMENT
__GUID_b6b03a0c_d547_11d2_9018_004f4e006398 DD 0b6b03a0cH
	DW	0d547H
	DW	011d2H
	DB	090H
	DB	018H
	DB	00H
	DB	04fH
	DB	04eH
	DB	00H
	DB	063H
	DB	098H
CONST	ENDS
;	COMDAT ?digits10@?$numeric_limits@I@std@@2HB
CONST	SEGMENT
?digits10@?$numeric_limits@I@std@@2HB DD 09H		; std::numeric_limits<unsigned int>::digits10
CONST	ENDS
;	COMDAT ?digits@?$numeric_limits@I@std@@2HB
CONST	SEGMENT
?digits@?$numeric_limits@I@std@@2HB DD 020H		; std::numeric_limits<unsigned int>::digits
CONST	ENDS
;	COMDAT ??_C@_07KJLOKDKB@TypeLib?$AA@
CONST	SEGMENT
??_C@_07KJLOKDKB@TypeLib?$AA@ DB 'TypeLib', 00H		; `string'
CONST	ENDS
;	COMDAT __GUID_36b5b50d_69bb_43d5_83f6_aaf7eb9fff7b
CONST	SEGMENT
__GUID_36b5b50d_69bb_43d5_83f6_aaf7eb9fff7b DD 036b5b50dH
	DW	069bbH
	DW	043d5H
	DB	083H
	DB	0f6H
	DB	0aaH
	DB	0f7H
	DB	0ebH
	DB	09fH
	DB	0ffH
	DB	07bH
CONST	ENDS
;	COMDAT ??_C@_08KEKAJNJI@Software?$AA@
CONST	SEGMENT
??_C@_08KEKAJNJI@Software?$AA@ DB 'Software', 00H	; `string'
CONST	ENDS
;	COMDAT ??_C@_06FDHFNJBJ@SYSTEM?$AA@
CONST	SEGMENT
??_C@_06FDHFNJBJ@SYSTEM?$AA@ DB 'SYSTEM', 00H		; `string'
CONST	ENDS
;	COMDAT ?is_signed@?$numeric_limits@I@std@@2_NB
CONST	SEGMENT
?is_signed@?$numeric_limits@I@std@@2_NB DB 00H		; std::numeric_limits<unsigned int>::is_signed
CONST	ENDS
;	COMDAT ??_C@_08LOPHEHKG@SECURITY?$AA@
CONST	SEGMENT
??_C@_08LOPHEHKG@SECURITY?$AA@ DB 'SECURITY', 00H	; `string'
CONST	ENDS
;	COMDAT ??_C@_03DDIMFGBA@SAM?$AA@
CONST	SEGMENT
??_C@_03DDIMFGBA@SAM?$AA@ DB 'SAM', 00H			; `string'
CONST	ENDS
;	COMDAT ??_C@_04IHBFOLAC@Mime?$AA@
CONST	SEGMENT
??_C@_04IHBFOLAC@Mime?$AA@ DB 'Mime', 00H		; `string'
CONST	ENDS
;	COMDAT ??_C@_08PPIOJEA@Hardware?$AA@
CONST	SEGMENT
??_C@_08PPIOJEA@Hardware?$AA@ DB 'Hardware', 00H	; `string'
CONST	ENDS
;	COMDAT __GUID_e0016343_4124_48a9_9734_93f48700a04a
CONST	SEGMENT
__GUID_e0016343_4124_48a9_9734_93f48700a04a DD 0e0016343H
	DW	04124H
	DW	048a9H
	DB	097H
	DB	034H
	DB	093H
	DB	0f4H
	DB	087H
	DB	00H
	DB	0a0H
	DB	04aH
CONST	ENDS
;	COMDAT ??_C@_09JKPGEJCH@Interface?$AA@
CONST	SEGMENT
??_C@_09JKPGEJCH@Interface?$AA@ DB 'Interface', 00H	; `string'
CONST	ENDS
;	COMDAT ??_C@_08PICKODJL@FileType?$AA@
CONST	SEGMENT
??_C@_08PICKODJL@FileType?$AA@ DB 'FileType', 00H	; `string'
CONST	ENDS
;	COMDAT ??_C@_0BF@HDDNNDFH@Component?5Categories?$AA@
CONST	SEGMENT
??_C@_0BF@HDDNNDFH@Component?5Categories?$AA@ DB 'Component Categories', 00H ; `string'
CONST	ENDS
;	COMDAT __GUID_9d9bb9a8_d54c_11d2_9018_004f4e006398
CONST	SEGMENT
__GUID_9d9bb9a8_d54c_11d2_9018_004f4e006398 DD 09d9bb9a8H
	DW	0d54cH
	DW	011d2H
	DB	090H
	DB	018H
	DB	00H
	DB	04fH
	DB	04eH
	DB	00H
	DB	063H
	DB	098H
CONST	ENDS
;	COMDAT __GUID_dda57127_d4e3_11d2_9018_004f4e006398
CONST	SEGMENT
__GUID_dda57127_d4e3_11d2_9018_004f4e006398 DD 0dda57127H
	DW	0d4e3H
	DW	011d2H
	DB	090H
	DB	018H
	DB	00H
	DB	04fH
	DB	04eH
	DB	00H
	DB	063H
	DB	098H
CONST	ENDS
;	COMDAT ___pobjMapEntryLast
ATL$__z	SEGMENT
___pobjMapEntryLast DD 00H
ATL$__z	ENDS
;	COMDAT ___pobjMapEntryFirst
ATL$__a	SEGMENT
___pobjMapEntryFirst DD 00H
ATL$__a	ENDS
;	COMDAT __GUID_dda57125_d4e3_11d2_9018_004f4e006398
CONST	SEGMENT
__GUID_dda57125_d4e3_11d2_9018_004f4e006398 DD 0dda57125H
	DW	0d4e3H
	DW	011d2H
	DB	090H
	DB	018H
	DB	00H
	DB	04fH
	DB	04eH
	DB	00H
	DB	063H
	DB	098H
CONST	ENDS
;	COMDAT ?digits10@?$numeric_limits@H@std@@2HB
CONST	SEGMENT
?digits10@?$numeric_limits@H@std@@2HB DD 09H		; std::numeric_limits<int>::digits10
CONST	ENDS
;	COMDAT __GUID_b8d1f614_d5e4_4bd1_8f01_17371deaf685
CONST	SEGMENT
__GUID_b8d1f614_d5e4_4bd1_8f01_17371deaf685 DD 0b8d1f614H
	DW	0d5e4H
	DW	04bd1H
	DB	08fH
	DB	01H
	DB	017H
	DB	037H
	DB	01dH
	DB	0eaH
	DB	0f6H
	DB	085H
CONST	ENDS
;	COMDAT ?digits@?$numeric_limits@H@std@@2HB
CONST	SEGMENT
?digits@?$numeric_limits@H@std@@2HB DD 01fH		; std::numeric_limits<int>::digits
CONST	ENDS
;	COMDAT ?value@?$_Sizeof@HU_Nil@std@@U12@U12@U12@U12@U12@U12@@std@@2IB
CONST	SEGMENT
?value@?$_Sizeof@HU_Nil@std@@U12@U12@U12@U12@U12@U12@@std@@2IB DD 01H ; std::_Sizeof<int,std::_Nil,std::_Nil,std::_Nil,std::_Nil,std::_Nil,std::_Nil,std::_Nil>::value
CONST	ENDS
;	COMDAT ?is_signed@?$numeric_limits@H@std@@2_NB
CONST	SEGMENT
?is_signed@?$numeric_limits@H@std@@2_NB DB 01H		; std::numeric_limits<int>::is_signed
CONST	ENDS
;	COMDAT __GUID_dda57123_d4e3_11d2_9018_004f4e006398
CONST	SEGMENT
__GUID_dda57123_d4e3_11d2_9018_004f4e006398 DD 0dda57123H
	DW	0d4e3H
	DW	011d2H
	DB	090H
	DB	018H
	DB	00H
	DB	04fH
	DB	04eH
	DB	00H
	DB	063H
	DB	098H
CONST	ENDS
;	COMDAT __GUID_dda57120_d4e3_11d2_9018_004f4e006398
CONST	SEGMENT
__GUID_dda57120_d4e3_11d2_9018_004f4e006398 DD 0dda57120H
	DW	0d4e3H
	DW	011d2H
	DB	090H
	DB	018H
	DB	00H
	DB	04fH
	DB	04eH
	DB	00H
	DB	063H
	DB	098H
CONST	ENDS
;	COMDAT __GUID_8edbef0a_aeb1_48ad_9ed2_bd41cd1075bd
CONST	SEGMENT
__GUID_8edbef0a_aeb1_48ad_9ed2_bd41cd1075bd DD 08edbef0aH
	DW	0aeb1H
	DW	048adH
	DB	09eH
	DB	0d2H
	DB	0bdH
	DB	041H
	DB	0cdH
	DB	010H
	DB	075H
	DB	0bdH
CONST	ENDS
;	COMDAT ?digits10@?$numeric_limits@G@std@@2HB
CONST	SEGMENT
?digits10@?$numeric_limits@G@std@@2HB DD 04H		; std::numeric_limits<unsigned short>::digits10
CONST	ENDS
;	COMDAT ?digits@?$numeric_limits@G@std@@2HB
CONST	SEGMENT
?digits@?$numeric_limits@G@std@@2HB DD 010H		; std::numeric_limits<unsigned short>::digits
CONST	ENDS
;	COMDAT ?is_signed@?$numeric_limits@G@std@@2_NB
CONST	SEGMENT
?is_signed@?$numeric_limits@G@std@@2_NB DB 00H		; std::numeric_limits<unsigned short>::is_signed
CONST	ENDS
;	COMDAT __GUID_fc4801a3_2ba9_11cf_a229_00aa003d7352
CONST	SEGMENT
__GUID_fc4801a3_2ba9_11cf_a229_00aa003d7352 DD 0fc4801a3H
	DW	02ba9H
	DW	011cfH
	DB	0a2H
	DB	029H
	DB	00H
	DB	0aaH
	DB	00H
	DB	03dH
	DB	073H
	DB	052H
CONST	ENDS
;	COMDAT ?digits10@?$numeric_limits@F@std@@2HB
CONST	SEGMENT
?digits10@?$numeric_limits@F@std@@2HB DD 04H		; std::numeric_limits<short>::digits10
CONST	ENDS
;	COMDAT ?digits@?$numeric_limits@F@std@@2HB
CONST	SEGMENT
?digits@?$numeric_limits@F@std@@2HB DD 0fH		; std::numeric_limits<short>::digits
CONST	ENDS
;	COMDAT ?is_signed@?$numeric_limits@F@std@@2_NB
CONST	SEGMENT
?is_signed@?$numeric_limits@F@std@@2_NB DB 01H		; std::numeric_limits<short>::is_signed
CONST	ENDS
;	COMDAT ?value@?$integral_constant@_N$00@std@@2_NB
CONST	SEGMENT
?value@?$integral_constant@_N$00@std@@2_NB DB 01H	; std::integral_constant<bool,1>::value
CONST	ENDS
;	COMDAT ?digits10@?$numeric_limits@E@std@@2HB
CONST	SEGMENT
?digits10@?$numeric_limits@E@std@@2HB DD 02H		; std::numeric_limits<unsigned char>::digits10
CONST	ENDS
;	COMDAT ?digits@?$numeric_limits@E@std@@2HB
CONST	SEGMENT
?digits@?$numeric_limits@E@std@@2HB DD 08H		; std::numeric_limits<unsigned char>::digits
CONST	ENDS
;	COMDAT ?value@?$integral_constant@_N$0A@@std@@2_NB
CONST	SEGMENT
?value@?$integral_constant@_N$0A@@std@@2_NB DB 00H	; std::integral_constant<bool,0>::value
CONST	ENDS
;	COMDAT ?is_signed@?$numeric_limits@E@std@@2_NB
CONST	SEGMENT
?is_signed@?$numeric_limits@E@std@@2_NB DB 00H		; std::numeric_limits<unsigned char>::is_signed
CONST	ENDS
;	COMDAT _LIBID_ATLLib
CONST	SEGMENT
_LIBID_ATLLib DD 044ec0535H
	DW	0400fH
	DW	011d0H
	DB	09dH
	DB	0cdH
	DB	00H
	DB	0a0H
	DB	0c9H
	DB	03H
	DB	091H
	DB	0d3H
CONST	ENDS
;	COMDAT ?table_size@?$ctype@D@std@@2IB
CONST	SEGMENT
?table_size@?$ctype@D@std@@2IB DD 0100H			; std::ctype<char>::table_size
CONST	ENDS
;	COMDAT _IID_IAxWinAmbientDispatch
CONST	SEGMENT
_IID_IAxWinAmbientDispatch DD 0b6ea2051H
	DW	048aH
	DW	011d1H
	DB	082H
	DB	0b9H
	DB	00H
	DB	0c0H
	DB	04fH
	DB	0b9H
	DB	094H
	DB	02eH
CONST	ENDS
;	COMDAT ?digits10@?$numeric_limits@C@std@@2HB
CONST	SEGMENT
?digits10@?$numeric_limits@C@std@@2HB DD 02H		; std::numeric_limits<signed char>::digits10
CONST	ENDS
;	COMDAT ?digits@?$numeric_limits@C@std@@2HB
CONST	SEGMENT
?digits@?$numeric_limits@C@std@@2HB DD 07H		; std::numeric_limits<signed char>::digits
CONST	ENDS
;	COMDAT ?is_signed@?$numeric_limits@C@std@@2_NB
CONST	SEGMENT
?is_signed@?$numeric_limits@C@std@@2_NB DB 01H		; std::numeric_limits<signed char>::is_signed
CONST	ENDS
CONST	SEGMENT
_L_2	DD	03f317218r			; 0.693147
CONST	ENDS
;	COMDAT ?digits10@?$numeric_limits@_N@std@@2HB
CONST	SEGMENT
?digits10@?$numeric_limits@_N@std@@2HB DD 00H		; std::numeric_limits<bool>::digits10
CONST	ENDS
;	COMDAT ?digits@?$numeric_limits@_N@std@@2HB
CONST	SEGMENT
?digits@?$numeric_limits@_N@std@@2HB DD 01H		; std::numeric_limits<bool>::digits
CONST	ENDS
;	COMDAT ?is_signed@?$numeric_limits@_N@std@@2_NB
CONST	SEGMENT
?is_signed@?$numeric_limits@_N@std@@2_NB DB 00H		; std::numeric_limits<bool>::is_signed
CONST	ENDS
;	COMDAT _IID_IAxWinHostWindowLic
CONST	SEGMENT
_IID_IAxWinHostWindowLic DD 03935bda8H
	DW	04ed9H
	DW	0495cH
	DB	086H
	DB	050H
	DB	0e0H
	DB	01fH
	DB	0c1H
	DB	0e3H
	DB	08aH
	DB	04bH
CONST	ENDS
;	COMDAT ?is_modulo@?$numeric_limits@_N@std@@2_NB
CONST	SEGMENT
?is_modulo@?$numeric_limits@_N@std@@2_NB DB 00H		; std::numeric_limits<bool>::is_modulo
CONST	ENDS
;	COMDAT ?digits10@?$numeric_limits@_W@std@@2HB
CONST	SEGMENT
?digits10@?$numeric_limits@_W@std@@2HB DD 04H		; std::numeric_limits<wchar_t>::digits10
CONST	ENDS
;	COMDAT ?digits@?$numeric_limits@_W@std@@2HB
CONST	SEGMENT
?digits@?$numeric_limits@_W@std@@2HB DD 010H		; std::numeric_limits<wchar_t>::digits
CONST	ENDS
;	COMDAT ?is_signed@?$numeric_limits@_W@std@@2_NB
CONST	SEGMENT
?is_signed@?$numeric_limits@_W@std@@2_NB DB 00H		; std::numeric_limits<wchar_t>::is_signed
CONST	ENDS
;	COMDAT __GUID_00000146_0000_0000_c000_000000000046
CONST	SEGMENT
__GUID_00000146_0000_0000_c000_000000000046 DD 0146H
	DW	00H
	DW	00H
	DB	0c0H
	DB	00H
	DB	00H
	DB	00H
	DB	00H
	DB	00H
	DB	00H
	DB	046H
CONST	ENDS
;	COMDAT ?pmField@?$CVarTypeInfo@PATtagCY@@@ATL@@2QQtagVARIANT@@PATtagCY@@Q3@
CONST	SEGMENT
?pmField@?$CVarTypeInfo@PATtagCY@@@ATL@@2QQtagVARIANT@@PATtagCY@@Q3@ DD 08H ; ATL::CVarTypeInfo<tagCY *>::pmField
CONST	ENDS
;	COMDAT ?VT@?$CVarTypeInfo@PATtagCY@@@ATL@@2GB
CONST	SEGMENT
?VT@?$CVarTypeInfo@PATtagCY@@@ATL@@2GB DW 04006H	; ATL::CVarTypeInfo<tagCY *>::VT
CONST	ENDS
;	COMDAT ?none@?$_Locbase@H@std@@2HB
CONST	SEGMENT
?none@?$_Locbase@H@std@@2HB DD 00H			; std::_Locbase<int>::none
CONST	ENDS
;	COMDAT ?all@?$_Locbase@H@std@@2HB
CONST	SEGMENT
?all@?$_Locbase@H@std@@2HB DD 03fH			; std::_Locbase<int>::all
CONST	ENDS
;	COMDAT ?messages@?$_Locbase@H@std@@2HB
CONST	SEGMENT
?messages@?$_Locbase@H@std@@2HB DD 020H			; std::_Locbase<int>::messages
CONST	ENDS
;	COMDAT ?time@?$_Locbase@H@std@@2HB
CONST	SEGMENT
?time@?$_Locbase@H@std@@2HB DD 010H			; std::_Locbase<int>::time
CONST	ENDS
;	COMDAT ?numeric@?$_Locbase@H@std@@2HB
CONST	SEGMENT
?numeric@?$_Locbase@H@std@@2HB DD 08H			; std::_Locbase<int>::numeric
CONST	ENDS
;	COMDAT ?monetary@?$_Locbase@H@std@@2HB
CONST	SEGMENT
?monetary@?$_Locbase@H@std@@2HB DD 04H			; std::_Locbase<int>::monetary
CONST	ENDS
;	COMDAT ?pmField@?$CVarTypeInfo@TtagCY@@@ATL@@2QQtagVARIANT@@TtagCY@@Q3@
CONST	SEGMENT
?pmField@?$CVarTypeInfo@TtagCY@@@ATL@@2QQtagVARIANT@@TtagCY@@Q3@ DD 08H ; ATL::CVarTypeInfo<tagCY>::pmField
CONST	ENDS
;	COMDAT ?ctype@?$_Locbase@H@std@@2HB
CONST	SEGMENT
?ctype@?$_Locbase@H@std@@2HB DD 02H			; std::_Locbase<int>::ctype
CONST	ENDS
;	COMDAT ?VT@?$CVarTypeInfo@TtagCY@@@ATL@@2GB
CONST	SEGMENT
?VT@?$CVarTypeInfo@TtagCY@@@ATL@@2GB DW 06H		; ATL::CVarTypeInfo<tagCY>::VT
CONST	ENDS
;	COMDAT ?collate@?$_Locbase@H@std@@2HB
CONST	SEGMENT
?collate@?$_Locbase@H@std@@2HB DD 01H			; std::_Locbase<int>::collate
CONST	ENDS
;	COMDAT ?digits10@?$numeric_limits@D@std@@2HB
CONST	SEGMENT
?digits10@?$numeric_limits@D@std@@2HB DD 02H		; std::numeric_limits<char>::digits10
CONST	ENDS
;	COMDAT ?digits@?$numeric_limits@D@std@@2HB
CONST	SEGMENT
?digits@?$numeric_limits@D@std@@2HB DD 07H		; std::numeric_limits<char>::digits
CONST	ENDS
;	COMDAT ?is_signed@?$numeric_limits@D@std@@2_NB
CONST	SEGMENT
?is_signed@?$numeric_limits@D@std@@2_NB DB 01H		; std::numeric_limits<char>::is_signed
CONST	ENDS
;	COMDAT ?pmField@?$CVarTypeInfo@PAPAUIDispatch@@@ATL@@2QQtagVARIANT@@PAPAUIDispatch@@Q3@
CONST	SEGMENT
?pmField@?$CVarTypeInfo@PAPAUIDispatch@@@ATL@@2QQtagVARIANT@@PAPAUIDispatch@@Q3@ DD 08H ; ATL::CVarTypeInfo<IDispatch * *>::pmField
CONST	ENDS
;	COMDAT ?VT@?$CVarTypeInfo@PAPAUIDispatch@@@ATL@@2GB
CONST	SEGMENT
?VT@?$CVarTypeInfo@PAPAUIDispatch@@@ATL@@2GB DW 04009H	; ATL::CVarTypeInfo<IDispatch * *>::VT
CONST	ENDS
;	COMDAT _IID_IAxWinHostWindow
CONST	SEGMENT
_IID_IAxWinHostWindow DD 0b6ea2050H
	DW	048aH
	DW	011d1H
	DB	082H
	DB	0b9H
	DB	00H
	DB	0c0H
	DB	04fH
	DB	0b9H
	DB	094H
	DB	02eH
CONST	ENDS
;	COMDAT ?pmField@?$CVarTypeInfo@PAUIDispatch@@@ATL@@2QQtagVARIANT@@PAUIDispatch@@Q3@
CONST	SEGMENT
?pmField@?$CVarTypeInfo@PAUIDispatch@@@ATL@@2QQtagVARIANT@@PAUIDispatch@@Q3@ DD 08H ; ATL::CVarTypeInfo<IDispatch *>::pmField
CONST	ENDS
;	COMDAT ?VT@?$CVarTypeInfo@PAUIDispatch@@@ATL@@2GB
CONST	SEGMENT
?VT@?$CVarTypeInfo@PAUIDispatch@@@ATL@@2GB DW 09H	; ATL::CVarTypeInfo<IDispatch *>::VT
CONST	ENDS
;	COMDAT ?radix@_Num_float_base@std@@2HB
CONST	SEGMENT
?radix@_Num_float_base@std@@2HB DD 02H			; std::_Num_float_base::radix
CONST	ENDS
;	COMDAT ?round_style@_Num_float_base@std@@2W4float_round_style@2@B
CONST	SEGMENT
?round_style@_Num_float_base@std@@2W4float_round_style@2@B DD 01H ; std::_Num_float_base::round_style
CONST	ENDS
;	COMDAT ?traps@_Num_float_base@std@@2_NB
CONST	SEGMENT
?traps@_Num_float_base@std@@2_NB DB 00H			; std::_Num_float_base::traps
CONST	ENDS
;	COMDAT ?pmField@?$CVarTypeInfo@PAPAUIUnknown@@@ATL@@2QQtagVARIANT@@PAPAUIUnknown@@Q3@
CONST	SEGMENT
?pmField@?$CVarTypeInfo@PAPAUIUnknown@@@ATL@@2QQtagVARIANT@@PAPAUIUnknown@@Q3@ DD 08H ; ATL::CVarTypeInfo<IUnknown * *>::pmField
CONST	ENDS
;	COMDAT ?tinyness_before@_Num_float_base@std@@2_NB
CONST	SEGMENT
?tinyness_before@_Num_float_base@std@@2_NB DB 01H	; std::_Num_float_base::tinyness_before
CONST	ENDS
;	COMDAT ?VT@?$CVarTypeInfo@PAPAUIUnknown@@@ATL@@2GB
CONST	SEGMENT
?VT@?$CVarTypeInfo@PAPAUIUnknown@@@ATL@@2GB DW 0400dH	; ATL::CVarTypeInfo<IUnknown * *>::VT
CONST	ENDS
;	COMDAT ?is_specialized@_Num_float_base@std@@2_NB
CONST	SEGMENT
?is_specialized@_Num_float_base@std@@2_NB DB 01H	; std::_Num_float_base::is_specialized
CONST	ENDS
;	COMDAT ?is_signed@_Num_float_base@std@@2_NB
CONST	SEGMENT
?is_signed@_Num_float_base@std@@2_NB DB 01H		; std::_Num_float_base::is_signed
CONST	ENDS
;	COMDAT ?is_modulo@_Num_float_base@std@@2_NB
CONST	SEGMENT
?is_modulo@_Num_float_base@std@@2_NB DB 00H		; std::_Num_float_base::is_modulo
CONST	ENDS
;	COMDAT ?pmField@?$CVarTypeInfo@PAUIUnknown@@@ATL@@2QQtagVARIANT@@PAUIUnknown@@Q3@
CONST	SEGMENT
?pmField@?$CVarTypeInfo@PAUIUnknown@@@ATL@@2QQtagVARIANT@@PAUIUnknown@@Q3@ DD 08H ; ATL::CVarTypeInfo<IUnknown *>::pmField
CONST	ENDS
;	COMDAT ?is_integer@_Num_float_base@std@@2_NB
CONST	SEGMENT
?is_integer@_Num_float_base@std@@2_NB DB 00H		; std::_Num_float_base::is_integer
CONST	ENDS
;	COMDAT ?VT@?$CVarTypeInfo@PAUIUnknown@@@ATL@@2GB
CONST	SEGMENT
?VT@?$CVarTypeInfo@PAUIUnknown@@@ATL@@2GB DW 0dH	; ATL::CVarTypeInfo<IUnknown *>::VT
CONST	ENDS
;	COMDAT ?is_iec559@_Num_float_base@std@@2_NB
CONST	SEGMENT
?is_iec559@_Num_float_base@std@@2_NB DB 01H		; std::_Num_float_base::is_iec559
CONST	ENDS
;	COMDAT ?is_exact@_Num_float_base@std@@2_NB
CONST	SEGMENT
?is_exact@_Num_float_base@std@@2_NB DB 00H		; std::_Num_float_base::is_exact
CONST	ENDS
;	COMDAT ?is_bounded@_Num_float_base@std@@2_NB
CONST	SEGMENT
?is_bounded@_Num_float_base@std@@2_NB DB 01H		; std::_Num_float_base::is_bounded
CONST	ENDS
;	COMDAT ?has_signaling_NaN@_Num_float_base@std@@2_NB
CONST	SEGMENT
?has_signaling_NaN@_Num_float_base@std@@2_NB DB 01H	; std::_Num_float_base::has_signaling_NaN
CONST	ENDS
;	COMDAT ?pmField@?$CVarTypeInfo@PAPA_W@ATL@@2QQtagVARIANT@@PAPA_WQ3@
CONST	SEGMENT
?pmField@?$CVarTypeInfo@PAPA_W@ATL@@2QQtagVARIANT@@PAPA_WQ3@ DD 08H ; ATL::CVarTypeInfo<wchar_t * *>::pmField
CONST	ENDS
;	COMDAT ?VT@?$CVarTypeInfo@PAPA_W@ATL@@2GB
CONST	SEGMENT
?VT@?$CVarTypeInfo@PAPA_W@ATL@@2GB DW 04008H		; ATL::CVarTypeInfo<wchar_t * *>::VT
CONST	ENDS
;	COMDAT ?has_quiet_NaN@_Num_float_base@std@@2_NB
CONST	SEGMENT
?has_quiet_NaN@_Num_float_base@std@@2_NB DB 01H		; std::_Num_float_base::has_quiet_NaN
CONST	ENDS
;	COMDAT ?has_infinity@_Num_float_base@std@@2_NB
CONST	SEGMENT
?has_infinity@_Num_float_base@std@@2_NB DB 01H		; std::_Num_float_base::has_infinity
CONST	ENDS
;	COMDAT ?CMPDIRTYDATA_INTERVAL@FalconEntity@@2KB
CONST	SEGMENT
?CMPDIRTYDATA_INTERVAL@FalconEntity@@2KB DD 0c8H	; FalconEntity::CMPDIRTYDATA_INTERVAL
CONST	ENDS
;	COMDAT ?SIMDIRTYDATA_INTERVAL@FalconEntity@@2KB
CONST	SEGMENT
?SIMDIRTYDATA_INTERVAL@FalconEntity@@2KB DD 0c8H	; FalconEntity::SIMDIRTYDATA_INTERVAL
CONST	ENDS
;	COMDAT ?has_denorm_loss@_Num_float_base@std@@2_NB
CONST	SEGMENT
?has_denorm_loss@_Num_float_base@std@@2_NB DB 01H	; std::_Num_float_base::has_denorm_loss
CONST	ENDS
;	COMDAT ?has_denorm@_Num_float_base@std@@2W4float_denorm_style@2@B
CONST	SEGMENT
?has_denorm@_Num_float_base@std@@2W4float_denorm_style@2@B DD 01H ; std::_Num_float_base::has_denorm
CONST	ENDS
;	COMDAT ?pmField@?$CVarTypeInfo@PA_W@ATL@@2QQtagVARIANT@@PA_WQ3@
CONST	SEGMENT
?pmField@?$CVarTypeInfo@PA_W@ATL@@2QQtagVARIANT@@PA_WQ3@ DD 08H ; ATL::CVarTypeInfo<wchar_t *>::pmField
CONST	ENDS
;	COMDAT ?VT@?$CVarTypeInfo@PA_W@ATL@@2GB
CONST	SEGMENT
?VT@?$CVarTypeInfo@PA_W@ATL@@2GB DW 08H			; ATL::CVarTypeInfo<wchar_t *>::VT
CONST	ENDS
;	COMDAT ?radix@_Num_int_base@std@@2HB
CONST	SEGMENT
?radix@_Num_int_base@std@@2HB DD 02H			; std::_Num_int_base::radix
CONST	ENDS
;	COMDAT ?is_specialized@_Num_int_base@std@@2_NB
CONST	SEGMENT
?is_specialized@_Num_int_base@std@@2_NB DB 01H		; std::_Num_int_base::is_specialized
CONST	ENDS
;	COMDAT ?VT@?$CVarTypeInfo@PAUtagVARIANT@@@ATL@@2GB
CONST	SEGMENT
?VT@?$CVarTypeInfo@PAUtagVARIANT@@@ATL@@2GB DW 0400cH	; ATL::CVarTypeInfo<tagVARIANT *>::VT
CONST	ENDS
;	COMDAT ?is_modulo@_Num_int_base@std@@2_NB
CONST	SEGMENT
?is_modulo@_Num_int_base@std@@2_NB DB 01H		; std::_Num_int_base::is_modulo
CONST	ENDS
;	COMDAT ?is_integer@_Num_int_base@std@@2_NB
CONST	SEGMENT
?is_integer@_Num_int_base@std@@2_NB DB 01H		; std::_Num_int_base::is_integer
CONST	ENDS
;	COMDAT ?is_exact@_Num_int_base@std@@2_NB
CONST	SEGMENT
?is_exact@_Num_int_base@std@@2_NB DB 01H		; std::_Num_int_base::is_exact
CONST	ENDS
;	COMDAT ?pmField@?$CVarTypeInfo@PAN@ATL@@2QQtagVARIANT@@PANQ3@
CONST	SEGMENT
?pmField@?$CVarTypeInfo@PAN@ATL@@2QQtagVARIANT@@PANQ3@ DD 08H ; ATL::CVarTypeInfo<double *>::pmField
CONST	ENDS
;	COMDAT ?is_bounded@_Num_int_base@std@@2_NB
CONST	SEGMENT
?is_bounded@_Num_int_base@std@@2_NB DB 01H		; std::_Num_int_base::is_bounded
CONST	ENDS
;	COMDAT ?VT@?$CVarTypeInfo@PAN@ATL@@2GB
CONST	SEGMENT
?VT@?$CVarTypeInfo@PAN@ATL@@2GB DW 04005H		; ATL::CVarTypeInfo<double *>::VT
CONST	ENDS
;	COMDAT ?pmField@?$CVarTypeInfo@N@ATL@@2QQtagVARIANT@@NQ3@
CONST	SEGMENT
?pmField@?$CVarTypeInfo@N@ATL@@2QQtagVARIANT@@NQ3@ DD 08H ; ATL::CVarTypeInfo<double>::pmField
CONST	ENDS
;	COMDAT ?VT@?$CVarTypeInfo@N@ATL@@2GB
CONST	SEGMENT
?VT@?$CVarTypeInfo@N@ATL@@2GB DW 05H			; ATL::CVarTypeInfo<double>::VT
CONST	ENDS
;	COMDAT ?pmField@?$CVarTypeInfo@PAM@ATL@@2QQtagVARIANT@@PAMQ3@
CONST	SEGMENT
?pmField@?$CVarTypeInfo@PAM@ATL@@2QQtagVARIANT@@PAMQ3@ DD 08H ; ATL::CVarTypeInfo<float *>::pmField
CONST	ENDS
;	COMDAT ?VT@?$CVarTypeInfo@PAM@ATL@@2GB
CONST	SEGMENT
?VT@?$CVarTypeInfo@PAM@ATL@@2GB DW 04004H		; ATL::CVarTypeInfo<float *>::VT
CONST	ENDS
;	COMDAT ?radix@_Num_base@std@@2HB
CONST	SEGMENT
?radix@_Num_base@std@@2HB DD 00H			; std::_Num_base::radix
CONST	ENDS
;	COMDAT ?min_exponent10@_Num_base@std@@2HB
CONST	SEGMENT
?min_exponent10@_Num_base@std@@2HB DD 00H		; std::_Num_base::min_exponent10
CONST	ENDS
;	COMDAT ?min_exponent@_Num_base@std@@2HB
CONST	SEGMENT
?min_exponent@_Num_base@std@@2HB DD 00H			; std::_Num_base::min_exponent
CONST	ENDS
;	COMDAT ?pmField@?$CVarTypeInfo@M@ATL@@2QQtagVARIANT@@MQ3@
CONST	SEGMENT
?pmField@?$CVarTypeInfo@M@ATL@@2QQtagVARIANT@@MQ3@ DD 08H ; ATL::CVarTypeInfo<float>::pmField
CONST	ENDS
;	COMDAT ?max_exponent10@_Num_base@std@@2HB
CONST	SEGMENT
?max_exponent10@_Num_base@std@@2HB DD 00H		; std::_Num_base::max_exponent10
CONST	ENDS
;	COMDAT ?VT@?$CVarTypeInfo@M@ATL@@2GB
CONST	SEGMENT
?VT@?$CVarTypeInfo@M@ATL@@2GB DW 04H			; ATL::CVarTypeInfo<float>::VT
CONST	ENDS
;	COMDAT ?max_exponent@_Num_base@std@@2HB
CONST	SEGMENT
?max_exponent@_Num_base@std@@2HB DD 00H			; std::_Num_base::max_exponent
CONST	ENDS
;	COMDAT ?max_digits10@_Num_base@std@@2HB
CONST	SEGMENT
?max_digits10@_Num_base@std@@2HB DD 00H			; std::_Num_base::max_digits10
CONST	ENDS
;	COMDAT ?digits10@_Num_base@std@@2HB
CONST	SEGMENT
?digits10@_Num_base@std@@2HB DD 00H			; std::_Num_base::digits10
CONST	ENDS
;	COMDAT ?digits@_Num_base@std@@2HB
CONST	SEGMENT
?digits@_Num_base@std@@2HB DD 00H			; std::_Num_base::digits
CONST	ENDS
;	COMDAT ?pmField@?$CVarTypeInfo@PA_K@ATL@@2QQtagVARIANT@@PA_KQ3@
CONST	SEGMENT
?pmField@?$CVarTypeInfo@PA_K@ATL@@2QQtagVARIANT@@PA_KQ3@ DD 08H ; ATL::CVarTypeInfo<unsigned __int64 *>::pmField
CONST	ENDS
;	COMDAT _IID_IGameEvents
CONST	SEGMENT
_IID_IGameEvents DD 0b8d1f614H
	DW	0d5e4H
	DW	04bd1H
	DB	08fH
	DB	01H
	DB	017H
	DB	037H
	DB	01dH
	DB	0eaH
	DB	0f6H
	DB	085H
CONST	ENDS
;	COMDAT ?VT@?$CVarTypeInfo@PA_K@ATL@@2GB
CONST	SEGMENT
?VT@?$CVarTypeInfo@PA_K@ATL@@2GB DW 04015H		; ATL::CVarTypeInfo<unsigned __int64 *>::VT
CONST	ENDS
;	COMDAT ?round_style@_Num_base@std@@2W4float_round_style@2@B
CONST	SEGMENT
?round_style@_Num_base@std@@2W4float_round_style@2@B DD 00H ; std::_Num_base::round_style
CONST	ENDS
;	COMDAT _IID_IGame
CONST	SEGMENT
_IID_IGame DD	0dda57123H
	DW	0d4e3H
	DW	011d2H
	DB	090H
	DB	018H
	DB	00H
	DB	04fH
	DB	04eH
	DB	00H
	DB	063H
	DB	098H
CONST	ENDS
;	COMDAT _IID_IRemoteMasterServerEvents
CONST	SEGMENT
_IID_IRemoteMasterServerEvents DD 036b5b50dH
	DW	069bbH
	DW	043d5H
	DB	083H
	DB	0f6H
	DB	0aaH
	DB	0f7H
	DB	0ebH
	DB	09fH
	DB	0ffH
	DB	07bH
CONST	ENDS
;	COMDAT _IID_IRemoteMasterServer
CONST	SEGMENT
_IID_IRemoteMasterServer DD 0e0016343H
	DW	04124H
	DW	048a9H
	DB	097H
	DB	034H
	DB	093H
	DB	0f4H
	DB	087H
	DB	00H
	DB	0a0H
	DB	04aH
CONST	ENDS
;	COMDAT ?traps@_Num_base@std@@2_NB
CONST	SEGMENT
?traps@_Num_base@std@@2_NB DB 00H			; std::_Num_base::traps
CONST	ENDS
PUBLIC	_cosf
PUBLIC	_sinf
PUBLIC	?cos@@YAMM@Z					; cos
PUBLIC	?sin@@YAMM@Z					; sin
PUBLIC	??0VU_SESSION_ID@@QAE@K@Z			; VU_SESSION_ID::VU_SESSION_ID
PUBLIC	??8VU_SESSION_ID@@QBEHABV0@@Z			; VU_SESSION_ID::operator==
PUBLIC	??BVU_SESSION_ID@@QBEKXZ			; VU_SESSION_ID::operator unsigned long
PUBLIC	??0VU_ID@@QAE@XZ				; VU_ID::VU_ID
PUBLIC	??8VU_ID@@QBE_NABV0@@Z				; VU_ID::operator==
PUBLIC	??9VU_ID@@QBE_NABV0@@Z				; VU_ID::operator!=
PUBLIC	?Id@VuEntity@@QBE?AVVU_ID@@XZ			; VuEntity::Id
PUBLIC	?XPos@VuEntity@@QBEMXZ				; VuEntity::XPos
PUBLIC	?YPos@VuEntity@@QBEMXZ				; VuEntity::YPos
PUBLIC	??2@YAPAXIPAX@Z					; operator new
PUBLIC	??3@YAXPAX0@Z					; operator delete
PUBLIC	?length@?$char_traits@D@std@@SAIPBD@Z		; std::char_traits<char>::length
PUBLIC	?copy@?$char_traits@D@std@@SAPADPADPBDI@Z	; std::char_traits<char>::copy
PUBLIC	?move@?$char_traits@D@std@@SAPADPADPBDI@Z	; std::char_traits<char>::move
PUBLIC	?assign@?$char_traits@D@std@@SAXAADABD@Z	; std::char_traits<char>::assign
PUBLIC	??0?$allocator@D@std@@QAE@XZ			; std::allocator<char>::allocator<char>
PUBLIC	?deallocate@?$allocator@D@std@@QAEXPADI@Z	; std::allocator<char>::deallocate
PUBLIC	?allocate@?$allocator@D@std@@QAEPADI@Z		; std::allocator<char>::allocate
PUBLIC	?max_size@?$allocator@D@std@@QBEIXZ		; std::allocator<char>::max_size
PUBLIC	?max_size@?$allocator_traits@V?$allocator@D@std@@@std@@SAIABV?$allocator@D@2@@Z ; std::allocator_traits<std::allocator<char> >::max_size
PUBLIC	??0?$_Wrap_alloc@V?$allocator@D@std@@@std@@QAE@XZ ; std::_Wrap_alloc<std::allocator<char> >::_Wrap_alloc<std::allocator<char> >
PUBLIC	?allocate@?$_Wrap_alloc@V?$allocator@D@std@@@std@@QAEPADI@Z ; std::_Wrap_alloc<std::allocator<char> >::allocate
PUBLIC	?deallocate@?$_Wrap_alloc@V?$allocator@D@std@@@std@@QAEXPADI@Z ; std::_Wrap_alloc<std::allocator<char> >::deallocate
PUBLIC	?max_size@?$_Wrap_alloc@V?$allocator@D@std@@@std@@QBEIXZ ; std::_Wrap_alloc<std::allocator<char> >::max_size
PUBLIC	??0?$_String_val@U?$_Simple_types@D@std@@@std@@QAE@XZ ; std::_String_val<std::_Simple_types<char> >::_String_val<std::_Simple_types<char> >
PUBLIC	?_Myptr@?$_String_val@U?$_Simple_types@D@std@@@std@@QAEPADXZ ; std::_String_val<std::_Simple_types<char> >::_Myptr
PUBLIC	?_Myptr@?$_String_val@U?$_Simple_types@D@std@@@std@@QBEPBDXZ ; std::_String_val<std::_Simple_types<char> >::_Myptr
PUBLIC	??0?$_String_alloc@$0A@U?$_String_base_types@DV?$allocator@D@std@@@std@@@std@@QAE@ABV?$allocator@D@1@@Z ; std::_String_alloc<0,std::_String_base_types<char,std::allocator<char> > >::_String_alloc<0,std::_String_base_types<char,std::allocator<char> > >
PUBLIC	?_Getal@?$_String_alloc@$0A@U?$_String_base_types@DV?$allocator@D@std@@@std@@@std@@QBE?AU?$_Wrap_alloc@V?$allocator@D@std@@@2@XZ ; std::_String_alloc<0,std::_String_base_types<char,std::allocator<char> > >::_Getal
PUBLIC	??0?$basic_string@DU?$char_traits@D@std@@V?$allocator@D@2@@std@@QAE@PBD@Z ; std::basic_string<char,std::char_traits<char>,std::allocator<char> >::basic_string<char,std::char_traits<char>,std::allocator<char> >
PUBLIC	?assign@?$basic_string@DU?$char_traits@D@std@@V?$allocator@D@2@@std@@QAEAAV12@ABV12@II@Z ; std::basic_string<char,std::char_traits<char>,std::allocator<char> >::assign
PUBLIC	?assign@?$basic_string@DU?$char_traits@D@std@@V?$allocator@D@2@@std@@QAEAAV12@PBDI@Z ; std::basic_string<char,std::char_traits<char>,std::allocator<char> >::assign
PUBLIC	?assign@?$basic_string@DU?$char_traits@D@std@@V?$allocator@D@2@@std@@QAEAAV12@PBD@Z ; std::basic_string<char,std::char_traits<char>,std::allocator<char> >::assign
PUBLIC	?erase@?$basic_string@DU?$char_traits@D@std@@V?$allocator@D@2@@std@@QAEAAV12@I@Z ; std::basic_string<char,std::char_traits<char>,std::allocator<char> >::erase
PUBLIC	?erase@?$basic_string@DU?$char_traits@D@std@@V?$allocator@D@2@@std@@QAEAAV12@II@Z ; std::basic_string<char,std::char_traits<char>,std::allocator<char> >::erase
PUBLIC	?size@?$basic_string@DU?$char_traits@D@std@@V?$allocator@D@2@@std@@QBEIXZ ; std::basic_string<char,std::char_traits<char>,std::allocator<char> >::size
PUBLIC	?max_size@?$basic_string@DU?$char_traits@D@std@@V?$allocator@D@2@@std@@QBEIXZ ; std::basic_string<char,std::char_traits<char>,std::allocator<char> >::max_size
PUBLIC	?_Copy@?$basic_string@DU?$char_traits@D@std@@V?$allocator@D@2@@std@@QAEXII@Z ; std::basic_string<char,std::char_traits<char>,std::allocator<char> >::_Copy
PUBLIC	?_Eos@?$basic_string@DU?$char_traits@D@std@@V?$allocator@D@2@@std@@QAEXI@Z ; std::basic_string<char,std::char_traits<char>,std::allocator<char> >::_Eos
PUBLIC	?_Grow@?$basic_string@DU?$char_traits@D@std@@V?$allocator@D@2@@std@@QAE_NI_N@Z ; std::basic_string<char,std::char_traits<char>,std::allocator<char> >::_Grow
PUBLIC	?_Inside@?$basic_string@DU?$char_traits@D@std@@V?$allocator@D@2@@std@@QAE_NPBD@Z ; std::basic_string<char,std::char_traits<char>,std::allocator<char> >::_Inside
PUBLIC	?_Tidy@?$basic_string@DU?$char_traits@D@std@@V?$allocator@D@2@@std@@QAEX_NI@Z ; std::basic_string<char,std::char_traits<char>,std::allocator<char> >::_Tidy
PUBLIC	?_Xlen@?$basic_string@DU?$char_traits@D@std@@V?$allocator@D@2@@std@@QBEXXZ ; std::basic_string<char,std::char_traits<char>,std::allocator<char> >::_Xlen
PUBLIC	?_Xran@?$basic_string@DU?$char_traits@D@std@@V?$allocator@D@2@@std@@QBEXXZ ; std::basic_string<char,std::char_traits<char>,std::allocator<char> >::_Xran
PUBLIC	??B?$VuBin@VVuSessionEntity@@@@QBE_NXZ		; VuBin<VuSessionEntity>::operator bool
PUBLIC	?get@?$VuBin@VVuSessionEntity@@@@QBEPAVVuSessionEntity@@XZ ; VuBin<VuSessionEntity>::get
PUBLIC	?GameName@VuGameEntity@@QAEPADXZ		; VuGameEntity::GameName
PUBLIC	??0id@locale@std@@QAE@I@Z			; std::locale::id::id
PUBLIC	?generic_category@std@@YAABVerror_category@1@XZ	; std::generic_category
PUBLIC	?system_category@std@@YAABVerror_category@1@XZ	; std::system_category
PUBLIC	??0error_category@std@@QAE@XZ			; std::error_category::error_category
PUBLIC	??1error_category@std@@UAE@XZ			; std::error_category::~error_category
PUBLIC	?default_error_condition@error_category@std@@UBE?AVerror_condition@2@H@Z ; std::error_category::default_error_condition
PUBLIC	?equivalent@error_category@std@@UBE_NHABVerror_condition@2@@Z ; std::error_category::equivalent
PUBLIC	?equivalent@error_category@std@@UBE_NABVerror_code@2@H@Z ; std::error_category::equivalent
PUBLIC	??8error_category@std@@QBE_NABV01@@Z		; std::error_category::operator==
PUBLIC	??_Gerror_category@std@@UAEPAXI@Z		; std::error_category::`scalar deleting destructor'
PUBLIC	?value@error_code@std@@QBEHXZ			; std::error_code::value
PUBLIC	?category@error_code@std@@QBEABVerror_category@2@XZ ; std::error_code::category
PUBLIC	??0error_condition@std@@QAE@HABVerror_category@1@@Z ; std::error_condition::error_condition
PUBLIC	?value@error_condition@std@@QBEHXZ		; std::error_condition::value
PUBLIC	?category@error_condition@std@@QBEABVerror_category@2@XZ ; std::error_condition::category
PUBLIC	??8error_condition@std@@QBE_NABV01@@Z		; std::error_condition::operator==
PUBLIC	??0_Generic_error_category@std@@QAE@XZ		; std::_Generic_error_category::_Generic_error_category
PUBLIC	?name@_Generic_error_category@std@@UBEPBDXZ	; std::_Generic_error_category::name
PUBLIC	?message@_Generic_error_category@std@@UBE?AV?$basic_string@DU?$char_traits@D@std@@V?$allocator@D@2@@2@H@Z ; std::_Generic_error_category::message
PUBLIC	??1_Generic_error_category@std@@UAE@XZ		; std::_Generic_error_category::~_Generic_error_category
PUBLIC	??_G_Generic_error_category@std@@UAEPAXI@Z	; std::_Generic_error_category::`scalar deleting destructor'
PUBLIC	??0_Iostream_error_category@std@@QAE@XZ		; std::_Iostream_error_category::_Iostream_error_category
PUBLIC	?name@_Iostream_error_category@std@@UBEPBDXZ	; std::_Iostream_error_category::name
PUBLIC	?message@_Iostream_error_category@std@@UBE?AV?$basic_string@DU?$char_traits@D@std@@V?$allocator@D@2@@2@H@Z ; std::_Iostream_error_category::message
PUBLIC	??1_Iostream_error_category@std@@UAE@XZ		; std::_Iostream_error_category::~_Iostream_error_category
PUBLIC	??_G_Iostream_error_category@std@@UAEPAXI@Z	; std::_Iostream_error_category::`scalar deleting destructor'
PUBLIC	??0_System_error_category@std@@QAE@XZ		; std::_System_error_category::_System_error_category
PUBLIC	?name@_System_error_category@std@@UBEPBDXZ	; std::_System_error_category::name
PUBLIC	?message@_System_error_category@std@@UBE?AV?$basic_string@DU?$char_traits@D@std@@V?$allocator@D@2@@2@H@Z ; std::_System_error_category::message
PUBLIC	?default_error_condition@_System_error_category@std@@UBE?AVerror_condition@2@H@Z ; std::_System_error_category::default_error_condition
PUBLIC	??1_System_error_category@std@@UAE@XZ		; std::_System_error_category::~_System_error_category
PUBLIC	??_G_System_error_category@std@@UAEPAXI@Z	; std::_System_error_category::`scalar deleting destructor'
PUBLIC	__tcsclen
PUBLIC	?get@?$VuBin@VFalconEntity@@@@QBEPAVFalconEntity@@XZ ; VuBin<FalconEntity>::get
PUBLIC	?SetFrontTextFlags@OTWDriverClass@@QAEXJ@Z	; OTWDriverClass::SetFrontTextFlags
PUBLIC	?GetFrontTextFlags@OTWDriverClass@@QAEJXZ	; OTWDriverClass::GetFrontTextFlags
PUBLIC	?GetCameraPanTilt@OTWDriverClass@@QAEXPAM0@Z	; OTWDriverClass::GetCameraPanTilt
PUBLIC	?SetXY@O_Output@@QAEXJJ@Z			; O_Output::SetXY
PUBLIC	?GetText@O_Output@@QAEPADXZ			; O_Output::GetText
PUBLIC	?SetClient@C_Base@@QAEXF@Z			; C_Base::SetClient
PUBLIC	?SetReady@C_Base@@QAEXF@Z			; C_Base::SetReady
PUBLIC	?GetGroup@C_Base@@QAEJXZ			; C_Base::GetGroup
PUBLIC	?GetCluster@C_Base@@QAEJXZ			; C_Base::GetCluster
PUBLIC	?GetFlags@C_Base@@QAEJXZ			; C_Base::GetFlags
PUBLIC	?GetClient@C_Base@@QAEFXZ			; C_Base::GetClient
PUBLIC	?GetY@C_Base@@QAEJXZ				; C_Base::GetY
PUBLIC	?GetH@C_Base@@QAEJXZ				; C_Base::GetH
PUBLIC	?GetParent@C_Base@@QAEPAVC_Window@@XZ		; C_Base::GetParent
PUBLIC	?SetDelCallback@C_TreeList@@QAEXP6AXPAVTREELIST@@@Z@Z ; C_TreeList::SetDelCallback
PUBLIC	?SetSearchCB@C_TreeList@@QAEXP6AHPAVTREELIST@@@Z@Z ; C_TreeList::SetSearchCB
PUBLIC	?GetRoot@C_TreeList@@QAEPAVTREELIST@@XZ		; C_TreeList::GetRoot
PUBLIC	?GetLastItem@C_TreeList@@QAEPAVTREELIST@@XZ	; C_TreeList::GetLastItem
PUBLIC	?SearchWithCB@C_TreeList@@QAEPAVTREELIST@@PAV2@@Z ; C_TreeList::SearchWithCB
PUBLIC	?SetUpdateCallback@C_TimerHook@@QAEXP6AXJFPAVC_Base@@@Z@Z ; C_TimerHook::SetUpdateCallback
PUBLIC	?SetRefreshCallback@C_TimerHook@@QAEXP6AXJFPAVC_Base@@@Z@Z ; C_TimerHook::SetRefreshCallback
PUBLIC	?GetCallingType@C_PopupMgr@@QAEFXZ		; C_PopupMgr::GetCallingType
PUBLIC	?GetCallingControl@C_PopupMgr@@QAEPAVC_Base@@XZ	; C_PopupMgr::GetCallingControl
PUBLIC	?GetFirstWindowLoaded@C_Parser@@QAEJXZ		; C_Parser::GetFirstWindowLoaded
PUBLIC	?GetNextWindowLoaded@C_Parser@@QAEJXZ		; C_Parser::GetNextWindowLoaded
PUBLIC	?SetVirtualY@C_Window@@QAEXJJ@Z			; C_Window::SetVirtualY
PUBLIC	?SetSection@C_Handler@@QAEXJ@Z			; C_Handler::SetSection
PUBLIC	?SetIcon@C_Player@@QAEXFFJ@Z			; C_Player::SetIcon
PUBLIC	?SetName@C_Player@@QAEXFFPAD@Z			; C_Player::SetName
PUBLIC	?SetStatus@C_Player@@QAEXFFJ@Z			; C_Player::SetStatus
PUBLIC	?SetName@C_Player@@QAEXPAD@Z			; C_Player::SetName
PUBLIC	?SetColor@C_Player@@QAEXKKK@Z			; C_Player::SetColor
PUBLIC	?GetMute@C_Player@@QAEFXZ			; C_Player::GetMute
PUBLIC	?GetIgnore@C_Player@@QAEFXZ			; C_Player::GetIgnore
PUBLIC	?GetName@C_Player@@QAEPADXZ			; C_Player::GetName
PUBLIC	?SetVUID@C_Player@@QAEXVVU_ID@@@Z		; C_Player::SetVUID
PUBLIC	?GetVUID@C_Player@@QAE?AVVU_ID@@XZ		; C_Player::GetVUID
PUBLIC	?GetPlayerCallsign@FalconSessionEntity@@QAEPADXZ ; FalconSessionEntity::GetPlayerCallsign
PUBLIC	?GetPlayerFlightID@FalconSessionEntity@@QBE?AVVU_ID@@XZ ; FalconSessionEntity::GetPlayerFlightID
PUBLIC	?GetPlayerEntity@FalconSessionEntity@@QBEPAVFalconEntity@@XZ ; FalconSessionEntity::GetPlayerEntity
PUBLIC	?GetGame@FalconSessionEntity@@QAEPAVFalconGameEntity@@XZ ; FalconSessionEntity::GetGame
PUBLIC	??0CHATSTR@@QAE@XZ				; CHATSTR::CHATSTR
PUBLIC	?GetTargetGameID@UIComms@@QAE?AVVU_ID@@XZ	; UIComms::GetTargetGameID
PUBLIC	?Online@UIComms@@QAEHXZ				; UIComms::Online
PUBLIC	?GetGame@UIComms@@QAEPAVVuGameEntity@@XZ	; UIComms::GetGame
PUBLIC	?SimOpenChatBox@@YAXKHPAX@Z			; SimOpenChatBox
PUBLIC	?GetUnitPackage@FlightClass@@QAEPAVPackageClass@@XZ ; FlightClass::GetUnitPackage
PUBLIC	?Radio@VoiceManager@@QAEHXZ			; VoiceManager::Radio
PUBLIC	?IsRecording@ACMIRecorder@@QAEHXZ		; ACMIRecorder::IsRecording
PUBLIC	??0_bstr_t@@QAE@PBD@Z				; _bstr_t::_bstr_t
PUBLIC	??1_bstr_t@@QAE@XZ				; _bstr_t::~_bstr_t
PUBLIC	??B_bstr_t@@QBEPA_WXZ				; _bstr_t::operator wchar_t *
PUBLIC	??0Data_t@_bstr_t@@QAE@PBD@Z			; _bstr_t::Data_t::Data_t
PUBLIC	?Release@Data_t@_bstr_t@@QAEKXZ			; _bstr_t::Data_t::Release
PUBLIC	?GetWString@Data_t@_bstr_t@@QAEAAPA_WXZ		; _bstr_t::Data_t::GetWString
PUBLIC	??2Data_t@_bstr_t@@SAPAXI@Z			; _bstr_t::Data_t::operator new
PUBLIC	??1Data_t@_bstr_t@@AAE@XZ			; _bstr_t::Data_t::~Data_t
PUBLIC	?_Free@Data_t@_bstr_t@@AAEXXZ			; _bstr_t::Data_t::_Free
PUBLIC	??_GData_t@_bstr_t@@AAEPAXI@Z			; _bstr_t::Data_t::`scalar deleting destructor'
PUBLIC	?_Free@_bstr_t@@AAEXXZ				; _bstr_t::_Free
PUBLIC	??1_com_error@@UAE@XZ				; _com_error::~_com_error
PUBLIC	?Error@_com_error@@QBEJXZ			; _com_error::Error
PUBLIC	??_G_com_error@@UAEPAXI@Z			; _com_error::`scalar deleting destructor'
PUBLIC	?AddPlayer@IUplink@GNETCORELib@@QAEJV_bstr_t@@@Z ; GNETCORELib::IUplink::AddPlayer
PUBLIC	?RemovePlayer@IUplink@GNETCORELib@@QAEJV_bstr_t@@@Z ; GNETCORELib::IUplink::RemovePlayer
PUBLIC	??C?$_com_ptr_t@V?$_com_IIID@UIUplink@GNETCORELib@@$1?_GUID_5ff85b6b_de05_42b9_831f_dc6a4e30a513@@3U__s_GUID@@B@@@@QBEPAUIUplink@GNETCORELib@@XZ ; _com_ptr_t<_com_IIID<GNETCORELib::IUplink,&_GUID_5ff85b6b_de05_42b9_831f_dc6a4e30a513> >::operator->
PUBLIC	??8?$_com_ptr_t@V?$_com_IIID@UIUplink@GNETCORELib@@$1?_GUID_5ff85b6b_de05_42b9_831f_dc6a4e30a513@@3U__s_GUID@@B@@@@QBE_NH@Z ; _com_ptr_t<_com_IIID<GNETCORELib::IUplink,&_GUID_5ff85b6b_de05_42b9_831f_dc6a4e30a513> >::operator==
PUBLIC	??9?$_com_ptr_t@V?$_com_IIID@UIUplink@GNETCORELib@@$1?_GUID_5ff85b6b_de05_42b9_831f_dc6a4e30a513@@3U__s_GUID@@B@@@@QBE_NH@Z ; _com_ptr_t<_com_IIID<GNETCORELib::IUplink,&_GUID_5ff85b6b_de05_42b9_831f_dc6a4e30a513> >::operator!=
PUBLIC	?LoadCommsWindows@@YAXXZ			; LoadCommsWindows
PUBLIC	?CommsSetup@@YAXXZ				; CommsSetup
PUBLIC	?RebuildGameTree@@YAXXZ				; RebuildGameTree
PUBLIC	?SetSingle_Comms_Ctrls@@YAXXZ			; SetSingle_Comms_Ctrls
PUBLIC	?MutePlayerCB@@YAXJFPAVC_Base@@@Z		; MutePlayerCB
PUBLIC	?IgnorePlayerCB@@YAXJFPAVC_Base@@@Z		; IgnorePlayerCB
PUBLIC	?UI_Refresh@@YAXXZ				; UI_Refresh
PUBLIC	?BlinkCommsButtonTimerCB@@YAXJFPAVC_Base@@@Z	; BlinkCommsButtonTimerCB
PUBLIC	?ViewRemoteLBCB@@YAXJFPAVC_Base@@@Z		; ViewRemoteLBCB
PUBLIC	?CommsErrorDialog@@YAXJJP6AXJFPAVC_Base@@@Z1@Z	; CommsErrorDialog
PUBLIC	?UI_CommsErrorMessage@@YAXG@Z			; UI_CommsErrorMessage
PUBLIC	?ServerChatCommand@@YAXPAD@Z			; ServerChatCommand
PUBLIC	?AddMessageToChatWindow@@YAXVVU_ID@@PAD@Z	; AddMessageToChatWindow
PUBLIC	?FilterIncommingMessage@@YAHPAVFalconSessionEntity@@@Z ; FilterIncommingMessage
PUBLIC	?ReceiveChatString@@YAXVVU_ID@@PAD@Z		; ReceiveChatString
PUBLIC	?ProcessChatStr@@YAXPAVCHATSTR@@@Z		; ProcessChatStr
PUBLIC	?SendChatStringCB@@YAXJFPAVC_Base@@@Z		; SendChatStringCB
PUBLIC	?TreeSearchCB@@YAHPAVTREELIST@@@Z		; TreeSearchCB
PUBLIC	?StartTreeSearch@@YAPAVTREELIST@@VVU_ID@@PAV1@PAVC_TreeList@@@Z ; StartTreeSearch
PUBLIC	?UpdateGameTreeBranch@@YAXJPAVVuGameEntity@@PAVC_TreeList@@PAVTREELIST@@H@Z ; UpdateGameTreeBranch
PUBLIC	?MakeLocalGameTree@@YAXPAVVuGameEntity@@@Z	; MakeLocalGameTree
PUBLIC	?CheckChatFilters@@YAXPAVFalconSessionEntity@@@Z ; CheckChatFilters
PUBLIC	?UpdateLocalGameTree@@YAXXZ			; UpdateLocalGameTree
PUBLIC	?RemoveFromTree@@YAXPAVC_TreeList@@VVU_ID@@@Z	; RemoveFromTree
PUBLIC	?UI_UpdateGameList@@YAXXZ			; UI_UpdateGameList
PUBLIC	?ViewRemoteLogbook@@YAXJ@Z			; ViewRemoteLogbook
PUBLIC	?SendTextToFlight@@YAXXZ			; SendTextToFlight
PUBLIC	?SendTextToPackage@@YAXXZ			; SendTextToPackage
PUBLIC	?SendTextToRange@@YAXXZ				; SendTextToRange
PUBLIC	?SendTextToTeam@@YAXXZ				; SendTextToTeam
PUBLIC	?SendTextToEveryOne@@YAXXZ			; SendTextToEveryOne
PUBLIC	?SendTextMessageToChannel@@YAXXZ		; SendTextMessageToChannel
PUBLIC	??$construct@PADAAPAD@?$_Wrap_alloc@V?$allocator@D@std@@@std@@QAEXPAPADAAPAD@Z ; std::_Wrap_alloc<std::allocator<char> >::construct<char *,char * &>
PUBLIC	??$destroy@PAD@?$_Wrap_alloc@V?$allocator@D@std@@@std@@QAEXPAPAD@Z ; std::_Wrap_alloc<std::allocator<char> >::destroy<char *>
PUBLIC	??$addressof@D@std@@YAPADAAD@Z			; std::addressof<char>
PUBLIC	??$_Allocate@D@std@@YAPADIPAD@Z			; std::_Allocate<char>
PUBLIC	??$forward@AAPAD@std@@YAAAPADAAPAD@Z		; std::forward<char * &>
PUBLIC	??$construct@PADAAPAD@?$allocator_traits@V?$allocator@D@std@@@std@@SAXAAV?$allocator@D@1@PAPADAAPAD@Z ; std::allocator_traits<std::allocator<char> >::construct<char *,char * &>
PUBLIC	??$destroy@PAD@?$allocator_traits@V?$allocator@D@std@@@std@@SAXAAV?$allocator@D@1@PAPAD@Z ; std::allocator_traits<std::allocator<char> >::destroy<char *>
PUBLIC	??$construct@PADAAPAD@?$allocator@D@std@@QAEXPAPADAAPAD@Z ; std::allocator<char>::construct<char *,char * &>
PUBLIC	??$destroy@PAD@?$allocator@D@std@@QAEXPAPAD@Z	; std::allocator<char>::destroy<char *>
PUBLIC	??_C@_00CNPNBAHC@?$AA@				; `string'
PUBLIC	??_7error_category@std@@6B@			; std::error_category::`vftable'
PUBLIC	??_7_Generic_error_category@std@@6B@		; std::_Generic_error_category::`vftable'
PUBLIC	??_C@_07DCLBNMLN@generic?$AA@			; `string'
PUBLIC	??_C@_0O@BFJCFAAK@unknown?5error?$AA@		; `string'
PUBLIC	??_7_Iostream_error_category@std@@6B@		; std::_Iostream_error_category::`vftable'
PUBLIC	??_C@_08LLGCOLLL@iostream?$AA@			; `string'
PUBLIC	??_C@_0BG@PADBLCHM@iostream?5stream?5error?$AA@	; `string'
PUBLIC	??_7_System_error_category@std@@6B@		; std::_System_error_category::`vftable'
PUBLIC	??_C@_06FHFOAHML@system?$AA@			; `string'
PUBLIC	?_Generic_object@?$_Error_objects@H@std@@2V_Generic_error_category@2@A ; std::_Error_objects<int>::_Generic_object
PUBLIC	?_Iostream_object@?$_Error_objects@H@std@@2V_Iostream_error_category@2@A ; std::_Error_objects<int>::_Iostream_object
PUBLIC	?_System_object@?$_Error_objects@H@std@@2V_System_error_category@2@A ; std::_Error_objects<int>::_System_object
PUBLIC	?id@?$num_put@DV?$back_insert_iterator@V?$basic_string@DU?$char_traits@D@std@@V?$allocator@D@2@@std@@@std@@@std@@2V0locale@2@A ; std::num_put<char,std::back_insert_iterator<std::basic_string<char,std::char_traits<char>,std::allocator<char> > > >::id
PUBLIC	?id@?$num_put@_WV?$back_insert_iterator@V?$basic_string@_WU?$char_traits@_W@std@@V?$allocator@_W@2@@std@@@std@@@std@@2V0locale@2@A ; std::num_put<wchar_t,std::back_insert_iterator<std::basic_string<wchar_t,std::char_traits<wchar_t>,std::allocator<wchar_t> > > >::id
PUBLIC	??_7_com_error@@6B@				; _com_error::`vftable'
PUBLIC	??_C@_0N@KDGOBPCJ@comm_res?4lst?$AA@		; `string'
PUBLIC	??_C@_0N@OOCGLLBJ@comm_art?4lst?$AA@		; `string'
PUBLIC	??_C@_0N@HDBAHJGO@comm_snd?4lst?$AA@		; `string'
PUBLIC	??_C@_0N@FPAPLJKF@comm_scf?4lst?$AA@		; `string'
PUBLIC	??_C@_01CLKCMJKC@?5?$AA@			; `string'
PUBLIC	??_C@_06ODGENKFK@?4trail?$AA@			; `string'
PUBLIC	??_C@_0N@CFHNGPIC@?4trailreload?$AA@		; `string'
PUBLIC	??_C@_09MLFANMAK@?4psreload?$AA@		; `string'
PUBLIC	??_C@_0L@MJCBANGI@?4sndreload?$AA@		; `string'
PUBLIC	??_C@_04HNHONOHM@?4snd?$AA@			; `string'
PUBLIC	??_C@_06KGPMMGBB@?4sndms?$AA@			; `string'
PUBLIC	??_C@_07CNBNLAFM@?4snddop?$AA@			; `string'
PUBLIC	??_C@_06FHPBHPAB@?4sndro?$AA@			; `string'
PUBLIC	??_C@_04JFBKNCJJ@?4sfx?$AA@			; `string'
PUBLIC	??_C@_01LFCBOECM@?4?$AA@			; `string'
PUBLIC	??_C@_06DAAOOBHE@?4label?$AA@			; `string'
PUBLIC	??_C@_05LOFMMFDJ@?4fuel?$AA@			; `string'
PUBLIC	??_C@_07JIPBKKCL@?4loadte?$AA@			; `string'
PUBLIC	??_C@_01KICIPPFI@?2?$AA@			; `string'
PUBLIC	??_C@_04KELEDHDP@?4tac?$AA@			; `string'
PUBLIC	??_C@_05KGKLEJH@?4acmi?$AA@			; `string'
PUBLIC	??_C@_02LIELOMNJ@on?$AA@			; `string'
PUBLIC	??_C@_03MCADLMAF@off?$AA@			; `string'
PUBLIC	??_C@_06ONNDGCDK@dofile?$AA@			; `string'
PUBLIC	??_C@_04PHPJHFJH@?4cam?$AA@			; `string'
PUBLIC	??_C@_05OHJNOPJG@?4quit?$AA@			; `string'
PUBLIC	??_C@_09OMJMALCF@?4mistrail?$AA@		; `string'
PUBLIC	??_C@_07GBHEDFOH@?4boundb?$AA@			; `string'
PUBLIC	??_C@_04JPIJFBJP@?4bgs?$AA@			; `string'
PUBLIC	??_C@_04PDOAGIJN@?4tgr?$AA@			; `string'
PUBLIC	??_C@_05EPBAHOHC@?4bgsp?$AA@			; `string'
PUBLIC	??_C@_05BCJAMAEA@?4sgsp?$AA@			; `string'
PUBLIC	??_C@_05KALABMFA@?4tgsp?$AA@			; `string'
PUBLIC	??_C@_04FCNDFPAB@?4bgl?$AA@			; `string'
PUBLIC	??_C@_04LKHGGPPL@?4sgl?$AA@			; `string'
PUBLIC	??_C@_04CHKBFHEC@?4tgl?$AA@			; `string'
PUBLIC	??_C@_05IAHOEKAB@?4bggn?$AA@			; `string'
PUBLIC	??_C@_05NNPOPEDD@?4sggn?$AA@			; `string'
PUBLIC	??_C@_05GPNOCICD@?4tggn?$AA@			; `string'
PUBLIC	??_C@_05BNLFCBPC@?4bgbw?$AA@			; `string'
PUBLIC	??_C@_05EADFJPMA@?4sgbw?$AA@			; `string'
PUBLIC	??_C@_05PCBFEDNA@?4tgbw?$AA@			; `string'
PUBLIC	??_C@_04EFJCDBBF@?4cbw?$AA@			; `string'
PUBLIC	??_C@_04JCJDLGBE@?4hbw?$AA@			; `string'
PUBLIC	??_C@_03POAJPEED@?4tf?$AA@			; `string'
PUBLIC	??_C@_04KFENEGCG@?4mbw?$AA@			; `string'
PUBLIC	??_C@_04GLIKJPDD@?4pos?$AA@			; `string'
PUBLIC	??_C@_02LMMGGCAJ@?3?5?$AA@			; `string'
PUBLIC	??_C@_07NBCGADJA@Unknown?$AA@			; `string'
PUBLIC	??_C@_05DNIIFBMG@?$CFs?5?$CFs?$AA@		; `string'
PUBLIC	??_R0?AV_com_error@@@8				; _com_error `RTTI Type Descriptor'
PUBLIC	??_C@_0DN@CJCLCKKH@StartCampaignGame?3?5Error?50x?$CFX?5oc@ ; `string'
PUBLIC	?id@?$numpunct@D@std@@2V0locale@2@A		; std::numpunct<char>::id
PUBLIC	?id@?$numpunct@_W@std@@2V0locale@2@A		; std::numpunct<wchar_t>::id
PUBLIC	??_C@_0BI@CFPLBAOH@invalid?5string?5position?$AA@ ; `string'
PUBLIC	??_C@_0BA@JFNIOLAK@string?5too?5long?$AA@	; `string'
PUBLIC	??_R4error_category@std@@6B@			; std::error_category::`RTTI Complete Object Locator'
PUBLIC	??_R0?AVerror_category@std@@@8			; std::error_category `RTTI Type Descriptor'
PUBLIC	??_R3error_category@std@@8			; std::error_category::`RTTI Class Hierarchy Descriptor'
PUBLIC	??_R2error_category@std@@8			; std::error_category::`RTTI Base Class Array'
PUBLIC	??_R1A@?0A@EA@error_category@std@@8		; std::error_category::`RTTI Base Class Descriptor at (0,-1,0,64)'
PUBLIC	??_R4_Generic_error_category@std@@6B@		; std::_Generic_error_category::`RTTI Complete Object Locator'
PUBLIC	??_R0?AV_Generic_error_category@std@@@8		; std::_Generic_error_category `RTTI Type Descriptor'
PUBLIC	??_R3_Generic_error_category@std@@8		; std::_Generic_error_category::`RTTI Class Hierarchy Descriptor'
PUBLIC	??_R2_Generic_error_category@std@@8		; std::_Generic_error_category::`RTTI Base Class Array'
PUBLIC	??_R1A@?0A@EA@_Generic_error_category@std@@8	; std::_Generic_error_category::`RTTI Base Class Descriptor at (0,-1,0,64)'
PUBLIC	??_R4_Iostream_error_category@std@@6B@		; std::_Iostream_error_category::`RTTI Complete Object Locator'
PUBLIC	??_R0?AV_Iostream_error_category@std@@@8	; std::_Iostream_error_category `RTTI Type Descriptor'
PUBLIC	??_R3_Iostream_error_category@std@@8		; std::_Iostream_error_category::`RTTI Class Hierarchy Descriptor'
PUBLIC	??_R2_Iostream_error_category@std@@8		; std::_Iostream_error_category::`RTTI Base Class Array'
PUBLIC	??_R1A@?0A@EA@_Iostream_error_category@std@@8	; std::_Iostream_error_category::`RTTI Base Class Descriptor at (0,-1,0,64)'
PUBLIC	??_R4_System_error_category@std@@6B@		; std::_System_error_category::`RTTI Complete Object Locator'
PUBLIC	??_R0?AV_System_error_category@std@@@8		; std::_System_error_category `RTTI Type Descriptor'
PUBLIC	??_R3_System_error_category@std@@8		; std::_System_error_category::`RTTI Class Hierarchy Descriptor'
PUBLIC	??_R2_System_error_category@std@@8		; std::_System_error_category::`RTTI Base Class Array'
PUBLIC	??_R1A@?0A@EA@_System_error_category@std@@8	; std::_System_error_category::`RTTI Base Class Descriptor at (0,-1,0,64)'
PUBLIC	??_R4_com_error@@6B@				; _com_error::`RTTI Complete Object Locator'
PUBLIC	??_R3_com_error@@8				; _com_error::`RTTI Class Hierarchy Descriptor'
PUBLIC	??_R2_com_error@@8				; _com_error::`RTTI Base Class Array'
PUBLIC	??_R1A@?0A@EA@_com_error@@8			; _com_error::`RTTI Base Class Descriptor at (0,-1,0,64)'
PUBLIC	__real@392c987a
PUBLIC	__real@3f800000
PUBLIC	__real@42200000
PUBLIC	__real@42700000
PUBLIC	__real@43960000
EXTRN	__purecall:PROC
EXTRN	??2@YAPAXI@Z:PROC				; operator new
EXTRN	??3@YAXPAX@Z:PROC				; operator delete
EXTRN	_atexit:PROC
EXTRN	___report_rangecheckfailure:PROC
EXTRN	_memcpy:PROC
EXTRN	_memset:PROC
EXTRN	_strcpy:PROC
EXTRN	_strcat:PROC
EXTRN	_strcmp:PROC
EXTRN	_strlen:PROC
EXTRN	_memmove:PROC
EXTRN	_strncpy:PROC
EXTRN	_strtok:PROC
EXTRN	_stricmp:PROC
EXTRN	__imp__InterlockedDecrement@4:PROC
EXTRN	__imp__GetTickCount@0:PROC
EXTRN	__imp__LocalFree@4:PROC
EXTRN	__imp__PostMessageA@16:PROC
EXTRN	_sprintf:PROC
EXTRN	_cos:PROC
EXTRN	_sin:PROC
EXTRN	_atof:PROC
EXTRN	_atoi:PROC
EXTRN	_atol:PROC
EXTRN	_strtol:PROC
EXTRN	_MonoPrint:PROC
EXTRN	?IsLocal@VuEntity@@QBEEXZ:PROC			; VuEntity::IsLocal
EXTRN	??_V@YAXPAX@Z:PROC				; operator delete[]
EXTRN	??_U@YAPAXI@Z:PROC				; operator new[]
EXTRN	?_Xbad_alloc@std@@YAXXZ:PROC			; std::_Xbad_alloc
EXTRN	?_Xlength_error@std@@YAXPBD@Z:PROC		; std::_Xlength_error
EXTRN	?_Xout_of_range@std@@YAXPBD@Z:PROC		; std::_Xout_of_range
EXTRN	?Find@VuDatabase@@QBEPAVVuEntity@@VVU_ID@@@Z:PROC ; VuDatabase::Find
EXTRN	?Game@VuSessionEntity@@QAEPAVVuGameEntity@@XZ:PROC ; VuSessionEntity::Game
EXTRN	??0VuTypeFilter@@QAE@G@Z:PROC			; VuTypeFilter::VuTypeFilter
EXTRN	??1VuTypeFilter@@UAE@XZ:PROC			; VuTypeFilter::~VuTypeFilter
EXTRN	?GetFirst@VuHashIterator@@QAEPAVVuEntity@@PAVVuFilter@@@Z:PROC ; VuHashIterator::GetFirst
EXTRN	?GetNext@VuHashIterator@@QAEPAVVuEntity@@PAVVuFilter@@@Z:PROC ; VuHashIterator::GetNext
EXTRN	??0VuDatabaseIterator@@QAE@XZ:PROC		; VuDatabaseIterator::VuDatabaseIterator
EXTRN	??1VuDatabaseIterator@@UAE@XZ:PROC		; VuDatabaseIterator::~VuDatabaseIterator
EXTRN	??0VuSessionsIterator@@QAE@PAVVuGroupEntity@@@Z:PROC ; VuSessionsIterator::VuSessionsIterator
EXTRN	??1VuSessionsIterator@@UAE@XZ:PROC		; VuSessionsIterator::~VuSessionsIterator
EXTRN	?GetFirst@VuSessionsIterator@@QAEPAVVuSessionEntity@@XZ:PROC ; VuSessionsIterator::GetFirst
EXTRN	?GetNext@VuSessionsIterator@@QAEPAVVuSessionEntity@@XZ:PROC ; VuSessionsIterator::GetNext
EXTRN	?FalconSendMessage@@YAXPAVVuMessage@@H@Z:PROC	; FalconSendMessage
EXTRN	??0UI_SendChatMessage@@QAE@VVU_ID@@PAVVuTargetEntity@@E@Z:PROC ; UI_SendChatMessage::UI_SendChatMessage
EXTRN	??0UI_RequestLogbook@@QAE@VVU_ID@@PAVVuTargetEntity@@E@Z:PROC ; UI_RequestLogbook::UI_RequestLogbook
EXTRN	??_Eerror_category@std@@UAEPAXI@Z:PROC		; std::error_category::`vector deleting destructor'
EXTRN	?_Syserror_map@std@@YAPBDH@Z:PROC		; std::_Syserror_map
EXTRN	?_Winerror_map@std@@YAPBDH@Z:PROC		; std::_Winerror_map
EXTRN	??_E_Generic_error_category@std@@UAEPAXI@Z:PROC	; std::_Generic_error_category::`vector deleting destructor'
EXTRN	??_E_Iostream_error_category@std@@UAEPAXI@Z:PROC ; std::_Iostream_error_category::`vector deleting destructor'
EXTRN	??_E_System_error_category@std@@UAEPAXI@Z:PROC	; std::_System_error_category::`vector deleting destructor'
EXTRN	__mbslen:PROC
EXTRN	_F4ReloadSFX:PROC
EXTRN	?AddSfxRequest@OTWDriverClass@@QAEXPAVSfxClass@@@Z:PROC ; OTWDriverClass::AddSfxRequest
EXTRN	?ShowMessage@OTWDriverClass@@QAEXPAD@Z:PROC	; OTWDriverClass::ShowMessage
EXTRN	?GetEyePosition@OTWDriverClass@@QAE?AUTpoint@@XZ:PROC ; OTWDriverClass::GetEyePosition
EXTRN	?GetImage@C_Image@@QAEPAVIMAGE_RSC@@J@Z:PROC	; C_Image::GetImage
EXTRN	?GetString@C_String@@QAEPADJ@Z:PROC		; C_String::GetString
EXTRN	?AddText@C_String@@QAEJPBD@Z:PROC		; C_String::AddText
EXTRN	?GetText@C_String@@QAEPADJ@Z:PROC		; C_String::GetText
EXTRN	?SetInfo@O_Output@@QAEXXZ:PROC			; O_Output::SetInfo
EXTRN	?SetText@O_Output@@QAEXPAD@Z:PROC		; O_Output::SetText
EXTRN	?SetImage@O_Output@@QAEXJ@Z:PROC		; O_Output::SetImage
EXTRN	?UI_Enter@@YAPAUF4CSECTIONHANDLE@@PAVC_Window@@@Z:PROC ; UI_Enter
EXTRN	?UI_Leave@@YAXPAUF4CSECTIONHANDLE@@@Z:PROC	; UI_Leave
EXTRN	?SetUserNumber@C_Base@@QAEXJJ@Z:PROC		; C_Base::SetUserNumber
EXTRN	?SetUserCleanupPtr@C_Base@@QAEXJPAX@Z:PROC	; C_Base::SetUserCleanupPtr
EXTRN	?GetUserPtr@C_Base@@QAEPAXJ@Z:PROC		; C_Base::GetUserPtr
EXTRN	??0C_Button@@QAE@XZ:PROC			; C_Button::C_Button
EXTRN	?Setup@C_Button@@QAEXJFJJ@Z:PROC		; C_Button::Setup
EXTRN	?SetAllLabel@C_Button@@QAEXJ@Z:PROC		; C_Button::SetAllLabel
EXTRN	?SetText@C_Button@@QAEXFPBD@Z:PROC		; C_Button::SetText
EXTRN	?GetText@C_Button@@QAEPADF@Z:PROC		; C_Button::GetText
EXTRN	?SetFgColor@C_Button@@QAEXFK@Z:PROC		; C_Button::SetFgColor
EXTRN	?FindItemWithCB@C_TreeList@@IAEPAVTREELIST@@PAV2@@Z:PROC ; C_TreeList::FindItemWithCB
EXTRN	?CreateItem@C_TreeList@@QAEPAVTREELIST@@JJPAVC_Base@@@Z:PROC ; C_TreeList::CreateItem
EXTRN	?AddItem@C_TreeList@@QAEHPAVTREELIST@@0@Z:PROC	; C_TreeList::AddItem
EXTRN	?AddChildItem@C_TreeList@@QAEHPAVTREELIST@@0@Z:PROC ; C_TreeList::AddChildItem
EXTRN	?DeleteItem@C_TreeList@@QAEXPAVTREELIST@@@Z:PROC ; C_TreeList::DeleteItem
EXTRN	?DeleteBranch@C_TreeList@@QAEXPAVTREELIST@@@Z:PROC ; C_TreeList::DeleteBranch
EXTRN	?RemoveOld@C_TreeList@@QAEXJJ@Z:PROC		; C_TreeList::RemoveOld
EXTRN	?Find@C_TreeList@@QAEPAVTREELIST@@J@Z:PROC	; C_TreeList::Find
EXTRN	?RecalcSize@C_TreeList@@QAEXXZ:PROC		; C_TreeList::RecalcSize
EXTRN	?SetCallback@C_PopupList@@QAEXJP6AXJFPAVC_Base@@@Z@Z:PROC ; C_PopupList::SetCallback
EXTRN	?SetText@C_EditBox@@QAEXJ@Z:PROC		; C_EditBox::SetText
EXTRN	?GetText@C_EditBox@@QAEPADXZ:PROC		; C_EditBox::GetText
EXTRN	??0C_Text@@QAE@XZ:PROC				; C_Text::C_Text
EXTRN	?SetFGColor@C_Text@@QAEXK@Z:PROC		; C_Text::SetFGColor
EXTRN	?SetFixedWidth@C_Text@@QAEXJ@Z:PROC		; C_Text::SetFixedWidth
EXTRN	??0C_TimerHook@@QAE@XZ:PROC			; C_TimerHook::C_TimerHook
EXTRN	?Setup@C_TimerHook@@QAEXJF@Z:PROC		; C_TimerHook::Setup
EXTRN	?GetMenu@C_PopupMgr@@QAEPAVC_PopupList@@J@Z:PROC ; C_PopupMgr::GetMenu
EXTRN	?CloseMenu@C_PopupMgr@@QAEXXZ:PROC		; C_PopupMgr::CloseMenu
EXTRN	?LoadWindowList@C_Parser@@QAEHPAD@Z:PROC	; C_Parser::LoadWindowList
EXTRN	?LoadSoundList@C_Parser@@QAEHPAD@Z:PROC		; C_Parser::LoadSoundList
EXTRN	?LoadImageList@C_Parser@@QAEHPAD@Z:PROC		; C_Parser::LoadImageList
EXTRN	?ScanClientArea@C_Window@@QAEXJ@Z:PROC		; C_Window::ScanClientArea
EXTRN	?AdjustScrollbar@C_Window@@QAEXJ@Z:PROC		; C_Window::AdjustScrollbar
EXTRN	?AddControl@C_Window@@QAEXPAVC_Base@@@Z:PROC	; C_Window::AddControl
EXTRN	?EnableCluster@C_Window@@QAEXJ@Z:PROC		; C_Window::EnableCluster
EXTRN	?DisableCluster@C_Window@@QAEXJ@Z:PROC		; C_Window::DisableCluster
EXTRN	?RefreshWindow@C_Window@@QAEXXZ:PROC		; C_Window::RefreshWindow
EXTRN	?RefreshClient@C_Window@@QAEXJ@Z:PROC		; C_Window::RefreshClient
EXTRN	?FindControl@C_Window@@QAEPAVC_Base@@J@Z:PROC	; C_Window::FindControl
EXTRN	?EnterCritical@C_Handler@@QAEXXZ:PROC		; C_Handler::EnterCritical
EXTRN	?LeaveCritical@C_Handler@@QAEXXZ:PROC		; C_Handler::LeaveCritical
EXTRN	?ShowWindow@C_Handler@@QAEHPAVC_Window@@@Z:PROC	; C_Handler::ShowWindow
EXTRN	?DisableSection@C_Handler@@QAEXJ@Z:PROC		; C_Handler::DisableSection
EXTRN	?EnableWindowGroup@C_Handler@@QAEXJ@Z:PROC	; C_Handler::EnableWindowGroup
EXTRN	?WindowToFront@C_Handler@@QAEXPAVC_Window@@@Z:PROC ; C_Handler::WindowToFront
EXTRN	?GetWindowFlags@C_Handler@@QAEJJ@Z:PROC		; C_Handler::GetWindowFlags
EXTRN	?FindWindowA@C_Handler@@QAEPAVC_Window@@J@Z:PROC ; C_Handler::FindWindowA
EXTRN	??0C_Player@@QAE@XZ:PROC			; C_Player::C_Player
EXTRN	?Setup@C_Player@@QAEXJF@Z:PROC			; C_Player::Setup
EXTRN	?InitEntity@C_Player@@QAEXXZ:PROC		; C_Player::InitEntity
EXTRN	?SetMute@C_Player@@QAEXF@Z:PROC			; C_Player::SetMute
EXTRN	?SetIgnore@C_Player@@QAEXF@Z:PROC		; C_Player::SetIgnore
EXTRN	?GetGameType@FalconGameEntity@@QAE?AW4FalconGameType@@XZ:PROC ; FalconGameEntity::GetGameType
EXTRN	?GetTeam@FalconSessionEntity@@QAEEXZ:PROC	; FalconSessionEntity::GetTeam
EXTRN	?SetCountry@FalconSessionEntity@@QAEXE@Z:PROC	; FalconSessionEntity::SetCountry
EXTRN	?SetCallback@UIComms@@QAEXHP6AXFVVU_ID@@0@Z@Z:PROC ; UIComms::SetCallback
EXTRN	?StopComms@UIComms@@QAEXXZ:PROC			; UIComms::StopComms
EXTRN	?LookAtGame@UIComms@@QAEHPAVVuGameEntity@@@Z:PROC ; UIComms::LookAtGame
EXTRN	?GetTargetGame@UIComms@@QAEPAVVuGameEntity@@XZ:PROC ; UIComms::GetTargetGame
EXTRN	?GetRemoteLB@UIComms@@QAEPAXJ@Z:PROC		; UIComms::GetRemoteLB
EXTRN	?EndCampaign@CampaignClass@@QAEXXZ:PROC		; CampaignClass::EndCampaign
EXTRN	?Remove@CommsQueue@@QAEPAUQStr@@XZ:PROC		; CommsQueue::Remove
EXTRN	?GetRadioFreq@VoiceManager@@QAEHH@Z:PROC	; VoiceManager::GetRadioFreq
EXTRN	??0tactical_mission@@QAE@PAD@Z:PROC		; tactical_mission::tactical_mission
EXTRN	?tactical_accept_mission@@YAXXZ:PROC		; tactical_accept_mission
EXTRN	?DeleteGroupList@@YAXJ@Z:PROC			; DeleteGroupList
EXTRN	?CloseWindowCB@@YAXJFPAVC_Base@@@Z:PROC		; CloseWindowCB
EXTRN	?SetTimeCompression@@YAXH@Z:PROC		; SetTimeCompression
EXTRN	?StartRecording@ACMIRecorder@@QAEXXZ:PROC	; ACMIRecorder::StartRecording
EXTRN	?StopRecording@ACMIRecorder@@QAEXXZ:PROC	; ACMIRecorder::StopRecording
EXTRN	__imp__SysFreeString@4:PROC
EXTRN	?_com_issue_error@@YGXJ@Z:PROC			; _com_issue_error
EXTRN	?ConvertStringToBSTR@_com_util@@YGPA_WPBD@Z:PROC ; _com_util::ConvertStringToBSTR
EXTRN	?_com_issue_errorex@@YGXJPAUIUnknown@@ABU_GUID@@@Z:PROC ; _com_issue_errorex
EXTRN	??_E_com_error@@UAEPAXI@Z:PROC			; _com_error::`vector deleting destructor'
EXTRN	?LoadParameters@DrawableParticleSys@@SA_NXZ:PROC ; DrawableParticleSys::LoadParameters
EXTRN	??0SfxClass@@QAE@HPAUTpoint@@MM@Z:PROC		; SfxClass::SfxClass
EXTRN	?GenericCloseWindowCB@@YAXJFPAVC_Base@@@Z:PROC	; GenericCloseWindowCB
EXTRN	?GenericTimerCB@@YAXJFPAVC_Base@@@Z:PROC	; GenericTimerCB
EXTRN	?AddressInputCB@@YAXJFPAVC_Base@@@Z:PROC	; AddressInputCB
EXTRN	?ClearDFTeamLists@@YAXXZ:PROC			; ClearDFTeamLists
EXTRN	?CopyPBToWindow@@YAXJJ@Z:PROC			; CopyPBToWindow
EXTRN	?GetPlayerInfo@@YAXVVU_ID@@@Z:PROC		; GetPlayerInfo
EXTRN	?TallyPlayerSquadrons@@YAXXZ:PROC		; TallyPlayerSquadrons
EXTRN	?UI_Help_Guide_CB@@YAXJFPAVC_Base@@@Z:PROC	; UI_Help_Guide_CB
EXTRN	?CheckFlyButton@@YAXXZ:PROC			; CheckFlyButton
EXTRN	?CheckPlayersFlight@@YAXPAVFalconSessionEntity@@@Z:PROC ; CheckPlayersFlight
EXTRN	?DisplayLogbook@@YAXPAUPilot@@PAVIMAGE_RSC@@1H@Z:PROC ; DisplayLogbook
EXTRN	?CheckForNewPlayer@@YAXPAVFalconSessionEntity@@@Z:PROC ; CheckForNewPlayer
EXTRN	?HookupServerBrowserControls@@YAXJ@Z:PROC	; HookupServerBrowserControls
EXTRN	?Phone_New_CB@@YAXJFPAVC_Base@@@Z:PROC		; Phone_New_CB
EXTRN	?Phone_Apply_CB@@YAXJFPAVC_Base@@@Z:PROC	; Phone_Apply_CB
EXTRN	?Phone_Remove_CB@@YAXJFPAVC_Base@@@Z:PROC	; Phone_Remove_CB
EXTRN	?Phone_Connect_CB@@YAXJFPAVC_Base@@@Z:PROC	; Phone_Connect_CB
EXTRN	?LoadTacticalWindows@@YAXXZ:PROC		; LoadTacticalWindows
EXTRN	?RemoveTacticalEdit@@YAXXZ:PROC			; RemoveTacticalEdit
EXTRN	?CleanupTacticalEngagementUI@@YAXXZ:PROC	; CleanupTacticalEngagementUI
EXTRN	?DisableScenarioInfo@@YAXXZ:PROC		; DisableScenarioInfo
EXTRN	?LeaveCurrentGame@@YAXXZ:PROC			; LeaveCurrentGame
EXTRN	?LoadTacEngSelectWindows@@YAXXZ:PROC		; LoadTacEngSelectWindows
EXTRN	?LoadCampaignSelectWindows@@YAXXZ:PROC		; LoadCampaignSelectWindows
EXTRN	?ACMI_ImportFile@@YAXXZ:PROC			; ACMI_ImportFile
EXTRN	?LoadTrails@@YAXXZ:PROC				; LoadTrails
EXTRN	@__security_check_cookie@4:PROC
EXTRN	__CxxThrowException@8:PROC
EXTRN	___CxxFrameHandler3:PROC
EXTRN	_memset:PROC
EXTRN	?vuDatabase@@3PAVVuDatabase@@A:DWORD		; vuDatabase
EXTRN	?vuLocalSessionEntity@@3V?$VuBin@VVuSessionEntity@@@@A:DWORD ; vuLocalSessionEntity
EXTRN	?vuPlayerPoolGroup@@3PAVVuGameEntity@@A:DWORD	; vuPlayerPoolGroup
EXTRN	?vuLocalSession@@3VVU_ID@@A:QWORD		; vuLocalSession
EXTRN	?FalconNullId@@3VVU_ID@@A:QWORD			; FalconNullId
EXTRN	??_7type_info@@6B@:QWORD			; type_info::`vftable'
EXTRN	?RuleMode@@3W4RulesModes@@A:DWORD		; RuleMode
EXTRN	?CommandsKeyCombo@@3HA:DWORD			; CommandsKeyCombo
EXTRN	?CommandsKeyComboMod@@3HA:DWORD			; CommandsKeyComboMod
EXTRN	?OTWDriver@@3VOTWDriverClass@@A:BYTE		; OTWDriver
EXTRN	?ObserverPosition@@3UTpoint@@A:BYTE		; ObserverPosition
EXTRN	?gImageMgr@@3PAVC_Image@@A:DWORD		; gImageMgr
EXTRN	?gStringMgr@@3PAVC_String@@A:DWORD		; gStringMgr
EXTRN	?gPopupMgr@@3PAVC_PopupMgr@@A:DWORD		; gPopupMgr
EXTRN	?_LOAD_ART_RESOURCES_@@3JA:DWORD		; _LOAD_ART_RESOURCES_
EXTRN	?gCommsMgr@@3PAVUIComms@@A:DWORD		; gCommsMgr
EXTRN	?TheCampaign@@3VCampaignClass@@A:BYTE		; TheCampaign
EXTRN	?gUICommsQ@@3PAVCommsQueue@@A:DWORD		; gUICommsQ
EXTRN	?FalconDisplay@@3VFalconDisplayConfiguration@@A:BYTE ; FalconDisplay
EXTRN	?VM@@3PAVVoiceManager@@A:DWORD			; VM
EXTRN	?FalconCampaignSaveDirectory@@3PADA:BYTE	; FalconCampaignSaveDirectory
EXTRN	?gMainHandler@@3PAVC_Handler@@A:DWORD		; gMainHandler
EXTRN	?gMainParser@@3PAVC_Parser@@A:DWORD		; gMainParser
EXTRN	?current_tactical_mission@@3PAVtactical_mission@@A:DWORD ; current_tactical_mission
EXTRN	?tactical_mission_loaded@@3HA:DWORD		; tactical_mission_loaded
EXTRN	?gACMIRec@@3VACMIRecorder@@A:BYTE		; gACMIRec
EXTRN	?m_pUplink@@3V?$_com_ptr_t@V?$_com_IIID@UIUplink@GNETCORELib@@$1?_GUID_5ff85b6b_de05_42b9_831f_dc6a4e30a513@@3U__s_GUID@@B@@@@A:DWORD ; m_pUplink
EXTRN	?COLoaded@@3HA:DWORD				; COLoaded
EXTRN	?F4GameType@@3HA:DWORD				; F4GameType
EXTRN	?chatterCount@@3IA:DWORD			; chatterCount
EXTRN	?chatterStr@@3PADA:BYTE				; chatterStr
EXTRN	?AsciiAllowed@@3FA:WORD				; AsciiAllowed
EXTRN	?MaxInputLength@@3IA:DWORD			; MaxInputLength
EXTRN	?UseInputFn@@3P6AXXZA:DWORD			; UseInputFn
EXTRN	?DiscardInputFn@@3P6AXXZA:DWORD			; DiscardInputFn
EXTRN	?ViewLogBook@@3FA:WORD				; ViewLogBook
EXTRN	?g_bServer@@3_NA:BYTE				; g_bServer
EXTRN	?MainLastGroup@@3HA:DWORD			; MainLastGroup
EXTRN	?TacLastGroup@@3HA:DWORD			; TacLastGroup
EXTRN	?TACSelLoaded@@3HA:DWORD			; TACSelLoaded
EXTRN	?CPSelectLoaded@@3HA:DWORD			; CPSelectLoaded
EXTRN	?g_fSoundDopplerFactor@@3MA:DWORD		; g_fSoundDopplerFactor
EXTRN	?g_fSoundRolloffFactor@@3MA:DWORD		; g_fSoundRolloffFactor
EXTRN	?g_nSoundUpdateMS@@3HA:DWORD			; g_nSoundUpdateMS
EXTRN	?g_nShowDebugLabels@@3HA:DWORD			; g_nShowDebugLabels
EXTRN	?gFuelState@@3KA:DWORD				; gFuelState
EXTRN	?g_bActivateDebugStuff@@3_NA:BYTE		; g_bActivateDebugStuff
EXTRN	?g_bNoSound@@3_NA:BYTE				; g_bNoSound
EXTRN	?g_bNoTrails@@3_NA:BYTE				; g_bNoTrails
EXTRN	___security_cookie:DWORD
EXTRN	__fltused:DWORD
_BSS	SEGMENT
_piecewise_construct DB 01H DUP (?)
	ALIGN	4

_allocator_arg DB 01H DUP (?)
_BSS	ENDS
;	COMDAT ?_Generic_object@?$_Error_objects@H@std@@2V_Generic_error_category@2@A
_BSS	SEGMENT
?_Generic_object@?$_Error_objects@H@std@@2V_Generic_error_category@2@A DD 01H DUP (?) ; std::_Error_objects<int>::_Generic_object
_BSS	ENDS
;	COMDAT ?_Iostream_object@?$_Error_objects@H@std@@2V_Iostream_error_category@2@A
_BSS	SEGMENT
?_Iostream_object@?$_Error_objects@H@std@@2V_Iostream_error_category@2@A DD 01H DUP (?) ; std::_Error_objects<int>::_Iostream_object
_BSS	ENDS
;	COMDAT ?_System_object@?$_Error_objects@H@std@@2V_System_error_category@2@A
_BSS	SEGMENT
?_System_object@?$_Error_objects@H@std@@2V_System_error_category@2@A DD 01H DUP (?) ; std::_Error_objects<int>::_System_object
_BSS	ENDS
;	COMDAT ?id@?$num_put@DV?$back_insert_iterator@V?$basic_string@DU?$char_traits@D@std@@V?$allocator@D@2@@std@@@std@@@std@@2V0locale@2@A
_BSS	SEGMENT
?id@?$num_put@DV?$back_insert_iterator@V?$basic_string@DU?$char_traits@D@std@@V?$allocator@D@2@@std@@@std@@@std@@2V0locale@2@A DD 01H DUP (?) ; std::num_put<char,std::back_insert_iterator<std::basic_string<char,std::char_traits<char>,std::allocator<char> > > >::id
_BSS	ENDS
;	COMDAT ?id@?$num_put@_WV?$back_insert_iterator@V?$basic_string@_WU?$char_traits@_W@std@@V?$allocator@_W@2@@std@@@std@@@std@@2V0locale@2@A
_BSS	SEGMENT
?id@?$num_put@_WV?$back_insert_iterator@V?$basic_string@_WU?$char_traits@_W@std@@V?$allocator@_W@2@@std@@@std@@@std@@2V0locale@2@A DD 01H DUP (?) ; std::num_put<wchar_t,std::back_insert_iterator<std::basic_string<wchar_t,std::char_traits<wchar_t>,std::allocator<wchar_t> > > >::id
_BSS	ENDS
;	COMDAT ?sfx@?CK@??ServerChatCommand@@YAXPAD@Z@4HA
_BSS	SEGMENT
?sfx@?CK@??ServerChatCommand@@YAXPAD@Z@4HA DD 01H DUP (?) ; `ServerChatCommand'::`42'::sfx
_BSS	ENDS
;	COMDAT ?vc@?CK@??ServerChatCommand@@YAXPAD@Z@4UTpoint@@A
_BSS	SEGMENT
?vc@?CK@??ServerChatCommand@@YAXPAD@Z@4UTpoint@@A DB 0cH DUP (?) ; `ServerChatCommand'::`42'::vc
_BSS	ENDS
;	COMDAT ?$S1@?CK@??ServerChatCommand@@YAXPAD@Z@4IA
_BSS	SEGMENT
?$S1@?CK@??ServerChatCommand@@YAXPAD@Z@4IA DD 01H DUP (?) ; `ServerChatCommand'::`42'::$S1
_BSS	ENDS
_BSS	SEGMENT
	ALIGN	4

_chatbuf DB	0200H DUP (?)
	ALIGN	8

_SearchID DQ	01H DUP (?)
_tmpID	DD	01H DUP (?)
_BSS	ENDS
;	COMDAT ?id@?$numpunct@D@std@@2V0locale@2@A
_BSS	SEGMENT
?id@?$numpunct@D@std@@2V0locale@2@A DD 01H DUP (?)	; std::numpunct<char>::id
_BSS	ENDS
;	COMDAT ?id@?$numpunct@_W@std@@2V0locale@2@A
_BSS	SEGMENT
?id@?$numpunct@_W@std@@2V0locale@2@A DD 01H DUP (?)	; std::numpunct<wchar_t>::id
_BSS	ENDS
CRT$XCU	SEGMENT
_piecewise_construct$initializer$ DD FLAT:??__Epiecewise_construct@std@@YAXXZ
CRT$XCU	ENDS
;	COMDAT __real@43960000
CONST	SEGMENT
__real@43960000 DD 043960000r			; 300
CONST	ENDS
;	COMDAT __real@42700000
CONST	SEGMENT
__real@42700000 DD 042700000r			; 60
CONST	ENDS
;	COMDAT __real@42200000
CONST	SEGMENT
__real@42200000 DD 042200000r			; 40
CONST	ENDS
;	COMDAT __real@3f800000
CONST	SEGMENT
__real@3f800000 DD 03f800000r			; 1
CONST	ENDS
;	COMDAT __real@392c987a
CONST	SEGMENT
__real@392c987a DD 0392c987ar			; 0.0001646
CONST	ENDS
;	COMDAT ??_R1A@?0A@EA@_com_error@@8
rdata$r	SEGMENT
??_R1A@?0A@EA@_com_error@@8 DD FLAT:??_R0?AV_com_error@@@8 ; _com_error::`RTTI Base Class Descriptor at (0,-1,0,64)'
	DD	00H
	DD	00H
	DD	0ffffffffH
	DD	00H
	DD	040H
	DD	FLAT:??_R3_com_error@@8
rdata$r	ENDS
;	COMDAT ??_R2_com_error@@8
rdata$r	SEGMENT
??_R2_com_error@@8 DD FLAT:??_R1A@?0A@EA@_com_error@@8	; _com_error::`RTTI Base Class Array'
rdata$r	ENDS
;	COMDAT ??_R3_com_error@@8
rdata$r	SEGMENT
??_R3_com_error@@8 DD 00H				; _com_error::`RTTI Class Hierarchy Descriptor'
	DD	00H
	DD	01H
	DD	FLAT:??_R2_com_error@@8
rdata$r	ENDS
;	COMDAT ??_R4_com_error@@6B@
rdata$r	SEGMENT
??_R4_com_error@@6B@ DD 00H				; _com_error::`RTTI Complete Object Locator'
	DD	00H
	DD	00H
	DD	FLAT:??_R0?AV_com_error@@@8
	DD	FLAT:??_R3_com_error@@8
rdata$r	ENDS
;	COMDAT ??_R1A@?0A@EA@_System_error_category@std@@8
rdata$r	SEGMENT
??_R1A@?0A@EA@_System_error_category@std@@8 DD FLAT:??_R0?AV_System_error_category@std@@@8 ; std::_System_error_category::`RTTI Base Class Descriptor at (0,-1,0,64)'
	DD	02H
	DD	00H
	DD	0ffffffffH
	DD	00H
	DD	040H
	DD	FLAT:??_R3_System_error_category@std@@8
rdata$r	ENDS
;	COMDAT ??_R2_System_error_category@std@@8
rdata$r	SEGMENT
??_R2_System_error_category@std@@8 DD FLAT:??_R1A@?0A@EA@_System_error_category@std@@8 ; std::_System_error_category::`RTTI Base Class Array'
	DD	FLAT:??_R1A@?0A@EA@_Generic_error_category@std@@8
	DD	FLAT:??_R1A@?0A@EA@error_category@std@@8
rdata$r	ENDS
;	COMDAT ??_R3_System_error_category@std@@8
rdata$r	SEGMENT
??_R3_System_error_category@std@@8 DD 00H		; std::_System_error_category::`RTTI Class Hierarchy Descriptor'
	DD	00H
	DD	03H
	DD	FLAT:??_R2_System_error_category@std@@8
rdata$r	ENDS
;	COMDAT ??_R0?AV_System_error_category@std@@@8
_DATA	SEGMENT
??_R0?AV_System_error_category@std@@@8 DD FLAT:??_7type_info@@6B@ ; std::_System_error_category `RTTI Type Descriptor'
	DD	00H
	DB	'.?AV_System_error_category@std@@', 00H
_DATA	ENDS
;	COMDAT ??_R4_System_error_category@std@@6B@
rdata$r	SEGMENT
??_R4_System_error_category@std@@6B@ DD 00H		; std::_System_error_category::`RTTI Complete Object Locator'
	DD	00H
	DD	00H
	DD	FLAT:??_R0?AV_System_error_category@std@@@8
	DD	FLAT:??_R3_System_error_category@std@@8
rdata$r	ENDS
;	COMDAT ??_R1A@?0A@EA@_Iostream_error_category@std@@8
rdata$r	SEGMENT
??_R1A@?0A@EA@_Iostream_error_category@std@@8 DD FLAT:??_R0?AV_Iostream_error_category@std@@@8 ; std::_Iostream_error_category::`RTTI Base Class Descriptor at (0,-1,0,64)'
	DD	02H
	DD	00H
	DD	0ffffffffH
	DD	00H
	DD	040H
	DD	FLAT:??_R3_Iostream_error_category@std@@8
rdata$r	ENDS
;	COMDAT ??_R2_Iostream_error_category@std@@8
rdata$r	SEGMENT
??_R2_Iostream_error_category@std@@8 DD FLAT:??_R1A@?0A@EA@_Iostream_error_category@std@@8 ; std::_Iostream_error_category::`RTTI Base Class Array'
	DD	FLAT:??_R1A@?0A@EA@_Generic_error_category@std@@8
	DD	FLAT:??_R1A@?0A@EA@error_category@std@@8
rdata$r	ENDS
;	COMDAT ??_R3_Iostream_error_category@std@@8
rdata$r	SEGMENT
??_R3_Iostream_error_category@std@@8 DD 00H		; std::_Iostream_error_category::`RTTI Class Hierarchy Descriptor'
	DD	00H
	DD	03H
	DD	FLAT:??_R2_Iostream_error_category@std@@8
rdata$r	ENDS
;	COMDAT ??_R0?AV_Iostream_error_category@std@@@8
_DATA	SEGMENT
??_R0?AV_Iostream_error_category@std@@@8 DD FLAT:??_7type_info@@6B@ ; std::_Iostream_error_category `RTTI Type Descriptor'
	DD	00H
	DB	'.?AV_Iostream_error_category@std@@', 00H
_DATA	ENDS
;	COMDAT ??_R4_Iostream_error_category@std@@6B@
rdata$r	SEGMENT
??_R4_Iostream_error_category@std@@6B@ DD 00H		; std::_Iostream_error_category::`RTTI Complete Object Locator'
	DD	00H
	DD	00H
	DD	FLAT:??_R0?AV_Iostream_error_category@std@@@8
	DD	FLAT:??_R3_Iostream_error_category@std@@8
rdata$r	ENDS
;	COMDAT ??_R1A@?0A@EA@_Generic_error_category@std@@8
rdata$r	SEGMENT
??_R1A@?0A@EA@_Generic_error_category@std@@8 DD FLAT:??_R0?AV_Generic_error_category@std@@@8 ; std::_Generic_error_category::`RTTI Base Class Descriptor at (0,-1,0,64)'
	DD	01H
	DD	00H
	DD	0ffffffffH
	DD	00H
	DD	040H
	DD	FLAT:??_R3_Generic_error_category@std@@8
rdata$r	ENDS
;	COMDAT ??_R2_Generic_error_category@std@@8
rdata$r	SEGMENT
??_R2_Generic_error_category@std@@8 DD FLAT:??_R1A@?0A@EA@_Generic_error_category@std@@8 ; std::_Generic_error_category::`RTTI Base Class Array'
	DD	FLAT:??_R1A@?0A@EA@error_category@std@@8
rdata$r	ENDS
;	COMDAT ??_R3_Generic_error_category@std@@8
rdata$r	SEGMENT
??_R3_Generic_error_category@std@@8 DD 00H		; std::_Generic_error_category::`RTTI Class Hierarchy Descriptor'
	DD	00H
	DD	02H
	DD	FLAT:??_R2_Generic_error_category@std@@8
rdata$r	ENDS
;	COMDAT ??_R0?AV_Generic_error_category@std@@@8
_DATA	SEGMENT
??_R0?AV_Generic_error_category@std@@@8 DD FLAT:??_7type_info@@6B@ ; std::_Generic_error_category `RTTI Type Descriptor'
	DD	00H
	DB	'.?AV_Generic_error_category@std@@', 00H
_DATA	ENDS
;	COMDAT ??_R4_Generic_error_category@std@@6B@
rdata$r	SEGMENT
??_R4_Generic_error_category@std@@6B@ DD 00H		; std::_Generic_error_category::`RTTI Complete Object Locator'
	DD	00H
	DD	00H
	DD	FLAT:??_R0?AV_Generic_error_category@std@@@8
	DD	FLAT:??_R3_Generic_error_category@std@@8
rdata$r	ENDS
;	COMDAT ??_R1A@?0A@EA@error_category@std@@8
rdata$r	SEGMENT
??_R1A@?0A@EA@error_category@std@@8 DD FLAT:??_R0?AVerror_category@std@@@8 ; std::error_category::`RTTI Base Class Descriptor at (0,-1,0,64)'
	DD	00H
	DD	00H
	DD	0ffffffffH
	DD	00H
	DD	040H
	DD	FLAT:??_R3error_category@std@@8
rdata$r	ENDS
;	COMDAT ??_R2error_category@std@@8
rdata$r	SEGMENT
??_R2error_category@std@@8 DD FLAT:??_R1A@?0A@EA@error_category@std@@8 ; std::error_category::`RTTI Base Class Array'
rdata$r	ENDS
;	COMDAT ??_R3error_category@std@@8
rdata$r	SEGMENT
??_R3error_category@std@@8 DD 00H			; std::error_category::`RTTI Class Hierarchy Descriptor'
	DD	00H
	DD	01H
	DD	FLAT:??_R2error_category@std@@8
rdata$r	ENDS
;	COMDAT ??_R0?AVerror_category@std@@@8
_DATA	SEGMENT
??_R0?AVerror_category@std@@@8 DD FLAT:??_7type_info@@6B@ ; std::error_category `RTTI Type Descriptor'
	DD	00H
	DB	'.?AVerror_category@std@@', 00H
_DATA	ENDS
;	COMDAT ??_R4error_category@std@@6B@
rdata$r	SEGMENT
??_R4error_category@std@@6B@ DD 00H			; std::error_category::`RTTI Complete Object Locator'
	DD	00H
	DD	00H
	DD	FLAT:??_R0?AVerror_category@std@@@8
	DD	FLAT:??_R3error_category@std@@8
rdata$r	ENDS
;	COMDAT ??_C@_0BA@JFNIOLAK@string?5too?5long?$AA@
CONST	SEGMENT
??_C@_0BA@JFNIOLAK@string?5too?5long?$AA@ DB 'string too long', 00H ; `string'
CONST	ENDS
;	COMDAT ??_C@_0BI@CFPLBAOH@invalid?5string?5position?$AA@
CONST	SEGMENT
??_C@_0BI@CFPLBAOH@invalid?5string?5position?$AA@ DB 'invalid string posi'
	DB	'tion', 00H					; `string'
CONST	ENDS
;	COMDAT ??_C@_0DN@CJCLCKKH@StartCampaignGame?3?5Error?50x?$CFX?5oc@
CONST	SEGMENT
??_C@_0DN@CJCLCKKH@StartCampaignGame?3?5Error?50x?$CFX?5oc@ DB 'StartCamp'
	DB	'aignGame: Error 0x%X occured during UpLink startup!', 00H ; `string'
CONST	ENDS
;	COMDAT ??_R0?AV_com_error@@@8
_DATA	SEGMENT
??_R0?AV_com_error@@@8 DD FLAT:??_7type_info@@6B@	; _com_error `RTTI Type Descriptor'
	DD	00H
	DB	'.?AV_com_error@@', 00H
_DATA	ENDS
;	COMDAT ??_C@_05DNIIFBMG@?$CFs?5?$CFs?$AA@
CONST	SEGMENT
??_C@_05DNIIFBMG@?$CFs?5?$CFs?$AA@ DB '%s %s', 00H	; `string'
CONST	ENDS
;	COMDAT ??_C@_07NBCGADJA@Unknown?$AA@
CONST	SEGMENT
??_C@_07NBCGADJA@Unknown?$AA@ DB 'Unknown', 00H		; `string'
CONST	ENDS
;	COMDAT ??_C@_02LMMGGCAJ@?3?5?$AA@
CONST	SEGMENT
??_C@_02LMMGGCAJ@?3?5?$AA@ DB ': ', 00H			; `string'
CONST	ENDS
;	COMDAT ??_C@_04GLIKJPDD@?4pos?$AA@
CONST	SEGMENT
??_C@_04GLIKJPDD@?4pos?$AA@ DB '.pos', 00H		; `string'
CONST	ENDS
;	COMDAT ??_C@_04KFENEGCG@?4mbw?$AA@
CONST	SEGMENT
??_C@_04KFENEGCG@?4mbw?$AA@ DB '.mbw', 00H		; `string'
CONST	ENDS
;	COMDAT ??_C@_03POAJPEED@?4tf?$AA@
CONST	SEGMENT
??_C@_03POAJPEED@?4tf?$AA@ DB '.tf', 00H		; `string'
CONST	ENDS
;	COMDAT ??_C@_04JCJDLGBE@?4hbw?$AA@
CONST	SEGMENT
??_C@_04JCJDLGBE@?4hbw?$AA@ DB '.hbw', 00H		; `string'
CONST	ENDS
;	COMDAT ??_C@_04EFJCDBBF@?4cbw?$AA@
CONST	SEGMENT
??_C@_04EFJCDBBF@?4cbw?$AA@ DB '.cbw', 00H		; `string'
CONST	ENDS
;	COMDAT ??_C@_05PCBFEDNA@?4tgbw?$AA@
CONST	SEGMENT
??_C@_05PCBFEDNA@?4tgbw?$AA@ DB '.tgbw', 00H		; `string'
CONST	ENDS
;	COMDAT ??_C@_05EADFJPMA@?4sgbw?$AA@
CONST	SEGMENT
??_C@_05EADFJPMA@?4sgbw?$AA@ DB '.sgbw', 00H		; `string'
CONST	ENDS
;	COMDAT ??_C@_05BNLFCBPC@?4bgbw?$AA@
CONST	SEGMENT
??_C@_05BNLFCBPC@?4bgbw?$AA@ DB '.bgbw', 00H		; `string'
CONST	ENDS
;	COMDAT ??_C@_05GPNOCICD@?4tggn?$AA@
CONST	SEGMENT
??_C@_05GPNOCICD@?4tggn?$AA@ DB '.tggn', 00H		; `string'
CONST	ENDS
;	COMDAT ??_C@_05NNPOPEDD@?4sggn?$AA@
CONST	SEGMENT
??_C@_05NNPOPEDD@?4sggn?$AA@ DB '.sggn', 00H		; `string'
CONST	ENDS
;	COMDAT ??_C@_05IAHOEKAB@?4bggn?$AA@
CONST	SEGMENT
??_C@_05IAHOEKAB@?4bggn?$AA@ DB '.bggn', 00H		; `string'
CONST	ENDS
;	COMDAT ??_C@_04CHKBFHEC@?4tgl?$AA@
CONST	SEGMENT
??_C@_04CHKBFHEC@?4tgl?$AA@ DB '.tgl', 00H		; `string'
CONST	ENDS
;	COMDAT ??_C@_04LKHGGPPL@?4sgl?$AA@
CONST	SEGMENT
??_C@_04LKHGGPPL@?4sgl?$AA@ DB '.sgl', 00H		; `string'
CONST	ENDS
;	COMDAT ??_C@_04FCNDFPAB@?4bgl?$AA@
CONST	SEGMENT
??_C@_04FCNDFPAB@?4bgl?$AA@ DB '.bgl', 00H		; `string'
CONST	ENDS
;	COMDAT ??_C@_05KALABMFA@?4tgsp?$AA@
CONST	SEGMENT
??_C@_05KALABMFA@?4tgsp?$AA@ DB '.tgsp', 00H		; `string'
CONST	ENDS
;	COMDAT ??_C@_05BCJAMAEA@?4sgsp?$AA@
CONST	SEGMENT
??_C@_05BCJAMAEA@?4sgsp?$AA@ DB '.sgsp', 00H		; `string'
CONST	ENDS
;	COMDAT ??_C@_05EPBAHOHC@?4bgsp?$AA@
CONST	SEGMENT
??_C@_05EPBAHOHC@?4bgsp?$AA@ DB '.bgsp', 00H		; `string'
CONST	ENDS
;	COMDAT ??_C@_04PDOAGIJN@?4tgr?$AA@
CONST	SEGMENT
??_C@_04PDOAGIJN@?4tgr?$AA@ DB '.tgr', 00H		; `string'
CONST	ENDS
;	COMDAT ??_C@_04JPIJFBJP@?4bgs?$AA@
CONST	SEGMENT
??_C@_04JPIJFBJP@?4bgs?$AA@ DB '.bgs', 00H		; `string'
CONST	ENDS
;	COMDAT ??_C@_07GBHEDFOH@?4boundb?$AA@
CONST	SEGMENT
??_C@_07GBHEDFOH@?4boundb?$AA@ DB '.boundb', 00H	; `string'
CONST	ENDS
;	COMDAT ??_C@_09OMJMALCF@?4mistrail?$AA@
CONST	SEGMENT
??_C@_09OMJMALCF@?4mistrail?$AA@ DB '.mistrail', 00H	; `string'
CONST	ENDS
;	COMDAT ??_C@_05OHJNOPJG@?4quit?$AA@
CONST	SEGMENT
??_C@_05OHJNOPJG@?4quit?$AA@ DB '.quit', 00H		; `string'
CONST	ENDS
;	COMDAT ??_C@_04PHPJHFJH@?4cam?$AA@
CONST	SEGMENT
??_C@_04PHPJHFJH@?4cam?$AA@ DB '.cam', 00H		; `string'
CONST	ENDS
;	COMDAT ??_C@_06ONNDGCDK@dofile?$AA@
CONST	SEGMENT
??_C@_06ONNDGCDK@dofile?$AA@ DB 'dofile', 00H		; `string'
CONST	ENDS
;	COMDAT ??_C@_03MCADLMAF@off?$AA@
CONST	SEGMENT
??_C@_03MCADLMAF@off?$AA@ DB 'off', 00H			; `string'
CONST	ENDS
;	COMDAT ??_C@_02LIELOMNJ@on?$AA@
CONST	SEGMENT
??_C@_02LIELOMNJ@on?$AA@ DB 'on', 00H			; `string'
CONST	ENDS
;	COMDAT ??_C@_05KGKLEJH@?4acmi?$AA@
CONST	SEGMENT
??_C@_05KGKLEJH@?4acmi?$AA@ DB '.acmi', 00H		; `string'
CONST	ENDS
;	COMDAT ??_C@_04KELEDHDP@?4tac?$AA@
CONST	SEGMENT
??_C@_04KELEDHDP@?4tac?$AA@ DB '.tac', 00H		; `string'
CONST	ENDS
;	COMDAT ??_C@_01KICIPPFI@?2?$AA@
CONST	SEGMENT
??_C@_01KICIPPFI@?2?$AA@ DB '\', 00H			; `string'
CONST	ENDS
;	COMDAT ??_C@_07JIPBKKCL@?4loadte?$AA@
CONST	SEGMENT
??_C@_07JIPBKKCL@?4loadte?$AA@ DB '.loadte', 00H	; `string'
CONST	ENDS
;	COMDAT ??_C@_05LOFMMFDJ@?4fuel?$AA@
CONST	SEGMENT
??_C@_05LOFMMFDJ@?4fuel?$AA@ DB '.fuel', 00H		; `string'
CONST	ENDS
;	COMDAT ??_C@_06DAAOOBHE@?4label?$AA@
CONST	SEGMENT
??_C@_06DAAOOBHE@?4label?$AA@ DB '.label', 00H		; `string'
CONST	ENDS
;	COMDAT ?Dist@?CK@??ServerChatCommand@@YAXPAD@Z@4MA
_DATA	SEGMENT
?Dist@?CK@??ServerChatCommand@@YAXPAD@Z@4MA DD 043960000r ; 300 ; `ServerChatCommand'::`42'::Dist
_DATA	ENDS
;	COMDAT ??_C@_01LFCBOECM@?4?$AA@
CONST	SEGMENT
??_C@_01LFCBOECM@?4?$AA@ DB '.', 00H			; `string'
CONST	ENDS
;	COMDAT ??_C@_04JFBKNCJJ@?4sfx?$AA@
CONST	SEGMENT
??_C@_04JFBKNCJJ@?4sfx?$AA@ DB '.sfx', 00H		; `string'
CONST	ENDS
;	COMDAT ??_C@_06FHPBHPAB@?4sndro?$AA@
CONST	SEGMENT
??_C@_06FHPBHPAB@?4sndro?$AA@ DB '.sndro', 00H		; `string'
CONST	ENDS
;	COMDAT ??_C@_07CNBNLAFM@?4snddop?$AA@
CONST	SEGMENT
??_C@_07CNBNLAFM@?4snddop?$AA@ DB '.snddop', 00H	; `string'
CONST	ENDS
;	COMDAT ??_C@_06KGPMMGBB@?4sndms?$AA@
CONST	SEGMENT
??_C@_06KGPMMGBB@?4sndms?$AA@ DB '.sndms', 00H		; `string'
CONST	ENDS
;	COMDAT ??_C@_04HNHONOHM@?4snd?$AA@
CONST	SEGMENT
??_C@_04HNHONOHM@?4snd?$AA@ DB '.snd', 00H		; `string'
CONST	ENDS
;	COMDAT ??_C@_0L@MJCBANGI@?4sndreload?$AA@
CONST	SEGMENT
??_C@_0L@MJCBANGI@?4sndreload?$AA@ DB '.sndreload', 00H	; `string'
CONST	ENDS
;	COMDAT ??_C@_09MLFANMAK@?4psreload?$AA@
CONST	SEGMENT
??_C@_09MLFANMAK@?4psreload?$AA@ DB '.psreload', 00H	; `string'
CONST	ENDS
;	COMDAT ??_C@_0N@CFHNGPIC@?4trailreload?$AA@
CONST	SEGMENT
??_C@_0N@CFHNGPIC@?4trailreload?$AA@ DB '.trailreload', 00H ; `string'
CONST	ENDS
;	COMDAT ??_C@_06ODGENKFK@?4trail?$AA@
CONST	SEGMENT
??_C@_06ODGENKFK@?4trail?$AA@ DB '.trail', 00H		; `string'
CONST	ENDS
;	COMDAT ??_C@_01CLKCMJKC@?5?$AA@
CONST	SEGMENT
??_C@_01CLKCMJKC@?5?$AA@ DB ' ', 00H			; `string'
CONST	ENDS
;	COMDAT ??_C@_0N@FPAPLJKF@comm_scf?4lst?$AA@
CONST	SEGMENT
??_C@_0N@FPAPLJKF@comm_scf?4lst?$AA@ DB 'comm_scf.lst', 00H ; `string'
CONST	ENDS
;	COMDAT ??_C@_0N@HDBAHJGO@comm_snd?4lst?$AA@
CONST	SEGMENT
??_C@_0N@HDBAHJGO@comm_snd?4lst?$AA@ DB 'comm_snd.lst', 00H ; `string'
CONST	ENDS
;	COMDAT ??_C@_0N@OOCGLLBJ@comm_art?4lst?$AA@
CONST	SEGMENT
??_C@_0N@OOCGLLBJ@comm_art?4lst?$AA@ DB 'comm_art.lst', 00H ; `string'
CONST	ENDS
;	COMDAT ??_C@_0N@KDGOBPCJ@comm_res?4lst?$AA@
CONST	SEGMENT
??_C@_0N@KDGOBPCJ@comm_res?4lst?$AA@ DB 'comm_res.lst', 00H ; `string'
CONST	ENDS
;	COMDAT ??_7_com_error@@6B@
CONST	SEGMENT
??_7_com_error@@6B@ DD FLAT:??_R4_com_error@@6B@	; _com_error::`vftable'
	DD	FLAT:??_E_com_error@@UAEPAXI@Z
CONST	ENDS
;	COMDAT ??_C@_06FHFOAHML@system?$AA@
CONST	SEGMENT
??_C@_06FHFOAHML@system?$AA@ DB 'system', 00H		; `string'
CONST	ENDS
;	COMDAT ??_7_System_error_category@std@@6B@
CONST	SEGMENT
??_7_System_error_category@std@@6B@ DD FLAT:??_R4_System_error_category@std@@6B@ ; std::_System_error_category::`vftable'
	DD	FLAT:??_E_System_error_category@std@@UAEPAXI@Z
	DD	FLAT:?name@_System_error_category@std@@UBEPBDXZ
	DD	FLAT:?message@_System_error_category@std@@UBE?AV?$basic_string@DU?$char_traits@D@std@@V?$allocator@D@2@@2@H@Z
	DD	FLAT:?default_error_condition@_System_error_category@std@@UBE?AVerror_condition@2@H@Z
	DD	FLAT:?equivalent@error_category@std@@UBE_NABVerror_code@2@H@Z
	DD	FLAT:?equivalent@error_category@std@@UBE_NHABVerror_condition@2@@Z
CONST	ENDS
;	COMDAT ??_C@_0BG@PADBLCHM@iostream?5stream?5error?$AA@
CONST	SEGMENT
??_C@_0BG@PADBLCHM@iostream?5stream?5error?$AA@ DB 'iostream stream error'
	DB	00H						; `string'
CONST	ENDS
;	COMDAT ??_C@_08LLGCOLLL@iostream?$AA@
CONST	SEGMENT
??_C@_08LLGCOLLL@iostream?$AA@ DB 'iostream', 00H	; `string'
CONST	ENDS
;	COMDAT ??_7_Iostream_error_category@std@@6B@
CONST	SEGMENT
??_7_Iostream_error_category@std@@6B@ DD FLAT:??_R4_Iostream_error_category@std@@6B@ ; std::_Iostream_error_category::`vftable'
	DD	FLAT:??_E_Iostream_error_category@std@@UAEPAXI@Z
	DD	FLAT:?name@_Iostream_error_category@std@@UBEPBDXZ
	DD	FLAT:?message@_Iostream_error_category@std@@UBE?AV?$basic_string@DU?$char_traits@D@std@@V?$allocator@D@2@@2@H@Z
	DD	FLAT:?default_error_condition@error_category@std@@UBE?AVerror_condition@2@H@Z
	DD	FLAT:?equivalent@error_category@std@@UBE_NABVerror_code@2@H@Z
	DD	FLAT:?equivalent@error_category@std@@UBE_NHABVerror_condition@2@@Z
CONST	ENDS
;	COMDAT ??_C@_0O@BFJCFAAK@unknown?5error?$AA@
CONST	SEGMENT
??_C@_0O@BFJCFAAK@unknown?5error?$AA@ DB 'unknown error', 00H ; `string'
CONST	ENDS
;	COMDAT ??_C@_07DCLBNMLN@generic?$AA@
CONST	SEGMENT
??_C@_07DCLBNMLN@generic?$AA@ DB 'generic', 00H		; `string'
CONST	ENDS
;	COMDAT ??_7_Generic_error_category@std@@6B@
CONST	SEGMENT
??_7_Generic_error_category@std@@6B@ DD FLAT:??_R4_Generic_error_category@std@@6B@ ; std::_Generic_error_category::`vftable'
	DD	FLAT:??_E_Generic_error_category@std@@UAEPAXI@Z
	DD	FLAT:?name@_Generic_error_category@std@@UBEPBDXZ
	DD	FLAT:?message@_Generic_error_category@std@@UBE?AV?$basic_string@DU?$char_traits@D@std@@V?$allocator@D@2@@2@H@Z
	DD	FLAT:?default_error_condition@error_category@std@@UBE?AVerror_condition@2@H@Z
	DD	FLAT:?equivalent@error_category@std@@UBE_NABVerror_code@2@H@Z
	DD	FLAT:?equivalent@error_category@std@@UBE_NHABVerror_condition@2@@Z
CONST	ENDS
;	COMDAT ??_7error_category@std@@6B@
CONST	SEGMENT
??_7error_category@std@@6B@ DD FLAT:??_R4error_category@std@@6B@ ; std::error_category::`vftable'
	DD	FLAT:??_Eerror_category@std@@UAEPAXI@Z
	DD	FLAT:__purecall
	DD	FLAT:__purecall
	DD	FLAT:?default_error_condition@error_category@std@@UBE?AVerror_condition@2@H@Z
	DD	FLAT:?equivalent@error_category@std@@UBE_NABVerror_code@2@H@Z
	DD	FLAT:?equivalent@error_category@std@@UBE_NHABVerror_condition@2@@Z
CONST	ENDS
;	COMDAT ??_C@_00CNPNBAHC@?$AA@
CONST	SEGMENT
??_C@_00CNPNBAHC@?$AA@ DB 00H				; `string'
CONST	ENDS
;	COMDAT xdata$x
xdata$x	SEGMENT
__unwindtable$??$construct@PADAAPAD@?$allocator@D@std@@QAEXPAPADAAPAD@Z DD 0ffffffffH
	DD	FLAT:__unwindfunclet$??$construct@PADAAPAD@?$allocator@D@std@@QAEXPAPADAAPAD@Z$0
__ehfuncinfo$??$construct@PADAAPAD@?$allocator@D@std@@QAEXPAPADAAPAD@Z DD 019930522H
	DD	01H
	DD	FLAT:__unwindtable$??$construct@PADAAPAD@?$allocator@D@std@@QAEXPAPADAAPAD@Z
	DD	2 DUP(00H)
	DD	2 DUP(00H)
	DD	00H
	DD	01H
xdata$x	ENDS
xdata$x	SEGMENT
__unwindtable$?SelectChatFilterCB@@YAXJFPAVC_Base@@@Z DD 0ffffffffH
	DD	FLAT:__unwindfunclet$?SelectChatFilterCB@@YAXJFPAVC_Base@@@Z$0
__unwindtable$?UpdateGameTreeBranch@@YAXJPAVVuGameEntity@@PAVC_TreeList@@PAVTREELIST@@H@Z DD 0ffffffffH
	DD	FLAT:__unwindfunclet$?UpdateGameTreeBranch@@YAXJPAVVuGameEntity@@PAVC_TreeList@@PAVTREELIST@@H@Z$0
__unwindtable$?CreatePlayerButton@@YAPAVTREELIST@@PAVC_TreeList@@PAVFalconSessionEntity@@@Z DD 0ffffffffH
	DD	FLAT:__unwindfunclet$?CreatePlayerButton@@YAPAVTREELIST@@PAVC_TreeList@@PAVFalconSessionEntity@@@Z$0
__unwindtable$?TrimmerFindSession@@YAHVVU_ID@@PAVVuGameEntity@@@Z DD 0ffffffffH
	DD	FLAT:__unwindfunclet$?TrimmerFindSession@@YAHVVU_ID@@PAVVuGameEntity@@@Z$0
__unwindtable$?SendChatStringCB@@YAXJFPAVC_Base@@@Z DD 0ffffffffH
	DD	FLAT:__unwindfunclet$?SendChatStringCB@@YAXJFPAVC_Base@@@Z$0
__unwindtable$?ReceiveChatString@@YAXVVU_ID@@PAD@Z DD 0ffffffffH
	DD	FLAT:__unwindfunclet$?ReceiveChatString@@YAXVVU_ID@@PAD@Z$0
__unwindtable$?AddMessageToChatWindow@@YAXVVU_ID@@PAD@Z DD 0ffffffffH
	DD	FLAT:__unwindfunclet$?AddMessageToChatWindow@@YAXVVU_ID@@PAD@Z$0
__unwindtable$?ViewRemoteLBCB@@YAXJFPAVC_Base@@@Z DD 0ffffffffH
	DD	FLAT:__unwindfunclet$?ViewRemoteLBCB@@YAXJFPAVC_Base@@@Z$0
__unwindtable$?CommsSetup@@YAXXZ DD 0ffffffffH
	DD	FLAT:__unwindfunclet$?CommsSetup@@YAXXZ$0
__unwindtable$?SendTextToEveryOne@@YAXXZ DD 0ffffffffH
	DD	FLAT:__unwindfunclet$?SendTextToEveryOne@@YAXXZ$0
	DD	00H
	DD	FLAT:__unwindfunclet$?SendTextToEveryOne@@YAXXZ$1
__unwindtable$?SendTextToTeam@@YAXXZ DD 0ffffffffH
	DD	FLAT:__unwindfunclet$?SendTextToTeam@@YAXXZ$0
	DD	00H
	DD	FLAT:__unwindfunclet$?SendTextToTeam@@YAXXZ$1
__unwindtable$?SendTextToRange@@YAXXZ DD 0ffffffffH
	DD	FLAT:__unwindfunclet$?SendTextToRange@@YAXXZ$0
	DD	00H
	DD	FLAT:__unwindfunclet$?SendTextToRange@@YAXXZ$1
__unwindtable$?SendTextToPackage@@YAXXZ DD 0ffffffffH
	DD	FLAT:__unwindfunclet$?SendTextToPackage@@YAXXZ$0
	DD	00H
	DD	FLAT:__unwindfunclet$?SendTextToPackage@@YAXXZ$1
__unwindtable$?SendTextToFlight@@YAXXZ DD 0ffffffffH
	DD	FLAT:__unwindfunclet$?SendTextToFlight@@YAXXZ$0
	DD	00H
	DD	FLAT:__unwindfunclet$?SendTextToFlight@@YAXXZ$1
__catchsym$?UpdateLocalGameTree@@YAXXZ$5 DD 00H
	DD	FLAT:??_R0?AV_com_error@@@8
	DD	0ffffff40H
	DD	FLAT:__catch$?UpdateLocalGameTree@@YAXXZ$0
__unwindtable$?MakeLocalGameTree@@YAXPAVVuGameEntity@@@Z DD 0ffffffffH
	DD	FLAT:__unwindfunclet$?MakeLocalGameTree@@YAXPAVVuGameEntity@@@Z$0
	DD	0ffffffffH
	DD	FLAT:__unwindfunclet$?MakeLocalGameTree@@YAXPAVVuGameEntity@@@Z$1
__catchsym$?RemoveOldPeopleTreeCB@@YAXPAVTREELIST@@@Z$4 DD 00H
	DD	FLAT:??_R0?AV_com_error@@@8
	DD	0ffffff84H
	DD	FLAT:__catch$?RemoveOldPeopleTreeCB@@YAXPAVTREELIST@@@Z$0
__unwindtable$?AddGameToList@@YAPAVTREELIST@@PAVVuGameEntity@@PAV1@PAVC_TreeList@@@Z DD 0ffffffffH
	DD	FLAT:__unwindfunclet$?AddGameToList@@YAPAVTREELIST@@PAVVuGameEntity@@PAV1@PAVC_TreeList@@@Z$0
	DD	0ffffffffH
	DD	FLAT:__unwindfunclet$?AddGameToList@@YAPAVTREELIST@@PAVVuGameEntity@@PAV1@PAVC_TreeList@@@Z$1
__unwindtable$?RebuildGameTree@@YAXXZ DD 0ffffffffH
	DD	FLAT:__unwindfunclet$?RebuildGameTree@@YAXXZ$0
	DD	00H
	DD	FLAT:__unwindfunclet$?RebuildGameTree@@YAXXZ$1
__tryblocktable$?UpdateLocalGameTree@@YAXXZ DD 01H
	DD	02H
	DD	03H
	DD	01H
	DD	FLAT:__catchsym$?UpdateLocalGameTree@@YAXXZ$5
__tryblocktable$?RemoveOldPeopleTreeCB@@YAXPAVTREELIST@@@Z DD 00H
	DD	01H
	DD	02H
	DD	01H
	DD	FLAT:__catchsym$?RemoveOldPeopleTreeCB@@YAXPAVTREELIST@@@Z$4
__unwindtable$?RemoveOldPeopleTreeCB@@YAXPAVTREELIST@@@Z DD 0ffffffffH
	DD	00H
	DD	00H
	DD	FLAT:__unwindfunclet$?RemoveOldPeopleTreeCB@@YAXPAVTREELIST@@@Z$2
	DD	0ffffffffH
	DD	00H
__unwindtable$?UpdateLocalGameTree@@YAXXZ DD 0ffffffffH
	DD	FLAT:__unwindfunclet$?UpdateLocalGameTree@@YAXXZ$2
	DD	00H
	DD	00H
	DD	01H
	DD	FLAT:__unwindfunclet$?UpdateLocalGameTree@@YAXXZ$3
	DD	00H
	DD	00H
__unwindtable$?ServerChatCommand@@YAXPAD@Z DD 0ffffffffH
	DD	FLAT:__unwindfunclet$?ServerChatCommand@@YAXPAD@Z$1
	DD	0ffffffffH
	DD	FLAT:__unwindfunclet$?ServerChatCommand@@YAXPAD@Z$2
	DD	0ffffffffH
	DD	FLAT:__unwindfunclet$?ServerChatCommand@@YAXPAD@Z$3
	DD	0ffffffffH
	DD	FLAT:__unwindfunclet$?ServerChatCommand@@YAXPAD@Z$4
__ehfuncinfo$?SendTextToEveryOne@@YAXXZ DD 019930522H
	DD	02H
	DD	FLAT:__unwindtable$?SendTextToEveryOne@@YAXXZ
	DD	2 DUP(00H)
	DD	2 DUP(00H)
	DD	00H
	DD	01H
__ehfuncinfo$?SendTextToTeam@@YAXXZ DD 019930522H
	DD	02H
	DD	FLAT:__unwindtable$?SendTextToTeam@@YAXXZ
	DD	2 DUP(00H)
	DD	2 DUP(00H)
	DD	00H
	DD	01H
__ehfuncinfo$?SendTextToRange@@YAXXZ DD 019930522H
	DD	02H
	DD	FLAT:__unwindtable$?SendTextToRange@@YAXXZ
	DD	2 DUP(00H)
	DD	2 DUP(00H)
	DD	00H
	DD	01H
__ehfuncinfo$?SendTextToPackage@@YAXXZ DD 019930522H
	DD	02H
	DD	FLAT:__unwindtable$?SendTextToPackage@@YAXXZ
	DD	2 DUP(00H)
	DD	2 DUP(00H)
	DD	00H
	DD	01H
__ehfuncinfo$?SendTextToFlight@@YAXXZ DD 019930522H
	DD	02H
	DD	FLAT:__unwindtable$?SendTextToFlight@@YAXXZ
	DD	2 DUP(00H)
	DD	2 DUP(00H)
	DD	00H
	DD	01H
__ehfuncinfo$?SelectChatFilterCB@@YAXJFPAVC_Base@@@Z DD 019930522H
	DD	01H
	DD	FLAT:__unwindtable$?SelectChatFilterCB@@YAXJFPAVC_Base@@@Z
	DD	2 DUP(00H)
	DD	2 DUP(00H)
	DD	00H
	DD	01H
__ehfuncinfo$?UpdateLocalGameTree@@YAXXZ DD 019930522H
	DD	04H
	DD	FLAT:__unwindtable$?UpdateLocalGameTree@@YAXXZ
	DD	01H
	DD	FLAT:__tryblocktable$?UpdateLocalGameTree@@YAXXZ
	DD	2 DUP(00H)
	DD	00H
	DD	01H
__ehfuncinfo$?MakeLocalGameTree@@YAXPAVVuGameEntity@@@Z DD 019930522H
	DD	02H
	DD	FLAT:__unwindtable$?MakeLocalGameTree@@YAXPAVVuGameEntity@@@Z
	DD	2 DUP(00H)
	DD	2 DUP(00H)
	DD	00H
	DD	01H
__ehfuncinfo$?RemoveOldPeopleTreeCB@@YAXPAVTREELIST@@@Z DD 019930522H
	DD	03H
	DD	FLAT:__unwindtable$?RemoveOldPeopleTreeCB@@YAXPAVTREELIST@@@Z
	DD	01H
	DD	FLAT:__tryblocktable$?RemoveOldPeopleTreeCB@@YAXPAVTREELIST@@@Z
	DD	2 DUP(00H)
	DD	00H
	DD	01H
__ehfuncinfo$?UpdateGameTreeBranch@@YAXJPAVVuGameEntity@@PAVC_TreeList@@PAVTREELIST@@H@Z DD 019930522H
	DD	01H
	DD	FLAT:__unwindtable$?UpdateGameTreeBranch@@YAXJPAVVuGameEntity@@PAVC_TreeList@@PAVTREELIST@@H@Z
	DD	2 DUP(00H)
	DD	2 DUP(00H)
	DD	00H
	DD	01H
__ehfuncinfo$?CreatePlayerButton@@YAPAVTREELIST@@PAVC_TreeList@@PAVFalconSessionEntity@@@Z DD 019930522H
	DD	01H
	DD	FLAT:__unwindtable$?CreatePlayerButton@@YAPAVTREELIST@@PAVC_TreeList@@PAVFalconSessionEntity@@@Z
	DD	2 DUP(00H)
	DD	2 DUP(00H)
	DD	00H
	DD	01H
__ehfuncinfo$?AddGameToList@@YAPAVTREELIST@@PAVVuGameEntity@@PAV1@PAVC_TreeList@@@Z DD 019930522H
	DD	02H
	DD	FLAT:__unwindtable$?AddGameToList@@YAPAVTREELIST@@PAVVuGameEntity@@PAV1@PAVC_TreeList@@@Z
	DD	2 DUP(00H)
	DD	2 DUP(00H)
	DD	00H
	DD	01H
__ehfuncinfo$?TrimmerFindSession@@YAHVVU_ID@@PAVVuGameEntity@@@Z DD 019930522H
	DD	01H
	DD	FLAT:__unwindtable$?TrimmerFindSession@@YAHVVU_ID@@PAVVuGameEntity@@@Z
	DD	2 DUP(00H)
	DD	2 DUP(00H)
	DD	00H
	DD	01H
__ehfuncinfo$?SendChatStringCB@@YAXJFPAVC_Base@@@Z DD 019930522H
	DD	01H
	DD	FLAT:__unwindtable$?SendChatStringCB@@YAXJFPAVC_Base@@@Z
	DD	2 DUP(00H)
	DD	2 DUP(00H)
	DD	00H
	DD	01H
__ehfuncinfo$?ReceiveChatString@@YAXVVU_ID@@PAD@Z DD 019930522H
	DD	01H
	DD	FLAT:__unwindtable$?ReceiveChatString@@YAXVVU_ID@@PAD@Z
	DD	2 DUP(00H)
	DD	2 DUP(00H)
	DD	00H
	DD	01H
__ehfuncinfo$?AddMessageToChatWindow@@YAXVVU_ID@@PAD@Z DD 019930522H
	DD	01H
	DD	FLAT:__unwindtable$?AddMessageToChatWindow@@YAXVVU_ID@@PAD@Z
	DD	2 DUP(00H)
	DD	2 DUP(00H)
	DD	00H
	DD	01H
__ehfuncinfo$?ServerChatCommand@@YAXPAD@Z DD 019930522H
	DD	04H
	DD	FLAT:__unwindtable$?ServerChatCommand@@YAXPAD@Z
	DD	2 DUP(00H)
	DD	2 DUP(00H)
	DD	00H
	DD	01H
__ehfuncinfo$?ViewRemoteLBCB@@YAXJFPAVC_Base@@@Z DD 019930522H
	DD	01H
	DD	FLAT:__unwindtable$?ViewRemoteLBCB@@YAXJFPAVC_Base@@@Z
	DD	2 DUP(00H)
	DD	2 DUP(00H)
	DD	00H
	DD	01H
__ehfuncinfo$?RebuildGameTree@@YAXXZ DD 019930522H
	DD	02H
	DD	FLAT:__unwindtable$?RebuildGameTree@@YAXXZ
	DD	2 DUP(00H)
	DD	2 DUP(00H)
	DD	00H
	DD	01H
__ehfuncinfo$?CommsSetup@@YAXXZ DD 019930522H
	DD	01H
	DD	FLAT:__unwindtable$?CommsSetup@@YAXXZ
	DD	2 DUP(00H)
	DD	2 DUP(00H)
	DD	00H
	DD	01H
xdata$x	ENDS
;	COMDAT xdata$x
xdata$x	SEGMENT
__unwindtable$?RemovePlayer@IUplink@GNETCORELib@@QAEJV_bstr_t@@@Z DD 0ffffffffH
	DD	FLAT:__unwindfunclet$?RemovePlayer@IUplink@GNETCORELib@@QAEJV_bstr_t@@@Z$0
__ehfuncinfo$?RemovePlayer@IUplink@GNETCORELib@@QAEJV_bstr_t@@@Z DD 019930522H
	DD	01H
	DD	FLAT:__unwindtable$?RemovePlayer@IUplink@GNETCORELib@@QAEJV_bstr_t@@@Z
	DD	2 DUP(00H)
	DD	2 DUP(00H)
	DD	00H
	DD	01H
xdata$x	ENDS
;	COMDAT xdata$x
xdata$x	SEGMENT
__unwindtable$?AddPlayer@IUplink@GNETCORELib@@QAEJV_bstr_t@@@Z DD 0ffffffffH
	DD	FLAT:__unwindfunclet$?AddPlayer@IUplink@GNETCORELib@@QAEJV_bstr_t@@@Z$0
__ehfuncinfo$?AddPlayer@IUplink@GNETCORELib@@QAEJV_bstr_t@@@Z DD 019930522H
	DD	01H
	DD	FLAT:__unwindtable$?AddPlayer@IUplink@GNETCORELib@@QAEJV_bstr_t@@@Z
	DD	2 DUP(00H)
	DD	2 DUP(00H)
	DD	00H
	DD	01H
xdata$x	ENDS
;	COMDAT xdata$x
xdata$x	SEGMENT
__unwindtable$??0_bstr_t@@QAE@PBD@Z DD 0ffffffffH
	DD	FLAT:__unwindfunclet$??0_bstr_t@@QAE@PBD@Z$0
__ehfuncinfo$??0_bstr_t@@QAE@PBD@Z DD 019930522H
	DD	01H
	DD	FLAT:__unwindtable$??0_bstr_t@@QAE@PBD@Z
	DD	2 DUP(00H)
	DD	2 DUP(00H)
	DD	00H
	DD	01H
xdata$x	ENDS
;	COMDAT xdata$x
xdata$x	SEGMENT
__catchsym$?_Copy@?$basic_string@DU?$char_traits@D@std@@V?$allocator@D@2@@std@@QAEXII@Z$5 DD 040H
	DD	00H
	DD	00H
	DD	FLAT:__catch$?_Copy@?$basic_string@DU?$char_traits@D@std@@V?$allocator@D@2@@std@@QAEXII@Z$0
__catchsym$?_Copy@?$basic_string@DU?$char_traits@D@std@@V?$allocator@D@2@@std@@QAEXII@Z$4 DD 040H
	DD	00H
	DD	00H
	DD	FLAT:__catch$?_Copy@?$basic_string@DU?$char_traits@D@std@@V?$allocator@D@2@@std@@QAEXII@Z$1
__unwindtable$?_Copy@?$basic_string@DU?$char_traits@D@std@@V?$allocator@D@2@@std@@QAEXII@Z DD 0ffffffffH
	DD	00H
	DD	0ffffffffH
	DD	00H
	DD	01H
	DD	00H
	DD	01H
	DD	00H
__ehfuncinfo$?_Copy@?$basic_string@DU?$char_traits@D@std@@V?$allocator@D@2@@std@@QAEXII@Z DD 019930522H
	DD	04H
	DD	FLAT:__unwindtable$?_Copy@?$basic_string@DU?$char_traits@D@std@@V?$allocator@D@2@@std@@QAEXII@Z
	DD	02H
	DD	FLAT:__tryblocktable$?_Copy@?$basic_string@DU?$char_traits@D@std@@V?$allocator@D@2@@std@@QAEXII@Z
	DD	2 DUP(00H)
	DD	00H
	DD	01H
__tryblocktable$?_Copy@?$basic_string@DU?$char_traits@D@std@@V?$allocator@D@2@@std@@QAEXII@Z DD 02H
	DD	02H
	DD	03H
	DD	01H
	DD	FLAT:__catchsym$?_Copy@?$basic_string@DU?$char_traits@D@std@@V?$allocator@D@2@@std@@QAEXII@Z$4
	DD	00H
	DD	00H
	DD	03H
	DD	01H
	DD	FLAT:__catchsym$?_Copy@?$basic_string@DU?$char_traits@D@std@@V?$allocator@D@2@@std@@QAEXII@Z$5
xdata$x	ENDS
CRT$XCU	SEGMENT
_allocator_arg$initializer$ DD FLAT:??__Eallocator_arg@std@@YAXXZ
CRT$XCU	ENDS
CRT$XCU	SEGMENT
_SearchID$initializer$ DD FLAT:??__ESearchID@@YAXXZ
CRT$XCU	ENDS
;	COMDAT CRT$XCU
CRT$XCU	SEGMENT
?_Generic_object$initializer$@?$_Error_objects@H@std@@2P6AXXZA DD FLAT:??__E?_Generic_object@?$_Error_objects@H@std@@2V_Generic_error_category@2@A@@YAXXZ ; std::_Error_objects<int>::_Generic_object$initializer$
CRT$XCU	ENDS
;	COMDAT CRT$XCU
CRT$XCU	SEGMENT
?_Iostream_object$initializer$@?$_Error_objects@H@std@@2P6AXXZA DD FLAT:??__E?_Iostream_object@?$_Error_objects@H@std@@2V_Iostream_error_category@2@A@@YAXXZ ; std::_Error_objects<int>::_Iostream_object$initializer$
CRT$XCU	ENDS
;	COMDAT CRT$XCU
CRT$XCU	SEGMENT
?_System_object$initializer$@?$_Error_objects@H@std@@2P6AXXZA DD FLAT:??__E?_System_object@?$_Error_objects@H@std@@2V_System_error_category@2@A@@YAXXZ ; std::_Error_objects<int>::_System_object$initializer$
CRT$XCU	ENDS
;	COMDAT CRT$XCU
CRT$XCU	SEGMENT
?id$initializer$@?$num_put@DV?$back_insert_iterator@V?$basic_string@DU?$char_traits@D@std@@V?$allocator@D@2@@std@@@std@@@std@@2P6AXXZA DD FLAT:??__E?id@?$num_put@DV?$back_insert_iterator@V?$basic_string@DU?$char_traits@D@std@@V?$allocator@D@2@@std@@@std@@@std@@2V0locale@2@A@@YAXXZ ; std::num_put<char,std::back_insert_iterator<std::basic_string<char,std::char_traits<char>,std::allocator<char> > > >::id$initializer$
CRT$XCU	ENDS
;	COMDAT CRT$XCU
CRT$XCU	SEGMENT
?id$initializer$@?$num_put@_WV?$back_insert_iterator@V?$basic_string@_WU?$char_traits@_W@std@@V?$allocator@_W@2@@std@@@std@@@std@@2P6AXXZA DD FLAT:??__E?id@?$num_put@_WV?$back_insert_iterator@V?$basic_string@_WU?$char_traits@_W@std@@V?$allocator@_W@2@@std@@@std@@@std@@2V0locale@2@A@@YAXXZ ; std::num_put<wchar_t,std::back_insert_iterator<std::basic_string<wchar_t,std::char_traits<wchar_t>,std::allocator<wchar_t> > > >::id$initializer$
CRT$XCU	ENDS
;	COMDAT CRT$XCU
CRT$XCU	SEGMENT
?id$initializer$@?$numpunct@D@std@@2P6AXXZA DD FLAT:??__E?id@?$numpunct@D@std@@2V0locale@2@A@@YAXXZ ; std::numpunct<char>::id$initializer$
CRT$XCU	ENDS
;	COMDAT CRT$XCU
CRT$XCU	SEGMENT
?id$initializer$@?$numpunct@_W@std@@2P6AXXZA DD FLAT:??__E?id@?$numpunct@_W@std@@2V0locale@2@A@@YAXXZ ; std::numpunct<wchar_t>::id$initializer$
CRT$XCU	ENDS
; Function compile flags: /Odtp
; File c:\program files (x86)\microsoft visual studio 11.0\vc\include\xmemory0
;	COMDAT ??$destroy@PAD@?$allocator@D@std@@QAEXPAPAD@Z
_TEXT	SEGMENT
_this$ = -4						; size = 4
__Ptr$ = 8						; size = 4
??$destroy@PAD@?$allocator@D@std@@QAEXPAPAD@Z PROC	; std::allocator<char>::destroy<char *>, COMDAT
; _this$ = ecx

; 621  : 		void destroy(_Uty *_Ptr)

	push	ebp
	mov	ebp, esp
	push	ecx
	mov	DWORD PTR _this$[ebp], ecx

; 622  : 		{	// destroy object at _Ptr
; 623  : 		_Ptr->~_Uty();
; 624  : 		}

	mov	esp, ebp
	pop	ebp
	ret	4
??$destroy@PAD@?$allocator@D@std@@QAEXPAPAD@Z ENDP	; std::allocator<char>::destroy<char *>
_TEXT	ENDS
; Function compile flags: /Odtp
; File c:\program files (x86)\microsoft visual studio 11.0\vc\include\xmemory0
;	COMDAT ??$construct@PADAAPAD@?$allocator@D@std@@QAEXPAPADAAPAD@Z
_TEXT	SEGMENT
$T2 = -28						; size = 4
_this$ = -24						; size = 4
tv73 = -20						; size = 4
$T3 = -16						; size = 4
__$EHRec$ = -12						; size = 12
__Ptr$ = 8						; size = 4
__V0$ = 12						; size = 4
??$construct@PADAAPAD@?$allocator@D@std@@QAEXPAPADAAPAD@Z PROC ; std::allocator<char>::construct<char *,char * &>, COMDAT
; _this$ = ecx

; 617  : _VARIADIC_EXPAND_0X(_ALLOC_MEMBER_CONSTRUCT, , , , )

	push	ebp
	mov	ebp, esp
	push	-1
	push	__ehhandler$??$construct@PADAAPAD@?$allocator@D@std@@QAEXPAPADAAPAD@Z
	mov	eax, DWORD PTR fs:0
	push	eax
	sub	esp, 16					; 00000010H
	mov	eax, DWORD PTR ___security_cookie
	xor	eax, ebp
	push	eax
	lea	eax, DWORD PTR __$EHRec$[ebp]
	mov	DWORD PTR fs:0, eax
	mov	DWORD PTR _this$[ebp], ecx
	mov	eax, DWORD PTR __Ptr$[ebp]
	push	eax
	push	4
	call	??2@YAPAXIPAX@Z				; operator new
	add	esp, 8
	mov	DWORD PTR $T3[ebp], eax
	mov	DWORD PTR __$EHRec$[ebp+8], 0
	cmp	DWORD PTR $T3[ebp], 0
	je	SHORT $LN3@construct
	mov	ecx, DWORD PTR __V0$[ebp]
	push	ecx
	call	??$forward@AAPAD@std@@YAAAPADAAPAD@Z	; std::forward<char * &>
	add	esp, 4
	mov	edx, DWORD PTR $T3[ebp]
	mov	eax, DWORD PTR [eax]
	mov	DWORD PTR [edx], eax
	mov	ecx, DWORD PTR $T3[ebp]
	mov	DWORD PTR tv73[ebp], ecx
	jmp	SHORT $LN4@construct
$LN3@construct:
	mov	DWORD PTR tv73[ebp], 0
$LN4@construct:
	mov	edx, DWORD PTR tv73[ebp]
	mov	DWORD PTR $T2[ebp], edx
	mov	DWORD PTR __$EHRec$[ebp+8], -1
	mov	ecx, DWORD PTR __$EHRec$[ebp]
	mov	DWORD PTR fs:0, ecx
	pop	ecx
	mov	esp, ebp
	pop	ebp
	ret	8
_TEXT	ENDS
;	COMDAT text$x
text$x	SEGMENT
__unwindfunclet$??$construct@PADAAPAD@?$allocator@D@std@@QAEXPAPADAAPAD@Z$0:
	mov	eax, DWORD PTR __Ptr$[ebp]
	push	eax
	mov	eax, DWORD PTR $T3[ebp]
	push	eax
	call	??3@YAXPAX0@Z				; operator delete
	add	esp, 8
	ret	0
__ehhandler$??$construct@PADAAPAD@?$allocator@D@std@@QAEXPAPADAAPAD@Z:
	mov	edx, DWORD PTR [esp+8]
	lea	eax, DWORD PTR [edx+12]
	mov	ecx, DWORD PTR [edx-20]
	xor	ecx, eax
	call	@__security_check_cookie@4
	mov	eax, OFFSET __ehfuncinfo$??$construct@PADAAPAD@?$allocator@D@std@@QAEXPAPADAAPAD@Z
	jmp	___CxxFrameHandler3
text$x	ENDS
??$construct@PADAAPAD@?$allocator@D@std@@QAEXPAPADAAPAD@Z ENDP ; std::allocator<char>::construct<char *,char * &>
; Function compile flags: /Odtp
; File c:\program files (x86)\microsoft visual studio 11.0\vc\include\xlocnum
;	COMDAT ??__E?id@?$numpunct@_W@std@@2V0locale@2@A@@YAXXZ
text$yc	SEGMENT
??__E?id@?$numpunct@_W@std@@2V0locale@2@A@@YAXXZ PROC	; `dynamic initializer for 'std::numpunct<wchar_t>::id'', COMDAT

; 155  : 		void _Getvals(wchar_t, const lconv *_Ptr, _Locinfo::_Cvtvec)

	push	ebp
	mov	ebp, esp
	push	0
	mov	ecx, OFFSET ?id@?$numpunct@_W@std@@2V0locale@2@A ; std::numpunct<wchar_t>::id
	call	??0id@locale@std@@QAE@I@Z		; std::locale::id::id
	pop	ebp
	ret	0
??__E?id@?$numpunct@_W@std@@2V0locale@2@A@@YAXXZ ENDP	; `dynamic initializer for 'std::numpunct<wchar_t>::id''
text$yc	ENDS
; Function compile flags: /Odtp
; File c:\program files (x86)\microsoft visual studio 11.0\vc\include\xlocnum
;	COMDAT ??__E?id@?$numpunct@D@std@@2V0locale@2@A@@YAXXZ
text$yc	SEGMENT
??__E?id@?$numpunct@D@std@@2V0locale@2@A@@YAXXZ PROC	; `dynamic initializer for 'std::numpunct<char>::id'', COMDAT

; 155  : 		void _Getvals(wchar_t, const lconv *_Ptr, _Locinfo::_Cvtvec)

	push	ebp
	mov	ebp, esp
	push	0
	mov	ecx, OFFSET ?id@?$numpunct@D@std@@2V0locale@2@A ; std::numpunct<char>::id
	call	??0id@locale@std@@QAE@I@Z		; std::locale::id::id
	pop	ebp
	ret	0
??__E?id@?$numpunct@D@std@@2V0locale@2@A@@YAXXZ ENDP	; `dynamic initializer for 'std::numpunct<char>::id''
text$yc	ENDS
; Function compile flags: /Odtp
; File c:\program files (x86)\microsoft visual studio 11.0\vc\include\xlocnum
;	COMDAT ??__E?id@?$num_put@_WV?$back_insert_iterator@V?$basic_string@_WU?$char_traits@_W@std@@V?$allocator@_W@2@@std@@@std@@@std@@2V0locale@2@A@@YAXXZ
text$yc	SEGMENT
??__E?id@?$num_put@_WV?$back_insert_iterator@V?$basic_string@_WU?$char_traits@_W@std@@V?$allocator@_W@2@@std@@@std@@@std@@2V0locale@2@A@@YAXXZ PROC ; `dynamic initializer for 'std::num_put<wchar_t,std::back_insert_iterator<std::basic_string<wchar_t,std::char_traits<wchar_t>,std::allocator<wchar_t> > > >::id'', COMDAT

; 155  : 		void _Getvals(wchar_t, const lconv *_Ptr, _Locinfo::_Cvtvec)

	push	ebp
	mov	ebp, esp
	push	0
	mov	ecx, OFFSET ?id@?$num_put@_WV?$back_insert_iterator@V?$basic_string@_WU?$char_traits@_W@std@@V?$allocator@_W@2@@std@@@std@@@std@@2V0locale@2@A ; std::num_put<wchar_t,std::back_insert_iterator<std::basic_string<wchar_t,std::char_traits<wchar_t>,std::allocator<wchar_t> > > >::id
	call	??0id@locale@std@@QAE@I@Z		; std::locale::id::id
	pop	ebp
	ret	0
??__E?id@?$num_put@_WV?$back_insert_iterator@V?$basic_string@_WU?$char_traits@_W@std@@V?$allocator@_W@2@@std@@@std@@@std@@2V0locale@2@A@@YAXXZ ENDP ; `dynamic initializer for 'std::num_put<wchar_t,std::back_insert_iterator<std::basic_string<wchar_t,std::char_traits<wchar_t>,std::allocator<wchar_t> > > >::id''
text$yc	ENDS
; Function compile flags: /Odtp
; File c:\program files (x86)\microsoft visual studio 11.0\vc\include\xlocnum
;	COMDAT ??__E?id@?$num_put@DV?$back_insert_iterator@V?$basic_string@DU?$char_traits@D@std@@V?$allocator@D@2@@std@@@std@@@std@@2V0locale@2@A@@YAXXZ
text$yc	SEGMENT
??__E?id@?$num_put@DV?$back_insert_iterator@V?$basic_string@DU?$char_traits@D@std@@V?$allocator@D@2@@std@@@std@@@std@@2V0locale@2@A@@YAXXZ PROC ; `dynamic initializer for 'std::num_put<char,std::back_insert_iterator<std::basic_string<char,std::char_traits<char>,std::allocator<char> > > >::id'', COMDAT

; 155  : 		void _Getvals(wchar_t, const lconv *_Ptr, _Locinfo::_Cvtvec)

	push	ebp
	mov	ebp, esp
	push	0
	mov	ecx, OFFSET ?id@?$num_put@DV?$back_insert_iterator@V?$basic_string@DU?$char_traits@D@std@@V?$allocator@D@2@@std@@@std@@@std@@2V0locale@2@A ; std::num_put<char,std::back_insert_iterator<std::basic_string<char,std::char_traits<char>,std::allocator<char> > > >::id
	call	??0id@locale@std@@QAE@I@Z		; std::locale::id::id
	pop	ebp
	ret	0
??__E?id@?$num_put@DV?$back_insert_iterator@V?$basic_string@DU?$char_traits@D@std@@V?$allocator@D@2@@std@@@std@@@std@@2V0locale@2@A@@YAXXZ ENDP ; `dynamic initializer for 'std::num_put<char,std::back_insert_iterator<std::basic_string<char,std::char_traits<char>,std::allocator<char> > > >::id''
text$yc	ENDS
; Function compile flags: /Odtp
; File c:\program files (x86)\microsoft visual studio 11.0\vc\include\xmemory0
;	COMDAT ??$destroy@PAD@?$allocator_traits@V?$allocator@D@std@@@std@@SAXAAV?$allocator@D@1@PAPAD@Z
_TEXT	SEGMENT
__Al$ = 8						; size = 4
__Ptr$ = 12						; size = 4
??$destroy@PAD@?$allocator_traits@V?$allocator@D@std@@@std@@SAXAAV?$allocator@D@1@PAPAD@Z PROC ; std::allocator_traits<std::allocator<char> >::destroy<char *>, COMDAT

; 755  : 		static void destroy(_Alloc& _Al, _Uty *_Ptr)

	push	ebp
	mov	ebp, esp

; 756  : 		{	// destroy object at _Ptr
; 757  : 		_Al.destroy(_Ptr);

	mov	eax, DWORD PTR __Ptr$[ebp]
	push	eax
	mov	ecx, DWORD PTR __Al$[ebp]
	call	??$destroy@PAD@?$allocator@D@std@@QAEXPAPAD@Z ; std::allocator<char>::destroy<char *>

; 758  : 		}

	pop	ebp
	ret	0
??$destroy@PAD@?$allocator_traits@V?$allocator@D@std@@@std@@SAXAAV?$allocator@D@1@PAPAD@Z ENDP ; std::allocator_traits<std::allocator<char> >::destroy<char *>
_TEXT	ENDS
; Function compile flags: /Odtp
; File c:\program files (x86)\microsoft visual studio 11.0\vc\include\xmemory0
;	COMDAT ??$construct@PADAAPAD@?$allocator_traits@V?$allocator@D@std@@@std@@SAXAAV?$allocator@D@1@PAPADAAPAD@Z
_TEXT	SEGMENT
__Al$ = 8						; size = 4
__Ptr$ = 12						; size = 4
__V0$ = 16						; size = 4
??$construct@PADAAPAD@?$allocator_traits@V?$allocator@D@std@@@std@@SAXAAV?$allocator@D@1@PAPADAAPAD@Z PROC ; std::allocator_traits<std::allocator<char> >::construct<char *,char * &>, COMDAT

; 751  : _VARIADIC_EXPAND_0X(_ALLOC_TRAITS_SPECIAL_CONSTRUCT, , , , )

	push	ebp
	mov	ebp, esp
	mov	eax, DWORD PTR __V0$[ebp]
	push	eax
	call	??$forward@AAPAD@std@@YAAAPADAAPAD@Z	; std::forward<char * &>
	add	esp, 4
	push	eax
	mov	ecx, DWORD PTR __Ptr$[ebp]
	push	ecx
	mov	ecx, DWORD PTR __Al$[ebp]
	call	??$construct@PADAAPAD@?$allocator@D@std@@QAEXPAPADAAPAD@Z ; std::allocator<char>::construct<char *,char * &>
	pop	ebp
	ret	0
??$construct@PADAAPAD@?$allocator_traits@V?$allocator@D@std@@@std@@SAXAAV?$allocator@D@1@PAPADAAPAD@Z ENDP ; std::allocator_traits<std::allocator<char> >::construct<char *,char * &>
_TEXT	ENDS
; Function compile flags: /Odtp
; File c:\program files (x86)\microsoft visual studio 11.0\vc\include\type_traits
;	COMDAT ??$forward@AAPAD@std@@YAAAPADAAPAD@Z
_TEXT	SEGMENT
__Arg$ = 8						; size = 4
??$forward@AAPAD@std@@YAAAPADAAPAD@Z PROC		; std::forward<char * &>, COMDAT

; 1775 : 	{	// forward an lvalue

	push	ebp
	mov	ebp, esp

; 1776 : 	return (static_cast<_Ty&&>(_Arg));

	mov	eax, DWORD PTR __Arg$[ebp]

; 1777 : 	}

	pop	ebp
	ret	0
??$forward@AAPAD@std@@YAAAPADAAPAD@Z ENDP		; std::forward<char * &>
_TEXT	ENDS
; Function compile flags: /Odtp
;	COMDAT ??__F?_System_object@?$_Error_objects@H@std@@2V_System_error_category@2@A@@YAXXZ
text$yd	SEGMENT
??__F?_System_object@?$_Error_objects@H@std@@2V_System_error_category@2@A@@YAXXZ PROC ; `dynamic atexit destructor for 'std::_Error_objects<int>::_System_object'', COMDAT
	push	ebp
	mov	ebp, esp
	mov	ecx, OFFSET ?_System_object@?$_Error_objects@H@std@@2V_System_error_category@2@A ; std::_Error_objects<int>::_System_object
	call	??1_System_error_category@std@@UAE@XZ
	pop	ebp
	ret	0
??__F?_System_object@?$_Error_objects@H@std@@2V_System_error_category@2@A@@YAXXZ ENDP ; `dynamic atexit destructor for 'std::_Error_objects<int>::_System_object''
text$yd	ENDS
; Function compile flags: /Odtp
; File c:\program files (x86)\microsoft visual studio 11.0\vc\include\xmemory0
;	COMDAT ??__E?_System_object@?$_Error_objects@H@std@@2V_System_error_category@2@A@@YAXXZ
text$yc	SEGMENT
??__E?_System_object@?$_Error_objects@H@std@@2V_System_error_category@2@A@@YAXXZ PROC ; `dynamic initializer for 'std::_Error_objects<int>::_System_object'', COMDAT

; 627  : 		{	// estimate maximum array size

	push	ebp
	mov	ebp, esp
	mov	ecx, OFFSET ?_System_object@?$_Error_objects@H@std@@2V_System_error_category@2@A ; std::_Error_objects<int>::_System_object
	call	??0_System_error_category@std@@QAE@XZ	; std::_System_error_category::_System_error_category
	push	OFFSET ??__F?_System_object@?$_Error_objects@H@std@@2V_System_error_category@2@A@@YAXXZ ; `dynamic atexit destructor for 'std::_Error_objects<int>::_System_object''
	call	_atexit
	add	esp, 4
	pop	ebp
	ret	0
??__E?_System_object@?$_Error_objects@H@std@@2V_System_error_category@2@A@@YAXXZ ENDP ; `dynamic initializer for 'std::_Error_objects<int>::_System_object''
text$yc	ENDS
; Function compile flags: /Odtp
;	COMDAT ??__F?_Iostream_object@?$_Error_objects@H@std@@2V_Iostream_error_category@2@A@@YAXXZ
text$yd	SEGMENT
??__F?_Iostream_object@?$_Error_objects@H@std@@2V_Iostream_error_category@2@A@@YAXXZ PROC ; `dynamic atexit destructor for 'std::_Error_objects<int>::_Iostream_object'', COMDAT
	push	ebp
	mov	ebp, esp
	mov	ecx, OFFSET ?_Iostream_object@?$_Error_objects@H@std@@2V_Iostream_error_category@2@A ; std::_Error_objects<int>::_Iostream_object
	call	??1_Iostream_error_category@std@@UAE@XZ
	pop	ebp
	ret	0
??__F?_Iostream_object@?$_Error_objects@H@std@@2V_Iostream_error_category@2@A@@YAXXZ ENDP ; `dynamic atexit destructor for 'std::_Error_objects<int>::_Iostream_object''
text$yd	ENDS
; Function compile flags: /Odtp
; File c:\program files (x86)\microsoft visual studio 11.0\vc\include\xmemory0
;	COMDAT ??__E?_Iostream_object@?$_Error_objects@H@std@@2V_Iostream_error_category@2@A@@YAXXZ
text$yc	SEGMENT
??__E?_Iostream_object@?$_Error_objects@H@std@@2V_Iostream_error_category@2@A@@YAXXZ PROC ; `dynamic initializer for 'std::_Error_objects<int>::_Iostream_object'', COMDAT

; 627  : 		{	// estimate maximum array size

	push	ebp
	mov	ebp, esp
	mov	ecx, OFFSET ?_Iostream_object@?$_Error_objects@H@std@@2V_Iostream_error_category@2@A ; std::_Error_objects<int>::_Iostream_object
	call	??0_Iostream_error_category@std@@QAE@XZ	; std::_Iostream_error_category::_Iostream_error_category
	push	OFFSET ??__F?_Iostream_object@?$_Error_objects@H@std@@2V_Iostream_error_category@2@A@@YAXXZ ; `dynamic atexit destructor for 'std::_Error_objects<int>::_Iostream_object''
	call	_atexit
	add	esp, 4
	pop	ebp
	ret	0
??__E?_Iostream_object@?$_Error_objects@H@std@@2V_Iostream_error_category@2@A@@YAXXZ ENDP ; `dynamic initializer for 'std::_Error_objects<int>::_Iostream_object''
text$yc	ENDS
; Function compile flags: /Odtp
;	COMDAT ??__F?_Generic_object@?$_Error_objects@H@std@@2V_Generic_error_category@2@A@@YAXXZ
text$yd	SEGMENT
??__F?_Generic_object@?$_Error_objects@H@std@@2V_Generic_error_category@2@A@@YAXXZ PROC ; `dynamic atexit destructor for 'std::_Error_objects<int>::_Generic_object'', COMDAT
	push	ebp
	mov	ebp, esp
	mov	ecx, OFFSET ?_Generic_object@?$_Error_objects@H@std@@2V_Generic_error_category@2@A ; std::_Error_objects<int>::_Generic_object
	call	??1_Generic_error_category@std@@UAE@XZ
	pop	ebp
	ret	0
??__F?_Generic_object@?$_Error_objects@H@std@@2V_Generic_error_category@2@A@@YAXXZ ENDP ; `dynamic atexit destructor for 'std::_Error_objects<int>::_Generic_object''
text$yd	ENDS
; Function compile flags: /Odtp
; File c:\program files (x86)\microsoft visual studio 11.0\vc\include\xmemory0
;	COMDAT ??__E?_Generic_object@?$_Error_objects@H@std@@2V_Generic_error_category@2@A@@YAXXZ
text$yc	SEGMENT
??__E?_Generic_object@?$_Error_objects@H@std@@2V_Generic_error_category@2@A@@YAXXZ PROC ; `dynamic initializer for 'std::_Error_objects<int>::_Generic_object'', COMDAT

; 627  : 		{	// estimate maximum array size

	push	ebp
	mov	ebp, esp
	mov	ecx, OFFSET ?_Generic_object@?$_Error_objects@H@std@@2V_Generic_error_category@2@A ; std::_Error_objects<int>::_Generic_object
	call	??0_Generic_error_category@std@@QAE@XZ	; std::_Generic_error_category::_Generic_error_category
	push	OFFSET ??__F?_Generic_object@?$_Error_objects@H@std@@2V_Generic_error_category@2@A@@YAXXZ ; `dynamic atexit destructor for 'std::_Error_objects<int>::_Generic_object''
	call	_atexit
	add	esp, 4
	pop	ebp
	ret	0
??__E?_Generic_object@?$_Error_objects@H@std@@2V_Generic_error_category@2@A@@YAXXZ ENDP ; `dynamic initializer for 'std::_Error_objects<int>::_Generic_object''
text$yc	ENDS
; Function compile flags: /Odtp
; File c:\program files (x86)\microsoft visual studio 11.0\vc\include\xmemory0
;	COMDAT ??$_Allocate@D@std@@YAPADIPAD@Z
_TEXT	SEGMENT
__Ptr$ = -4						; size = 4
__Count$ = 8						; size = 4
___formal$ = 12						; size = 4
??$_Allocate@D@std@@YAPADIPAD@Z PROC			; std::_Allocate<char>, COMDAT

; 22   : 	{	// allocate storage for _Count elements of type _Ty

	push	ebp
	mov	ebp, esp
	push	ecx

; 23   : 	void *_Ptr = 0;

	mov	DWORD PTR __Ptr$[ebp], 0

; 24   : 
; 25   : 	if (_Count == 0)

	cmp	DWORD PTR __Count$[ebp], 0
	jne	SHORT $LN4@Allocate

; 26   : 		;
; 27   : 	else if (((size_t)(-1) / sizeof (_Ty) < _Count)

	jmp	SHORT $LN3@Allocate
$LN4@Allocate:

; 28   : 		|| (_Ptr = ::operator new(_Count * sizeof (_Ty))) == 0)

	cmp	DWORD PTR __Count$[ebp], -1
	ja	SHORT $LN1@Allocate
	mov	eax, DWORD PTR __Count$[ebp]
	push	eax
	call	??2@YAPAXI@Z				; operator new
	add	esp, 4
	mov	DWORD PTR __Ptr$[ebp], eax
	cmp	DWORD PTR __Ptr$[ebp], 0
	jne	SHORT $LN3@Allocate
$LN1@Allocate:

; 29   : 		_Xbad_alloc();	// report no memory

	call	?_Xbad_alloc@std@@YAXXZ			; std::_Xbad_alloc
$LN3@Allocate:

; 30   : 
; 31   : 	return ((_Ty *)_Ptr);

	mov	eax, DWORD PTR __Ptr$[ebp]
$LN6@Allocate:

; 32   : 	}

	mov	esp, ebp
	pop	ebp
	ret	0
??$_Allocate@D@std@@YAPADIPAD@Z ENDP			; std::_Allocate<char>
_TEXT	ENDS
; Function compile flags: /Odtp
; File c:\program files (x86)\microsoft visual studio 11.0\vc\include\xstddef
;	COMDAT ??$addressof@D@std@@YAPADAAD@Z
_TEXT	SEGMENT
__Val$ = 8						; size = 4
??$addressof@D@std@@YAPADAAD@Z PROC			; std::addressof<char>, COMDAT

; 85   : 	{	// return address of _Val

	push	ebp
	mov	ebp, esp

; 86   : 	return (reinterpret_cast<_Ty *>(
; 87   : 		(&const_cast<char&>(
; 88   : 		reinterpret_cast<const volatile char&>(_Val)))));

	mov	eax, DWORD PTR __Val$[ebp]

; 89   : 	}

	pop	ebp
	ret	0
??$addressof@D@std@@YAPADAAD@Z ENDP			; std::addressof<char>
_TEXT	ENDS
; Function compile flags: /Odtp
; File c:\program files (x86)\microsoft visual studio 11.0\vc\include\xmemory0
;	COMDAT ??$destroy@PAD@?$_Wrap_alloc@V?$allocator@D@std@@@std@@QAEXPAPAD@Z
_TEXT	SEGMENT
_this$ = -4						; size = 4
__Ptr$ = 8						; size = 4
??$destroy@PAD@?$_Wrap_alloc@V?$allocator@D@std@@@std@@QAEXPAPAD@Z PROC ; std::_Wrap_alloc<std::allocator<char> >::destroy<char *>, COMDAT
; _this$ = ecx

; 907  : 		void destroy(_Ty *_Ptr)

	push	ebp
	mov	ebp, esp
	push	ecx
	mov	DWORD PTR _this$[ebp], ecx

; 908  : 		{	// destroy object at _Ptr
; 909  : 		_Mytraits::destroy(*this, _Ptr);

	mov	eax, DWORD PTR __Ptr$[ebp]
	push	eax
	mov	ecx, DWORD PTR _this$[ebp]
	push	ecx
	call	??$destroy@PAD@?$allocator_traits@V?$allocator@D@std@@@std@@SAXAAV?$allocator@D@1@PAPAD@Z ; std::allocator_traits<std::allocator<char> >::destroy<char *>
	add	esp, 8

; 910  : 		}

	mov	esp, ebp
	pop	ebp
	ret	4
??$destroy@PAD@?$_Wrap_alloc@V?$allocator@D@std@@@std@@QAEXPAPAD@Z ENDP ; std::_Wrap_alloc<std::allocator<char> >::destroy<char *>
_TEXT	ENDS
; Function compile flags: /Odtp
; File c:\program files (x86)\microsoft visual studio 11.0\vc\include\xmemory0
;	COMDAT ??$construct@PADAAPAD@?$_Wrap_alloc@V?$allocator@D@std@@@std@@QAEXPAPADAAPAD@Z
_TEXT	SEGMENT
_this$ = -4						; size = 4
__Ptr$ = 8						; size = 4
__V0$ = 12						; size = 4
??$construct@PADAAPAD@?$_Wrap_alloc@V?$allocator@D@std@@@std@@QAEXPAPADAAPAD@Z PROC ; std::_Wrap_alloc<std::allocator<char> >::construct<char *,char * &>, COMDAT
; _this$ = ecx

; 903  : _VARIADIC_EXPAND_0X(_WRAP_ALLOC_CONSTRUCT, , , , )

	push	ebp
	mov	ebp, esp
	push	ecx
	mov	DWORD PTR _this$[ebp], ecx
	mov	eax, DWORD PTR __V0$[ebp]
	push	eax
	call	??$forward@AAPAD@std@@YAAAPADAAPAD@Z	; std::forward<char * &>
	add	esp, 4
	push	eax
	mov	ecx, DWORD PTR __Ptr$[ebp]
	push	ecx
	mov	edx, DWORD PTR _this$[ebp]
	push	edx
	call	??$construct@PADAAPAD@?$allocator_traits@V?$allocator@D@std@@@std@@SAXAAV?$allocator@D@1@PAPADAAPAD@Z ; std::allocator_traits<std::allocator<char> >::construct<char *,char * &>
	add	esp, 12					; 0000000cH
	mov	esp, ebp
	pop	ebp
	ret	8
??$construct@PADAAPAD@?$_Wrap_alloc@V?$allocator@D@std@@@std@@QAEXPAPADAAPAD@Z ENDP ; std::_Wrap_alloc<std::allocator<char> >::construct<char *,char * &>
_TEXT	ENDS
; Function compile flags: /Odtp
; File c:\users\zhitao li\documents\visual studio 2012\projects\freefalcon\ui\src\comms\ui_comms.cpp
_TEXT	SEGMENT
_curChannel$ = -12					; size = 4
_curRadio$ = -8						; size = 4
tv70 = -4						; size = 4
?SendTextMessageToChannel@@YAXXZ PROC			; SendTextMessageToChannel

; 2242 : {

	push	ebp
	mov	ebp, esp
	sub	esp, 12					; 0000000cH

; 2243 : 	int curChannel,curRadio;
; 2244 : 
; 2245 : 	if(VM)

	cmp	DWORD PTR ?VM@@3PAVVoiceManager@@A, 0	; VM
	je	SHORT $LN11@SendTextMe

; 2246 : 	{
; 2247 : 		curRadio=VM->Radio();

	mov	ecx, DWORD PTR ?VM@@3PAVVoiceManager@@A	; VM
	call	?Radio@VoiceManager@@QAEHXZ		; VoiceManager::Radio
	mov	DWORD PTR _curRadio$[ebp], eax

; 2248 : 		curChannel=VM->GetRadioFreq(curRadio);

	mov	eax, DWORD PTR _curRadio$[ebp]
	push	eax
	mov	ecx, DWORD PTR ?VM@@3PAVVoiceManager@@A	; VM
	call	?GetRadioFreq@VoiceManager@@QAEHH@Z	; VoiceManager::GetRadioFreq
	mov	DWORD PTR _curChannel$[ebp], eax

; 2249 : 
; 2250 : 		switch(curChannel)

	mov	ecx, DWORD PTR _curChannel$[ebp]
	mov	DWORD PTR tv70[ebp], ecx
	mov	edx, DWORD PTR tv70[ebp]
	sub	edx, 1
	mov	DWORD PTR tv70[ebp], edx
	cmp	DWORD PTR tv70[ebp], 13			; 0000000dH
	ja	SHORT $LN11@SendTextMe
	mov	eax, DWORD PTR tv70[ebp]
	movzx	ecx, BYTE PTR $LN13@SendTextMe[eax]
	jmp	DWORD PTR $LN14@SendTextMe[ecx*4]

; 2251 : 		{
; 2252 : 			case rcfOff:
; 2253 : 				break;

	jmp	SHORT $LN11@SendTextMe
$LN6@SendTextMe:

; 2254 : 			case rcfFlight1:
; 2255 : 			case rcfFlight2:
; 2256 : 			case rcfFlight3:
; 2257 : 			case rcfFlight4:
; 2258 : 			case rcfFlight5:
; 2259 : 				SendTextToFlight();

	call	?SendTextToFlight@@YAXXZ		; SendTextToFlight

; 2260 : 				break;

	jmp	SHORT $LN11@SendTextMe
$LN5@SendTextMe:

; 2261 : 			case rcfPackage1:
; 2262 : 			case rcfPackage2:
; 2263 : 			case rcfPackage3:
; 2264 : 			case rcfPackage4:
; 2265 : 			case rcfPackage5:
; 2266 : 			
; 2267 : 				SendTextToPackage();

	call	?SendTextToPackage@@YAXXZ		; SendTextToPackage

; 2268 : 				break;

	jmp	SHORT $LN11@SendTextMe
$LN4@SendTextMe:

; 2269 : 			case rcfFromPackage:
; 2270 : 				SendTextToPackage();

	call	?SendTextToPackage@@YAXXZ		; SendTextToPackage

; 2271 : 				break;

	jmp	SHORT $LN11@SendTextMe
$LN3@SendTextMe:

; 2272 : 			case rcfProx: // 40nm range
; 2273 : 				SendTextToRange();

	call	?SendTextToRange@@YAXXZ			; SendTextToRange

; 2274 : 				break;

	jmp	SHORT $LN11@SendTextMe
$LN2@SendTextMe:

; 2275 : 			case rcfTeam:
; 2276 : 				SendTextToTeam();

	call	?SendTextToTeam@@YAXXZ			; SendTextToTeam

; 2277 : 				break;

	jmp	SHORT $LN11@SendTextMe
$LN1@SendTextMe:

; 2278 : 			case rcfAll:
; 2279 : 				SendTextToEveryOne();

	call	?SendTextToEveryOne@@YAXXZ		; SendTextToEveryOne
$LN11@SendTextMe:

; 2280 : 				break;
; 2281 : 		}
; 2282 : 	}
; 2283 : }

	mov	esp, ebp
	pop	ebp
	ret	0
	npad	1
$LN14@SendTextMe:
	DD	$LN6@SendTextMe
	DD	$LN5@SendTextMe
	DD	$LN4@SendTextMe
	DD	$LN3@SendTextMe
	DD	$LN2@SendTextMe
	DD	$LN1@SendTextMe
$LN13@SendTextMe:
	DB	0
	DB	0
	DB	0
	DB	0
	DB	0
	DB	1
	DB	1
	DB	1
	DB	1
	DB	1
	DB	2
	DB	3
	DB	4
	DB	5
?SendTextMessageToChannel@@YAXXZ ENDP			; SendTextMessageToChannel
_TEXT	ENDS
; Function compile flags: /Odtp
; File c:\users\zhitao li\documents\visual studio 2012\projects\freefalcon\ui\src\comms\ui_comms.cpp
_TEXT	SEGMENT
_sessionWalker$ = -52					; size = 12
$T2 = -40						; size = 4
$T3 = -36						; size = 4
tv138 = -32						; size = 4
$T4 = -28						; size = 4
tv81 = -24						; size = 4
_session$ = -20						; size = 4
_chat$ = -16						; size = 4
__$EHRec$ = -12						; size = 12
?SendTextToEveryOne@@YAXXZ PROC				; SendTextToEveryOne

; 2220 : {

	push	ebp
	mov	ebp, esp
	push	-1
	push	__ehhandler$?SendTextToEveryOne@@YAXXZ
	mov	eax, DWORD PTR fs:0
	push	eax
	sub	esp, 40					; 00000028H
	mov	eax, DWORD PTR ___security_cookie
	xor	eax, ebp
	push	eax
	lea	eax, DWORD PTR __$EHRec$[ebp]
	mov	DWORD PTR fs:0, eax

; 2221 : 	VuSessionsIterator sessionWalker(FalconLocalGame);

	mov	ecx, OFFSET ?vuLocalSessionEntity@@3V?$VuBin@VVuSessionEntity@@@@A ; vuLocalSessionEntity
	call	??B?$VuBin@VVuSessionEntity@@@@QBE_NXZ	; VuBin<VuSessionEntity>::operator bool
	movzx	eax, al
	test	eax, eax
	je	SHORT $LN5@SendTextTo
	mov	ecx, OFFSET ?vuLocalSessionEntity@@3V?$VuBin@VVuSessionEntity@@@@A ; vuLocalSessionEntity
	call	?get@?$VuBin@VVuSessionEntity@@@@QBEPAVVuSessionEntity@@XZ ; VuBin<VuSessionEntity>::get
	mov	ecx, eax
	call	?GetGame@FalconSessionEntity@@QAEPAVFalconGameEntity@@XZ ; FalconSessionEntity::GetGame
	mov	DWORD PTR tv81[ebp], eax
	jmp	SHORT $LN6@SendTextTo
$LN5@SendTextTo:
	mov	DWORD PTR tv81[ebp], 0
$LN6@SendTextTo:
	mov	ecx, DWORD PTR tv81[ebp]
	push	ecx
	lea	ecx, DWORD PTR _sessionWalker$[ebp]
	call	??0VuSessionsIterator@@QAE@PAVVuGroupEntity@@@Z ; VuSessionsIterator::VuSessionsIterator
	mov	DWORD PTR __$EHRec$[ebp+8], 0

; 2222 : 	FalconSessionEntity *session;
; 2223 : 	UI_SendChatMessage *chat;
; 2224 : 
; 2225 : 	session = (FalconSessionEntity*)sessionWalker.GetFirst();

	lea	ecx, DWORD PTR _sessionWalker$[ebp]
	call	?GetFirst@VuSessionsIterator@@QAEPAVVuSessionEntity@@XZ ; VuSessionsIterator::GetFirst
	mov	DWORD PTR _session$[ebp], eax
$LN2@SendTextTo:

; 2226 : 	while(session)

	cmp	DWORD PTR _session$[ebp], 0
	je	$LN1@SendTextTo

; 2227 : 	{
; 2228 : 		chat=new UI_SendChatMessage(FalconNullId,session);

	push	62					; 0000003eH
	call	??2@YAPAXI@Z				; operator new
	add	esp, 4
	mov	DWORD PTR $T4[ebp], eax
	mov	BYTE PTR __$EHRec$[ebp+8], 1
	cmp	DWORD PTR $T4[ebp], 0
	je	SHORT $LN7@SendTextTo
	push	1
	mov	edx, DWORD PTR _session$[ebp]
	push	edx
	mov	eax, DWORD PTR ?FalconNullId@@3VVU_ID@@A+4
	push	eax
	mov	ecx, DWORD PTR ?FalconNullId@@3VVU_ID@@A
	push	ecx
	mov	ecx, DWORD PTR $T4[ebp]
	call	??0UI_SendChatMessage@@QAE@VVU_ID@@PAVVuTargetEntity@@E@Z ; UI_SendChatMessage::UI_SendChatMessage
	mov	DWORD PTR tv138[ebp], eax
	jmp	SHORT $LN8@SendTextTo
$LN7@SendTextTo:
	mov	DWORD PTR tv138[ebp], 0
$LN8@SendTextTo:
	mov	edx, DWORD PTR tv138[ebp]
	mov	DWORD PTR $T3[ebp], edx
	mov	BYTE PTR __$EHRec$[ebp+8], 0
	mov	eax, DWORD PTR $T3[ebp]
	mov	DWORD PTR _chat$[ebp], eax

; 2229 : 
; 2230 : 		chat->dataBlock.from=FalconLocalSessionId;

	mov	ecx, DWORD PTR _chat$[ebp]
	mov	edx, DWORD PTR ?vuLocalSession@@3VVU_ID@@A
	mov	DWORD PTR [ecx+48], edx
	mov	eax, DWORD PTR ?vuLocalSession@@3VVU_ID@@A+4
	mov	DWORD PTR [ecx+52], eax

; 2231 : 		chat->dataBlock.size=static_cast<short>((strlen(chatterStr)+1)*sizeof(char));

	push	OFFSET ?chatterStr@@3PADA		; chatterStr
	call	_strlen
	add	esp, 4
	add	eax, 1
	mov	ecx, DWORD PTR _chat$[ebp]
	mov	WORD PTR [ecx+56], ax

; 2232 : 		chat->dataBlock.message=new char[chat->dataBlock.size];

	mov	edx, DWORD PTR _chat$[ebp]
	movsx	eax, WORD PTR [edx+56]
	push	eax
	call	??_U@YAPAXI@Z				; operator new[]
	add	esp, 4
	mov	DWORD PTR $T2[ebp], eax
	mov	ecx, DWORD PTR _chat$[ebp]
	mov	edx, DWORD PTR $T2[ebp]
	mov	DWORD PTR [ecx+58], edx

; 2233 : 		memcpy(chat->dataBlock.message,chatterStr,chat->dataBlock.size);

	mov	eax, DWORD PTR _chat$[ebp]
	movsx	ecx, WORD PTR [eax+56]
	push	ecx
	push	OFFSET ?chatterStr@@3PADA		; chatterStr
	mov	edx, DWORD PTR _chat$[ebp]
	mov	eax, DWORD PTR [edx+58]
	push	eax
	call	_memcpy
	add	esp, 12					; 0000000cH

; 2234 : 		FalconSendMessage(chat,TRUE);

	push	1
	mov	ecx, DWORD PTR _chat$[ebp]
	push	ecx
	call	?FalconSendMessage@@YAXPAVVuMessage@@H@Z ; FalconSendMessage
	add	esp, 8

; 2235 : 
; 2236 : 		session = (FalconSessionEntity*)sessionWalker.GetNext();

	lea	ecx, DWORD PTR _sessionWalker$[ebp]
	call	?GetNext@VuSessionsIterator@@QAEPAVVuSessionEntity@@XZ ; VuSessionsIterator::GetNext
	mov	DWORD PTR _session$[ebp], eax

; 2237 : 	}

	jmp	$LN2@SendTextTo
$LN1@SendTextTo:

; 2238 : }

	mov	DWORD PTR __$EHRec$[ebp+8], -1
	lea	ecx, DWORD PTR _sessionWalker$[ebp]
	call	??1VuSessionsIterator@@UAE@XZ		; VuSessionsIterator::~VuSessionsIterator
	mov	ecx, DWORD PTR __$EHRec$[ebp]
	mov	DWORD PTR fs:0, ecx
	pop	ecx
	mov	esp, ebp
	pop	ebp
	ret	0
_TEXT	ENDS
text$x	SEGMENT
__unwindfunclet$?SendTextToEveryOne@@YAXXZ$0:
	lea	ecx, DWORD PTR _sessionWalker$[ebp]
	jmp	??1VuSessionsIterator@@UAE@XZ		; VuSessionsIterator::~VuSessionsIterator
__unwindfunclet$?SendTextToEveryOne@@YAXXZ$1:
	mov	eax, DWORD PTR $T4[ebp]
	push	eax
	call	??3@YAXPAX@Z				; operator delete
	pop	ecx
	ret	0
__ehhandler$?SendTextToEveryOne@@YAXXZ:
	mov	edx, DWORD PTR [esp+8]
	lea	eax, DWORD PTR [edx+12]
	mov	ecx, DWORD PTR [edx-44]
	xor	ecx, eax
	call	@__security_check_cookie@4
	mov	eax, OFFSET __ehfuncinfo$?SendTextToEveryOne@@YAXXZ
	jmp	___CxxFrameHandler3
text$x	ENDS
?SendTextToEveryOne@@YAXXZ ENDP				; SendTextToEveryOne
; Function compile flags: /Odtp
; File c:\users\zhitao li\documents\visual studio 2012\projects\freefalcon\ui\src\comms\ui_comms.cpp
_TEXT	SEGMENT
_sessionWalker$ = -52					; size = 12
$T2 = -40						; size = 4
$T3 = -36						; size = 4
tv151 = -32						; size = 4
$T4 = -28						; size = 4
tv81 = -24						; size = 4
_session$ = -20						; size = 4
_chat$ = -16						; size = 4
__$EHRec$ = -12						; size = 12
?SendTextToTeam@@YAXXZ PROC				; SendTextToTeam

; 2196 : {

	push	ebp
	mov	ebp, esp
	push	-1
	push	__ehhandler$?SendTextToTeam@@YAXXZ
	mov	eax, DWORD PTR fs:0
	push	eax
	sub	esp, 40					; 00000028H
	push	esi
	mov	eax, DWORD PTR ___security_cookie
	xor	eax, ebp
	push	eax
	lea	eax, DWORD PTR __$EHRec$[ebp]
	mov	DWORD PTR fs:0, eax

; 2197 : 	VuSessionsIterator sessionWalker(FalconLocalGame);

	mov	ecx, OFFSET ?vuLocalSessionEntity@@3V?$VuBin@VVuSessionEntity@@@@A ; vuLocalSessionEntity
	call	??B?$VuBin@VVuSessionEntity@@@@QBE_NXZ	; VuBin<VuSessionEntity>::operator bool
	movzx	eax, al
	test	eax, eax
	je	SHORT $LN6@SendTextTo
	mov	ecx, OFFSET ?vuLocalSessionEntity@@3V?$VuBin@VVuSessionEntity@@@@A ; vuLocalSessionEntity
	call	?get@?$VuBin@VVuSessionEntity@@@@QBEPAVVuSessionEntity@@XZ ; VuBin<VuSessionEntity>::get
	mov	ecx, eax
	call	?GetGame@FalconSessionEntity@@QAEPAVFalconGameEntity@@XZ ; FalconSessionEntity::GetGame
	mov	DWORD PTR tv81[ebp], eax
	jmp	SHORT $LN7@SendTextTo
$LN6@SendTextTo:
	mov	DWORD PTR tv81[ebp], 0
$LN7@SendTextTo:
	mov	ecx, DWORD PTR tv81[ebp]
	push	ecx
	lea	ecx, DWORD PTR _sessionWalker$[ebp]
	call	??0VuSessionsIterator@@QAE@PAVVuGroupEntity@@@Z ; VuSessionsIterator::VuSessionsIterator
	mov	DWORD PTR __$EHRec$[ebp+8], 0

; 2198 : 	FalconSessionEntity *session;
; 2199 : 	UI_SendChatMessage *chat;
; 2200 : 
; 2201 : 	session = (FalconSessionEntity*)sessionWalker.GetFirst();

	lea	ecx, DWORD PTR _sessionWalker$[ebp]
	call	?GetFirst@VuSessionsIterator@@QAEPAVVuSessionEntity@@XZ ; VuSessionsIterator::GetFirst
	mov	DWORD PTR _session$[ebp], eax
$LN3@SendTextTo:

; 2202 : 	while(session)

	cmp	DWORD PTR _session$[ebp], 0
	je	$LN2@SendTextTo

; 2203 : 	{
; 2204 : 		if(session->GetTeam() == FalconLocalSession->GetTeam())

	mov	ecx, DWORD PTR _session$[ebp]
	call	?GetTeam@FalconSessionEntity@@QAEEXZ	; FalconSessionEntity::GetTeam
	movzx	esi, al
	mov	ecx, OFFSET ?vuLocalSessionEntity@@3V?$VuBin@VVuSessionEntity@@@@A ; vuLocalSessionEntity
	call	?get@?$VuBin@VVuSessionEntity@@@@QBEPAVVuSessionEntity@@XZ ; VuBin<VuSessionEntity>::get
	mov	ecx, eax
	call	?GetTeam@FalconSessionEntity@@QAEEXZ	; FalconSessionEntity::GetTeam
	movzx	edx, al
	cmp	esi, edx
	jne	$LN1@SendTextTo

; 2205 : 		{
; 2206 : 			chat=new UI_SendChatMessage(FalconNullId,session);

	push	62					; 0000003eH
	call	??2@YAPAXI@Z				; operator new
	add	esp, 4
	mov	DWORD PTR $T4[ebp], eax
	mov	BYTE PTR __$EHRec$[ebp+8], 1
	cmp	DWORD PTR $T4[ebp], 0
	je	SHORT $LN8@SendTextTo
	push	1
	mov	eax, DWORD PTR _session$[ebp]
	push	eax
	mov	ecx, DWORD PTR ?FalconNullId@@3VVU_ID@@A+4
	push	ecx
	mov	edx, DWORD PTR ?FalconNullId@@3VVU_ID@@A
	push	edx
	mov	ecx, DWORD PTR $T4[ebp]
	call	??0UI_SendChatMessage@@QAE@VVU_ID@@PAVVuTargetEntity@@E@Z ; UI_SendChatMessage::UI_SendChatMessage
	mov	DWORD PTR tv151[ebp], eax
	jmp	SHORT $LN9@SendTextTo
$LN8@SendTextTo:
	mov	DWORD PTR tv151[ebp], 0
$LN9@SendTextTo:
	mov	eax, DWORD PTR tv151[ebp]
	mov	DWORD PTR $T3[ebp], eax
	mov	BYTE PTR __$EHRec$[ebp+8], 0
	mov	ecx, DWORD PTR $T3[ebp]
	mov	DWORD PTR _chat$[ebp], ecx

; 2207 : 
; 2208 : 			chat->dataBlock.from=FalconLocalSessionId;

	mov	edx, DWORD PTR _chat$[ebp]
	mov	eax, DWORD PTR ?vuLocalSession@@3VVU_ID@@A
	mov	DWORD PTR [edx+48], eax
	mov	ecx, DWORD PTR ?vuLocalSession@@3VVU_ID@@A+4
	mov	DWORD PTR [edx+52], ecx

; 2209 : 			chat->dataBlock.size=static_cast<short>((strlen(chatterStr)+1)*sizeof(char));

	push	OFFSET ?chatterStr@@3PADA		; chatterStr
	call	_strlen
	add	esp, 4
	add	eax, 1
	mov	edx, DWORD PTR _chat$[ebp]
	mov	WORD PTR [edx+56], ax

; 2210 : 			chat->dataBlock.message=new char[chat->dataBlock.size];

	mov	eax, DWORD PTR _chat$[ebp]
	movsx	ecx, WORD PTR [eax+56]
	push	ecx
	call	??_U@YAPAXI@Z				; operator new[]
	add	esp, 4
	mov	DWORD PTR $T2[ebp], eax
	mov	edx, DWORD PTR _chat$[ebp]
	mov	eax, DWORD PTR $T2[ebp]
	mov	DWORD PTR [edx+58], eax

; 2211 : 			memcpy(chat->dataBlock.message,chatterStr,chat->dataBlock.size);

	mov	ecx, DWORD PTR _chat$[ebp]
	movsx	edx, WORD PTR [ecx+56]
	push	edx
	push	OFFSET ?chatterStr@@3PADA		; chatterStr
	mov	eax, DWORD PTR _chat$[ebp]
	mov	ecx, DWORD PTR [eax+58]
	push	ecx
	call	_memcpy
	add	esp, 12					; 0000000cH

; 2212 : 			FalconSendMessage(chat,TRUE);

	push	1
	mov	edx, DWORD PTR _chat$[ebp]
	push	edx
	call	?FalconSendMessage@@YAXPAVVuMessage@@H@Z ; FalconSendMessage
	add	esp, 8
$LN1@SendTextTo:

; 2213 : 		}
; 2214 : 		session = (FalconSessionEntity*)sessionWalker.GetNext();

	lea	ecx, DWORD PTR _sessionWalker$[ebp]
	call	?GetNext@VuSessionsIterator@@QAEPAVVuSessionEntity@@XZ ; VuSessionsIterator::GetNext
	mov	DWORD PTR _session$[ebp], eax

; 2215 : 	}

	jmp	$LN3@SendTextTo
$LN2@SendTextTo:

; 2216 : 
; 2217 : }

	mov	DWORD PTR __$EHRec$[ebp+8], -1
	lea	ecx, DWORD PTR _sessionWalker$[ebp]
	call	??1VuSessionsIterator@@UAE@XZ		; VuSessionsIterator::~VuSessionsIterator
	mov	ecx, DWORD PTR __$EHRec$[ebp]
	mov	DWORD PTR fs:0, ecx
	pop	ecx
	pop	esi
	mov	esp, ebp
	pop	ebp
	ret	0
_TEXT	ENDS
text$x	SEGMENT
__unwindfunclet$?SendTextToTeam@@YAXXZ$0:
	lea	ecx, DWORD PTR _sessionWalker$[ebp]
	jmp	??1VuSessionsIterator@@UAE@XZ		; VuSessionsIterator::~VuSessionsIterator
__unwindfunclet$?SendTextToTeam@@YAXXZ$1:
	mov	eax, DWORD PTR $T4[ebp]
	push	eax
	call	??3@YAXPAX@Z				; operator delete
	pop	ecx
	ret	0
__ehhandler$?SendTextToTeam@@YAXXZ:
	mov	edx, DWORD PTR [esp+8]
	lea	eax, DWORD PTR [edx+12]
	mov	ecx, DWORD PTR [edx-48]
	xor	ecx, eax
	call	@__security_check_cookie@4
	mov	eax, OFFSET __ehfuncinfo$?SendTextToTeam@@YAXXZ
	jmp	___CxxFrameHandler3
text$x	ENDS
?SendTextToTeam@@YAXXZ ENDP				; SendTextToTeam
; Function compile flags: /Odtp
; File c:\users\zhitao li\documents\visual studio 2012\projects\freefalcon\ui\src\comms\ui_comms.cpp
_TEXT	SEGMENT
_sessionWalker$ = -88					; size = 12
$T2 = -76						; size = 4
$T3 = -72						; size = 4
_dist$ = -68						; size = 4
tv238 = -64						; size = 4
_sy$ = -60						; size = 4
_myy$ = -56						; size = 4
_sx$ = -52						; size = 4
_myx$ = -48						; size = 4
tv175 = -44						; size = 4
$T4 = -40						; size = 4
_dy$ = -36						; size = 4
_dx$ = -32						; size = 4
tv81 = -28						; size = 4
_session$ = -24						; size = 4
_chat$ = -20						; size = 4
_ent$ = -16						; size = 4
__$EHRec$ = -12						; size = 12
?SendTextToRange@@YAXXZ PROC				; SendTextToRange

; 2152 : {

	push	ebp
	mov	ebp, esp
	push	-1
	push	__ehhandler$?SendTextToRange@@YAXXZ
	mov	eax, DWORD PTR fs:0
	push	eax
	sub	esp, 76					; 0000004cH
	mov	eax, DWORD PTR ___security_cookie
	xor	eax, ebp
	push	eax
	lea	eax, DWORD PTR __$EHRec$[ebp]
	mov	DWORD PTR fs:0, eax

; 2153 : 	VuSessionsIterator sessionWalker(FalconLocalGame);

	mov	ecx, OFFSET ?vuLocalSessionEntity@@3V?$VuBin@VVuSessionEntity@@@@A ; vuLocalSessionEntity
	call	??B?$VuBin@VVuSessionEntity@@@@QBE_NXZ	; VuBin<VuSessionEntity>::operator bool
	movzx	eax, al
	test	eax, eax
	je	SHORT $LN8@SendTextTo
	mov	ecx, OFFSET ?vuLocalSessionEntity@@3V?$VuBin@VVuSessionEntity@@@@A ; vuLocalSessionEntity
	call	?get@?$VuBin@VVuSessionEntity@@@@QBEPAVVuSessionEntity@@XZ ; VuBin<VuSessionEntity>::get
	mov	ecx, eax
	call	?GetGame@FalconSessionEntity@@QAEPAVFalconGameEntity@@XZ ; FalconSessionEntity::GetGame
	mov	DWORD PTR tv81[ebp], eax
	jmp	SHORT $LN9@SendTextTo
$LN8@SendTextTo:
	mov	DWORD PTR tv81[ebp], 0
$LN9@SendTextTo:
	mov	ecx, DWORD PTR tv81[ebp]
	push	ecx
	lea	ecx, DWORD PTR _sessionWalker$[ebp]
	call	??0VuSessionsIterator@@QAE@PAVVuGroupEntity@@@Z ; VuSessionsIterator::VuSessionsIterator
	mov	DWORD PTR __$EHRec$[ebp+8], 0

; 2154 : 	FalconSessionEntity *session;
; 2155 : 	UI_SendChatMessage *chat;
; 2156 : 	float myx,sx,myy,sy,dx,dy,dist;
; 2157 : 	VuEntity *ent;
; 2158 : 
; 2159 : 	ent=FalconLocalSession->GetPlayerEntity();

	mov	ecx, OFFSET ?vuLocalSessionEntity@@3V?$VuBin@VVuSessionEntity@@@@A ; vuLocalSessionEntity
	call	?get@?$VuBin@VVuSessionEntity@@@@QBEPAVVuSessionEntity@@XZ ; VuBin<VuSessionEntity>::get
	mov	ecx, eax
	call	?GetPlayerEntity@FalconSessionEntity@@QBEPAVFalconEntity@@XZ ; FalconSessionEntity::GetPlayerEntity
	mov	DWORD PTR _ent$[ebp], eax

; 2160 : 	if(!ent)

	cmp	DWORD PTR _ent$[ebp], 0
	jne	SHORT $LN5@SendTextTo

; 2161 : 		return;

	mov	DWORD PTR __$EHRec$[ebp+8], -1
	lea	ecx, DWORD PTR _sessionWalker$[ebp]
	call	??1VuSessionsIterator@@UAE@XZ		; VuSessionsIterator::~VuSessionsIterator
	jmp	$LN6@SendTextTo
$LN5@SendTextTo:

; 2162 : 
; 2163 : 	myx=ent->XPos();

	mov	ecx, DWORD PTR _ent$[ebp]
	call	?XPos@VuEntity@@QBEMXZ			; VuEntity::XPos
	fstp	DWORD PTR _myx$[ebp]

; 2164 : 	myy=ent->YPos();

	mov	ecx, DWORD PTR _ent$[ebp]
	call	?YPos@VuEntity@@QBEMXZ			; VuEntity::YPos
	fstp	DWORD PTR _myy$[ebp]

; 2165 : 
; 2166 : 	session = (FalconSessionEntity*)sessionWalker.GetFirst();

	lea	ecx, DWORD PTR _sessionWalker$[ebp]
	call	?GetFirst@VuSessionsIterator@@QAEPAVVuSessionEntity@@XZ ; VuSessionsIterator::GetFirst
	mov	DWORD PTR _session$[ebp], eax
$LN4@SendTextTo:

; 2167 : 	while(session)

	cmp	DWORD PTR _session$[ebp], 0
	je	$LN3@SendTextTo

; 2168 : 	{
; 2169 : 		ent=session->GetPlayerEntity();

	mov	ecx, DWORD PTR _session$[ebp]
	call	?GetPlayerEntity@FalconSessionEntity@@QBEPAVFalconEntity@@XZ ; FalconSessionEntity::GetPlayerEntity
	mov	DWORD PTR _ent$[ebp], eax

; 2170 : 		if(ent)

	cmp	DWORD PTR _ent$[ebp], 0
	je	$LN1@SendTextTo

; 2171 : 		{
; 2172 : 			sx=ent->XPos();

	mov	ecx, DWORD PTR _ent$[ebp]
	call	?XPos@VuEntity@@QBEMXZ			; VuEntity::XPos
	fstp	DWORD PTR _sx$[ebp]

; 2173 : 			sy=ent->YPos();

	mov	ecx, DWORD PTR _ent$[ebp]
	call	?YPos@VuEntity@@QBEMXZ			; VuEntity::YPos
	fstp	DWORD PTR _sy$[ebp]

; 2174 : 
; 2175 : 			dx=myx-sx;

	movss	xmm0, DWORD PTR _myx$[ebp]
	subss	xmm0, DWORD PTR _sx$[ebp]
	movss	DWORD PTR _dx$[ebp], xmm0

; 2176 : 			dy=myy-sy;

	movss	xmm0, DWORD PTR _myy$[ebp]
	subss	xmm0, DWORD PTR _sy$[ebp]
	movss	DWORD PTR _dy$[ebp], xmm0

; 2177 : 
; 2178 : 			dist=static_cast<float>(sqrt(dx*dx+dy*dy) * FT_TO_NM);

	movss	xmm0, DWORD PTR _dx$[ebp]
	mulss	xmm0, DWORD PTR _dx$[ebp]
	movss	xmm1, DWORD PTR _dy$[ebp]
	mulss	xmm1, DWORD PTR _dy$[ebp]
	addss	xmm0, xmm1
	push	ecx
	movss	DWORD PTR [esp], xmm0
	call	?SqrtSSE@@YAMM@Z			; SqrtSSE
	add	esp, 4
	fstp	DWORD PTR tv238[ebp]
	movss	xmm0, DWORD PTR tv238[ebp]
	mulss	xmm0, DWORD PTR __real@392c987a
	movss	DWORD PTR _dist$[ebp], xmm0

; 2179 : 
; 2180 : 			if(dist <= 40.0f)

	movss	xmm0, DWORD PTR __real@42200000
	comiss	xmm0, DWORD PTR _dist$[ebp]
	jb	$LN1@SendTextTo

; 2181 : 			{
; 2182 : 				chat=new UI_SendChatMessage(FalconNullId,session);

	push	62					; 0000003eH
	call	??2@YAPAXI@Z				; operator new
	add	esp, 4
	mov	DWORD PTR $T4[ebp], eax
	mov	BYTE PTR __$EHRec$[ebp+8], 1
	cmp	DWORD PTR $T4[ebp], 0
	je	SHORT $LN10@SendTextTo
	push	1
	mov	edx, DWORD PTR _session$[ebp]
	push	edx
	mov	eax, DWORD PTR ?FalconNullId@@3VVU_ID@@A+4
	push	eax
	mov	ecx, DWORD PTR ?FalconNullId@@3VVU_ID@@A
	push	ecx
	mov	ecx, DWORD PTR $T4[ebp]
	call	??0UI_SendChatMessage@@QAE@VVU_ID@@PAVVuTargetEntity@@E@Z ; UI_SendChatMessage::UI_SendChatMessage
	mov	DWORD PTR tv175[ebp], eax
	jmp	SHORT $LN11@SendTextTo
$LN10@SendTextTo:
	mov	DWORD PTR tv175[ebp], 0
$LN11@SendTextTo:
	mov	edx, DWORD PTR tv175[ebp]
	mov	DWORD PTR $T3[ebp], edx
	mov	BYTE PTR __$EHRec$[ebp+8], 0
	mov	eax, DWORD PTR $T3[ebp]
	mov	DWORD PTR _chat$[ebp], eax

; 2183 : 
; 2184 : 				chat->dataBlock.from=FalconLocalSessionId;

	mov	ecx, DWORD PTR _chat$[ebp]
	mov	edx, DWORD PTR ?vuLocalSession@@3VVU_ID@@A
	mov	DWORD PTR [ecx+48], edx
	mov	eax, DWORD PTR ?vuLocalSession@@3VVU_ID@@A+4
	mov	DWORD PTR [ecx+52], eax

; 2185 : 				chat->dataBlock.size=static_cast<short>((strlen(chatterStr)+1)*sizeof(char));

	push	OFFSET ?chatterStr@@3PADA		; chatterStr
	call	_strlen
	add	esp, 4
	add	eax, 1
	mov	ecx, DWORD PTR _chat$[ebp]
	mov	WORD PTR [ecx+56], ax

; 2186 : 				chat->dataBlock.message=new char[chat->dataBlock.size];

	mov	edx, DWORD PTR _chat$[ebp]
	movsx	eax, WORD PTR [edx+56]
	push	eax
	call	??_U@YAPAXI@Z				; operator new[]
	add	esp, 4
	mov	DWORD PTR $T2[ebp], eax
	mov	ecx, DWORD PTR _chat$[ebp]
	mov	edx, DWORD PTR $T2[ebp]
	mov	DWORD PTR [ecx+58], edx

; 2187 : 				memcpy(chat->dataBlock.message,chatterStr,chat->dataBlock.size);

	mov	eax, DWORD PTR _chat$[ebp]
	movsx	ecx, WORD PTR [eax+56]
	push	ecx
	push	OFFSET ?chatterStr@@3PADA		; chatterStr
	mov	edx, DWORD PTR _chat$[ebp]
	mov	eax, DWORD PTR [edx+58]
	push	eax
	call	_memcpy
	add	esp, 12					; 0000000cH

; 2188 : 				FalconSendMessage(chat,TRUE);

	push	1
	mov	ecx, DWORD PTR _chat$[ebp]
	push	ecx
	call	?FalconSendMessage@@YAXPAVVuMessage@@H@Z ; FalconSendMessage
	add	esp, 8
$LN1@SendTextTo:

; 2189 : 			}
; 2190 : 		}
; 2191 : 		session = (FalconSessionEntity*)sessionWalker.GetNext();

	lea	ecx, DWORD PTR _sessionWalker$[ebp]
	call	?GetNext@VuSessionsIterator@@QAEPAVVuSessionEntity@@XZ ; VuSessionsIterator::GetNext
	mov	DWORD PTR _session$[ebp], eax

; 2192 : 	}

	jmp	$LN4@SendTextTo
$LN3@SendTextTo:

; 2193 : }

	mov	DWORD PTR __$EHRec$[ebp+8], -1
	lea	ecx, DWORD PTR _sessionWalker$[ebp]
	call	??1VuSessionsIterator@@UAE@XZ		; VuSessionsIterator::~VuSessionsIterator
$LN6@SendTextTo:
	mov	ecx, DWORD PTR __$EHRec$[ebp]
	mov	DWORD PTR fs:0, ecx
	pop	ecx
	mov	esp, ebp
	pop	ebp
	ret	0
_TEXT	ENDS
text$x	SEGMENT
__unwindfunclet$?SendTextToRange@@YAXXZ$0:
	lea	ecx, DWORD PTR _sessionWalker$[ebp]
	jmp	??1VuSessionsIterator@@UAE@XZ		; VuSessionsIterator::~VuSessionsIterator
__unwindfunclet$?SendTextToRange@@YAXXZ$1:
	mov	eax, DWORD PTR $T4[ebp]
	push	eax
	call	??3@YAXPAX@Z				; operator delete
	pop	ecx
	ret	0
__ehhandler$?SendTextToRange@@YAXXZ:
	mov	edx, DWORD PTR [esp+8]
	lea	eax, DWORD PTR [edx+12]
	mov	ecx, DWORD PTR [edx-80]
	xor	ecx, eax
	call	@__security_check_cookie@4
	mov	eax, OFFSET __ehfuncinfo$?SendTextToRange@@YAXXZ
	jmp	___CxxFrameHandler3
text$x	ENDS
?SendTextToRange@@YAXXZ ENDP				; SendTextToRange
; Function compile flags: /Odtp
; File c:\users\zhitao li\documents\visual studio 2012\projects\freefalcon\ui\src\comms\ui_comms.cpp
_TEXT	SEGMENT
_sessionWalker$ = -100					; size = 12
$T2 = -88						; size = 8
$T3 = -80						; size = 8
$T4 = -72						; size = 8
$T5 = -64						; size = 8
_MyPackageID$ = -56					; size = 8
$T6 = -48						; size = 4
$T7 = -44						; size = 4
tv205 = -40						; size = 4
$T8 = -36						; size = 4
tv82 = -32						; size = 4
_session$ = -28						; size = 4
_pkg$ = -24						; size = 4
_chat$ = -20						; size = 4
_flt$ = -16						; size = 4
__$EHRec$ = -12						; size = 12
?SendTextToPackage@@YAXXZ PROC				; SendTextToPackage

; 2110 : {

	push	ebp
	mov	ebp, esp
	push	-1
	push	__ehhandler$?SendTextToPackage@@YAXXZ
	mov	eax, DWORD PTR fs:0
	push	eax
	sub	esp, 88					; 00000058H
	mov	eax, DWORD PTR ___security_cookie
	xor	eax, ebp
	push	eax
	lea	eax, DWORD PTR __$EHRec$[ebp]
	mov	DWORD PTR fs:0, eax

; 2111 : 	Flight flt;
; 2112 : 	Package pkg;
; 2113 : 	VU_ID MyPackageID;

	lea	ecx, DWORD PTR _MyPackageID$[ebp]
	call	??0VU_ID@@QAE@XZ			; VU_ID::VU_ID

; 2114 : 	VuSessionsIterator sessionWalker(FalconLocalGame);

	mov	ecx, OFFSET ?vuLocalSessionEntity@@3V?$VuBin@VVuSessionEntity@@@@A ; vuLocalSessionEntity
	call	??B?$VuBin@VVuSessionEntity@@@@QBE_NXZ	; VuBin<VuSessionEntity>::operator bool
	movzx	eax, al
	test	eax, eax
	je	SHORT $LN9@SendTextTo
	mov	ecx, OFFSET ?vuLocalSessionEntity@@3V?$VuBin@VVuSessionEntity@@@@A ; vuLocalSessionEntity
	call	?get@?$VuBin@VVuSessionEntity@@@@QBEPAVVuSessionEntity@@XZ ; VuBin<VuSessionEntity>::get
	mov	ecx, eax
	call	?GetGame@FalconSessionEntity@@QAEPAVFalconGameEntity@@XZ ; FalconSessionEntity::GetGame
	mov	DWORD PTR tv82[ebp], eax
	jmp	SHORT $LN10@SendTextTo
$LN9@SendTextTo:
	mov	DWORD PTR tv82[ebp], 0
$LN10@SendTextTo:
	mov	ecx, DWORD PTR tv82[ebp]
	push	ecx
	lea	ecx, DWORD PTR _sessionWalker$[ebp]
	call	??0VuSessionsIterator@@QAE@PAVVuGroupEntity@@@Z ; VuSessionsIterator::VuSessionsIterator
	mov	DWORD PTR __$EHRec$[ebp+8], 0

; 2115 : 	FalconSessionEntity *session;
; 2116 : 	UI_SendChatMessage *chat;
; 2117 : 
; 2118 : 	flt=(Flight)vuDatabase->Find(FalconLocalSession->GetPlayerFlightID());

	lea	edx, DWORD PTR $T5[ebp]
	push	edx
	mov	ecx, OFFSET ?vuLocalSessionEntity@@3V?$VuBin@VVuSessionEntity@@@@A ; vuLocalSessionEntity
	call	?get@?$VuBin@VVuSessionEntity@@@@QBEPAVVuSessionEntity@@XZ ; VuBin<VuSessionEntity>::get
	mov	ecx, eax
	call	?GetPlayerFlightID@FalconSessionEntity@@QBE?AVVU_ID@@XZ ; FalconSessionEntity::GetPlayerFlightID
	mov	ecx, DWORD PTR [eax+4]
	push	ecx
	mov	edx, DWORD PTR [eax]
	push	edx
	mov	ecx, DWORD PTR ?vuDatabase@@3PAVVuDatabase@@A ; vuDatabase
	call	?Find@VuDatabase@@QBEPAVVuEntity@@VVU_ID@@@Z ; VuDatabase::Find
	mov	DWORD PTR _flt$[ebp], eax

; 2119 : 	if(!flt)

	cmp	DWORD PTR _flt$[ebp], 0
	jne	SHORT $LN6@SendTextTo

; 2120 : 		return;

	mov	DWORD PTR __$EHRec$[ebp+8], -1
	lea	ecx, DWORD PTR _sessionWalker$[ebp]
	call	??1VuSessionsIterator@@UAE@XZ		; VuSessionsIterator::~VuSessionsIterator
	jmp	$LN7@SendTextTo
$LN6@SendTextTo:

; 2121 : 
; 2122 : 	pkg=(Package)flt->GetUnitParent();

	mov	eax, DWORD PTR _flt$[ebp]
	mov	edx, DWORD PTR [eax]
	mov	ecx, DWORD PTR _flt$[ebp]
	mov	eax, DWORD PTR [edx+1008]
	call	eax
	mov	DWORD PTR _pkg$[ebp], eax

; 2123 : 	if(!pkg)

	cmp	DWORD PTR _pkg$[ebp], 0
	jne	SHORT $LN5@SendTextTo

; 2124 : 		return;

	mov	DWORD PTR __$EHRec$[ebp+8], -1
	lea	ecx, DWORD PTR _sessionWalker$[ebp]
	call	??1VuSessionsIterator@@UAE@XZ		; VuSessionsIterator::~VuSessionsIterator
	jmp	$LN7@SendTextTo
$LN5@SendTextTo:

; 2125 : 
; 2126 : 	MyPackageID=pkg->Id();

	lea	ecx, DWORD PTR $T4[ebp]
	push	ecx
	mov	ecx, DWORD PTR _pkg$[ebp]
	call	?Id@VuEntity@@QBE?AVVU_ID@@XZ		; VuEntity::Id
	mov	edx, DWORD PTR [eax]
	mov	eax, DWORD PTR [eax+4]
	mov	DWORD PTR _MyPackageID$[ebp], edx
	mov	DWORD PTR _MyPackageID$[ebp+4], eax

; 2127 : 
; 2128 : 	session = (FalconSessionEntity*)sessionWalker.GetFirst();

	lea	ecx, DWORD PTR _sessionWalker$[ebp]
	call	?GetFirst@VuSessionsIterator@@QAEPAVVuSessionEntity@@XZ ; VuSessionsIterator::GetFirst
	mov	DWORD PTR _session$[ebp], eax
$LN4@SendTextTo:

; 2129 : 	while(session)

	cmp	DWORD PTR _session$[ebp], 0
	je	$LN3@SendTextTo

; 2130 : 	{
; 2131 : 		flt=(Flight)vuDatabase->Find(session->GetPlayerFlightID());

	lea	ecx, DWORD PTR $T3[ebp]
	push	ecx
	mov	ecx, DWORD PTR _session$[ebp]
	call	?GetPlayerFlightID@FalconSessionEntity@@QBE?AVVU_ID@@XZ ; FalconSessionEntity::GetPlayerFlightID
	mov	edx, DWORD PTR [eax+4]
	push	edx
	mov	eax, DWORD PTR [eax]
	push	eax
	mov	ecx, DWORD PTR ?vuDatabase@@3PAVVuDatabase@@A ; vuDatabase
	call	?Find@VuDatabase@@QBEPAVVuEntity@@VVU_ID@@@Z ; VuDatabase::Find
	mov	DWORD PTR _flt$[ebp], eax

; 2132 : 		if(flt)

	cmp	DWORD PTR _flt$[ebp], 0
	je	$LN2@SendTextTo

; 2133 : 		{
; 2134 : 			pkg=(Package)flt->GetUnitParent();

	mov	ecx, DWORD PTR _flt$[ebp]
	mov	edx, DWORD PTR [ecx]
	mov	ecx, DWORD PTR _flt$[ebp]
	mov	eax, DWORD PTR [edx+1008]
	call	eax
	mov	DWORD PTR _pkg$[ebp], eax

; 2135 : 			if(pkg && pkg->Id() == MyPackageID)

	cmp	DWORD PTR _pkg$[ebp], 0
	je	$LN2@SendTextTo
	lea	ecx, DWORD PTR _MyPackageID$[ebp]
	push	ecx
	lea	edx, DWORD PTR $T2[ebp]
	push	edx
	mov	ecx, DWORD PTR _pkg$[ebp]
	call	?Id@VuEntity@@QBE?AVVU_ID@@XZ		; VuEntity::Id
	mov	ecx, eax
	call	??8VU_ID@@QBE_NABV0@@Z			; VU_ID::operator==
	movzx	eax, al
	test	eax, eax
	je	$LN2@SendTextTo

; 2136 : 			{
; 2137 : 				chat=new UI_SendChatMessage(FalconNullId,session);

	push	62					; 0000003eH
	call	??2@YAPAXI@Z				; operator new
	add	esp, 4
	mov	DWORD PTR $T8[ebp], eax
	mov	BYTE PTR __$EHRec$[ebp+8], 1
	cmp	DWORD PTR $T8[ebp], 0
	je	SHORT $LN11@SendTextTo
	push	1
	mov	ecx, DWORD PTR _session$[ebp]
	push	ecx
	mov	edx, DWORD PTR ?FalconNullId@@3VVU_ID@@A+4
	push	edx
	mov	eax, DWORD PTR ?FalconNullId@@3VVU_ID@@A
	push	eax
	mov	ecx, DWORD PTR $T8[ebp]
	call	??0UI_SendChatMessage@@QAE@VVU_ID@@PAVVuTargetEntity@@E@Z ; UI_SendChatMessage::UI_SendChatMessage
	mov	DWORD PTR tv205[ebp], eax
	jmp	SHORT $LN12@SendTextTo
$LN11@SendTextTo:
	mov	DWORD PTR tv205[ebp], 0
$LN12@SendTextTo:
	mov	ecx, DWORD PTR tv205[ebp]
	mov	DWORD PTR $T7[ebp], ecx
	mov	BYTE PTR __$EHRec$[ebp+8], 0
	mov	edx, DWORD PTR $T7[ebp]
	mov	DWORD PTR _chat$[ebp], edx

; 2138 : 
; 2139 : 				chat->dataBlock.from=FalconLocalSessionId;

	mov	eax, DWORD PTR _chat$[ebp]
	mov	ecx, DWORD PTR ?vuLocalSession@@3VVU_ID@@A
	mov	DWORD PTR [eax+48], ecx
	mov	edx, DWORD PTR ?vuLocalSession@@3VVU_ID@@A+4
	mov	DWORD PTR [eax+52], edx

; 2140 : 				chat->dataBlock.size=static_cast<short>((strlen(chatterStr)+1)*sizeof(char));

	push	OFFSET ?chatterStr@@3PADA		; chatterStr
	call	_strlen
	add	esp, 4
	add	eax, 1
	mov	ecx, DWORD PTR _chat$[ebp]
	mov	WORD PTR [ecx+56], ax

; 2141 : 				chat->dataBlock.message=new char[chat->dataBlock.size];

	mov	edx, DWORD PTR _chat$[ebp]
	movsx	eax, WORD PTR [edx+56]
	push	eax
	call	??_U@YAPAXI@Z				; operator new[]
	add	esp, 4
	mov	DWORD PTR $T6[ebp], eax
	mov	ecx, DWORD PTR _chat$[ebp]
	mov	edx, DWORD PTR $T6[ebp]
	mov	DWORD PTR [ecx+58], edx

; 2142 : 				memcpy(chat->dataBlock.message,chatterStr,chat->dataBlock.size);

	mov	eax, DWORD PTR _chat$[ebp]
	movsx	ecx, WORD PTR [eax+56]
	push	ecx
	push	OFFSET ?chatterStr@@3PADA		; chatterStr
	mov	edx, DWORD PTR _chat$[ebp]
	mov	eax, DWORD PTR [edx+58]
	push	eax
	call	_memcpy
	add	esp, 12					; 0000000cH

; 2143 : 				FalconSendMessage(chat,TRUE);

	push	1
	mov	ecx, DWORD PTR _chat$[ebp]
	push	ecx
	call	?FalconSendMessage@@YAXPAVVuMessage@@H@Z ; FalconSendMessage
	add	esp, 8
$LN2@SendTextTo:

; 2144 : 			}
; 2145 : 		}
; 2146 : 		session = (FalconSessionEntity*)sessionWalker.GetNext();

	lea	ecx, DWORD PTR _sessionWalker$[ebp]
	call	?GetNext@VuSessionsIterator@@QAEPAVVuSessionEntity@@XZ ; VuSessionsIterator::GetNext
	mov	DWORD PTR _session$[ebp], eax

; 2147 : 	}

	jmp	$LN4@SendTextTo
$LN3@SendTextTo:

; 2148 : 
; 2149 : }

	mov	DWORD PTR __$EHRec$[ebp+8], -1
	lea	ecx, DWORD PTR _sessionWalker$[ebp]
	call	??1VuSessionsIterator@@UAE@XZ		; VuSessionsIterator::~VuSessionsIterator
$LN7@SendTextTo:
	mov	ecx, DWORD PTR __$EHRec$[ebp]
	mov	DWORD PTR fs:0, ecx
	pop	ecx
	mov	esp, ebp
	pop	ebp
	ret	0
_TEXT	ENDS
text$x	SEGMENT
__unwindfunclet$?SendTextToPackage@@YAXXZ$0:
	lea	ecx, DWORD PTR _sessionWalker$[ebp]
	jmp	??1VuSessionsIterator@@UAE@XZ		; VuSessionsIterator::~VuSessionsIterator
__unwindfunclet$?SendTextToPackage@@YAXXZ$1:
	mov	eax, DWORD PTR $T8[ebp]
	push	eax
	call	??3@YAXPAX@Z				; operator delete
	pop	ecx
	ret	0
__ehhandler$?SendTextToPackage@@YAXXZ:
	mov	edx, DWORD PTR [esp+8]
	lea	eax, DWORD PTR [edx+12]
	mov	ecx, DWORD PTR [edx-92]
	xor	ecx, eax
	call	@__security_check_cookie@4
	mov	eax, OFFSET __ehfuncinfo$?SendTextToPackage@@YAXXZ
	jmp	___CxxFrameHandler3
text$x	ENDS
?SendTextToPackage@@YAXXZ ENDP				; SendTextToPackage
; Function compile flags: /Odtp
; File c:\users\zhitao li\documents\visual studio 2012\projects\freefalcon\ui\src\comms\ui_comms.cpp
_TEXT	SEGMENT
_sessionWalker$ = -68					; size = 12
$T2 = -56						; size = 8
$T3 = -48						; size = 8
$T4 = -40						; size = 4
$T5 = -36						; size = 4
tv155 = -32						; size = 4
$T6 = -28						; size = 4
tv81 = -24						; size = 4
_session$ = -20						; size = 4
_chat$ = -16						; size = 4
__$EHRec$ = -12						; size = 12
?SendTextToFlight@@YAXXZ PROC				; SendTextToFlight

; 2087 : {

	push	ebp
	mov	ebp, esp
	push	-1
	push	__ehhandler$?SendTextToFlight@@YAXXZ
	mov	eax, DWORD PTR fs:0
	push	eax
	sub	esp, 56					; 00000038H
	mov	eax, DWORD PTR ___security_cookie
	xor	eax, ebp
	push	eax
	lea	eax, DWORD PTR __$EHRec$[ebp]
	mov	DWORD PTR fs:0, eax

; 2088 : 	VuSessionsIterator sessionWalker(FalconLocalGame);

	mov	ecx, OFFSET ?vuLocalSessionEntity@@3V?$VuBin@VVuSessionEntity@@@@A ; vuLocalSessionEntity
	call	??B?$VuBin@VVuSessionEntity@@@@QBE_NXZ	; VuBin<VuSessionEntity>::operator bool
	movzx	eax, al
	test	eax, eax
	je	SHORT $LN6@SendTextTo
	mov	ecx, OFFSET ?vuLocalSessionEntity@@3V?$VuBin@VVuSessionEntity@@@@A ; vuLocalSessionEntity
	call	?get@?$VuBin@VVuSessionEntity@@@@QBEPAVVuSessionEntity@@XZ ; VuBin<VuSessionEntity>::get
	mov	ecx, eax
	call	?GetGame@FalconSessionEntity@@QAEPAVFalconGameEntity@@XZ ; FalconSessionEntity::GetGame
	mov	DWORD PTR tv81[ebp], eax
	jmp	SHORT $LN7@SendTextTo
$LN6@SendTextTo:
	mov	DWORD PTR tv81[ebp], 0
$LN7@SendTextTo:
	mov	ecx, DWORD PTR tv81[ebp]
	push	ecx
	lea	ecx, DWORD PTR _sessionWalker$[ebp]
	call	??0VuSessionsIterator@@QAE@PAVVuGroupEntity@@@Z ; VuSessionsIterator::VuSessionsIterator
	mov	DWORD PTR __$EHRec$[ebp+8], 0

; 2089 : 	FalconSessionEntity *session;
; 2090 : 	UI_SendChatMessage *chat;
; 2091 : 
; 2092 : 	session = (FalconSessionEntity*)sessionWalker.GetFirst();

	lea	ecx, DWORD PTR _sessionWalker$[ebp]
	call	?GetFirst@VuSessionsIterator@@QAEPAVVuSessionEntity@@XZ ; VuSessionsIterator::GetFirst
	mov	DWORD PTR _session$[ebp], eax
$LN3@SendTextTo:

; 2093 : 	while(session)

	cmp	DWORD PTR _session$[ebp], 0
	je	$LN2@SendTextTo

; 2094 : 	{
; 2095 : 		if(session->GetPlayerFlightID() == FalconLocalSession->GetPlayerFlightID())

	lea	edx, DWORD PTR $T3[ebp]
	push	edx
	mov	ecx, OFFSET ?vuLocalSessionEntity@@3V?$VuBin@VVuSessionEntity@@@@A ; vuLocalSessionEntity
	call	?get@?$VuBin@VVuSessionEntity@@@@QBEPAVVuSessionEntity@@XZ ; VuBin<VuSessionEntity>::get
	mov	ecx, eax
	call	?GetPlayerFlightID@FalconSessionEntity@@QBE?AVVU_ID@@XZ ; FalconSessionEntity::GetPlayerFlightID
	push	eax
	lea	eax, DWORD PTR $T2[ebp]
	push	eax
	mov	ecx, DWORD PTR _session$[ebp]
	call	?GetPlayerFlightID@FalconSessionEntity@@QBE?AVVU_ID@@XZ ; FalconSessionEntity::GetPlayerFlightID
	mov	ecx, eax
	call	??8VU_ID@@QBE_NABV0@@Z			; VU_ID::operator==
	movzx	ecx, al
	test	ecx, ecx
	je	$LN1@SendTextTo

; 2096 : 		{
; 2097 : 			chat=new UI_SendChatMessage(FalconNullId,session);

	push	62					; 0000003eH
	call	??2@YAPAXI@Z				; operator new
	add	esp, 4
	mov	DWORD PTR $T6[ebp], eax
	mov	BYTE PTR __$EHRec$[ebp+8], 1
	cmp	DWORD PTR $T6[ebp], 0
	je	SHORT $LN8@SendTextTo
	push	1
	mov	edx, DWORD PTR _session$[ebp]
	push	edx
	mov	eax, DWORD PTR ?FalconNullId@@3VVU_ID@@A+4
	push	eax
	mov	ecx, DWORD PTR ?FalconNullId@@3VVU_ID@@A
	push	ecx
	mov	ecx, DWORD PTR $T6[ebp]
	call	??0UI_SendChatMessage@@QAE@VVU_ID@@PAVVuTargetEntity@@E@Z ; UI_SendChatMessage::UI_SendChatMessage
	mov	DWORD PTR tv155[ebp], eax
	jmp	SHORT $LN9@SendTextTo
$LN8@SendTextTo:
	mov	DWORD PTR tv155[ebp], 0
$LN9@SendTextTo:
	mov	edx, DWORD PTR tv155[ebp]
	mov	DWORD PTR $T5[ebp], edx
	mov	BYTE PTR __$EHRec$[ebp+8], 0
	mov	eax, DWORD PTR $T5[ebp]
	mov	DWORD PTR _chat$[ebp], eax

; 2098 : 
; 2099 : 			chat->dataBlock.from=FalconLocalSessionId;

	mov	ecx, DWORD PTR _chat$[ebp]
	mov	edx, DWORD PTR ?vuLocalSession@@3VVU_ID@@A
	mov	DWORD PTR [ecx+48], edx
	mov	eax, DWORD PTR ?vuLocalSession@@3VVU_ID@@A+4
	mov	DWORD PTR [ecx+52], eax

; 2100 : 			chat->dataBlock.size=static_cast<short>((strlen(chatterStr)+1)*sizeof(char));

	push	OFFSET ?chatterStr@@3PADA		; chatterStr
	call	_strlen
	add	esp, 4
	add	eax, 1
	mov	ecx, DWORD PTR _chat$[ebp]
	mov	WORD PTR [ecx+56], ax

; 2101 : 			chat->dataBlock.message=new char[chat->dataBlock.size];

	mov	edx, DWORD PTR _chat$[ebp]
	movsx	eax, WORD PTR [edx+56]
	push	eax
	call	??_U@YAPAXI@Z				; operator new[]
	add	esp, 4
	mov	DWORD PTR $T4[ebp], eax
	mov	ecx, DWORD PTR _chat$[ebp]
	mov	edx, DWORD PTR $T4[ebp]
	mov	DWORD PTR [ecx+58], edx

; 2102 : 			memcpy(chat->dataBlock.message,chatterStr,chat->dataBlock.size);

	mov	eax, DWORD PTR _chat$[ebp]
	movsx	ecx, WORD PTR [eax+56]
	push	ecx
	push	OFFSET ?chatterStr@@3PADA		; chatterStr
	mov	edx, DWORD PTR _chat$[ebp]
	mov	eax, DWORD PTR [edx+58]
	push	eax
	call	_memcpy
	add	esp, 12					; 0000000cH

; 2103 : 			FalconSendMessage(chat,TRUE);

	push	1
	mov	ecx, DWORD PTR _chat$[ebp]
	push	ecx
	call	?FalconSendMessage@@YAXPAVVuMessage@@H@Z ; FalconSendMessage
	add	esp, 8
$LN1@SendTextTo:

; 2104 : 		}
; 2105 : 		session = (FalconSessionEntity*)sessionWalker.GetNext();

	lea	ecx, DWORD PTR _sessionWalker$[ebp]
	call	?GetNext@VuSessionsIterator@@QAEPAVVuSessionEntity@@XZ ; VuSessionsIterator::GetNext
	mov	DWORD PTR _session$[ebp], eax

; 2106 : 	}

	jmp	$LN3@SendTextTo
$LN2@SendTextTo:

; 2107 : }

	mov	DWORD PTR __$EHRec$[ebp+8], -1
	lea	ecx, DWORD PTR _sessionWalker$[ebp]
	call	??1VuSessionsIterator@@UAE@XZ		; VuSessionsIterator::~VuSessionsIterator
	mov	ecx, DWORD PTR __$EHRec$[ebp]
	mov	DWORD PTR fs:0, ecx
	pop	ecx
	mov	esp, ebp
	pop	ebp
	ret	0
_TEXT	ENDS
text$x	SEGMENT
__unwindfunclet$?SendTextToFlight@@YAXXZ$0:
	lea	ecx, DWORD PTR _sessionWalker$[ebp]
	jmp	??1VuSessionsIterator@@UAE@XZ		; VuSessionsIterator::~VuSessionsIterator
__unwindfunclet$?SendTextToFlight@@YAXXZ$1:
	mov	eax, DWORD PTR $T6[ebp]
	push	eax
	call	??3@YAXPAX@Z				; operator delete
	pop	ecx
	ret	0
__ehhandler$?SendTextToFlight@@YAXXZ:
	mov	edx, DWORD PTR [esp+8]
	lea	eax, DWORD PTR [edx+12]
	mov	ecx, DWORD PTR [edx-60]
	xor	ecx, eax
	call	@__security_check_cookie@4
	mov	eax, OFFSET __ehfuncinfo$?SendTextToFlight@@YAXXZ
	jmp	___CxxFrameHandler3
text$x	ENDS
?SendTextToFlight@@YAXXZ ENDP				; SendTextToFlight
; Function compile flags: /Odtp
; File c:\users\zhitao li\documents\visual studio 2012\projects\freefalcon\ui\src\comms\ui_comms.cpp
_TEXT	SEGMENT
_Leave$ = -20						; size = 4
_pic$ = -16						; size = 4
_pat$ = -12						; size = 4
_win$ = -8						; size = 4
_remlb$ = -4						; size = 4
_playerID$ = 8						; size = 4
?ViewRemoteLogbook@@YAXJ@Z PROC				; ViewRemoteLogbook

; 2046 : {

	push	ebp
	mov	ebp, esp
	sub	esp, 20					; 00000014H

; 2047 : 	F4CSECTIONHANDLE *Leave;
; 2048 : 	C_Window *win;
; 2049 : 	RemoteLB *remlb;
; 2050 : 	IMAGE_RSC *pic,*pat;
; 2051 : 
; 2052 : 	win=gMainHandler->FindWindow(LOG_WIN);

	push	50035					; 0000c373H
	mov	ecx, DWORD PTR ?gMainHandler@@3PAVC_Handler@@A ; gMainHandler
	call	?FindWindowA@C_Handler@@QAEPAVC_Window@@J@Z ; C_Handler::FindWindowA
	mov	DWORD PTR _win$[ebp], eax

; 2053 : 	if(win)

	cmp	DWORD PTR _win$[ebp], 0
	je	$LN7@ViewRemote

; 2054 : 	{
; 2055 : 		Leave=UI_Enter(win);

	mov	eax, DWORD PTR _win$[ebp]
	push	eax
	call	?UI_Enter@@YAPAUF4CSECTIONHANDLE@@PAVC_Window@@@Z ; UI_Enter
	add	esp, 4
	mov	DWORD PTR _Leave$[ebp], eax

; 2056 : 
; 2057 : 		remlb=(RemoteLB*)gCommsMgr->GetRemoteLB(playerID);

	mov	ecx, DWORD PTR _playerID$[ebp]
	push	ecx
	mov	ecx, DWORD PTR ?gCommsMgr@@3PAVUIComms@@A ; gCommsMgr
	call	?GetRemoteLB@UIComms@@QAEPAXJ@Z		; UIComms::GetRemoteLB
	mov	DWORD PTR _remlb$[ebp], eax

; 2058 : 		if(remlb)

	cmp	DWORD PTR _remlb$[ebp], 0
	je	$LN5@ViewRemote

; 2059 : 		{
; 2060 : 			if(remlb->Pilot_.PictureResource)

	mov	edx, DWORD PTR _remlb$[ebp]
	cmp	DWORD PTR [edx+152], 0
	je	SHORT $LN4@ViewRemote

; 2061 : 			{
; 2062 : 				pic=gImageMgr->GetImage(remlb->Pilot_.PictureResource);

	mov	eax, DWORD PTR _remlb$[ebp]
	mov	ecx, DWORD PTR [eax+152]
	push	ecx
	mov	ecx, DWORD PTR ?gImageMgr@@3PAVC_Image@@A ; gImageMgr
	call	?GetImage@C_Image@@QAEPAVIMAGE_RSC@@J@Z	; C_Image::GetImage
	mov	DWORD PTR _pic$[ebp], eax

; 2063 : 			}
; 2064 : 			else

	jmp	SHORT $LN3@ViewRemote
$LN4@ViewRemote:

; 2065 : 			{
; 2066 : 				pic=NULL;

	mov	DWORD PTR _pic$[ebp], 0
$LN3@ViewRemote:

; 2067 : 			}
; 2068 : 
; 2069 : 			if(remlb->Pilot_.PatchResource)

	mov	edx, DWORD PTR _remlb$[ebp]
	cmp	DWORD PTR [edx+192], 0
	je	SHORT $LN2@ViewRemote

; 2070 : 			{
; 2071 : 				pat=gImageMgr->GetImage(remlb->Pilot_.PatchResource);

	mov	eax, DWORD PTR _remlb$[ebp]
	mov	ecx, DWORD PTR [eax+192]
	push	ecx
	mov	ecx, DWORD PTR ?gImageMgr@@3PAVC_Image@@A ; gImageMgr
	call	?GetImage@C_Image@@QAEPAVIMAGE_RSC@@J@Z	; C_Image::GetImage
	mov	DWORD PTR _pat$[ebp], eax

; 2072 : 			}
; 2073 : 			else

	jmp	SHORT $LN1@ViewRemote
$LN2@ViewRemote:

; 2074 : 			{
; 2075 : 				pat=NULL;

	mov	DWORD PTR _pat$[ebp], 0
$LN1@ViewRemote:

; 2076 : 			}
; 2077 : 
; 2078 : 			DisplayLogbook(&remlb->Pilot_,pic,pat,FALSE);

	push	0
	mov	edx, DWORD PTR _pat$[ebp]
	push	edx
	mov	eax, DWORD PTR _pic$[ebp]
	push	eax
	mov	ecx, DWORD PTR _remlb$[ebp]
	add	ecx, 4
	push	ecx
	call	?DisplayLogbook@@YAXPAUPilot@@PAVIMAGE_RSC@@1H@Z ; DisplayLogbook
	add	esp, 16					; 00000010H

; 2079 : 			gMainHandler->ShowWindow(win);

	mov	edx, DWORD PTR _win$[ebp]
	push	edx
	mov	ecx, DWORD PTR ?gMainHandler@@3PAVC_Handler@@A ; gMainHandler
	call	?ShowWindow@C_Handler@@QAEHPAVC_Window@@@Z ; C_Handler::ShowWindow

; 2080 : 			gMainHandler->WindowToFront(win);

	mov	eax, DWORD PTR _win$[ebp]
	push	eax
	mov	ecx, DWORD PTR ?gMainHandler@@3PAVC_Handler@@A ; gMainHandler
	call	?WindowToFront@C_Handler@@QAEXPAVC_Window@@@Z ; C_Handler::WindowToFront
$LN5@ViewRemote:

; 2081 : 		}
; 2082 : 		UI_Leave(Leave);

	mov	ecx, DWORD PTR _Leave$[ebp]
	push	ecx
	call	?UI_Leave@@YAXPAUF4CSECTIONHANDLE@@@Z	; UI_Leave
	add	esp, 4
$LN7@ViewRemote:

; 2083 : 	}
; 2084 : }

	mov	esp, ebp
	pop	ebp
	ret	0
?ViewRemoteLogbook@@YAXJ@Z ENDP				; ViewRemoteLogbook
_TEXT	ENDS
; Function compile flags: /Odtp
; File c:\users\zhitao li\documents\visual studio 2012\projects\freefalcon\ui\src\comms\ui_comms.cpp
_TEXT	SEGMENT
_sessionWalker$ = -32					; size = 12
tv81 = -20						; size = 4
_session$ = -16						; size = 4
__$EHRec$ = -12						; size = 12
___formal$ = 8						; size = 4
_hittype$ = 12						; size = 2
_control$ = 16						; size = 4
?SelectChatFilterCB@@YAXJFPAVC_Base@@@Z PROC		; SelectChatFilterCB

; 2001 : {

	push	ebp
	mov	ebp, esp
	push	-1
	push	__ehhandler$?SelectChatFilterCB@@YAXJFPAVC_Base@@@Z
	mov	eax, DWORD PTR fs:0
	push	eax
	sub	esp, 20					; 00000014H
	mov	eax, DWORD PTR ___security_cookie
	xor	eax, ebp
	push	eax
	lea	eax, DWORD PTR __$EHRec$[ebp]
	mov	DWORD PTR fs:0, eax

; 2002 : 	VuSessionsIterator sessionWalker(FalconLocalGame);

	mov	ecx, OFFSET ?vuLocalSessionEntity@@3V?$VuBin@VVuSessionEntity@@@@A ; vuLocalSessionEntity
	call	??B?$VuBin@VVuSessionEntity@@@@QBE_NXZ	; VuBin<VuSessionEntity>::operator bool
	movzx	eax, al
	test	eax, eax
	je	SHORT $LN6@SelectChat
	mov	ecx, OFFSET ?vuLocalSessionEntity@@3V?$VuBin@VVuSessionEntity@@@@A ; vuLocalSessionEntity
	call	?get@?$VuBin@VVuSessionEntity@@@@QBEPAVVuSessionEntity@@XZ ; VuBin<VuSessionEntity>::get
	mov	ecx, eax
	call	?GetGame@FalconSessionEntity@@QAEPAVFalconGameEntity@@XZ ; FalconSessionEntity::GetGame
	mov	DWORD PTR tv81[ebp], eax
	jmp	SHORT $LN7@SelectChat
$LN6@SelectChat:
	mov	DWORD PTR tv81[ebp], 0
$LN7@SelectChat:
	mov	ecx, DWORD PTR tv81[ebp]
	push	ecx
	lea	ecx, DWORD PTR _sessionWalker$[ebp]
	call	??0VuSessionsIterator@@QAE@PAVVuGroupEntity@@@Z ; VuSessionsIterator::VuSessionsIterator
	mov	DWORD PTR __$EHRec$[ebp+8], 0

; 2003 : 	FalconSessionEntity *session;
; 2004 : 
; 2005 : 	if(hittype != C_TYPE_LMOUSEUP)

	movsx	edx, WORD PTR _hittype$[ebp]
	cmp	edx, 52					; 00000034H
	je	SHORT $LN3@SelectChat

; 2006 : 		return;

	mov	DWORD PTR __$EHRec$[ebp+8], -1
	lea	ecx, DWORD PTR _sessionWalker$[ebp]
	call	??1VuSessionsIterator@@UAE@XZ		; VuSessionsIterator::~VuSessionsIterator
	jmp	SHORT $LN4@SelectChat
$LN3@SelectChat:

; 2007 : 
; 2008 : 	PeopleChatType=static_cast<short>(control->GetCluster()); // 1=All,2=team,3=package,4=flight

	mov	ecx, DWORD PTR _control$[ebp]
	call	?GetCluster@C_Base@@QAEJXZ		; C_Base::GetCluster
	mov	WORD PTR _PeopleChatType, ax

; 2009 : 
; 2010 : 	session = (FalconSessionEntity*)sessionWalker.GetFirst();

	lea	ecx, DWORD PTR _sessionWalker$[ebp]
	call	?GetFirst@VuSessionsIterator@@QAEPAVVuSessionEntity@@XZ ; VuSessionsIterator::GetFirst
	mov	DWORD PTR _session$[ebp], eax
$LN2@SelectChat:

; 2011 : 	while(session)

	cmp	DWORD PTR _session$[ebp], 0
	je	SHORT $LN1@SelectChat

; 2012 : 	{
; 2013 : 		CheckChatFilters(session);

	mov	eax, DWORD PTR _session$[ebp]
	push	eax
	call	?CheckChatFilters@@YAXPAVFalconSessionEntity@@@Z ; CheckChatFilters
	add	esp, 4

; 2014 : 		session = (FalconSessionEntity*)sessionWalker.GetNext();

	lea	ecx, DWORD PTR _sessionWalker$[ebp]
	call	?GetNext@VuSessionsIterator@@QAEPAVVuSessionEntity@@XZ ; VuSessionsIterator::GetNext
	mov	DWORD PTR _session$[ebp], eax

; 2015 : 	}

	jmp	SHORT $LN2@SelectChat
$LN1@SelectChat:

; 2016 : 
; 2017 : }

	mov	DWORD PTR __$EHRec$[ebp+8], -1
	lea	ecx, DWORD PTR _sessionWalker$[ebp]
	call	??1VuSessionsIterator@@UAE@XZ		; VuSessionsIterator::~VuSessionsIterator
$LN4@SelectChat:
	mov	ecx, DWORD PTR __$EHRec$[ebp]
	mov	DWORD PTR fs:0, ecx
	pop	ecx
	mov	esp, ebp
	pop	ebp
	ret	0
_TEXT	ENDS
text$x	SEGMENT
__unwindfunclet$?SelectChatFilterCB@@YAXJFPAVC_Base@@@Z$0:
	lea	ecx, DWORD PTR _sessionWalker$[ebp]
	jmp	??1VuSessionsIterator@@UAE@XZ		; VuSessionsIterator::~VuSessionsIterator
__ehhandler$?SelectChatFilterCB@@YAXJFPAVC_Base@@@Z:
	mov	edx, DWORD PTR [esp+8]
	lea	eax, DWORD PTR [edx+12]
	mov	ecx, DWORD PTR [edx-24]
	xor	ecx, eax
	call	@__security_check_cookie@4
	mov	eax, OFFSET __ehfuncinfo$?SelectChatFilterCB@@YAXJFPAVC_Base@@@Z
	jmp	___CxxFrameHandler3
text$x	ENDS
?SelectChatFilterCB@@YAXJFPAVC_Base@@@Z ENDP		; SelectChatFilterCB
; Function compile flags: /Odtp
; File c:\users\zhitao li\documents\visual studio 2012\projects\freefalcon\ui\src\comms\ui_comms.cpp
_TEXT	SEGMENT
_item$ = -8						; size = 4
_player$ = -4						; size = 4
___formal$ = 8						; size = 4
_hittype$ = 12						; size = 2
___formal$ = 16						; size = 4
?PeopleSelectCB@@YAXJFPAVC_Base@@@Z PROC		; PeopleSelectCB

; 1981 : {

	push	ebp
	mov	ebp, esp
	sub	esp, 8

; 1982 : 	TREELIST *item;
; 1983 : 	C_Player *player;
; 1984 : 
; 1985 : 	if(hittype != C_TYPE_LMOUSEUP || !People)

	movsx	eax, WORD PTR _hittype$[ebp]
	cmp	eax, 52					; 00000034H
	jne	SHORT $LN3@PeopleSele
	cmp	DWORD PTR ?People@@3PAVC_TreeList@@A, 0	; People
	jne	SHORT $LN4@PeopleSele
$LN3@PeopleSele:

; 1986 : 		return;

	jmp	SHORT $LN5@PeopleSele
$LN4@PeopleSele:

; 1987 : 
; 1988 : 	item=People->GetLastItem();

	mov	ecx, DWORD PTR ?People@@3PAVC_TreeList@@A ; People
	call	?GetLastItem@C_TreeList@@QAEPAVTREELIST@@XZ ; C_TreeList::GetLastItem
	mov	DWORD PTR _item$[ebp], eax

; 1989 : 	if(item->Type_ != C_TYPE_ITEM)

	mov	ecx, DWORD PTR _item$[ebp]
	cmp	DWORD PTR [ecx+4], 50			; 00000032H
	je	SHORT $LN2@PeopleSele

; 1990 : 		return;

	jmp	SHORT $LN5@PeopleSele
$LN2@PeopleSele:

; 1991 : 
; 1992 : 	player=(C_Player*)item->Item_;

	mov	edx, DWORD PTR _item$[ebp]
	mov	eax, DWORD PTR [edx+20]
	mov	DWORD PTR _player$[ebp], eax

; 1993 : 	if(!player)

	cmp	DWORD PTR _player$[ebp], 0
	jne	SHORT $LN1@PeopleSele

; 1994 : 		return;

	jmp	SHORT $LN5@PeopleSele
$LN1@PeopleSele:

; 1995 : 
; 1996 : 	player->SetState(static_cast<short>(player->GetState()^1));

	mov	ecx, DWORD PTR _player$[ebp]
	mov	edx, DWORD PTR [ecx]
	mov	ecx, DWORD PTR _player$[ebp]
	mov	eax, DWORD PTR [edx+112]
	call	eax
	movsx	ecx, ax
	xor	ecx, 1
	push	ecx
	mov	edx, DWORD PTR _player$[ebp]
	mov	eax, DWORD PTR [edx]
	mov	ecx, DWORD PTR _player$[ebp]
	mov	edx, DWORD PTR [eax+56]
	call	edx

; 1997 : 	player->Refresh();

	mov	eax, DWORD PTR _player$[ebp]
	mov	edx, DWORD PTR [eax]
	mov	ecx, DWORD PTR _player$[ebp]
	mov	eax, DWORD PTR [edx+160]
	call	eax
$LN5@PeopleSele:

; 1998 : }

	mov	esp, ebp
	pop	ebp
	ret	0
?PeopleSelectCB@@YAXJFPAVC_Base@@@Z ENDP		; PeopleSelectCB
_TEXT	ENDS
; Function compile flags: /Odtp
; File c:\users\zhitao li\documents\visual studio 2012\projects\freefalcon\ui\src\comms\ui_comms.cpp
_TEXT	SEGMENT
$T1 = -84						; size = 8
$T2 = -76						; size = 8
$T3 = -68						; size = 8
$T4 = -60						; size = 8
tv266 = -52						; size = 4
tv193 = -48						; size = 4
_gamelist$ = -44					; size = 4
_player$ = -40						; size = 4
tv270 = -36						; size = 4
tv197 = -32						; size = 4
tv81 = -28						; size = 4
tv69 = -24						; size = 4
_gametype$ = -20					; size = 4
_session$ = -16						; size = 4
_game$ = -12						; size = 4
_q$ = -8						; size = 4
_theTree$ = -4						; size = 4
?UI_UpdateGameList@@YAXXZ PROC				; UI_UpdateGameList

; 1793 : {

	push	ebp
	mov	ebp, esp
	sub	esp, 84					; 00000054H

; 1794 : 	QUEUEITEM *q;
; 1795 : 	FalconGameEntity *game;
; 1796 : 	FalconSessionEntity *session;
; 1797 : 	TREELIST *gamelist,*player;
; 1798 : 	C_TreeList *theTree;
; 1799 : 	FalconGameType gametype;
; 1800 : 
; 1801 : 	if(!gUICommsQ)

	cmp	DWORD PTR ?gUICommsQ@@3PAVCommsQueue@@A, 0 ; gUICommsQ
	jne	SHORT $LN50@UI_UpdateG

; 1802 : 		return;

	jmp	$LN51@UI_UpdateG
$LN50@UI_UpdateG:

; 1803 : 
; 1804 : 	q=gUICommsQ->Root_;

	mov	eax, DWORD PTR ?gUICommsQ@@3PAVCommsQueue@@A ; gUICommsQ
	mov	ecx, DWORD PTR [eax+4]
	mov	DWORD PTR _q$[ebp], ecx
$LN49@UI_UpdateG:

; 1805 : 	while(q)

	cmp	DWORD PTR _q$[ebp], 0
	je	$LN51@UI_UpdateG

; 1806 : 	{
; 1807 : 		switch(q->Type)

	mov	edx, DWORD PTR _q$[ebp]
	movsx	eax, WORD PTR [edx+16]
	mov	DWORD PTR tv69[ebp], eax
	mov	ecx, DWORD PTR tv69[ebp]
	sub	ecx, 1
	mov	DWORD PTR tv69[ebp], ecx
	cmp	DWORD PTR tv69[ebp], 5
	ja	$LN46@UI_UpdateG
	mov	edx, DWORD PTR tv69[ebp]
	jmp	DWORD PTR $LN57@UI_UpdateG[edx*4]
$LN45@UI_UpdateG:

; 1808 : 		{
; 1809 : 			case _Q_GAME_ADD_:
; 1810 : 				game=(FalconGameEntity*)vuDatabase->Find(q->GameID);

	mov	eax, DWORD PTR _q$[ebp]
	mov	ecx, DWORD PTR [eax+12]
	push	ecx
	mov	edx, DWORD PTR [eax+8]
	push	edx
	mov	ecx, DWORD PTR ?vuDatabase@@3PAVVuDatabase@@A ; vuDatabase
	call	?Find@VuDatabase@@QBEPAVVuEntity@@VVU_ID@@@Z ; VuDatabase::Find
	mov	DWORD PTR _game$[ebp], eax

; 1811 : 				if(game)

	cmp	DWORD PTR _game$[ebp], 0
	je	$LN44@UI_UpdateG

; 1812 : 				{
; 1813 : 					gametype=game->GetGameType();

	mov	ecx, DWORD PTR _game$[ebp]
	call	?GetGameType@FalconGameEntity@@QAE?AW4FalconGameType@@XZ ; FalconGameEntity::GetGameType
	mov	DWORD PTR _gametype$[ebp], eax

; 1814 : 					switch(gametype)

	mov	eax, DWORD PTR _gametype$[ebp]
	mov	DWORD PTR tv81[ebp], eax
	cmp	DWORD PTR tv81[ebp], 2
	je	SHORT $LN41@UI_UpdateG
	cmp	DWORD PTR tv81[ebp], 3
	je	SHORT $LN40@UI_UpdateG
	cmp	DWORD PTR tv81[ebp], 4
	je	SHORT $LN39@UI_UpdateG
	jmp	SHORT $LN38@UI_UpdateG
$LN41@UI_UpdateG:

; 1815 : 					{
; 1816 : 						case game_Dogfight:
; 1817 : 							theTree=DogfightGames;

	mov	ecx, DWORD PTR ?DogfightGames@@3PAVC_TreeList@@A ; DogfightGames
	mov	DWORD PTR _theTree$[ebp], ecx

; 1818 : 							break;

	jmp	SHORT $LN42@UI_UpdateG
$LN40@UI_UpdateG:

; 1819 : 						case game_TacticalEngagement:
; 1820 : 							theTree=TacticalGames;

	mov	edx, DWORD PTR ?TacticalGames@@3PAVC_TreeList@@A ; TacticalGames
	mov	DWORD PTR _theTree$[ebp], edx

; 1821 : 							break;

	jmp	SHORT $LN42@UI_UpdateG
$LN39@UI_UpdateG:

; 1822 : 						case game_Campaign:
; 1823 : 							theTree=CampaignGames;

	mov	eax, DWORD PTR ?CampaignGames@@3PAVC_TreeList@@A ; CampaignGames
	mov	DWORD PTR _theTree$[ebp], eax

; 1824 : 							break;

	jmp	SHORT $LN42@UI_UpdateG
$LN38@UI_UpdateG:

; 1825 : 						default:
; 1826 : 							theTree=NULL;

	mov	DWORD PTR _theTree$[ebp], 0
$LN42@UI_UpdateG:

; 1827 : 							break;
; 1828 : 					}
; 1829 : 					if(theTree)

	cmp	DWORD PTR _theTree$[ebp], 0
	je	SHORT $LN44@UI_UpdateG

; 1830 : 					{
; 1831 : 						// Add to Game's TreeList
; 1832 : 						UpdateGameTreeBranch(gametype,game,theTree,theTree->GetRoot(),FALSE);

	push	0
	mov	ecx, DWORD PTR _theTree$[ebp]
	call	?GetRoot@C_TreeList@@QAEPAVTREELIST@@XZ	; C_TreeList::GetRoot
	push	eax
	mov	ecx, DWORD PTR _theTree$[ebp]
	push	ecx
	mov	edx, DWORD PTR _game$[ebp]
	push	edx
	mov	eax, DWORD PTR _gametype$[ebp]
	push	eax
	call	?UpdateGameTreeBranch@@YAXJPAVVuGameEntity@@PAVC_TreeList@@PAVTREELIST@@H@Z ; UpdateGameTreeBranch
	add	esp, 20					; 00000014H

; 1833 : 						theTree->RecalcSize();

	mov	ecx, DWORD PTR _theTree$[ebp]
	call	?RecalcSize@C_TreeList@@QAEXXZ		; C_TreeList::RecalcSize

; 1834 : 						if(theTree->GetParent())

	mov	ecx, DWORD PTR _theTree$[ebp]
	call	?GetParent@C_Base@@QAEPAVC_Window@@XZ	; C_Base::GetParent
	test	eax, eax
	je	SHORT $LN44@UI_UpdateG

; 1835 : 							theTree->GetParent()->RefreshClient(theTree->GetClient());

	mov	ecx, DWORD PTR _theTree$[ebp]
	call	?GetClient@C_Base@@QAEFXZ		; C_Base::GetClient
	movsx	ecx, ax
	push	ecx
	mov	ecx, DWORD PTR _theTree$[ebp]
	call	?GetParent@C_Base@@QAEPAVC_Window@@XZ	; C_Base::GetParent
	mov	ecx, eax
	call	?RefreshClient@C_Window@@QAEXJ@Z	; C_Window::RefreshClient
$LN44@UI_UpdateG:

; 1836 : 					}
; 1837 : 				}
; 1838 : 				break;

	jmp	$LN46@UI_UpdateG
$LN35@UI_UpdateG:

; 1839 : 			case _Q_GAME_REMOVE_:
; 1840 : 				RemoveFromTree(DogfightGames,q->GameID);

	mov	edx, DWORD PTR _q$[ebp]
	mov	eax, DWORD PTR [edx+12]
	push	eax
	mov	ecx, DWORD PTR [edx+8]
	push	ecx
	mov	edx, DWORD PTR ?DogfightGames@@3PAVC_TreeList@@A ; DogfightGames
	push	edx
	call	?RemoveFromTree@@YAXPAVC_TreeList@@VVU_ID@@@Z ; RemoveFromTree
	add	esp, 12					; 0000000cH

; 1841 : 				RemoveFromTree(TacticalGames,q->GameID);

	mov	eax, DWORD PTR _q$[ebp]
	mov	ecx, DWORD PTR [eax+12]
	push	ecx
	mov	edx, DWORD PTR [eax+8]
	push	edx
	mov	eax, DWORD PTR ?TacticalGames@@3PAVC_TreeList@@A ; TacticalGames
	push	eax
	call	?RemoveFromTree@@YAXPAVC_TreeList@@VVU_ID@@@Z ; RemoveFromTree
	add	esp, 12					; 0000000cH

; 1842 : 				RemoveFromTree(CampaignGames,q->GameID);

	mov	ecx, DWORD PTR _q$[ebp]
	mov	edx, DWORD PTR [ecx+12]
	push	edx
	mov	eax, DWORD PTR [ecx+8]
	push	eax
	mov	ecx, DWORD PTR ?CampaignGames@@3PAVC_TreeList@@A ; CampaignGames
	push	ecx
	call	?RemoveFromTree@@YAXPAVC_TreeList@@VVU_ID@@@Z ; RemoveFromTree
	add	esp, 12					; 0000000cH

; 1843 : 
; 1844 : 				// Remove game from gCommsMgr... if current
; 1845 : 				if(q->GameID == gCommsMgr->GetTargetGameID())

	lea	edx, DWORD PTR $T4[ebp]
	push	edx
	mov	ecx, DWORD PTR ?gCommsMgr@@3PAVUIComms@@A ; gCommsMgr
	call	?GetTargetGameID@UIComms@@QAE?AVVU_ID@@XZ ; UIComms::GetTargetGameID
	push	eax
	mov	ecx, DWORD PTR _q$[ebp]
	add	ecx, 8
	call	??8VU_ID@@QBE_NABV0@@Z			; VU_ID::operator==
	movzx	eax, al
	test	eax, eax
	je	SHORT $LN34@UI_UpdateG

; 1846 : 				{
; 1847 : 					gCommsMgr->LookAtGame(NULL);

	push	0
	mov	ecx, DWORD PTR ?gCommsMgr@@3PAVUIComms@@A ; gCommsMgr
	call	?LookAtGame@UIComms@@QAEHPAVVuGameEntity@@@Z ; UIComms::LookAtGame

; 1848 : 					ClearDFTeamLists();

	call	?ClearDFTeamLists@@YAXXZ		; ClearDFTeamLists
$LN34@UI_UpdateG:

; 1849 : 				}
; 1850 : 				break;

	jmp	$LN46@UI_UpdateG
$LN33@UI_UpdateG:

; 1851 : 			case _Q_GAME_UPDATE_:
; 1852 : 				game=(FalconGameEntity*)vuDatabase->Find(q->GameID);

	mov	ecx, DWORD PTR _q$[ebp]
	mov	edx, DWORD PTR [ecx+12]
	push	edx
	mov	eax, DWORD PTR [ecx+8]
	push	eax
	mov	ecx, DWORD PTR ?vuDatabase@@3PAVVuDatabase@@A ; vuDatabase
	call	?Find@VuDatabase@@QBEPAVVuEntity@@VVU_ID@@@Z ; VuDatabase::Find
	mov	DWORD PTR _game$[ebp], eax

; 1853 : 				if(game)

	cmp	DWORD PTR _game$[ebp], 0
	je	$LN32@UI_UpdateG

; 1854 : 				{
; 1855 : 					if(game == FalconLocalGame)

	mov	ecx, OFFSET ?vuLocalSessionEntity@@3V?$VuBin@VVuSessionEntity@@@@A ; vuLocalSessionEntity
	call	??B?$VuBin@VVuSessionEntity@@@@QBE_NXZ	; VuBin<VuSessionEntity>::operator bool
	movzx	ecx, al
	test	ecx, ecx
	je	SHORT $LN53@UI_UpdateG
	mov	ecx, OFFSET ?vuLocalSessionEntity@@3V?$VuBin@VVuSessionEntity@@@@A ; vuLocalSessionEntity
	call	?get@?$VuBin@VVuSessionEntity@@@@QBEPAVVuSessionEntity@@XZ ; VuBin<VuSessionEntity>::get
	mov	ecx, eax
	call	?GetGame@FalconSessionEntity@@QAEPAVFalconGameEntity@@XZ ; FalconSessionEntity::GetGame
	mov	DWORD PTR tv193[ebp], eax
	jmp	SHORT $LN54@UI_UpdateG
$LN53@UI_UpdateG:
	mov	DWORD PTR tv193[ebp], 0
$LN54@UI_UpdateG:
	mov	edx, DWORD PTR _game$[ebp]
	cmp	edx, DWORD PTR tv193[ebp]
	jne	SHORT $LN31@UI_UpdateG

; 1856 : 						UpdateLocalGameTree();

	call	?UpdateLocalGameTree@@YAXXZ		; UpdateLocalGameTree
$LN31@UI_UpdateG:

; 1857 : 
; 1858 : 					gametype=game->GetGameType();

	mov	ecx, DWORD PTR _game$[ebp]
	call	?GetGameType@FalconGameEntity@@QAE?AW4FalconGameType@@XZ ; FalconGameEntity::GetGameType
	mov	DWORD PTR _gametype$[ebp], eax

; 1859 : 					switch(gametype)

	mov	eax, DWORD PTR _gametype$[ebp]
	mov	DWORD PTR tv197[ebp], eax
	cmp	DWORD PTR tv197[ebp], 2
	je	SHORT $LN28@UI_UpdateG
	cmp	DWORD PTR tv197[ebp], 3
	je	SHORT $LN27@UI_UpdateG
	cmp	DWORD PTR tv197[ebp], 4
	je	SHORT $LN26@UI_UpdateG
	jmp	SHORT $LN25@UI_UpdateG
$LN28@UI_UpdateG:

; 1860 : 					{
; 1861 : 						case game_Dogfight:
; 1862 : 							theTree=DogfightGames;

	mov	ecx, DWORD PTR ?DogfightGames@@3PAVC_TreeList@@A ; DogfightGames
	mov	DWORD PTR _theTree$[ebp], ecx

; 1863 : 							break;

	jmp	SHORT $LN29@UI_UpdateG
$LN27@UI_UpdateG:

; 1864 : 						case game_TacticalEngagement:
; 1865 : 							theTree=TacticalGames;

	mov	edx, DWORD PTR ?TacticalGames@@3PAVC_TreeList@@A ; TacticalGames
	mov	DWORD PTR _theTree$[ebp], edx

; 1866 : 							break;

	jmp	SHORT $LN29@UI_UpdateG
$LN26@UI_UpdateG:

; 1867 : 						case game_Campaign:
; 1868 : 							theTree=CampaignGames;

	mov	eax, DWORD PTR ?CampaignGames@@3PAVC_TreeList@@A ; CampaignGames
	mov	DWORD PTR _theTree$[ebp], eax

; 1869 : 							break;

	jmp	SHORT $LN29@UI_UpdateG
$LN25@UI_UpdateG:

; 1870 : 						default:
; 1871 : 							theTree=NULL;

	mov	DWORD PTR _theTree$[ebp], 0
$LN29@UI_UpdateG:

; 1872 : 							break;
; 1873 : 					}
; 1874 : 					if(theTree)

	cmp	DWORD PTR _theTree$[ebp], 0
	je	SHORT $LN32@UI_UpdateG

; 1875 : 					{
; 1876 : 						// Add to Game's TreeList
; 1877 : 						UpdateGameTreeBranch(gametype,game,theTree,theTree->GetRoot(),FALSE);

	push	0
	mov	ecx, DWORD PTR _theTree$[ebp]
	call	?GetRoot@C_TreeList@@QAEPAVTREELIST@@XZ	; C_TreeList::GetRoot
	push	eax
	mov	ecx, DWORD PTR _theTree$[ebp]
	push	ecx
	mov	edx, DWORD PTR _game$[ebp]
	push	edx
	mov	eax, DWORD PTR _gametype$[ebp]
	push	eax
	call	?UpdateGameTreeBranch@@YAXJPAVVuGameEntity@@PAVC_TreeList@@PAVTREELIST@@H@Z ; UpdateGameTreeBranch
	add	esp, 20					; 00000014H

; 1878 : 						theTree->RecalcSize();

	mov	ecx, DWORD PTR _theTree$[ebp]
	call	?RecalcSize@C_TreeList@@QAEXXZ		; C_TreeList::RecalcSize

; 1879 : 						if(theTree->GetParent())

	mov	ecx, DWORD PTR _theTree$[ebp]
	call	?GetParent@C_Base@@QAEPAVC_Window@@XZ	; C_Base::GetParent
	test	eax, eax
	je	SHORT $LN32@UI_UpdateG

; 1880 : 							theTree->GetParent()->RefreshClient(theTree->GetClient());

	mov	ecx, DWORD PTR _theTree$[ebp]
	call	?GetClient@C_Base@@QAEFXZ		; C_Base::GetClient
	movsx	ecx, ax
	push	ecx
	mov	ecx, DWORD PTR _theTree$[ebp]
	call	?GetParent@C_Base@@QAEPAVC_Window@@XZ	; C_Base::GetParent
	mov	ecx, eax
	call	?RefreshClient@C_Window@@QAEXJ@Z	; C_Window::RefreshClient
$LN32@UI_UpdateG:

; 1881 : 					}
; 1882 : 				}
; 1883 : 				break;

	jmp	$LN46@UI_UpdateG
$LN22@UI_UpdateG:

; 1884 : 			case _Q_SESSION_ADD_:
; 1885 : 				game=(FalconGameEntity*)vuDatabase->Find(q->GameID);

	mov	edx, DWORD PTR _q$[ebp]
	mov	eax, DWORD PTR [edx+12]
	push	eax
	mov	ecx, DWORD PTR [edx+8]
	push	ecx
	mov	ecx, DWORD PTR ?vuDatabase@@3PAVVuDatabase@@A ; vuDatabase
	call	?Find@VuDatabase@@QBEPAVVuEntity@@VVU_ID@@@Z ; VuDatabase::Find
	mov	DWORD PTR _game$[ebp], eax

; 1886 : 				session=(FalconSessionEntity*)vuDatabase->Find(q->SessionID);

	mov	edx, DWORD PTR _q$[ebp]
	mov	eax, DWORD PTR [edx+4]
	push	eax
	mov	ecx, DWORD PTR [edx]
	push	ecx
	mov	ecx, DWORD PTR ?vuDatabase@@3PAVVuDatabase@@A ; vuDatabase
	call	?Find@VuDatabase@@QBEPAVVuEntity@@VVU_ID@@@Z ; VuDatabase::Find
	mov	DWORD PTR _session$[ebp], eax

; 1887 : 				if(game && session)

	cmp	DWORD PTR _game$[ebp], 0
	je	$LN21@UI_UpdateG
	cmp	DWORD PTR _session$[ebp], 0
	je	$LN21@UI_UpdateG

; 1888 : 				{
; 1889 : 					if(game == FalconLocalGame)

	mov	ecx, OFFSET ?vuLocalSessionEntity@@3V?$VuBin@VVuSessionEntity@@@@A ; vuLocalSessionEntity
	call	??B?$VuBin@VVuSessionEntity@@@@QBE_NXZ	; VuBin<VuSessionEntity>::operator bool
	movzx	edx, al
	test	edx, edx
	je	SHORT $LN55@UI_UpdateG
	mov	ecx, OFFSET ?vuLocalSessionEntity@@3V?$VuBin@VVuSessionEntity@@@@A ; vuLocalSessionEntity
	call	?get@?$VuBin@VVuSessionEntity@@@@QBEPAVVuSessionEntity@@XZ ; VuBin<VuSessionEntity>::get
	mov	ecx, eax
	call	?GetGame@FalconSessionEntity@@QAEPAVFalconGameEntity@@XZ ; FalconSessionEntity::GetGame
	mov	DWORD PTR tv266[ebp], eax
	jmp	SHORT $LN56@UI_UpdateG
$LN55@UI_UpdateG:
	mov	DWORD PTR tv266[ebp], 0
$LN56@UI_UpdateG:
	mov	eax, DWORD PTR _game$[ebp]
	cmp	eax, DWORD PTR tv266[ebp]
	jne	SHORT $LN20@UI_UpdateG

; 1890 : 						UpdateLocalGameTree();

	call	?UpdateLocalGameTree@@YAXXZ		; UpdateLocalGameTree
$LN20@UI_UpdateG:

; 1891 : 
; 1892 : 					gametype=game->GetGameType();

	mov	ecx, DWORD PTR _game$[ebp]
	call	?GetGameType@FalconGameEntity@@QAE?AW4FalconGameType@@XZ ; FalconGameEntity::GetGameType
	mov	DWORD PTR _gametype$[ebp], eax

; 1893 : 					switch(gametype)

	mov	ecx, DWORD PTR _gametype$[ebp]
	mov	DWORD PTR tv270[ebp], ecx
	cmp	DWORD PTR tv270[ebp], 2
	je	SHORT $LN17@UI_UpdateG
	cmp	DWORD PTR tv270[ebp], 3
	je	SHORT $LN16@UI_UpdateG
	cmp	DWORD PTR tv270[ebp], 4
	je	SHORT $LN15@UI_UpdateG
	jmp	SHORT $LN14@UI_UpdateG
$LN17@UI_UpdateG:

; 1894 : 					{
; 1895 : 						case game_Dogfight:
; 1896 : 							CheckFlyButton();

	call	?CheckFlyButton@@YAXXZ			; CheckFlyButton

; 1897 : 							theTree=DogfightGames;

	mov	edx, DWORD PTR ?DogfightGames@@3PAVC_TreeList@@A ; DogfightGames
	mov	DWORD PTR _theTree$[ebp], edx

; 1898 : 							break;

	jmp	SHORT $LN18@UI_UpdateG
$LN16@UI_UpdateG:

; 1899 : 						case game_TacticalEngagement:
; 1900 : 							GetPlayerInfo(q->SessionID);

	mov	eax, DWORD PTR _q$[ebp]
	mov	ecx, DWORD PTR [eax+4]
	push	ecx
	mov	edx, DWORD PTR [eax]
	push	edx
	call	?GetPlayerInfo@@YAXVVU_ID@@@Z		; GetPlayerInfo
	add	esp, 8

; 1901 : 							TallyPlayerSquadrons();

	call	?TallyPlayerSquadrons@@YAXXZ		; TallyPlayerSquadrons

; 1902 : 							theTree=TacticalGames;

	mov	eax, DWORD PTR ?TacticalGames@@3PAVC_TreeList@@A ; TacticalGames
	mov	DWORD PTR _theTree$[ebp], eax

; 1903 : 							break;

	jmp	SHORT $LN18@UI_UpdateG
$LN15@UI_UpdateG:

; 1904 : 						case game_Campaign:
; 1905 : 							GetPlayerInfo(q->SessionID);

	mov	ecx, DWORD PTR _q$[ebp]
	mov	edx, DWORD PTR [ecx+4]
	push	edx
	mov	eax, DWORD PTR [ecx]
	push	eax
	call	?GetPlayerInfo@@YAXVVU_ID@@@Z		; GetPlayerInfo
	add	esp, 8

; 1906 : 							TallyPlayerSquadrons();

	call	?TallyPlayerSquadrons@@YAXXZ		; TallyPlayerSquadrons

; 1907 : 							theTree=CampaignGames;

	mov	ecx, DWORD PTR ?CampaignGames@@3PAVC_TreeList@@A ; CampaignGames
	mov	DWORD PTR _theTree$[ebp], ecx

; 1908 : 							break;

	jmp	SHORT $LN18@UI_UpdateG
$LN14@UI_UpdateG:

; 1909 : 						default:
; 1910 : 							theTree=NULL;

	mov	DWORD PTR _theTree$[ebp], 0
$LN18@UI_UpdateG:

; 1911 : 					}
; 1912 : 					if(theTree)

	cmp	DWORD PTR _theTree$[ebp], 0
	je	$LN21@UI_UpdateG

; 1913 : 					{
; 1914 : 						// Add to Game's Window List
; 1915 : 						gamelist=StartTreeSearch(game->Id(),theTree->GetRoot(),theTree);

	mov	edx, DWORD PTR _theTree$[ebp]
	push	edx
	mov	ecx, DWORD PTR _theTree$[ebp]
	call	?GetRoot@C_TreeList@@QAEPAVTREELIST@@XZ	; C_TreeList::GetRoot
	push	eax
	lea	eax, DWORD PTR $T3[ebp]
	push	eax
	mov	ecx, DWORD PTR _game$[ebp]
	call	?Id@VuEntity@@QBE?AVVU_ID@@XZ		; VuEntity::Id
	mov	ecx, DWORD PTR [eax+4]
	push	ecx
	mov	edx, DWORD PTR [eax]
	push	edx
	call	?StartTreeSearch@@YAPAVTREELIST@@VVU_ID@@PAV1@PAVC_TreeList@@@Z ; StartTreeSearch
	add	esp, 16					; 00000010H
	mov	DWORD PTR _gamelist$[ebp], eax

; 1916 : 						if(gamelist)

	cmp	DWORD PTR _gamelist$[ebp], 0
	je	SHORT $LN21@UI_UpdateG

; 1917 : 						{
; 1918 : 							player=StartTreeSearch(session->Id(),gamelist,theTree);

	mov	eax, DWORD PTR _theTree$[ebp]
	push	eax
	mov	ecx, DWORD PTR _gamelist$[ebp]
	push	ecx
	lea	edx, DWORD PTR $T2[ebp]
	push	edx
	mov	ecx, DWORD PTR _session$[ebp]
	call	?Id@VuEntity@@QBE?AVVU_ID@@XZ		; VuEntity::Id
	mov	ecx, DWORD PTR [eax+4]
	push	ecx
	mov	edx, DWORD PTR [eax]
	push	edx
	call	?StartTreeSearch@@YAPAVTREELIST@@VVU_ID@@PAV1@PAVC_TreeList@@@Z ; StartTreeSearch
	add	esp, 16					; 00000010H
	mov	DWORD PTR _player$[ebp], eax

; 1919 : 							if(player == NULL)

	cmp	DWORD PTR _player$[ebp], 0
	jne	SHORT $LN21@UI_UpdateG

; 1920 : 							{
; 1921 : 								player=CreatePlayerButton(theTree,session);

	mov	eax, DWORD PTR _session$[ebp]
	push	eax
	mov	ecx, DWORD PTR _theTree$[ebp]
	push	ecx
	call	?CreatePlayerButton@@YAPAVTREELIST@@PAVC_TreeList@@PAVFalconSessionEntity@@@Z ; CreatePlayerButton
	add	esp, 8
	mov	DWORD PTR _player$[ebp], eax

; 1922 : 								theTree->AddChildItem(gamelist,player);

	mov	edx, DWORD PTR _player$[ebp]
	push	edx
	mov	eax, DWORD PTR _gamelist$[ebp]
	push	eax
	mov	ecx, DWORD PTR _theTree$[ebp]
	call	?AddChildItem@C_TreeList@@QAEHPAVTREELIST@@0@Z ; C_TreeList::AddChildItem

; 1923 : 								theTree->RecalcSize();

	mov	ecx, DWORD PTR _theTree$[ebp]
	call	?RecalcSize@C_TreeList@@QAEXXZ		; C_TreeList::RecalcSize

; 1924 : 								if(theTree->GetParent())

	mov	ecx, DWORD PTR _theTree$[ebp]
	call	?GetParent@C_Base@@QAEPAVC_Window@@XZ	; C_Base::GetParent
	test	eax, eax
	je	SHORT $LN21@UI_UpdateG

; 1925 : 									theTree->GetParent()->RefreshClient(theTree->GetClient());

	mov	ecx, DWORD PTR _theTree$[ebp]
	call	?GetClient@C_Base@@QAEFXZ		; C_Base::GetClient
	movsx	ecx, ax
	push	ecx
	mov	ecx, DWORD PTR _theTree$[ebp]
	call	?GetParent@C_Base@@QAEPAVC_Window@@XZ	; C_Base::GetParent
	mov	ecx, eax
	call	?RefreshClient@C_Window@@QAEXJ@Z	; C_Window::RefreshClient
$LN21@UI_UpdateG:

; 1926 : 							}
; 1927 : 						}
; 1928 : /*
; 1929 : 						if(game == gCommsMgr->GetGame())
; 1930 : 						{
; 1931 : 							// Add to gCommsMgr game lists (if selected)
; 1932 : 							AddPlayerToGame(session);
; 1933 : 						}
; 1934 : */
; 1935 : 					}
; 1936 : 				}
; 1937 : 				break;

	jmp	$LN46@UI_UpdateG
$LN9@UI_UpdateG:

; 1938 : 			case _Q_SESSION_REMOVE_:
; 1939 : 				UpdateLocalGameTree();

	call	?UpdateLocalGameTree@@YAXXZ		; UpdateLocalGameTree

; 1940 : 				RemoveFromTree(DogfightGames,q->SessionID);

	mov	edx, DWORD PTR _q$[ebp]
	mov	eax, DWORD PTR [edx+4]
	push	eax
	mov	ecx, DWORD PTR [edx]
	push	ecx
	mov	edx, DWORD PTR ?DogfightGames@@3PAVC_TreeList@@A ; DogfightGames
	push	edx
	call	?RemoveFromTree@@YAXPAVC_TreeList@@VVU_ID@@@Z ; RemoveFromTree
	add	esp, 12					; 0000000cH

; 1941 : 				RemoveFromTree(TacticalGames,q->SessionID);

	mov	eax, DWORD PTR _q$[ebp]
	mov	ecx, DWORD PTR [eax+4]
	push	ecx
	mov	edx, DWORD PTR [eax]
	push	edx
	mov	eax, DWORD PTR ?TacticalGames@@3PAVC_TreeList@@A ; TacticalGames
	push	eax
	call	?RemoveFromTree@@YAXPAVC_TreeList@@VVU_ID@@@Z ; RemoveFromTree
	add	esp, 12					; 0000000cH

; 1942 : 				RemoveFromTree(CampaignGames,q->SessionID);

	mov	ecx, DWORD PTR _q$[ebp]
	mov	edx, DWORD PTR [ecx+4]
	push	edx
	mov	eax, DWORD PTR [ecx]
	push	eax
	mov	ecx, DWORD PTR ?CampaignGames@@3PAVC_TreeList@@A ; CampaignGames
	push	ecx
	call	?RemoveFromTree@@YAXPAVC_TreeList@@VVU_ID@@@Z ; RemoveFromTree
	add	esp, 12					; 0000000cH

; 1943 : 				// Remove player from gCommsMgr game lists (if selected)
; 1944 : 				game=(FalconGameEntity*)gCommsMgr->GetGame();

	mov	ecx, DWORD PTR ?gCommsMgr@@3PAVUIComms@@A ; gCommsMgr
	call	?GetGame@UIComms@@QAEPAVVuGameEntity@@XZ ; UIComms::GetGame
	mov	DWORD PTR _game$[ebp], eax

; 1945 : 				if(game)

	cmp	DWORD PTR _game$[ebp], 0
	je	SHORT $LN8@UI_UpdateG

; 1946 : 				{
; 1947 : //					if(game->Id() == q->GameID)
; 1948 : //						RemovePlayerFromGame(q->SessionID);
; 1949 : 					if(game->GetGameType() == game_Campaign || game->GetGameType() == game_TacticalEngagement)

	mov	ecx, DWORD PTR _game$[ebp]
	call	?GetGameType@FalconGameEntity@@QAE?AW4FalconGameType@@XZ ; FalconGameEntity::GetGameType
	cmp	eax, 4
	je	SHORT $LN6@UI_UpdateG
	mov	ecx, DWORD PTR _game$[ebp]
	call	?GetGameType@FalconGameEntity@@QAE?AW4FalconGameType@@XZ ; FalconGameEntity::GetGameType
	cmp	eax, 3
	jne	SHORT $LN8@UI_UpdateG
$LN6@UI_UpdateG:

; 1950 : 						TallyPlayerSquadrons();

	call	?TallyPlayerSquadrons@@YAXXZ		; TallyPlayerSquadrons
$LN8@UI_UpdateG:

; 1951 : //					else if(game->GetGameType() == game_Dogfight)
; 1952 : //					{
; 1953 : //						CheckFlyButton();
; 1954 : //					}
; 1955 : 				}
; 1956 : 				break;

	jmp	$LN46@UI_UpdateG
$LN5@UI_UpdateG:

; 1957 : 			case _Q_SESSION_UPDATE_:
; 1958 : 				session=(FalconSessionEntity*)vuDatabase->Find(q->SessionID);

	mov	edx, DWORD PTR _q$[ebp]
	mov	eax, DWORD PTR [edx+4]
	push	eax
	mov	ecx, DWORD PTR [edx]
	push	ecx
	mov	ecx, DWORD PTR ?vuDatabase@@3PAVVuDatabase@@A ; vuDatabase
	call	?Find@VuDatabase@@QBEPAVVuEntity@@VVU_ID@@@Z ; VuDatabase::Find
	mov	DWORD PTR _session$[ebp], eax

; 1959 : 				if(session)

	cmp	DWORD PTR _session$[ebp], 0
	je	SHORT $LN46@UI_UpdateG

; 1960 : 				{
; 1961 : 					CheckChatFilters(session);

	mov	edx, DWORD PTR _session$[ebp]
	push	edx
	call	?CheckChatFilters@@YAXPAVFalconSessionEntity@@@Z ; CheckChatFilters
	add	esp, 4

; 1962 : 					if(gCommsMgr->GetGame() != vuPlayerPoolGroup)

	mov	ecx, DWORD PTR ?gCommsMgr@@3PAVUIComms@@A ; gCommsMgr
	call	?GetGame@UIComms@@QAEPAVVuGameEntity@@XZ ; UIComms::GetGame
	cmp	eax, DWORD PTR ?vuPlayerPoolGroup@@3PAVVuGameEntity@@A ; vuPlayerPoolGroup
	je	SHORT $LN46@UI_UpdateG

; 1963 : 					{
; 1964 : 						if(gCommsMgr->GetGame())

	mov	ecx, DWORD PTR ?gCommsMgr@@3PAVUIComms@@A ; gCommsMgr
	call	?GetGame@UIComms@@QAEPAVVuGameEntity@@XZ ; UIComms::GetGame
	test	eax, eax
	je	SHORT $LN46@UI_UpdateG

; 1965 : 						{
; 1966 : 							if(gCommsMgr->GetGame()->Id() == q->GameID)

	mov	eax, DWORD PTR _q$[ebp]
	add	eax, 8
	push	eax
	lea	ecx, DWORD PTR $T1[ebp]
	push	ecx
	mov	ecx, DWORD PTR ?gCommsMgr@@3PAVUIComms@@A ; gCommsMgr
	call	?GetGame@UIComms@@QAEPAVVuGameEntity@@XZ ; UIComms::GetGame
	mov	ecx, eax
	call	?Id@VuEntity@@QBE?AVVU_ID@@XZ		; VuEntity::Id
	mov	ecx, eax
	call	??8VU_ID@@QBE_NABV0@@Z			; VU_ID::operator==
	movzx	edx, al
	test	edx, edx
	je	SHORT $LN46@UI_UpdateG

; 1967 : 							{
; 1968 : 								CheckForNewPlayer(session);

	mov	eax, DWORD PTR _session$[ebp]
	push	eax
	call	?CheckForNewPlayer@@YAXPAVFalconSessionEntity@@@Z ; CheckForNewPlayer
	add	esp, 4

; 1969 : 								CheckPlayersFlight(session);

	mov	ecx, DWORD PTR _session$[ebp]
	push	ecx
	call	?CheckPlayersFlight@@YAXPAVFalconSessionEntity@@@Z ; CheckPlayersFlight
	add	esp, 4
$LN46@UI_UpdateG:

; 1970 : 							}
; 1971 : 						}
; 1972 : 					}
; 1973 : 				}
; 1974 : 				break;
; 1975 : 		}
; 1976 : 		q=gUICommsQ->Remove();

	mov	ecx, DWORD PTR ?gUICommsQ@@3PAVCommsQueue@@A ; gUICommsQ
	call	?Remove@CommsQueue@@QAEPAUQStr@@XZ	; CommsQueue::Remove
	mov	DWORD PTR _q$[ebp], eax

; 1977 : 	}

	jmp	$LN49@UI_UpdateG
$LN51@UI_UpdateG:

; 1978 : }

	mov	esp, ebp
	pop	ebp
	ret	0
	npad	1
$LN57@UI_UpdateG:
	DD	$LN22@UI_UpdateG
	DD	$LN9@UI_UpdateG
	DD	$LN5@UI_UpdateG
	DD	$LN45@UI_UpdateG
	DD	$LN35@UI_UpdateG
	DD	$LN33@UI_UpdateG
?UI_UpdateGameList@@YAXXZ ENDP				; UI_UpdateGameList
_TEXT	ENDS
; Function compile flags: /Odtp
; File c:\users\zhitao li\documents\visual studio 2012\projects\freefalcon\ui\src\comms\ui_comms.cpp
_TEXT	SEGMENT
_item$ = -4						; size = 4
_list$ = 8						; size = 4
_ID$ = 12						; size = 8
?RemoveFromTree@@YAXPAVC_TreeList@@VVU_ID@@@Z PROC	; RemoveFromTree

; 1769 : {

	push	ebp
	mov	ebp, esp
	push	ecx

; 1770 : 	TREELIST *item;
; 1771 : 
; 1772 : 	if(!list || ID == FalconNullId)

	cmp	DWORD PTR _list$[ebp], 0
	je	SHORT $LN5@RemoveFrom
	push	OFFSET ?FalconNullId@@3VVU_ID@@A	; FalconNullId
	lea	ecx, DWORD PTR _ID$[ebp]
	call	??8VU_ID@@QBE_NABV0@@Z			; VU_ID::operator==
	movzx	eax, al
	test	eax, eax
	je	SHORT $LN6@RemoveFrom
$LN5@RemoveFrom:

; 1773 : 		return;

	jmp	$LN7@RemoveFrom
$LN6@RemoveFrom:

; 1774 : 
; 1775 : 	item=StartTreeSearch(ID,list->GetRoot(),list);

	mov	ecx, DWORD PTR _list$[ebp]
	push	ecx
	mov	ecx, DWORD PTR _list$[ebp]
	call	?GetRoot@C_TreeList@@QAEPAVTREELIST@@XZ	; C_TreeList::GetRoot
	push	eax
	mov	edx, DWORD PTR _ID$[ebp+4]
	push	edx
	mov	eax, DWORD PTR _ID$[ebp]
	push	eax
	call	?StartTreeSearch@@YAPAVTREELIST@@VVU_ID@@PAV1@PAVC_TreeList@@@Z ; StartTreeSearch
	add	esp, 16					; 00000010H
	mov	DWORD PTR _item$[ebp], eax

; 1776 : 	if(item)

	cmp	DWORD PTR _item$[ebp], 0
	je	SHORT $LN7@RemoveFrom

; 1777 : 	{
; 1778 : 		list->Refresh();

	mov	ecx, DWORD PTR _list$[ebp]
	mov	edx, DWORD PTR [ecx]
	mov	ecx, DWORD PTR _list$[ebp]
	mov	eax, DWORD PTR [edx+160]
	call	eax

; 1779 : 		if(item->Type_ == C_TYPE_MENU)

	mov	ecx, DWORD PTR _item$[ebp]
	cmp	DWORD PTR [ecx+4], 49			; 00000031H
	jne	SHORT $LN3@RemoveFrom

; 1780 : 		{
; 1781 : 			if(item->Child)

	mov	edx, DWORD PTR _item$[ebp]
	cmp	DWORD PTR [edx+32], 0
	je	SHORT $LN3@RemoveFrom

; 1782 : 				list->DeleteBranch(item->Child);

	mov	eax, DWORD PTR _item$[ebp]
	mov	ecx, DWORD PTR [eax+32]
	push	ecx
	mov	ecx, DWORD PTR _list$[ebp]
	call	?DeleteBranch@C_TreeList@@QAEXPAVTREELIST@@@Z ; C_TreeList::DeleteBranch
$LN3@RemoveFrom:

; 1783 : 		}
; 1784 : 		list->DeleteItem(item);

	mov	edx, DWORD PTR _item$[ebp]
	push	edx
	mov	ecx, DWORD PTR _list$[ebp]
	call	?DeleteItem@C_TreeList@@QAEXPAVTREELIST@@@Z ; C_TreeList::DeleteItem

; 1785 : 		list->RecalcSize();

	mov	ecx, DWORD PTR _list$[ebp]
	call	?RecalcSize@C_TreeList@@QAEXXZ		; C_TreeList::RecalcSize

; 1786 : 		if(list->Parent_)

	mov	eax, DWORD PTR _list$[ebp]
	cmp	DWORD PTR [eax+48], 0
	je	SHORT $LN7@RemoveFrom

; 1787 : 			list->Parent_->RefreshClient(list->GetClient());

	mov	ecx, DWORD PTR _list$[ebp]
	call	?GetClient@C_Base@@QAEFXZ		; C_Base::GetClient
	movsx	ecx, ax
	push	ecx
	mov	edx, DWORD PTR _list$[ebp]
	mov	ecx, DWORD PTR [edx+48]
	call	?RefreshClient@C_Window@@QAEXJ@Z	; C_Window::RefreshClient
$LN7@RemoveFrom:

; 1788 : 	}
; 1789 : }

	mov	esp, ebp
	pop	ebp
	ret	0
?RemoveFromTree@@YAXPAVC_TreeList@@VVU_ID@@@Z ENDP	; RemoveFromTree
_TEXT	ENDS
; Function compile flags: /Odtp
; File c:\users\zhitao li\documents\visual studio 2012\projects\freefalcon\ui\src\comms\ui_comms.cpp
_TEXT	SEGMENT
$T2 = -200						; size = 8
_e$3 = -192						; size = 16
$T4 = -176						; size = 8
$T5 = -168						; size = 4
tv442 = -164						; size = 4
_sessionWalker$ = -160					; size = 12
tv446 = -148						; size = 4
tv445 = -144						; size = 4
tv238 = -140						; size = 4
tv146 = -136						; size = 4
tv207 = -132						; size = 4
tv367 = -128						; size = 4
tv171 = -124						; size = 4
tv350 = -120						; size = 4
tv189 = -116						; size = 4
tv77 = -112						; size = 4
_txt$ = -108						; size = 4
tv225 = -104						; size = 4
tv254 = -100						; size = 4
_tmpID$ = -96						; size = 4
_Age$ = -92						; size = 4
_session$ = -88						; size = 4
_player$ = -84						; size = 4
_buffer$ = -80						; size = 60
__$ArrayPad$ = -20					; size = 4
__$EHRec$ = -16						; size = 16
?UpdateLocalGameTree@@YAXXZ PROC			; UpdateLocalGameTree

; 1591 : {

	push	ebp
	mov	ebp, esp
	push	-1
	push	__ehhandler$?UpdateLocalGameTree@@YAXXZ
	mov	eax, DWORD PTR fs:0
	push	eax
	push	ecx
	sub	esp, 184				; 000000b8H
	mov	eax, DWORD PTR ___security_cookie
	xor	eax, ebp
	mov	DWORD PTR __$ArrayPad$[ebp], eax
	push	ebx
	push	esi
	push	edi
	push	eax
	lea	eax, DWORD PTR __$EHRec$[ebp+4]
	mov	DWORD PTR fs:0, eax
	mov	DWORD PTR __$EHRec$[ebp], esp

; 1592 : 	TREELIST *player;
; 1593 : 	C_Text *txt;
; 1594 : 	VU_ID *tmpID=NULL;

	mov	DWORD PTR _tmpID$[ebp], 0

; 1595 : 	long Age;
; 1596 : 	_TCHAR buffer[60];
; 1597 : 
; 1598 : 	if(!People)

	cmp	DWORD PTR ?People@@3PAVC_TreeList@@A, 0	; People
	jne	SHORT $LN20@UpdateLoca

; 1599 : 		return;

	jmp	$LN21@UpdateLoca
$LN20@UpdateLoca:

; 1600 : 	if(!FalconLocalGame)

	mov	ecx, OFFSET ?vuLocalSessionEntity@@3V?$VuBin@VVuSessionEntity@@@@A ; vuLocalSessionEntity
	call	??B?$VuBin@VVuSessionEntity@@@@QBE_NXZ	; VuBin<VuSessionEntity>::operator bool
	movzx	eax, al
	test	eax, eax
	je	SHORT $LN23@UpdateLoca
	mov	ecx, OFFSET ?vuLocalSessionEntity@@3V?$VuBin@VVuSessionEntity@@@@A ; vuLocalSessionEntity
	call	?get@?$VuBin@VVuSessionEntity@@@@QBEPAVVuSessionEntity@@XZ ; VuBin<VuSessionEntity>::get
	mov	ecx, eax
	call	?GetGame@FalconSessionEntity@@QAEPAVFalconGameEntity@@XZ ; FalconSessionEntity::GetGame
	mov	DWORD PTR tv77[ebp], eax
	jmp	SHORT $LN24@UpdateLoca
$LN23@UpdateLoca:
	mov	DWORD PTR tv77[ebp], 0
$LN24@UpdateLoca:
	cmp	DWORD PTR tv77[ebp], 0
	jne	SHORT $LN19@UpdateLoca

; 1601 : 		return;

	jmp	$LN21@UpdateLoca
$LN19@UpdateLoca:

; 1602 : 
; 1603 : 	Age=GetCurrentTime();

	call	DWORD PTR __imp__GetTickCount@0
	mov	DWORD PTR _Age$[ebp], eax

; 1604 : 
; 1605 : 	if(People->GetRoot())

	mov	ecx, DWORD PTR ?People@@3PAVC_TreeList@@A ; People
	call	?GetRoot@C_TreeList@@QAEPAVTREELIST@@XZ	; C_TreeList::GetRoot
	test	eax, eax
	je	$LN18@UpdateLoca

; 1606 : 	{
; 1607 : 		txt=(C_Text*)People->GetRoot()->Item_;

	mov	ecx, DWORD PTR ?People@@3PAVC_TreeList@@A ; People
	call	?GetRoot@C_TreeList@@QAEPAVTREELIST@@XZ	; C_TreeList::GetRoot
	mov	ecx, DWORD PTR [eax+20]
	mov	DWORD PTR _txt$[ebp], ecx

; 1608 : 		if(txt)

	cmp	DWORD PTR _txt$[ebp], 0
	je	$LN17@UpdateLoca

; 1609 : 		{
; 1610 : 			tmpID=(VU_ID*)txt->GetUserPtr(_UI95_VU_ID_SLOT_);

	push	6
	mov	ecx, DWORD PTR _txt$[ebp]
	call	?GetUserPtr@C_Base@@QAEPAXJ@Z		; C_Base::GetUserPtr
	mov	DWORD PTR _tmpID$[ebp], eax

; 1611 : 			if(tmpID)

