; Listing generated by Microsoft (R) Optimizing Compiler Version 17.00.51106.1 

	TITLE	C:\Users\Zhitao Li\Documents\Visual Studio 2012\Projects\Freefalcon\UI\SRC\comms\ui_comms.cpp
	.686P
	.XMM
	include listing.inc
	.model	flat

INCLUDELIB LIBCMT
INCLUDELIB OLDNAMES

PUBLIC	?traps@_Num_base@std@@2_NB			; std::_Num_base::traps
PUBLIC	_IID_IRemoteMasterServer
PUBLIC	_IID_IRemoteMasterServerEvents
PUBLIC	_IID_IGame
PUBLIC	?round_style@_Num_base@std@@2W4float_round_style@2@B ; std::_Num_base::round_style
PUBLIC	?VT@?$CVarTypeInfo@PA_K@ATL@@2GB		; ATL::CVarTypeInfo<unsigned __int64 *>::VT
PUBLIC	_IID_IGameEvents
PUBLIC	?pmField@?$CVarTypeInfo@PA_K@ATL@@2QQtagVARIANT@@PA_KQ3@ ; ATL::CVarTypeInfo<unsigned __int64 *>::pmField
PUBLIC	?digits@_Num_base@std@@2HB			; std::_Num_base::digits
PUBLIC	?digits10@_Num_base@std@@2HB			; std::_Num_base::digits10
PUBLIC	?max_digits10@_Num_base@std@@2HB		; std::_Num_base::max_digits10
PUBLIC	?max_exponent@_Num_base@std@@2HB		; std::_Num_base::max_exponent
PUBLIC	?VT@?$CVarTypeInfo@M@ATL@@2GB			; ATL::CVarTypeInfo<float>::VT
PUBLIC	?max_exponent10@_Num_base@std@@2HB		; std::_Num_base::max_exponent10
PUBLIC	?pmField@?$CVarTypeInfo@M@ATL@@2QQtagVARIANT@@MQ3@ ; ATL::CVarTypeInfo<float>::pmField
PUBLIC	?min_exponent@_Num_base@std@@2HB		; std::_Num_base::min_exponent
PUBLIC	?min_exponent10@_Num_base@std@@2HB		; std::_Num_base::min_exponent10
PUBLIC	?radix@_Num_base@std@@2HB			; std::_Num_base::radix
PUBLIC	?VT@?$CVarTypeInfo@PAM@ATL@@2GB			; ATL::CVarTypeInfo<float *>::VT
PUBLIC	?pmField@?$CVarTypeInfo@PAM@ATL@@2QQtagVARIANT@@PAMQ3@ ; ATL::CVarTypeInfo<float *>::pmField
PUBLIC	?VT@?$CVarTypeInfo@N@ATL@@2GB			; ATL::CVarTypeInfo<double>::VT
PUBLIC	?pmField@?$CVarTypeInfo@N@ATL@@2QQtagVARIANT@@NQ3@ ; ATL::CVarTypeInfo<double>::pmField
PUBLIC	?VT@?$CVarTypeInfo@PAN@ATL@@2GB			; ATL::CVarTypeInfo<double *>::VT
PUBLIC	?is_bounded@_Num_int_base@std@@2_NB		; std::_Num_int_base::is_bounded
PUBLIC	?pmField@?$CVarTypeInfo@PAN@ATL@@2QQtagVARIANT@@PANQ3@ ; ATL::CVarTypeInfo<double *>::pmField
PUBLIC	?is_exact@_Num_int_base@std@@2_NB		; std::_Num_int_base::is_exact
PUBLIC	?is_integer@_Num_int_base@std@@2_NB		; std::_Num_int_base::is_integer
PUBLIC	?is_modulo@_Num_int_base@std@@2_NB		; std::_Num_int_base::is_modulo
PUBLIC	?VT@?$CVarTypeInfo@PAUtagVARIANT@@@ATL@@2GB	; ATL::CVarTypeInfo<tagVARIANT *>::VT
PUBLIC	?is_specialized@_Num_int_base@std@@2_NB		; std::_Num_int_base::is_specialized
PUBLIC	?radix@_Num_int_base@std@@2HB			; std::_Num_int_base::radix
PUBLIC	?VT@?$CVarTypeInfo@PA_W@ATL@@2GB		; ATL::CVarTypeInfo<wchar_t *>::VT
PUBLIC	?pmField@?$CVarTypeInfo@PA_W@ATL@@2QQtagVARIANT@@PA_WQ3@ ; ATL::CVarTypeInfo<wchar_t *>::pmField
PUBLIC	?has_denorm@_Num_float_base@std@@2W4float_denorm_style@2@B ; std::_Num_float_base::has_denorm
PUBLIC	?has_denorm_loss@_Num_float_base@std@@2_NB	; std::_Num_float_base::has_denorm_loss
PUBLIC	?SIMDIRTYDATA_INTERVAL@FalconEntity@@2KB	; FalconEntity::SIMDIRTYDATA_INTERVAL
PUBLIC	?CMPDIRTYDATA_INTERVAL@FalconEntity@@2KB	; FalconEntity::CMPDIRTYDATA_INTERVAL
PUBLIC	?has_infinity@_Num_float_base@std@@2_NB		; std::_Num_float_base::has_infinity
PUBLIC	?_pAtlModule@ATL@@3PAVCAtlModule@1@A		; ATL::_pAtlModule
PUBLIC	?has_quiet_NaN@_Num_float_base@std@@2_NB	; std::_Num_float_base::has_quiet_NaN
PUBLIC	?VT@?$CVarTypeInfo@PAPA_W@ATL@@2GB		; ATL::CVarTypeInfo<wchar_t * *>::VT
PUBLIC	?pmField@?$CVarTypeInfo@PAPA_W@ATL@@2QQtagVARIANT@@PAPA_WQ3@ ; ATL::CVarTypeInfo<wchar_t * *>::pmField
PUBLIC	?has_signaling_NaN@_Num_float_base@std@@2_NB	; std::_Num_float_base::has_signaling_NaN
PUBLIC	?m_libid@CAtlModule@ATL@@2U_GUID@@A		; ATL::CAtlModule::m_libid
PUBLIC	?is_bounded@_Num_float_base@std@@2_NB		; std::_Num_float_base::is_bounded
PUBLIC	?is_exact@_Num_float_base@std@@2_NB		; std::_Num_float_base::is_exact
PUBLIC	?is_iec559@_Num_float_base@std@@2_NB		; std::_Num_float_base::is_iec559
PUBLIC	?VT@?$CVarTypeInfo@PAUIUnknown@@@ATL@@2GB	; ATL::CVarTypeInfo<IUnknown *>::VT
PUBLIC	?is_integer@_Num_float_base@std@@2_NB		; std::_Num_float_base::is_integer
PUBLIC	?pmField@?$CVarTypeInfo@PAUIUnknown@@@ATL@@2QQtagVARIANT@@PAUIUnknown@@Q3@ ; ATL::CVarTypeInfo<IUnknown *>::pmField
PUBLIC	?is_modulo@_Num_float_base@std@@2_NB		; std::_Num_float_base::is_modulo
PUBLIC	?is_signed@_Num_float_base@std@@2_NB		; std::_Num_float_base::is_signed
PUBLIC	?is_specialized@_Num_float_base@std@@2_NB	; std::_Num_float_base::is_specialized
PUBLIC	?VT@?$CVarTypeInfo@PAPAUIUnknown@@@ATL@@2GB	; ATL::CVarTypeInfo<IUnknown * *>::VT
PUBLIC	?tinyness_before@_Num_float_base@std@@2_NB	; std::_Num_float_base::tinyness_before
PUBLIC	?pmField@?$CVarTypeInfo@PAPAUIUnknown@@@ATL@@2QQtagVARIANT@@PAPAUIUnknown@@Q3@ ; ATL::CVarTypeInfo<IUnknown * *>::pmField
PUBLIC	?traps@_Num_float_base@std@@2_NB		; std::_Num_float_base::traps
PUBLIC	?round_style@_Num_float_base@std@@2W4float_round_style@2@B ; std::_Num_float_base::round_style
PUBLIC	?radix@_Num_float_base@std@@2HB			; std::_Num_float_base::radix
PUBLIC	?VT@?$CVarTypeInfo@PAUIDispatch@@@ATL@@2GB	; ATL::CVarTypeInfo<IDispatch *>::VT
PUBLIC	?pmField@?$CVarTypeInfo@PAUIDispatch@@@ATL@@2QQtagVARIANT@@PAUIDispatch@@Q3@ ; ATL::CVarTypeInfo<IDispatch *>::pmField
PUBLIC	_IID_IAxWinHostWindow
PUBLIC	?VT@?$CVarTypeInfo@PAPAUIDispatch@@@ATL@@2GB	; ATL::CVarTypeInfo<IDispatch * *>::VT
PUBLIC	?pmField@?$CVarTypeInfo@PAPAUIDispatch@@@ATL@@2QQtagVARIANT@@PAPAUIDispatch@@Q3@ ; ATL::CVarTypeInfo<IDispatch * *>::pmField
PUBLIC	?is_signed@?$numeric_limits@D@std@@2_NB		; std::numeric_limits<char>::is_signed
PUBLIC	?digits@?$numeric_limits@D@std@@2HB		; std::numeric_limits<char>::digits
PUBLIC	?digits10@?$numeric_limits@D@std@@2HB		; std::numeric_limits<char>::digits10
PUBLIC	?collate@?$_Locbase@H@std@@2HB			; std::_Locbase<int>::collate
PUBLIC	?VT@?$CVarTypeInfo@TtagCY@@@ATL@@2GB		; ATL::CVarTypeInfo<tagCY>::VT
PUBLIC	?ctype@?$_Locbase@H@std@@2HB			; std::_Locbase<int>::ctype
PUBLIC	?pmField@?$CVarTypeInfo@TtagCY@@@ATL@@2QQtagVARIANT@@TtagCY@@Q3@ ; ATL::CVarTypeInfo<tagCY>::pmField
PUBLIC	?monetary@?$_Locbase@H@std@@2HB			; std::_Locbase<int>::monetary
PUBLIC	?numeric@?$_Locbase@H@std@@2HB			; std::_Locbase<int>::numeric
PUBLIC	?time@?$_Locbase@H@std@@2HB			; std::_Locbase<int>::time
PUBLIC	?messages@?$_Locbase@H@std@@2HB			; std::_Locbase<int>::messages
PUBLIC	?all@?$_Locbase@H@std@@2HB			; std::_Locbase<int>::all
PUBLIC	?none@?$_Locbase@H@std@@2HB			; std::_Locbase<int>::none
PUBLIC	?VT@?$CVarTypeInfo@PATtagCY@@@ATL@@2GB		; ATL::CVarTypeInfo<tagCY *>::VT
PUBLIC	?pmField@?$CVarTypeInfo@PATtagCY@@@ATL@@2QQtagVARIANT@@PATtagCY@@Q3@ ; ATL::CVarTypeInfo<tagCY *>::pmField
PUBLIC	__GUID_00000146_0000_0000_c000_000000000046
PUBLIC	?is_signed@?$numeric_limits@_W@std@@2_NB	; std::numeric_limits<wchar_t>::is_signed
PUBLIC	?digits@?$numeric_limits@_W@std@@2HB		; std::numeric_limits<wchar_t>::digits
PUBLIC	?digits10@?$numeric_limits@_W@std@@2HB		; std::numeric_limits<wchar_t>::digits10
PUBLIC	?m_bInitFailed@CAtlBaseModule@ATL@@2_NA		; ATL::CAtlBaseModule::m_bInitFailed
PUBLIC	?is_modulo@?$numeric_limits@_N@std@@2_NB	; std::numeric_limits<bool>::is_modulo
PUBLIC	_IID_IAxWinHostWindowLic
PUBLIC	?is_signed@?$numeric_limits@_N@std@@2_NB	; std::numeric_limits<bool>::is_signed
PUBLIC	?digits@?$numeric_limits@_N@std@@2HB		; std::numeric_limits<bool>::digits
PUBLIC	?digits10@?$numeric_limits@_N@std@@2HB		; std::numeric_limits<bool>::digits10
PUBLIC	?is_signed@?$numeric_limits@C@std@@2_NB		; std::numeric_limits<signed char>::is_signed
PUBLIC	?digits@?$numeric_limits@C@std@@2HB		; std::numeric_limits<signed char>::digits
PUBLIC	?digits10@?$numeric_limits@C@std@@2HB		; std::numeric_limits<signed char>::digits10
PUBLIC	_IID_IAxWinAmbientDispatch
PUBLIC	?table_size@?$ctype@D@std@@2IB			; std::ctype<char>::table_size
PUBLIC	_LIBID_ATLLib
PUBLIC	?is_signed@?$numeric_limits@E@std@@2_NB		; std::numeric_limits<unsigned char>::is_signed
PUBLIC	?value@?$integral_constant@_N$0A@@std@@2_NB	; std::integral_constant<bool,0>::value
PUBLIC	?digits@?$numeric_limits@E@std@@2HB		; std::numeric_limits<unsigned char>::digits
PUBLIC	?digits10@?$numeric_limits@E@std@@2HB		; std::numeric_limits<unsigned char>::digits10
PUBLIC	?value@?$integral_constant@_N$00@std@@2_NB	; std::integral_constant<bool,1>::value
PUBLIC	?is_signed@?$numeric_limits@F@std@@2_NB		; std::numeric_limits<short>::is_signed
PUBLIC	?digits@?$numeric_limits@F@std@@2HB		; std::numeric_limits<short>::digits
PUBLIC	?digits10@?$numeric_limits@F@std@@2HB		; std::numeric_limits<short>::digits10
PUBLIC	__GUID_fc4801a3_2ba9_11cf_a229_00aa003d7352
PUBLIC	?_pModule@ATL@@3PAVCComModule@1@A		; ATL::_pModule
PUBLIC	?is_signed@?$numeric_limits@G@std@@2_NB		; std::numeric_limits<unsigned short>::is_signed
PUBLIC	?digits@?$numeric_limits@G@std@@2HB		; std::numeric_limits<unsigned short>::digits
PUBLIC	?digits10@?$numeric_limits@G@std@@2HB		; std::numeric_limits<unsigned short>::digits10
PUBLIC	__GUID_8edbef0a_aeb1_48ad_9ed2_bd41cd1075bd
PUBLIC	__GUID_dda57120_d4e3_11d2_9018_004f4e006398
PUBLIC	__GUID_dda57123_d4e3_11d2_9018_004f4e006398
PUBLIC	?is_signed@?$numeric_limits@H@std@@2_NB		; std::numeric_limits<int>::is_signed
PUBLIC	?value@?$_Sizeof@HU_Nil@std@@U12@U12@U12@U12@U12@U12@@std@@2IB ; std::_Sizeof<int,std::_Nil,std::_Nil,std::_Nil,std::_Nil,std::_Nil,std::_Nil,std::_Nil>::value
PUBLIC	?digits@?$numeric_limits@H@std@@2HB		; std::numeric_limits<int>::digits
PUBLIC	__GUID_b8d1f614_d5e4_4bd1_8f01_17371deaf685
PUBLIC	?digits10@?$numeric_limits@H@std@@2HB		; std::numeric_limits<int>::digits10
PUBLIC	__GUID_dda57125_d4e3_11d2_9018_004f4e006398
PUBLIC	___pobjMapEntryFirst
PUBLIC	___pobjMapEntryLast
PUBLIC	__GUID_dda57127_d4e3_11d2_9018_004f4e006398
PUBLIC	__GUID_9d9bb9a8_d54c_11d2_9018_004f4e006398
PUBLIC	??_C@_0BF@HDDNNDFH@Component?5Categories?$AA@	; `string'
PUBLIC	??_C@_08PICKODJL@FileType?$AA@			; `string'
PUBLIC	??_C@_09JKPGEJCH@Interface?$AA@			; `string'
PUBLIC	__GUID_e0016343_4124_48a9_9734_93f48700a04a
PUBLIC	??_C@_08PPIOJEA@Hardware?$AA@			; `string'
PUBLIC	??_C@_04IHBFOLAC@Mime?$AA@			; `string'
PUBLIC	?_pPerfRegFunc@ATL@@3P6AJPAUHINSTANCE__@@@ZA	; ATL::_pPerfRegFunc
PUBLIC	??_C@_03DDIMFGBA@SAM?$AA@			; `string'
PUBLIC	?_pPerfUnRegFunc@ATL@@3P6AJXZA			; ATL::_pPerfUnRegFunc
PUBLIC	??_C@_08LOPHEHKG@SECURITY?$AA@			; `string'
PUBLIC	?is_signed@?$numeric_limits@I@std@@2_NB		; std::numeric_limits<unsigned int>::is_signed
PUBLIC	?_AtlRegisterPerUser@ATL@@3_NA			; ATL::_AtlRegisterPerUser
PUBLIC	??_C@_06FDHFNJBJ@SYSTEM?$AA@			; `string'
PUBLIC	??_C@_08KEKAJNJI@Software?$AA@			; `string'
PUBLIC	__GUID_36b5b50d_69bb_43d5_83f6_aaf7eb9fff7b
PUBLIC	??_C@_07KJLOKDKB@TypeLib?$AA@			; `string'
PUBLIC	?digits@?$numeric_limits@I@std@@2HB		; std::numeric_limits<unsigned int>::digits
PUBLIC	?digits10@?$numeric_limits@I@std@@2HB		; std::numeric_limits<unsigned int>::digits10
PUBLIC	__GUID_b6b03a0c_d547_11d2_9018_004f4e006398
PUBLIC	__GUID_d783c329_d613_11d2_9018_004f4e006398
PUBLIC	__GUID_dda57122_d4e3_11d2_9018_004f4e006398
PUBLIC	__GUID_0f70ccce_d716_11d2_9018_004f4e006398
PUBLIC	__GUID_1386ae5c_d6f3_11d2_9018_004f4e006398
PUBLIC	?DoDFUpdate@@3HA				; DoDFUpdate
PUBLIC	?is_signed@?$numeric_limits@J@std@@2_NB		; std::numeric_limits<long>::is_signed
PUBLIC	__GUID_1386ae5a_d6f3_11d2_9018_004f4e006398
PUBLIC	?digits@?$numeric_limits@J@std@@2HB		; std::numeric_limits<long>::digits
PUBLIC	__GUID_1386ae5d_d6f3_11d2_9018_004f4e006398
PUBLIC	?digits10@?$numeric_limits@J@std@@2HB		; std::numeric_limits<long>::digits10
PUBLIC	?_IsF16_@@3JA					; _IsF16_
PUBLIC	__GUID_df360ef0_de0d_11d2_9023_004f4e006398
PUBLIC	__GUID_00000000_0000_0000_0000_000000000000
PUBLIC	__GUID_90efd9f9_d7a8_11d2_901a_004f4e006398
PUBLIC	__GUID_5ff85b6b_de05_42b9_831f_dc6a4e30a513
PUBLIC	?is_signed@?$numeric_limits@K@std@@2_NB		; std::numeric_limits<unsigned long>::is_signed
PUBLIC	__GUID_0002e012_0000_0000_c000_000000000046
PUBLIC	?digits@?$numeric_limits@K@std@@2HB		; std::numeric_limits<unsigned long>::digits
PUBLIC	?digits10@?$numeric_limits@K@std@@2HB		; std::numeric_limits<unsigned long>::digits10
PUBLIC	_IID_IAxWinAmbientDispatchEx
PUBLIC	?People@@3PAVC_TreeList@@A			; People
PUBLIC	?DogfightGames@@3PAVC_TreeList@@A		; DogfightGames
PUBLIC	?is_signed@?$numeric_limits@_J@std@@2_NB	; std::numeric_limits<__int64>::is_signed
PUBLIC	?TacticalGames@@3PAVC_TreeList@@A		; TacticalGames
PUBLIC	?CampaignGames@@3PAVC_TreeList@@A		; CampaignGames
PUBLIC	?gNewMessage@@3HA				; gNewMessage
PUBLIC	__GUID_00000109_0000_0000_c000_000000000046
PUBLIC	?digits@?$numeric_limits@_J@std@@2HB		; std::numeric_limits<__int64>::digits
PUBLIC	?digits10@?$numeric_limits@_J@std@@2HB		; std::numeric_limits<__int64>::digits10
PUBLIC	__GUID_7fd52380_4e07_101b_ae2d_08002b2ec713
PUBLIC	_IID_IInternalConnection
PUBLIC	??_C@_05GIBEAPNE@CLSID?$AA@			; `string'
PUBLIC	?is_signed@?$numeric_limits@_K@std@@2_NB	; std::numeric_limits<unsigned __int64>::is_signed
PUBLIC	?digits@?$numeric_limits@_K@std@@2HB		; std::numeric_limits<unsigned __int64>::digits
PUBLIC	?digits10@?$numeric_limits@_K@std@@2HB		; std::numeric_limits<unsigned __int64>::digits10
PUBLIC	??_C@_05PDIKPLII@AppID?$AA@			; `string'
PUBLIC	?digits@?$numeric_limits@M@std@@2HB		; std::numeric_limits<float>::digits
PUBLIC	?digits10@?$numeric_limits@M@std@@2HB		; std::numeric_limits<float>::digits10
PUBLIC	?max_digits10@?$numeric_limits@M@std@@2HB	; std::numeric_limits<float>::max_digits10
PUBLIC	?max_exponent@?$numeric_limits@M@std@@2HB	; std::numeric_limits<float>::max_exponent
PUBLIC	?max_exponent10@?$numeric_limits@M@std@@2HB	; std::numeric_limits<float>::max_exponent10
PUBLIC	?min_exponent@?$numeric_limits@M@std@@2HB	; std::numeric_limits<float>::min_exponent
PUBLIC	?min_exponent10@?$numeric_limits@M@std@@2HB	; std::numeric_limits<float>::min_exponent10
PUBLIC	?chDirSep@ATL@@3DB				; ATL::chDirSep
PUBLIC	?chRightBracket@ATL@@3DB			; ATL::chRightBracket
PUBLIC	?chLeftBracket@ATL@@3DB				; ATL::chLeftBracket
PUBLIC	?chQuote@ATL@@3DB				; ATL::chQuote
PUBLIC	?chEquals@ATL@@3DB				; ATL::chEquals
PUBLIC	?szStringVal@ATL@@3QBDB				; ATL::szStringVal
PUBLIC	??_C@_01CPLAODJH@S?$AA@				; `string'
PUBLIC	?multiszStringVal@ATL@@3QBDB			; ATL::multiszStringVal
PUBLIC	??_C@_01PLPBNMEI@M?$AA@				; `string'
PUBLIC	?szDwordVal@ATL@@3QBDB				; ATL::szDwordVal
PUBLIC	??_C@_01CKDDGHAB@D?$AA@				; `string'
PUBLIC	?szBinaryVal@ATL@@3QBDB				; ATL::szBinaryVal
PUBLIC	??_C@_01HMGJMAIH@B?$AA@				; `string'
PUBLIC	?szValToken@ATL@@3QBDB				; ATL::szValToken
PUBLIC	??_C@_03LAIAPFCB@Val?$AA@			; `string'
PUBLIC	?szForceRemove@ATL@@3QBDB			; ATL::szForceRemove
PUBLIC	??_C@_0M@DBGDLGLL@ForceRemove?$AA@		; `string'
PUBLIC	?value@?$integral_constant@I$0A@@std@@2IB	; std::integral_constant<unsigned int,0>::value
PUBLIC	?szNoRemove@ATL@@3QBDB				; ATL::szNoRemove
PUBLIC	??_C@_08KAAPDIAN@NoRemove?$AA@			; `string'
PUBLIC	?digits@?$numeric_limits@N@std@@2HB		; std::numeric_limits<double>::digits
PUBLIC	?szDelete@ATL@@3QBDB				; ATL::szDelete
PUBLIC	??_C@_06JBKGCNBB@Delete?$AA@			; `string'
PUBLIC	?digits10@?$numeric_limits@N@std@@2HB		; std::numeric_limits<double>::digits10
PUBLIC	?max_digits10@?$numeric_limits@N@std@@2HB	; std::numeric_limits<double>::max_digits10
PUBLIC	?max_exponent@?$numeric_limits@N@std@@2HB	; std::numeric_limits<double>::max_exponent
PUBLIC	?max_exponent10@?$numeric_limits@N@std@@2HB	; std::numeric_limits<double>::max_exponent10
PUBLIC	?ATL_CREATE_OBJECT@CComApartment@ATL@@2IA	; ATL::CComApartment::ATL_CREATE_OBJECT
PUBLIC	?min_exponent@?$numeric_limits@N@std@@2HB	; std::numeric_limits<double>::min_exponent
PUBLIC	?_Min@?$AtlLimits@H@ATL@@2HB			; ATL::AtlLimits<int>::_Min
PUBLIC	?min_exponent10@?$numeric_limits@N@std@@2HB	; std::numeric_limits<double>::min_exponent10
PUBLIC	?_Max@?$AtlLimits@H@ATL@@2HB			; ATL::AtlLimits<int>::_Max
PUBLIC	?_Min@?$AtlLimits@I@ATL@@2IB			; ATL::AtlLimits<unsigned int>::_Min
PUBLIC	?_Max@?$AtlLimits@I@ATL@@2IB			; ATL::AtlLimits<unsigned int>::_Max
PUBLIC	?g_nmissiletrial@@3HA				; g_nmissiletrial
PUBLIC	?g_bDrawBoundingBox@@3_NA			; g_bDrawBoundingBox
PUBLIC	?_Min@?$AtlLimits@J@ATL@@2JB			; ATL::AtlLimits<long>::_Min
PUBLIC	?_Max@?$AtlLimits@J@ATL@@2JB			; ATL::AtlLimits<long>::_Max
PUBLIC	?g_nboostguidesec@@3MA				; g_nboostguidesec
PUBLIC	?g_nterminalguiderange@@3MA			; g_nterminalguiderange
PUBLIC	?g_nboostguideSensorPrecision@@3MA		; g_nboostguideSensorPrecision
PUBLIC	?g_nsustainguideSensorPrecision@@3MA		; g_nsustainguideSensorPrecision
PUBLIC	?g_nterminalguideSensorPrecision@@3MA		; g_nterminalguideSensorPrecision
PUBLIC	?digits@?$numeric_limits@O@std@@2HB		; std::numeric_limits<long double>::digits
PUBLIC	?g_nboostguideLead@@3MA				; g_nboostguideLead
PUBLIC	?g_nsustainguideLead@@3MA			; g_nsustainguideLead
PUBLIC	?g_nterminalguideLead@@3MA			; g_nterminalguideLead
PUBLIC	?digits10@?$numeric_limits@O@std@@2HB		; std::numeric_limits<long double>::digits10
PUBLIC	?g_nboostguideGnav@@3MA				; g_nboostguideGnav
PUBLIC	?_Min@?$AtlLimits@K@ATL@@2KB			; ATL::AtlLimits<unsigned long>::_Min
PUBLIC	?g_nsustainguideGnav@@3MA			; g_nsustainguideGnav
PUBLIC	?skipws@?$_Iosb@H@std@@2W4_Fmtflags@12@B	; std::_Iosb<int>::skipws
PUBLIC	?g_nterminalguideGnav@@3MA			; g_nterminalguideGnav
PUBLIC	?max_digits10@?$numeric_limits@O@std@@2HB	; std::numeric_limits<long double>::max_digits10
PUBLIC	?_Max@?$AtlLimits@K@ATL@@2KB			; ATL::AtlLimits<unsigned long>::_Max
PUBLIC	?g_nboostguideBwap@@3MA				; g_nboostguideBwap
PUBLIC	?g_nsustainguideBwap@@3MA			; g_nsustainguideBwap
PUBLIC	?unitbuf@?$_Iosb@H@std@@2W4_Fmtflags@12@B	; std::_Iosb<int>::unitbuf
PUBLIC	?g_nterminalguideBwap@@3MA			; g_nterminalguideBwap
PUBLIC	?g_nMpdelaytweakfactor@@3MA			; g_nMpdelaytweakfactor
PUBLIC	?max_exponent@?$numeric_limits@O@std@@2HB	; std::numeric_limits<long double>::max_exponent
PUBLIC	?uppercase@?$_Iosb@H@std@@2W4_Fmtflags@12@B	; std::_Iosb<int>::uppercase
PUBLIC	?showbase@?$_Iosb@H@std@@2W4_Fmtflags@12@B	; std::_Iosb<int>::showbase
PUBLIC	?max_exponent10@?$numeric_limits@O@std@@2HB	; std::numeric_limits<long double>::max_exponent10
PUBLIC	?_Min@?$AtlLimits@_J@ATL@@2_JB			; ATL::AtlLimits<__int64>::_Min
PUBLIC	?showpoint@?$_Iosb@H@std@@2W4_Fmtflags@12@B	; std::_Iosb<int>::showpoint
PUBLIC	?min_exponent@?$numeric_limits@O@std@@2HB	; std::numeric_limits<long double>::min_exponent
PUBLIC	?_Max@?$AtlLimits@_J@ATL@@2_JB			; ATL::AtlLimits<__int64>::_Max
PUBLIC	?showpos@?$_Iosb@H@std@@2W4_Fmtflags@12@B	; std::_Iosb<int>::showpos
PUBLIC	?min_exponent10@?$numeric_limits@O@std@@2HB	; std::numeric_limits<long double>::min_exponent10
PUBLIC	__GUID_00020400_0000_0000_c000_000000000046
PUBLIC	?left@?$_Iosb@H@std@@2W4_Fmtflags@12@B		; std::_Iosb<int>::left
PUBLIC	?right@?$_Iosb@H@std@@2W4_Fmtflags@12@B		; std::_Iosb<int>::right
PUBLIC	?_Min@?$AtlLimits@_K@ATL@@2_KB			; ATL::AtlLimits<unsigned __int64>::_Min
PUBLIC	?internal@?$_Iosb@H@std@@2W4_Fmtflags@12@B	; std::_Iosb<int>::internal
PUBLIC	?_Max@?$AtlLimits@_K@ATL@@2_KB			; ATL::AtlLimits<unsigned __int64>::_Max
PUBLIC	?dec@?$_Iosb@H@std@@2W4_Fmtflags@12@B		; std::_Iosb<int>::dec
PUBLIC	?oct@?$_Iosb@H@std@@2W4_Fmtflags@12@B		; std::_Iosb<int>::oct
PUBLIC	?VT@?$CVarTypeInfo@D@ATL@@2GB			; ATL::CVarTypeInfo<char>::VT
PUBLIC	?hex@?$_Iosb@H@std@@2W4_Fmtflags@12@B		; std::_Iosb<int>::hex
PUBLIC	?_pAtlAutoThreadModule@ATL@@3PAUIAtlAutoThreadModule@1@A ; ATL::_pAtlAutoThreadModule
PUBLIC	?pmField@?$CVarTypeInfo@D@ATL@@2QQtagVARIANT@@DQ3@ ; ATL::CVarTypeInfo<char>::pmField
PUBLIC	?scientific@?$_Iosb@H@std@@2W4_Fmtflags@12@B	; std::_Iosb<int>::scientific
PUBLIC	?fixed@?$_Iosb@H@std@@2W4_Fmtflags@12@B		; std::_Iosb<int>::fixed
PUBLIC	?hexfloat@?$_Iosb@H@std@@2W4_Fmtflags@12@B	; std::_Iosb<int>::hexfloat
PUBLIC	?boolalpha@?$_Iosb@H@std@@2W4_Fmtflags@12@B	; std::_Iosb<int>::boolalpha
PUBLIC	?VT@?$CVarTypeInfo@E@ATL@@2GB			; ATL::CVarTypeInfo<unsigned char>::VT
PUBLIC	?pmField@?$CVarTypeInfo@E@ATL@@2QQtagVARIANT@@EQ3@ ; ATL::CVarTypeInfo<unsigned char>::pmField
PUBLIC	?_Stdio@?$_Iosb@H@std@@2W4_Fmtflags@12@B	; std::_Iosb<int>::_Stdio
PUBLIC	_CLSID_Registrar
PUBLIC	?adjustfield@?$_Iosb@H@std@@2W4_Fmtflags@12@B	; std::_Iosb<int>::adjustfield
PUBLIC	?basefield@?$_Iosb@H@std@@2W4_Fmtflags@12@B	; std::_Iosb<int>::basefield
PUBLIC	?floatfield@?$_Iosb@H@std@@2W4_Fmtflags@12@B	; std::_Iosb<int>::floatfield
PUBLIC	?VT@?$CVarTypeInfo@PAD@ATL@@2GB			; ATL::CVarTypeInfo<char *>::VT
PUBLIC	?pmField@?$CVarTypeInfo@PAD@ATL@@2QQtagVARIANT@@PADQ3@ ; ATL::CVarTypeInfo<char *>::pmField
PUBLIC	?goodbit@?$_Iosb@H@std@@2W4_Iostate@12@B	; std::_Iosb<int>::goodbit
PUBLIC	?eofbit@?$_Iosb@H@std@@2W4_Iostate@12@B		; std::_Iosb<int>::eofbit
PUBLIC	?failbit@?$_Iosb@H@std@@2W4_Iostate@12@B	; std::_Iosb<int>::failbit
PUBLIC	?badbit@?$_Iosb@H@std@@2W4_Iostate@12@B		; std::_Iosb<int>::badbit
PUBLIC	?VT@?$CVarTypeInfo@PAE@ATL@@2GB			; ATL::CVarTypeInfo<unsigned char *>::VT
PUBLIC	?pmField@?$CVarTypeInfo@PAE@ATL@@2QQtagVARIANT@@PAEQ3@ ; ATL::CVarTypeInfo<unsigned char *>::pmField
PUBLIC	?_Hardfail@?$_Iosb@H@std@@2W4_Iostate@12@B	; std::_Iosb<int>::_Hardfail
PUBLIC	?in@?$_Iosb@H@std@@2W4_Openmode@12@B		; std::_Iosb<int>::in
PUBLIC	?out@?$_Iosb@H@std@@2W4_Openmode@12@B		; std::_Iosb<int>::out
PUBLIC	_IID_IRegistrar
PUBLIC	?VT@?$CVarTypeInfo@F@ATL@@2GB			; ATL::CVarTypeInfo<short>::VT
PUBLIC	?ate@?$_Iosb@H@std@@2W4_Openmode@12@B		; std::_Iosb<int>::ate
PUBLIC	?pmField@?$CVarTypeInfo@F@ATL@@2QQtagVARIANT@@FQ3@ ; ATL::CVarTypeInfo<short>::pmField
PUBLIC	?app@?$_Iosb@H@std@@2W4_Openmode@12@B		; std::_Iosb<int>::app
PUBLIC	?trunc@?$_Iosb@H@std@@2W4_Openmode@12@B		; std::_Iosb<int>::trunc
PUBLIC	?_Nocreate@?$_Iosb@H@std@@2W4_Openmode@12@B	; std::_Iosb<int>::_Nocreate
PUBLIC	?_Noreplace@?$_Iosb@H@std@@2W4_Openmode@12@B	; std::_Iosb<int>::_Noreplace
PUBLIC	?VT@?$CVarTypeInfo@PAF@ATL@@2GB			; ATL::CVarTypeInfo<short *>::VT
PUBLIC	?pmField@?$CVarTypeInfo@PAF@ATL@@2QQtagVARIANT@@PAFQ3@ ; ATL::CVarTypeInfo<short *>::pmField
PUBLIC	?binary@?$_Iosb@H@std@@2W4_Openmode@12@B	; std::_Iosb<int>::binary
PUBLIC	?beg@?$_Iosb@H@std@@2W4_Seekdir@12@B		; std::_Iosb<int>::beg
PUBLIC	?cur@?$_Iosb@H@std@@2W4_Seekdir@12@B		; std::_Iosb<int>::cur
PUBLIC	?VT@?$CVarTypeInfo@G@ATL@@2GB			; ATL::CVarTypeInfo<unsigned short>::VT
PUBLIC	?end@?$_Iosb@H@std@@2W4_Seekdir@12@B		; std::_Iosb<int>::end
PUBLIC	?pmField@?$CVarTypeInfo@G@ATL@@2QQtagVARIANT@@GQ3@ ; ATL::CVarTypeInfo<unsigned short>::pmField
PUBLIC	?VT@?$CVarTypeInfo@PAG@ATL@@2GB			; ATL::CVarTypeInfo<unsigned short *>::VT
PUBLIC	?pmField@?$CVarTypeInfo@PAG@ATL@@2QQtagVARIANT@@PAGQ3@ ; ATL::CVarTypeInfo<unsigned short *>::pmField
PUBLIC	?VT@?$CVarTypeInfo@H@ATL@@2GB			; ATL::CVarTypeInfo<int>::VT
PUBLIC	?pmField@?$CVarTypeInfo@H@ATL@@2QQtagVARIANT@@HQ3@ ; ATL::CVarTypeInfo<int>::pmField
PUBLIC	?_Stream_err@failure@ios_base@std@@0W4io_errc@43@B ; std::ios_base::failure::_Stream_err
PUBLIC	?value@?$_Sizeof@U_Nil@std@@U12@U12@U12@U12@U12@U12@U12@@std@@2IB ; std::_Sizeof<std::_Nil,std::_Nil,std::_Nil,std::_Nil,std::_Nil,std::_Nil,std::_Nil,std::_Nil>::value
PUBLIC	?VT@?$CVarTypeInfo@PAH@ATL@@2GB			; ATL::CVarTypeInfo<int *>::VT
PUBLIC	?pmField@?$CVarTypeInfo@PAH@ATL@@2QQtagVARIANT@@PAHQ3@ ; ATL::CVarTypeInfo<int *>::pmField
PUBLIC	?MAX_VALUE@CRegParser@ATL@@1HB			; ATL::CRegParser::MAX_VALUE
PUBLIC	?VT@?$CVarTypeInfo@I@ATL@@2GB			; ATL::CVarTypeInfo<unsigned int>::VT
PUBLIC	?pmField@?$CVarTypeInfo@I@ATL@@2QQtagVARIANT@@IQ3@ ; ATL::CVarTypeInfo<unsigned int>::pmField
PUBLIC	?VT@?$CVarTypeInfo@PAI@ATL@@2GB			; ATL::CVarTypeInfo<unsigned int *>::VT
PUBLIC	?pmField@?$CVarTypeInfo@PAI@ATL@@2QQtagVARIANT@@PAIQ3@ ; ATL::CVarTypeInfo<unsigned int *>::pmField
PUBLIC	__GUID_00000000_0000_0000_c000_000000000046
PUBLIC	?VT@?$CVarTypeInfo@J@ATL@@2GB			; ATL::CVarTypeInfo<long>::VT
PUBLIC	?pmField@?$CVarTypeInfo@J@ATL@@2QQtagVARIANT@@JQ3@ ; ATL::CVarTypeInfo<long>::pmField
PUBLIC	?rgszNeverDelete@CRegParser@ATL@@1QBQBDB	; ATL::CRegParser::rgszNeverDelete
PUBLIC	?cbNeverDelete@CRegParser@ATL@@1HB		; ATL::CRegParser::cbNeverDelete
PUBLIC	?VT@?$CVarTypeInfo@PAJ@ATL@@2GB			; ATL::CVarTypeInfo<long *>::VT
PUBLIC	?MAX_TYPE@CRegParser@ATL@@1HB			; ATL::CRegParser::MAX_TYPE
PUBLIC	?pmField@?$CVarTypeInfo@PAJ@ATL@@2QQtagVARIANT@@PAJQ3@ ; ATL::CVarTypeInfo<long *>::pmField
PUBLIC	_IID_IDocHostUIHandlerDispatch
PUBLIC	?VT@?$CVarTypeInfo@K@ATL@@2GB			; ATL::CVarTypeInfo<unsigned long>::VT
PUBLIC	?pmField@?$CVarTypeInfo@K@ATL@@2QQtagVARIANT@@KQ3@ ; ATL::CVarTypeInfo<unsigned long>::pmField
PUBLIC	?VT@?$CVarTypeInfo@PAK@ATL@@2GB			; ATL::CVarTypeInfo<unsigned long *>::VT
PUBLIC	?pmField@?$CVarTypeInfo@PAK@ATL@@2QQtagVARIANT@@PAKQ3@ ; ATL::CVarTypeInfo<unsigned long *>::pmField
PUBLIC	?has_denorm@_Num_base@std@@2W4float_denorm_style@2@B ; std::_Num_base::has_denorm
PUBLIC	__GUID_b196b284_bab4_101a_b69c_00aa00341d07
PUBLIC	?has_denorm_loss@_Num_base@std@@2_NB		; std::_Num_base::has_denorm_loss
PUBLIC	?VT@?$CVarTypeInfo@_J@ATL@@2GB			; ATL::CVarTypeInfo<__int64>::VT
PUBLIC	?pmField@?$CVarTypeInfo@_J@ATL@@2QQtagVARIANT@@_JQ3@ ; ATL::CVarTypeInfo<__int64>::pmField
PUBLIC	?has_infinity@_Num_base@std@@2_NB		; std::_Num_base::has_infinity
PUBLIC	?has_quiet_NaN@_Num_base@std@@2_NB		; std::_Num_base::has_quiet_NaN
PUBLIC	?has_signaling_NaN@_Num_base@std@@2_NB		; std::_Num_base::has_signaling_NaN
PUBLIC	?is_bounded@_Num_base@std@@2_NB			; std::_Num_base::is_bounded
PUBLIC	?VT@?$CVarTypeInfo@PA_J@ATL@@2GB		; ATL::CVarTypeInfo<__int64 *>::VT
PUBLIC	?is_exact@_Num_base@std@@2_NB			; std::_Num_base::is_exact
PUBLIC	?pmField@?$CVarTypeInfo@PA_J@ATL@@2QQtagVARIANT@@PA_JQ3@ ; ATL::CVarTypeInfo<__int64 *>::pmField
PUBLIC	?is_iec559@_Num_base@std@@2_NB			; std::_Num_base::is_iec559
PUBLIC	?is_integer@_Num_base@std@@2_NB			; std::_Num_base::is_integer
PUBLIC	?is_modulo@_Num_base@std@@2_NB			; std::_Num_base::is_modulo
PUBLIC	?VT@?$CVarTypeInfo@_K@ATL@@2GB			; ATL::CVarTypeInfo<unsigned __int64>::VT
PUBLIC	?is_signed@_Num_base@std@@2_NB			; std::_Num_base::is_signed
PUBLIC	?pmField@?$CVarTypeInfo@_K@ATL@@2QQtagVARIANT@@_KQ3@ ; ATL::CVarTypeInfo<unsigned __int64>::pmField
PUBLIC	_LIBID_SHAREDLib
PUBLIC	?is_specialized@_Num_base@std@@2_NB		; std::_Num_base::is_specialized
PUBLIC	_CLSID_Host
PUBLIC	_IID_IHost
PUBLIC	_CLSID_Player
PUBLIC	?tinyness_before@_Num_base@std@@2_NB		; std::_Num_base::tinyness_before
PUBLIC	_IID_IPlayer
PUBLIC	_CLSID_RemoteMasterServer
PUBLIC	_IID_IMasterServer
;	COMDAT ?_pAtlModule@ATL@@3PAVCAtlModule@1@A
_BSS	SEGMENT
?_pAtlModule@ATL@@3PAVCAtlModule@1@A DD 01H DUP (?)	; ATL::_pAtlModule
_BSS	ENDS
;	COMDAT ?m_libid@CAtlModule@ATL@@2U_GUID@@A
_BSS	SEGMENT
?m_libid@CAtlModule@ATL@@2U_GUID@@A DB 010H DUP (?)	; ATL::CAtlModule::m_libid
_BSS	ENDS
;	COMDAT ?m_bInitFailed@CAtlBaseModule@ATL@@2_NA
_BSS	SEGMENT
?m_bInitFailed@CAtlBaseModule@ATL@@2_NA DB 01H DUP (?)	; ATL::CAtlBaseModule::m_bInitFailed
_BSS	ENDS
;	COMDAT ?_pModule@ATL@@3PAVCComModule@1@A
_BSS	SEGMENT
?_pModule@ATL@@3PAVCComModule@1@A DD 01H DUP (?)	; ATL::_pModule
_BSS	ENDS
;	COMDAT ?_pPerfRegFunc@ATL@@3P6AJPAUHINSTANCE__@@@ZA
_BSS	SEGMENT
?_pPerfRegFunc@ATL@@3P6AJPAUHINSTANCE__@@@ZA DD 01H DUP (?) ; ATL::_pPerfRegFunc
_BSS	ENDS
;	COMDAT ?_pPerfUnRegFunc@ATL@@3P6AJXZA
_BSS	SEGMENT
?_pPerfUnRegFunc@ATL@@3P6AJXZA DD 01H DUP (?)		; ATL::_pPerfUnRegFunc
_BSS	ENDS
;	COMDAT ?_AtlRegisterPerUser@ATL@@3_NA
_BSS	SEGMENT
?_AtlRegisterPerUser@ATL@@3_NA DB 01H DUP (?)		; ATL::_AtlRegisterPerUser
_BSS	ENDS
_BSS	SEGMENT
?DoDFUpdate@@3HA DD 01H DUP (?)				; DoDFUpdate
?_IsF16_@@3JA DD 01H DUP (?)				; _IsF16_
_CurChatY DD	01H DUP (?)
?People@@3PAVC_TreeList@@A DD 01H DUP (?)		; People
?DogfightGames@@3PAVC_TreeList@@A DD 01H DUP (?)	; DogfightGames
?TacticalGames@@3PAVC_TreeList@@A DD 01H DUP (?)	; TacticalGames
?CampaignGames@@3PAVC_TreeList@@A DD 01H DUP (?)	; CampaignGames
?gNewMessage@@3HA DD 01H DUP (?)			; gNewMessage
_BSS	ENDS
;	COMDAT ?ATL_CREATE_OBJECT@CComApartment@ATL@@2IA
_BSS	SEGMENT
?ATL_CREATE_OBJECT@CComApartment@ATL@@2IA DD 01H DUP (?) ; ATL::CComApartment::ATL_CREATE_OBJECT
_BSS	ENDS
_BSS	SEGMENT
?g_nmissiletrial@@3HA DD 01H DUP (?)			; g_nmissiletrial
?g_bDrawBoundingBox@@3_NA DB 01H DUP (?)		; g_bDrawBoundingBox
	ALIGN	4

?g_nboostguidesec@@3MA DD 01H DUP (?)			; g_nboostguidesec
?g_nterminalguiderange@@3MA DD 01H DUP (?)		; g_nterminalguiderange
?g_nboostguideSensorPrecision@@3MA DD 01H DUP (?)	; g_nboostguideSensorPrecision
?g_nsustainguideSensorPrecision@@3MA DD 01H DUP (?)	; g_nsustainguideSensorPrecision
?g_nterminalguideSensorPrecision@@3MA DD 01H DUP (?)	; g_nterminalguideSensorPrecision
?g_nboostguideLead@@3MA DD 01H DUP (?)			; g_nboostguideLead
?g_nsustainguideLead@@3MA DD 01H DUP (?)		; g_nsustainguideLead
?g_nterminalguideLead@@3MA DD 01H DUP (?)		; g_nterminalguideLead
?g_nboostguideGnav@@3MA DD 01H DUP (?)			; g_nboostguideGnav
?g_nsustainguideGnav@@3MA DD 01H DUP (?)		; g_nsustainguideGnav
?g_nterminalguideGnav@@3MA DD 01H DUP (?)		; g_nterminalguideGnav
?g_nboostguideBwap@@3MA DD 01H DUP (?)			; g_nboostguideBwap
?g_nsustainguideBwap@@3MA DD 01H DUP (?)		; g_nsustainguideBwap
?g_nterminalguideBwap@@3MA DD 01H DUP (?)		; g_nterminalguideBwap
?g_nMpdelaytweakfactor@@3MA DD 01H DUP (?)		; g_nMpdelaytweakfactor
_BSS	ENDS
;	COMDAT ?_pAtlAutoThreadModule@ATL@@3PAUIAtlAutoThreadModule@1@A
_BSS	SEGMENT
?_pAtlAutoThreadModule@ATL@@3PAUIAtlAutoThreadModule@1@A DD 01H DUP (?) ; ATL::_pAtlAutoThreadModule
_BSS	ENDS
;	COMDAT _IID_IMasterServer
CONST	SEGMENT
_IID_IMasterServer DD 0dda57127H
	DW	0d4e3H
	DW	011d2H
	DB	090H
	DB	018H
	DB	00H
	DB	04fH
	DB	04eH
	DB	00H
	DB	063H
	DB	098H
CONST	ENDS
;	COMDAT _CLSID_RemoteMasterServer
CONST	SEGMENT
_CLSID_RemoteMasterServer DD 045292708H
	DW	037a2H
	DW	0483bH
	DB	08eH
	DB	04aH
	DB	0e3H
	DB	0b6H
	DB	01fH
	DB	053H
	DB	07aH
	DB	0fH
CONST	ENDS
;	COMDAT _IID_IPlayer
CONST	SEGMENT
_IID_IPlayer DD	0dda57125H
	DW	0d4e3H
	DW	011d2H
	DB	090H
	DB	018H
	DB	00H
	DB	04fH
	DB	04eH
	DB	00H
	DB	063H
	DB	098H
CONST	ENDS
;	COMDAT ?tinyness_before@_Num_base@std@@2_NB
CONST	SEGMENT
?tinyness_before@_Num_base@std@@2_NB DB 00H		; std::_Num_base::tinyness_before
CONST	ENDS
;	COMDAT _CLSID_Player
CONST	SEGMENT
_CLSID_Player DD 0546dbb68H
	DW	0338fH
	DW	04c04H
	DB	083H
	DB	0b7H
	DB	0dbH
	DB	0c0H
	DB	0efH
	DB	08fH
	DB	09H
	DB	0a6H
CONST	ENDS
;	COMDAT _IID_IHost
CONST	SEGMENT
_IID_IHost DD	0b6b03a0cH
	DW	0d547H
	DW	011d2H
	DB	090H
	DB	018H
	DB	00H
	DB	04fH
	DB	04eH
	DB	00H
	DB	063H
	DB	098H
CONST	ENDS
;	COMDAT _CLSID_Host
CONST	SEGMENT
_CLSID_Host DD	0b6b03a0dH
	DW	0d547H
	DW	011d2H
	DB	090H
	DB	018H
	DB	00H
	DB	04fH
	DB	04eH
	DB	00H
	DB	063H
	DB	098H
CONST	ENDS
;	COMDAT ?is_specialized@_Num_base@std@@2_NB
CONST	SEGMENT
?is_specialized@_Num_base@std@@2_NB DB 00H		; std::_Num_base::is_specialized
CONST	ENDS
;	COMDAT _LIBID_SHAREDLib
CONST	SEGMENT
_LIBID_SHAREDLib DD 0890a47f1H
	DW	0d62fH
	DW	011d2H
	DB	090H
	DB	018H
	DB	00H
	DB	04fH
	DB	04eH
	DB	00H
	DB	063H
	DB	098H
CONST	ENDS
;	COMDAT ?pmField@?$CVarTypeInfo@_K@ATL@@2QQtagVARIANT@@_KQ3@
CONST	SEGMENT
?pmField@?$CVarTypeInfo@_K@ATL@@2QQtagVARIANT@@_KQ3@ DD 08H ; ATL::CVarTypeInfo<unsigned __int64>::pmField
CONST	ENDS
;	COMDAT ?is_signed@_Num_base@std@@2_NB
CONST	SEGMENT
?is_signed@_Num_base@std@@2_NB DB 00H			; std::_Num_base::is_signed
CONST	ENDS
;	COMDAT ?VT@?$CVarTypeInfo@_K@ATL@@2GB
CONST	SEGMENT
?VT@?$CVarTypeInfo@_K@ATL@@2GB DW 015H			; ATL::CVarTypeInfo<unsigned __int64>::VT
CONST	ENDS
;	COMDAT ?is_modulo@_Num_base@std@@2_NB
CONST	SEGMENT
?is_modulo@_Num_base@std@@2_NB DB 00H			; std::_Num_base::is_modulo
CONST	ENDS
;	COMDAT ?is_integer@_Num_base@std@@2_NB
CONST	SEGMENT
?is_integer@_Num_base@std@@2_NB DB 00H			; std::_Num_base::is_integer
CONST	ENDS
;	COMDAT ?is_iec559@_Num_base@std@@2_NB
CONST	SEGMENT
?is_iec559@_Num_base@std@@2_NB DB 00H			; std::_Num_base::is_iec559
CONST	ENDS
;	COMDAT ?pmField@?$CVarTypeInfo@PA_J@ATL@@2QQtagVARIANT@@PA_JQ3@
CONST	SEGMENT
?pmField@?$CVarTypeInfo@PA_J@ATL@@2QQtagVARIANT@@PA_JQ3@ DD 08H ; ATL::CVarTypeInfo<__int64 *>::pmField
CONST	ENDS
;	COMDAT ?is_exact@_Num_base@std@@2_NB
CONST	SEGMENT
?is_exact@_Num_base@std@@2_NB DB 00H			; std::_Num_base::is_exact
CONST	ENDS
;	COMDAT ?VT@?$CVarTypeInfo@PA_J@ATL@@2GB
CONST	SEGMENT
?VT@?$CVarTypeInfo@PA_J@ATL@@2GB DW 04014H		; ATL::CVarTypeInfo<__int64 *>::VT
CONST	ENDS
;	COMDAT ?is_bounded@_Num_base@std@@2_NB
CONST	SEGMENT
?is_bounded@_Num_base@std@@2_NB DB 00H			; std::_Num_base::is_bounded
CONST	ENDS
;	COMDAT ?has_signaling_NaN@_Num_base@std@@2_NB
CONST	SEGMENT
?has_signaling_NaN@_Num_base@std@@2_NB DB 00H		; std::_Num_base::has_signaling_NaN
CONST	ENDS
;	COMDAT ?has_quiet_NaN@_Num_base@std@@2_NB
CONST	SEGMENT
?has_quiet_NaN@_Num_base@std@@2_NB DB 00H		; std::_Num_base::has_quiet_NaN
CONST	ENDS
;	COMDAT ?has_infinity@_Num_base@std@@2_NB
CONST	SEGMENT
?has_infinity@_Num_base@std@@2_NB DB 00H		; std::_Num_base::has_infinity
CONST	ENDS
;	COMDAT ?pmField@?$CVarTypeInfo@_J@ATL@@2QQtagVARIANT@@_JQ3@
CONST	SEGMENT
?pmField@?$CVarTypeInfo@_J@ATL@@2QQtagVARIANT@@_JQ3@ DD 08H ; ATL::CVarTypeInfo<__int64>::pmField
CONST	ENDS
;	COMDAT ?VT@?$CVarTypeInfo@_J@ATL@@2GB
CONST	SEGMENT
?VT@?$CVarTypeInfo@_J@ATL@@2GB DW 014H			; ATL::CVarTypeInfo<__int64>::VT
CONST	ENDS
;	COMDAT ?has_denorm_loss@_Num_base@std@@2_NB
CONST	SEGMENT
?has_denorm_loss@_Num_base@std@@2_NB DB 00H		; std::_Num_base::has_denorm_loss
CONST	ENDS
;	COMDAT __GUID_b196b284_bab4_101a_b69c_00aa00341d07
CONST	SEGMENT
__GUID_b196b284_bab4_101a_b69c_00aa00341d07 DD 0b196b284H
	DW	0bab4H
	DW	0101aH
	DB	0b6H
	DB	09cH
	DB	00H
	DB	0aaH
	DB	00H
	DB	034H
	DB	01dH
	DB	07H
CONST	ENDS
;	COMDAT ?has_denorm@_Num_base@std@@2W4float_denorm_style@2@B
CONST	SEGMENT
?has_denorm@_Num_base@std@@2W4float_denorm_style@2@B DD 00H ; std::_Num_base::has_denorm
CONST	ENDS
;	COMDAT ?pmField@?$CVarTypeInfo@PAK@ATL@@2QQtagVARIANT@@PAKQ3@
CONST	SEGMENT
?pmField@?$CVarTypeInfo@PAK@ATL@@2QQtagVARIANT@@PAKQ3@ DD 08H ; ATL::CVarTypeInfo<unsigned long *>::pmField
CONST	ENDS
;	COMDAT ?VT@?$CVarTypeInfo@PAK@ATL@@2GB
CONST	SEGMENT
?VT@?$CVarTypeInfo@PAK@ATL@@2GB DW 04013H		; ATL::CVarTypeInfo<unsigned long *>::VT
CONST	ENDS
;	COMDAT ?pmField@?$CVarTypeInfo@K@ATL@@2QQtagVARIANT@@KQ3@
CONST	SEGMENT
?pmField@?$CVarTypeInfo@K@ATL@@2QQtagVARIANT@@KQ3@ DD 08H ; ATL::CVarTypeInfo<unsigned long>::pmField
CONST	ENDS
;	COMDAT ?VT@?$CVarTypeInfo@K@ATL@@2GB
CONST	SEGMENT
?VT@?$CVarTypeInfo@K@ATL@@2GB DW 013H			; ATL::CVarTypeInfo<unsigned long>::VT
CONST	ENDS
;	COMDAT _IID_IDocHostUIHandlerDispatch
CONST	SEGMENT
_IID_IDocHostUIHandlerDispatch DD 0425b5af0H
	DW	065f1H
	DW	011d1H
	DB	096H
	DB	011H
	DB	00H
	DB	00H
	DB	0f8H
	DB	01eH
	DB	0dH
	DB	0dH
CONST	ENDS
;	COMDAT ?pmField@?$CVarTypeInfo@PAJ@ATL@@2QQtagVARIANT@@PAJQ3@
CONST	SEGMENT
?pmField@?$CVarTypeInfo@PAJ@ATL@@2QQtagVARIANT@@PAJQ3@ DD 08H ; ATL::CVarTypeInfo<long *>::pmField
CONST	ENDS
;	COMDAT ?MAX_TYPE@CRegParser@ATL@@1HB
CONST	SEGMENT
?MAX_TYPE@CRegParser@ATL@@1HB DD 01000H			; ATL::CRegParser::MAX_TYPE
CONST	ENDS
;	COMDAT ?VT@?$CVarTypeInfo@PAJ@ATL@@2GB
CONST	SEGMENT
?VT@?$CVarTypeInfo@PAJ@ATL@@2GB DW 04003H		; ATL::CVarTypeInfo<long *>::VT
CONST	ENDS
;	COMDAT ?cbNeverDelete@CRegParser@ATL@@1HB
CONST	SEGMENT
?cbNeverDelete@CRegParser@ATL@@1HB DD 0cH		; ATL::CRegParser::cbNeverDelete
CONST	ENDS
;	COMDAT ?rgszNeverDelete@CRegParser@ATL@@1QBQBDB
CONST	SEGMENT
?rgszNeverDelete@CRegParser@ATL@@1QBQBDB DD FLAT:??_C@_05PDIKPLII@AppID?$AA@ ; ATL::CRegParser::rgszNeverDelete
	DD	FLAT:??_C@_05GIBEAPNE@CLSID?$AA@
	DD	FLAT:??_C@_0BF@HDDNNDFH@Component?5Categories?$AA@
	DD	FLAT:??_C@_08PICKODJL@FileType?$AA@
	DD	FLAT:??_C@_09JKPGEJCH@Interface?$AA@
	DD	FLAT:??_C@_08PPIOJEA@Hardware?$AA@
	DD	FLAT:??_C@_04IHBFOLAC@Mime?$AA@
	DD	FLAT:??_C@_03DDIMFGBA@SAM?$AA@
	DD	FLAT:??_C@_08LOPHEHKG@SECURITY?$AA@
	DD	FLAT:??_C@_06FDHFNJBJ@SYSTEM?$AA@
	DD	FLAT:??_C@_08KEKAJNJI@Software?$AA@
	DD	FLAT:??_C@_07KJLOKDKB@TypeLib?$AA@
CONST	ENDS
;	COMDAT ?pmField@?$CVarTypeInfo@J@ATL@@2QQtagVARIANT@@JQ3@
CONST	SEGMENT
?pmField@?$CVarTypeInfo@J@ATL@@2QQtagVARIANT@@JQ3@ DD 08H ; ATL::CVarTypeInfo<long>::pmField
CONST	ENDS
;	COMDAT ?VT@?$CVarTypeInfo@J@ATL@@2GB
CONST	SEGMENT
?VT@?$CVarTypeInfo@J@ATL@@2GB DW 03H			; ATL::CVarTypeInfo<long>::VT
CONST	ENDS
;	COMDAT __GUID_00000000_0000_0000_c000_000000000046
CONST	SEGMENT
__GUID_00000000_0000_0000_c000_000000000046 DD 00H
	DW	00H
	DW	00H
	DB	0c0H
	DB	00H
	DB	00H
	DB	00H
	DB	00H
	DB	00H
	DB	00H
	DB	046H
CONST	ENDS
;	COMDAT ?pmField@?$CVarTypeInfo@PAI@ATL@@2QQtagVARIANT@@PAIQ3@
CONST	SEGMENT
?pmField@?$CVarTypeInfo@PAI@ATL@@2QQtagVARIANT@@PAIQ3@ DD 08H ; ATL::CVarTypeInfo<unsigned int *>::pmField
CONST	ENDS
;	COMDAT ?VT@?$CVarTypeInfo@PAI@ATL@@2GB
CONST	SEGMENT
?VT@?$CVarTypeInfo@PAI@ATL@@2GB DW 04013H		; ATL::CVarTypeInfo<unsigned int *>::VT
CONST	ENDS
;	COMDAT ?pmField@?$CVarTypeInfo@I@ATL@@2QQtagVARIANT@@IQ3@
CONST	SEGMENT
?pmField@?$CVarTypeInfo@I@ATL@@2QQtagVARIANT@@IQ3@ DD 08H ; ATL::CVarTypeInfo<unsigned int>::pmField
CONST	ENDS
;	COMDAT ?VT@?$CVarTypeInfo@I@ATL@@2GB
CONST	SEGMENT
?VT@?$CVarTypeInfo@I@ATL@@2GB DW 013H			; ATL::CVarTypeInfo<unsigned int>::VT
CONST	ENDS
;	COMDAT ?MAX_VALUE@CRegParser@ATL@@1HB
CONST	SEGMENT
?MAX_VALUE@CRegParser@ATL@@1HB DD 01000H		; ATL::CRegParser::MAX_VALUE
CONST	ENDS
;	COMDAT ?pmField@?$CVarTypeInfo@PAH@ATL@@2QQtagVARIANT@@PAHQ3@
CONST	SEGMENT
?pmField@?$CVarTypeInfo@PAH@ATL@@2QQtagVARIANT@@PAHQ3@ DD 08H ; ATL::CVarTypeInfo<int *>::pmField
CONST	ENDS
;	COMDAT ?VT@?$CVarTypeInfo@PAH@ATL@@2GB
CONST	SEGMENT
?VT@?$CVarTypeInfo@PAH@ATL@@2GB DW 04003H		; ATL::CVarTypeInfo<int *>::VT
CONST	ENDS
;	COMDAT ?value@?$_Sizeof@U_Nil@std@@U12@U12@U12@U12@U12@U12@U12@@std@@2IB
CONST	SEGMENT
?value@?$_Sizeof@U_Nil@std@@U12@U12@U12@U12@U12@U12@U12@@std@@2IB DD 00H ; std::_Sizeof<std::_Nil,std::_Nil,std::_Nil,std::_Nil,std::_Nil,std::_Nil,std::_Nil,std::_Nil>::value
CONST	ENDS
;	COMDAT ?_Stream_err@failure@ios_base@std@@0W4io_errc@43@B
CONST	SEGMENT
?_Stream_err@failure@ios_base@std@@0W4io_errc@43@B DD 01H ; std::ios_base::failure::_Stream_err
CONST	ENDS
;	COMDAT ?pmField@?$CVarTypeInfo@H@ATL@@2QQtagVARIANT@@HQ3@
CONST	SEGMENT
?pmField@?$CVarTypeInfo@H@ATL@@2QQtagVARIANT@@HQ3@ DD 08H ; ATL::CVarTypeInfo<int>::pmField
CONST	ENDS
;	COMDAT ?VT@?$CVarTypeInfo@H@ATL@@2GB
CONST	SEGMENT
?VT@?$CVarTypeInfo@H@ATL@@2GB DW 03H			; ATL::CVarTypeInfo<int>::VT
CONST	ENDS
;	COMDAT ?pmField@?$CVarTypeInfo@PAG@ATL@@2QQtagVARIANT@@PAGQ3@
CONST	SEGMENT
?pmField@?$CVarTypeInfo@PAG@ATL@@2QQtagVARIANT@@PAGQ3@ DD 08H ; ATL::CVarTypeInfo<unsigned short *>::pmField
CONST	ENDS
;	COMDAT ?VT@?$CVarTypeInfo@PAG@ATL@@2GB
CONST	SEGMENT
?VT@?$CVarTypeInfo@PAG@ATL@@2GB DW 04012H		; ATL::CVarTypeInfo<unsigned short *>::VT
CONST	ENDS
;	COMDAT ?pmField@?$CVarTypeInfo@G@ATL@@2QQtagVARIANT@@GQ3@
CONST	SEGMENT
?pmField@?$CVarTypeInfo@G@ATL@@2QQtagVARIANT@@GQ3@ DD 08H ; ATL::CVarTypeInfo<unsigned short>::pmField
CONST	ENDS
;	COMDAT ?end@?$_Iosb@H@std@@2W4_Seekdir@12@B
CONST	SEGMENT
?end@?$_Iosb@H@std@@2W4_Seekdir@12@B DD 02H		; std::_Iosb<int>::end
CONST	ENDS
;	COMDAT ?VT@?$CVarTypeInfo@G@ATL@@2GB
CONST	SEGMENT
?VT@?$CVarTypeInfo@G@ATL@@2GB DW 012H			; ATL::CVarTypeInfo<unsigned short>::VT
CONST	ENDS
;	COMDAT ?cur@?$_Iosb@H@std@@2W4_Seekdir@12@B
CONST	SEGMENT
?cur@?$_Iosb@H@std@@2W4_Seekdir@12@B DD 01H		; std::_Iosb<int>::cur
CONST	ENDS
;	COMDAT ?beg@?$_Iosb@H@std@@2W4_Seekdir@12@B
CONST	SEGMENT
?beg@?$_Iosb@H@std@@2W4_Seekdir@12@B DD 00H		; std::_Iosb<int>::beg
CONST	ENDS
;	COMDAT ?binary@?$_Iosb@H@std@@2W4_Openmode@12@B
CONST	SEGMENT
?binary@?$_Iosb@H@std@@2W4_Openmode@12@B DD 020H	; std::_Iosb<int>::binary
CONST	ENDS
;	COMDAT ?pmField@?$CVarTypeInfo@PAF@ATL@@2QQtagVARIANT@@PAFQ3@
CONST	SEGMENT
?pmField@?$CVarTypeInfo@PAF@ATL@@2QQtagVARIANT@@PAFQ3@ DD 08H ; ATL::CVarTypeInfo<short *>::pmField
CONST	ENDS
;	COMDAT ?VT@?$CVarTypeInfo@PAF@ATL@@2GB
CONST	SEGMENT
?VT@?$CVarTypeInfo@PAF@ATL@@2GB DW 04002H		; ATL::CVarTypeInfo<short *>::VT
CONST	ENDS
;	COMDAT ?_Noreplace@?$_Iosb@H@std@@2W4_Openmode@12@B
CONST	SEGMENT
?_Noreplace@?$_Iosb@H@std@@2W4_Openmode@12@B DD 080H	; std::_Iosb<int>::_Noreplace
CONST	ENDS
;	COMDAT ?_Nocreate@?$_Iosb@H@std@@2W4_Openmode@12@B
CONST	SEGMENT
?_Nocreate@?$_Iosb@H@std@@2W4_Openmode@12@B DD 040H	; std::_Iosb<int>::_Nocreate
CONST	ENDS
;	COMDAT ?trunc@?$_Iosb@H@std@@2W4_Openmode@12@B
CONST	SEGMENT
?trunc@?$_Iosb@H@std@@2W4_Openmode@12@B DD 010H		; std::_Iosb<int>::trunc
CONST	ENDS
;	COMDAT ?app@?$_Iosb@H@std@@2W4_Openmode@12@B
CONST	SEGMENT
?app@?$_Iosb@H@std@@2W4_Openmode@12@B DD 08H		; std::_Iosb<int>::app
CONST	ENDS
;	COMDAT ?pmField@?$CVarTypeInfo@F@ATL@@2QQtagVARIANT@@FQ3@
CONST	SEGMENT
?pmField@?$CVarTypeInfo@F@ATL@@2QQtagVARIANT@@FQ3@ DD 08H ; ATL::CVarTypeInfo<short>::pmField
CONST	ENDS
;	COMDAT ?ate@?$_Iosb@H@std@@2W4_Openmode@12@B
CONST	SEGMENT
?ate@?$_Iosb@H@std@@2W4_Openmode@12@B DD 04H		; std::_Iosb<int>::ate
CONST	ENDS
;	COMDAT ?VT@?$CVarTypeInfo@F@ATL@@2GB
CONST	SEGMENT
?VT@?$CVarTypeInfo@F@ATL@@2GB DW 02H			; ATL::CVarTypeInfo<short>::VT
CONST	ENDS
;	COMDAT _IID_IRegistrar
CONST	SEGMENT
_IID_IRegistrar DD 044ec053bH
	DW	0400fH
	DW	011d0H
	DB	09dH
	DB	0cdH
	DB	00H
	DB	0a0H
	DB	0c9H
	DB	03H
	DB	091H
	DB	0d3H
CONST	ENDS
;	COMDAT ?out@?$_Iosb@H@std@@2W4_Openmode@12@B
CONST	SEGMENT
?out@?$_Iosb@H@std@@2W4_Openmode@12@B DD 02H		; std::_Iosb<int>::out
CONST	ENDS
;	COMDAT ?in@?$_Iosb@H@std@@2W4_Openmode@12@B
CONST	SEGMENT
?in@?$_Iosb@H@std@@2W4_Openmode@12@B DD 01H		; std::_Iosb<int>::in
CONST	ENDS
;	COMDAT ?_Hardfail@?$_Iosb@H@std@@2W4_Iostate@12@B
CONST	SEGMENT
?_Hardfail@?$_Iosb@H@std@@2W4_Iostate@12@B DD 010H	; std::_Iosb<int>::_Hardfail
CONST	ENDS
;	COMDAT ?pmField@?$CVarTypeInfo@PAE@ATL@@2QQtagVARIANT@@PAEQ3@
CONST	SEGMENT
?pmField@?$CVarTypeInfo@PAE@ATL@@2QQtagVARIANT@@PAEQ3@ DD 08H ; ATL::CVarTypeInfo<unsigned char *>::pmField
CONST	ENDS
;	COMDAT ?VT@?$CVarTypeInfo@PAE@ATL@@2GB
CONST	SEGMENT
?VT@?$CVarTypeInfo@PAE@ATL@@2GB DW 04011H		; ATL::CVarTypeInfo<unsigned char *>::VT
CONST	ENDS
;	COMDAT ?badbit@?$_Iosb@H@std@@2W4_Iostate@12@B
CONST	SEGMENT
?badbit@?$_Iosb@H@std@@2W4_Iostate@12@B DD 04H		; std::_Iosb<int>::badbit
CONST	ENDS
;	COMDAT ?failbit@?$_Iosb@H@std@@2W4_Iostate@12@B
CONST	SEGMENT
?failbit@?$_Iosb@H@std@@2W4_Iostate@12@B DD 02H		; std::_Iosb<int>::failbit
CONST	ENDS
;	COMDAT ?eofbit@?$_Iosb@H@std@@2W4_Iostate@12@B
CONST	SEGMENT
?eofbit@?$_Iosb@H@std@@2W4_Iostate@12@B DD 01H		; std::_Iosb<int>::eofbit
CONST	ENDS
;	COMDAT ?goodbit@?$_Iosb@H@std@@2W4_Iostate@12@B
CONST	SEGMENT
?goodbit@?$_Iosb@H@std@@2W4_Iostate@12@B DD 00H		; std::_Iosb<int>::goodbit
CONST	ENDS
;	COMDAT ?pmField@?$CVarTypeInfo@PAD@ATL@@2QQtagVARIANT@@PADQ3@
CONST	SEGMENT
?pmField@?$CVarTypeInfo@PAD@ATL@@2QQtagVARIANT@@PADQ3@ DD 08H ; ATL::CVarTypeInfo<char *>::pmField
CONST	ENDS
;	COMDAT ?VT@?$CVarTypeInfo@PAD@ATL@@2GB
CONST	SEGMENT
?VT@?$CVarTypeInfo@PAD@ATL@@2GB DW 04010H		; ATL::CVarTypeInfo<char *>::VT
CONST	ENDS
;	COMDAT ?floatfield@?$_Iosb@H@std@@2W4_Fmtflags@12@B
CONST	SEGMENT
?floatfield@?$_Iosb@H@std@@2W4_Fmtflags@12@B DD 03000H	; std::_Iosb<int>::floatfield
CONST	ENDS
;	COMDAT ?basefield@?$_Iosb@H@std@@2W4_Fmtflags@12@B
CONST	SEGMENT
?basefield@?$_Iosb@H@std@@2W4_Fmtflags@12@B DD 0e00H	; std::_Iosb<int>::basefield
CONST	ENDS
;	COMDAT ?adjustfield@?$_Iosb@H@std@@2W4_Fmtflags@12@B
CONST	SEGMENT
?adjustfield@?$_Iosb@H@std@@2W4_Fmtflags@12@B DD 01c0H	; std::_Iosb<int>::adjustfield
CONST	ENDS
;	COMDAT _CLSID_Registrar
CONST	SEGMENT
_CLSID_Registrar DD 044ec053aH
	DW	0400fH
	DW	011d0H
	DB	09dH
	DB	0cdH
	DB	00H
	DB	0a0H
	DB	0c9H
	DB	03H
	DB	091H
	DB	0d3H
CONST	ENDS
;	COMDAT ?_Stdio@?$_Iosb@H@std@@2W4_Fmtflags@12@B
CONST	SEGMENT
?_Stdio@?$_Iosb@H@std@@2W4_Fmtflags@12@B DD 08000H	; std::_Iosb<int>::_Stdio
CONST	ENDS
;	COMDAT ?pmField@?$CVarTypeInfo@E@ATL@@2QQtagVARIANT@@EQ3@
CONST	SEGMENT
?pmField@?$CVarTypeInfo@E@ATL@@2QQtagVARIANT@@EQ3@ DD 08H ; ATL::CVarTypeInfo<unsigned char>::pmField
CONST	ENDS
;	COMDAT ?VT@?$CVarTypeInfo@E@ATL@@2GB
CONST	SEGMENT
?VT@?$CVarTypeInfo@E@ATL@@2GB DW 011H			; ATL::CVarTypeInfo<unsigned char>::VT
CONST	ENDS
;	COMDAT ?boolalpha@?$_Iosb@H@std@@2W4_Fmtflags@12@B
CONST	SEGMENT
?boolalpha@?$_Iosb@H@std@@2W4_Fmtflags@12@B DD 04000H	; std::_Iosb<int>::boolalpha
CONST	ENDS
;	COMDAT ?hexfloat@?$_Iosb@H@std@@2W4_Fmtflags@12@B
CONST	SEGMENT
?hexfloat@?$_Iosb@H@std@@2W4_Fmtflags@12@B DD 03000H	; std::_Iosb<int>::hexfloat
CONST	ENDS
;	COMDAT ?fixed@?$_Iosb@H@std@@2W4_Fmtflags@12@B
CONST	SEGMENT
?fixed@?$_Iosb@H@std@@2W4_Fmtflags@12@B DD 02000H	; std::_Iosb<int>::fixed
CONST	ENDS
;	COMDAT ?scientific@?$_Iosb@H@std@@2W4_Fmtflags@12@B
CONST	SEGMENT
?scientific@?$_Iosb@H@std@@2W4_Fmtflags@12@B DD 01000H	; std::_Iosb<int>::scientific
CONST	ENDS
;	COMDAT ?pmField@?$CVarTypeInfo@D@ATL@@2QQtagVARIANT@@DQ3@
CONST	SEGMENT
?pmField@?$CVarTypeInfo@D@ATL@@2QQtagVARIANT@@DQ3@ DD 08H ; ATL::CVarTypeInfo<char>::pmField
CONST	ENDS
;	COMDAT ?hex@?$_Iosb@H@std@@2W4_Fmtflags@12@B
CONST	SEGMENT
?hex@?$_Iosb@H@std@@2W4_Fmtflags@12@B DD 0800H		; std::_Iosb<int>::hex
CONST	ENDS
;	COMDAT ?VT@?$CVarTypeInfo@D@ATL@@2GB
CONST	SEGMENT
?VT@?$CVarTypeInfo@D@ATL@@2GB DW 010H			; ATL::CVarTypeInfo<char>::VT
CONST	ENDS
;	COMDAT ?oct@?$_Iosb@H@std@@2W4_Fmtflags@12@B
CONST	SEGMENT
?oct@?$_Iosb@H@std@@2W4_Fmtflags@12@B DD 0400H		; std::_Iosb<int>::oct
CONST	ENDS
;	COMDAT ?dec@?$_Iosb@H@std@@2W4_Fmtflags@12@B
CONST	SEGMENT
?dec@?$_Iosb@H@std@@2W4_Fmtflags@12@B DD 0200H		; std::_Iosb<int>::dec
CONST	ENDS
;	COMDAT ?_Max@?$AtlLimits@_K@ATL@@2_KB
CONST	SEGMENT
?_Max@?$AtlLimits@_K@ATL@@2_KB DQ ffffffffffffffffH	; ATL::AtlLimits<unsigned __int64>::_Max
CONST	ENDS
;	COMDAT ?internal@?$_Iosb@H@std@@2W4_Fmtflags@12@B
CONST	SEGMENT
?internal@?$_Iosb@H@std@@2W4_Fmtflags@12@B DD 0100H	; std::_Iosb<int>::internal
CONST	ENDS
;	COMDAT ?_Min@?$AtlLimits@_K@ATL@@2_KB
CONST	SEGMENT
?_Min@?$AtlLimits@_K@ATL@@2_KB DQ 0000000000000000H	; ATL::AtlLimits<unsigned __int64>::_Min
CONST	ENDS
;	COMDAT ?right@?$_Iosb@H@std@@2W4_Fmtflags@12@B
CONST	SEGMENT
?right@?$_Iosb@H@std@@2W4_Fmtflags@12@B DD 080H		; std::_Iosb<int>::right
CONST	ENDS
;	COMDAT ?left@?$_Iosb@H@std@@2W4_Fmtflags@12@B
CONST	SEGMENT
?left@?$_Iosb@H@std@@2W4_Fmtflags@12@B DD 040H		; std::_Iosb<int>::left
CONST	ENDS
;	COMDAT __GUID_00020400_0000_0000_c000_000000000046
CONST	SEGMENT
__GUID_00020400_0000_0000_c000_000000000046 DD 020400H
	DW	00H
	DW	00H
	DB	0c0H
	DB	00H
	DB	00H
	DB	00H
	DB	00H
	DB	00H
	DB	00H
	DB	046H
CONST	ENDS
;	COMDAT ?min_exponent10@?$numeric_limits@O@std@@2HB
CONST	SEGMENT
?min_exponent10@?$numeric_limits@O@std@@2HB DD 0fffffecdH ; std::numeric_limits<long double>::min_exponent10
CONST	ENDS
;	COMDAT ?showpos@?$_Iosb@H@std@@2W4_Fmtflags@12@B
CONST	SEGMENT
?showpos@?$_Iosb@H@std@@2W4_Fmtflags@12@B DD 020H	; std::_Iosb<int>::showpos
CONST	ENDS
;	COMDAT ?_Max@?$AtlLimits@_J@ATL@@2_JB
CONST	SEGMENT
?_Max@?$AtlLimits@_J@ATL@@2_JB DQ 7fffffffffffffffH	; ATL::AtlLimits<__int64>::_Max
CONST	ENDS
;	COMDAT ?min_exponent@?$numeric_limits@O@std@@2HB
CONST	SEGMENT
?min_exponent@?$numeric_limits@O@std@@2HB DD 0fffffc03H	; std::numeric_limits<long double>::min_exponent
CONST	ENDS
;	COMDAT ?showpoint@?$_Iosb@H@std@@2W4_Fmtflags@12@B
CONST	SEGMENT
?showpoint@?$_Iosb@H@std@@2W4_Fmtflags@12@B DD 010H	; std::_Iosb<int>::showpoint
CONST	ENDS
;	COMDAT ?_Min@?$AtlLimits@_J@ATL@@2_JB
CONST	SEGMENT
?_Min@?$AtlLimits@_J@ATL@@2_JB DQ 8000000000000000H	; ATL::AtlLimits<__int64>::_Min
CONST	ENDS
;	COMDAT ?max_exponent10@?$numeric_limits@O@std@@2HB
CONST	SEGMENT
?max_exponent10@?$numeric_limits@O@std@@2HB DD 0134H	; std::numeric_limits<long double>::max_exponent10
CONST	ENDS
;	COMDAT ?showbase@?$_Iosb@H@std@@2W4_Fmtflags@12@B
CONST	SEGMENT
?showbase@?$_Iosb@H@std@@2W4_Fmtflags@12@B DD 08H	; std::_Iosb<int>::showbase
CONST	ENDS
;	COMDAT ?uppercase@?$_Iosb@H@std@@2W4_Fmtflags@12@B
CONST	SEGMENT
?uppercase@?$_Iosb@H@std@@2W4_Fmtflags@12@B DD 04H	; std::_Iosb<int>::uppercase
CONST	ENDS
;	COMDAT ?max_exponent@?$numeric_limits@O@std@@2HB
CONST	SEGMENT
?max_exponent@?$numeric_limits@O@std@@2HB DD 0400H	; std::numeric_limits<long double>::max_exponent
CONST	ENDS
;	COMDAT ?unitbuf@?$_Iosb@H@std@@2W4_Fmtflags@12@B
CONST	SEGMENT
?unitbuf@?$_Iosb@H@std@@2W4_Fmtflags@12@B DD 02H	; std::_Iosb<int>::unitbuf
CONST	ENDS
;	COMDAT ?_Max@?$AtlLimits@K@ATL@@2KB
CONST	SEGMENT
?_Max@?$AtlLimits@K@ATL@@2KB DD 0ffffffffH		; ATL::AtlLimits<unsigned long>::_Max
CONST	ENDS
;	COMDAT ?max_digits10@?$numeric_limits@O@std@@2HB
CONST	SEGMENT
?max_digits10@?$numeric_limits@O@std@@2HB DD 011H	; std::numeric_limits<long double>::max_digits10
CONST	ENDS
;	COMDAT ?skipws@?$_Iosb@H@std@@2W4_Fmtflags@12@B
CONST	SEGMENT
?skipws@?$_Iosb@H@std@@2W4_Fmtflags@12@B DD 01H		; std::_Iosb<int>::skipws
CONST	ENDS
;	COMDAT ?_Min@?$AtlLimits@K@ATL@@2KB
CONST	SEGMENT
?_Min@?$AtlLimits@K@ATL@@2KB DD 00H			; ATL::AtlLimits<unsigned long>::_Min
CONST	ENDS
;	COMDAT ?digits10@?$numeric_limits@O@std@@2HB
CONST	SEGMENT
?digits10@?$numeric_limits@O@std@@2HB DD 0fH		; std::numeric_limits<long double>::digits10
CONST	ENDS
;	COMDAT ?digits@?$numeric_limits@O@std@@2HB
CONST	SEGMENT
?digits@?$numeric_limits@O@std@@2HB DD 035H		; std::numeric_limits<long double>::digits
CONST	ENDS
;	COMDAT ?_Max@?$AtlLimits@J@ATL@@2JB
CONST	SEGMENT
?_Max@?$AtlLimits@J@ATL@@2JB DD 07fffffffH		; ATL::AtlLimits<long>::_Max
CONST	ENDS
;	COMDAT ?_Min@?$AtlLimits@J@ATL@@2JB
CONST	SEGMENT
?_Min@?$AtlLimits@J@ATL@@2JB DD 080000000H		; ATL::AtlLimits<long>::_Min
CONST	ENDS
;	COMDAT ?_Max@?$AtlLimits@I@ATL@@2IB
CONST	SEGMENT
?_Max@?$AtlLimits@I@ATL@@2IB DD 0ffffffffH		; ATL::AtlLimits<unsigned int>::_Max
CONST	ENDS
;	COMDAT ?_Min@?$AtlLimits@I@ATL@@2IB
CONST	SEGMENT
?_Min@?$AtlLimits@I@ATL@@2IB DD 00H			; ATL::AtlLimits<unsigned int>::_Min
CONST	ENDS
;	COMDAT ?_Max@?$AtlLimits@H@ATL@@2HB
CONST	SEGMENT
?_Max@?$AtlLimits@H@ATL@@2HB DD 07fffffffH		; ATL::AtlLimits<int>::_Max
CONST	ENDS
;	COMDAT ?min_exponent10@?$numeric_limits@N@std@@2HB
CONST	SEGMENT
?min_exponent10@?$numeric_limits@N@std@@2HB DD 0fffffecdH ; std::numeric_limits<double>::min_exponent10
CONST	ENDS
;	COMDAT ?_Min@?$AtlLimits@H@ATL@@2HB
CONST	SEGMENT
?_Min@?$AtlLimits@H@ATL@@2HB DD 080000000H		; ATL::AtlLimits<int>::_Min
CONST	ENDS
;	COMDAT ?min_exponent@?$numeric_limits@N@std@@2HB
CONST	SEGMENT
?min_exponent@?$numeric_limits@N@std@@2HB DD 0fffffc03H	; std::numeric_limits<double>::min_exponent
CONST	ENDS
;	COMDAT ?max_exponent10@?$numeric_limits@N@std@@2HB
CONST	SEGMENT
?max_exponent10@?$numeric_limits@N@std@@2HB DD 0134H	; std::numeric_limits<double>::max_exponent10
CONST	ENDS
;	COMDAT ?max_exponent@?$numeric_limits@N@std@@2HB
CONST	SEGMENT
?max_exponent@?$numeric_limits@N@std@@2HB DD 0400H	; std::numeric_limits<double>::max_exponent
CONST	ENDS
;	COMDAT ?max_digits10@?$numeric_limits@N@std@@2HB
CONST	SEGMENT
?max_digits10@?$numeric_limits@N@std@@2HB DD 011H	; std::numeric_limits<double>::max_digits10
CONST	ENDS
;	COMDAT ?digits10@?$numeric_limits@N@std@@2HB
CONST	SEGMENT
?digits10@?$numeric_limits@N@std@@2HB DD 0fH		; std::numeric_limits<double>::digits10
CONST	ENDS
;	COMDAT ??_C@_06JBKGCNBB@Delete?$AA@
CONST	SEGMENT
??_C@_06JBKGCNBB@Delete?$AA@ DB 'Delete', 00H		; `string'
CONST	ENDS
;	COMDAT ?szDelete@ATL@@3QBDB
CONST	SEGMENT
?szDelete@ATL@@3QBDB DD FLAT:??_C@_06JBKGCNBB@Delete?$AA@ ; ATL::szDelete
CONST	ENDS
;	COMDAT ?digits@?$numeric_limits@N@std@@2HB
CONST	SEGMENT
?digits@?$numeric_limits@N@std@@2HB DD 035H		; std::numeric_limits<double>::digits
CONST	ENDS
;	COMDAT ??_C@_08KAAPDIAN@NoRemove?$AA@
CONST	SEGMENT
??_C@_08KAAPDIAN@NoRemove?$AA@ DB 'NoRemove', 00H	; `string'
CONST	ENDS
;	COMDAT ?szNoRemove@ATL@@3QBDB
CONST	SEGMENT
?szNoRemove@ATL@@3QBDB DD FLAT:??_C@_08KAAPDIAN@NoRemove?$AA@ ; ATL::szNoRemove
CONST	ENDS
;	COMDAT ?value@?$integral_constant@I$0A@@std@@2IB
CONST	SEGMENT
?value@?$integral_constant@I$0A@@std@@2IB DD 00H	; std::integral_constant<unsigned int,0>::value
CONST	ENDS
;	COMDAT ??_C@_0M@DBGDLGLL@ForceRemove?$AA@
CONST	SEGMENT
??_C@_0M@DBGDLGLL@ForceRemove?$AA@ DB 'ForceRemove', 00H ; `string'
CONST	ENDS
;	COMDAT ?szForceRemove@ATL@@3QBDB
CONST	SEGMENT
?szForceRemove@ATL@@3QBDB DD FLAT:??_C@_0M@DBGDLGLL@ForceRemove?$AA@ ; ATL::szForceRemove
CONST	ENDS
;	COMDAT ??_C@_03LAIAPFCB@Val?$AA@
CONST	SEGMENT
??_C@_03LAIAPFCB@Val?$AA@ DB 'Val', 00H			; `string'
CONST	ENDS
;	COMDAT ?szValToken@ATL@@3QBDB
CONST	SEGMENT
?szValToken@ATL@@3QBDB DD FLAT:??_C@_03LAIAPFCB@Val?$AA@ ; ATL::szValToken
CONST	ENDS
;	COMDAT ??_C@_01HMGJMAIH@B?$AA@
CONST	SEGMENT
??_C@_01HMGJMAIH@B?$AA@ DB 'B', 00H			; `string'
CONST	ENDS
;	COMDAT ?szBinaryVal@ATL@@3QBDB
CONST	SEGMENT
?szBinaryVal@ATL@@3QBDB DD FLAT:??_C@_01HMGJMAIH@B?$AA@	; ATL::szBinaryVal
CONST	ENDS
;	COMDAT ??_C@_01CKDDGHAB@D?$AA@
CONST	SEGMENT
??_C@_01CKDDGHAB@D?$AA@ DB 'D', 00H			; `string'
CONST	ENDS
;	COMDAT ?szDwordVal@ATL@@3QBDB
CONST	SEGMENT
?szDwordVal@ATL@@3QBDB DD FLAT:??_C@_01CKDDGHAB@D?$AA@	; ATL::szDwordVal
CONST	ENDS
;	COMDAT ??_C@_01PLPBNMEI@M?$AA@
CONST	SEGMENT
??_C@_01PLPBNMEI@M?$AA@ DB 'M', 00H			; `string'
CONST	ENDS
;	COMDAT ?multiszStringVal@ATL@@3QBDB
CONST	SEGMENT
?multiszStringVal@ATL@@3QBDB DD FLAT:??_C@_01PLPBNMEI@M?$AA@ ; ATL::multiszStringVal
CONST	ENDS
;	COMDAT ??_C@_01CPLAODJH@S?$AA@
CONST	SEGMENT
??_C@_01CPLAODJH@S?$AA@ DB 'S', 00H			; `string'
CONST	ENDS
;	COMDAT ?szStringVal@ATL@@3QBDB
CONST	SEGMENT
?szStringVal@ATL@@3QBDB DD FLAT:??_C@_01CPLAODJH@S?$AA@	; ATL::szStringVal
CONST	ENDS
;	COMDAT ?chEquals@ATL@@3DB
CONST	SEGMENT
?chEquals@ATL@@3DB DB 03dH				; ATL::chEquals
CONST	ENDS
;	COMDAT ?chQuote@ATL@@3DB
CONST	SEGMENT
?chQuote@ATL@@3DB DB 027H				; ATL::chQuote
CONST	ENDS
;	COMDAT ?chLeftBracket@ATL@@3DB
CONST	SEGMENT
?chLeftBracket@ATL@@3DB DB 07bH				; ATL::chLeftBracket
CONST	ENDS
;	COMDAT ?chRightBracket@ATL@@3DB
CONST	SEGMENT
?chRightBracket@ATL@@3DB DB 07dH			; ATL::chRightBracket
CONST	ENDS
;	COMDAT ?chDirSep@ATL@@3DB
CONST	SEGMENT
?chDirSep@ATL@@3DB DB 05cH				; ATL::chDirSep
CONST	ENDS
;	COMDAT ?min_exponent10@?$numeric_limits@M@std@@2HB
CONST	SEGMENT
?min_exponent10@?$numeric_limits@M@std@@2HB DD 0ffffffdbH ; std::numeric_limits<float>::min_exponent10
CONST	ENDS
;	COMDAT ?min_exponent@?$numeric_limits@M@std@@2HB
CONST	SEGMENT
?min_exponent@?$numeric_limits@M@std@@2HB DD 0ffffff83H	; std::numeric_limits<float>::min_exponent
CONST	ENDS
;	COMDAT ?max_exponent10@?$numeric_limits@M@std@@2HB
CONST	SEGMENT
?max_exponent10@?$numeric_limits@M@std@@2HB DD 026H	; std::numeric_limits<float>::max_exponent10
CONST	ENDS
;	COMDAT ?max_exponent@?$numeric_limits@M@std@@2HB
CONST	SEGMENT
?max_exponent@?$numeric_limits@M@std@@2HB DD 080H	; std::numeric_limits<float>::max_exponent
CONST	ENDS
;	COMDAT ?max_digits10@?$numeric_limits@M@std@@2HB
CONST	SEGMENT
?max_digits10@?$numeric_limits@M@std@@2HB DD 09H	; std::numeric_limits<float>::max_digits10
CONST	ENDS
;	COMDAT ?digits10@?$numeric_limits@M@std@@2HB
CONST	SEGMENT
?digits10@?$numeric_limits@M@std@@2HB DD 06H		; std::numeric_limits<float>::digits10
CONST	ENDS
;	COMDAT ?digits@?$numeric_limits@M@std@@2HB
CONST	SEGMENT
?digits@?$numeric_limits@M@std@@2HB DD 018H		; std::numeric_limits<float>::digits
CONST	ENDS
;	COMDAT ??_C@_05PDIKPLII@AppID?$AA@
CONST	SEGMENT
??_C@_05PDIKPLII@AppID?$AA@ DB 'AppID', 00H		; `string'
CONST	ENDS
;	COMDAT ?digits10@?$numeric_limits@_K@std@@2HB
CONST	SEGMENT
?digits10@?$numeric_limits@_K@std@@2HB DD 013H		; std::numeric_limits<unsigned __int64>::digits10
CONST	ENDS
;	COMDAT ?digits@?$numeric_limits@_K@std@@2HB
CONST	SEGMENT
?digits@?$numeric_limits@_K@std@@2HB DD 040H		; std::numeric_limits<unsigned __int64>::digits
CONST	ENDS
;	COMDAT ?is_signed@?$numeric_limits@_K@std@@2_NB
CONST	SEGMENT
?is_signed@?$numeric_limits@_K@std@@2_NB DB 00H		; std::numeric_limits<unsigned __int64>::is_signed
CONST	ENDS
;	COMDAT ??_C@_05GIBEAPNE@CLSID?$AA@
CONST	SEGMENT
??_C@_05GIBEAPNE@CLSID?$AA@ DB 'CLSID', 00H		; `string'
CONST	ENDS
;	COMDAT _IID_IInternalConnection
CONST	SEGMENT
_IID_IInternalConnection DD 072ad0770H
	DW	06a9fH
	DW	011d1H
	DB	0bcH
	DB	0ecH
	DB	00H
	DB	060H
	DB	08H
	DB	08fH
	DB	044H
	DB	04eH
CONST	ENDS
;	COMDAT __GUID_7fd52380_4e07_101b_ae2d_08002b2ec713
CONST	SEGMENT
__GUID_7fd52380_4e07_101b_ae2d_08002b2ec713 DD 07fd52380H
	DW	04e07H
	DW	0101bH
	DB	0aeH
	DB	02dH
	DB	08H
	DB	00H
	DB	02bH
	DB	02eH
	DB	0c7H
	DB	013H
CONST	ENDS
;	COMDAT ?digits10@?$numeric_limits@_J@std@@2HB
CONST	SEGMENT
?digits10@?$numeric_limits@_J@std@@2HB DD 012H		; std::numeric_limits<__int64>::digits10
CONST	ENDS
;	COMDAT ?digits@?$numeric_limits@_J@std@@2HB
CONST	SEGMENT
?digits@?$numeric_limits@_J@std@@2HB DD 03fH		; std::numeric_limits<__int64>::digits
CONST	ENDS
;	COMDAT __GUID_00000109_0000_0000_c000_000000000046
CONST	SEGMENT
__GUID_00000109_0000_0000_c000_000000000046 DD 0109H
	DW	00H
	DW	00H
	DB	0c0H
	DB	00H
	DB	00H
	DB	00H
	DB	00H
	DB	00H
	DB	00H
	DB	046H
CONST	ENDS
;	COMDAT ?is_signed@?$numeric_limits@_J@std@@2_NB
CONST	SEGMENT
?is_signed@?$numeric_limits@_J@std@@2_NB DB 01H		; std::numeric_limits<__int64>::is_signed
CONST	ENDS
;	COMDAT _IID_IAxWinAmbientDispatchEx
CONST	SEGMENT
_IID_IAxWinAmbientDispatchEx DD 0b2d0778bH
	DW	0ac99H
	DW	04c58H
	DB	0a5H
	DB	0c8H
	DB	0e7H
	DB	072H
	DB	04eH
	DB	053H
	DB	016H
	DB	0b5H
CONST	ENDS
;	COMDAT ?digits10@?$numeric_limits@K@std@@2HB
CONST	SEGMENT
?digits10@?$numeric_limits@K@std@@2HB DD 09H		; std::numeric_limits<unsigned long>::digits10
CONST	ENDS
;	COMDAT ?digits@?$numeric_limits@K@std@@2HB
CONST	SEGMENT
?digits@?$numeric_limits@K@std@@2HB DD 020H		; std::numeric_limits<unsigned long>::digits
CONST	ENDS
;	COMDAT __GUID_0002e012_0000_0000_c000_000000000046
CONST	SEGMENT
__GUID_0002e012_0000_0000_c000_000000000046 DD 02e012H
	DW	00H
	DW	00H
	DB	0c0H
	DB	00H
	DB	00H
	DB	00H
	DB	00H
	DB	00H
	DB	00H
	DB	046H
CONST	ENDS
;	COMDAT ?is_signed@?$numeric_limits@K@std@@2_NB
CONST	SEGMENT
?is_signed@?$numeric_limits@K@std@@2_NB DB 00H		; std::numeric_limits<unsigned long>::is_signed
CONST	ENDS
;	COMDAT __GUID_5ff85b6b_de05_42b9_831f_dc6a4e30a513
CONST	SEGMENT
__GUID_5ff85b6b_de05_42b9_831f_dc6a4e30a513 DD 05ff85b6bH
	DW	0de05H
	DW	042b9H
	DB	083H
	DB	01fH
	DB	0dcH
	DB	06aH
	DB	04eH
	DB	030H
	DB	0a5H
	DB	013H
CONST	ENDS
;	COMDAT __GUID_90efd9f9_d7a8_11d2_901a_004f4e006398
CONST	SEGMENT
__GUID_90efd9f9_d7a8_11d2_901a_004f4e006398 DD 090efd9f9H
	DW	0d7a8H
	DW	011d2H
	DB	090H
	DB	01aH
	DB	00H
	DB	04fH
	DB	04eH
	DB	00H
	DB	063H
	DB	098H
CONST	ENDS
;	COMDAT __GUID_00000000_0000_0000_0000_000000000000
CONST	SEGMENT
__GUID_00000000_0000_0000_0000_000000000000 DD 00H
	DW	00H
	DW	00H
	DB	00H
	DB	00H
	DB	00H
	DB	00H
	DB	00H
	DB	00H
	DB	00H
	DB	00H
CONST	ENDS
;	COMDAT __GUID_df360ef0_de0d_11d2_9023_004f4e006398
CONST	SEGMENT
__GUID_df360ef0_de0d_11d2_9023_004f4e006398 DD 0df360ef0H
	DW	0de0dH
	DW	011d2H
	DB	090H
	DB	023H
	DB	00H
	DB	04fH
	DB	04eH
	DB	00H
	DB	063H
	DB	098H
CONST	ENDS
;	COMDAT ?digits10@?$numeric_limits@J@std@@2HB
CONST	SEGMENT
?digits10@?$numeric_limits@J@std@@2HB DD 09H		; std::numeric_limits<long>::digits10
CONST	ENDS
_DATA	SEGMENT
_gCommsUniqueID DD 01H
_PeopleChatType DW 01H
_DATA	ENDS
;	COMDAT __GUID_1386ae5d_d6f3_11d2_9018_004f4e006398
CONST	SEGMENT
__GUID_1386ae5d_d6f3_11d2_9018_004f4e006398 DD 01386ae5dH
	DW	0d6f3H
	DW	011d2H
	DB	090H
	DB	018H
	DB	00H
	DB	04fH
	DB	04eH
	DB	00H
	DB	063H
	DB	098H
CONST	ENDS
;	COMDAT ?digits@?$numeric_limits@J@std@@2HB
CONST	SEGMENT
?digits@?$numeric_limits@J@std@@2HB DD 01fH		; std::numeric_limits<long>::digits
CONST	ENDS
;	COMDAT __GUID_1386ae5a_d6f3_11d2_9018_004f4e006398
CONST	SEGMENT
__GUID_1386ae5a_d6f3_11d2_9018_004f4e006398 DD 01386ae5aH
	DW	0d6f3H
	DW	011d2H
	DB	090H
	DB	018H
	DB	00H
	DB	04fH
	DB	04eH
	DB	00H
	DB	063H
	DB	098H
CONST	ENDS
;	COMDAT ?is_signed@?$numeric_limits@J@std@@2_NB
CONST	SEGMENT
?is_signed@?$numeric_limits@J@std@@2_NB DB 01H		; std::numeric_limits<long>::is_signed
CONST	ENDS
;	COMDAT __GUID_1386ae5c_d6f3_11d2_9018_004f4e006398
CONST	SEGMENT
__GUID_1386ae5c_d6f3_11d2_9018_004f4e006398 DD 01386ae5cH
	DW	0d6f3H
	DW	011d2H
	DB	090H
	DB	018H
	DB	00H
	DB	04fH
	DB	04eH
	DB	00H
	DB	063H
	DB	098H
CONST	ENDS
;	COMDAT __GUID_0f70ccce_d716_11d2_9018_004f4e006398
CONST	SEGMENT
__GUID_0f70ccce_d716_11d2_9018_004f4e006398 DD 0f70ccceH
	DW	0d716H
	DW	011d2H
	DB	090H
	DB	018H
	DB	00H
	DB	04fH
	DB	04eH
	DB	00H
	DB	063H
	DB	098H
CONST	ENDS
;	COMDAT __GUID_dda57122_d4e3_11d2_9018_004f4e006398
CONST	SEGMENT
__GUID_dda57122_d4e3_11d2_9018_004f4e006398 DD 0dda57122H
	DW	0d4e3H
	DW	011d2H
	DB	090H
	DB	018H
	DB	00H
	DB	04fH
	DB	04eH
	DB	00H
	DB	063H
	DB	098H
CONST	ENDS
;	COMDAT __GUID_d783c329_d613_11d2_9018_004f4e006398
CONST	SEGMENT
__GUID_d783c329_d613_11d2_9018_004f4e006398 DD 0d783c329H
	DW	0d613H
	DW	011d2H
	DB	090H
	DB	018H
	DB	00H
	DB	04fH
	DB	04eH
	DB	00H
	DB	063H
	DB	098H
CONST	ENDS
;	COMDAT __GUID_b6b03a0c_d547_11d2_9018_004f4e006398
CONST	SEGMENT
__GUID_b6b03a0c_d547_11d2_9018_004f4e006398 DD 0b6b03a0cH
	DW	0d547H
	DW	011d2H
	DB	090H
	DB	018H
	DB	00H
	DB	04fH
	DB	04eH
	DB	00H
	DB	063H
	DB	098H
CONST	ENDS
;	COMDAT ?digits10@?$numeric_limits@I@std@@2HB
CONST	SEGMENT
?digits10@?$numeric_limits@I@std@@2HB DD 09H		; std::numeric_limits<unsigned int>::digits10
CONST	ENDS
;	COMDAT ?digits@?$numeric_limits@I@std@@2HB
CONST	SEGMENT
?digits@?$numeric_limits@I@std@@2HB DD 020H		; std::numeric_limits<unsigned int>::digits
CONST	ENDS
;	COMDAT ??_C@_07KJLOKDKB@TypeLib?$AA@
CONST	SEGMENT
??_C@_07KJLOKDKB@TypeLib?$AA@ DB 'TypeLib', 00H		; `string'
CONST	ENDS
;	COMDAT __GUID_36b5b50d_69bb_43d5_83f6_aaf7eb9fff7b
CONST	SEGMENT
__GUID_36b5b50d_69bb_43d5_83f6_aaf7eb9fff7b DD 036b5b50dH
	DW	069bbH
	DW	043d5H
	DB	083H
	DB	0f6H
	DB	0aaH
	DB	0f7H
	DB	0ebH
	DB	09fH
	DB	0ffH
	DB	07bH
CONST	ENDS
;	COMDAT ??_C@_08KEKAJNJI@Software?$AA@
CONST	SEGMENT
??_C@_08KEKAJNJI@Software?$AA@ DB 'Software', 00H	; `string'
CONST	ENDS
;	COMDAT ??_C@_06FDHFNJBJ@SYSTEM?$AA@
CONST	SEGMENT
??_C@_06FDHFNJBJ@SYSTEM?$AA@ DB 'SYSTEM', 00H		; `string'
CONST	ENDS
;	COMDAT ?is_signed@?$numeric_limits@I@std@@2_NB
CONST	SEGMENT
?is_signed@?$numeric_limits@I@std@@2_NB DB 00H		; std::numeric_limits<unsigned int>::is_signed
CONST	ENDS
;	COMDAT ??_C@_08LOPHEHKG@SECURITY?$AA@
CONST	SEGMENT
??_C@_08LOPHEHKG@SECURITY?$AA@ DB 'SECURITY', 00H	; `string'
CONST	ENDS
;	COMDAT ??_C@_03DDIMFGBA@SAM?$AA@
CONST	SEGMENT
??_C@_03DDIMFGBA@SAM?$AA@ DB 'SAM', 00H			; `string'
CONST	ENDS
;	COMDAT ??_C@_04IHBFOLAC@Mime?$AA@
CONST	SEGMENT
??_C@_04IHBFOLAC@Mime?$AA@ DB 'Mime', 00H		; `string'
CONST	ENDS
;	COMDAT ??_C@_08PPIOJEA@Hardware?$AA@
CONST	SEGMENT
??_C@_08PPIOJEA@Hardware?$AA@ DB 'Hardware', 00H	; `string'
CONST	ENDS
;	COMDAT __GUID_e0016343_4124_48a9_9734_93f48700a04a
CONST	SEGMENT
__GUID_e0016343_4124_48a9_9734_93f48700a04a DD 0e0016343H
	DW	04124H
	DW	048a9H
	DB	097H
	DB	034H
	DB	093H
	DB	0f4H
	DB	087H
	DB	00H
	DB	0a0H
	DB	04aH
CONST	ENDS
;	COMDAT ??_C@_09JKPGEJCH@Interface?$AA@
CONST	SEGMENT
??_C@_09JKPGEJCH@Interface?$AA@ DB 'Interface', 00H	; `string'
CONST	ENDS
;	COMDAT ??_C@_08PICKODJL@FileType?$AA@
CONST	SEGMENT
??_C@_08PICKODJL@FileType?$AA@ DB 'FileType', 00H	; `string'
CONST	ENDS
;	COMDAT ??_C@_0BF@HDDNNDFH@Component?5Categories?$AA@
CONST	SEGMENT
??_C@_0BF@HDDNNDFH@Component?5Categories?$AA@ DB 'Component Categories', 00H ; `string'
CONST	ENDS
;	COMDAT __GUID_9d9bb9a8_d54c_11d2_9018_004f4e006398
CONST	SEGMENT
__GUID_9d9bb9a8_d54c_11d2_9018_004f4e006398 DD 09d9bb9a8H
	DW	0d54cH
	DW	011d2H
	DB	090H
	DB	018H
	DB	00H
	DB	04fH
	DB	04eH
	DB	00H
	DB	063H
	DB	098H
CONST	ENDS
;	COMDAT __GUID_dda57127_d4e3_11d2_9018_004f4e006398
CONST	SEGMENT
__GUID_dda57127_d4e3_11d2_9018_004f4e006398 DD 0dda57127H
	DW	0d4e3H
	DW	011d2H
	DB	090H
	DB	018H
	DB	00H
	DB	04fH
	DB	04eH
	DB	00H
	DB	063H
	DB	098H
CONST	ENDS
;	COMDAT ___pobjMapEntryLast
ATL$__z	SEGMENT
___pobjMapEntryLast DD 00H
ATL$__z	ENDS
;	COMDAT ___pobjMapEntryFirst
ATL$__a	SEGMENT
___pobjMapEntryFirst DD 00H
ATL$__a	ENDS
;	COMDAT __GUID_dda57125_d4e3_11d2_9018_004f4e006398
CONST	SEGMENT
__GUID_dda57125_d4e3_11d2_9018_004f4e006398 DD 0dda57125H
	DW	0d4e3H
	DW	011d2H
	DB	090H
	DB	018H
	DB	00H
	DB	04fH
	DB	04eH
	DB	00H
	DB	063H
	DB	098H
CONST	ENDS
;	COMDAT ?digits10@?$numeric_limits@H@std@@2HB
CONST	SEGMENT
?digits10@?$numeric_limits@H@std@@2HB DD 09H		; std::numeric_limits<int>::digits10
CONST	ENDS
;	COMDAT __GUID_b8d1f614_d5e4_4bd1_8f01_17371deaf685
CONST	SEGMENT
__GUID_b8d1f614_d5e4_4bd1_8f01_17371deaf685 DD 0b8d1f614H
	DW	0d5e4H
	DW	04bd1H
	DB	08fH
	DB	01H
	DB	017H
	DB	037H
	DB	01dH
	DB	0eaH
	DB	0f6H
	DB	085H
CONST	ENDS
;	COMDAT ?digits@?$numeric_limits@H@std@@2HB
CONST	SEGMENT
?digits@?$numeric_limits@H@std@@2HB DD 01fH		; std::numeric_limits<int>::digits
CONST	ENDS
;	COMDAT ?value@?$_Sizeof@HU_Nil@std@@U12@U12@U12@U12@U12@U12@@std@@2IB
CONST	SEGMENT
?value@?$_Sizeof@HU_Nil@std@@U12@U12@U12@U12@U12@U12@@std@@2IB DD 01H ; std::_Sizeof<int,std::_Nil,std::_Nil,std::_Nil,std::_Nil,std::_Nil,std::_Nil,std::_Nil>::value
CONST	ENDS
;	COMDAT ?is_signed@?$numeric_limits@H@std@@2_NB
CONST	SEGMENT
?is_signed@?$numeric_limits@H@std@@2_NB DB 01H		; std::numeric_limits<int>::is_signed
CONST	ENDS
;	COMDAT __GUID_dda57123_d4e3_11d2_9018_004f4e006398
CONST	SEGMENT
__GUID_dda57123_d4e3_11d2_9018_004f4e006398 DD 0dda57123H
	DW	0d4e3H
	DW	011d2H
	DB	090H
	DB	018H
	DB	00H
	DB	04fH
	DB	04eH
	DB	00H
	DB	063H
	DB	098H
CONST	ENDS
;	COMDAT __GUID_dda57120_d4e3_11d2_9018_004f4e006398
CONST	SEGMENT
__GUID_dda57120_d4e3_11d2_9018_004f4e006398 DD 0dda57120H
	DW	0d4e3H
	DW	011d2H
	DB	090H
	DB	018H
	DB	00H
	DB	04fH
	DB	04eH
	DB	00H
	DB	063H
	DB	098H
CONST	ENDS
;	COMDAT __GUID_8edbef0a_aeb1_48ad_9ed2_bd41cd1075bd
CONST	SEGMENT
__GUID_8edbef0a_aeb1_48ad_9ed2_bd41cd1075bd DD 08edbef0aH
	DW	0aeb1H
	DW	048adH
	DB	09eH
	DB	0d2H
	DB	0bdH
	DB	041H
	DB	0cdH
	DB	010H
	DB	075H
	DB	0bdH
CONST	ENDS
;	COMDAT ?digits10@?$numeric_limits@G@std@@2HB
CONST	SEGMENT
?digits10@?$numeric_limits@G@std@@2HB DD 04H		; std::numeric_limits<unsigned short>::digits10
CONST	ENDS
;	COMDAT ?digits@?$numeric_limits@G@std@@2HB
CONST	SEGMENT
?digits@?$numeric_limits@G@std@@2HB DD 010H		; std::numeric_limits<unsigned short>::digits
CONST	ENDS
;	COMDAT ?is_signed@?$numeric_limits@G@std@@2_NB
CONST	SEGMENT
?is_signed@?$numeric_limits@G@std@@2_NB DB 00H		; std::numeric_limits<unsigned short>::is_signed
CONST	ENDS
;	COMDAT __GUID_fc4801a3_2ba9_11cf_a229_00aa003d7352
CONST	SEGMENT
__GUID_fc4801a3_2ba9_11cf_a229_00aa003d7352 DD 0fc4801a3H
	DW	02ba9H
	DW	011cfH
	DB	0a2H
	DB	029H
	DB	00H
	DB	0aaH
	DB	00H
	DB	03dH
	DB	073H
	DB	052H
CONST	ENDS
;	COMDAT ?digits10@?$numeric_limits@F@std@@2HB
CONST	SEGMENT
?digits10@?$numeric_limits@F@std@@2HB DD 04H		; std::numeric_limits<short>::digits10
CONST	ENDS
;	COMDAT ?digits@?$numeric_limits@F@std@@2HB
CONST	SEGMENT
?digits@?$numeric_limits@F@std@@2HB DD 0fH		; std::numeric_limits<short>::digits
CONST	ENDS
;	COMDAT ?is_signed@?$numeric_limits@F@std@@2_NB
CONST	SEGMENT
?is_signed@?$numeric_limits@F@std@@2_NB DB 01H		; std::numeric_limits<short>::is_signed
CONST	ENDS
;	COMDAT ?value@?$integral_constant@_N$00@std@@2_NB
CONST	SEGMENT
?value@?$integral_constant@_N$00@std@@2_NB DB 01H	; std::integral_constant<bool,1>::value
CONST	ENDS
;	COMDAT ?digits10@?$numeric_limits@E@std@@2HB
CONST	SEGMENT
?digits10@?$numeric_limits@E@std@@2HB DD 02H		; std::numeric_limits<unsigned char>::digits10
CONST	ENDS
;	COMDAT ?digits@?$numeric_limits@E@std@@2HB
CONST	SEGMENT
?digits@?$numeric_limits@E@std@@2HB DD 08H		; std::numeric_limits<unsigned char>::digits
CONST	ENDS
;	COMDAT ?value@?$integral_constant@_N$0A@@std@@2_NB
CONST	SEGMENT
?value@?$integral_constant@_N$0A@@std@@2_NB DB 00H	; std::integral_constant<bool,0>::value
CONST	ENDS
;	COMDAT ?is_signed@?$numeric_limits@E@std@@2_NB
CONST	SEGMENT
?is_signed@?$numeric_limits@E@std@@2_NB DB 00H		; std::numeric_limits<unsigned char>::is_signed
CONST	ENDS
;	COMDAT _LIBID_ATLLib
CONST	SEGMENT
_LIBID_ATLLib DD 044ec0535H
	DW	0400fH
	DW	011d0H
	DB	09dH
	DB	0cdH
	DB	00H
	DB	0a0H
	DB	0c9H
	DB	03H
	DB	091H
	DB	0d3H
CONST	ENDS
;	COMDAT ?table_size@?$ctype@D@std@@2IB
CONST	SEGMENT
?table_size@?$ctype@D@std@@2IB DD 0100H			; std::ctype<char>::table_size
CONST	ENDS
;	COMDAT _IID_IAxWinAmbientDispatch
CONST	SEGMENT
_IID_IAxWinAmbientDispatch DD 0b6ea2051H
	DW	048aH
	DW	011d1H
	DB	082H
	DB	0b9H
	DB	00H
	DB	0c0H
	DB	04fH
	DB	0b9H
	DB	094H
	DB	02eH
CONST	ENDS
;	COMDAT ?digits10@?$numeric_limits@C@std@@2HB
CONST	SEGMENT
?digits10@?$numeric_limits@C@std@@2HB DD 02H		; std::numeric_limits<signed char>::digits10
CONST	ENDS
;	COMDAT ?digits@?$numeric_limits@C@std@@2HB
CONST	SEGMENT
?digits@?$numeric_limits@C@std@@2HB DD 07H		; std::numeric_limits<signed char>::digits
CONST	ENDS
;	COMDAT ?is_signed@?$numeric_limits@C@std@@2_NB
CONST	SEGMENT
?is_signed@?$numeric_limits@C@std@@2_NB DB 01H		; std::numeric_limits<signed char>::is_signed
CONST	ENDS
CONST	SEGMENT
_L_2	DD	03f317218r			; 0.693147
CONST	ENDS
;	COMDAT ?digits10@?$numeric_limits@_N@std@@2HB
CONST	SEGMENT
?digits10@?$numeric_limits@_N@std@@2HB DD 00H		; std::numeric_limits<bool>::digits10
CONST	ENDS
;	COMDAT ?digits@?$numeric_limits@_N@std@@2HB
CONST	SEGMENT
?digits@?$numeric_limits@_N@std@@2HB DD 01H		; std::numeric_limits<bool>::digits
CONST	ENDS
;	COMDAT ?is_signed@?$numeric_limits@_N@std@@2_NB
CONST	SEGMENT
?is_signed@?$numeric_limits@_N@std@@2_NB DB 00H		; std::numeric_limits<bool>::is_signed
CONST	ENDS
;	COMDAT _IID_IAxWinHostWindowLic
CONST	SEGMENT
_IID_IAxWinHostWindowLic DD 03935bda8H
	DW	04ed9H
	DW	0495cH
	DB	086H
	DB	050H
	DB	0e0H
	DB	01fH
	DB	0c1H
	DB	0e3H
	DB	08aH
	DB	04bH
CONST	ENDS
;	COMDAT ?is_modulo@?$numeric_limits@_N@std@@2_NB
CONST	SEGMENT
?is_modulo@?$numeric_limits@_N@std@@2_NB DB 00H		; std::numeric_limits<bool>::is_modulo
CONST	ENDS
;	COMDAT ?digits10@?$numeric_limits@_W@std@@2HB
CONST	SEGMENT
?digits10@?$numeric_limits@_W@std@@2HB DD 04H		; std::numeric_limits<wchar_t>::digits10
CONST	ENDS
;	COMDAT ?digits@?$numeric_limits@_W@std@@2HB
CONST	SEGMENT
?digits@?$numeric_limits@_W@std@@2HB DD 010H		; std::numeric_limits<wchar_t>::digits
CONST	ENDS
;	COMDAT ?is_signed@?$numeric_limits@_W@std@@2_NB
CONST	SEGMENT
?is_signed@?$numeric_limits@_W@std@@2_NB DB 00H		; std::numeric_limits<wchar_t>::is_signed
CONST	ENDS
;	COMDAT __GUID_00000146_0000_0000_c000_000000000046
CONST	SEGMENT
__GUID_00000146_0000_0000_c000_000000000046 DD 0146H
	DW	00H
	DW	00H
	DB	0c0H
	DB	00H
	DB	00H
	DB	00H
	DB	00H
	DB	00H
	DB	00H
	DB	046H
CONST	ENDS
;	COMDAT ?pmField@?$CVarTypeInfo@PATtagCY@@@ATL@@2QQtagVARIANT@@PATtagCY@@Q3@
CONST	SEGMENT
?pmField@?$CVarTypeInfo@PATtagCY@@@ATL@@2QQtagVARIANT@@PATtagCY@@Q3@ DD 08H ; ATL::CVarTypeInfo<tagCY *>::pmField
CONST	ENDS
;	COMDAT ?VT@?$CVarTypeInfo@PATtagCY@@@ATL@@2GB
CONST	SEGMENT
?VT@?$CVarTypeInfo@PATtagCY@@@ATL@@2GB DW 04006H	; ATL::CVarTypeInfo<tagCY *>::VT
CONST	ENDS
;	COMDAT ?none@?$_Locbase@H@std@@2HB
CONST	SEGMENT
?none@?$_Locbase@H@std@@2HB DD 00H			; std::_Locbase<int>::none
CONST	ENDS
;	COMDAT ?all@?$_Locbase@H@std@@2HB
CONST	SEGMENT
?all@?$_Locbase@H@std@@2HB DD 03fH			; std::_Locbase<int>::all
CONST	ENDS
;	COMDAT ?messages@?$_Locbase@H@std@@2HB
CONST	SEGMENT
?messages@?$_Locbase@H@std@@2HB DD 020H			; std::_Locbase<int>::messages
CONST	ENDS
;	COMDAT ?time@?$_Locbase@H@std@@2HB
CONST	SEGMENT
?time@?$_Locbase@H@std@@2HB DD 010H			; std::_Locbase<int>::time
CONST	ENDS
;	COMDAT ?numeric@?$_Locbase@H@std@@2HB
CONST	SEGMENT
?numeric@?$_Locbase@H@std@@2HB DD 08H			; std::_Locbase<int>::numeric
CONST	ENDS
;	COMDAT ?monetary@?$_Locbase@H@std@@2HB
CONST	SEGMENT
?monetary@?$_Locbase@H@std@@2HB DD 04H			; std::_Locbase<int>::monetary
CONST	ENDS
;	COMDAT ?pmField@?$CVarTypeInfo@TtagCY@@@ATL@@2QQtagVARIANT@@TtagCY@@Q3@
CONST	SEGMENT
?pmField@?$CVarTypeInfo@TtagCY@@@ATL@@2QQtagVARIANT@@TtagCY@@Q3@ DD 08H ; ATL::CVarTypeInfo<tagCY>::pmField
CONST	ENDS
;	COMDAT ?ctype@?$_Locbase@H@std@@2HB
CONST	SEGMENT
?ctype@?$_Locbase@H@std@@2HB DD 02H			; std::_Locbase<int>::ctype
CONST	ENDS
;	COMDAT ?VT@?$CVarTypeInfo@TtagCY@@@ATL@@2GB
CONST	SEGMENT
?VT@?$CVarTypeInfo@TtagCY@@@ATL@@2GB DW 06H		; ATL::CVarTypeInfo<tagCY>::VT
CONST	ENDS
;	COMDAT ?collate@?$_Locbase@H@std@@2HB
CONST	SEGMENT
?collate@?$_Locbase@H@std@@2HB DD 01H			; std::_Locbase<int>::collate
CONST	ENDS
;	COMDAT ?digits10@?$numeric_limits@D@std@@2HB
CONST	SEGMENT
?digits10@?$numeric_limits@D@std@@2HB DD 02H		; std::numeric_limits<char>::digits10
CONST	ENDS
;	COMDAT ?digits@?$numeric_limits@D@std@@2HB
CONST	SEGMENT
?digits@?$numeric_limits@D@std@@2HB DD 07H		; std::numeric_limits<char>::digits
CONST	ENDS
;	COMDAT ?is_signed@?$numeric_limits@D@std@@2_NB
CONST	SEGMENT
?is_signed@?$numeric_limits@D@std@@2_NB DB 01H		; std::numeric_limits<char>::is_signed
CONST	ENDS
;	COMDAT ?pmField@?$CVarTypeInfo@PAPAUIDispatch@@@ATL@@2QQtagVARIANT@@PAPAUIDispatch@@Q3@
CONST	SEGMENT
?pmField@?$CVarTypeInfo@PAPAUIDispatch@@@ATL@@2QQtagVARIANT@@PAPAUIDispatch@@Q3@ DD 08H ; ATL::CVarTypeInfo<IDispatch * *>::pmField
CONST	ENDS
;	COMDAT ?VT@?$CVarTypeInfo@PAPAUIDispatch@@@ATL@@2GB
CONST	SEGMENT
?VT@?$CVarTypeInfo@PAPAUIDispatch@@@ATL@@2GB DW 04009H	; ATL::CVarTypeInfo<IDispatch * *>::VT
CONST	ENDS
;	COMDAT _IID_IAxWinHostWindow
CONST	SEGMENT
_IID_IAxWinHostWindow DD 0b6ea2050H
	DW	048aH
	DW	011d1H
	DB	082H
	DB	0b9H
	DB	00H
	DB	0c0H
	DB	04fH
	DB	0b9H
	DB	094H
	DB	02eH
CONST	ENDS
;	COMDAT ?pmField@?$CVarTypeInfo@PAUIDispatch@@@ATL@@2QQtagVARIANT@@PAUIDispatch@@Q3@
CONST	SEGMENT
?pmField@?$CVarTypeInfo@PAUIDispatch@@@ATL@@2QQtagVARIANT@@PAUIDispatch@@Q3@ DD 08H ; ATL::CVarTypeInfo<IDispatch *>::pmField
CONST	ENDS
;	COMDAT ?VT@?$CVarTypeInfo@PAUIDispatch@@@ATL@@2GB
CONST	SEGMENT
?VT@?$CVarTypeInfo@PAUIDispatch@@@ATL@@2GB DW 09H	; ATL::CVarTypeInfo<IDispatch *>::VT
CONST	ENDS
;	COMDAT ?radix@_Num_float_base@std@@2HB
CONST	SEGMENT
?radix@_Num_float_base@std@@2HB DD 02H			; std::_Num_float_base::radix
CONST	ENDS
;	COMDAT ?round_style@_Num_float_base@std@@2W4float_round_style@2@B
CONST	SEGMENT
?round_style@_Num_float_base@std@@2W4float_round_style@2@B DD 01H ; std::_Num_float_base::round_style
CONST	ENDS
;	COMDAT ?traps@_Num_float_base@std@@2_NB
CONST	SEGMENT
?traps@_Num_float_base@std@@2_NB DB 00H			; std::_Num_float_base::traps
CONST	ENDS
;	COMDAT ?pmField@?$CVarTypeInfo@PAPAUIUnknown@@@ATL@@2QQtagVARIANT@@PAPAUIUnknown@@Q3@
CONST	SEGMENT
?pmField@?$CVarTypeInfo@PAPAUIUnknown@@@ATL@@2QQtagVARIANT@@PAPAUIUnknown@@Q3@ DD 08H ; ATL::CVarTypeInfo<IUnknown * *>::pmField
CONST	ENDS
;	COMDAT ?tinyness_before@_Num_float_base@std@@2_NB
CONST	SEGMENT
?tinyness_before@_Num_float_base@std@@2_NB DB 01H	; std::_Num_float_base::tinyness_before
CONST	ENDS
;	COMDAT ?VT@?$CVarTypeInfo@PAPAUIUnknown@@@ATL@@2GB
CONST	SEGMENT
?VT@?$CVarTypeInfo@PAPAUIUnknown@@@ATL@@2GB DW 0400dH	; ATL::CVarTypeInfo<IUnknown * *>::VT
CONST	ENDS
;	COMDAT ?is_specialized@_Num_float_base@std@@2_NB
CONST	SEGMENT
?is_specialized@_Num_float_base@std@@2_NB DB 01H	; std::_Num_float_base::is_specialized
CONST	ENDS
;	COMDAT ?is_signed@_Num_float_base@std@@2_NB
CONST	SEGMENT
?is_signed@_Num_float_base@std@@2_NB DB 01H		; std::_Num_float_base::is_signed
CONST	ENDS
;	COMDAT ?is_modulo@_Num_float_base@std@@2_NB
CONST	SEGMENT
?is_modulo@_Num_float_base@std@@2_NB DB 00H		; std::_Num_float_base::is_modulo
CONST	ENDS
;	COMDAT ?pmField@?$CVarTypeInfo@PAUIUnknown@@@ATL@@2QQtagVARIANT@@PAUIUnknown@@Q3@
CONST	SEGMENT
?pmField@?$CVarTypeInfo@PAUIUnknown@@@ATL@@2QQtagVARIANT@@PAUIUnknown@@Q3@ DD 08H ; ATL::CVarTypeInfo<IUnknown *>::pmField
CONST	ENDS
;	COMDAT ?is_integer@_Num_float_base@std@@2_NB
CONST	SEGMENT
?is_integer@_Num_float_base@std@@2_NB DB 00H		; std::_Num_float_base::is_integer
CONST	ENDS
;	COMDAT ?VT@?$CVarTypeInfo@PAUIUnknown@@@ATL@@2GB
CONST	SEGMENT
?VT@?$CVarTypeInfo@PAUIUnknown@@@ATL@@2GB DW 0dH	; ATL::CVarTypeInfo<IUnknown *>::VT
CONST	ENDS
;	COMDAT ?is_iec559@_Num_float_base@std@@2_NB
CONST	SEGMENT
?is_iec559@_Num_float_base@std@@2_NB DB 01H		; std::_Num_float_base::is_iec559
CONST	ENDS
;	COMDAT ?is_exact@_Num_float_base@std@@2_NB
CONST	SEGMENT
?is_exact@_Num_float_base@std@@2_NB DB 00H		; std::_Num_float_base::is_exact
CONST	ENDS
;	COMDAT ?is_bounded@_Num_float_base@std@@2_NB
CONST	SEGMENT
?is_bounded@_Num_float_base@std@@2_NB DB 01H		; std::_Num_float_base::is_bounded
CONST	ENDS
;	COMDAT ?has_signaling_NaN@_Num_float_base@std@@2_NB
CONST	SEGMENT
?has_signaling_NaN@_Num_float_base@std@@2_NB DB 01H	; std::_Num_float_base::has_signaling_NaN
CONST	ENDS
;	COMDAT ?pmField@?$CVarTypeInfo@PAPA_W@ATL@@2QQtagVARIANT@@PAPA_WQ3@
CONST	SEGMENT
?pmField@?$CVarTypeInfo@PAPA_W@ATL@@2QQtagVARIANT@@PAPA_WQ3@ DD 08H ; ATL::CVarTypeInfo<wchar_t * *>::pmField
CONST	ENDS
;	COMDAT ?VT@?$CVarTypeInfo@PAPA_W@ATL@@2GB
CONST	SEGMENT
?VT@?$CVarTypeInfo@PAPA_W@ATL@@2GB DW 04008H		; ATL::CVarTypeInfo<wchar_t * *>::VT
CONST	ENDS
;	COMDAT ?has_quiet_NaN@_Num_float_base@std@@2_NB
CONST	SEGMENT
?has_quiet_NaN@_Num_float_base@std@@2_NB DB 01H		; std::_Num_float_base::has_quiet_NaN
CONST	ENDS
;	COMDAT ?has_infinity@_Num_float_base@std@@2_NB
CONST	SEGMENT
?has_infinity@_Num_float_base@std@@2_NB DB 01H		; std::_Num_float_base::has_infinity
CONST	ENDS
;	COMDAT ?CMPDIRTYDATA_INTERVAL@FalconEntity@@2KB
CONST	SEGMENT
?CMPDIRTYDATA_INTERVAL@FalconEntity@@2KB DD 0c8H	; FalconEntity::CMPDIRTYDATA_INTERVAL
CONST	ENDS
;	COMDAT ?SIMDIRTYDATA_INTERVAL@FalconEntity@@2KB
CONST	SEGMENT
?SIMDIRTYDATA_INTERVAL@FalconEntity@@2KB DD 0c8H	; FalconEntity::SIMDIRTYDATA_INTERVAL
CONST	ENDS
;	COMDAT ?has_denorm_loss@_Num_float_base@std@@2_NB
CONST	SEGMENT
?has_denorm_loss@_Num_float_base@std@@2_NB DB 01H	; std::_Num_float_base::has_denorm_loss
CONST	ENDS
;	COMDAT ?has_denorm@_Num_float_base@std@@2W4float_denorm_style@2@B
CONST	SEGMENT
?has_denorm@_Num_float_base@std@@2W4float_denorm_style@2@B DD 01H ; std::_Num_float_base::has_denorm
CONST	ENDS
;	COMDAT ?pmField@?$CVarTypeInfo@PA_W@ATL@@2QQtagVARIANT@@PA_WQ3@
CONST	SEGMENT
?pmField@?$CVarTypeInfo@PA_W@ATL@@2QQtagVARIANT@@PA_WQ3@ DD 08H ; ATL::CVarTypeInfo<wchar_t *>::pmField
CONST	ENDS
;	COMDAT ?VT@?$CVarTypeInfo@PA_W@ATL@@2GB
CONST	SEGMENT
?VT@?$CVarTypeInfo@PA_W@ATL@@2GB DW 08H			; ATL::CVarTypeInfo<wchar_t *>::VT
CONST	ENDS
;	COMDAT ?radix@_Num_int_base@std@@2HB
CONST	SEGMENT
?radix@_Num_int_base@std@@2HB DD 02H			; std::_Num_int_base::radix
CONST	ENDS
;	COMDAT ?is_specialized@_Num_int_base@std@@2_NB
CONST	SEGMENT
?is_specialized@_Num_int_base@std@@2_NB DB 01H		; std::_Num_int_base::is_specialized
CONST	ENDS
;	COMDAT ?VT@?$CVarTypeInfo@PAUtagVARIANT@@@ATL@@2GB
CONST	SEGMENT
?VT@?$CVarTypeInfo@PAUtagVARIANT@@@ATL@@2GB DW 0400cH	; ATL::CVarTypeInfo<tagVARIANT *>::VT
CONST	ENDS
;	COMDAT ?is_modulo@_Num_int_base@std@@2_NB
CONST	SEGMENT
?is_modulo@_Num_int_base@std@@2_NB DB 01H		; std::_Num_int_base::is_modulo
CONST	ENDS
;	COMDAT ?is_integer@_Num_int_base@std@@2_NB
CONST	SEGMENT
?is_integer@_Num_int_base@std@@2_NB DB 01H		; std::_Num_int_base::is_integer
CONST	ENDS
;	COMDAT ?is_exact@_Num_int_base@std@@2_NB
CONST	SEGMENT
?is_exact@_Num_int_base@std@@2_NB DB 01H		; std::_Num_int_base::is_exact
CONST	ENDS
;	COMDAT ?pmField@?$CVarTypeInfo@PAN@ATL@@2QQtagVARIANT@@PANQ3@
CONST	SEGMENT
?pmField@?$CVarTypeInfo@PAN@ATL@@2QQtagVARIANT@@PANQ3@ DD 08H ; ATL::CVarTypeInfo<double *>::pmField
CONST	ENDS
;	COMDAT ?is_bounded@_Num_int_base@std@@2_NB
CONST	SEGMENT
?is_bounded@_Num_int_base@std@@2_NB DB 01H		; std::_Num_int_base::is_bounded
CONST	ENDS
;	COMDAT ?VT@?$CVarTypeInfo@PAN@ATL@@2GB
CONST	SEGMENT
?VT@?$CVarTypeInfo@PAN@ATL@@2GB DW 04005H		; ATL::CVarTypeInfo<double *>::VT
CONST	ENDS
;	COMDAT ?pmField@?$CVarTypeInfo@N@ATL@@2QQtagVARIANT@@NQ3@
CONST	SEGMENT
?pmField@?$CVarTypeInfo@N@ATL@@2QQtagVARIANT@@NQ3@ DD 08H ; ATL::CVarTypeInfo<double>::pmField
CONST	ENDS
;	COMDAT ?VT@?$CVarTypeInfo@N@ATL@@2GB
CONST	SEGMENT
?VT@?$CVarTypeInfo@N@ATL@@2GB DW 05H			; ATL::CVarTypeInfo<double>::VT
CONST	ENDS
;	COMDAT ?pmField@?$CVarTypeInfo@PAM@ATL@@2QQtagVARIANT@@PAMQ3@
CONST	SEGMENT
?pmField@?$CVarTypeInfo@PAM@ATL@@2QQtagVARIANT@@PAMQ3@ DD 08H ; ATL::CVarTypeInfo<float *>::pmField
CONST	ENDS
;	COMDAT ?VT@?$CVarTypeInfo@PAM@ATL@@2GB
CONST	SEGMENT
?VT@?$CVarTypeInfo@PAM@ATL@@2GB DW 04004H		; ATL::CVarTypeInfo<float *>::VT
CONST	ENDS
;	COMDAT ?radix@_Num_base@std@@2HB
CONST	SEGMENT
?radix@_Num_base@std@@2HB DD 00H			; std::_Num_base::radix
CONST	ENDS
;	COMDAT ?min_exponent10@_Num_base@std@@2HB
CONST	SEGMENT
?min_exponent10@_Num_base@std@@2HB DD 00H		; std::_Num_base::min_exponent10
CONST	ENDS
;	COMDAT ?min_exponent@_Num_base@std@@2HB
CONST	SEGMENT
?min_exponent@_Num_base@std@@2HB DD 00H			; std::_Num_base::min_exponent
CONST	ENDS
;	COMDAT ?pmField@?$CVarTypeInfo@M@ATL@@2QQtagVARIANT@@MQ3@
CONST	SEGMENT
?pmField@?$CVarTypeInfo@M@ATL@@2QQtagVARIANT@@MQ3@ DD 08H ; ATL::CVarTypeInfo<float>::pmField
CONST	ENDS
;	COMDAT ?max_exponent10@_Num_base@std@@2HB
CONST	SEGMENT
?max_exponent10@_Num_base@std@@2HB DD 00H		; std::_Num_base::max_exponent10
CONST	ENDS
;	COMDAT ?VT@?$CVarTypeInfo@M@ATL@@2GB
CONST	SEGMENT
?VT@?$CVarTypeInfo@M@ATL@@2GB DW 04H			; ATL::CVarTypeInfo<float>::VT
CONST	ENDS
;	COMDAT ?max_exponent@_Num_base@std@@2HB
CONST	SEGMENT
?max_exponent@_Num_base@std@@2HB DD 00H			; std::_Num_base::max_exponent
CONST	ENDS
;	COMDAT ?max_digits10@_Num_base@std@@2HB
CONST	SEGMENT
?max_digits10@_Num_base@std@@2HB DD 00H			; std::_Num_base::max_digits10
CONST	ENDS
;	COMDAT ?digits10@_Num_base@std@@2HB
CONST	SEGMENT
?digits10@_Num_base@std@@2HB DD 00H			; std::_Num_base::digits10
CONST	ENDS
;	COMDAT ?digits@_Num_base@std@@2HB
CONST	SEGMENT
?digits@_Num_base@std@@2HB DD 00H			; std::_Num_base::digits
CONST	ENDS
;	COMDAT ?pmField@?$CVarTypeInfo@PA_K@ATL@@2QQtagVARIANT@@PA_KQ3@
CONST	SEGMENT
?pmField@?$CVarTypeInfo@PA_K@ATL@@2QQtagVARIANT@@PA_KQ3@ DD 08H ; ATL::CVarTypeInfo<unsigned __int64 *>::pmField
CONST	ENDS
;	COMDAT _IID_IGameEvents
CONST	SEGMENT
_IID_IGameEvents DD 0b8d1f614H
	DW	0d5e4H
	DW	04bd1H
	DB	08fH
	DB	01H
	DB	017H
	DB	037H
	DB	01dH
	DB	0eaH
	DB	0f6H
	DB	085H
CONST	ENDS
;	COMDAT ?VT@?$CVarTypeInfo@PA_K@ATL@@2GB
CONST	SEGMENT
?VT@?$CVarTypeInfo@PA_K@ATL@@2GB DW 04015H		; ATL::CVarTypeInfo<unsigned __int64 *>::VT
CONST	ENDS
;	COMDAT ?round_style@_Num_base@std@@2W4float_round_style@2@B
CONST	SEGMENT
?round_style@_Num_base@std@@2W4float_round_style@2@B DD 00H ; std::_Num_base::round_style
CONST	ENDS
;	COMDAT _IID_IGame
CONST	SEGMENT
_IID_IGame DD	0dda57123H
	DW	0d4e3H
	DW	011d2H
	DB	090H
	DB	018H
	DB	00H
	DB	04fH
	DB	04eH
	DB	00H
	DB	063H
	DB	098H
CONST	ENDS
;	COMDAT _IID_IRemoteMasterServerEvents
CONST	SEGMENT
_IID_IRemoteMasterServerEvents DD 036b5b50dH
	DW	069bbH
	DW	043d5H
	DB	083H
	DB	0f6H
	DB	0aaH
	DB	0f7H
	DB	0ebH
	DB	09fH
	DB	0ffH
	DB	07bH
CONST	ENDS
;	COMDAT _IID_IRemoteMasterServer
CONST	SEGMENT
_IID_IRemoteMasterServer DD 0e0016343H
	DW	04124H
	DW	048a9H
	DB	097H
	DB	034H
	DB	093H
	DB	0f4H
	DB	087H
	DB	00H
	DB	0a0H
	DB	04aH
CONST	ENDS
;	COMDAT ?traps@_Num_base@std@@2_NB
CONST	SEGMENT
?traps@_Num_base@std@@2_NB DB 00H			; std::_Num_base::traps
CONST	ENDS
PUBLIC	_cosf
PUBLIC	_sinf
PUBLIC	?cos@@YAMM@Z					; cos
PUBLIC	?sin@@YAMM@Z					; sin
PUBLIC	??0VU_SESSION_ID@@QAE@K@Z			; VU_SESSION_ID::VU_SESSION_ID
PUBLIC	??8VU_SESSION_ID@@QBEHABV0@@Z			; VU_SESSION_ID::operator==
PUBLIC	??BVU_SESSION_ID@@QBEKXZ			; VU_SESSION_ID::operator unsigned long
PUBLIC	??0VU_ID@@QAE@XZ				; VU_ID::VU_ID
PUBLIC	??8VU_ID@@QBE_NABV0@@Z				; VU_ID::operator==
PUBLIC	??9VU_ID@@QBE_NABV0@@Z				; VU_ID::operator!=
PUBLIC	?Id@VuEntity@@QBE?AVVU_ID@@XZ			; VuEntity::Id
PUBLIC	?XPos@VuEntity@@QBEMXZ				; VuEntity::XPos
PUBLIC	?YPos@VuEntity@@QBEMXZ				; VuEntity::YPos
PUBLIC	??2@YAPAXIPAX@Z					; operator new
PUBLIC	??3@YAXPAX0@Z					; operator delete
PUBLIC	?length@?$char_traits@D@std@@SAIPBD@Z		; std::char_traits<char>::length
PUBLIC	?copy@?$char_traits@D@std@@SAPADPADPBDI@Z	; std::char_traits<char>::copy
PUBLIC	?move@?$char_traits@D@std@@SAPADPADPBDI@Z	; std::char_traits<char>::move
PUBLIC	?assign@?$char_traits@D@std@@SAXAADABD@Z	; std::char_traits<char>::assign
PUBLIC	??0?$allocator@D@std@@QAE@XZ			; std::allocator<char>::allocator<char>
PUBLIC	?deallocate@?$allocator@D@std@@QAEXPADI@Z	; std::allocator<char>::deallocate
PUBLIC	?allocate@?$allocator@D@std@@QAEPADI@Z		; std::allocator<char>::allocate
PUBLIC	?max_size@?$allocator@D@std@@QBEIXZ		; std::allocator<char>::max_size
PUBLIC	?max_size@?$allocator_traits@V?$allocator@D@std@@@std@@SAIABV?$allocator@D@2@@Z ; std::allocator_traits<std::allocator<char> >::max_size
PUBLIC	??0?$_Wrap_alloc@V?$allocator@D@std@@@std@@QAE@XZ ; std::_Wrap_alloc<std::allocator<char> >::_Wrap_alloc<std::allocator<char> >
PUBLIC	?allocate@?$_Wrap_alloc@V?$allocator@D@std@@@std@@QAEPADI@Z ; std::_Wrap_alloc<std::allocator<char> >::allocate
PUBLIC	?deallocate@?$_Wrap_alloc@V?$allocator@D@std@@@std@@QAEXPADI@Z ; std::_Wrap_alloc<std::allocator<char> >::deallocate
PUBLIC	?max_size@?$_Wrap_alloc@V?$allocator@D@std@@@std@@QBEIXZ ; std::_Wrap_alloc<std::allocator<char> >::max_size
PUBLIC	??0?$_String_val@U?$_Simple_types@D@std@@@std@@QAE@XZ ; std::_String_val<std::_Simple_types<char> >::_String_val<std::_Simple_types<char> >
PUBLIC	?_Myptr@?$_String_val@U?$_Simple_types@D@std@@@std@@QAEPADXZ ; std::_String_val<std::_Simple_types<char> >::_Myptr
PUBLIC	?_Myptr@?$_String_val@U?$_Simple_types@D@std@@@std@@QBEPBDXZ ; std::_String_val<std::_Simple_types<char> >::_Myptr
PUBLIC	??0?$_String_alloc@$0A@U?$_String_base_types@DV?$allocator@D@std@@@std@@@std@@QAE@ABV?$allocator@D@1@@Z ; std::_String_alloc<0,std::_String_base_types<char,std::allocator<char> > >::_String_alloc<0,std::_String_base_types<char,std::allocator<char> > >
PUBLIC	?_Getal@?$_String_alloc@$0A@U?$_String_base_types@DV?$allocator@D@std@@@std@@@std@@QBE?AU?$_Wrap_alloc@V?$allocator@D@std@@@2@XZ ; std::_String_alloc<0,std::_String_base_types<char,std::allocator<char> > >::_Getal
PUBLIC	??0?$basic_string@DU?$char_traits@D@std@@V?$allocator@D@2@@std@@QAE@PBD@Z ; std::basic_string<char,std::char_traits<char>,std::allocator<char> >::basic_string<char,std::char_traits<char>,std::allocator<char> >
PUBLIC	?assign@?$basic_string@DU?$char_traits@D@std@@V?$allocator@D@2@@std@@QAEAAV12@ABV12@II@Z ; std::basic_string<char,std::char_traits<char>,std::allocator<char> >::assign
PUBLIC	?assign@?$basic_string@DU?$char_traits@D@std@@V?$allocator@D@2@@std@@QAEAAV12@PBDI@Z ; std::basic_string<char,std::char_traits<char>,std::allocator<char> >::assign
PUBLIC	?assign@?$basic_string@DU?$char_traits@D@std@@V?$allocator@D@2@@std@@QAEAAV12@PBD@Z ; std::basic_string<char,std::char_traits<char>,std::allocator<char> >::assign
PUBLIC	?erase@?$basic_string@DU?$char_traits@D@std@@V?$allocator@D@2@@std@@QAEAAV12@I@Z ; std::basic_string<char,std::char_traits<char>,std::allocator<char> >::erase
PUBLIC	?erase@?$basic_string@DU?$char_traits@D@std@@V?$allocator@D@2@@std@@QAEAAV12@II@Z ; std::basic_string<char,std::char_traits<char>,std::allocator<char> >::erase
PUBLIC	?size@?$basic_string@DU?$char_traits@D@std@@V?$allocator@D@2@@std@@QBEIXZ ; std::basic_string<char,std::char_traits<char>,std::allocator<char> >::size
PUBLIC	?max_size@?$basic_string@DU?$char_traits@D@std@@V?$allocator@D@2@@std@@QBEIXZ ; std::basic_string<char,std::char_traits<char>,std::allocator<char> >::max_size
PUBLIC	?_Copy@?$basic_string@DU?$char_traits@D@std@@V?$allocator@D@2@@std@@QAEXII@Z ; std::basic_string<char,std::char_traits<char>,std::allocator<char> >::_Copy
PUBLIC	?_Eos@?$basic_string@DU?$char_traits@D@std@@V?$allocator@D@2@@std@@QAEXI@Z ; std::basic_string<char,std::char_traits<char>,std::allocator<char> >::_Eos
PUBLIC	?_Grow@?$basic_string@DU?$char_traits@D@std@@V?$allocator@D@2@@std@@QAE_NI_N@Z ; std::basic_string<char,std::char_traits<char>,std::allocator<char> >::_Grow
PUBLIC	?_Inside@?$basic_string@DU?$char_traits@D@std@@V?$allocator@D@2@@std@@QAE_NPBD@Z ; std::basic_string<char,std::char_traits<char>,std::allocator<char> >::_Inside
PUBLIC	?_Tidy@?$basic_string@DU?$char_traits@D@std@@V?$allocator@D@2@@std@@QAEX_NI@Z ; std::basic_string<char,std::char_traits<char>,std::allocator<char> >::_Tidy
PUBLIC	?_Xlen@?$basic_string@DU?$char_traits@D@std@@V?$allocator@D@2@@std@@QBEXXZ ; std::basic_string<char,std::char_traits<char>,std::allocator<char> >::_Xlen
PUBLIC	?_Xran@?$basic_string@DU?$char_traits@D@std@@V?$allocator@D@2@@std@@QBEXXZ ; std::basic_string<char,std::char_traits<char>,std::allocator<char> >::_Xran
PUBLIC	??B?$VuBin@VVuSessionEntity@@@@QBE_NXZ		; VuBin<VuSessionEntity>::operator bool
PUBLIC	?get@?$VuBin@VVuSessionEntity@@@@QBEPAVVuSessionEntity@@XZ ; VuBin<VuSessionEntity>::get
PUBLIC	?GameName@VuGameEntity@@QAEPADXZ		; VuGameEntity::GameName
PUBLIC	??0id@locale@std@@QAE@I@Z			; std::locale::id::id
PUBLIC	?generic_category@std@@YAABVerror_category@1@XZ	; std::generic_category
PUBLIC	?system_category@std@@YAABVerror_category@1@XZ	; std::system_category
PUBLIC	??0error_category@std@@QAE@XZ			; std::error_category::error_category
PUBLIC	??1error_category@std@@UAE@XZ			; std::error_category::~error_category
PUBLIC	?default_error_condition@error_category@std@@UBE?AVerror_condition@2@H@Z ; std::error_category::default_error_condition
PUBLIC	?equivalent@error_category@std@@UBE_NHABVerror_condition@2@@Z ; std::error_category::equivalent
PUBLIC	?equivalent@error_category@std@@UBE_NABVerror_code@2@H@Z ; std::error_category::equivalent
PUBLIC	??8error_category@std@@QBE_NABV01@@Z		; std::error_category::operator==
PUBLIC	??_Gerror_category@std@@UAEPAXI@Z		; std::error_category::`scalar deleting destructor'
PUBLIC	?value@error_code@std@@QBEHXZ			; std::error_code::value
PUBLIC	?category@error_code@std@@QBEABVerror_category@2@XZ ; std::error_code::category
PUBLIC	??0error_condition@std@@QAE@HABVerror_category@1@@Z ; std::error_condition::error_condition
PUBLIC	?value@error_condition@std@@QBEHXZ		; std::error_condition::value
PUBLIC	?category@error_condition@std@@QBEABVerror_category@2@XZ ; std::error_condition::category
PUBLIC	??8error_condition@std@@QBE_NABV01@@Z		; std::error_condition::operator==
PUBLIC	??0_Generic_error_category@std@@QAE@XZ		; std::_Generic_error_category::_Generic_error_category
PUBLIC	?name@_Generic_error_category@std@@UBEPBDXZ	; std::_Generic_error_category::name
PUBLIC	?message@_Generic_error_category@std@@UBE?AV?$basic_string@DU?$char_traits@D@std@@V?$allocator@D@2@@2@H@Z ; std::_Generic_error_category::message
PUBLIC	??1_Generic_error_category@std@@UAE@XZ		; std::_Generic_error_category::~_Generic_error_category
PUBLIC	??_G_Generic_error_category@std@@UAEPAXI@Z	; std::_Generic_error_category::`scalar deleting destructor'
PUBLIC	??0_Iostream_error_category@std@@QAE@XZ		; std::_Iostream_error_category::_Iostream_error_category
PUBLIC	?name@_Iostream_error_category@std@@UBEPBDXZ	; std::_Iostream_error_category::name
PUBLIC	?message@_Iostream_error_category@std@@UBE?AV?$basic_string@DU?$char_traits@D@std@@V?$allocator@D@2@@2@H@Z ; std::_Iostream_error_category::message
PUBLIC	??1_Iostream_error_category@std@@UAE@XZ		; std::_Iostream_error_category::~_Iostream_error_category
PUBLIC	??_G_Iostream_error_category@std@@UAEPAXI@Z	; std::_Iostream_error_category::`scalar deleting destructor'
PUBLIC	??0_System_error_category@std@@QAE@XZ		; std::_System_error_category::_System_error_category
PUBLIC	?name@_System_error_category@std@@UBEPBDXZ	; std::_System_error_category::name
PUBLIC	?message@_System_error_category@std@@UBE?AV?$basic_string@DU?$char_traits@D@std@@V?$allocator@D@2@@2@H@Z ; std::_System_error_category::message
PUBLIC	?default_error_condition@_System_error_category@std@@UBE?AVerror_condition@2@H@Z ; std::_System_error_category::default_error_condition
PUBLIC	??1_System_error_category@std@@UAE@XZ		; std::_System_error_category::~_System_error_category
PUBLIC	??_G_System_error_category@std@@UAEPAXI@Z	; std::_System_error_category::`scalar deleting destructor'
PUBLIC	__tcsclen
PUBLIC	?get@?$VuBin@VFalconEntity@@@@QBEPAVFalconEntity@@XZ ; VuBin<FalconEntity>::get
PUBLIC	?SetFrontTextFlags@OTWDriverClass@@QAEXJ@Z	; OTWDriverClass::SetFrontTextFlags
PUBLIC	?GetFrontTextFlags@OTWDriverClass@@QAEJXZ	; OTWDriverClass::GetFrontTextFlags
PUBLIC	?GetCameraPanTilt@OTWDriverClass@@QAEXPAM0@Z	; OTWDriverClass::GetCameraPanTilt
PUBLIC	?SetXY@O_Output@@QAEXJJ@Z			; O_Output::SetXY
PUBLIC	?GetText@O_Output@@QAEPADXZ			; O_Output::GetText
PUBLIC	?SetClient@C_Base@@QAEXF@Z			; C_Base::SetClient
PUBLIC	?SetReady@C_Base@@QAEXF@Z			; C_Base::SetReady
PUBLIC	?GetGroup@C_Base@@QAEJXZ			; C_Base::GetGroup
PUBLIC	?GetCluster@C_Base@@QAEJXZ			; C_Base::GetCluster
PUBLIC	?GetFlags@C_Base@@QAEJXZ			; C_Base::GetFlags
PUBLIC	?GetClient@C_Base@@QAEFXZ			; C_Base::GetClient
PUBLIC	?GetY@C_Base@@QAEJXZ				; C_Base::GetY
PUBLIC	?GetH@C_Base@@QAEJXZ				; C_Base::GetH
PUBLIC	?GetParent@C_Base@@QAEPAVC_Window@@XZ		; C_Base::GetParent
PUBLIC	?SetDelCallback@C_TreeList@@QAEXP6AXPAVTREELIST@@@Z@Z ; C_TreeList::SetDelCallback
PUBLIC	?SetSearchCB@C_TreeList@@QAEXP6AHPAVTREELIST@@@Z@Z ; C_TreeList::SetSearchCB
PUBLIC	?GetRoot@C_TreeList@@QAEPAVTREELIST@@XZ		; C_TreeList::GetRoot
PUBLIC	?GetLastItem@C_TreeList@@QAEPAVTREELIST@@XZ	; C_TreeList::GetLastItem
PUBLIC	?SearchWithCB@C_TreeList@@QAEPAVTREELIST@@PAV2@@Z ; C_TreeList::SearchWithCB
PUBLIC	?SetUpdateCallback@C_TimerHook@@QAEXP6AXJFPAVC_Base@@@Z@Z ; C_TimerHook::SetUpdateCallback
PUBLIC	?SetRefreshCallback@C_TimerHook@@QAEXP6AXJFPAVC_Base@@@Z@Z ; C_TimerHook::SetRefreshCallback
PUBLIC	?GetCallingType@C_PopupMgr@@QAEFXZ		; C_PopupMgr::GetCallingType
PUBLIC	?GetCallingControl@C_PopupMgr@@QAEPAVC_Base@@XZ	; C_PopupMgr::GetCallingControl
PUBLIC	?GetFirstWindowLoaded@C_Parser@@QAEJXZ		; C_Parser::GetFirstWindowLoaded
PUBLIC	?GetNextWindowLoaded@C_Parser@@QAEJXZ		; C_Parser::GetNextWindowLoaded
PUBLIC	?SetVirtualY@C_Window@@QAEXJJ@Z			; C_Window::SetVirtualY
PUBLIC	?SetSection@C_Handler@@QAEXJ@Z			; C_Handler::SetSection
PUBLIC	?SetIcon@C_Player@@QAEXFFJ@Z			; C_Player::SetIcon
PUBLIC	?SetName@C_Player@@QAEXFFPAD@Z			; C_Player::SetName
PUBLIC	?SetStatus@C_Player@@QAEXFFJ@Z			; C_Player::SetStatus
PUBLIC	?SetName@C_Player@@QAEXPAD@Z			; C_Player::SetName
PUBLIC	?SetColor@C_Player@@QAEXKKK@Z			; C_Player::SetColor
PUBLIC	?GetMute@C_Player@@QAEFXZ			; C_Player::GetMute
PUBLIC	?GetIgnore@C_Player@@QAEFXZ			; C_Player::GetIgnore
PUBLIC	?GetName@C_Player@@QAEPADXZ			; C_Player::GetName
PUBLIC	?SetVUID@C_Player@@QAEXVVU_ID@@@Z		; C_Player::SetVUID
PUBLIC	?GetVUID@C_Player@@QAE?AVVU_ID@@XZ		; C_Player::GetVUID
PUBLIC	?GetPlayerCallsign@FalconSessionEntity@@QAEPADXZ ; FalconSessionEntity::GetPlayerCallsign
PUBLIC	?GetPlayerFlightID@FalconSessionEntity@@QBE?AVVU_ID@@XZ ; FalconSessionEntity::GetPlayerFlightID
PUBLIC	?GetPlayerEntity@FalconSessionEntity@@QBEPAVFalconEntity@@XZ ; FalconSessionEntity::GetPlayerEntity
PUBLIC	?GetGame@FalconSessionEntity@@QAEPAVFalconGameEntity@@XZ ; FalconSessionEntity::GetGame
PUBLIC	??0CHATSTR@@QAE@XZ				; CHATSTR::CHATSTR
PUBLIC	?GetTargetGameID@UIComms@@QAE?AVVU_ID@@XZ	; UIComms::GetTargetGameID
PUBLIC	?Online@UIComms@@QAEHXZ				; UIComms::Online
PUBLIC	?GetGame@UIComms@@QAEPAVVuGameEntity@@XZ	; UIComms::GetGame
PUBLIC	?SimOpenChatBox@@YAXKHPAX@Z			; SimOpenChatBox
PUBLIC	?GetUnitPackage@FlightClass@@QAEPAVPackageClass@@XZ ; FlightClass::GetUnitPackage
PUBLIC	?Radio@VoiceManager@@QAEHXZ			; VoiceManager::Radio
PUBLIC	?IsRecording@ACMIRecorder@@QAEHXZ		; ACMIRecorder::IsRecording
PUBLIC	??0_bstr_t@@QAE@PBD@Z				; _bstr_t::_bstr_t
PUBLIC	??1_bstr_t@@QAE@XZ				; _bstr_t::~_bstr_t
PUBLIC	??B_bstr_t@@QBEPA_WXZ				; _bstr_t::operator wchar_t *
PUBLIC	??0Data_t@_bstr_t@@QAE@PBD@Z			; _bstr_t::Data_t::Data_t
PUBLIC	?Release@Data_t@_bstr_t@@QAEKXZ			; _bstr_t::Data_t::Release
PUBLIC	?GetWString@Data_t@_bstr_t@@QAEAAPA_WXZ		; _bstr_t::Data_t::GetWString
PUBLIC	??2Data_t@_bstr_t@@SAPAXI@Z			; _bstr_t::Data_t::operator new
PUBLIC	??1Data_t@_bstr_t@@AAE@XZ			; _bstr_t::Data_t::~Data_t
PUBLIC	?_Free@Data_t@_bstr_t@@AAEXXZ			; _bstr_t::Data_t::_Free
PUBLIC	??_GData_t@_bstr_t@@AAEPAXI@Z			; _bstr_t::Data_t::`scalar deleting destructor'
PUBLIC	?_Free@_bstr_t@@AAEXXZ				; _bstr_t::_Free
PUBLIC	??1_com_error@@UAE@XZ				; _com_error::~_com_error
PUBLIC	?Error@_com_error@@QBEJXZ			; _com_error::Error
PUBLIC	??_G_com_error@@UAEPAXI@Z			; _com_error::`scalar deleting destructor'
PUBLIC	?AddPlayer@IUplink@GNETCORELib@@QAEJV_bstr_t@@@Z ; GNETCORELib::IUplink::AddPlayer
PUBLIC	?RemovePlayer@IUplink@GNETCORELib@@QAEJV_bstr_t@@@Z ; GNETCORELib::IUplink::RemovePlayer
PUBLIC	??C?$_com_ptr_t@V?$_com_IIID@UIUplink@GNETCORELib@@$1?_GUID_5ff85b6b_de05_42b9_831f_dc6a4e30a513@@3U__s_GUID@@B@@@@QBEPAUIUplink@GNETCORELib@@XZ ; _com_ptr_t<_com_IIID<GNETCORELib::IUplink,&_GUID_5ff85b6b_de05_42b9_831f_dc6a4e30a513> >::operator->
PUBLIC	??8?$_com_ptr_t@V?$_com_IIID@UIUplink@GNETCORELib@@$1?_GUID_5ff85b6b_de05_42b9_831f_dc6a4e30a513@@3U__s_GUID@@B@@@@QBE_NH@Z ; _com_ptr_t<_com_IIID<GNETCORELib::IUplink,&_GUID_5ff85b6b_de05_42b9_831f_dc6a4e30a513> >::operator==
PUBLIC	??9?$_com_ptr_t@V?$_com_IIID@UIUplink@GNETCORELib@@$1?_GUID_5ff85b6b_de05_42b9_831f_dc6a4e30a513@@3U__s_GUID@@B@@@@QBE_NH@Z ; _com_ptr_t<_com_IIID<GNETCORELib::IUplink,&_GUID_5ff85b6b_de05_42b9_831f_dc6a4e30a513> >::operator!=
PUBLIC	?LoadCommsWindows@@YAXXZ			; LoadCommsWindows
PUBLIC	?CommsSetup@@YAXXZ				; CommsSetup
PUBLIC	?RebuildGameTree@@YAXXZ				; RebuildGameTree
PUBLIC	?SetSingle_Comms_Ctrls@@YAXXZ			; SetSingle_Comms_Ctrls
PUBLIC	?MutePlayerCB@@YAXJFPAVC_Base@@@Z		; MutePlayerCB
PUBLIC	?IgnorePlayerCB@@YAXJFPAVC_Base@@@Z		; IgnorePlayerCB
PUBLIC	?UI_Refresh@@YAXXZ				; UI_Refresh
PUBLIC	?BlinkCommsButtonTimerCB@@YAXJFPAVC_Base@@@Z	; BlinkCommsButtonTimerCB
PUBLIC	?ViewRemoteLBCB@@YAXJFPAVC_Base@@@Z		; ViewRemoteLBCB
PUBLIC	?CommsErrorDialog@@YAXJJP6AXJFPAVC_Base@@@Z1@Z	; CommsErrorDialog
PUBLIC	?UI_CommsErrorMessage@@YAXG@Z			; UI_CommsErrorMessage
PUBLIC	?ServerChatCommand@@YAXPAD@Z			; ServerChatCommand
PUBLIC	?AddMessageToChatWindow@@YAXVVU_ID@@PAD@Z	; AddMessageToChatWindow
PUBLIC	?FilterIncommingMessage@@YAHPAVFalconSessionEntity@@@Z ; FilterIncommingMessage
PUBLIC	?ReceiveChatString@@YAXVVU_ID@@PAD@Z		; ReceiveChatString
PUBLIC	?ProcessChatStr@@YAXPAVCHATSTR@@@Z		; ProcessChatStr
PUBLIC	?SendChatStringCB@@YAXJFPAVC_Base@@@Z		; SendChatStringCB
PUBLIC	?TreeSearchCB@@YAHPAVTREELIST@@@Z		; TreeSearchCB
PUBLIC	?StartTreeSearch@@YAPAVTREELIST@@VVU_ID@@PAV1@PAVC_TreeList@@@Z ; StartTreeSearch
PUBLIC	?UpdateGameTreeBranch@@YAXJPAVVuGameEntity@@PAVC_TreeList@@PAVTREELIST@@H@Z ; UpdateGameTreeBranch
PUBLIC	?MakeLocalGameTree@@YAXPAVVuGameEntity@@@Z	; MakeLocalGameTree
PUBLIC	?CheckChatFilters@@YAXPAVFalconSessionEntity@@@Z ; CheckChatFilters
PUBLIC	?UpdateLocalGameTree@@YAXXZ			; UpdateLocalGameTree
PUBLIC	?RemoveFromTree@@YAXPAVC_TreeList@@VVU_ID@@@Z	; RemoveFromTree
PUBLIC	?UI_UpdateGameList@@YAXXZ			; UI_UpdateGameList
PUBLIC	?ViewRemoteLogbook@@YAXJ@Z			; ViewRemoteLogbook
PUBLIC	?SendTextToFlight@@YAXXZ			; SendTextToFlight
PUBLIC	?SendTextToPackage@@YAXXZ			; SendTextToPackage
PUBLIC	?SendTextToRange@@YAXXZ				; SendTextToRange
PUBLIC	?SendTextToTeam@@YAXXZ				; SendTextToTeam
PUBLIC	?SendTextToEveryOne@@YAXXZ			; SendTextToEveryOne
PUBLIC	?SendTextMessageToChannel@@YAXXZ		; SendTextMessageToChannel
PUBLIC	??$construct@PADAAPAD@?$_Wrap_alloc@V?$allocator@D@std@@@std@@QAEXPAPADAAPAD@Z ; std::_Wrap_alloc<std::allocator<char> >::construct<char *,char * &>
PUBLIC	??$destroy@PAD@?$_Wrap_alloc@V?$allocator@D@std@@@std@@QAEXPAPAD@Z ; std::_Wrap_alloc<std::allocator<char> >::destroy<char *>
PUBLIC	??$addressof@D@std@@YAPADAAD@Z			; std::addressof<char>
PUBLIC	??$_Allocate@D@std@@YAPADIPAD@Z			; std::_Allocate<char>
PUBLIC	??$forward@AAPAD@std@@YAAAPADAAPAD@Z		; std::forward<char * &>
PUBLIC	??$construct@PADAAPAD@?$allocator_traits@V?$allocator@D@std@@@std@@SAXAAV?$allocator@D@1@PAPADAAPAD@Z ; std::allocator_traits<std::allocator<char> >::construct<char *,char * &>
PUBLIC	??$destroy@PAD@?$allocator_traits@V?$allocator@D@std@@@std@@SAXAAV?$allocator@D@1@PAPAD@Z ; std::allocator_traits<std::allocator<char> >::destroy<char *>
PUBLIC	??$construct@PADAAPAD@?$allocator@D@std@@QAEXPAPADAAPAD@Z ; std::allocator<char>::construct<char *,char * &>
PUBLIC	??$destroy@PAD@?$allocator@D@std@@QAEXPAPAD@Z	; std::allocator<char>::destroy<char *>
PUBLIC	??_C@_00CNPNBAHC@?$AA@				; `string'
PUBLIC	??_7error_category@std@@6B@			; std::error_category::`vftable'
PUBLIC	??_7_Generic_error_category@std@@6B@		; std::_Generic_error_category::`vftable'
PUBLIC	??_C@_07DCLBNMLN@generic?$AA@			; `string'
PUBLIC	??_C@_0O@BFJCFAAK@unknown?5error?$AA@		; `string'
PUBLIC	??_7_Iostream_error_category@std@@6B@		; std::_Iostream_error_category::`vftable'
PUBLIC	??_C@_08LLGCOLLL@iostream?$AA@			; `string'
PUBLIC	??_C@_0BG@PADBLCHM@iostream?5stream?5error?$AA@	; `string'
PUBLIC	??_7_System_error_category@std@@6B@		; std::_System_error_category::`vftable'
PUBLIC	??_C@_06FHFOAHML@system?$AA@			; `string'
PUBLIC	?_Generic_object@?$_Error_objects@H@std@@2V_Generic_error_category@2@A ; std::_Error_objects<int>::_Generic_object
PUBLIC	?_Iostream_object@?$_Error_objects@H@std@@2V_Iostream_error_category@2@A ; std::_Error_objects<int>::_Iostream_object
PUBLIC	?_System_object@?$_Error_objects@H@std@@2V_System_error_category@2@A ; std::_Error_objects<int>::_System_object
PUBLIC	?id@?$num_put@DV?$back_insert_iterator@V?$basic_string@DU?$char_traits@D@std@@V?$allocator@D@2@@std@@@std@@@std@@2V0locale@2@A ; std::num_put<char,std::back_insert_iterator<std::basic_string<char,std::char_traits<char>,std::allocator<char> > > >::id
PUBLIC	?id@?$num_put@_WV?$back_insert_iterator@V?$basic_string@_WU?$char_traits@_W@std@@V?$allocator@_W@2@@std@@@std@@@std@@2V0locale@2@A ; std::num_put<wchar_t,std::back_insert_iterator<std::basic_string<wchar_t,std::char_traits<wchar_t>,std::allocator<wchar_t> > > >::id
PUBLIC	??_7_com_error@@6B@				; _com_error::`vftable'
PUBLIC	??_C@_0N@KDGOBPCJ@comm_res?4lst?$AA@		; `string'
PUBLIC	??_C@_0N@OOCGLLBJ@comm_art?4lst?$AA@		; `string'
PUBLIC	??_C@_0N@HDBAHJGO@comm_snd?4lst?$AA@		; `string'
PUBLIC	??_C@_0N@FPAPLJKF@comm_scf?4lst?$AA@		; `string'
PUBLIC	??_C@_01CLKCMJKC@?5?$AA@			; `string'
PUBLIC	??_C@_06ODGENKFK@?4trail?$AA@			; `string'
PUBLIC	??_C@_0N@CFHNGPIC@?4trailreload?$AA@		; `string'
PUBLIC	??_C@_09MLFANMAK@?4psreload?$AA@		; `string'
PUBLIC	??_C@_0L@MJCBANGI@?4sndreload?$AA@		; `string'
PUBLIC	??_C@_04HNHONOHM@?4snd?$AA@			; `string'
PUBLIC	??_C@_06KGPMMGBB@?4sndms?$AA@			; `string'
PUBLIC	??_C@_07CNBNLAFM@?4snddop?$AA@			; `string'
PUBLIC	??_C@_06FHPBHPAB@?4sndro?$AA@			; `string'
PUBLIC	??_C@_04JFBKNCJJ@?4sfx?$AA@			; `string'
PUBLIC	??_C@_01LFCBOECM@?4?$AA@			; `string'
PUBLIC	??_C@_06DAAOOBHE@?4label?$AA@			; `string'
PUBLIC	??_C@_05LOFMMFDJ@?4fuel?$AA@			; `string'
PUBLIC	??_C@_07JIPBKKCL@?4loadte?$AA@			; `string'
PUBLIC	??_C@_01KICIPPFI@?2?$AA@			; `string'
PUBLIC	??_C@_04KELEDHDP@?4tac?$AA@			; `string'
PUBLIC	??_C@_05KGKLEJH@?4acmi?$AA@			; `string'
PUBLIC	??_C@_02LIELOMNJ@on?$AA@			; `string'
PUBLIC	??_C@_03MCADLMAF@off?$AA@			; `string'
PUBLIC	??_C@_06ONNDGCDK@dofile?$AA@			; `string'
PUBLIC	??_C@_04PHPJHFJH@?4cam?$AA@			; `string'
PUBLIC	??_C@_05OHJNOPJG@?4quit?$AA@			; `string'
PUBLIC	??_C@_09OMJMALCF@?4mistrail?$AA@		; `string'
PUBLIC	??_C@_07GBHEDFOH@?4boundb?$AA@			; `string'
PUBLIC	??_C@_04JPIJFBJP@?4bgs?$AA@			; `string'
PUBLIC	??_C@_04PDOAGIJN@?4tgr?$AA@			; `string'
PUBLIC	??_C@_05EPBAHOHC@?4bgsp?$AA@			; `string'
PUBLIC	??_C@_05BCJAMAEA@?4sgsp?$AA@			; `string'
PUBLIC	??_C@_05KALABMFA@?4tgsp?$AA@			; `string'
PUBLIC	??_C@_04FCNDFPAB@?4bgl?$AA@			; `string'
PUBLIC	??_C@_04LKHGGPPL@?4sgl?$AA@			; `string'
PUBLIC	??_C@_04CHKBFHEC@?4tgl?$AA@			; `string'
PUBLIC	??_C@_05IAHOEKAB@?4bggn?$AA@			; `string'
PUBLIC	??_C@_05NNPOPEDD@?4sggn?$AA@			; `string'
PUBLIC	??_C@_05GPNOCICD@?4tggn?$AA@			; `string'
PUBLIC	??_C@_05BNLFCBPC@?4bgbw?$AA@			; `string'
PUBLIC	??_C@_05EADFJPMA@?4sgbw?$AA@			; `string'
PUBLIC	??_C@_05PCBFEDNA@?4tgbw?$AA@			; `string'
PUBLIC	??_C@_04EFJCDBBF@?4cbw?$AA@			; `string'
PUBLIC	??_C@_04JCJDLGBE@?4hbw?$AA@			; `string'
PUBLIC	??_C@_03POAJPEED@?4tf?$AA@			; `string'
PUBLIC	??_C@_04KFENEGCG@?4mbw?$AA@			; `string'
PUBLIC	??_C@_04GLIKJPDD@?4pos?$AA@			; `string'
PUBLIC	??_C@_02LMMGGCAJ@?3?5?$AA@			; `string'
PUBLIC	??_C@_07NBCGADJA@Unknown?$AA@			; `string'
PUBLIC	??_C@_05DNIIFBMG@?$CFs?5?$CFs?$AA@		; `string'
PUBLIC	??_R0?AV_com_error@@@8				; _com_error `RTTI Type Descriptor'
PUBLIC	??_C@_0DN@CJCLCKKH@StartCampaignGame?3?5Error?50x?$CFX?5oc@ ; `string'
PUBLIC	?id@?$numpunct@D@std@@2V0locale@2@A		; std::numpunct<char>::id
PUBLIC	?id@?$numpunct@_W@std@@2V0locale@2@A		; std::numpunct<wchar_t>::id
PUBLIC	??_C@_0BI@CFPLBAOH@invalid?5string?5position?$AA@ ; `string'
PUBLIC	??_C@_0BA@JFNIOLAK@string?5too?5long?$AA@	; `string'
PUBLIC	??_R4error_category@std@@6B@			; std::error_category::`RTTI Complete Object Locator'
PUBLIC	??_R0?AVerror_category@std@@@8			; std::error_category `RTTI Type Descriptor'
PUBLIC	??_R3error_category@std@@8			; std::error_category::`RTTI Class Hierarchy Descriptor'
PUBLIC	??_R2error_category@std@@8			; std::error_category::`RTTI Base Class Array'
PUBLIC	??_R1A@?0A@EA@error_category@std@@8		; std::error_category::`RTTI Base Class Descriptor at (0,-1,0,64)'
PUBLIC	??_R4_Generic_error_category@std@@6B@		; std::_Generic_error_category::`RTTI Complete Object Locator'
PUBLIC	??_R0?AV_Generic_error_category@std@@@8		; std::_Generic_error_category `RTTI Type Descriptor'
PUBLIC	??_R3_Generic_error_category@std@@8		; std::_Generic_error_category::`RTTI Class Hierarchy Descriptor'
PUBLIC	??_R2_Generic_error_category@std@@8		; std::_Generic_error_category::`RTTI Base Class Array'
PUBLIC	??_R1A@?0A@EA@_Generic_error_category@std@@8	; std::_Generic_error_category::`RTTI Base Class Descriptor at (0,-1,0,64)'
PUBLIC	??_R4_Iostream_error_category@std@@6B@		; std::_Iostream_error_category::`RTTI Complete Object Locator'
PUBLIC	??_R0?AV_Iostream_error_category@std@@@8	; std::_Iostream_error_category `RTTI Type Descriptor'
PUBLIC	??_R3_Iostream_error_category@std@@8		; std::_Iostream_error_category::`RTTI Class Hierarchy Descriptor'
PUBLIC	??_R2_Iostream_error_category@std@@8		; std::_Iostream_error_category::`RTTI Base Class Array'
PUBLIC	??_R1A@?0A@EA@_Iostream_error_category@std@@8	; std::_Iostream_error_category::`RTTI Base Class Descriptor at (0,-1,0,64)'
PUBLIC	??_R4_System_error_category@std@@6B@		; std::_System_error_category::`RTTI Complete Object Locator'
PUBLIC	??_R0?AV_System_error_category@std@@@8		; std::_System_error_category `RTTI Type Descriptor'
PUBLIC	??_R3_System_error_category@std@@8		; std::_System_error_category::`RTTI Class Hierarchy Descriptor'
PUBLIC	??_R2_System_error_category@std@@8		; std::_System_error_category::`RTTI Base Class Array'
PUBLIC	??_R1A@?0A@EA@_System_error_category@std@@8	; std::_System_error_category::`RTTI Base Class Descriptor at (0,-1,0,64)'
PUBLIC	??_R4_com_error@@6B@				; _com_error::`RTTI Complete Object Locator'
PUBLIC	??_R3_com_error@@8				; _com_error::`RTTI Class Hierarchy Descriptor'
PUBLIC	??_R2_com_error@@8				; _com_error::`RTTI Base Class Array'
PUBLIC	??_R1A@?0A@EA@_com_error@@8			; _com_error::`RTTI Base Class Descriptor at (0,-1,0,64)'
PUBLIC	__real@392c987a
PUBLIC	__real@3f800000
PUBLIC	__real@42200000
PUBLIC	__real@42700000
PUBLIC	__real@43960000
EXTRN	__purecall:PROC
EXTRN	??2@YAPAXI@Z:PROC				; operator new
EXTRN	??3@YAXPAX@Z:PROC				; operator delete
EXTRN	_atexit:PROC
EXTRN	___report_rangecheckfailure:PROC
EXTRN	_memcpy:PROC
EXTRN	_memset:PROC
EXTRN	_strcpy:PROC
EXTRN	_strcat:PROC
EXTRN	_strcmp:PROC
EXTRN	_strlen:PROC
EXTRN	_memmove:PROC
EXTRN	_strncpy:PROC
EXTRN	_strtok:PROC
EXTRN	_stricmp:PROC
EXTRN	__imp__InterlockedDecrement@4:PROC
EXTRN	__imp__GetTickCount@0:PROC
EXTRN	__imp__LocalFree@4:PROC
EXTRN	__imp__PostMessageA@16:PROC
EXTRN	_sprintf:PROC
EXTRN	_cos:PROC
EXTRN	_sin:PROC
EXTRN	_atof:PROC
EXTRN	_atoi:PROC
EXTRN	_atol:PROC
EXTRN	_strtol:PROC
EXTRN	_MonoPrint:PROC
EXTRN	?IsLocal@VuEntity@@QBEEXZ:PROC			; VuEntity::IsLocal
EXTRN	??_V@YAXPAX@Z:PROC				; operator delete[]
EXTRN	??_U@YAPAXI@Z:PROC				; operator new[]
EXTRN	?_Xbad_alloc@std@@YAXXZ:PROC			; std::_Xbad_alloc
EXTRN	?_Xlength_error@std@@YAXPBD@Z:PROC		; std::_Xlength_error
EXTRN	?_Xout_of_range@std@@YAXPBD@Z:PROC		; std::_Xout_of_range
EXTRN	?Find@VuDatabase@@QBEPAVVuEntity@@VVU_ID@@@Z:PROC ; VuDatabase::Find
EXTRN	?Game@VuSessionEntity@@QAEPAVVuGameEntity@@XZ:PROC ; VuSessionEntity::Game
EXTRN	??0VuTypeFilter@@QAE@G@Z:PROC			; VuTypeFilter::VuTypeFilter
EXTRN	??1VuTypeFilter@@UAE@XZ:PROC			; VuTypeFilter::~VuTypeFilter
EXTRN	?GetFirst@VuHashIterator@@QAEPAVVuEntity@@PAVVuFilter@@@Z:PROC ; VuHashIterator::GetFirst
EXTRN	?GetNext@VuHashIterator@@QAEPAVVuEntity@@PAVVuFilter@@@Z:PROC ; VuHashIterator::GetNext
EXTRN	??0VuDatabaseIterator@@QAE@XZ:PROC		; VuDatabaseIterator::VuDatabaseIterator
EXTRN	??1VuDatabaseIterator@@UAE@XZ:PROC		; VuDatabaseIterator::~VuDatabaseIterator
EXTRN	??0VuSessionsIterator@@QAE@PAVVuGroupEntity@@@Z:PROC ; VuSessionsIterator::VuSessionsIterator
EXTRN	??1VuSessionsIterator@@UAE@XZ:PROC		; VuSessionsIterator::~VuSessionsIterator
EXTRN	?GetFirst@VuSessionsIterator@@QAEPAVVuSessionEntity@@XZ:PROC ; VuSessionsIterator::GetFirst
EXTRN	?GetNext@VuSessionsIterator@@QAEPAVVuSessionEntity@@XZ:PROC ; VuSessionsIterator::GetNext
EXTRN	?FalconSendMessage@@YAXPAVVuMessage@@H@Z:PROC	; FalconSendMessage
EXTRN	??0UI_SendChatMessage@@QAE@VVU_ID@@PAVVuTargetEntity@@E@Z:PROC ; UI_SendChatMessage::UI_SendChatMessage
EXTRN	??0UI_RequestLogbook@@QAE@VVU_ID@@PAVVuTargetEntity@@E@Z:PROC ; UI_RequestLogbook::UI_RequestLogbook
EXTRN	??_Eerror_category@std@@UAEPAXI@Z:PROC		; std::error_category::`vector deleting destructor'
EXTRN	?_Syserror_map@std@@YAPBDH@Z:PROC		; std::_Syserror_map
EXTRN	?_Winerror_map@std@@YAPBDH@Z:PROC		; std::_Winerror_map
EXTRN	??_E_Generic_error_category@std@@UAEPAXI@Z:PROC	; std::_Generic_error_category::`vector deleting destructor'
EXTRN	??_E_Iostream_error_category@std@@UAEPAXI@Z:PROC ; std::_Iostream_error_category::`vector deleting destructor'
EXTRN	??_E_System_error_category@std@@UAEPAXI@Z:PROC	; std::_System_error_category::`vector deleting destructor'
EXTRN	__mbslen:PROC
EXTRN	_F4ReloadSFX:PROC
EXTRN	?AddSfxRequest@OTWDriverClass@@QAEXPAVSfxClass@@@Z:PROC ; OTWDriverClass::AddSfxRequest
EXTRN	?ShowMessage@OTWDriverClass@@QAEXPAD@Z:PROC	; OTWDriverClass::ShowMessage
EXTRN	?GetEyePosition@OTWDriverClass@@QAE?AUTpoint@@XZ:PROC ; OTWDriverClass::GetEyePosition
EXTRN	?GetImage@C_Image@@QAEPAVIMAGE_RSC@@J@Z:PROC	; C_Image::GetImage
EXTRN	?GetString@C_String@@QAEPADJ@Z:PROC		; C_String::GetString
EXTRN	?AddText@C_String@@QAEJPBD@Z:PROC		; C_String::AddText
EXTRN	?GetText@C_String@@QAEPADJ@Z:PROC		; C_String::GetText
EXTRN	?SetInfo@O_Output@@QAEXXZ:PROC			; O_Output::SetInfo
EXTRN	?SetText@O_Output@@QAEXPAD@Z:PROC		; O_Output::SetText
EXTRN	?SetImage@O_Output@@QAEXJ@Z:PROC		; O_Output::SetImage
EXTRN	?UI_Enter@@YAPAUF4CSECTIONHANDLE@@PAVC_Window@@@Z:PROC ; UI_Enter
EXTRN	?UI_Leave@@YAXPAUF4CSECTIONHANDLE@@@Z:PROC	; UI_Leave
EXTRN	?SetUserNumber@C_Base@@QAEXJJ@Z:PROC		; C_Base::SetUserNumber
EXTRN	?SetUserCleanupPtr@C_Base@@QAEXJPAX@Z:PROC	; C_Base::SetUserCleanupPtr
EXTRN	?GetUserPtr@C_Base@@QAEPAXJ@Z:PROC		; C_Base::GetUserPtr
EXTRN	??0C_Button@@QAE@XZ:PROC			; C_Button::C_Button
EXTRN	?Setup@C_Button@@QAEXJFJJ@Z:PROC		; C_Button::Setup
EXTRN	?SetAllLabel@C_Button@@QAEXJ@Z:PROC		; C_Button::SetAllLabel
EXTRN	?SetText@C_Button@@QAEXFPBD@Z:PROC		; C_Button::SetText
EXTRN	?GetText@C_Button@@QAEPADF@Z:PROC		; C_Button::GetText
EXTRN	?SetFgColor@C_Button@@QAEXFK@Z:PROC		; C_Button::SetFgColor
EXTRN	?FindItemWithCB@C_TreeList@@IAEPAVTREELIST@@PAV2@@Z:PROC ; C_TreeList::FindItemWithCB
EXTRN	?CreateItem@C_TreeList@@QAEPAVTREELIST@@JJPAVC_Base@@@Z:PROC ; C_TreeList::CreateItem
EXTRN	?AddItem@C_TreeList@@QAEHPAVTREELIST@@0@Z:PROC	; C_TreeList::AddItem
EXTRN	?AddChildItem@C_TreeList@@QAEHPAVTREELIST@@0@Z:PROC ; C_TreeList::AddChildItem
EXTRN	?DeleteItem@C_TreeList@@QAEXPAVTREELIST@@@Z:PROC ; C_TreeList::DeleteItem
EXTRN	?DeleteBranch@C_TreeList@@QAEXPAVTREELIST@@@Z:PROC ; C_TreeList::DeleteBranch
EXTRN	?RemoveOld@C_TreeList@@QAEXJJ@Z:PROC		; C_TreeList::RemoveOld
EXTRN	?Find@C_TreeList@@QAEPAVTREELIST@@J@Z:PROC	; C_TreeList::Find
EXTRN	?RecalcSize@C_TreeList@@QAEXXZ:PROC		; C_TreeList::RecalcSize
EXTRN	?SetCallback@C_PopupList@@QAEXJP6AXJFPAVC_Base@@@Z@Z:PROC ; C_PopupList::SetCallback
EXTRN	?SetText@C_EditBox@@QAEXJ@Z:PROC		; C_EditBox::SetText
EXTRN	?GetText@C_EditBox@@QAEPADXZ:PROC		; C_EditBox::GetText
EXTRN	??0C_Text@@QAE@XZ:PROC				; C_Text::C_Text
EXTRN	?SetFGColor@C_Text@@QAEXK@Z:PROC		; C_Text::SetFGColor
EXTRN	?SetFixedWidth@C_Text@@QAEXJ@Z:PROC		; C_Text::SetFixedWidth
EXTRN	??0C_TimerHook@@QAE@XZ:PROC			; C_TimerHook::C_TimerHook
EXTRN	?Setup@C_TimerHook@@QAEXJF@Z:PROC		; C_TimerHook::Setup
EXTRN	?GetMenu@C_PopupMgr@@QAEPAVC_PopupList@@J@Z:PROC ; C_PopupMgr::GetMenu
EXTRN	?CloseMenu@C_PopupMgr@@QAEXXZ:PROC		; C_PopupMgr::CloseMenu
EXTRN	?LoadWindowList@C_Parser@@QAEHPAD@Z:PROC	; C_Parser::LoadWindowList
EXTRN	?LoadSoundList@C_Parser@@QAEHPAD@Z:PROC		; C_Parser::LoadSoundList
EXTRN	?LoadImageList@C_Parser@@QAEHPAD@Z:PROC		; C_Parser::LoadImageList
EXTRN	?ScanClientArea@C_Window@@QAEXJ@Z:PROC		; C_Window::ScanClientArea
EXTRN	?AdjustScrollbar@C_Window@@QAEXJ@Z:PROC		; C_Window::AdjustScrollbar
EXTRN	?AddControl@C_Window@@QAEXPAVC_Base@@@Z:PROC	; C_Window::AddControl
EXTRN	?EnableCluster@C_Window@@QAEXJ@Z:PROC		; C_Window::EnableCluster
EXTRN	?DisableCluster@C_Window@@QAEXJ@Z:PROC		; C_Window::DisableCluster
EXTRN	?RefreshWindow@C_Window@@QAEXXZ:PROC		; C_Window::RefreshWindow
EXTRN	?RefreshClient@C_Window@@QAEXJ@Z:PROC		; C_Window::RefreshClient
EXTRN	?FindControl@C_Window@@QAEPAVC_Base@@J@Z:PROC	; C_Window::FindControl
EXTRN	?EnterCritical@C_Handler@@QAEXXZ:PROC		; C_Handler::EnterCritical
EXTRN	?LeaveCritical@C_Handler@@QAEXXZ:PROC		; C_Handler::LeaveCritical
EXTRN	?ShowWindow@C_Handler@@QAEHPAVC_Window@@@Z:PROC	; C_Handler::ShowWindow
EXTRN	?DisableSection@C_Handler@@QAEXJ@Z:PROC		; C_Handler::DisableSection
EXTRN	?EnableWindowGroup@C_Handler@@QAEXJ@Z:PROC	; C_Handler::EnableWindowGroup
EXTRN	?WindowToFront@C_Handler@@QAEXPAVC_Window@@@Z:PROC ; C_Handler::WindowToFront
EXTRN	?GetWindowFlags@C_Handler@@QAEJJ@Z:PROC		; C_Handler::GetWindowFlags
EXTRN	?FindWindowA@C_Handler@@QAEPAVC_Window@@J@Z:PROC ; C_Handler::FindWindowA
EXTRN	??0C_Player@@QAE@XZ:PROC			; C_Player::C_Player
EXTRN	?Setup@C_Player@@QAEXJF@Z:PROC			; C_Player::Setup
EXTRN	?InitEntity@C_Player@@QAEXXZ:PROC		; C_Player::InitEntity
EXTRN	?SetMute@C_Player@@QAEXF@Z:PROC			; C_Player::SetMute
EXTRN	?SetIgnore@C_Player@@QAEXF@Z:PROC		; C_Player::SetIgnore
EXTRN	?GetGameType@FalconGameEntity@@QAE?AW4FalconGameType@@XZ:PROC ; FalconGameEntity::GetGameType
EXTRN	?GetTeam@FalconSessionEntity@@QAEEXZ:PROC	; FalconSessionEntity::GetTeam
EXTRN	?SetCountry@FalconSessionEntity@@QAEXE@Z:PROC	; FalconSessionEntity::SetCountry
EXTRN	?SetCallback@UIComms@@QAEXHP6AXFVVU_ID@@0@Z@Z:PROC ; UIComms::SetCallback
EXTRN	?StopComms@UIComms@@QAEXXZ:PROC			; UIComms::StopComms
EXTRN	?LookAtGame@UIComms@@QAEHPAVVuGameEntity@@@Z:PROC ; UIComms::LookAtGame
EXTRN	?GetTargetGame@UIComms@@QAEPAVVuGameEntity@@XZ:PROC ; UIComms::GetTargetGame
EXTRN	?GetRemoteLB@UIComms@@QAEPAXJ@Z:PROC		; UIComms::GetRemoteLB
EXTRN	?EndCampaign@CampaignClass@@QAEXXZ:PROC		; CampaignClass::EndCampaign
EXTRN	?Remove@CommsQueue@@QAEPAUQStr@@XZ:PROC		; CommsQueue::Remove
EXTRN	?GetRadioFreq@VoiceManager@@QAEHH@Z:PROC	; VoiceManager::GetRadioFreq
EXTRN	??0tactical_mission@@QAE@PAD@Z:PROC		; tactical_mission::tactical_mission
EXTRN	?tactical_accept_mission@@YAXXZ:PROC		; tactical_accept_mission
EXTRN	?DeleteGroupList@@YAXJ@Z:PROC			; DeleteGroupList
EXTRN	?CloseWindowCB@@YAXJFPAVC_Base@@@Z:PROC		; CloseWindowCB
EXTRN	?SetTimeCompression@@YAXH@Z:PROC		; SetTimeCompression
EXTRN	?StartRecording@ACMIRecorder@@QAEXXZ:PROC	; ACMIRecorder::StartRecording
EXTRN	?StopRecording@ACMIRecorder@@QAEXXZ:PROC	; ACMIRecorder::StopRecording
EXTRN	__imp__SysFreeString@4:PROC
EXTRN	?_com_issue_error@@YGXJ@Z:PROC			; _com_issue_error
EXTRN	?ConvertStringToBSTR@_com_util@@YGPA_WPBD@Z:PROC ; _com_util::ConvertStringToBSTR
EXTRN	?_com_issue_errorex@@YGXJPAUIUnknown@@ABU_GUID@@@Z:PROC ; _com_issue_errorex
EXTRN	??_E_com_error@@UAEPAXI@Z:PROC			; _com_error::`vector deleting destructor'
EXTRN	?LoadParameters@DrawableParticleSys@@SA_NXZ:PROC ; DrawableParticleSys::LoadParameters
EXTRN	??0SfxClass@@QAE@HPAUTpoint@@MM@Z:PROC		; SfxClass::SfxClass
EXTRN	?GenericCloseWindowCB@@YAXJFPAVC_Base@@@Z:PROC	; GenericCloseWindowCB
EXTRN	?GenericTimerCB@@YAXJFPAVC_Base@@@Z:PROC	; GenericTimerCB
EXTRN	?AddressInputCB@@YAXJFPAVC_Base@@@Z:PROC	; AddressInputCB
EXTRN	?ClearDFTeamLists@@YAXXZ:PROC			; ClearDFTeamLists
EXTRN	?CopyPBToWindow@@YAXJJ@Z:PROC			; CopyPBToWindow
EXTRN	?GetPlayerInfo@@YAXVVU_ID@@@Z:PROC		; GetPlayerInfo
EXTRN	?TallyPlayerSquadrons@@YAXXZ:PROC		; TallyPlayerSquadrons
EXTRN	?UI_Help_Guide_CB@@YAXJFPAVC_Base@@@Z:PROC	; UI_Help_Guide_CB
EXTRN	?CheckFlyButton@@YAXXZ:PROC			; CheckFlyButton
EXTRN	?CheckPlayersFlight@@YAXPAVFalconSessionEntity@@@Z:PROC ; CheckPlayersFlight
EXTRN	?DisplayLogbook@@YAXPAUPilot@@PAVIMAGE_RSC@@1H@Z:PROC ; DisplayLogbook
EXTRN	?CheckForNewPlayer@@YAXPAVFalconSessionEntity@@@Z:PROC ; CheckForNewPlayer
EXTRN	?HookupServerBrowserControls@@YAXJ@Z:PROC	; HookupServerBrowserControls
EXTRN	?Phone_New_CB@@YAXJFPAVC_Base@@@Z:PROC		; Phone_New_CB
EXTRN	?Phone_Apply_CB@@YAXJFPAVC_Base@@@Z:PROC	; Phone_Apply_CB
EXTRN	?Phone_Remove_CB@@YAXJFPAVC_Base@@@Z:PROC	; Phone_Remove_CB
EXTRN	?Phone_Connect_CB@@YAXJFPAVC_Base@@@Z:PROC	; Phone_Connect_CB
EXTRN	?LoadTacticalWindows@@YAXXZ:PROC		; LoadTacticalWindows
EXTRN	?RemoveTacticalEdit@@YAXXZ:PROC			; RemoveTacticalEdit
EXTRN	?CleanupTacticalEngagementUI@@YAXXZ:PROC	; CleanupTacticalEngagementUI
EXTRN	?DisableScenarioInfo@@YAXXZ:PROC		; DisableScenarioInfo
EXTRN	?LeaveCurrentGame@@YAXXZ:PROC			; LeaveCurrentGame
EXTRN	?LoadTacEngSelectWindows@@YAXXZ:PROC		; LoadTacEngSelectWindows
EXTRN	?LoadCampaignSelectWindows@@YAXXZ:PROC		; LoadCampaignSelectWindows
EXTRN	?ACMI_ImportFile@@YAXXZ:PROC			; ACMI_ImportFile
EXTRN	?LoadTrails@@YAXXZ:PROC				; LoadTrails
EXTRN	@__security_check_cookie@4:PROC
EXTRN	__CxxThrowException@8:PROC
EXTRN	___CxxFrameHandler3:PROC
EXTRN	_memset:PROC
EXTRN	?vuDatabase@@3PAVVuDatabase@@A:DWORD		; vuDatabase
EXTRN	?vuLocalSessionEntity@@3V?$VuBin@VVuSessionEntity@@@@A:DWORD ; vuLocalSessionEntity
EXTRN	?vuPlayerPoolGroup@@3PAVVuGameEntity@@A:DWORD	; vuPlayerPoolGroup
EXTRN	?vuLocalSession@@3VVU_ID@@A:QWORD		; vuLocalSession
EXTRN	?FalconNullId@@3VVU_ID@@A:QWORD			; FalconNullId
EXTRN	??_7type_info@@6B@:QWORD			; type_info::`vftable'
EXTRN	?RuleMode@@3W4RulesModes@@A:DWORD		; RuleMode
EXTRN	?CommandsKeyCombo@@3HA:DWORD			; CommandsKeyCombo
EXTRN	?CommandsKeyComboMod@@3HA:DWORD			; CommandsKeyComboMod
EXTRN	?OTWDriver@@3VOTWDriverClass@@A:BYTE		; OTWDriver
EXTRN	?ObserverPosition@@3UTpoint@@A:BYTE		; ObserverPosition
EXTRN	?gImageMgr@@3PAVC_Image@@A:DWORD		; gImageMgr
EXTRN	?gStringMgr@@3PAVC_String@@A:DWORD		; gStringMgr
EXTRN	?gPopupMgr@@3PAVC_PopupMgr@@A:DWORD		; gPopupMgr
EXTRN	?_LOAD_ART_RESOURCES_@@3JA:DWORD		; _LOAD_ART_RESOURCES_
EXTRN	?gCommsMgr@@3PAVUIComms@@A:DWORD		; gCommsMgr
EXTRN	?TheCampaign@@3VCampaignClass@@A:BYTE		; TheCampaign
EXTRN	?gUICommsQ@@3PAVCommsQueue@@A:DWORD		; gUICommsQ
EXTRN	?FalconDisplay@@3VFalconDisplayConfiguration@@A:BYTE ; FalconDisplay
EXTRN	?VM@@3PAVVoiceManager@@A:DWORD			; VM
EXTRN	?FalconCampaignSaveDirectory@@3PADA:BYTE	; FalconCampaignSaveDirectory
EXTRN	?gMainHandler@@3PAVC_Handler@@A:DWORD		; gMainHandler
EXTRN	?gMainParser@@3PAVC_Parser@@A:DWORD		; gMainParser
EXTRN	?current_tactical_mission@@3PAVtactical_mission@@A:DWORD ; current_tactical_mission
EXTRN	?tactical_mission_loaded@@3HA:DWORD		; tactical_mission_loaded
EXTRN	?gACMIRec@@3VACMIRecorder@@A:BYTE		; gACMIRec
EXTRN	?m_pUplink@@3V?$_com_ptr_t@V?$_com_IIID@UIUplink@GNETCORELib@@$1?_GUID_5ff85b6b_de05_42b9_831f_dc6a4e30a513@@3U__s_GUID@@B@@@@A:DWORD ; m_pUplink
EXTRN	?COLoaded@@3HA:DWORD				; COLoaded
EXTRN	?F4GameType@@3HA:DWORD				; F4GameType
EXTRN	?chatterCount@@3IA:DWORD			; chatterCount
EXTRN	?chatterStr@@3PADA:BYTE				; chatterStr
EXTRN	?AsciiAllowed@@3FA:WORD				; AsciiAllowed
EXTRN	?MaxInputLength@@3IA:DWORD			; MaxInputLength
EXTRN	?UseInputFn@@3P6AXXZA:DWORD			; UseInputFn
EXTRN	?DiscardInputFn@@3P6AXXZA:DWORD			; DiscardInputFn
EXTRN	?ViewLogBook@@3FA:WORD				; ViewLogBook
EXTRN	?g_bServer@@3_NA:BYTE				; g_bServer
EXTRN	?MainLastGroup@@3HA:DWORD			; MainLastGroup
EXTRN	?TacLastGroup@@3HA:DWORD			; TacLastGroup
EXTRN	?TACSelLoaded@@3HA:DWORD			; TACSelLoaded
EXTRN	?CPSelectLoaded@@3HA:DWORD			; CPSelectLoaded
EXTRN	?g_fSoundDopplerFactor@@3MA:DWORD		; g_fSoundDopplerFactor
EXTRN	?g_fSoundRolloffFactor@@3MA:DWORD		; g_fSoundRolloffFactor
EXTRN	?g_nSoundUpdateMS@@3HA:DWORD			; g_nSoundUpdateMS
EXTRN	?g_nShowDebugLabels@@3HA:DWORD			; g_nShowDebugLabels
EXTRN	?gFuelState@@3KA:DWORD				; gFuelState
EXTRN	?g_bActivateDebugStuff@@3_NA:BYTE		; g_bActivateDebugStuff
EXTRN	?g_bNoSound@@3_NA:BYTE				; g_bNoSound
EXTRN	?g_bNoTrails@@3_NA:BYTE				; g_bNoTrails
EXTRN	___security_cookie:DWORD
EXTRN	__fltused:DWORD
_BSS	SEGMENT
_piecewise_construct DB 01H DUP (?)
	ALIGN	4

_allocator_arg DB 01H DUP (?)
_BSS	ENDS
;	COMDAT ?_Generic_object@?$_Error_objects@H@std@@2V_Generic_error_category@2@A
_BSS	SEGMENT
?_Generic_object@?$_Error_objects@H@std@@2V_Generic_error_category@2@A DD 01H DUP (?) ; std::_Error_objects<int>::_Generic_object
_BSS	ENDS
;	COMDAT ?_Iostream_object@?$_Error_objects@H@std@@2V_Iostream_error_category@2@A
_BSS	SEGMENT
?_Iostream_object@?$_Error_objects@H@std@@2V_Iostream_error_category@2@A DD 01H DUP (?) ; std::_Error_objects<int>::_Iostream_object
_BSS	ENDS
;	COMDAT ?_System_object@?$_Error_objects@H@std@@2V_System_error_category@2@A
_BSS	SEGMENT
?_System_object@?$_Error_objects@H@std@@2V_System_error_category@2@A DD 01H DUP (?) ; std::_Error_objects<int>::_System_object
_BSS	ENDS
;	COMDAT ?id@?$num_put@DV?$back_insert_iterator@V?$basic_string@DU?$char_traits@D@std@@V?$allocator@D@2@@std@@@std@@@std@@2V0locale@2@A
_BSS	SEGMENT
?id@?$num_put@DV?$back_insert_iterator@V?$basic_string@DU?$char_traits@D@std@@V?$allocator@D@2@@std@@@std@@@std@@2V0locale@2@A DD 01H DUP (?) ; std::num_put<char,std::back_insert_iterator<std::basic_string<char,std::char_traits<char>,std::allocator<char> > > >::id
_BSS	ENDS
;	COMDAT ?id@?$num_put@_WV?$back_insert_iterator@V?$basic_string@_WU?$char_traits@_W@std@@V?$allocator@_W@2@@std@@@std@@@std@@2V0locale@2@A
_BSS	SEGMENT
?id@?$num_put@_WV?$back_insert_iterator@V?$basic_string@_WU?$char_traits@_W@std@@V?$allocator@_W@2@@std@@@std@@@std@@2V0locale@2@A DD 01H DUP (?) ; std::num_put<wchar_t,std::back_insert_iterator<std::basic_string<wchar_t,std::char_traits<wchar_t>,std::allocator<wchar_t> > > >::id
_BSS	ENDS
;	COMDAT ?sfx@?CK@??ServerChatCommand@@YAXPAD@Z@4HA
_BSS	SEGMENT
?sfx@?CK@??ServerChatCommand@@YAXPAD@Z@4HA DD 01H DUP (?) ; `ServerChatCommand'::`42'::sfx
_BSS	ENDS
;	COMDAT ?vc@?CK@??ServerChatCommand@@YAXPAD@Z@4UTpoint@@A
_BSS	SEGMENT
?vc@?CK@??ServerChatCommand@@YAXPAD@Z@4UTpoint@@A DB 0cH DUP (?) ; `ServerChatCommand'::`42'::vc
_BSS	ENDS
;	COMDAT ?$S1@?CK@??ServerChatCommand@@YAXPAD@Z@4IA
_BSS	SEGMENT
?$S1@?CK@??ServerChatCommand@@YAXPAD@Z@4IA DD 01H DUP (?) ; `ServerChatCommand'::`42'::$S1
_BSS	ENDS
_BSS	SEGMENT
	ALIGN	4

_chatbuf DB	0200H DUP (?)
	ALIGN	8

_SearchID DQ	01H DUP (?)
_tmpID	DD	01H DUP (?)
_BSS	ENDS
;	COMDAT ?id@?$numpunct@D@std@@2V0locale@2@A
_BSS	SEGMENT
?id@?$numpunct@D@std@@2V0locale@2@A DD 01H DUP (?)	; std::numpunct<char>::id
_BSS	ENDS
;	COMDAT ?id@?$numpunct@_W@std@@2V0locale@2@A
_BSS	SEGMENT
?id@?$numpunct@_W@std@@2V0locale@2@A DD 01H DUP (?)	; std::numpunct<wchar_t>::id
_BSS	ENDS
CRT$XCU	SEGMENT
_piecewise_construct$initializer$ DD FLAT:??__Epiecewise_construct@std@@YAXXZ
CRT$XCU	ENDS
;	COMDAT __real@43960000
CONST	SEGMENT
__real@43960000 DD 043960000r			; 300
CONST	ENDS
;	COMDAT __real@42700000
CONST	SEGMENT
__real@42700000 DD 042700000r			; 60
CONST	ENDS
;	COMDAT __real@42200000
CONST	SEGMENT
__real@42200000 DD 042200000r			; 40
CONST	ENDS
;	COMDAT __real@3f800000
CONST	SEGMENT
__real@3f800000 DD 03f800000r			; 1
CONST	ENDS
;	COMDAT __real@392c987a
CONST	SEGMENT
__real@392c987a DD 0392c987ar			; 0.0001646
CONST	ENDS
;	COMDAT ??_R1A@?0A@EA@_com_error@@8
rdata$r	SEGMENT
??_R1A@?0A@EA@_com_error@@8 DD FLAT:??_R0?AV_com_error@@@8 ; _com_error::`RTTI Base Class Descriptor at (0,-1,0,64)'
	DD	00H
	DD	00H
	DD	0ffffffffH
	DD	00H
	DD	040H
	DD	FLAT:??_R3_com_error@@8
rdata$r	ENDS
;	COMDAT ??_R2_com_error@@8
rdata$r	SEGMENT
??_R2_com_error@@8 DD FLAT:??_R1A@?0A@EA@_com_error@@8	; _com_error::`RTTI Base Class Array'
rdata$r	ENDS
;	COMDAT ??_R3_com_error@@8
rdata$r	SEGMENT
??_R3_com_error@@8 DD 00H				; _com_error::`RTTI Class Hierarchy Descriptor'
	DD	00H
	DD	01H
	DD	FLAT:??_R2_com_error@@8
rdata$r	ENDS
;	COMDAT ??_R4_com_error@@6B@
rdata$r	SEGMENT
??_R4_com_error@@6B@ DD 00H				; _com_error::`RTTI Complete Object Locator'
	DD	00H
	DD	00H
	DD	FLAT:??_R0?AV_com_error@@@8
	DD	FLAT:??_R3_com_error@@8
rdata$r	ENDS
;	COMDAT ??_R1A@?0A@EA@_System_error_category@std@@8
rdata$r	SEGMENT
??_R1A@?0A@EA@_System_error_category@std@@8 DD FLAT:??_R0?AV_System_error_category@std@@@8 ; std::_System_error_category::`RTTI Base Class Descriptor at (0,-1,0,64)'
	DD	02H
	DD	00H
	DD	0ffffffffH
	DD	00H
	DD	040H
	DD	FLAT:??_R3_System_error_category@std@@8
rdata$r	ENDS
;	COMDAT ??_R2_System_error_category@std@@8
rdata$r	SEGMENT
??_R2_System_error_category@std@@8 DD FLAT:??_R1A@?0A@EA@_System_error_category@std@@8 ; std::_System_error_category::`RTTI Base Class Array'
	DD	FLAT:??_R1A@?0A@EA@_Generic_error_category@std@@8
	DD	FLAT:??_R1A@?0A@EA@error_category@std@@8
rdata$r	ENDS
;	COMDAT ??_R3_System_error_category@std@@8
rdata$r	SEGMENT
??_R3_System_error_category@std@@8 DD 00H		; std::_System_error_category::`RTTI Class Hierarchy Descriptor'
	DD	00H
	DD	03H
	DD	FLAT:??_R2_System_error_category@std@@8
rdata$r	ENDS
;	COMDAT ??_R0?AV_System_error_category@std@@@8
_DATA	SEGMENT
??_R0?AV_System_error_category@std@@@8 DD FLAT:??_7type_info@@6B@ ; std::_System_error_category `RTTI Type Descriptor'
	DD	00H
	DB	'.?AV_System_error_category@std@@', 00H
_DATA	ENDS
;	COMDAT ??_R4_System_error_category@std@@6B@
rdata$r	SEGMENT
??_R4_System_error_category@std@@6B@ DD 00H		; std::_System_error_category::`RTTI Complete Object Locator'
	DD	00H
	DD	00H
	DD	FLAT:??_R0?AV_System_error_category@std@@@8
	DD	FLAT:??_R3_System_error_category@std@@8
rdata$r	ENDS
;	COMDAT ??_R1A@?0A@EA@_Iostream_error_category@std@@8
rdata$r	SEGMENT
??_R1A@?0A@EA@_Iostream_error_category@std@@8 DD FLAT:??_R0?AV_Iostream_error_category@std@@@8 ; std::_Iostream_error_category::`RTTI Base Class Descriptor at (0,-1,0,64)'
	DD	02H
	DD	00H
	DD	0ffffffffH
	DD	00H
	DD	040H
	DD	FLAT:??_R3_Iostream_error_category@std@@8
rdata$r	ENDS
;	COMDAT ??_R2_Iostream_error_category@std@@8
rdata$r	SEGMENT
??_R2_Iostream_error_category@std@@8 DD FLAT:??_R1A@?0A@EA@_Iostream_error_category@std@@8 ; std::_Iostream_error_category::`RTTI Base Class Array'
	DD	FLAT:??_R1A@?0A@EA@_Generic_error_category@std@@8
	DD	FLAT:??_R1A@?0A@EA@error_category@std@@8
rdata$r	ENDS
;	COMDAT ??_R3_Iostream_error_category@std@@8
rdata$r	SEGMENT
??_R3_Iostream_error_category@std@@8 DD 00H		; std::_Iostream_error_category::`RTTI Class Hierarchy Descriptor'
	DD	00H
	DD	03H
	DD	FLAT:??_R2_Iostream_error_category@std@@8
rdata$r	ENDS
;	COMDAT ??_R0?AV_Iostream_error_category@std@@@8
_DATA	SEGMENT
??_R0?AV_Iostream_error_category@std@@@8 DD FLAT:??_7type_info@@6B@ ; std::_Iostream_error_category `RTTI Type Descriptor'
	DD	00H
	DB	'.?AV_Iostream_error_category@std@@', 00H
_DATA	ENDS
;	COMDAT ??_R4_Iostream_error_category@std@@6B@
rdata$r	SEGMENT
??_R4_Iostream_error_category@std@@6B@ DD 00H		; std::_Iostream_error_category::`RTTI Complete Object Locator'
	DD	00H
	DD	00H
	DD	FLAT:??_R0?AV_Iostream_error_category@std@@@8
	DD	FLAT:??_R3_Iostream_error_category@std@@8
rdata$r	ENDS
;	COMDAT ??_R1A@?0A@EA@_Generic_error_category@std@@8
rdata$r	SEGMENT
??_R1A@?0A@EA@_Generic_error_category@std@@8 DD FLAT:??_R0?AV_Generic_error_category@std@@@8 ; std::_Generic_error_category::`RTTI Base Class Descriptor at (0,-1,0,64)'
	DD	01H
	DD	00H
	DD	0ffffffffH
	DD	00H
	DD	040H
	DD	FLAT:??_R3_Generic_error_category@std@@8
rdata$r	ENDS
;	COMDAT ??_R2_Generic_error_category@std@@8
rdata$r	SEGMENT
??_R2_Generic_error_category@std@@8 DD FLAT:??_R1A@?0A@EA@_Generic_error_category@std@@8 ; std::_Generic_error_category::`RTTI Base Class Array'
	DD	FLAT:??_R1A@?0A@EA@error_category@std@@8
rdata$r	ENDS
;	COMDAT ??_R3_Generic_error_category@std@@8
rdata$r	SEGMENT
??_R3_Generic_error_category@std@@8 DD 00H		; std::_Generic_error_category::`RTTI Class Hierarchy Descriptor'
	DD	00H
	DD	02H
	DD	FLAT:??_R2_Generic_error_category@std@@8
rdata$r	ENDS
;	COMDAT ??_R0?AV_Generic_error_category@std@@@8
_DATA	SEGMENT
??_R0?AV_Generic_error_category@std@@@8 DD FLAT:??_7type_info@@6B@ ; std::_Generic_error_category `RTTI Type Descriptor'
	DD	00H
	DB	'.?AV_Generic_error_category@std@@', 00H
_DATA	ENDS
;	COMDAT ??_R4_Generic_error_category@std@@6B@
rdata$r	SEGMENT
??_R4_Generic_error_category@std@@6B@ DD 00H		; std::_Generic_error_category::`RTTI Complete Object Locator'
	DD	00H
	DD	00H
	DD	FLAT:??_R0?AV_Generic_error_category@std@@@8
	DD	FLAT:??_R3_Generic_error_category@std@@8
rdata$r	ENDS
;	COMDAT ??_R1A@?0A@EA@error_category@std@@8
rdata$r	SEGMENT
??_R1A@?0A@EA@error_category@std@@8 DD FLAT:??_R0?AVerror_category@std@@@8 ; std::error_category::`RTTI Base Class Descriptor at (0,-1,0,64)'
	DD	00H
	DD	00H
	DD	0ffffffffH
	DD	00H
	DD	040H
	DD	FLAT:??_R3error_category@std@@8
rdata$r	ENDS
;	COMDAT ??_R2error_category@std@@8
rdata$r	SEGMENT
??_R2error_category@std@@8 DD FLAT:??_R1A@?0A@EA@error_category@std@@8 ; std::error_category::`RTTI Base Class Array'
rdata$r	ENDS
;	COMDAT ??_R3error_category@std@@8
rdata$r	SEGMENT
??_R3error_category@std@@8 DD 00H			; std::error_category::`RTTI Class Hierarchy Descriptor'
	DD	00H
	DD	01H
	DD	FLAT:??_R2error_category@std@@8
rdata$r	ENDS
;	COMDAT ??_R0?AVerror_category@std@@@8
_DATA	SEGMENT
??_R0?AVerror_category@std@@@8 DD FLAT:??_7type_info@@6B@ ; std::error_category `RTTI Type Descriptor'
	DD	00H
	DB	'.?AVerror_category@std@@', 00H
_DATA	ENDS
;	COMDAT ??_R4error_category@std@@6B@
rdata$r	SEGMENT
??_R4error_category@std@@6B@ DD 00H			; std::error_category::`RTTI Complete Object Locator'
	DD	00H
	DD	00H
	DD	FLAT:??_R0?AVerror_category@std@@@8
	DD	FLAT:??_R3error_category@std@@8
rdata$r	ENDS
;	COMDAT ??_C@_0BA@JFNIOLAK@string?5too?5long?$AA@
CONST	SEGMENT
??_C@_0BA@JFNIOLAK@string?5too?5long?$AA@ DB 'string too long', 00H ; `string'
CONST	ENDS
;	COMDAT ??_C@_0BI@CFPLBAOH@invalid?5string?5position?$AA@
CONST	SEGMENT
??_C@_0BI@CFPLBAOH@invalid?5string?5position?$AA@ DB 'invalid string posi'
	DB	'tion', 00H					; `string'
CONST	ENDS
;	COMDAT ??_C@_0DN@CJCLCKKH@StartCampaignGame?3?5Error?50x?$CFX?5oc@
CONST	SEGMENT
??_C@_0DN@CJCLCKKH@StartCampaignGame?3?5Error?50x?$CFX?5oc@ DB 'StartCamp'
	DB	'aignGame: Error 0x%X occured during UpLink startup!', 00H ; `string'
CONST	ENDS
;	COMDAT ??_R0?AV_com_error@@@8
_DATA	SEGMENT
??_R0?AV_com_error@@@8 DD FLAT:??_7type_info@@6B@	; _com_error `RTTI Type Descriptor'
	DD	00H
	DB	'.?AV_com_error@@', 00H
_DATA	ENDS
;	COMDAT ??_C@_05DNIIFBMG@?$CFs?5?$CFs?$AA@
CONST	SEGMENT
??_C@_05DNIIFBMG@?$CFs?5?$CFs?$AA@ DB '%s %s', 00H	; `string'
CONST	ENDS
;	COMDAT ??_C@_07NBCGADJA@Unknown?$AA@
CONST	SEGMENT
??_C@_07NBCGADJA@Unknown?$AA@ DB 'Unknown', 00H		; `string'
CONST	ENDS
;	COMDAT ??_C@_02LMMGGCAJ@?3?5?$AA@
CONST	SEGMENT
??_C@_02LMMGGCAJ@?3?5?$AA@ DB ': ', 00H			; `string'
CONST	ENDS
;	COMDAT ??_C@_04GLIKJPDD@?4pos?$AA@
CONST	SEGMENT
??_C@_04GLIKJPDD@?4pos?$AA@ DB '.pos', 00H		; `string'
CONST	ENDS
;	COMDAT ??_C@_04KFENEGCG@?4mbw?$AA@
CONST	SEGMENT
??_C@_04KFENEGCG@?4mbw?$AA@ DB '.mbw', 00H		; `string'
CONST	ENDS
;	COMDAT ??_C@_03POAJPEED@?4tf?$AA@
CONST	SEGMENT
??_C@_03POAJPEED@?4tf?$AA@ DB '.tf', 00H		; `string'
CONST	ENDS
;	COMDAT ??_C@_04JCJDLGBE@?4hbw?$AA@
CONST	SEGMENT
??_C@_04JCJDLGBE@?4hbw?$AA@ DB '.hbw', 00H		; `string'
CONST	ENDS
;	COMDAT ??_C@_04EFJCDBBF@?4cbw?$AA@
CONST	SEGMENT
??_C@_04EFJCDBBF@?4cbw?$AA@ DB '.cbw', 00H		; `string'
CONST	ENDS
;	COMDAT ??_C@_05PCBFEDNA@?4tgbw?$AA@
CONST	SEGMENT
??_C@_05PCBFEDNA@?4tgbw?$AA@ DB '.tgbw', 00H		; `string'
CONST	ENDS
;	COMDAT ??_C@_05EADFJPMA@?4sgbw?$AA@
CONST	SEGMENT
??_C@_05EADFJPMA@?4sgbw?$AA@ DB '.sgbw', 00H		; `string'
CONST	ENDS
;	COMDAT ??_C@_05BNLFCBPC@?4bgbw?$AA@
CONST	SEGMENT
??_C@_05BNLFCBPC@?4bgbw?$AA@ DB '.bgbw', 00H		; `string'
CONST	ENDS
;	COMDAT ??_C@_05GPNOCICD@?4tggn?$AA@
CONST	SEGMENT
??_C@_05GPNOCICD@?4tggn?$AA@ DB '.tggn', 00H		; `string'
CONST	ENDS
;	COMDAT ??_C@_05NNPOPEDD@?4sggn?$AA@
CONST	SEGMENT
??_C@_05NNPOPEDD@?4sggn?$AA@ DB '.sggn', 00H		; `string'
CONST	ENDS
;	COMDAT ??_C@_05IAHOEKAB@?4bggn?$AA@
CONST	SEGMENT
??_C@_05IAHOEKAB@?4bggn?$AA@ DB '.bggn', 00H		; `string'
CONST	ENDS
;	COMDAT ??_C@_04CHKBFHEC@?4tgl?$AA@
CONST	SEGMENT
??_C@_04CHKBFHEC@?4tgl?$AA@ DB '.tgl', 00H		; `string'
CONST	ENDS
;	COMDAT ??_C@_04LKHGGPPL@?4sgl?$AA@
CONST	SEGMENT
??_C@_04LKHGGPPL@?4sgl?$AA@ DB '.sgl', 00H		; `string'
CONST	ENDS
;	COMDAT ??_C@_04FCNDFPAB@?4bgl?$AA@
CONST	SEGMENT
??_C@_04FCNDFPAB@?4bgl?$AA@ DB '.bgl', 00H		; `string'
CONST	ENDS
;	COMDAT ??_C@_05KALABMFA@?4tgsp?$AA@
CONST	SEGMENT
??_C@_05KALABMFA@?4tgsp?$AA@ DB '.tgsp', 00H		; `string'
CONST	ENDS
;	COMDAT ??_C@_05BCJAMAEA@?4sgsp?$AA@
CONST	SEGMENT
??_C@_05BCJAMAEA@?4sgsp?$AA@ DB '.sgsp', 00H		; `string'
CONST	ENDS
;	COMDAT ??_C@_05EPBAHOHC@?4bgsp?$AA@
CONST	SEGMENT
??_C@_05EPBAHOHC@?4bgsp?$AA@ DB '.bgsp', 00H		; `string'
CONST	ENDS
;	COMDAT ??_C@_04PDOAGIJN@?4tgr?$AA@
CONST	SEGMENT
??_C@_04PDOAGIJN@?4tgr?$AA@ DB '.tgr', 00H		; `string'
CONST	ENDS
;	COMDAT ??_C@_04JPIJFBJP@?4bgs?$AA@
CONST	SEGMENT
??_C@_04JPIJFBJP@?4bgs?$AA@ DB '.bgs', 00H		; `string'
CONST	ENDS
;	COMDAT ??_C@_07GBHEDFOH@?4boundb?$AA@
CONST	SEGMENT
??_C@_07GBHEDFOH@?4boundb?$AA@ DB '.boundb', 00H	; `string'
CONST	ENDS
;	COMDAT ??_C@_09OMJMALCF@?4mistrail?$AA@
CONST	SEGMENT
??_C@_09OMJMALCF@?4mistrail?$AA@ DB '.mistrail', 00H	; `string'
CONST	ENDS
;	COMDAT ??_C@_05OHJNOPJG@?4quit?$AA@
CONST	SEGMENT
??_C@_05OHJNOPJG@?4quit?$AA@ DB '.quit', 00H		; `string'
CONST	ENDS
;	COMDAT ??_C@_04PHPJHFJH@?4cam?$AA@
CONST	SEGMENT
??_C@_04PHPJHFJH@?4cam?$AA@ DB '.cam', 00H		; `string'
CONST	ENDS
;	COMDAT ??_C@_06ONNDGCDK@dofile?$AA@
CONST	SEGMENT
??_C@_06ONNDGCDK@dofile?$AA@ DB 'dofile', 00H		; `string'
CONST	ENDS
;	COMDAT ??_C@_03MCADLMAF@off?$AA@
CONST	SEGMENT
??_C@_03MCADLMAF@off?$AA@ DB 'off', 00H			; `string'
CONST	ENDS
;	COMDAT ??_C@_02LIELOMNJ@on?$AA@
CONST	SEGMENT
??_C@_02LIELOMNJ@on?$AA@ DB 'on', 00H			; `string'
CONST	ENDS
;	COMDAT ??_C@_05KGKLEJH@?4acmi?$AA@
CONST	SEGMENT
??_C@_05KGKLEJH@?4acmi?$AA@ DB '.acmi', 00H		; `string'
CONST	ENDS
;	COMDAT ??_C@_04KELEDHDP@?4tac?$AA@
CONST	SEGMENT
??_C@_04KELEDHDP@?4tac?$AA@ DB '.tac', 00H		; `string'
CONST	ENDS
;	COMDAT ??_C@_01KICIPPFI@?2?$AA@
CONST	SEGMENT
??_C@_01KICIPPFI@?2?$AA@ DB '\', 00H			; `string'
CONST	ENDS
;	COMDAT ??_C@_07JIPBKKCL@?4loadte?$AA@
CONST	SEGMENT
??_C@_07JIPBKKCL@?4loadte?$AA@ DB '.loadte', 00H	; `string'
CONST	ENDS
;	COMDAT ??_C@_05LOFMMFDJ@?4fuel?$AA@
CONST	SEGMENT
??_C@_05LOFMMFDJ@?4fuel?$AA@ DB '.fuel', 00H		; `string'
CONST	ENDS
;	COMDAT ??_C@_06DAAOOBHE@?4label?$AA@
CONST	SEGMENT
??_C@_06DAAOOBHE@?4label?$AA@ DB '.label', 00H		; `string'
CONST	ENDS
;	COMDAT ?Dist@?CK@??ServerChatCommand@@YAXPAD@Z@4MA
_DATA	SEGMENT
?Dist@?CK@??ServerChatCommand@@YAXPAD@Z@4MA DD 043960000r ; 300 ; `ServerChatCommand'::`42'::Dist
_DATA	ENDS
;	COMDAT ??_C@_01LFCBOECM@?4?$AA@
CONST	SEGMENT
??_C@_01LFCBOECM@?4?$AA@ DB '.', 00H			; `string'
CONST	ENDS
;	COMDAT ??_C@_04JFBKNCJJ@?4sfx?$AA@
CONST	SEGMENT
??_C@_04JFBKNCJJ@?4sfx?$AA@ DB '.sfx', 00H		; `string'
CONST	ENDS
;	COMDAT ??_C@_06FHPBHPAB@?4sndro?$AA@
CONST	SEGMENT
??_C@_06FHPBHPAB@?4sndro?$AA@ DB '.sndro', 00H		; `string'
CONST	ENDS
;	COMDAT ??_C@_07CNBNLAFM@?4snddop?$AA@
CONST	SEGMENT
??_C@_07CNBNLAFM@?4snddop?$AA@ DB '.snddop', 00H	; `string'
CONST	ENDS
;	COMDAT ??_C@_06KGPMMGBB@?4sndms?$AA@
CONST	SEGMENT
??_C@_06KGPMMGBB@?4sndms?$AA@ DB '.sndms', 00H		; `string'
CONST	ENDS
;	COMDAT ??_C@_04HNHONOHM@?4snd?$AA@
CONST	SEGMENT
??_C@_04HNHONOHM@?4snd?$AA@ DB '.snd', 00H		; `string'
CONST	ENDS
;	COMDAT ??_C@_0L@MJCBANGI@?4sndreload?$AA@
CONST	SEGMENT
??_C@_0L@MJCBANGI@?4sndreload?$AA@ DB '.sndreload', 00H	; `string'
CONST	ENDS
;	COMDAT ??_C@_09MLFANMAK@?4psreload?$AA@
CONST	SEGMENT
??_C@_09MLFANMAK@?4psreload?$AA@ DB '.psreload', 00H	; `string'
CONST	ENDS
;	COMDAT ??_C@_0N@CFHNGPIC@?4trailreload?$AA@
CONST	SEGMENT
??_C@_0N@CFHNGPIC@?4trailreload?$AA@ DB '.trailreload', 00H ; `string'
CONST	ENDS
;	COMDAT ??_C@_06ODGENKFK@?4trail?$AA@
CONST	SEGMENT
??_C@_06ODGENKFK@?4trail?$AA@ DB '.trail', 00H		; `string'
CONST	ENDS
;	COMDAT ??_C@_01CLKCMJKC@?5?$AA@
CONST	SEGMENT
??_C@_01CLKCMJKC@?5?$AA@ DB ' ', 00H			; `string'
CONST	ENDS
;	COMDAT ??_C@_0N@FPAPLJKF@comm_scf?4lst?$AA@
CONST	SEGMENT
??_C@_0N@FPAPLJKF@comm_scf?4lst?$AA@ DB 'comm_scf.lst', 00H ; `string'
CONST	ENDS
;	COMDAT ??_C@_0N@HDBAHJGO@comm_snd?4lst?$AA@
CONST	SEGMENT
??_C@_0N@HDBAHJGO@comm_snd?4lst?$AA@ DB 'comm_snd.lst', 00H ; `string'
CONST	ENDS
;	COMDAT ??_C@_0N@OOCGLLBJ@comm_art?4lst?$AA@
CONST	SEGMENT
??_C@_0N@OOCGLLBJ@comm_art?4lst?$AA@ DB 'comm_art.lst', 00H ; `string'
CONST	ENDS
;	COMDAT ??_C@_0N@KDGOBPCJ@comm_res?4lst?$AA@
CONST	SEGMENT
??_C@_0N@KDGOBPCJ@comm_res?4lst?$AA@ DB 'comm_res.lst', 00H ; `string'
CONST	ENDS
;	COMDAT ??_7_com_error@@6B@
CONST	SEGMENT
??_7_com_error@@6B@ DD FLAT:??_R4_com_error@@6B@	; _com_error::`vftable'
	DD	FLAT:??_E_com_error@@UAEPAXI@Z
CONST	ENDS
;	COMDAT ??_C@_06FHFOAHML@system?$AA@
CONST	SEGMENT
??_C@_06FHFOAHML@system?$AA@ DB 'system', 00H		; `string'
CONST	ENDS
;	COMDAT ??_7_System_error_category@std@@6B@
CONST	SEGMENT
??_7_System_error_category@std@@6B@ DD FLAT:??_R4_System_error_category@std@@6B@ ; std::_System_error_category::`vftable'
	DD	FLAT:??_E_System_error_category@std@@UAEPAXI@Z
	DD	FLAT:?name@_System_error_category@std@@UBEPBDXZ
	DD	FLAT:?message@_System_error_category@std@@UBE?AV?$basic_string@DU?$char_traits@D@std@@V?$allocator@D@2@@2@H@Z
	DD	FLAT:?default_error_condition@_System_error_category@std@@UBE?AVerror_condition@2@H@Z
	DD	FLAT:?equivalent@error_category@std@@UBE_NABVerror_code@2@H@Z
	DD	FLAT:?equivalent@error_category@std@@UBE_NHABVerror_condition@2@@Z
CONST	ENDS
;	COMDAT ??_C@_0BG@PADBLCHM@iostream?5stream?5error?$AA@
CONST	SEGMENT
??_C@_0BG@PADBLCHM@iostream?5stream?5error?$AA@ DB 'iostream stream error'
	DB	00H						; `string'
CONST	ENDS
;	COMDAT ??_C@_08LLGCOLLL@iostream?$AA@
CONST	SEGMENT
??_C@_08LLGCOLLL@iostream?$AA@ DB 'iostream', 00H	; `string'
CONST	ENDS
;	COMDAT ??_7_Iostream_error_category@std@@6B@
CONST	SEGMENT
??_7_Iostream_error_category@std@@6B@ DD FLAT:??_R4_Iostream_error_category@std@@6B@ ; std::_Iostream_error_category::`vftable'
	DD	FLAT:??_E_Iostream_error_category@std@@UAEPAXI@Z
	DD	FLAT:?name@_Iostream_error_category@std@@UBEPBDXZ
	DD	FLAT:?message@_Iostream_error_category@std@@UBE?AV?$basic_string@DU?$char_traits@D@std@@V?$allocator@D@2@@2@H@Z
	DD	FLAT:?default_error_condition@error_category@std@@UBE?AVerror_condition@2@H@Z
	DD	FLAT:?equivalent@error_category@std@@UBE_NABVerror_code@2@H@Z
	DD	FLAT:?equivalent@error_category@std@@UBE_NHABVerror_condition@2@@Z
CONST	ENDS
;	COMDAT ??_C@_0O@BFJCFAAK@unknown?5error?$AA@
CONST	SEGMENT
??_C@_0O@BFJCFAAK@unknown?5error?$AA@ DB 'unknown error', 00H ; `string'
CONST	ENDS
;	COMDAT ??_C@_07DCLBNMLN@generic?$AA@
CONST	SEGMENT
??_C@_07DCLBNMLN@generic?$AA@ DB 'generic', 00H		; `string'
CONST	ENDS
;	COMDAT ??_7_Generic_error_category@std@@6B@
CONST	SEGMENT
??_7_Generic_error_category@std@@6B@ DD FLAT:??_R4_Generic_error_category@std@@6B@ ; std::_Generic_error_category::`vftable'
	DD	FLAT:??_E_Generic_error_category@std@@UAEPAXI@Z
	DD	FLAT:?name@_Generic_error_category@std@@UBEPBDXZ
	DD	FLAT:?message@_Generic_error_category@std@@UBE?AV?$basic_string@DU?$char_traits@D@std@@V?$allocator@D@2@@2@H@Z
	DD	FLAT:?default_error_condition@error_category@std@@UBE?AVerror_condition@2@H@Z
	DD	FLAT:?equivalent@error_category@std@@UBE_NABVerror_code@2@H@Z
	DD	FLAT:?equivalent@error_category@std@@UBE_NHABVerror_condition@2@@Z
CONST	ENDS
;	COMDAT ??_7error_category@std@@6B@
CONST	SEGMENT
??_7error_category@std@@6B@ DD FLAT:??_R4error_category@std@@6B@ ; std::error_category::`vftable'
	DD	FLAT:??_Eerror_category@std@@UAEPAXI@Z
	DD	FLAT:__purecall
	DD	FLAT:__purecall
	DD	FLAT:?default_error_condition@error_category@std@@UBE?AVerror_condition@2@H@Z
	DD	FLAT:?equivalent@error_category@std@@UBE_NABVerror_code@2@H@Z
	DD	FLAT:?equivalent@error_category@std@@UBE_NHABVerror_condition@2@@Z
CONST	ENDS
;	COMDAT ??_C@_00CNPNBAHC@?$AA@
CONST	SEGMENT
??_C@_00CNPNBAHC@?$AA@ DB 00H				; `string'
CONST	ENDS
;	COMDAT xdata$x
xdata$x	SEGMENT
__unwindtable$??$construct@PADAAPAD@?$allocator@D@std@@QAEXPAPADAAPAD@Z DD 0ffffffffH
	DD	FLAT:__unwindfunclet$??$construct@PADAAPAD@?$allocator@D@std@@QAEXPAPADAAPAD@Z$0
__ehfuncinfo$??$construct@PADAAPAD@?$allocator@D@std@@QAEXPAPADAAPAD@Z DD 019930522H
	DD	01H
	DD	FLAT:__unwindtable$??$construct@PADAAPAD@?$allocator@D@std@@QAEXPAPADAAPAD@Z
	DD	2 DUP(00H)
	DD	2 DUP(00H)
	DD	00H
	DD	01H
xdata$x	ENDS
xdata$x	SEGMENT
__unwindtable$?SelectChatFilterCB@@YAXJFPAVC_Base@@@Z DD 0ffffffffH
	DD	FLAT:__unwindfunclet$?SelectChatFilterCB@@YAXJFPAVC_Base@@@Z$0
__unwindtable$?UpdateGameTreeBranch@@YAXJPAVVuGameEntity@@PAVC_TreeList@@PAVTREELIST@@H@Z DD 0ffffffffH
	DD	FLAT:__unwindfunclet$?UpdateGameTreeBranch@@YAXJPAVVuGameEntity@@PAVC_TreeList@@PAVTREELIST@@H@Z$0
__unwindtable$?CreatePlayerButton@@YAPAVTREELIST@@PAVC_TreeList@@PAVFalconSessionEntity@@@Z DD 0ffffffffH
	DD	FLAT:__unwindfunclet$?CreatePlayerButton@@YAPAVTREELIST@@PAVC_TreeList@@PAVFalconSessionEntity@@@Z$0
__unwindtable$?TrimmerFindSession@@YAHVVU_ID@@PAVVuGameEntity@@@Z DD 0ffffffffH
	DD	FLAT:__unwindfunclet$?TrimmerFindSession@@YAHVVU_ID@@PAVVuGameEntity@@@Z$0
__unwindtable$?SendChatStringCB@@YAXJFPAVC_Base@@@Z DD 0ffffffffH
	DD	FLAT:__unwindfunclet$?SendChatStringCB@@YAXJFPAVC_Base@@@Z$0
__unwindtable$?ReceiveChatString@@YAXVVU_ID@@PAD@Z DD 0ffffffffH
	DD	FLAT:__unwindfunclet$?ReceiveChatString@@YAXVVU_ID@@PAD@Z$0
__unwindtable$?AddMessageToChatWindow@@YAXVVU_ID@@PAD@Z DD 0ffffffffH
	DD	FLAT:__unwindfunclet$?AddMessageToChatWindow@@YAXVVU_ID@@PAD@Z$0
__unwindtable$?ViewRemoteLBCB@@YAXJFPAVC_Base@@@Z DD 0ffffffffH
	DD	FLAT:__unwindfunclet$?ViewRemoteLBCB@@YAXJFPAVC_Base@@@Z$0
__unwindtable$?CommsSetup@@YAXXZ DD 0ffffffffH
	DD	FLAT:__unwindfunclet$?CommsSetup@@YAXXZ$0
__unwindtable$?SendTextToEveryOne@@YAXXZ DD 0ffffffffH
	DD	FLAT:__unwindfunclet$?SendTextToEveryOne@@YAXXZ$0
	DD	00H
	DD	FLAT:__unwindfunclet$?SendTextToEveryOne@@YAXXZ$1
__unwindtable$?SendTextToTeam@@YAXXZ DD 0ffffffffH
	DD	FLAT:__unwindfunclet$?SendTextToTeam@@YAXXZ$0
	DD	00H
	DD	FLAT:__unwindfunclet$?SendTextToTeam@@YAXXZ$1
__unwindtable$?SendTextToRange@@YAXXZ DD 0ffffffffH
	DD	FLAT:__unwindfunclet$?SendTextToRange@@YAXXZ$0
	DD	00H
	DD	FLAT:__unwindfunclet$?SendTextToRange@@YAXXZ$1
__unwindtable$?SendTextToPackage@@YAXXZ DD 0ffffffffH
	DD	FLAT:__unwindfunclet$?SendTextToPackage@@YAXXZ$0
	DD	00H
	DD	FLAT:__unwindfunclet$?SendTextToPackage@@YAXXZ$1
__unwindtable$?SendTextToFlight@@YAXXZ DD 0ffffffffH
	DD	FLAT:__unwindfunclet$?SendTextToFlight@@YAXXZ$0
	DD	00H
	DD	FLAT:__unwindfunclet$?SendTextToFlight@@YAXXZ$1
__catchsym$?UpdateLocalGameTree@@YAXXZ$5 DD 00H
	DD	FLAT:??_R0?AV_com_error@@@8
	DD	0ffffff40H
	DD	FLAT:__catch$?UpdateLocalGameTree@@YAXXZ$0
__unwindtable$?MakeLocalGameTree@@YAXPAVVuGameEntity@@@Z DD 0ffffffffH
	DD	FLAT:__unwindfunclet$?MakeLocalGameTree@@YAXPAVVuGameEntity@@@Z$0
	DD	0ffffffffH
	DD	FLAT:__unwindfunclet$?MakeLocalGameTree@@YAXPAVVuGameEntity@@@Z$1
__catchsym$?RemoveOldPeopleTreeCB@@YAXPAVTREELIST@@@Z$4 DD 00H
	DD	FLAT:??_R0?AV_com_error@@@8
	DD	0ffffff84H
	DD	FLAT:__catch$?RemoveOldPeopleTreeCB@@YAXPAVTREELIST@@@Z$0
__unwindtable$?AddGameToList@@YAPAVTREELIST@@PAVVuGameEntity@@PAV1@PAVC_TreeList@@@Z DD 0ffffffffH
	DD	FLAT:__unwindfunclet$?AddGameToList@@YAPAVTREELIST@@PAVVuGameEntity@@PAV1@PAVC_TreeList@@@Z$0
	DD	0ffffffffH
	DD	FLAT:__unwindfunclet$?AddGameToList@@YAPAVTREELIST@@PAVVuGameEntity@@PAV1@PAVC_TreeList@@@Z$1
__unwindtable$?RebuildGameTree@@YAXXZ DD 0ffffffffH
	DD	FLAT:__unwindfunclet$?RebuildGameTree@@YAXXZ$0
	DD	00H
	DD	FLAT:__unwindfunclet$?RebuildGameTree@@YAXXZ$1
__tryblocktable$?UpdateLocalGameTree@@YAXXZ DD 01H
	DD	02H
	DD	03H
	DD	01H
	DD	FLAT:__catchsym$?UpdateLocalGameTree@@YAXXZ$5
__tryblocktable$?RemoveOldPeopleTreeCB@@YAXPAVTREELIST@@@Z DD 00H
	DD	01H
	DD	02H
	DD	01H
	DD	FLAT:__catchsym$?RemoveOldPeopleTreeCB@@YAXPAVTREELIST@@@Z$4
__unwindtable$?RemoveOldPeopleTreeCB@@YAXPAVTREELIST@@@Z DD 0ffffffffH
	DD	00H
	DD	00H
	DD	FLAT:__unwindfunclet$?RemoveOldPeopleTreeCB@@YAXPAVTREELIST@@@Z$2
	DD	0ffffffffH
	DD	00H
__unwindtable$?UpdateLocalGameTree@@YAXXZ DD 0ffffffffH
	DD	FLAT:__unwindfunclet$?UpdateLocalGameTree@@YAXXZ$2
	DD	00H
	DD	00H
	DD	01H
	DD	FLAT:__unwindfunclet$?UpdateLocalGameTree@@YAXXZ$3
	DD	00H
	DD	00H
__unwindtable$?ServerChatCommand@@YAXPAD@Z DD 0ffffffffH
	DD	FLAT:__unwindfunclet$?ServerChatCommand@@YAXPAD@Z$1
	DD	0ffffffffH
	DD	FLAT:__unwindfunclet$?ServerChatCommand@@YAXPAD@Z$2
	DD	0ffffffffH
	DD	FLAT:__unwindfunclet$?ServerChatCommand@@YAXPAD@Z$3
	DD	0ffffffffH
	DD	FLAT:__unwindfunclet$?ServerChatCommand@@YAXPAD@Z$4
__ehfuncinfo$?SendTextToEveryOne@@YAXXZ DD 019930522H
	DD	02H
	DD	FLAT:__unwindtable$?SendTextToEveryOne@@YAXXZ
	DD	2 DUP(00H)
	DD	2 DUP(00H)
	DD	00H
	DD	01H
__ehfuncinfo$?SendTextToTeam@@YAXXZ DD 019930522H
	DD	02H
	DD	FLAT:__unwindtable$?SendTextToTeam@@YAXXZ
	DD	2 DUP(00H)
	DD	2 DUP(00H)
	DD	00H
	DD	01H
__ehfuncinfo$?SendTextToRange@@YAXXZ DD 019930522H
	DD	02H
	DD	FLAT:__unwindtable$?SendTextToRange@@YAXXZ
	DD	2 DUP(00H)
	DD	2 DUP(00H)
	DD	00H
	DD	01H
__ehfuncinfo$?SendTextToPackage@@YAXXZ DD 019930522H
	DD	02H
	DD	FLAT:__unwindtable$?SendTextToPackage@@YAXXZ
	DD	2 DUP(00H)
	DD	2 DUP(00H)
	DD	00H
	DD	01H
__ehfuncinfo$?SendTextToFlight@@YAXXZ DD 019930522H
	DD	02H
	DD	FLAT:__unwindtable$?SendTextToFlight@@YAXXZ
	DD	2 DUP(00H)
	DD	2 DUP(00H)
	DD	00H
	DD	01H
__ehfuncinfo$?SelectChatFilterCB@@YAXJFPAVC_Base@@@Z DD 019930522H
	DD	01H
	DD	FLAT:__unwindtable$?SelectChatFilterCB@@YAXJFPAVC_Base@@@Z
	DD	2 DUP(00H)
	DD	2 DUP(00H)
	DD	00H
	DD	01H
__ehfuncinfo$?UpdateLocalGameTree@@YAXXZ DD 019930522H
	DD	04H
	DD	FLAT:__unwindtable$?UpdateLocalGameTree@@YAXXZ
	DD	01H
	DD	FLAT:__tryblocktable$?UpdateLocalGameTree@@YAXXZ
	DD	2 DUP(00H)
	DD	00H
	DD	01H
__ehfuncinfo$?MakeLocalGameTree@@YAXPAVVuGameEntity@@@Z DD 019930522H
	DD	02H
	DD	FLAT:__unwindtable$?MakeLocalGameTree@@YAXPAVVuGameEntity@@@Z
	DD	2 DUP(00H)
	DD	2 DUP(00H)
	DD	00H
	DD	01H
__ehfuncinfo$?RemoveOldPeopleTreeCB@@YAXPAVTREELIST@@@Z DD 019930522H
	DD	03H
	DD	FLAT:__unwindtable$?RemoveOldPeopleTreeCB@@YAXPAVTREELIST@@@Z
	DD	01H
	DD	FLAT:__tryblocktable$?RemoveOldPeopleTreeCB@@YAXPAVTREELIST@@@Z
	DD	2 DUP(00H)
	DD	00H
	DD	01H
__ehfuncinfo$?UpdateGameTreeBranch@@YAXJPAVVuGameEntity@@PAVC_TreeList@@PAVTREELIST@@H@Z DD 019930522H
	DD	01H
	DD	FLAT:__unwindtable$?UpdateGameTreeBranch@@YAXJPAVVuGameEntity@@PAVC_TreeList@@PAVTREELIST@@H@Z
	DD	2 DUP(00H)
	DD	2 DUP(00H)
	DD	00H
	DD	01H
__ehfuncinfo$?CreatePlayerButton@@YAPAVTREELIST@@PAVC_TreeList@@PAVFalconSessionEntity@@@Z DD 019930522H
	DD	01H
	DD	FLAT:__unwindtable$?CreatePlayerButton@@YAPAVTREELIST@@PAVC_TreeList@@PAVFalconSessionEntity@@@Z
	DD	2 DUP(00H)
	DD	2 DUP(00H)
	DD	00H
	DD	01H
__ehfuncinfo$?AddGameToList@@YAPAVTREELIST@@PAVVuGameEntity@@PAV1@PAVC_TreeList@@@Z DD 019930522H
	DD	02H
	DD	FLAT:__unwindtable$?AddGameToList@@YAPAVTREELIST@@PAVVuGameEntity@@PAV1@PAVC_TreeList@@@Z
	DD	2 DUP(00H)
	DD	2 DUP(00H)
	DD	00H
	DD	01H
__ehfuncinfo$?TrimmerFindSession@@YAHVVU_ID@@PAVVuGameEntity@@@Z DD 019930522H
	DD	01H
	DD	FLAT:__unwindtable$?TrimmerFindSession@@YAHVVU_ID@@PAVVuGameEntity@@@Z
	DD	2 DUP(00H)
	DD	2 DUP(00H)
	DD	00H
	DD	01H
__ehfuncinfo$?SendChatStringCB@@YAXJFPAVC_Base@@@Z DD 019930522H
	DD	01H
	DD	FLAT:__unwindtable$?SendChatStringCB@@YAXJFPAVC_Base@@@Z
	DD	2 DUP(00H)
	DD	2 DUP(00H)
	DD	00H
	DD	01H
__ehfuncinfo$?ReceiveChatString@@YAXVVU_ID@@PAD@Z DD 019930522H
	DD	01H
	DD	FLAT:__unwindtable$?ReceiveChatString@@YAXVVU_ID@@PAD@Z
	DD	2 DUP(00H)
	DD	2 DUP(00H)
	DD	00H
	DD	01H
__ehfuncinfo$?AddMessageToChatWindow@@YAXVVU_ID@@PAD@Z DD 019930522H
	DD	01H
	DD	FLAT:__unwindtable$?AddMessageToChatWindow@@YAXVVU_ID@@PAD@Z
	DD	2 DUP(00H)
	DD	2 DUP(00H)
	DD	00H
	DD	01H
__ehfuncinfo$?ServerChatCommand@@YAXPAD@Z DD 019930522H
	DD	04H
	DD	FLAT:__unwindtable$?ServerChatCommand@@YAXPAD@Z
	DD	2 DUP(00H)
	DD	2 DUP(00H)
	DD	00H
	DD	01H
__ehfuncinfo$?ViewRemoteLBCB@@YAXJFPAVC_Base@@@Z DD 019930522H
	DD	01H
	DD	FLAT:__unwindtable$?ViewRemoteLBCB@@YAXJFPAVC_Base@@@Z
	DD	2 DUP(00H)
	DD	2 DUP(00H)
	DD	00H
	DD	01H
__ehfuncinfo$?RebuildGameTree@@YAXXZ DD 019930522H
	DD	02H
	DD	FLAT:__unwindtable$?RebuildGameTree@@YAXXZ
	DD	2 DUP(00H)
	DD	2 DUP(00H)
	DD	00H
	DD	01H
__ehfuncinfo$?CommsSetup@@YAXXZ DD 019930522H
	DD	01H
	DD	FLAT:__unwindtable$?CommsSetup@@YAXXZ
	DD	2 DUP(00H)
	DD	2 DUP(00H)
	DD	00H
	DD	01H
xdata$x	ENDS
;	COMDAT xdata$x
xdata$x	SEGMENT
__unwindtable$?RemovePlayer@IUplink@GNETCORELib@@QAEJV_bstr_t@@@Z DD 0ffffffffH
	DD	FLAT:__unwindfunclet$?RemovePlayer@IUplink@GNETCORELib@@QAEJV_bstr_t@@@Z$0
__ehfuncinfo$?RemovePlayer@IUplink@GNETCORELib@@QAEJV_bstr_t@@@Z DD 019930522H
	DD	01H
	DD	FLAT:__unwindtable$?RemovePlayer@IUplink@GNETCORELib@@QAEJV_bstr_t@@@Z
	DD	2 DUP(00H)
	DD	2 DUP(00H)
	DD	00H
	DD	01H
xdata$x	ENDS
;	COMDAT xdata$x
xdata$x	SEGMENT
__unwindtable$?AddPlayer@IUplink@GNETCORELib@@QAEJV_bstr_t@@@Z DD 0ffffffffH
	DD	FLAT:__unwindfunclet$?AddPlayer@IUplink@GNETCORELib@@QAEJV_bstr_t@@@Z$0
__ehfuncinfo$?AddPlayer@IUplink@GNETCORELib@@QAEJV_bstr_t@@@Z DD 019930522H
	DD	01H
	DD	FLAT:__unwindtable$?AddPlayer@IUplink@GNETCORELib@@QAEJV_bstr_t@@@Z
	DD	2 DUP(00H)
	DD	2 DUP(00H)
	DD	00H
	DD	01H
xdata$x	ENDS
;	COMDAT xdata$x
xdata$x	SEGMENT
__unwindtable$??0_bstr_t@@QAE@PBD@Z DD 0ffffffffH
	DD	FLAT:__unwindfunclet$??0_bstr_t@@QAE@PBD@Z$0
__ehfuncinfo$??0_bstr_t@@QAE@PBD@Z DD 019930522H
	DD	01H
	DD	FLAT:__unwindtable$??0_bstr_t@@QAE@PBD@Z
	DD	2 DUP(00H)
	DD	2 DUP(00H)
	DD	00H
	DD	01H
xdata$x	ENDS
;	COMDAT xdata$x
xdata$x	SEGMENT
__catchsym$?_Copy@?$basic_string@DU?$char_traits@D@std@@V?$allocator@D@2@@std@@QAEXII@Z$5 DD 040H
	DD	00H
	DD	00H
	DD	FLAT:__catch$?_Copy@?$basic_string@DU?$char_traits@D@std@@V?$allocator@D@2@@std@@QAEXII@Z$0
__catchsym$?_Copy@?$basic_string@DU?$char_traits@D@std@@V?$allocator@D@2@@std@@QAEXII@Z$4 DD 040H
	DD	00H
	DD	00H
	DD	FLAT:__catch$?_Copy@?$basic_string@DU?$char_traits@D@std@@V?$allocator@D@2@@std@@QAEXII@Z$1
__unwindtable$?_Copy@?$basic_string@DU?$char_traits@D@std@@V?$allocator@D@2@@std@@QAEXII@Z DD 0ffffffffH
	DD	00H
	DD	0ffffffffH
	DD	00H
	DD	01H
	DD	00H
	DD	01H
	DD	00H
__ehfuncinfo$?_Copy@?$basic_string@DU?$char_traits@D@std@@V?$allocator@D@2@@std@@QAEXII@Z DD 019930522H
	DD	04H
	DD	FLAT:__unwindtable$?_Copy@?$basic_string@DU?$char_traits@D@std@@V?$allocator@D@2@@std@@QAEXII@Z
	DD	02H
	DD	FLAT:__tryblocktable$?_Copy@?$basic_string@DU?$char_traits@D@std@@V?$allocator@D@2@@std@@QAEXII@Z
	DD	2 DUP(00H)
	DD	00H
	DD	01H
__tryblocktable$?_Copy@?$basic_string@DU?$char_traits@D@std@@V?$allocator@D@2@@std@@QAEXII@Z DD 02H
	DD	02H
	DD	03H
	DD	01H
	DD	FLAT:__catchsym$?_Copy@?$basic_string@DU?$char_traits@D@std@@V?$allocator@D@2@@std@@QAEXII@Z$4
	DD	00H
	DD	00H
	DD	03H
	DD	01H
	DD	FLAT:__catchsym$?_Copy@?$basic_string@DU?$char_traits@D@std@@V?$allocator@D@2@@std@@QAEXII@Z$5
xdata$x	ENDS
CRT$XCU	SEGMENT
_allocator_arg$initializer$ DD FLAT:??__Eallocator_arg@std@@YAXXZ
CRT$XCU	ENDS
CRT$XCU	SEGMENT
_SearchID$initializer$ DD FLAT:??__ESearchID@@YAXXZ
CRT$XCU	ENDS
;	COMDAT CRT$XCU
CRT$XCU	SEGMENT
?_Generic_object$initializer$@?$_Error_objects@H@std@@2P6AXXZA DD FLAT:??__E?_Generic_object@?$_Error_objects@H@std@@2V_Generic_error_category@2@A@@YAXXZ ; std::_Error_objects<int>::_Generic_object$initializer$
CRT$XCU	ENDS
;	COMDAT CRT$XCU
CRT$XCU	SEGMENT
?_Iostream_object$initializer$@?$_Error_objects@H@std@@2P6AXXZA DD FLAT:??__E?_Iostream_object@?$_Error_objects@H@std@@2V_Iostream_error_category@2@A@@YAXXZ ; std::_Error_objects<int>::_Iostream_object$initializer$
CRT$XCU	ENDS
;	COMDAT CRT$XCU
CRT$XCU	SEGMENT
?_System_object$initializer$@?$_Error_objects@H@std@@2P6AXXZA DD FLAT:??__E?_System_object@?$_Error_objects@H@std@@2V_System_error_category@2@A@@YAXXZ ; std::_Error_objects<int>::_System_object$initializer$
CRT$XCU	ENDS
;	COMDAT CRT$XCU
CRT$XCU	SEGMENT
?id$initializer$@?$num_put@DV?$back_insert_iterator@V?$basic_string@DU?$char_traits@D@std@@V?$allocator@D@2@@std@@@std@@@std@@2P6AXXZA DD FLAT:??__E?id@?$num_put@DV?$back_insert_iterator@V?$basic_string@DU?$char_traits@D@std@@V?$allocator@D@2@@std@@@std@@@std@@2V0locale@2@A@@YAXXZ ; std::num_put<char,std::back_insert_iterator<std::basic_string<char,std::char_traits<char>,std::allocator<char> > > >::id$initializer$
CRT$XCU	ENDS
;	COMDAT CRT$XCU
CRT$XCU	SEGMENT
?id$initializer$@?$num_put@_WV?$back_insert_iterator@V?$basic_string@_WU?$char_traits@_W@std@@V?$allocator@_W@2@@std@@@std@@@std@@2P6AXXZA DD FLAT:??__E?id@?$num_put@_WV?$back_insert_iterator@V?$basic_string@_WU?$char_traits@_W@std@@V?$allocator@_W@2@@std@@@std@@@std@@2V0locale@2@A@@YAXXZ ; std::num_put<wchar_t,std::back_insert_iterator<std::basic_string<wchar_t,std::char_traits<wchar_t>,std::allocator<wchar_t> > > >::id$initializer$
CRT$XCU	ENDS
;	COMDAT CRT$XCU
CRT$XCU	SEGMENT
?id$initializer$@?$numpunct@D@std@@2P6AXXZA DD FLAT:??__E?id@?$numpunct@D@std@@2V0locale@2@A@@YAXXZ ; std::numpunct<char>::id$initializer$
CRT$XCU	ENDS
;	COMDAT CRT$XCU
CRT$XCU	SEGMENT
?id$initializer$@?$numpunct@_W@std@@2P6AXXZA DD FLAT:??__E?id@?$numpunct@_W@std@@2V0locale@2@A@@YAXXZ ; std::numpunct<wchar_t>::id$initializer$
CRT$XCU	ENDS
; Function compile flags: /Odtp
; File c:\program files (x86)\microsoft visual studio 11.0\vc\include\xmemory0
;	COMDAT ??$destroy@PAD@?$allocator@D@std@@QAEXPAPAD@Z
_TEXT	SEGMENT
_this$ = -4						; size = 4
__Ptr$ = 8						; size = 4
??$destroy@PAD@?$allocator@D@std@@QAEXPAPAD@Z PROC	; std::allocator<char>::destroy<char *>, COMDAT
; _this$ = ecx

; 621  : 		void destroy(_Uty *_Ptr)

	push	ebp
	mov	ebp, esp
	push	ecx
	mov	DWORD PTR _this$[ebp], ecx

; 622  : 		{	// destroy object at _Ptr
; 623  : 		_Ptr->~_Uty();
; 624  : 		}

	mov	esp, ebp
	pop	ebp
	ret	4
??$destroy@PAD@?$allocator@D@std@@QAEXPAPAD@Z ENDP	; std::allocator<char>::destroy<char *>
_TEXT	ENDS
; Function compile flags: /Odtp
; File c:\program files (x86)\microsoft visual studio 11.0\vc\include\xmemory0
;	COMDAT ??$construct@PADAAPAD@?$allocator@D@std@@QAEXPAPADAAPAD@Z
_TEXT	SEGMENT
$T2 = -28						; size = 4
_this$ = -24						; size = 4
tv73 = -20						; size = 4
$T3 = -16						; size = 4
__$EHRec$ = -12						; size = 12
__Ptr$ = 8						; size = 4
__V0$ = 12						; size = 4
??$construct@PADAAPAD@?$allocator@D@std@@QAEXPAPADAAPAD@Z PROC ; std::allocator<char>::construct<char *,char * &>, COMDAT
; _this$ = ecx

; 617  : _VARIADIC_EXPAND_0X(_ALLOC_MEMBER_CONSTRUCT, , , , )

	push	ebp
	mov	ebp, esp
	push	-1
	push	__ehhandler$??$construct@PADAAPAD@?$allocator@D@std@@QAEXPAPADAAPAD@Z
	mov	eax, DWORD PTR fs:0
	push	eax
	sub	esp, 16					; 00000010H
	mov	eax, DWORD PTR ___security_cookie
	xor	eax, ebp
	push	eax
	lea	eax, DWORD PTR __$EHRec$[ebp]
	mov	DWORD PTR fs:0, eax
	mov	DWORD PTR _this$[ebp], ecx
	mov	eax, DWORD PTR __Ptr$[ebp]
	push	eax
	push	4
	call	??2@YAPAXIPAX@Z				; operator new
	add	esp, 8
	mov	DWORD PTR $T3[ebp], eax
	mov	DWORD PTR __$EHRec$[ebp+8], 0
	cmp	DWORD PTR $T3[ebp], 0
	je	SHORT $LN3@construct
	mov	ecx, DWORD PTR __V0$[ebp]
	push	ecx
	call	??$forward@AAPAD@std@@YAAAPADAAPAD@Z	; std::forward<char * &>
	add	esp, 4
	mov	edx, DWORD PTR $T3[ebp]
	mov	eax, DWORD PTR [eax]
	mov	DWORD PTR [edx], eax
	mov	ecx, DWORD PTR $T3[ebp]
	mov	DWORD PTR tv73[ebp], ecx
	jmp	SHORT $LN4@construct
$LN3@construct:
	mov	DWORD PTR tv73[ebp], 0
$LN4@construct:
	mov	edx, DWORD PTR tv73[ebp]
	mov	DWORD PTR $T2[ebp], edx
	mov	DWORD PTR __$EHRec$[ebp+8], -1
	mov	ecx, DWORD PTR __$EHRec$[ebp]
	mov	DWORD PTR fs:0, ecx
	pop	ecx
	mov	esp, ebp
	pop	ebp
	ret	8
_TEXT	ENDS
;	COMDAT text$x
text$x	SEGMENT
__unwindfunclet$??$construct@PADAAPAD@?$allocator@D@std@@QAEXPAPADAAPAD@Z$0:
	mov	eax, DWORD PTR __Ptr$[ebp]
	push	eax
	mov	eax, DWORD PTR $T3[ebp]
	push	eax
	call	??3@YAXPAX0@Z				; operator delete
	add	esp, 8
	ret	0
__ehhandler$??$construct@PADAAPAD@?$allocator@D@std@@QAEXPAPADAAPAD@Z:
	mov	edx, DWORD PTR [esp+8]
	lea	eax, DWORD PTR [edx+12]
	mov	ecx, DWORD PTR [edx-20]
	xor	ecx, eax
	call	@__security_check_cookie@4
	mov	eax, OFFSET __ehfuncinfo$??$construct@PADAAPAD@?$allocator@D@std@@QAEXPAPADAAPAD@Z
	jmp	___CxxFrameHandler3
text$x	ENDS
??$construct@PADAAPAD@?$allocator@D@std@@QAEXPAPADAAPAD@Z ENDP ; std::allocator<char>::construct<char *,char * &>
; Function compile flags: /Odtp
; File c:\program files (x86)\microsoft visual studio 11.0\vc\include\xlocnum
;	COMDAT ??__E?id@?$numpunct@_W@std@@2V0locale@2@A@@YAXXZ
text$yc	SEGMENT
??__E?id@?$numpunct@_W@std@@2V0locale@2@A@@YAXXZ PROC	; `dynamic initializer for 'std::numpunct<wchar_t>::id'', COMDAT

; 155  : 		void _Getvals(wchar_t, const lconv *_Ptr, _Locinfo::_Cvtvec)

	push	ebp
	mov	ebp, esp
	push	0
	mov	ecx, OFFSET ?id@?$numpunct@_W@std@@2V0locale@2@A ; std::numpunct<wchar_t>::id
	call	??0id@locale@std@@QAE@I@Z		; std::locale::id::id
	pop	ebp
	ret	0
??__E?id@?$numpunct@_W@std@@2V0locale@2@A@@YAXXZ ENDP	; `dynamic initializer for 'std::numpunct<wchar_t>::id''
text$yc	ENDS
; Function compile flags: /Odtp
; File c:\program files (x86)\microsoft visual studio 11.0\vc\include\xlocnum
;	COMDAT ??__E?id@?$numpunct@D@std@@2V0locale@2@A@@YAXXZ
text$yc	SEGMENT
??__E?id@?$numpunct@D@std@@2V0locale@2@A@@YAXXZ PROC	; `dynamic initializer for 'std::numpunct<char>::id'', COMDAT

; 155  : 		void _Getvals(wchar_t, const lconv *_Ptr, _Locinfo::_Cvtvec)

	push	ebp
	mov	ebp, esp
	push	0
	mov	ecx, OFFSET ?id@?$numpunct@D@std@@2V0locale@2@A ; std::numpunct<char>::id
	call	??0id@locale@std@@QAE@I@Z		; std::locale::id::id
	pop	ebp
	ret	0
??__E?id@?$numpunct@D@std@@2V0locale@2@A@@YAXXZ ENDP	; `dynamic initializer for 'std::numpunct<char>::id''
text$yc	ENDS
; Function compile flags: /Odtp
; File c:\program files (x86)\microsoft visual studio 11.0\vc\include\xlocnum
;	COMDAT ??__E?id@?$num_put@_WV?$back_insert_iterator@V?$basic_string@_WU?$char_traits@_W@std@@V?$allocator@_W@2@@std@@@std@@@std@@2V0locale@2@A@@YAXXZ
text$yc	SEGMENT
??__E?id@?$num_put@_WV?$back_insert_iterator@V?$basic_string@_WU?$char_traits@_W@std@@V?$allocator@_W@2@@std@@@std@@@std@@2V0locale@2@A@@YAXXZ PROC ; `dynamic initializer for 'std::num_put<wchar_t,std::back_insert_iterator<std::basic_string<wchar_t,std::char_traits<wchar_t>,std::allocator<wchar_t> > > >::id'', COMDAT

; 155  : 		void _Getvals(wchar_t, const lconv *_Ptr, _Locinfo::_Cvtvec)

	push	ebp
	mov	ebp, esp
	push	0
	mov	ecx, OFFSET ?id@?$num_put@_WV?$back_insert_iterator@V?$basic_string@_WU?$char_traits@_W@std@@V?$allocator@_W@2@@std@@@std@@@std@@2V0locale@2@A ; std::num_put<wchar_t,std::back_insert_iterator<std::basic_string<wchar_t,std::char_traits<wchar_t>,std::allocator<wchar_t> > > >::id
	call	??0id@locale@std@@QAE@I@Z		; std::locale::id::id
	pop	ebp
	ret	0
??__E?id@?$num_put@_WV?$back_insert_iterator@V?$basic_string@_WU?$char_traits@_W@std@@V?$allocator@_W@2@@std@@@std@@@std@@2V0locale@2@A@@YAXXZ ENDP ; `dynamic initializer for 'std::num_put<wchar_t,std::back_insert_iterator<std::basic_string<wchar_t,std::char_traits<wchar_t>,std::allocator<wchar_t> > > >::id''
text$yc	ENDS
; Function compile flags: /Odtp
; File c:\program files (x86)\microsoft visual studio 11.0\vc\include\xlocnum
;	COMDAT ??__E?id@?$num_put@DV?$back_insert_iterator@V?$basic_string@DU?$char_traits@D@std@@V?$allocator@D@2@@std@@@std@@@std@@2V0locale@2@A@@YAXXZ
text$yc	SEGMENT
??__E?id@?$num_put@DV?$back_insert_iterator@V?$basic_string@DU?$char_traits@D@std@@V?$allocator@D@2@@std@@@std@@@std@@2V0locale@2@A@@YAXXZ PROC ; `dynamic initializer for 'std::num_put<char,std::back_insert_iterator<std::basic_string<char,std::char_traits<char>,std::allocator<char> > > >::id'', COMDAT

; 155  : 		void _Getvals(wchar_t, const lconv *_Ptr, _Locinfo::_Cvtvec)

	push	ebp
	mov	ebp, esp
	push	0
	mov	ecx, OFFSET ?id@?$num_put@DV?$back_insert_iterator@V?$basic_string@DU?$char_traits@D@std@@V?$allocator@D@2@@std@@@std@@@std@@2V0locale@2@A ; std::num_put<char,std::back_insert_iterator<std::basic_string<char,std::char_traits<char>,std::allocator<char> > > >::id
	call	??0id@locale@std@@QAE@I@Z		; std::locale::id::id
	pop	ebp
	ret	0
??__E?id@?$num_put@DV?$back_insert_iterator@V?$basic_string@DU?$char_traits@D@std@@V?$allocator@D@2@@std@@@std@@@std@@2V0locale@2@A@@YAXXZ ENDP ; `dynamic initializer for 'std::num_put<char,std::back_insert_iterator<std::basic_string<char,std::char_traits<char>,std::allocator<char> > > >::id''
text$yc	ENDS
; Function compile flags: /Odtp
; File c:\program files (x86)\microsoft visual studio 11.0\vc\include\xmemory0
;	COMDAT ??$destroy@PAD@?$allocator_traits@V?$allocator@D@std@@@std@@SAXAAV?$allocator@D@1@PAPAD@Z
_TEXT	SEGMENT
__Al$ = 8						; size = 4
__Ptr$ = 12						; size = 4
??$destroy@PAD@?$allocator_traits@V?$allocator@D@std@@@std@@SAXAAV?$allocator@D@1@PAPAD@Z PROC ; std::allocator_traits<std::allocator<char> >::destroy<char *>, COMDAT

; 755  : 		static void destroy(_Alloc& _Al, _Uty *_Ptr)

	push	ebp
	mov	ebp, esp

; 756  : 		{	// destroy object at _Ptr
; 757  : 		_Al.destroy(_Ptr);

	mov	eax, DWORD PTR __Ptr$[ebp]
	push	eax
	mov	ecx, DWORD PTR __Al$[ebp]
	call	??$destroy@PAD@?$allocator@D@std@@QAEXPAPAD@Z ; std::allocator<char>::destroy<char *>

; 758  : 		}

	pop	ebp
	ret	0
??$destroy@PAD@?$allocator_traits@V?$allocator@D@std@@@std@@SAXAAV?$allocator@D@1@PAPAD@Z ENDP ; std::allocator_traits<std::allocator<char> >::destroy<char *>
_TEXT	ENDS
; Function compile flags: /Odtp
; File c:\program files (x86)\microsoft visual studio 11.0\vc\include\xmemory0
;	COMDAT ??$construct@PADAAPAD@?$allocator_traits@V?$allocator@D@std@@@std@@SAXAAV?$allocator@D@1@PAPADAAPAD@Z
_TEXT	SEGMENT
__Al$ = 8						; size = 4
__Ptr$ = 12						; size = 4
__V0$ = 16						; size = 4
??$construct@PADAAPAD@?$allocator_traits@V?$allocator@D@std@@@std@@SAXAAV?$allocator@D@1@PAPADAAPAD@Z PROC ; std::allocator_traits<std::allocator<char> >::construct<char *,char * &>, COMDAT

; 751  : _VARIADIC_EXPAND_0X(_ALLOC_TRAITS_SPECIAL_CONSTRUCT, , , , )

	push	ebp
	mov	ebp, esp
	mov	eax, DWORD PTR __V0$[ebp]
	push	eax
	call	??$forward@AAPAD@std@@YAAAPADAAPAD@Z	; std::forward<char * &>
	add	esp, 4
	push	eax
	mov	ecx, DWORD PTR __Ptr$[ebp]
	push	ecx
	mov	ecx, DWORD PTR __Al$[ebp]
	call	??$construct@PADAAPAD@?$allocator@D@std@@QAEXPAPADAAPAD@Z ; std::allocator<char>::construct<char *,char * &>
	pop	ebp
	ret	0
??$construct@PADAAPAD@?$allocator_traits@V?$allocator@D@std@@@std@@SAXAAV?$allocator@D@1@PAPADAAPAD@Z ENDP ; std::allocator_traits<std::allocator<char> >::construct<char *,char * &>
_TEXT	ENDS
; Function compile flags: /Odtp
; File c:\program files (x86)\microsoft visual studio 11.0\vc\include\type_traits
;	COMDAT ??$forward@AAPAD@std@@YAAAPADAAPAD@Z
_TEXT	SEGMENT
__Arg$ = 8						; size = 4
??$forward@AAPAD@std@@YAAAPADAAPAD@Z PROC		; std::forward<char * &>, COMDAT

; 1775 : 	{	// forward an lvalue

	push	ebp
	mov	ebp, esp

; 1776 : 	return (static_cast<_Ty&&>(_Arg));

	mov	eax, DWORD PTR __Arg$[ebp]

; 1777 : 	}

	pop	ebp
	ret	0
??$forward@AAPAD@std@@YAAAPADAAPAD@Z ENDP		; std::forward<char * &>
_TEXT	ENDS
; Function compile flags: /Odtp
;	COMDAT ??__F?_System_object@?$_Error_objects@H@std@@2V_System_error_category@2@A@@YAXXZ
text$yd	SEGMENT
??__F?_System_object@?$_Error_objects@H@std@@2V_System_error_category@2@A@@YAXXZ PROC ; `dynamic atexit destructor for 'std::_Error_objects<int>::_System_object'', COMDAT
	push	ebp
	mov	ebp, esp
	mov	ecx, OFFSET ?_System_object@?$_Error_objects@H@std@@2V_System_error_category@2@A ; std::_Error_objects<int>::_System_object
	call	??1_System_error_category@std@@UAE@XZ
	pop	ebp
	ret	0
??__F?_System_object@?$_Error_objects@H@std@@2V_System_error_category@2@A@@YAXXZ ENDP ; `dynamic atexit destructor for 'std::_Error_objects<int>::_System_object''
text$yd	ENDS
; Function compile flags: /Odtp
; File c:\program files (x86)\microsoft visual studio 11.0\vc\include\xmemory0
;	COMDAT ??__E?_System_object@?$_Error_objects@H@std@@2V_System_error_category@2@A@@YAXXZ
text$yc	SEGMENT
??__E?_System_object@?$_Error_objects@H@std@@2V_System_error_category@2@A@@YAXXZ PROC ; `dynamic initializer for 'std::_Error_objects<int>::_System_object'', COMDAT

; 627  : 		{	// estimate maximum array size

	push	ebp
	mov	ebp, esp
	mov	ecx, OFFSET ?_System_object@?$_Error_objects@H@std@@2V_System_error_category@2@A ; std::_Error_objects<int>::_System_object
	call	??0_System_error_category@std@@QAE@XZ	; std::_System_error_category::_System_error_category
	push	OFFSET ??__F?_System_object@?$_Error_objects@H@std@@2V_System_error_category@2@A@@YAXXZ ; `dynamic atexit destructor for 'std::_Error_objects<int>::_System_object''
	call	_atexit
	add	esp, 4
	pop	ebp
	ret	0
??__E?_System_object@?$_Error_objects@H@std@@2V_System_error_category@2@A@@YAXXZ ENDP ; `dynamic initializer for 'std::_Error_objects<int>::_System_object''
text$yc	ENDS
; Function compile flags: /Odtp
;	COMDAT ??__F?_Iostream_object@?$_Error_objects@H@std@@2V_Iostream_error_category@2@A@@YAXXZ
text$yd	SEGMENT
??__F?_Iostream_object@?$_Error_objects@H@std@@2V_Iostream_error_category@2@A@@YAXXZ PROC ; `dynamic atexit destructor for 'std::_Error_objects<int>::_Iostream_object'', COMDAT
	push	ebp
	mov	ebp, esp
	mov	ecx, OFFSET ?_Iostream_object@?$_Error_objects@H@std@@2V_Iostream_error_category@2@A ; std::_Error_objects<int>::_Iostream_object
	call	??1_Iostream_error_category@std@@UAE@XZ
	pop	ebp
	ret	0
??__F?_Iostream_object@?$_Error_objects@H@std@@2V_Iostream_error_category@2@A@@YAXXZ ENDP ; `dynamic atexit destructor for 'std::_Error_objects<int>::_Iostream_object''
text$yd	ENDS
; Function compile flags: /Odtp
; File c:\program files (x86)\microsoft visual studio 11.0\vc\include\xmemory0
;	COMDAT ??__E?_Iostream_object@?$_Error_objects@H@std@@2V_Iostream_error_category@2@A@@YAXXZ
text$yc	SEGMENT
??__E?_Iostream_object@?$_Error_objects@H@std@@2V_Iostream_error_category@2@A@@YAXXZ PROC ; `dynamic initializer for 'std::_Error_objects<int>::_Iostream_object'', COMDAT

; 627  : 		{	// estimate maximum array size

	push	ebp
	mov	ebp, esp
	mov	ecx, OFFSET ?_Iostream_object@?$_Error_objects@H@std@@2V_Iostream_error_category@2@A ; std::_Error_objects<int>::_Iostream_object
	call	??0_Iostream_error_category@std@@QAE@XZ	; std::_Iostream_error_category::_Iostream_error_category
	push	OFFSET ??__F?_Iostream_object@?$_Error_objects@H@std@@2V_Iostream_error_category@2@A@@YAXXZ ; `dynamic atexit destructor for 'std::_Error_objects<int>::_Iostream_object''
	call	_atexit
	add	esp, 4
	pop	ebp
	ret	0
??__E?_Iostream_object@?$_Error_objects@H@std@@2V_Iostream_error_category@2@A@@YAXXZ ENDP ; `dynamic initializer for 'std::_Error_objects<int>::_Iostream_object''
text$yc	ENDS
; Function compile flags: /Odtp
;	COMDAT ??__F?_Generic_object@?$_Error_objects@H@std@@2V_Generic_error_category@2@A@@YAXXZ
text$yd	SEGMENT
??__F?_Generic_object@?$_Error_objects@H@std@@2V_Generic_error_category@2@A@@YAXXZ PROC ; `dynamic atexit destructor for 'std::_Error_objects<int>::_Generic_object'', COMDAT
	push	ebp
	mov	ebp, esp
	mov	ecx, OFFSET ?_Generic_object@?$_Error_objects@H@std@@2V_Generic_error_category@2@A ; std::_Error_objects<int>::_Generic_object
	call	??1_Generic_error_category@std@@UAE@XZ
	pop	ebp
	ret	0
??__F?_Generic_object@?$_Error_objects@H@std@@2V_Generic_error_category@2@A@@YAXXZ ENDP ; `dynamic atexit destructor for 'std::_Error_objects<int>::_Generic_object''
text$yd	ENDS
; Function compile flags: /Odtp
; File c:\program files (x86)\microsoft visual studio 11.0\vc\include\xmemory0
;	COMDAT ??__E?_Generic_object@?$_Error_objects@H@std@@2V_Generic_error_category@2@A@@YAXXZ
text$yc	SEGMENT
??__E?_Generic_object@?$_Error_objects@H@std@@2V_Generic_error_category@2@A@@YAXXZ PROC ; `dynamic initializer for 'std::_Error_objects<int>::_Generic_object'', COMDAT

; 627  : 		{	// estimate maximum array size

	push	ebp
	mov	ebp, esp
	mov	ecx, OFFSET ?_Generic_object@?$_Error_objects@H@std@@2V_Generic_error_category@2@A ; std::_Error_objects<int>::_Generic_object
	call	??0_Generic_error_category@std@@QAE@XZ	; std::_Generic_error_category::_Generic_error_category
	push	OFFSET ??__F?_Generic_object@?$_Error_objects@H@std@@2V_Generic_error_category@2@A@@YAXXZ ; `dynamic atexit destructor for 'std::_Error_objects<int>::_Generic_object''
	call	_atexit
	add	esp, 4
	pop	ebp
	ret	0
??__E?_Generic_object@?$_Error_objects@H@std@@2V_Generic_error_category@2@A@@YAXXZ ENDP ; `dynamic initializer for 'std::_Error_objects<int>::_Generic_object''
text$yc	ENDS
; Function compile flags: /Odtp
; File c:\program files (x86)\microsoft visual studio 11.0\vc\include\xmemory0
;	COMDAT ??$_Allocate@D@std@@YAPADIPAD@Z
_TEXT	SEGMENT
__Ptr$ = -4						; size = 4
__Count$ = 8						; size = 4
___formal$ = 12						; size = 4
??$_Allocate@D@std@@YAPADIPAD@Z PROC			; std::_Allocate<char>, COMDAT

; 22   : 	{	// allocate storage for _Count elements of type _Ty

	push	ebp
	mov	ebp, esp
	push	ecx

; 23   : 	void *_Ptr = 0;

	mov	DWORD PTR __Ptr$[ebp], 0

; 24   : 
; 25   : 	if (_Count == 0)

	cmp	DWORD PTR __Count$[ebp], 0
	jne	SHORT $LN4@Allocate

; 26   : 		;
; 27   : 	else if (((size_t)(-1) / sizeof (_Ty) < _Count)

	jmp	SHORT $LN3@Allocate
$LN4@Allocate:

; 28   : 		|| (_Ptr = ::operator new(_Count * sizeof (_Ty))) == 0)

	cmp	DWORD PTR __Count$[ebp], -1
	ja	SHORT $LN1@Allocate
	mov	eax, DWORD PTR __Count$[ebp]
	push	eax
	call	??2@YAPAXI@Z				; operator new
	add	esp, 4
	mov	DWORD PTR __Ptr$[ebp], eax
	cmp	DWORD PTR __Ptr$[ebp], 0
	jne	SHORT $LN3@Allocate
$LN1@Allocate:

; 29   : 		_Xbad_alloc();	// report no memory

	call	?_Xbad_alloc@std@@YAXXZ			; std::_Xbad_alloc
$LN3@Allocate:

; 30   : 
; 31   : 	return ((_Ty *)_Ptr);

	mov	eax, DWORD PTR __Ptr$[ebp]
$LN6@Allocate:

; 32   : 	}

	mov	esp, ebp
	pop	ebp
	ret	0
??$_Allocate@D@std@@YAPADIPAD@Z ENDP			; std::_Allocate<char>
_TEXT	ENDS
; Function compile flags: /Odtp
; File c:\program files (x86)\microsoft visual studio 11.0\vc\include\xstddef
;	COMDAT ??$addressof@D@std@@YAPADAAD@Z
_TEXT	SEGMENT
__Val$ = 8						; size = 4
??$addressof@D@std@@YAPADAAD@Z PROC			; std::addressof<char>, COMDAT

; 85   : 	{	// return address of _Val

	push	ebp
	mov	ebp, esp

; 86   : 	return (reinterpret_cast<_Ty *>(
; 87   : 		(&const_cast<char&>(
; 88   : 		reinterpret_cast<const volatile char&>(_Val)))));

	mov	eax, DWORD PTR __Val$[ebp]

; 89   : 	}

	pop	ebp
	ret	0
??$addressof@D@std@@YAPADAAD@Z ENDP			; std::addressof<char>
_TEXT	ENDS
; Function compile flags: /Odtp
; File c:\program files (x86)\microsoft visual studio 11.0\vc\include\xmemory0
;	COMDAT ??$destroy@PAD@?$_Wrap_alloc@V?$allocator@D@std@@@std@@QAEXPAPAD@Z
_TEXT	SEGMENT
_this$ = -4						; size = 4
__Ptr$ = 8						; size = 4
??$destroy@PAD@?$_Wrap_alloc@V?$allocator@D@std@@@std@@QAEXPAPAD@Z PROC ; std::_Wrap_alloc<std::allocator<char> >::destroy<char *>, COMDAT
; _this$ = ecx

; 907  : 		void destroy(_Ty *_Ptr)

	push	ebp
	mov	ebp, esp
	push	ecx
	mov	DWORD PTR _this$[ebp], ecx

; 908  : 		{	// destroy object at _Ptr
; 909  : 		_Mytraits::destroy(*this, _Ptr);

	mov	eax, DWORD PTR __Ptr$[ebp]
	push	eax
	mov	ecx, DWORD PTR _this$[ebp]
	push	ecx
	call	??$destroy@PAD@?$allocator_traits@V?$allocator@D@std@@@std@@SAXAAV?$allocator@D@1@PAPAD@Z ; std::allocator_traits<std::allocator<char> >::destroy<char *>
	add	esp, 8

; 910  : 		}

	mov	esp, ebp
	pop	ebp
	ret	4
??$destroy@PAD@?$_Wrap_alloc@V?$allocator@D@std@@@std@@QAEXPAPAD@Z ENDP ; std::_Wrap_alloc<std::allocator<char> >::destroy<char *>
_TEXT	ENDS
; Function compile flags: /Odtp
; File c:\program files (x86)\microsoft visual studio 11.0\vc\include\xmemory0
;	COMDAT ??$construct@PADAAPAD@?$_Wrap_alloc@V?$allocator@D@std@@@std@@QAEXPAPADAAPAD@Z
_TEXT	SEGMENT
_this$ = -4						; size = 4
__Ptr$ = 8						; size = 4
__V0$ = 12						; size = 4
??$construct@PADAAPAD@?$_Wrap_alloc@V?$allocator@D@std@@@std@@QAEXPAPADAAPAD@Z PROC ; std::_Wrap_alloc<std::allocator<char> >::construct<char *,char * &>, COMDAT
; _this$ = ecx

; 903  : _VARIADIC_EXPAND_0X(_WRAP_ALLOC_CONSTRUCT, , , , )

	push	ebp
	mov	ebp, esp
	push	ecx
	mov	DWORD PTR _this$[ebp], ecx
	mov	eax, DWORD PTR __V0$[ebp]
	push	eax
	call	??$forward@AAPAD@std@@YAAAPADAAPAD@Z	; std::forward<char * &>
	add	esp, 4
	push	eax
	mov	ecx, DWORD PTR __Ptr$[ebp]
	push	ecx
	mov	edx, DWORD PTR _this$[ebp]
	push	edx
	call	??$construct@PADAAPAD@?$allocator_traits@V?$allocator@D@std@@@std@@SAXAAV?$allocator@D@1@PAPADAAPAD@Z ; std::allocator_traits<std::allocator<char> >::construct<char *,char * &>
	add	esp, 12					; 0000000cH
	mov	esp, ebp
	pop	ebp
	ret	8
??$construct@PADAAPAD@?$_Wrap_alloc@V?$allocator@D@std@@@std@@QAEXPAPADAAPAD@Z ENDP ; std::_Wrap_alloc<std::allocator<char> >::construct<char *,char * &>
_TEXT	ENDS
; Function compile flags: /Odtp
; File c:\users\zhitao li\documents\visual studio 2012\projects\freefalcon\ui\src\comms\ui_comms.cpp
_TEXT	SEGMENT
_curChannel$ = -12					; size = 4
_curRadio$ = -8						; size = 4
tv70 = -4						; size = 4
?SendTextMessageToChannel@@YAXXZ PROC			; SendTextMessageToChannel

; 2242 : {

	push	ebp
	mov	ebp, esp
	sub	esp, 12					; 0000000cH

; 2243 : 	int curChannel,curRadio;
; 2244 : 
; 2245 : 	if(VM)

	cmp	DWORD PTR ?VM@@3PAVVoiceManager@@A, 0	; VM
	je	SHORT $LN11@SendTextMe

; 2246 : 	{
; 2247 : 		curRadio=VM->Radio();

	mov	ecx, DWORD PTR ?VM@@3PAVVoiceManager@@A	; VM
	call	?Radio@VoiceManager@@QAEHXZ		; VoiceManager::Radio
	mov	DWORD PTR _curRadio$[ebp], eax

; 2248 : 		curChannel=VM->GetRadioFreq(curRadio);

	mov	eax, DWORD PTR _curRadio$[ebp]
	push	eax
	mov	ecx, DWORD PTR ?VM@@3PAVVoiceManager@@A	; VM
	call	?GetRadioFreq@VoiceManager@@QAEHH@Z	; VoiceManager::GetRadioFreq
	mov	DWORD PTR _curChannel$[ebp], eax

; 2249 : 
; 2250 : 		switch(curChannel)

	mov	ecx, DWORD PTR _curChannel$[ebp]
	mov	DWORD PTR tv70[ebp], ecx
	mov	edx, DWORD PTR tv70[ebp]
	sub	edx, 1
	mov	DWORD PTR tv70[ebp], edx
	cmp	DWORD PTR tv70[ebp], 13			; 0000000dH
	ja	SHORT $LN11@SendTextMe
	mov	eax, DWORD PTR tv70[ebp]
	movzx	ecx, BYTE PTR $LN13@SendTextMe[eax]
	jmp	DWORD PTR $LN14@SendTextMe[ecx*4]

; 2251 : 		{
; 2252 : 			case rcfOff:
; 2253 : 				break;

	jmp	SHORT $LN11@SendTextMe
$LN6@SendTextMe:

; 2254 : 			case rcfFlight1:
; 2255 : 			case rcfFlight2:
; 2256 : 			case rcfFlight3:
; 2257 : 			case rcfFlight4:
; 2258 : 			case rcfFlight5:
; 2259 : 				SendTextToFlight();

	call	?SendTextToFlight@@YAXXZ		; SendTextToFlight

; 2260 : 				break;

	jmp	SHORT $LN11@SendTextMe
$LN5@SendTextMe:

; 2261 : 			case rcfPackage1:
; 2262 : 			case rcfPackage2:
; 2263 : 			case rcfPackage3:
; 2264 : 			case rcfPackage4:
; 2265 : 			case rcfPackage5:
; 2266 : 			
; 2267 : 				SendTextToPackage();

	call	?SendTextToPackage@@YAXXZ		; SendTextToPackage

; 2268 : 				break;

	jmp	SHORT $LN11@SendTextMe
$LN4@SendTextMe:

; 2269 : 			case rcfFromPackage:
; 2270 : 				SendTextToPackage();

	call	?SendTextToPackage@@YAXXZ		; SendTextToPackage

; 2271 : 				break;

	jmp	SHORT $LN11@SendTextMe
$LN3@SendTextMe:

; 2272 : 			case rcfProx: // 40nm range
; 2273 : 				SendTextToRange();

	call	?SendTextToRange@@YAXXZ			; SendTextToRange

; 2274 : 				break;

	jmp	SHORT $LN11@SendTextMe
$LN2@SendTextMe:

; 2275 : 			case rcfTeam:
; 2276 : 				SendTextToTeam();

	call	?SendTextToTeam@@YAXXZ			; SendTextToTeam

; 2277 : 				break;

	jmp	SHORT $LN11@SendTextMe
$LN1@SendTextMe:

; 2278 : 			case rcfAll:
; 2279 : 				SendTextToEveryOne();

	call	?SendTextToEveryOne@@YAXXZ		; SendTextToEveryOne
$LN11@SendTextMe:

; 2280 : 				break;
; 2281 : 		}
; 2282 : 	}
; 2283 : }

	mov	esp, ebp
	pop	ebp
	ret	0
	npad	1
$LN14@SendTextMe:
	DD	$LN6@SendTextMe
	DD	$LN5@SendTextMe
	DD	$LN4@SendTextMe
	DD	$LN3@SendTextMe
	DD	$LN2@SendTextMe
	DD	$LN1@SendTextMe
$LN13@SendTextMe:
	DB	0
	DB	0
	DB	0
	DB	0
	DB	0
	DB	1
	DB	1
	DB	1
	DB	1
	DB	1
	DB	2
	DB	3
	DB	4
	DB	5
?SendTextMessageToChannel@@YAXXZ ENDP			; SendTextMessageToChannel
_TEXT	ENDS
; Function compile flags: /Odtp
; File c:\users\zhitao li\documents\visual studio 2012\projects\freefalcon\ui\src\comms\ui_comms.cpp
_TEXT	SEGMENT
_sessionWalker$ = -52					; size = 12
$T2 = -40						; size = 4
$T3 = -36						; size = 4
tv138 = -32						; size = 4
$T4 = -28						; size = 4
tv81 = -24						; size = 4
_session$ = -20						; size = 4
_chat$ = -16						; size = 4
__$EHRec$ = -12						; size = 12
?SendTextToEveryOne@@YAXXZ PROC				; SendTextToEveryOne

; 2220 : {

	push	ebp
	mov	ebp, esp
	push	-1
	push	__ehhandler$?SendTextToEveryOne@@YAXXZ
	mov	eax, DWORD PTR fs:0
	push	eax
	sub	esp, 40					; 00000028H
	mov	eax, DWORD PTR ___security_cookie
	xor	eax, ebp
	push	eax
	lea	eax, DWORD PTR __$EHRec$[ebp]
	mov	DWORD PTR fs:0, eax

; 2221 : 	VuSessionsIterator sessionWalker(FalconLocalGame);

	mov	ecx, OFFSET ?vuLocalSessionEntity@@3V?$VuBin@VVuSessionEntity@@@@A ; vuLocalSessionEntity
	call	??B?$VuBin@VVuSessionEntity@@@@QBE_NXZ	; VuBin<VuSessionEntity>::operator bool
	movzx	eax, al
	test	eax, eax
	je	SHORT $LN5@SendTextTo
	mov	ecx, OFFSET ?vuLocalSessionEntity@@3V?$VuBin@VVuSessionEntity@@@@A ; vuLocalSessionEntity
	call	?get@?$VuBin@VVuSessionEntity@@@@QBEPAVVuSessionEntity@@XZ ; VuBin<VuSessionEntity>::get
	mov	ecx, eax
	call	?GetGame@FalconSessionEntity@@QAEPAVFalconGameEntity@@XZ ; FalconSessionEntity::GetGame
	mov	DWORD PTR tv81[ebp], eax
	jmp	SHORT $LN6@SendTextTo
$LN5@SendTextTo:
	mov	DWORD PTR tv81[ebp], 0
$LN6@SendTextTo:
	mov	ecx, DWORD PTR tv81[ebp]
	push	ecx
	lea	ecx, DWORD PTR _sessionWalker$[ebp]
	call	??0VuSessionsIterator@@QAE@PAVVuGroupEntity@@@Z ; VuSessionsIterator::VuSessionsIterator
	mov	DWORD PTR __$EHRec$[ebp+8], 0

; 2222 : 	FalconSessionEntity *session;
; 2223 : 	UI_SendChatMessage *chat;
; 2224 : 
; 2225 : 	session = (FalconSessionEntity*)sessionWalker.GetFirst();

	lea	ecx, DWORD PTR _sessionWalker$[ebp]
	call	?GetFirst@VuSessionsIterator@@QAEPAVVuSessionEntity@@XZ ; VuSessionsIterator::GetFirst
	mov	DWORD PTR _session$[ebp], eax
$LN2@SendTextTo:

; 2226 : 	while(session)

	cmp	DWORD PTR _session$[ebp], 0
	je	$LN1@SendTextTo

; 2227 : 	{
; 2228 : 		chat=new UI_SendChatMessage(FalconNullId,session);

	push	62					; 0000003eH
	call	??2@YAPAXI@Z				; operator new
	add	esp, 4
	mov	DWORD PTR $T4[ebp], eax
	mov	BYTE PTR __$EHRec$[ebp+8], 1
	cmp	DWORD PTR $T4[ebp], 0
	je	SHORT $LN7@SendTextTo
	push	1
	mov	edx, DWORD PTR _session$[ebp]
	push	edx
	mov	eax, DWORD PTR ?FalconNullId@@3VVU_ID@@A+4
	push	eax
	mov	ecx, DWORD PTR ?FalconNullId@@3VVU_ID@@A
	push	ecx
	mov	ecx, DWORD PTR $T4[ebp]
	call	??0UI_SendChatMessage@@QAE@VVU_ID@@PAVVuTargetEntity@@E@Z ; UI_SendChatMessage::UI_SendChatMessage
	mov	DWORD PTR tv138[ebp], eax
	jmp	SHORT $LN8@SendTextTo
$LN7@SendTextTo:
	mov	DWORD PTR tv138[ebp], 0
$LN8@SendTextTo:
	mov	edx, DWORD PTR tv138[ebp]
	mov	DWORD PTR $T3[ebp], edx
	mov	BYTE PTR __$EHRec$[ebp+8], 0
	mov	eax, DWORD PTR $T3[ebp]
	mov	DWORD PTR _chat$[ebp], eax

; 2229 : 
; 2230 : 		chat->dataBlock.from=FalconLocalSessionId;

	mov	ecx, DWORD PTR _chat$[ebp]
	mov	edx, DWORD PTR ?vuLocalSession@@3VVU_ID@@A
	mov	DWORD PTR [ecx+48], edx
	mov	eax, DWORD PTR ?vuLocalSession@@3VVU_ID@@A+4
	mov	DWORD PTR [ecx+52], eax

; 2231 : 		chat->dataBlock.size=static_cast<short>((strlen(chatterStr)+1)*sizeof(char));

	push	OFFSET ?chatterStr@@3PADA		; chatterStr
	call	_strlen
	add	esp, 4
	add	eax, 1
	mov	ecx, DWORD PTR _chat$[ebp]
	mov	WORD PTR [ecx+56], ax

; 2232 : 		chat->dataBlock.message=new char[chat->dataBlock.size];

	mov	edx, DWORD PTR _chat$[ebp]
	movsx	eax, WORD PTR [edx+56]
	push	eax
	call	??_U@YAPAXI@Z				; operator new[]
	add	esp, 4
	mov	DWORD PTR $T2[ebp], eax
	mov	ecx, DWORD PTR _chat$[ebp]
	mov	edx, DWORD PTR $T2[ebp]
	mov	DWORD PTR [ecx+58], edx

; 2233 : 		memcpy(chat->dataBlock.message,chatterStr,chat->dataBlock.size);

	mov	eax, DWORD PTR _chat$[ebp]
	movsx	ecx, WORD PTR [eax+56]
	push	ecx
	push	OFFSET ?chatterStr@@3PADA		; chatterStr
	mov	edx, DWORD PTR _chat$[ebp]
	mov	eax, DWORD PTR [edx+58]
	push	eax
	call	_memcpy
	add	esp, 12					; 0000000cH

; 2234 : 		FalconSendMessage(chat,TRUE);

	push	1
	mov	ecx, DWORD PTR _chat$[ebp]
	push	ecx
	call	?FalconSendMessage@@YAXPAVVuMessage@@H@Z ; FalconSendMessage
	add	esp, 8

; 2235 : 
; 2236 : 		session = (FalconSessionEntity*)sessionWalker.GetNext();

	lea	ecx, DWORD PTR _sessionWalker$[ebp]
	call	?GetNext@VuSessionsIterator@@QAEPAVVuSessionEntity@@XZ ; VuSessionsIterator::GetNext
	mov	DWORD PTR _session$[ebp], eax

; 2237 : 	}

	jmp	$LN2@SendTextTo
$LN1@SendTextTo:

; 2238 : }

	mov	DWORD PTR __$EHRec$[ebp+8], -1
	lea	ecx, DWORD PTR _sessionWalker$[ebp]
	call	??1VuSessionsIterator@@UAE@XZ		; VuSessionsIterator::~VuSessionsIterator
	mov	ecx, DWORD PTR __$EHRec$[ebp]
	mov	DWORD PTR fs:0, ecx
	pop	ecx
	mov	esp, ebp
	pop	ebp
	ret	0
_TEXT	ENDS
text$x	SEGMENT
__unwindfunclet$?SendTextToEveryOne@@YAXXZ$0:
	lea	ecx, DWORD PTR _sessionWalker$[ebp]
	jmp	??1VuSessionsIterator@@UAE@XZ		; VuSessionsIterator::~VuSessionsIterator
__unwindfunclet$?SendTextToEveryOne@@YAXXZ$1:
	mov	eax, DWORD PTR $T4[ebp]
	push	eax
	call	??3@YAXPAX@Z				; operator delete
	pop	ecx
	ret	0
__ehhandler$?SendTextToEveryOne@@YAXXZ:
	mov	edx, DWORD PTR [esp+8]
	lea	eax, DWORD PTR [edx+12]
	mov	ecx, DWORD PTR [edx-44]
	xor	ecx, eax
	call	@__security_check_cookie@4
	mov	eax, OFFSET __ehfuncinfo$?SendTextToEveryOne@@YAXXZ
	jmp	___CxxFrameHandler3
text$x	ENDS
?SendTextToEveryOne@@YAXXZ ENDP				; SendTextToEveryOne
; Function compile flags: /Odtp
; File c:\users\zhitao li\documents\visual studio 2012\projects\freefalcon\ui\src\comms\ui_comms.cpp
_TEXT	SEGMENT
_sessionWalker$ = -52					; size = 12
$T2 = -40						; size = 4
$T3 = -36						; size = 4
tv151 = -32						; size = 4
$T4 = -28						; size = 4
tv81 = -24						; size = 4
_session$ = -20						; size = 4
_chat$ = -16						; size = 4
__$EHRec$ = -12						; size = 12
?SendTextToTeam@@YAXXZ PROC				; SendTextToTeam

; 2196 : {

	push	ebp
	mov	ebp, esp
	push	-1
	push	__ehhandler$?SendTextToTeam@@YAXXZ
	mov	eax, DWORD PTR fs:0
	push	eax
	sub	esp, 40					; 00000028H
	push	esi
	mov	eax, DWORD PTR ___security_cookie
	xor	eax, ebp
	push	eax
	lea	eax, DWORD PTR __$EHRec$[ebp]
	mov	DWORD PTR fs:0, eax

; 2197 : 	VuSessionsIterator sessionWalker(FalconLocalGame);

	mov	ecx, OFFSET ?vuLocalSessionEntity@@3V?$VuBin@VVuSessionEntity@@@@A ; vuLocalSessionEntity
	call	??B?$VuBin@VVuSessionEntity@@@@QBE_NXZ	; VuBin<VuSessionEntity>::operator bool
	movzx	eax, al
	test	eax, eax
	je	SHORT $LN6@SendTextTo
	mov	ecx, OFFSET ?vuLocalSessionEntity@@3V?$VuBin@VVuSessionEntity@@@@A ; vuLocalSessionEntity
	call	?get@?$VuBin@VVuSessionEntity@@@@QBEPAVVuSessionEntity@@XZ ; VuBin<VuSessionEntity>::get
	mov	ecx, eax
	call	?GetGame@FalconSessionEntity@@QAEPAVFalconGameEntity@@XZ ; FalconSessionEntity::GetGame
	mov	DWORD PTR tv81[ebp], eax
	jmp	SHORT $LN7@SendTextTo
$LN6@SendTextTo:
	mov	DWORD PTR tv81[ebp], 0
$LN7@SendTextTo:
	mov	ecx, DWORD PTR tv81[ebp]
	push	ecx
	lea	ecx, DWORD PTR _sessionWalker$[ebp]
	call	??0VuSessionsIterator@@QAE@PAVVuGroupEntity@@@Z ; VuSessionsIterator::VuSessionsIterator
	mov	DWORD PTR __$EHRec$[ebp+8], 0

; 2198 : 	FalconSessionEntity *session;
; 2199 : 	UI_SendChatMessage *chat;
; 2200 : 
; 2201 : 	session = (FalconSessionEntity*)sessionWalker.GetFirst();

	lea	ecx, DWORD PTR _sessionWalker$[ebp]
	call	?GetFirst@VuSessionsIterator@@QAEPAVVuSessionEntity@@XZ ; VuSessionsIterator::GetFirst
	mov	DWORD PTR _session$[ebp], eax
$LN3@SendTextTo:

; 2202 : 	while(session)

	cmp	DWORD PTR _session$[ebp], 0
	je	$LN2@SendTextTo

; 2203 : 	{
; 2204 : 		if(session->GetTeam() == FalconLocalSession->GetTeam())

	mov	ecx, DWORD PTR _session$[ebp]
	call	?GetTeam@FalconSessionEntity@@QAEEXZ	; FalconSessionEntity::GetTeam
	movzx	esi, al
	mov	ecx, OFFSET ?vuLocalSessionEntity@@3V?$VuBin@VVuSessionEntity@@@@A ; vuLocalSessionEntity
	call	?get@?$VuBin@VVuSessionEntity@@@@QBEPAVVuSessionEntity@@XZ ; VuBin<VuSessionEntity>::get
	mov	ecx, eax
	call	?GetTeam@FalconSessionEntity@@QAEEXZ	; FalconSessionEntity::GetTeam
	movzx	edx, al
	cmp	esi, edx
	jne	$LN1@SendTextTo

; 2205 : 		{
; 2206 : 			chat=new UI_SendChatMessage(FalconNullId,session);

	push	62					; 0000003eH
	call	??2@YAPAXI@Z				; operator new
	add	esp, 4
	mov	DWORD PTR $T4[ebp], eax
	mov	BYTE PTR __$EHRec$[ebp+8], 1
	cmp	DWORD PTR $T4[ebp], 0
	je	SHORT $LN8@SendTextTo
	push	1
	mov	eax, DWORD PTR _session$[ebp]
	push	eax
	mov	ecx, DWORD PTR ?FalconNullId@@3VVU_ID@@A+4
	push	ecx
	mov	edx, DWORD PTR ?FalconNullId@@3VVU_ID@@A
	push	edx
	mov	ecx, DWORD PTR $T4[ebp]
	call	??0UI_SendChatMessage@@QAE@VVU_ID@@PAVVuTargetEntity@@E@Z ; UI_SendChatMessage::UI_SendChatMessage
	mov	DWORD PTR tv151[ebp], eax
	jmp	SHORT $LN9@SendTextTo
$LN8@SendTextTo:
	mov	DWORD PTR tv151[ebp], 0
$LN9@SendTextTo:
	mov	eax, DWORD PTR tv151[ebp]
	mov	DWORD PTR $T3[ebp], eax
	mov	BYTE PTR __$EHRec$[ebp+8], 0
	mov	ecx, DWORD PTR $T3[ebp]
	mov	DWORD PTR _chat$[ebp], ecx

; 2207 : 
; 2208 : 			chat->dataBlock.from=FalconLocalSessionId;

	mov	edx, DWORD PTR _chat$[ebp]
	mov	eax, DWORD PTR ?vuLocalSession@@3VVU_ID@@A
	mov	DWORD PTR [edx+48], eax
	mov	ecx, DWORD PTR ?vuLocalSession@@3VVU_ID@@A+4
	mov	DWORD PTR [edx+52], ecx

; 2209 : 			chat->dataBlock.size=static_cast<short>((strlen(chatterStr)+1)*sizeof(char));

	push	OFFSET ?chatterStr@@3PADA		; chatterStr
	call	_strlen
	add	esp, 4
	add	eax, 1
	mov	edx, DWORD PTR _chat$[ebp]
	mov	WORD PTR [edx+56], ax

; 2210 : 			chat->dataBlock.message=new char[chat->dataBlock.size];

	mov	eax, DWORD PTR _chat$[ebp]
	movsx	ecx, WORD PTR [eax+56]
	push	ecx
	call	??_U@YAPAXI@Z				; operator new[]
	add	esp, 4
	mov	DWORD PTR $T2[ebp], eax
	mov	edx, DWORD PTR _chat$[ebp]
	mov	eax, DWORD PTR $T2[ebp]
	mov	DWORD PTR [edx+58], eax

; 2211 : 			memcpy(chat->dataBlock.message,chatterStr,chat->dataBlock.size);

	mov	ecx, DWORD PTR _chat$[ebp]
	movsx	edx, WORD PTR [ecx+56]
	push	edx
	push	OFFSET ?chatterStr@@3PADA		; chatterStr
	mov	eax, DWORD PTR _chat$[ebp]
	mov	ecx, DWORD PTR [eax+58]
	push	ecx
	call	_memcpy
	add	esp, 12					; 0000000cH

; 2212 : 			FalconSendMessage(chat,TRUE);

	push	1
	mov	edx, DWORD PTR _chat$[ebp]
	push	edx
	call	?FalconSendMessage@@YAXPAVVuMessage@@H@Z ; FalconSendMessage
	add	esp, 8
$LN1@SendTextTo:

; 2213 : 		}
; 2214 : 		session = (FalconSessionEntity*)sessionWalker.GetNext();

	lea	ecx, DWORD PTR _sessionWalker$[ebp]
	call	?GetNext@VuSessionsIterator@@QAEPAVVuSessionEntity@@XZ ; VuSessionsIterator::GetNext
	mov	DWORD PTR _session$[ebp], eax

; 2215 : 	}

	jmp	$LN3@SendTextTo
$LN2@SendTextTo:

; 2216 : 
; 2217 : }

	mov	DWORD PTR __$EHRec$[ebp+8], -1
	lea	ecx, DWORD PTR _sessionWalker$[ebp]
	call	??1VuSessionsIterator@@UAE@XZ		; VuSessionsIterator::~VuSessionsIterator
	mov	ecx, DWORD PTR __$EHRec$[ebp]
	mov	DWORD PTR fs:0, ecx
	pop	ecx
	pop	esi
	mov	esp, ebp
	pop	ebp
	ret	0
_TEXT	ENDS
text$x	SEGMENT
__unwindfunclet$?SendTextToTeam@@YAXXZ$0:
	lea	ecx, DWORD PTR _sessionWalker$[ebp]
	jmp	??1VuSessionsIterator@@UAE@XZ		; VuSessionsIterator::~VuSessionsIterator
__unwindfunclet$?SendTextToTeam@@YAXXZ$1:
	mov	eax, DWORD PTR $T4[ebp]
	push	eax
	call	??3@YAXPAX@Z				; operator delete
	pop	ecx
	ret	0
__ehhandler$?SendTextToTeam@@YAXXZ:
	mov	edx, DWORD PTR [esp+8]
	lea	eax, DWORD PTR [edx+12]
	mov	ecx, DWORD PTR [edx-48]
	xor	ecx, eax
	call	@__security_check_cookie@4
	mov	eax, OFFSET __ehfuncinfo$?SendTextToTeam@@YAXXZ
	jmp	___CxxFrameHandler3
text$x	ENDS
?SendTextToTeam@@YAXXZ ENDP				; SendTextToTeam
; Function compile flags: /Odtp
; File c:\users\zhitao li\documents\visual studio 2012\projects\freefalcon\ui\src\comms\ui_comms.cpp
_TEXT	SEGMENT
_sessionWalker$ = -88					; size = 12
$T2 = -76						; size = 4
$T3 = -72						; size = 4
_dist$ = -68						; size = 4
tv238 = -64						; size = 4
_sy$ = -60						; size = 4
_myy$ = -56						; size = 4
_sx$ = -52						; size = 4
_myx$ = -48						; size = 4
tv175 = -44						; size = 4
$T4 = -40						; size = 4
_dy$ = -36						; size = 4
_dx$ = -32						; size = 4
tv81 = -28						; size = 4
_session$ = -24						; size = 4
_chat$ = -20						; size = 4
_ent$ = -16						; size = 4
__$EHRec$ = -12						; size = 12
?SendTextToRange@@YAXXZ PROC				; SendTextToRange

; 2152 : {

	push	ebp
	mov	ebp, esp
	push	-1
	push	__ehhandler$?SendTextToRange@@YAXXZ
	mov	eax, DWORD PTR fs:0
	push	eax
	sub	esp, 76					; 0000004cH
	mov	eax, DWORD PTR ___security_cookie
	xor	eax, ebp
	push	eax
	lea	eax, DWORD PTR __$EHRec$[ebp]
	mov	DWORD PTR fs:0, eax

; 2153 : 	VuSessionsIterator sessionWalker(FalconLocalGame);

	mov	ecx, OFFSET ?vuLocalSessionEntity@@3V?$VuBin@VVuSessionEntity@@@@A ; vuLocalSessionEntity
	call	??B?$VuBin@VVuSessionEntity@@@@QBE_NXZ	; VuBin<VuSessionEntity>::operator bool
	movzx	eax, al
	test	eax, eax
	je	SHORT $LN8@SendTextTo
	mov	ecx, OFFSET ?vuLocalSessionEntity@@3V?$VuBin@VVuSessionEntity@@@@A ; vuLocalSessionEntity
	call	?get@?$VuBin@VVuSessionEntity@@@@QBEPAVVuSessionEntity@@XZ ; VuBin<VuSessionEntity>::get
	mov	ecx, eax
	call	?GetGame@FalconSessionEntity@@QAEPAVFalconGameEntity@@XZ ; FalconSessionEntity::GetGame
	mov	DWORD PTR tv81[ebp], eax
	jmp	SHORT $LN9@SendTextTo
$LN8@SendTextTo:
	mov	DWORD PTR tv81[ebp], 0
$LN9@SendTextTo:
	mov	ecx, DWORD PTR tv81[ebp]
	push	ecx
	lea	ecx, DWORD PTR _sessionWalker$[ebp]
	call	??0VuSessionsIterator@@QAE@PAVVuGroupEntity@@@Z ; VuSessionsIterator::VuSessionsIterator
	mov	DWORD PTR __$EHRec$[ebp+8], 0

; 2154 : 	FalconSessionEntity *session;
; 2155 : 	UI_SendChatMessage *chat;
; 2156 : 	float myx,sx,myy,sy,dx,dy,dist;
; 2157 : 	VuEntity *ent;
; 2158 : 
; 2159 : 	ent=FalconLocalSession->GetPlayerEntity();

	mov	ecx, OFFSET ?vuLocalSessionEntity@@3V?$VuBin@VVuSessionEntity@@@@A ; vuLocalSessionEntity
	call	?get@?$VuBin@VVuSessionEntity@@@@QBEPAVVuSessionEntity@@XZ ; VuBin<VuSessionEntity>::get
	mov	ecx, eax
	call	?GetPlayerEntity@FalconSessionEntity@@QBEPAVFalconEntity@@XZ ; FalconSessionEntity::GetPlayerEntity
	mov	DWORD PTR _ent$[ebp], eax

; 2160 : 	if(!ent)

	cmp	DWORD PTR _ent$[ebp], 0
	jne	SHORT $LN5@SendTextTo

; 2161 : 		return;

	mov	DWORD PTR __$EHRec$[ebp+8], -1
	lea	ecx, DWORD PTR _sessionWalker$[ebp]
	call	??1VuSessionsIterator@@UAE@XZ		; VuSessionsIterator::~VuSessionsIterator
	jmp	$LN6@SendTextTo
$LN5@SendTextTo:

; 2162 : 
; 2163 : 	myx=ent->XPos();

	mov	ecx, DWORD PTR _ent$[ebp]
	call	?XPos@VuEntity@@QBEMXZ			; VuEntity::XPos
	fstp	DWORD PTR _myx$[ebp]

; 2164 : 	myy=ent->YPos();

	mov	ecx, DWORD PTR _ent$[ebp]
	call	?YPos@VuEntity@@QBEMXZ			; VuEntity::YPos
	fstp	DWORD PTR _myy$[ebp]

; 2165 : 
; 2166 : 	session = (FalconSessionEntity*)sessionWalker.GetFirst();

	lea	ecx, DWORD PTR _sessionWalker$[ebp]
	call	?GetFirst@VuSessionsIterator@@QAEPAVVuSessionEntity@@XZ ; VuSessionsIterator::GetFirst
	mov	DWORD PTR _session$[ebp], eax
$LN4@SendTextTo:

; 2167 : 	while(session)

	cmp	DWORD PTR _session$[ebp], 0
	je	$LN3@SendTextTo

; 2168 : 	{
; 2169 : 		ent=session->GetPlayerEntity();

	mov	ecx, DWORD PTR _session$[ebp]
	call	?GetPlayerEntity@FalconSessionEntity@@QBEPAVFalconEntity@@XZ ; FalconSessionEntity::GetPlayerEntity
	mov	DWORD PTR _ent$[ebp], eax

; 2170 : 		if(ent)

	cmp	DWORD PTR _ent$[ebp], 0
	je	$LN1@SendTextTo

; 2171 : 		{
; 2172 : 			sx=ent->XPos();

	mov	ecx, DWORD PTR _ent$[ebp]
	call	?XPos@VuEntity@@QBEMXZ			; VuEntity::XPos
	fstp	DWORD PTR _sx$[ebp]

; 2173 : 			sy=ent->YPos();

	mov	ecx, DWORD PTR _ent$[ebp]
	call	?YPos@VuEntity@@QBEMXZ			; VuEntity::YPos
	fstp	DWORD PTR _sy$[ebp]

; 2174 : 
; 2175 : 			dx=myx-sx;

	movss	xmm0, DWORD PTR _myx$[ebp]
	subss	xmm0, DWORD PTR _sx$[ebp]
	movss	DWORD PTR _dx$[ebp], xmm0

; 2176 : 			dy=myy-sy;

	movss	xmm0, DWORD PTR _myy$[ebp]
	subss	xmm0, DWORD PTR _sy$[ebp]
	movss	DWORD PTR _dy$[ebp], xmm0

; 2177 : 
; 2178 : 			dist=static_cast<float>(sqrt(dx*dx+dy*dy) * FT_TO_NM);

	movss	xmm0, DWORD PTR _dx$[ebp]
	mulss	xmm0, DWORD PTR _dx$[ebp]
	movss	xmm1, DWORD PTR _dy$[ebp]
	mulss	xmm1, DWORD PTR _dy$[ebp]
	addss	xmm0, xmm1
	push	ecx
	movss	DWORD PTR [esp], xmm0
	call	?SqrtSSE@@YAMM@Z			; SqrtSSE
	add	esp, 4
	fstp	DWORD PTR tv238[ebp]
	movss	xmm0, DWORD PTR tv238[ebp]
	mulss	xmm0, DWORD PTR __real@392c987a
	movss	DWORD PTR _dist$[ebp], xmm0

; 2179 : 
; 2180 : 			if(dist <= 40.0f)

	movss	xmm0, DWORD PTR __real@42200000
	comiss	xmm0, DWORD PTR _dist$[ebp]
	jb	$LN1@SendTextTo

; 2181 : 			{
; 2182 : 				chat=new UI_SendChatMessage(FalconNullId,session);

	push	62					; 0000003eH
	call	??2@YAPAXI@Z				; operator new
	add	esp, 4
	mov	DWORD PTR $T4[ebp], eax
	mov	BYTE PTR __$EHRec$[ebp+8], 1
	cmp	DWORD PTR $T4[ebp], 0
	je	SHORT $LN10@SendTextTo
	push	1
	mov	edx, DWORD PTR _session$[ebp]
	push	edx
	mov	eax, DWORD PTR ?FalconNullId@@3VVU_ID@@A+4
	push	eax
	mov	ecx, DWORD PTR ?FalconNullId@@3VVU_ID@@A
	push	ecx
	mov	ecx, DWORD PTR $T4[ebp]
	call	??0UI_SendChatMessage@@QAE@VVU_ID@@PAVVuTargetEntity@@E@Z ; UI_SendChatMessage::UI_SendChatMessage
	mov	DWORD PTR tv175[ebp], eax
	jmp	SHORT $LN11@SendTextTo
$LN10@SendTextTo:
	mov	DWORD PTR tv175[ebp], 0
$LN11@SendTextTo:
	mov	edx, DWORD PTR tv175[ebp]
	mov	DWORD PTR $T3[ebp], edx
	mov	BYTE PTR __$EHRec$[ebp+8], 0
	mov	eax, DWORD PTR $T3[ebp]
	mov	DWORD PTR _chat$[ebp], eax

; 2183 : 
; 2184 : 				chat->dataBlock.from=FalconLocalSessionId;

	mov	ecx, DWORD PTR _chat$[ebp]
	mov	edx, DWORD PTR ?vuLocalSession@@3VVU_ID@@A
	mov	DWORD PTR [ecx+48], edx
	mov	eax, DWORD PTR ?vuLocalSession@@3VVU_ID@@A+4
	mov	DWORD PTR [ecx+52], eax

; 2185 : 				chat->dataBlock.size=static_cast<short>((strlen(chatterStr)+1)*sizeof(char));

	push	OFFSET ?chatterStr@@3PADA		; chatterStr
	call	_strlen
	add	esp, 4
	add	eax, 1
	mov	ecx, DWORD PTR _chat$[ebp]
	mov	WORD PTR [ecx+56], ax

; 2186 : 				chat->dataBlock.message=new char[chat->dataBlock.size];

	mov	edx, DWORD PTR _chat$[ebp]
	movsx	eax, WORD PTR [edx+56]
	push	eax
	call	??_U@YAPAXI@Z				; operator new[]
	add	esp, 4
	mov	DWORD PTR $T2[ebp], eax
	mov	ecx, DWORD PTR _chat$[ebp]
	mov	edx, DWORD PTR $T2[ebp]
	mov	DWORD PTR [ecx+58], edx

; 2187 : 				memcpy(chat->dataBlock.message,chatterStr,chat->dataBlock.size);

	mov	eax, DWORD PTR _chat$[ebp]
	movsx	ecx, WORD PTR [eax+56]
	push	ecx
	push	OFFSET ?chatterStr@@3PADA		; chatterStr
	mov	edx, DWORD PTR _chat$[ebp]
	mov	eax, DWORD PTR [edx+58]
	push	eax
	call	_memcpy
	add	esp, 12					; 0000000cH

; 2188 : 				FalconSendMessage(chat,TRUE);

	push	1
	mov	ecx, DWORD PTR _chat$[ebp]
	push	ecx
	call	?FalconSendMessage@@YAXPAVVuMessage@@H@Z ; FalconSendMessage
	add	esp, 8
$LN1@SendTextTo:

; 2189 : 			}
; 2190 : 		}
; 2191 : 		session = (FalconSessionEntity*)sessionWalker.GetNext();

	lea	ecx, DWORD PTR _sessionWalker$[ebp]
	call	?GetNext@VuSessionsIterator@@QAEPAVVuSessionEntity@@XZ ; VuSessionsIterator::GetNext
	mov	DWORD PTR _session$[ebp], eax

; 2192 : 	}

	jmp	$LN4@SendTextTo
$LN3@SendTextTo:

; 2193 : }

	mov	DWORD PTR __$EHRec$[ebp+8], -1
	lea	ecx, DWORD PTR _sessionWalker$[ebp]
	call	??1VuSessionsIterator@@UAE@XZ		; VuSessionsIterator::~VuSessionsIterator
$LN6@SendTextTo:
	mov	ecx, DWORD PTR __$EHRec$[ebp]
	mov	DWORD PTR fs:0, ecx
	pop	ecx
	mov	esp, ebp
	pop	ebp
	ret	0
_TEXT	ENDS
text$x	SEGMENT
__unwindfunclet$?SendTextToRange@@YAXXZ$0:
	lea	ecx, DWORD PTR _sessionWalker$[ebp]
	jmp	??1VuSessionsIterator@@UAE@XZ		; VuSessionsIterator::~VuSessionsIterator
__unwindfunclet$?SendTextToRange@@YAXXZ$1:
	mov	eax, DWORD PTR $T4[ebp]
	push	eax
	call	??3@YAXPAX@Z				; operator delete
	pop	ecx
	ret	0
__ehhandler$?SendTextToRange@@YAXXZ:
	mov	edx, DWORD PTR [esp+8]
	lea	eax, DWORD PTR [edx+12]
	mov	ecx, DWORD PTR [edx-80]
	xor	ecx, eax
	call	@__security_check_cookie@4
	mov	eax, OFFSET __ehfuncinfo$?SendTextToRange@@YAXXZ
	jmp	___CxxFrameHandler3
text$x	ENDS
?SendTextToRange@@YAXXZ ENDP				; SendTextToRange
; Function compile flags: /Odtp
; File c:\users\zhitao li\documents\visual studio 2012\projects\freefalcon\ui\src\comms\ui_comms.cpp
_TEXT	SEGMENT
_sessionWalker$ = -100					; size = 12
$T2 = -88						; size = 8
$T3 = -80						; size = 8
$T4 = -72						; size = 8
$T5 = -64						; size = 8
_MyPackageID$ = -56					; size = 8
$T6 = -48						; size = 4
$T7 = -44						; size = 4
tv205 = -40						; size = 4
$T8 = -36						; size = 4
tv82 = -32						; size = 4
_session$ = -28						; size = 4
_pkg$ = -24						; size = 4
_chat$ = -20						; size = 4
_flt$ = -16						; size = 4
__$EHRec$ = -12						; size = 12
?SendTextToPackage@@YAXXZ PROC				; SendTextToPackage

; 2110 : {

	push	ebp
	mov	ebp, esp
	push	-1
	push	__ehhandler$?SendTextToPackage@@YAXXZ
	mov	eax, DWORD PTR fs:0
	push	eax
	sub	esp, 88					; 00000058H
	mov	eax, DWORD PTR ___security_cookie
	xor	eax, ebp
	push	eax
	lea	eax, DWORD PTR __$EHRec$[ebp]
	mov	DWORD PTR fs:0, eax

; 2111 : 	Flight flt;
; 2112 : 	Package pkg;
; 2113 : 	VU_ID MyPackageID;

	lea	ecx, DWORD PTR _MyPackageID$[ebp]
	call	??0VU_ID@@QAE@XZ			; VU_ID::VU_ID

; 2114 : 	VuSessionsIterator sessionWalker(FalconLocalGame);

	mov	ecx, OFFSET ?vuLocalSessionEntity@@3V?$VuBin@VVuSessionEntity@@@@A ; vuLocalSessionEntity
	call	??B?$VuBin@VVuSessionEntity@@@@QBE_NXZ	; VuBin<VuSessionEntity>::operator bool
	movzx	eax, al
	test	eax, eax
	je	SHORT $LN9@SendTextTo
	mov	ecx, OFFSET ?vuLocalSessionEntity@@3V?$VuBin@VVuSessionEntity@@@@A ; vuLocalSessionEntity
	call	?get@?$VuBin@VVuSessionEntity@@@@QBEPAVVuSessionEntity@@XZ ; VuBin<VuSessionEntity>::get
	mov	ecx, eax
	call	?GetGame@FalconSessionEntity@@QAEPAVFalconGameEntity@@XZ ; FalconSessionEntity::GetGame
	mov	DWORD PTR tv82[ebp], eax
	jmp	SHORT $LN10@SendTextTo
$LN9@SendTextTo:
	mov	DWORD PTR tv82[ebp], 0
$LN10@SendTextTo:
	mov	ecx, DWORD PTR tv82[ebp]
	push	ecx
	lea	ecx, DWORD PTR _sessionWalker$[ebp]
	call	??0VuSessionsIterator@@QAE@PAVVuGroupEntity@@@Z ; VuSessionsIterator::VuSessionsIterator
	mov	DWORD PTR __$EHRec$[ebp+8], 0

; 2115 : 	FalconSessionEntity *session;
; 2116 : 	UI_SendChatMessage *chat;
; 2117 : 
; 2118 : 	flt=(Flight)vuDatabase->Find(FalconLocalSession->GetPlayerFlightID());

	lea	edx, DWORD PTR $T5[ebp]
	push	edx
	mov	ecx, OFFSET ?vuLocalSessionEntity@@3V?$VuBin@VVuSessionEntity@@@@A ; vuLocalSessionEntity
	call	?get@?$VuBin@VVuSessionEntity@@@@QBEPAVVuSessionEntity@@XZ ; VuBin<VuSessionEntity>::get
	mov	ecx, eax
	call	?GetPlayerFlightID@FalconSessionEntity@@QBE?AVVU_ID@@XZ ; FalconSessionEntity::GetPlayerFlightID
	mov	ecx, DWORD PTR [eax+4]
	push	ecx
	mov	edx, DWORD PTR [eax]
	push	edx
	mov	ecx, DWORD PTR ?vuDatabase@@3PAVVuDatabase@@A ; vuDatabase
	call	?Find@VuDatabase@@QBEPAVVuEntity@@VVU_ID@@@Z ; VuDatabase::Find
	mov	DWORD PTR _flt$[ebp], eax

; 2119 : 	if(!flt)

	cmp	DWORD PTR _flt$[ebp], 0
	jne	SHORT $LN6@SendTextTo

; 2120 : 		return;

	mov	DWORD PTR __$EHRec$[ebp+8], -1
	lea	ecx, DWORD PTR _sessionWalker$[ebp]
	call	??1VuSessionsIterator@@UAE@XZ		; VuSessionsIterator::~VuSessionsIterator
	jmp	$LN7@SendTextTo
$LN6@SendTextTo:

; 2121 : 
; 2122 : 	pkg=(Package)flt->GetUnitParent();

	mov	eax, DWORD PTR _flt$[ebp]
	mov	edx, DWORD PTR [eax]
	mov	ecx, DWORD PTR _flt$[ebp]
	mov	eax, DWORD PTR [edx+1008]
	call	eax
	mov	DWORD PTR _pkg$[ebp], eax

; 2123 : 	if(!pkg)

	cmp	DWORD PTR _pkg$[ebp], 0
	jne	SHORT $LN5@SendTextTo

; 2124 : 		return;

	mov	DWORD PTR __$EHRec$[ebp+8], -1
	lea	ecx, DWORD PTR _sessionWalker$[ebp]
	call	??1VuSessionsIterator@@UAE@XZ		; VuSessionsIterator::~VuSessionsIterator
	jmp	$LN7@SendTextTo
$LN5@SendTextTo:

; 2125 : 
; 2126 : 	MyPackageID=pkg->Id();

	lea	ecx, DWORD PTR $T4[ebp]
	push	ecx
	mov	ecx, DWORD PTR _pkg$[ebp]
	call	?Id@VuEntity@@QBE?AVVU_ID@@XZ		; VuEntity::Id
	mov	edx, DWORD PTR [eax]
	mov	eax, DWORD PTR [eax+4]
	mov	DWORD PTR _MyPackageID$[ebp], edx
	mov	DWORD PTR _MyPackageID$[ebp+4], eax

; 2127 : 
; 2128 : 	session = (FalconSessionEntity*)sessionWalker.GetFirst();

	lea	ecx, DWORD PTR _sessionWalker$[ebp]
	call	?GetFirst@VuSessionsIterator@@QAEPAVVuSessionEntity@@XZ ; VuSessionsIterator::GetFirst
	mov	DWORD PTR _session$[ebp], eax
$LN4@SendTextTo:

; 2129 : 	while(session)

	cmp	DWORD PTR _session$[ebp], 0
	je	$LN3@SendTextTo

; 2130 : 	{
; 2131 : 		flt=(Flight)vuDatabase->Find(session->GetPlayerFlightID());

	lea	ecx, DWORD PTR $T3[ebp]
	push	ecx
	mov	ecx, DWORD PTR _session$[ebp]
	call	?GetPlayerFlightID@FalconSessionEntity@@QBE?AVVU_ID@@XZ ; FalconSessionEntity::GetPlayerFlightID
	mov	edx, DWORD PTR [eax+4]
	push	edx
	mov	eax, DWORD PTR [eax]
	push	eax
	mov	ecx, DWORD PTR ?vuDatabase@@3PAVVuDatabase@@A ; vuDatabase
	call	?Find@VuDatabase@@QBEPAVVuEntity@@VVU_ID@@@Z ; VuDatabase::Find
	mov	DWORD PTR _flt$[ebp], eax

; 2132 : 		if(flt)

	cmp	DWORD PTR _flt$[ebp], 0
	je	$LN2@SendTextTo

; 2133 : 		{
; 2134 : 			pkg=(Package)flt->GetUnitParent();

	mov	ecx, DWORD PTR _flt$[ebp]
	mov	edx, DWORD PTR [ecx]
	mov	ecx, DWORD PTR _flt$[ebp]
	mov	eax, DWORD PTR [edx+1008]
	call	eax
	mov	DWORD PTR _pkg$[ebp], eax

; 2135 : 			if(pkg && pkg->Id() == MyPackageID)

	cmp	DWORD PTR _pkg$[ebp], 0
	je	$LN2@SendTextTo
	lea	ecx, DWORD PTR _MyPackageID$[ebp]
	push	ecx
	lea	edx, DWORD PTR $T2[ebp]
	push	edx
	mov	ecx, DWORD PTR _pkg$[ebp]
	call	?Id@VuEntity@@QBE?AVVU_ID@@XZ		; VuEntity::Id
	mov	ecx, eax
	call	??8VU_ID@@QBE_NABV0@@Z			; VU_ID::operator==
	movzx	eax, al
	test	eax, eax
	je	$LN2@SendTextTo

; 2136 : 			{
; 2137 : 				chat=new UI_SendChatMessage(FalconNullId,session);

	push	62					; 0000003eH
	call	??2@YAPAXI@Z				; operator new
	add	esp, 4
	mov	DWORD PTR $T8[ebp], eax
	mov	BYTE PTR __$EHRec$[ebp+8], 1
	cmp	DWORD PTR $T8[ebp], 0
	je	SHORT $LN11@SendTextTo
	push	1
	mov	ecx, DWORD PTR _session$[ebp]
	push	ecx
	mov	edx, DWORD PTR ?FalconNullId@@3VVU_ID@@A+4
	push	edx
	mov	eax, DWORD PTR ?FalconNullId@@3VVU_ID@@A
	push	eax
	mov	ecx, DWORD PTR $T8[ebp]
	call	??0UI_SendChatMessage@@QAE@VVU_ID@@PAVVuTargetEntity@@E@Z ; UI_SendChatMessage::UI_SendChatMessage
	mov	DWORD PTR tv205[ebp], eax
	jmp	SHORT $LN12@SendTextTo
$LN11@SendTextTo:
	mov	DWORD PTR tv205[ebp], 0
$LN12@SendTextTo:
	mov	ecx, DWORD PTR tv205[ebp]
	mov	DWORD PTR $T7[ebp], ecx
	mov	BYTE PTR __$EHRec$[ebp+8], 0
	mov	edx, DWORD PTR $T7[ebp]
	mov	DWORD PTR _chat$[ebp], edx

; 2138 : 
; 2139 : 				chat->dataBlock.from=FalconLocalSessionId;

	mov	eax, DWORD PTR _chat$[ebp]
	mov	ecx, DWORD PTR ?vuLocalSession@@3VVU_ID@@A
	mov	DWORD PTR [eax+48], ecx
	mov	edx, DWORD PTR ?vuLocalSession@@3VVU_ID@@A+4
	mov	DWORD PTR [eax+52], edx

; 2140 : 				chat->dataBlock.size=static_cast<short>((strlen(chatterStr)+1)*sizeof(char));

	push	OFFSET ?chatterStr@@3PADA		; chatterStr
	call	_strlen
	add	esp, 4
	add	eax, 1
	mov	ecx, DWORD PTR _chat$[ebp]
	mov	WORD PTR [ecx+56], ax

; 2141 : 				chat->dataBlock.message=new char[chat->dataBlock.size];

	mov	edx, DWORD PTR _chat$[ebp]
	movsx	eax, WORD PTR [edx+56]
	push	eax
	call	??_U@YAPAXI@Z				; operator new[]
	add	esp, 4
	mov	DWORD PTR $T6[ebp], eax
	mov	ecx, DWORD PTR _chat$[ebp]
	mov	edx, DWORD PTR $T6[ebp]
	mov	DWORD PTR [ecx+58], edx

; 2142 : 				memcpy(chat->dataBlock.message,chatterStr,chat->dataBlock.size);

	mov	eax, DWORD PTR _chat$[ebp]
	movsx	ecx, WORD PTR [eax+56]
	push	ecx
	push	OFFSET ?chatterStr@@3PADA		; chatterStr
	mov	edx, DWORD PTR _chat$[ebp]
	mov	eax, DWORD PTR [edx+58]
	push	eax
	call	_memcpy
	add	esp, 12					; 0000000cH

; 2143 : 				FalconSendMessage(chat,TRUE);

	push	1
	mov	ecx, DWORD PTR _chat$[ebp]
	push	ecx
	call	?FalconSendMessage@@YAXPAVVuMessage@@H@Z ; FalconSendMessage
	add	esp, 8
$LN2@SendTextTo:

; 2144 : 			}
; 2145 : 		}
; 2146 : 		session = (FalconSessionEntity*)sessionWalker.GetNext();

	lea	ecx, DWORD PTR _sessionWalker$[ebp]
	call	?GetNext@VuSessionsIterator@@QAEPAVVuSessionEntity@@XZ ; VuSessionsIterator::GetNext
	mov	DWORD PTR _session$[ebp], eax

; 2147 : 	}

	jmp	$LN4@SendTextTo
$LN3@SendTextTo:

; 2148 : 
; 2149 : }

	mov	DWORD PTR __$EHRec$[ebp+8], -1
	lea	ecx, DWORD PTR _sessionWalker$[ebp]
	call	??1VuSessionsIterator@@UAE@XZ		; VuSessionsIterator::~VuSessionsIterator
$LN7@SendTextTo:
	mov	ecx, DWORD PTR __$EHRec$[ebp]
	mov	DWORD PTR fs:0, ecx
	pop	ecx
	mov	esp, ebp
	pop	ebp
	ret	0
_TEXT	ENDS
text$x	SEGMENT
__unwindfunclet$?SendTextToPackage@@YAXXZ$0:
	lea	ecx, DWORD PTR _sessionWalker$[ebp]
	jmp	??1VuSessionsIterator@@UAE@XZ		; VuSessionsIterator::~VuSessionsIterator
__unwindfunclet$?SendTextToPackage@@YAXXZ$1:
	mov	eax, DWORD PTR $T8[ebp]
	push	eax
	call	??3@YAXPAX@Z				; operator delete
	pop	ecx
	ret	0
__ehhandler$?SendTextToPackage@@YAXXZ:
	mov	edx, DWORD PTR [esp+8]
	lea	eax, DWORD PTR [edx+12]
	mov	ecx, DWORD PTR [edx-92]
	xor	ecx, eax
	call	@__security_check_cookie@4
	mov	eax, OFFSET __ehfuncinfo$?SendTextToPackage@@YAXXZ
	jmp	___CxxFrameHandler3
text$x	ENDS
?SendTextToPackage@@YAXXZ ENDP				; SendTextToPackage
; Function compile flags: /Odtp
; File c:\users\zhitao li\documents\visual studio 2012\projects\freefalcon\ui\src\comms\ui_comms.cpp
_TEXT	SEGMENT
_sessionWalker$ = -68					; size = 12
$T2 = -56						; size = 8
$T3 = -48						; size = 8
$T4 = -40						; size = 4
$T5 = -36						; size = 4
tv155 = -32						; size = 4
$T6 = -28						; size = 4
tv81 = -24						; size = 4
_session$ = -20						; size = 4
_chat$ = -16						; size = 4
__$EHRec$ = -12						; size = 12
?SendTextToFlight@@YAXXZ PROC				; SendTextToFlight

; 2087 : {

	push	ebp
	mov	ebp, esp
	push	-1
	push	__ehhandler$?SendTextToFlight@@YAXXZ
	mov	eax, DWORD PTR fs:0
	push	eax
	sub	esp, 56					; 00000038H
	mov	eax, DWORD PTR ___security_cookie
	xor	eax, ebp
	push	eax
	lea	eax, DWORD PTR __$EHRec$[ebp]
	mov	DWORD PTR fs:0, eax

; 2088 : 	VuSessionsIterator sessionWalker(FalconLocalGame);

	mov	ecx, OFFSET ?vuLocalSessionEntity@@3V?$VuBin@VVuSessionEntity@@@@A ; vuLocalSessionEntity
	call	??B?$VuBin@VVuSessionEntity@@@@QBE_NXZ	; VuBin<VuSessionEntity>::operator bool
	movzx	eax, al
	test	eax, eax
	je	SHORT $LN6@SendTextTo
	mov	ecx, OFFSET ?vuLocalSessionEntity@@3V?$VuBin@VVuSessionEntity@@@@A ; vuLocalSessionEntity
	call	?get@?$VuBin@VVuSessionEntity@@@@QBEPAVVuSessionEntity@@XZ ; VuBin<VuSessionEntity>::get
	mov	ecx, eax
	call	?GetGame@FalconSessionEntity@@QAEPAVFalconGameEntity@@XZ ; FalconSessionEntity::GetGame
	mov	DWORD PTR tv81[ebp], eax
	jmp	SHORT $LN7@SendTextTo
$LN6@SendTextTo:
	mov	DWORD PTR tv81[ebp], 0
$LN7@SendTextTo:
	mov	ecx, DWORD PTR tv81[ebp]
	push	ecx
	lea	ecx, DWORD PTR _sessionWalker$[ebp]
	call	??0VuSessionsIterator@@QAE@PAVVuGroupEntity@@@Z ; VuSessionsIterator::VuSessionsIterator
	mov	DWORD PTR __$EHRec$[ebp+8], 0

; 2089 : 	FalconSessionEntity *session;
; 2090 : 	UI_SendChatMessage *chat;
; 2091 : 
; 2092 : 	session = (FalconSessionEntity*)sessionWalker.GetFirst();

	lea	ecx, DWORD PTR _sessionWalker$[ebp]
	call	?GetFirst@VuSessionsIterator@@QAEPAVVuSessionEntity@@XZ ; VuSessionsIterator::GetFirst
	mov	DWORD PTR _session$[ebp], eax
$LN3@SendTextTo:

; 2093 : 	while(session)

	cmp	DWORD PTR _session$[ebp], 0
	je	$LN2@SendTextTo

; 2094 : 	{
; 2095 : 		if(session->GetPlayerFlightID() == FalconLocalSession->GetPlayerFlightID())

	lea	edx, DWORD PTR $T3[ebp]
	push	edx
	mov	ecx, OFFSET ?vuLocalSessionEntity@@3V?$VuBin@VVuSessionEntity@@@@A ; vuLocalSessionEntity
	call	?get@?$VuBin@VVuSessionEntity@@@@QBEPAVVuSessionEntity@@XZ ; VuBin<VuSessionEntity>::get
	mov	ecx, eax
	call	?GetPlayerFlightID@FalconSessionEntity@@QBE?AVVU_ID@@XZ ; FalconSessionEntity::GetPlayerFlightID
	push	eax
	lea	eax, DWORD PTR $T2[ebp]
	push	eax
	mov	ecx, DWORD PTR _session$[ebp]
	call	?GetPlayerFlightID@FalconSessionEntity@@QBE?AVVU_ID@@XZ ; FalconSessionEntity::GetPlayerFlightID
	mov	ecx, eax
	call	??8VU_ID@@QBE_NABV0@@Z			; VU_ID::operator==
	movzx	ecx, al
	test	ecx, ecx
	je	$LN1@SendTextTo

; 2096 : 		{
; 2097 : 			chat=new UI_SendChatMessage(FalconNullId,session);

	push	62					; 0000003eH
	call	??2@YAPAXI@Z				; operator new
	add	esp, 4
	mov	DWORD PTR $T6[ebp], eax
	mov	BYTE PTR __$EHRec$[ebp+8], 1
	cmp	DWORD PTR $T6[ebp], 0
	je	SHORT $LN8@SendTextTo
	push	1
	mov	edx, DWORD PTR _session$[ebp]
	push	edx
	mov	eax, DWORD PTR ?FalconNullId@@3VVU_ID@@A+4
	push	eax
	mov	ecx, DWORD PTR ?FalconNullId@@3VVU_ID@@A
	push	ecx
	mov	ecx, DWORD PTR $T6[ebp]
	call	??0UI_SendChatMessage@@QAE@VVU_ID@@PAVVuTargetEntity@@E@Z ; UI_SendChatMessage::UI_SendChatMessage
	mov	DWORD PTR tv155[ebp], eax
	jmp	SHORT $LN9@SendTextTo
$LN8@SendTextTo:
	mov	DWORD PTR tv155[ebp], 0
$LN9@SendTextTo:
	mov	edx, DWORD PTR tv155[ebp]
	mov	DWORD PTR $T5[ebp], edx
	mov	BYTE PTR __$EHRec$[ebp+8], 0
	mov	eax, DWORD PTR $T5[ebp]
	mov	DWORD PTR _chat$[ebp], eax

; 2098 : 
; 2099 : 			chat->dataBlock.from=FalconLocalSessionId;

	mov	ecx, DWORD PTR _chat$[ebp]
	mov	edx, DWORD PTR ?vuLocalSession@@3VVU_ID@@A
	mov	DWORD PTR [ecx+48], edx
	mov	eax, DWORD PTR ?vuLocalSession@@3VVU_ID@@A+4
	mov	DWORD PTR [ecx+52], eax

; 2100 : 			chat->dataBlock.size=static_cast<short>((strlen(chatterStr)+1)*sizeof(char));

	push	OFFSET ?chatterStr@@3PADA		; chatterStr
	call	_strlen
	add	esp, 4
	add	eax, 1
	mov	ecx, DWORD PTR _chat$[ebp]
	mov	WORD PTR [ecx+56], ax

; 2101 : 			chat->dataBlock.message=new char[chat->dataBlock.size];

	mov	edx, DWORD PTR _chat$[ebp]
	movsx	eax, WORD PTR [edx+56]
	push	eax
	call	??_U@YAPAXI@Z				; operator new[]
	add	esp, 4
	mov	DWORD PTR $T4[ebp], eax
	mov	ecx, DWORD PTR _chat$[ebp]
	mov	edx, DWORD PTR $T4[ebp]
	mov	DWORD PTR [ecx+58], edx

; 2102 : 			memcpy(chat->dataBlock.message,chatterStr,chat->dataBlock.size);

	mov	eax, DWORD PTR _chat$[ebp]
	movsx	ecx, WORD PTR [eax+56]
	push	ecx
	push	OFFSET ?chatterStr@@3PADA		; chatterStr
	mov	edx, DWORD PTR _chat$[ebp]
	mov	eax, DWORD PTR [edx+58]
	push	eax
	call	_memcpy
	add	esp, 12					; 0000000cH

; 2103 : 			FalconSendMessage(chat,TRUE);

	push	1
	mov	ecx, DWORD PTR _chat$[ebp]
	push	ecx
	call	?FalconSendMessage@@YAXPAVVuMessage@@H@Z ; FalconSendMessage
	add	esp, 8
$LN1@SendTextTo:

; 2104 : 		}
; 2105 : 		session = (FalconSessionEntity*)sessionWalker.GetNext();

	lea	ecx, DWORD PTR _sessionWalker$[ebp]
	call	?GetNext@VuSessionsIterator@@QAEPAVVuSessionEntity@@XZ ; VuSessionsIterator::GetNext
	mov	DWORD PTR _session$[ebp], eax

; 2106 : 	}

	jmp	$LN3@SendTextTo
$LN2@SendTextTo:

; 2107 : }

	mov	DWORD PTR __$EHRec$[ebp+8], -1
	lea	ecx, DWORD PTR _sessionWalker$[ebp]
	call	??1VuSessionsIterator@@UAE@XZ		; VuSessionsIterator::~VuSessionsIterator
	mov	ecx, DWORD PTR __$EHRec$[ebp]
	mov	DWORD PTR fs:0, ecx
	pop	ecx
	mov	esp, ebp
	pop	ebp
	ret	0
_TEXT	ENDS
text$x	SEGMENT
__unwindfunclet$?SendTextToFlight@@YAXXZ$0:
	lea	ecx, DWORD PTR _sessionWalker$[ebp]
	jmp	??1VuSessionsIterator@@UAE@XZ		; VuSessionsIterator::~VuSessionsIterator
__unwindfunclet$?SendTextToFlight@@YAXXZ$1:
	mov	eax, DWORD PTR $T6[ebp]
	push	eax
	call	??3@YAXPAX@Z				; operator delete
	pop	ecx
	ret	0
__ehhandler$?SendTextToFlight@@YAXXZ:
	mov	edx, DWORD PTR [esp+8]
	lea	eax, DWORD PTR [edx+12]
	mov	ecx, DWORD PTR [edx-60]
	xor	ecx, eax
	call	@__security_check_cookie@4
	mov	eax, OFFSET __ehfuncinfo$?SendTextToFlight@@YAXXZ
	jmp	___CxxFrameHandler3
text$x	ENDS
?SendTextToFlight@@YAXXZ ENDP				; SendTextToFlight
; Function compile flags: /Odtp
; File c:\users\zhitao li\documents\visual studio 2012\projects\freefalcon\ui\src\comms\ui_comms.cpp
_TEXT	SEGMENT
_Leave$ = -20						; size = 4
_pic$ = -16						; size = 4
_pat$ = -12						; size = 4
_win$ = -8						; size = 4
_remlb$ = -4						; size = 4
_playerID$ = 8						; size = 4
?ViewRemoteLogbook@@YAXJ@Z PROC				; ViewRemoteLogbook

; 2046 : {

	push	ebp
	mov	ebp, esp
	sub	esp, 20					; 00000014H

; 2047 : 	F4CSECTIONHANDLE *Leave;
; 2048 : 	C_Window *win;
; 2049 : 	RemoteLB *remlb;
; 2050 : 	IMAGE_RSC *pic,*pat;
; 2051 : 
; 2052 : 	win=gMainHandler->FindWindow(LOG_WIN);

	push	50035					; 0000c373H
	mov	ecx, DWORD PTR ?gMainHandler@@3PAVC_Handler@@A ; gMainHandler
	call	?FindWindowA@C_Handler@@QAEPAVC_Window@@J@Z ; C_Handler::FindWindowA
	mov	DWORD PTR _win$[ebp], eax

; 2053 : 	if(win)

	cmp	DWORD PTR _win$[ebp], 0
	je	$LN7@ViewRemote

; 2054 : 	{
; 2055 : 		Leave=UI_Enter(win);

	mov	eax, DWORD PTR _win$[ebp]
	push	eax
	call	?UI_Enter@@YAPAUF4CSECTIONHANDLE@@PAVC_Window@@@Z ; UI_Enter
	add	esp, 4
	mov	DWORD PTR _Leave$[ebp], eax

; 2056 : 
; 2057 : 		remlb=(RemoteLB*)gCommsMgr->GetRemoteLB(playerID);

	mov	ecx, DWORD PTR _playerID$[ebp]
	push	ecx
	mov	ecx, DWORD PTR ?gCommsMgr@@3PAVUIComms@@A ; gCommsMgr
	call	?GetRemoteLB@UIComms@@QAEPAXJ@Z		; UIComms::GetRemoteLB
	mov	DWORD PTR _remlb$[ebp], eax

; 2058 : 		if(remlb)

	cmp	DWORD PTR _remlb$[ebp], 0
	je	$LN5@ViewRemote

; 2059 : 		{
; 2060 : 			if(remlb->Pilot_.PictureResource)

	mov	edx, DWORD PTR _remlb$[ebp]
	cmp	DWORD PTR [edx+152], 0
	je	SHORT $LN4@ViewRemote

; 2061 : 			{
; 2062 : 				pic=gImageMgr->GetImage(remlb->Pilot_.PictureResource);

	mov	eax, DWORD PTR _remlb$[ebp]
	mov	ecx, DWORD PTR [eax+152]
	push	ecx
	mov	ecx, DWORD PTR ?gImageMgr@@3PAVC_Image@@A ; gImageMgr
	call	?GetImage@C_Image@@QAEPAVIMAGE_RSC@@J@Z	; C_Image::GetImage
	mov	DWORD PTR _pic$[ebp], eax

; 2063 : 			}
; 2064 : 			else

	jmp	SHORT $LN3@ViewRemote
$LN4@ViewRemote:

; 2065 : 			{
; 2066 : 				pic=NULL;

	mov	DWORD PTR _pic$[ebp], 0
$LN3@ViewRemote:

; 2067 : 			}
; 2068 : 
; 2069 : 			if(remlb->Pilot_.PatchResource)

	mov	edx, DWORD PTR _remlb$[ebp]
	cmp	DWORD PTR [edx+192], 0
	je	SHORT $LN2@ViewRemote

; 2070 : 			{
; 2071 : 				pat=gImageMgr->GetImage(remlb->Pilot_.PatchResource);

	mov	eax, DWORD PTR _remlb$[ebp]
	mov	ecx, DWORD PTR [eax+192]
	push	ecx
	mov	ecx, DWORD PTR ?gImageMgr@@3PAVC_Image@@A ; gImageMgr
	call	?GetImage@C_Image@@QAEPAVIMAGE_RSC@@J@Z	; C_Image::GetImage
	mov	DWORD PTR _pat$[ebp], eax

; 2072 : 			}
; 2073 : 			else

	jmp	SHORT $LN1@ViewRemote
$LN2@ViewRemote:

; 2074 : 			{
; 2075 : 				pat=NULL;

	mov	DWORD PTR _pat$[ebp], 0
$LN1@ViewRemote:

; 2076 : 			}
; 2077 : 
; 2078 : 			DisplayLogbook(&remlb->Pilot_,pic,pat,FALSE);

	push	0
	mov	edx, DWORD PTR _pat$[ebp]
	push	edx
	mov	eax, DWORD PTR _pic$[ebp]
	push	eax
	mov	ecx, DWORD PTR _remlb$[ebp]
	add	ecx, 4
	push	ecx
	call	?DisplayLogbook@@YAXPAUPilot@@PAVIMAGE_RSC@@1H@Z ; DisplayLogbook
	add	esp, 16					; 00000010H

; 2079 : 			gMainHandler->ShowWindow(win);

	mov	edx, DWORD PTR _win$[ebp]
	push	edx
	mov	ecx, DWORD PTR ?gMainHandler@@3PAVC_Handler@@A ; gMainHandler
	call	?ShowWindow@C_Handler@@QAEHPAVC_Window@@@Z ; C_Handler::ShowWindow

; 2080 : 			gMainHandler->WindowToFront(win);

	mov	eax, DWORD PTR _win$[ebp]
	push	eax
	mov	ecx, DWORD PTR ?gMainHandler@@3PAVC_Handler@@A ; gMainHandler
	call	?WindowToFront@C_Handler@@QAEXPAVC_Window@@@Z ; C_Handler::WindowToFront
$LN5@ViewRemote:

; 2081 : 		}
; 2082 : 		UI_Leave(Leave);

	mov	ecx, DWORD PTR _Leave$[ebp]
	push	ecx
	call	?UI_Leave@@YAXPAUF4CSECTIONHANDLE@@@Z	; UI_Leave
	add	esp, 4
$LN7@ViewRemote:

; 2083 : 	}
; 2084 : }

	mov	esp, ebp
	pop	ebp
	ret	0
?ViewRemoteLogbook@@YAXJ@Z ENDP				; ViewRemoteLogbook
_TEXT	ENDS
; Function compile flags: /Odtp
; File c:\users\zhitao li\documents\visual studio 2012\projects\freefalcon\ui\src\comms\ui_comms.cpp
_TEXT	SEGMENT
_sessionWalker$ = -32					; size = 12
tv81 = -20						; size = 4
_session$ = -16						; size = 4
__$EHRec$ = -12						; size = 12
___formal$ = 8						; size = 4
_hittype$ = 12						; size = 2
_control$ = 16						; size = 4
?SelectChatFilterCB@@YAXJFPAVC_Base@@@Z PROC		; SelectChatFilterCB

; 2001 : {

	push	ebp
	mov	ebp, esp
	push	-1
	push	__ehhandler$?SelectChatFilterCB@@YAXJFPAVC_Base@@@Z
	mov	eax, DWORD PTR fs:0
	push	eax
	sub	esp, 20					; 00000014H
	mov	eax, DWORD PTR ___security_cookie
	xor	eax, ebp
	push	eax
	lea	eax, DWORD PTR __$EHRec$[ebp]
	mov	DWORD PTR fs:0, eax

; 2002 : 	VuSessionsIterator sessionWalker(FalconLocalGame);

	mov	ecx, OFFSET ?vuLocalSessionEntity@@3V?$VuBin@VVuSessionEntity@@@@A ; vuLocalSessionEntity
	call	??B?$VuBin@VVuSessionEntity@@@@QBE_NXZ	; VuBin<VuSessionEntity>::operator bool
	movzx	eax, al
	test	eax, eax
	je	SHORT $LN6@SelectChat
	mov	ecx, OFFSET ?vuLocalSessionEntity@@3V?$VuBin@VVuSessionEntity@@@@A ; vuLocalSessionEntity
	call	?get@?$VuBin@VVuSessionEntity@@@@QBEPAVVuSessionEntity@@XZ ; VuBin<VuSessionEntity>::get
	mov	ecx, eax
	call	?GetGame@FalconSessionEntity@@QAEPAVFalconGameEntity@@XZ ; FalconSessionEntity::GetGame
	mov	DWORD PTR tv81[ebp], eax
	jmp	SHORT $LN7@SelectChat
$LN6@SelectChat:
	mov	DWORD PTR tv81[ebp], 0
$LN7@SelectChat:
	mov	ecx, DWORD PTR tv81[ebp]
	push	ecx
	lea	ecx, DWORD PTR _sessionWalker$[ebp]
	call	??0VuSessionsIterator@@QAE@PAVVuGroupEntity@@@Z ; VuSessionsIterator::VuSessionsIterator
	mov	DWORD PTR __$EHRec$[ebp+8], 0

; 2003 : 	FalconSessionEntity *session;
; 2004 : 
; 2005 : 	if(hittype != C_TYPE_LMOUSEUP)

	movsx	edx, WORD PTR _hittype$[ebp]
	cmp	edx, 52					; 00000034H
	je	SHORT $LN3@SelectChat

; 2006 : 		return;

	mov	DWORD PTR __$EHRec$[ebp+8], -1
	lea	ecx, DWORD PTR _sessionWalker$[ebp]
	call	??1VuSessionsIterator@@UAE@XZ		; VuSessionsIterator::~VuSessionsIterator
	jmp	SHORT $LN4@SelectChat
$LN3@SelectChat:

; 2007 : 
; 2008 : 	PeopleChatType=static_cast<short>(control->GetCluster()); // 1=All,2=team,3=package,4=flight

	mov	ecx, DWORD PTR _control$[ebp]
	call	?GetCluster@C_Base@@QAEJXZ		; C_Base::GetCluster
	mov	WORD PTR _PeopleChatType, ax

; 2009 : 
; 2010 : 	session = (FalconSessionEntity*)sessionWalker.GetFirst();

	lea	ecx, DWORD PTR _sessionWalker$[ebp]
	call	?GetFirst@VuSessionsIterator@@QAEPAVVuSessionEntity@@XZ ; VuSessionsIterator::GetFirst
	mov	DWORD PTR _session$[ebp], eax
$LN2@SelectChat:

; 2011 : 	while(session)

	cmp	DWORD PTR _session$[ebp], 0
	je	SHORT $LN1@SelectChat

; 2012 : 	{
; 2013 : 		CheckChatFilters(session);

	mov	eax, DWORD PTR _session$[ebp]
	push	eax
	call	?CheckChatFilters@@YAXPAVFalconSessionEntity@@@Z ; CheckChatFilters
	add	esp, 4

; 2014 : 		session = (FalconSessionEntity*)sessionWalker.GetNext();

	lea	ecx, DWORD PTR _sessionWalker$[ebp]
	call	?GetNext@VuSessionsIterator@@QAEPAVVuSessionEntity@@XZ ; VuSessionsIterator::GetNext
	mov	DWORD PTR _session$[ebp], eax

; 2015 : 	}

	jmp	SHORT $LN2@SelectChat
$LN1@SelectChat:

; 2016 : 
; 2017 : }

	mov	DWORD PTR __$EHRec$[ebp+8], -1
	lea	ecx, DWORD PTR _sessionWalker$[ebp]
	call	??1VuSessionsIterator@@UAE@XZ		; VuSessionsIterator::~VuSessionsIterator
$LN4@SelectChat:
	mov	ecx, DWORD PTR __$EHRec$[ebp]
	mov	DWORD PTR fs:0, ecx
	pop	ecx
	mov	esp, ebp
	pop	ebp
	ret	0
_TEXT	ENDS
text$x	SEGMENT
__unwindfunclet$?SelectChatFilterCB@@YAXJFPAVC_Base@@@Z$0:
	lea	ecx, DWORD PTR _sessionWalker$[ebp]
	jmp	??1VuSessionsIterator@@UAE@XZ		; VuSessionsIterator::~VuSessionsIterator
__ehhandler$?SelectChatFilterCB@@YAXJFPAVC_Base@@@Z:
	mov	edx, DWORD PTR [esp+8]
	lea	eax, DWORD PTR [edx+12]
	mov	ecx, DWORD PTR [edx-24]
	xor	ecx, eax
	call	@__security_check_cookie@4
	mov	eax, OFFSET __ehfuncinfo$?SelectChatFilterCB@@YAXJFPAVC_Base@@@Z
	jmp	___CxxFrameHandler3
text$x	ENDS
?SelectChatFilterCB@@YAXJFPAVC_Base@@@Z ENDP		; SelectChatFilterCB
; Function compile flags: /Odtp
; File c:\users\zhitao li\documents\visual studio 2012\projects\freefalcon\ui\src\comms\ui_comms.cpp
_TEXT	SEGMENT
_item$ = -8						; size = 4
_player$ = -4						; size = 4
___formal$ = 8						; size = 4
_hittype$ = 12						; size = 2
___formal$ = 16						; size = 4
?PeopleSelectCB@@YAXJFPAVC_Base@@@Z PROC		; PeopleSelectCB

; 1981 : {

	push	ebp
	mov	ebp, esp
	sub	esp, 8

; 1982 : 	TREELIST *item;
; 1983 : 	C_Player *player;
; 1984 : 
; 1985 : 	if(hittype != C_TYPE_LMOUSEUP || !People)

	movsx	eax, WORD PTR _hittype$[ebp]
	cmp	eax, 52					; 00000034H
	jne	SHORT $LN3@PeopleSele
	cmp	DWORD PTR ?People@@3PAVC_TreeList@@A, 0	; People
	jne	SHORT $LN4@PeopleSele
$LN3@PeopleSele:

; 1986 : 		return;

	jmp	SHORT $LN5@PeopleSele
$LN4@PeopleSele:

; 1987 : 
; 1988 : 	item=People->GetLastItem();

	mov	ecx, DWORD PTR ?People@@3PAVC_TreeList@@A ; People
	call	?GetLastItem@C_TreeList@@QAEPAVTREELIST@@XZ ; C_TreeList::GetLastItem
	mov	DWORD PTR _item$[ebp], eax

; 1989 : 	if(item->Type_ != C_TYPE_ITEM)

	mov	ecx, DWORD PTR _item$[ebp]
	cmp	DWORD PTR [ecx+4], 50			; 00000032H
	je	SHORT $LN2@PeopleSele

; 1990 : 		return;

	jmp	SHORT $LN5@PeopleSele
$LN2@PeopleSele:

; 1991 : 
; 1992 : 	player=(C_Player*)item->Item_;

	mov	edx, DWORD PTR _item$[ebp]
	mov	eax, DWORD PTR [edx+20]
	mov	DWORD PTR _player$[ebp], eax

; 1993 : 	if(!player)

	cmp	DWORD PTR _player$[ebp], 0
	jne	SHORT $LN1@PeopleSele

; 1994 : 		return;

	jmp	SHORT $LN5@PeopleSele
$LN1@PeopleSele:

; 1995 : 
; 1996 : 	player->SetState(static_cast<short>(player->GetState()^1));

	mov	ecx, DWORD PTR _player$[ebp]
	mov	edx, DWORD PTR [ecx]
	mov	ecx, DWORD PTR _player$[ebp]
	mov	eax, DWORD PTR [edx+112]
	call	eax
	movsx	ecx, ax
	xor	ecx, 1
	push	ecx
	mov	edx, DWORD PTR _player$[ebp]
	mov	eax, DWORD PTR [edx]
	mov	ecx, DWORD PTR _player$[ebp]
	mov	edx, DWORD PTR [eax+56]
	call	edx

; 1997 : 	player->Refresh();

	mov	eax, DWORD PTR _player$[ebp]
	mov	edx, DWORD PTR [eax]
	mov	ecx, DWORD PTR _player$[ebp]
	mov	eax, DWORD PTR [edx+160]
	call	eax
$LN5@PeopleSele:

; 1998 : }

	mov	esp, ebp
	pop	ebp
	ret	0
?PeopleSelectCB@@YAXJFPAVC_Base@@@Z ENDP		; PeopleSelectCB
_TEXT	ENDS
; Function compile flags: /Odtp
; File c:\users\zhitao li\documents\visual studio 2012\projects\freefalcon\ui\src\comms\ui_comms.cpp
_TEXT	SEGMENT
$T1 = -84						; size = 8
$T2 = -76						; size = 8
$T3 = -68						; size = 8
$T4 = -60						; size = 8
tv266 = -52						; size = 4
tv193 = -48						; size = 4
_gamelist$ = -44					; size = 4
_player$ = -40						; size = 4
tv270 = -36						; size = 4
tv197 = -32						; size = 4
tv81 = -28						; size = 4
tv69 = -24						; size = 4
_gametype$ = -20					; size = 4
_session$ = -16						; size = 4
_game$ = -12						; size = 4
_q$ = -8						; size = 4
_theTree$ = -4						; size = 4
?UI_UpdateGameList@@YAXXZ PROC				; UI_UpdateGameList

; 1793 : {

	push	ebp
	mov	ebp, esp
	sub	esp, 84					; 00000054H

; 1794 : 	QUEUEITEM *q;
; 1795 : 	FalconGameEntity *game;
; 1796 : 	FalconSessionEntity *session;
; 1797 : 	TREELIST *gamelist,*player;
; 1798 : 	C_TreeList *theTree;
; 1799 : 	FalconGameType gametype;
; 1800 : 
; 1801 : 	if(!gUICommsQ)

	cmp	DWORD PTR ?gUICommsQ@@3PAVCommsQueue@@A, 0 ; gUICommsQ
	jne	SHORT $LN50@UI_UpdateG

; 1802 : 		return;

	jmp	$LN51@UI_UpdateG
$LN50@UI_UpdateG:

; 1803 : 
; 1804 : 	q=gUICommsQ->Root_;

	mov	eax, DWORD PTR ?gUICommsQ@@3PAVCommsQueue@@A ; gUICommsQ
	mov	ecx, DWORD PTR [eax+4]
	mov	DWORD PTR _q$[ebp], ecx
$LN49@UI_UpdateG:

; 1805 : 	while(q)

	cmp	DWORD PTR _q$[ebp], 0
	je	$LN51@UI_UpdateG

; 1806 : 	{
; 1807 : 		switch(q->Type)

	mov	edx, DWORD PTR _q$[ebp]
	movsx	eax, WORD PTR [edx+16]
	mov	DWORD PTR tv69[ebp], eax
	mov	ecx, DWORD PTR tv69[ebp]
	sub	ecx, 1
	mov	DWORD PTR tv69[ebp], ecx
	cmp	DWORD PTR tv69[ebp], 5
	ja	$LN46@UI_UpdateG
	mov	edx, DWORD PTR tv69[ebp]
	jmp	DWORD PTR $LN57@UI_UpdateG[edx*4]
$LN45@UI_UpdateG:

; 1808 : 		{
; 1809 : 			case _Q_GAME_ADD_:
; 1810 : 				game=(FalconGameEntity*)vuDatabase->Find(q->GameID);

	mov	eax, DWORD PTR _q$[ebp]
	mov	ecx, DWORD PTR [eax+12]
	push	ecx
	mov	edx, DWORD PTR [eax+8]
	push	edx
	mov	ecx, DWORD PTR ?vuDatabase@@3PAVVuDatabase@@A ; vuDatabase
	call	?Find@VuDatabase@@QBEPAVVuEntity@@VVU_ID@@@Z ; VuDatabase::Find
	mov	DWORD PTR _game$[ebp], eax

; 1811 : 				if(game)

	cmp	DWORD PTR _game$[ebp], 0
	je	$LN44@UI_UpdateG

; 1812 : 				{
; 1813 : 					gametype=game->GetGameType();

	mov	ecx, DWORD PTR _game$[ebp]
	call	?GetGameType@FalconGameEntity@@QAE?AW4FalconGameType@@XZ ; FalconGameEntity::GetGameType
	mov	DWORD PTR _gametype$[ebp], eax

; 1814 : 					switch(gametype)

	mov	eax, DWORD PTR _gametype$[ebp]
	mov	DWORD PTR tv81[ebp], eax
	cmp	DWORD PTR tv81[ebp], 2
	je	SHORT $LN41@UI_UpdateG
	cmp	DWORD PTR tv81[ebp], 3
	je	SHORT $LN40@UI_UpdateG
	cmp	DWORD PTR tv81[ebp], 4
	je	SHORT $LN39@UI_UpdateG
	jmp	SHORT $LN38@UI_UpdateG
$LN41@UI_UpdateG:

; 1815 : 					{
; 1816 : 						case game_Dogfight:
; 1817 : 							theTree=DogfightGames;

	mov	ecx, DWORD PTR ?DogfightGames@@3PAVC_TreeList@@A ; DogfightGames
	mov	DWORD PTR _theTree$[ebp], ecx

; 1818 : 							break;

	jmp	SHORT $LN42@UI_UpdateG
$LN40@UI_UpdateG:

; 1819 : 						case game_TacticalEngagement:
; 1820 : 							theTree=TacticalGames;

	mov	edx, DWORD PTR ?TacticalGames@@3PAVC_TreeList@@A ; TacticalGames
	mov	DWORD PTR _theTree$[ebp], edx

; 1821 : 							break;

	jmp	SHORT $LN42@UI_UpdateG
$LN39@UI_UpdateG:

; 1822 : 						case game_Campaign:
; 1823 : 							theTree=CampaignGames;

	mov	eax, DWORD PTR ?CampaignGames@@3PAVC_TreeList@@A ; CampaignGames
	mov	DWORD PTR _theTree$[ebp], eax

; 1824 : 							break;

	jmp	SHORT $LN42@UI_UpdateG
$LN38@UI_UpdateG:

; 1825 : 						default:
; 1826 : 							theTree=NULL;

	mov	DWORD PTR _theTree$[ebp], 0
$LN42@UI_UpdateG:

; 1827 : 							break;
; 1828 : 					}
; 1829 : 					if(theTree)

	cmp	DWORD PTR _theTree$[ebp], 0
	je	SHORT $LN44@UI_UpdateG

; 1830 : 					{
; 1831 : 						// Add to Game's TreeList
; 1832 : 						UpdateGameTreeBranch(gametype,game,theTree,theTree->GetRoot(),FALSE);

	push	0
	mov	ecx, DWORD PTR _theTree$[ebp]
	call	?GetRoot@C_TreeList@@QAEPAVTREELIST@@XZ	; C_TreeList::GetRoot
	push	eax
	mov	ecx, DWORD PTR _theTree$[ebp]
	push	ecx
	mov	edx, DWORD PTR _game$[ebp]
	push	edx
	mov	eax, DWORD PTR _gametype$[ebp]
	push	eax
	call	?UpdateGameTreeBranch@@YAXJPAVVuGameEntity@@PAVC_TreeList@@PAVTREELIST@@H@Z ; UpdateGameTreeBranch
	add	esp, 20					; 00000014H

; 1833 : 						theTree->RecalcSize();

	mov	ecx, DWORD PTR _theTree$[ebp]
	call	?RecalcSize@C_TreeList@@QAEXXZ		; C_TreeList::RecalcSize

; 1834 : 						if(theTree->GetParent())

	mov	ecx, DWORD PTR _theTree$[ebp]
	call	?GetParent@C_Base@@QAEPAVC_Window@@XZ	; C_Base::GetParent
	test	eax, eax
	je	SHORT $LN44@UI_UpdateG

; 1835 : 							theTree->GetParent()->RefreshClient(theTree->GetClient());

	mov	ecx, DWORD PTR _theTree$[ebp]
	call	?GetClient@C_Base@@QAEFXZ		; C_Base::GetClient
	movsx	ecx, ax
	push	ecx
	mov	ecx, DWORD PTR _theTree$[ebp]
	call	?GetParent@C_Base@@QAEPAVC_Window@@XZ	; C_Base::GetParent
	mov	ecx, eax
	call	?RefreshClient@C_Window@@QAEXJ@Z	; C_Window::RefreshClient
$LN44@UI_UpdateG:

; 1836 : 					}
; 1837 : 				}
; 1838 : 				break;

	jmp	$LN46@UI_UpdateG
$LN35@UI_UpdateG:

; 1839 : 			case _Q_GAME_REMOVE_:
; 1840 : 				RemoveFromTree(DogfightGames,q->GameID);

	mov	edx, DWORD PTR _q$[ebp]
	mov	eax, DWORD PTR [edx+12]
	push	eax
	mov	ecx, DWORD PTR [edx+8]
	push	ecx
	mov	edx, DWORD PTR ?DogfightGames@@3PAVC_TreeList@@A ; DogfightGames
	push	edx
	call	?RemoveFromTree@@YAXPAVC_TreeList@@VVU_ID@@@Z ; RemoveFromTree
	add	esp, 12					; 0000000cH

; 1841 : 				RemoveFromTree(TacticalGames,q->GameID);

	mov	eax, DWORD PTR _q$[ebp]
	mov	ecx, DWORD PTR [eax+12]
	push	ecx
	mov	edx, DWORD PTR [eax+8]
	push	edx
	mov	eax, DWORD PTR ?TacticalGames@@3PAVC_TreeList@@A ; TacticalGames
	push	eax
	call	?RemoveFromTree@@YAXPAVC_TreeList@@VVU_ID@@@Z ; RemoveFromTree
	add	esp, 12					; 0000000cH

; 1842 : 				RemoveFromTree(CampaignGames,q->GameID);

	mov	ecx, DWORD PTR _q$[ebp]
	mov	edx, DWORD PTR [ecx+12]
	push	edx
	mov	eax, DWORD PTR [ecx+8]
	push	eax
	mov	ecx, DWORD PTR ?CampaignGames@@3PAVC_TreeList@@A ; CampaignGames
	push	ecx
	call	?RemoveFromTree@@YAXPAVC_TreeList@@VVU_ID@@@Z ; RemoveFromTree
	add	esp, 12					; 0000000cH

; 1843 : 
; 1844 : 				// Remove game from gCommsMgr... if current
; 1845 : 				if(q->GameID == gCommsMgr->GetTargetGameID())

	lea	edx, DWORD PTR $T4[ebp]
	push	edx
	mov	ecx, DWORD PTR ?gCommsMgr@@3PAVUIComms@@A ; gCommsMgr
	call	?GetTargetGameID@UIComms@@QAE?AVVU_ID@@XZ ; UIComms::GetTargetGameID
	push	eax
	mov	ecx, DWORD PTR _q$[ebp]
	add	ecx, 8
	call	??8VU_ID@@QBE_NABV0@@Z			; VU_ID::operator==
	movzx	eax, al
	test	eax, eax
	je	SHORT $LN34@UI_UpdateG

; 1846 : 				{
; 1847 : 					gCommsMgr->LookAtGame(NULL);

	push	0
	mov	ecx, DWORD PTR ?gCommsMgr@@3PAVUIComms@@A ; gCommsMgr
	call	?LookAtGame@UIComms@@QAEHPAVVuGameEntity@@@Z ; UIComms::LookAtGame

; 1848 : 					ClearDFTeamLists();

	call	?ClearDFTeamLists@@YAXXZ		; ClearDFTeamLists
$LN34@UI_UpdateG:

; 1849 : 				}
; 1850 : 				break;

	jmp	$LN46@UI_UpdateG
$LN33@UI_UpdateG:

; 1851 : 			case _Q_GAME_UPDATE_:
; 1852 : 				game=(FalconGameEntity*)vuDatabase->Find(q->GameID);

	mov	ecx, DWORD PTR _q$[ebp]
	mov	edx, DWORD PTR [ecx+12]
	push	edx
	mov	eax, DWORD PTR [ecx+8]
	push	eax
	mov	ecx, DWORD PTR ?vuDatabase@@3PAVVuDatabase@@A ; vuDatabase
	call	?Find@VuDatabase@@QBEPAVVuEntity@@VVU_ID@@@Z ; VuDatabase::Find
	mov	DWORD PTR _game$[ebp], eax

; 1853 : 				if(game)

	cmp	DWORD PTR _game$[ebp], 0
	je	$LN32@UI_UpdateG

; 1854 : 				{
; 1855 : 					if(game == FalconLocalGame)

	mov	ecx, OFFSET ?vuLocalSessionEntity@@3V?$VuBin@VVuSessionEntity@@@@A ; vuLocalSessionEntity
	call	??B?$VuBin@VVuSessionEntity@@@@QBE_NXZ	; VuBin<VuSessionEntity>::operator bool
	movzx	ecx, al
	test	ecx, ecx
	je	SHORT $LN53@UI_UpdateG
	mov	ecx, OFFSET ?vuLocalSessionEntity@@3V?$VuBin@VVuSessionEntity@@@@A ; vuLocalSessionEntity
	call	?get@?$VuBin@VVuSessionEntity@@@@QBEPAVVuSessionEntity@@XZ ; VuBin<VuSessionEntity>::get
	mov	ecx, eax
	call	?GetGame@FalconSessionEntity@@QAEPAVFalconGameEntity@@XZ ; FalconSessionEntity::GetGame
	mov	DWORD PTR tv193[ebp], eax
	jmp	SHORT $LN54@UI_UpdateG
$LN53@UI_UpdateG:
	mov	DWORD PTR tv193[ebp], 0
$LN54@UI_UpdateG:
	mov	edx, DWORD PTR _game$[ebp]
	cmp	edx, DWORD PTR tv193[ebp]
	jne	SHORT $LN31@UI_UpdateG

; 1856 : 						UpdateLocalGameTree();

	call	?UpdateLocalGameTree@@YAXXZ		; UpdateLocalGameTree
$LN31@UI_UpdateG:

; 1857 : 
; 1858 : 					gametype=game->GetGameType();

	mov	ecx, DWORD PTR _game$[ebp]
	call	?GetGameType@FalconGameEntity@@QAE?AW4FalconGameType@@XZ ; FalconGameEntity::GetGameType
	mov	DWORD PTR _gametype$[ebp], eax

; 1859 : 					switch(gametype)

	mov	eax, DWORD PTR _gametype$[ebp]
	mov	DWORD PTR tv197[ebp], eax
	cmp	DWORD PTR tv197[ebp], 2
	je	SHORT $LN28@UI_UpdateG
	cmp	DWORD PTR tv197[ebp], 3
	je	SHORT $LN27@UI_UpdateG
	cmp	DWORD PTR tv197[ebp], 4
	je	SHORT $LN26@UI_UpdateG
	jmp	SHORT $LN25@UI_UpdateG
$LN28@UI_UpdateG:

; 1860 : 					{
; 1861 : 						case game_Dogfight:
; 1862 : 							theTree=DogfightGames;

	mov	ecx, DWORD PTR ?DogfightGames@@3PAVC_TreeList@@A ; DogfightGames
	mov	DWORD PTR _theTree$[ebp], ecx

; 1863 : 							break;

	jmp	SHORT $LN29@UI_UpdateG
$LN27@UI_UpdateG:

; 1864 : 						case game_TacticalEngagement:
; 1865 : 							theTree=TacticalGames;

	mov	edx, DWORD PTR ?TacticalGames@@3PAVC_TreeList@@A ; TacticalGames
	mov	DWORD PTR _theTree$[ebp], edx

; 1866 : 							break;

	jmp	SHORT $LN29@UI_UpdateG
$LN26@UI_UpdateG:

; 1867 : 						case game_Campaign:
; 1868 : 							theTree=CampaignGames;

	mov	eax, DWORD PTR ?CampaignGames@@3PAVC_TreeList@@A ; CampaignGames
	mov	DWORD PTR _theTree$[ebp], eax

; 1869 : 							break;

	jmp	SHORT $LN29@UI_UpdateG
$LN25@UI_UpdateG:

; 1870 : 						default:
; 1871 : 							theTree=NULL;

	mov	DWORD PTR _theTree$[ebp], 0
$LN29@UI_UpdateG:

; 1872 : 							break;
; 1873 : 					}
; 1874 : 					if(theTree)

	cmp	DWORD PTR _theTree$[ebp], 0
	je	SHORT $LN32@UI_UpdateG

; 1875 : 					{
; 1876 : 						// Add to Game's TreeList
; 1877 : 						UpdateGameTreeBranch(gametype,game,theTree,theTree->GetRoot(),FALSE);

	push	0
	mov	ecx, DWORD PTR _theTree$[ebp]
	call	?GetRoot@C_TreeList@@QAEPAVTREELIST@@XZ	; C_TreeList::GetRoot
	push	eax
	mov	ecx, DWORD PTR _theTree$[ebp]
	push	ecx
	mov	edx, DWORD PTR _game$[ebp]
	push	edx
	mov	eax, DWORD PTR _gametype$[ebp]
	push	eax
	call	?UpdateGameTreeBranch@@YAXJPAVVuGameEntity@@PAVC_TreeList@@PAVTREELIST@@H@Z ; UpdateGameTreeBranch
	add	esp, 20					; 00000014H

; 1878 : 						theTree->RecalcSize();

	mov	ecx, DWORD PTR _theTree$[ebp]
	call	?RecalcSize@C_TreeList@@QAEXXZ		; C_TreeList::RecalcSize

; 1879 : 						if(theTree->GetParent())

	mov	ecx, DWORD PTR _theTree$[ebp]
	call	?GetParent@C_Base@@QAEPAVC_Window@@XZ	; C_Base::GetParent
	test	eax, eax
	je	SHORT $LN32@UI_UpdateG

; 1880 : 							theTree->GetParent()->RefreshClient(theTree->GetClient());

	mov	ecx, DWORD PTR _theTree$[ebp]
	call	?GetClient@C_Base@@QAEFXZ		; C_Base::GetClient
	movsx	ecx, ax
	push	ecx
	mov	ecx, DWORD PTR _theTree$[ebp]
	call	?GetParent@C_Base@@QAEPAVC_Window@@XZ	; C_Base::GetParent
	mov	ecx, eax
	call	?RefreshClient@C_Window@@QAEXJ@Z	; C_Window::RefreshClient
$LN32@UI_UpdateG:

; 1881 : 					}
; 1882 : 				}
; 1883 : 				break;

	jmp	$LN46@UI_UpdateG
$LN22@UI_UpdateG:

; 1884 : 			case _Q_SESSION_ADD_:
; 1885 : 				game=(FalconGameEntity*)vuDatabase->Find(q->GameID);

	mov	edx, DWORD PTR _q$[ebp]
	mov	eax, DWORD PTR [edx+12]
	push	eax
	mov	ecx, DWORD PTR [edx+8]
	push	ecx
	mov	ecx, DWORD PTR ?vuDatabase@@3PAVVuDatabase@@A ; vuDatabase
	call	?Find@VuDatabase@@QBEPAVVuEntity@@VVU_ID@@@Z ; VuDatabase::Find
	mov	DWORD PTR _game$[ebp], eax

; 1886 : 				session=(FalconSessionEntity*)vuDatabase->Find(q->SessionID);

	mov	edx, DWORD PTR _q$[ebp]
	mov	eax, DWORD PTR [edx+4]
	push	eax
	mov	ecx, DWORD PTR [edx]
	push	ecx
	mov	ecx, DWORD PTR ?vuDatabase@@3PAVVuDatabase@@A ; vuDatabase
	call	?Find@VuDatabase@@QBEPAVVuEntity@@VVU_ID@@@Z ; VuDatabase::Find
	mov	DWORD PTR _session$[ebp], eax

; 1887 : 				if(game && session)

	cmp	DWORD PTR _game$[ebp], 0
	je	$LN21@UI_UpdateG
	cmp	DWORD PTR _session$[ebp], 0
	je	$LN21@UI_UpdateG

; 1888 : 				{
; 1889 : 					if(game == FalconLocalGame)

	mov	ecx, OFFSET ?vuLocalSessionEntity@@3V?$VuBin@VVuSessionEntity@@@@A ; vuLocalSessionEntity
	call	??B?$VuBin@VVuSessionEntity@@@@QBE_NXZ	; VuBin<VuSessionEntity>::operator bool
	movzx	edx, al
	test	edx, edx
	je	SHORT $LN55@UI_UpdateG
	mov	ecx, OFFSET ?vuLocalSessionEntity@@3V?$VuBin@VVuSessionEntity@@@@A ; vuLocalSessionEntity
	call	?get@?$VuBin@VVuSessionEntity@@@@QBEPAVVuSessionEntity@@XZ ; VuBin<VuSessionEntity>::get
	mov	ecx, eax
	call	?GetGame@FalconSessionEntity@@QAEPAVFalconGameEntity@@XZ ; FalconSessionEntity::GetGame
	mov	DWORD PTR tv266[ebp], eax
	jmp	SHORT $LN56@UI_UpdateG
$LN55@UI_UpdateG:
	mov	DWORD PTR tv266[ebp], 0
$LN56@UI_UpdateG:
	mov	eax, DWORD PTR _game$[ebp]
	cmp	eax, DWORD PTR tv266[ebp]
	jne	SHORT $LN20@UI_UpdateG

; 1890 : 						UpdateLocalGameTree();

	call	?UpdateLocalGameTree@@YAXXZ		; UpdateLocalGameTree
$LN20@UI_UpdateG:

; 1891 : 
; 1892 : 					gametype=game->GetGameType();

	mov	ecx, DWORD PTR _game$[ebp]
	call	?GetGameType@FalconGameEntity@@QAE?AW4FalconGameType@@XZ ; FalconGameEntity::GetGameType
	mov	DWORD PTR _gametype$[ebp], eax

; 1893 : 					switch(gametype)

	mov	ecx, DWORD PTR _gametype$[ebp]
	mov	DWORD PTR tv270[ebp], ecx
	cmp	DWORD PTR tv270[ebp], 2
	je	SHORT $LN17@UI_UpdateG
	cmp	DWORD PTR tv270[ebp], 3
	je	SHORT $LN16@UI_UpdateG
	cmp	DWORD PTR tv270[ebp], 4
	je	SHORT $LN15@UI_UpdateG
	jmp	SHORT $LN14@UI_UpdateG
$LN17@UI_UpdateG:

; 1894 : 					{
; 1895 : 						case game_Dogfight:
; 1896 : 							CheckFlyButton();

	call	?CheckFlyButton@@YAXXZ			; CheckFlyButton

; 1897 : 							theTree=DogfightGames;

	mov	edx, DWORD PTR ?DogfightGames@@3PAVC_TreeList@@A ; DogfightGames
	mov	DWORD PTR _theTree$[ebp], edx

; 1898 : 							break;

	jmp	SHORT $LN18@UI_UpdateG
$LN16@UI_UpdateG:

; 1899 : 						case game_TacticalEngagement:
; 1900 : 							GetPlayerInfo(q->SessionID);

	mov	eax, DWORD PTR _q$[ebp]
	mov	ecx, DWORD PTR [eax+4]
	push	ecx
	mov	edx, DWORD PTR [eax]
	push	edx
	call	?GetPlayerInfo@@YAXVVU_ID@@@Z		; GetPlayerInfo
	add	esp, 8

; 1901 : 							TallyPlayerSquadrons();

	call	?TallyPlayerSquadrons@@YAXXZ		; TallyPlayerSquadrons

; 1902 : 							theTree=TacticalGames;

	mov	eax, DWORD PTR ?TacticalGames@@3PAVC_TreeList@@A ; TacticalGames
	mov	DWORD PTR _theTree$[ebp], eax

; 1903 : 							break;

	jmp	SHORT $LN18@UI_UpdateG
$LN15@UI_UpdateG:

; 1904 : 						case game_Campaign:
; 1905 : 							GetPlayerInfo(q->SessionID);

	mov	ecx, DWORD PTR _q$[ebp]
	mov	edx, DWORD PTR [ecx+4]
	push	edx
	mov	eax, DWORD PTR [ecx]
	push	eax
	call	?GetPlayerInfo@@YAXVVU_ID@@@Z		; GetPlayerInfo
	add	esp, 8

; 1906 : 							TallyPlayerSquadrons();

	call	?TallyPlayerSquadrons@@YAXXZ		; TallyPlayerSquadrons

; 1907 : 							theTree=CampaignGames;

	mov	ecx, DWORD PTR ?CampaignGames@@3PAVC_TreeList@@A ; CampaignGames
	mov	DWORD PTR _theTree$[ebp], ecx

; 1908 : 							break;

	jmp	SHORT $LN18@UI_UpdateG
$LN14@UI_UpdateG:

; 1909 : 						default:
; 1910 : 							theTree=NULL;

	mov	DWORD PTR _theTree$[ebp], 0
$LN18@UI_UpdateG:

; 1911 : 					}
; 1912 : 					if(theTree)

	cmp	DWORD PTR _theTree$[ebp], 0
	je	$LN21@UI_UpdateG

; 1913 : 					{
; 1914 : 						// Add to Game's Window List
; 1915 : 						gamelist=StartTreeSearch(game->Id(),theTree->GetRoot(),theTree);

	mov	edx, DWORD PTR _theTree$[ebp]
	push	edx
	mov	ecx, DWORD PTR _theTree$[ebp]
	call	?GetRoot@C_TreeList@@QAEPAVTREELIST@@XZ	; C_TreeList::GetRoot
	push	eax
	lea	eax, DWORD PTR $T3[ebp]
	push	eax
	mov	ecx, DWORD PTR _game$[ebp]
	call	?Id@VuEntity@@QBE?AVVU_ID@@XZ		; VuEntity::Id
	mov	ecx, DWORD PTR [eax+4]
	push	ecx
	mov	edx, DWORD PTR [eax]
	push	edx
	call	?StartTreeSearch@@YAPAVTREELIST@@VVU_ID@@PAV1@PAVC_TreeList@@@Z ; StartTreeSearch
	add	esp, 16					; 00000010H
	mov	DWORD PTR _gamelist$[ebp], eax

; 1916 : 						if(gamelist)

	cmp	DWORD PTR _gamelist$[ebp], 0
	je	SHORT $LN21@UI_UpdateG

; 1917 : 						{
; 1918 : 							player=StartTreeSearch(session->Id(),gamelist,theTree);

	mov	eax, DWORD PTR _theTree$[ebp]
	push	eax
	mov	ecx, DWORD PTR _gamelist$[ebp]
	push	ecx
	lea	edx, DWORD PTR $T2[ebp]
	push	edx
	mov	ecx, DWORD PTR _session$[ebp]
	call	?Id@VuEntity@@QBE?AVVU_ID@@XZ		; VuEntity::Id
	mov	ecx, DWORD PTR [eax+4]
	push	ecx
	mov	edx, DWORD PTR [eax]
	push	edx
	call	?StartTreeSearch@@YAPAVTREELIST@@VVU_ID@@PAV1@PAVC_TreeList@@@Z ; StartTreeSearch
	add	esp, 16					; 00000010H
	mov	DWORD PTR _player$[ebp], eax

; 1919 : 							if(player == NULL)

	cmp	DWORD PTR _player$[ebp], 0
	jne	SHORT $LN21@UI_UpdateG

; 1920 : 							{
; 1921 : 								player=CreatePlayerButton(theTree,session);

	mov	eax, DWORD PTR _session$[ebp]
	push	eax
	mov	ecx, DWORD PTR _theTree$[ebp]
	push	ecx
	call	?CreatePlayerButton@@YAPAVTREELIST@@PAVC_TreeList@@PAVFalconSessionEntity@@@Z ; CreatePlayerButton
	add	esp, 8
	mov	DWORD PTR _player$[ebp], eax

; 1922 : 								theTree->AddChildItem(gamelist,player);

	mov	edx, DWORD PTR _player$[ebp]
	push	edx
	mov	eax, DWORD PTR _gamelist$[ebp]
	push	eax
	mov	ecx, DWORD PTR _theTree$[ebp]
	call	?AddChildItem@C_TreeList@@QAEHPAVTREELIST@@0@Z ; C_TreeList::AddChildItem

; 1923 : 								theTree->RecalcSize();

	mov	ecx, DWORD PTR _theTree$[ebp]
	call	?RecalcSize@C_TreeList@@QAEXXZ		; C_TreeList::RecalcSize

; 1924 : 								if(theTree->GetParent())

	mov	ecx, DWORD PTR _theTree$[ebp]
	call	?GetParent@C_Base@@QAEPAVC_Window@@XZ	; C_Base::GetParent
	test	eax, eax
	je	SHORT $LN21@UI_UpdateG

; 1925 : 									theTree->GetParent()->RefreshClient(theTree->GetClient());

	mov	ecx, DWORD PTR _theTree$[ebp]
	call	?GetClient@C_Base@@QAEFXZ		; C_Base::GetClient
	movsx	ecx, ax
	push	ecx
	mov	ecx, DWORD PTR _theTree$[ebp]
	call	?GetParent@C_Base@@QAEPAVC_Window@@XZ	; C_Base::GetParent
	mov	ecx, eax
	call	?RefreshClient@C_Window@@QAEXJ@Z	; C_Window::RefreshClient
$LN21@UI_UpdateG:

; 1926 : 							}
; 1927 : 						}
; 1928 : /*
; 1929 : 						if(game == gCommsMgr->GetGame())
; 1930 : 						{
; 1931 : 							// Add to gCommsMgr game lists (if selected)
; 1932 : 							AddPlayerToGame(session);
; 1933 : 						}
; 1934 : */
; 1935 : 					}
; 1936 : 				}
; 1937 : 				break;

	jmp	$LN46@UI_UpdateG
$LN9@UI_UpdateG:

; 1938 : 			case _Q_SESSION_REMOVE_:
; 1939 : 				UpdateLocalGameTree();

	call	?UpdateLocalGameTree@@YAXXZ		; UpdateLocalGameTree

; 1940 : 				RemoveFromTree(DogfightGames,q->SessionID);

	mov	edx, DWORD PTR _q$[ebp]
	mov	eax, DWORD PTR [edx+4]
	push	eax
	mov	ecx, DWORD PTR [edx]
	push	ecx
	mov	edx, DWORD PTR ?DogfightGames@@3PAVC_TreeList@@A ; DogfightGames
	push	edx
	call	?RemoveFromTree@@YAXPAVC_TreeList@@VVU_ID@@@Z ; RemoveFromTree
	add	esp, 12					; 0000000cH

; 1941 : 				RemoveFromTree(TacticalGames,q->SessionID);

	mov	eax, DWORD PTR _q$[ebp]
	mov	ecx, DWORD PTR [eax+4]
	push	ecx
	mov	edx, DWORD PTR [eax]
	push	edx
	mov	eax, DWORD PTR ?TacticalGames@@3PAVC_TreeList@@A ; TacticalGames
	push	eax
	call	?RemoveFromTree@@YAXPAVC_TreeList@@VVU_ID@@@Z ; RemoveFromTree
	add	esp, 12					; 0000000cH

; 1942 : 				RemoveFromTree(CampaignGames,q->SessionID);

	mov	ecx, DWORD PTR _q$[ebp]
	mov	edx, DWORD PTR [ecx+4]
	push	edx
	mov	eax, DWORD PTR [ecx]
	push	eax
	mov	ecx, DWORD PTR ?CampaignGames@@3PAVC_TreeList@@A ; CampaignGames
	push	ecx
	call	?RemoveFromTree@@YAXPAVC_TreeList@@VVU_ID@@@Z ; RemoveFromTree
	add	esp, 12					; 0000000cH

; 1943 : 				// Remove player from gCommsMgr game lists (if selected)
; 1944 : 				game=(FalconGameEntity*)gCommsMgr->GetGame();

	mov	ecx, DWORD PTR ?gCommsMgr@@3PAVUIComms@@A ; gCommsMgr
	call	?GetGame@UIComms@@QAEPAVVuGameEntity@@XZ ; UIComms::GetGame
	mov	DWORD PTR _game$[ebp], eax

; 1945 : 				if(game)

	cmp	DWORD PTR _game$[ebp], 0
	je	SHORT $LN8@UI_UpdateG

; 1946 : 				{
; 1947 : //					if(game->Id() == q->GameID)
; 1948 : //						RemovePlayerFromGame(q->SessionID);
; 1949 : 					if(game->GetGameType() == game_Campaign || game->GetGameType() == game_TacticalEngagement)

	mov	ecx, DWORD PTR _game$[ebp]
	call	?GetGameType@FalconGameEntity@@QAE?AW4FalconGameType@@XZ ; FalconGameEntity::GetGameType
	cmp	eax, 4
	je	SHORT $LN6@UI_UpdateG
	mov	ecx, DWORD PTR _game$[ebp]
	call	?GetGameType@FalconGameEntity@@QAE?AW4FalconGameType@@XZ ; FalconGameEntity::GetGameType
	cmp	eax, 3
	jne	SHORT $LN8@UI_UpdateG
$LN6@UI_UpdateG:

; 1950 : 						TallyPlayerSquadrons();

	call	?TallyPlayerSquadrons@@YAXXZ		; TallyPlayerSquadrons
$LN8@UI_UpdateG:

; 1951 : //					else if(game->GetGameType() == game_Dogfight)
; 1952 : //					{
; 1953 : //						CheckFlyButton();
; 1954 : //					}
; 1955 : 				}
; 1956 : 				break;

	jmp	$LN46@UI_UpdateG
$LN5@UI_UpdateG:

; 1957 : 			case _Q_SESSION_UPDATE_:
; 1958 : 				session=(FalconSessionEntity*)vuDatabase->Find(q->SessionID);

	mov	edx, DWORD PTR _q$[ebp]
	mov	eax, DWORD PTR [edx+4]
	push	eax
	mov	ecx, DWORD PTR [edx]
	push	ecx
	mov	ecx, DWORD PTR ?vuDatabase@@3PAVVuDatabase@@A ; vuDatabase
	call	?Find@VuDatabase@@QBEPAVVuEntity@@VVU_ID@@@Z ; VuDatabase::Find
	mov	DWORD PTR _session$[ebp], eax

; 1959 : 				if(session)

	cmp	DWORD PTR _session$[ebp], 0
	je	SHORT $LN46@UI_UpdateG

; 1960 : 				{
; 1961 : 					CheckChatFilters(session);

	mov	edx, DWORD PTR _session$[ebp]
	push	edx
	call	?CheckChatFilters@@YAXPAVFalconSessionEntity@@@Z ; CheckChatFilters
	add	esp, 4

; 1962 : 					if(gCommsMgr->GetGame() != vuPlayerPoolGroup)

	mov	ecx, DWORD PTR ?gCommsMgr@@3PAVUIComms@@A ; gCommsMgr
	call	?GetGame@UIComms@@QAEPAVVuGameEntity@@XZ ; UIComms::GetGame
	cmp	eax, DWORD PTR ?vuPlayerPoolGroup@@3PAVVuGameEntity@@A ; vuPlayerPoolGroup
	je	SHORT $LN46@UI_UpdateG

; 1963 : 					{
; 1964 : 						if(gCommsMgr->GetGame())

	mov	ecx, DWORD PTR ?gCommsMgr@@3PAVUIComms@@A ; gCommsMgr
	call	?GetGame@UIComms@@QAEPAVVuGameEntity@@XZ ; UIComms::GetGame
	test	eax, eax
	je	SHORT $LN46@UI_UpdateG

; 1965 : 						{
; 1966 : 							if(gCommsMgr->GetGame()->Id() == q->GameID)

	mov	eax, DWORD PTR _q$[ebp]
	add	eax, 8
	push	eax
	lea	ecx, DWORD PTR $T1[ebp]
	push	ecx
	mov	ecx, DWORD PTR ?gCommsMgr@@3PAVUIComms@@A ; gCommsMgr
	call	?GetGame@UIComms@@QAEPAVVuGameEntity@@XZ ; UIComms::GetGame
	mov	ecx, eax
	call	?Id@VuEntity@@QBE?AVVU_ID@@XZ		; VuEntity::Id
	mov	ecx, eax
	call	??8VU_ID@@QBE_NABV0@@Z			; VU_ID::operator==
	movzx	edx, al
	test	edx, edx
	je	SHORT $LN46@UI_UpdateG

; 1967 : 							{
; 1968 : 								CheckForNewPlayer(session);

	mov	eax, DWORD PTR _session$[ebp]
	push	eax
	call	?CheckForNewPlayer@@YAXPAVFalconSessionEntity@@@Z ; CheckForNewPlayer
	add	esp, 4

; 1969 : 								CheckPlayersFlight(session);

	mov	ecx, DWORD PTR _session$[ebp]
	push	ecx
	call	?CheckPlayersFlight@@YAXPAVFalconSessionEntity@@@Z ; CheckPlayersFlight
	add	esp, 4
$LN46@UI_UpdateG:

; 1970 : 							}
; 1971 : 						}
; 1972 : 					}
; 1973 : 				}
; 1974 : 				break;
; 1975 : 		}
; 1976 : 		q=gUICommsQ->Remove();

	mov	ecx, DWORD PTR ?gUICommsQ@@3PAVCommsQueue@@A ; gUICommsQ
	call	?Remove@CommsQueue@@QAEPAUQStr@@XZ	; CommsQueue::Remove
	mov	DWORD PTR _q$[ebp], eax

; 1977 : 	}

	jmp	$LN49@UI_UpdateG
$LN51@UI_UpdateG:

; 1978 : }

	mov	esp, ebp
	pop	ebp
	ret	0
	npad	1
$LN57@UI_UpdateG:
	DD	$LN22@UI_UpdateG
	DD	$LN9@UI_UpdateG
	DD	$LN5@UI_UpdateG
	DD	$LN45@UI_UpdateG
	DD	$LN35@UI_UpdateG
	DD	$LN33@UI_UpdateG
?UI_UpdateGameList@@YAXXZ ENDP				; UI_UpdateGameList
_TEXT	ENDS
; Function compile flags: /Odtp
; File c:\users\zhitao li\documents\visual studio 2012\projects\freefalcon\ui\src\comms\ui_comms.cpp
_TEXT	SEGMENT
_item$ = -4						; size = 4
_list$ = 8						; size = 4
_ID$ = 12						; size = 8
?RemoveFromTree@@YAXPAVC_TreeList@@VVU_ID@@@Z PROC	; RemoveFromTree

; 1769 : {

	push	ebp
	mov	ebp, esp
	push	ecx

; 1770 : 	TREELIST *item;
; 1771 : 
; 1772 : 	if(!list || ID == FalconNullId)

	cmp	DWORD PTR _list$[ebp], 0
	je	SHORT $LN5@RemoveFrom
	push	OFFSET ?FalconNullId@@3VVU_ID@@A	; FalconNullId
	lea	ecx, DWORD PTR _ID$[ebp]
	call	??8VU_ID@@QBE_NABV0@@Z			; VU_ID::operator==
	movzx	eax, al
	test	eax, eax
	je	SHORT $LN6@RemoveFrom
$LN5@RemoveFrom:

; 1773 : 		return;

	jmp	$LN7@RemoveFrom
$LN6@RemoveFrom:

; 1774 : 
; 1775 : 	item=StartTreeSearch(ID,list->GetRoot(),list);

	mov	ecx, DWORD PTR _list$[ebp]
	push	ecx
	mov	ecx, DWORD PTR _list$[ebp]
	call	?GetRoot@C_TreeList@@QAEPAVTREELIST@@XZ	; C_TreeList::GetRoot
	push	eax
	mov	edx, DWORD PTR _ID$[ebp+4]
	push	edx
	mov	eax, DWORD PTR _ID$[ebp]
	push	eax
	call	?StartTreeSearch@@YAPAVTREELIST@@VVU_ID@@PAV1@PAVC_TreeList@@@Z ; StartTreeSearch
	add	esp, 16					; 00000010H
	mov	DWORD PTR _item$[ebp], eax

; 1776 : 	if(item)

	cmp	DWORD PTR _item$[ebp], 0
	je	SHORT $LN7@RemoveFrom

; 1777 : 	{
; 1778 : 		list->Refresh();

	mov	ecx, DWORD PTR _list$[ebp]
	mov	edx, DWORD PTR [ecx]
	mov	ecx, DWORD PTR _list$[ebp]
	mov	eax, DWORD PTR [edx+160]
	call	eax

; 1779 : 		if(item->Type_ == C_TYPE_MENU)

	mov	ecx, DWORD PTR _item$[ebp]
	cmp	DWORD PTR [ecx+4], 49			; 00000031H
	jne	SHORT $LN3@RemoveFrom

; 1780 : 		{
; 1781 : 			if(item->Child)

	mov	edx, DWORD PTR _item$[ebp]
	cmp	DWORD PTR [edx+32], 0
	je	SHORT $LN3@RemoveFrom

; 1782 : 				list->DeleteBranch(item->Child);

	mov	eax, DWORD PTR _item$[ebp]
	mov	ecx, DWORD PTR [eax+32]
	push	ecx
	mov	ecx, DWORD PTR _list$[ebp]
	call	?DeleteBranch@C_TreeList@@QAEXPAVTREELIST@@@Z ; C_TreeList::DeleteBranch
$LN3@RemoveFrom:

; 1783 : 		}
; 1784 : 		list->DeleteItem(item);

	mov	edx, DWORD PTR _item$[ebp]
	push	edx
	mov	ecx, DWORD PTR _list$[ebp]
	call	?DeleteItem@C_TreeList@@QAEXPAVTREELIST@@@Z ; C_TreeList::DeleteItem

; 1785 : 		list->RecalcSize();

	mov	ecx, DWORD PTR _list$[ebp]
	call	?RecalcSize@C_TreeList@@QAEXXZ		; C_TreeList::RecalcSize

; 1786 : 		if(list->Parent_)

	mov	eax, DWORD PTR _list$[ebp]
	cmp	DWORD PTR [eax+48], 0
	je	SHORT $LN7@RemoveFrom

; 1787 : 			list->Parent_->RefreshClient(list->GetClient());

	mov	ecx, DWORD PTR _list$[ebp]
	call	?GetClient@C_Base@@QAEFXZ		; C_Base::GetClient
	movsx	ecx, ax
	push	ecx
	mov	edx, DWORD PTR _list$[ebp]
	mov	ecx, DWORD PTR [edx+48]
	call	?RefreshClient@C_Window@@QAEXJ@Z	; C_Window::RefreshClient
$LN7@RemoveFrom:

; 1788 : 	}
; 1789 : }

	mov	esp, ebp
	pop	ebp
	ret	0
?RemoveFromTree@@YAXPAVC_TreeList@@VVU_ID@@@Z ENDP	; RemoveFromTree
_TEXT	ENDS
; Function compile flags: /Odtp
; File c:\users\zhitao li\documents\visual studio 2012\projects\freefalcon\ui\src\comms\ui_comms.cpp
_TEXT	SEGMENT
$T2 = -200						; size = 8
_e$3 = -192						; size = 16
$T4 = -176						; size = 8
$T5 = -168						; size = 4
tv442 = -164						; size = 4
_sessionWalker$ = -160					; size = 12
tv446 = -148						; size = 4
tv445 = -144						; size = 4
tv238 = -140						; size = 4
tv146 = -136						; size = 4
tv207 = -132						; size = 4
tv367 = -128						; size = 4
tv171 = -124						; size = 4
tv350 = -120						; size = 4
tv189 = -116						; size = 4
tv77 = -112						; size = 4
_txt$ = -108						; size = 4
tv225 = -104						; size = 4
tv254 = -100						; size = 4
_tmpID$ = -96						; size = 4
_Age$ = -92						; size = 4
_session$ = -88						; size = 4
_player$ = -84						; size = 4
_buffer$ = -80						; size = 60
__$ArrayPad$ = -20					; size = 4
__$EHRec$ = -16						; size = 16
?UpdateLocalGameTree@@YAXXZ PROC			; UpdateLocalGameTree

; 1591 : {

	push	ebp
	mov	ebp, esp
	push	-1
	push	__ehhandler$?UpdateLocalGameTree@@YAXXZ
	mov	eax, DWORD PTR fs:0
	push	eax
	push	ecx
	sub	esp, 184				; 000000b8H
	mov	eax, DWORD PTR ___security_cookie
	xor	eax, ebp
	mov	DWORD PTR __$ArrayPad$[ebp], eax
	push	ebx
	push	esi
	push	edi
	push	eax
	lea	eax, DWORD PTR __$EHRec$[ebp+4]
	mov	DWORD PTR fs:0, eax
	mov	DWORD PTR __$EHRec$[ebp], esp

; 1592 : 	TREELIST *player;
; 1593 : 	C_Text *txt;
; 1594 : 	VU_ID *tmpID=NULL;

	mov	DWORD PTR _tmpID$[ebp], 0

; 1595 : 	long Age;
; 1596 : 	_TCHAR buffer[60];
; 1597 : 
; 1598 : 	if(!People)

	cmp	DWORD PTR ?People@@3PAVC_TreeList@@A, 0	; People
	jne	SHORT $LN20@UpdateLoca

; 1599 : 		return;

	jmp	$LN21@UpdateLoca
$LN20@UpdateLoca:

; 1600 : 	if(!FalconLocalGame)

	mov	ecx, OFFSET ?vuLocalSessionEntity@@3V?$VuBin@VVuSessionEntity@@@@A ; vuLocalSessionEntity
	call	??B?$VuBin@VVuSessionEntity@@@@QBE_NXZ	; VuBin<VuSessionEntity>::operator bool
	movzx	eax, al
	test	eax, eax
	je	SHORT $LN23@UpdateLoca
	mov	ecx, OFFSET ?vuLocalSessionEntity@@3V?$VuBin@VVuSessionEntity@@@@A ; vuLocalSessionEntity
	call	?get@?$VuBin@VVuSessionEntity@@@@QBEPAVVuSessionEntity@@XZ ; VuBin<VuSessionEntity>::get
	mov	ecx, eax
	call	?GetGame@FalconSessionEntity@@QAEPAVFalconGameEntity@@XZ ; FalconSessionEntity::GetGame
	mov	DWORD PTR tv77[ebp], eax
	jmp	SHORT $LN24@UpdateLoca
$LN23@UpdateLoca:
	mov	DWORD PTR tv77[ebp], 0
$LN24@UpdateLoca:
	cmp	DWORD PTR tv77[ebp], 0
	jne	SHORT $LN19@UpdateLoca

; 1601 : 		return;

	jmp	$LN21@UpdateLoca
$LN19@UpdateLoca:

; 1602 : 
; 1603 : 	Age=GetCurrentTime();

	call	DWORD PTR __imp__GetTickCount@0
	mov	DWORD PTR _Age$[ebp], eax

; 1604 : 
; 1605 : 	if(People->GetRoot())

	mov	ecx, DWORD PTR ?People@@3PAVC_TreeList@@A ; People
	call	?GetRoot@C_TreeList@@QAEPAVTREELIST@@XZ	; C_TreeList::GetRoot
	test	eax, eax
	je	$LN18@UpdateLoca

; 1606 : 	{
; 1607 : 		txt=(C_Text*)People->GetRoot()->Item_;

	mov	ecx, DWORD PTR ?People@@3PAVC_TreeList@@A ; People
	call	?GetRoot@C_TreeList@@QAEPAVTREELIST@@XZ	; C_TreeList::GetRoot
	mov	ecx, DWORD PTR [eax+20]
	mov	DWORD PTR _txt$[ebp], ecx

; 1608 : 		if(txt)

	cmp	DWORD PTR _txt$[ebp], 0
	je	$LN17@UpdateLoca

; 1609 : 		{
; 1610 : 			tmpID=(VU_ID*)txt->GetUserPtr(_UI95_VU_ID_SLOT_);

	push	6
	mov	ecx, DWORD PTR _txt$[ebp]
	call	?GetUserPtr@C_Base@@QAEPAXJ@Z		; C_Base::GetUserPtr
	mov	DWORD PTR _tmpID$[ebp], eax

; 1611 : 			if(tmpID)

	cmp	DWORD PTR _tmpID$[ebp], 0
	je	$LN16@UpdateLoca

; 1612 : 			{
; 1613 : 				if(FalconLocalGame->Id() != *tmpID)

	mov	ecx, OFFSET ?vuLocalSessionEntity@@3V?$VuBin@VVuSessionEntity@@@@A ; vuLocalSessionEntity
	call	??B?$VuBin@VVuSessionEntity@@@@QBE_NXZ	; VuBin<VuSessionEntity>::operator bool
	movzx	edx, al
	test	edx, edx
	je	SHORT $LN25@UpdateLoca
	mov	ecx, OFFSET ?vuLocalSessionEntity@@3V?$VuBin@VVuSessionEntity@@@@A ; vuLocalSessionEntity
	call	?get@?$VuBin@VVuSessionEntity@@@@QBEPAVVuSessionEntity@@XZ ; VuBin<VuSessionEntity>::get
	mov	ecx, eax
	call	?GetGame@FalconSessionEntity@@QAEPAVFalconGameEntity@@XZ ; FalconSessionEntity::GetGame
	mov	DWORD PTR tv146[ebp], eax
	jmp	SHORT $LN26@UpdateLoca
$LN25@UpdateLoca:
	mov	DWORD PTR tv146[ebp], 0
$LN26@UpdateLoca:
	mov	eax, DWORD PTR _tmpID$[ebp]
	push	eax
	lea	ecx, DWORD PTR $T4[ebp]
	push	ecx
	mov	ecx, DWORD PTR tv146[ebp]
	call	?Id@VuEntity@@QBE?AVVU_ID@@XZ		; VuEntity::Id
	mov	ecx, eax
	call	??9VU_ID@@QBE_NABV0@@Z			; VU_ID::operator!=
	movzx	edx, al
	test	edx, edx
	je	SHORT $LN15@UpdateLoca

; 1614 : 					MakeLocalGameTree(FalconLocalGame);

	mov	ecx, OFFSET ?vuLocalSessionEntity@@3V?$VuBin@VVuSessionEntity@@@@A ; vuLocalSessionEntity
	call	??B?$VuBin@VVuSessionEntity@@@@QBE_NXZ	; VuBin<VuSessionEntity>::operator bool
	movzx	eax, al
	test	eax, eax
	je	SHORT $LN27@UpdateLoca
	mov	ecx, OFFSET ?vuLocalSessionEntity@@3V?$VuBin@VVuSessionEntity@@@@A ; vuLocalSessionEntity
	call	?get@?$VuBin@VVuSessionEntity@@@@QBEPAVVuSessionEntity@@XZ ; VuBin<VuSessionEntity>::get
	mov	ecx, eax
	call	?GetGame@FalconSessionEntity@@QAEPAVFalconGameEntity@@XZ ; FalconSessionEntity::GetGame
	mov	DWORD PTR tv171[ebp], eax
	jmp	SHORT $LN28@UpdateLoca
$LN27@UpdateLoca:
	mov	DWORD PTR tv171[ebp], 0
$LN28@UpdateLoca:
	mov	ecx, DWORD PTR tv171[ebp]
	push	ecx
	call	?MakeLocalGameTree@@YAXPAVVuGameEntity@@@Z ; MakeLocalGameTree
	add	esp, 4
$LN15@UpdateLoca:

; 1615 : 			}

	jmp	SHORT $LN17@UpdateLoca
$LN16@UpdateLoca:

; 1616 : 			else if((VuGameEntity*)FalconLocalGame != vuPlayerPoolGroup)

	mov	ecx, OFFSET ?vuLocalSessionEntity@@3V?$VuBin@VVuSessionEntity@@@@A ; vuLocalSessionEntity
	call	??B?$VuBin@VVuSessionEntity@@@@QBE_NXZ	; VuBin<VuSessionEntity>::operator bool
	movzx	edx, al
	test	edx, edx
	je	SHORT $LN29@UpdateLoca
	mov	ecx, OFFSET ?vuLocalSessionEntity@@3V?$VuBin@VVuSessionEntity@@@@A ; vuLocalSessionEntity
	call	?get@?$VuBin@VVuSessionEntity@@@@QBEPAVVuSessionEntity@@XZ ; VuBin<VuSessionEntity>::get
	mov	ecx, eax
	call	?GetGame@FalconSessionEntity@@QAEPAVFalconGameEntity@@XZ ; FalconSessionEntity::GetGame
	mov	DWORD PTR tv189[ebp], eax
	jmp	SHORT $LN30@UpdateLoca
$LN29@UpdateLoca:
	mov	DWORD PTR tv189[ebp], 0
$LN30@UpdateLoca:
	mov	eax, DWORD PTR tv189[ebp]
	cmp	eax, DWORD PTR ?vuPlayerPoolGroup@@3PAVVuGameEntity@@A ; vuPlayerPoolGroup
	je	SHORT $LN17@UpdateLoca

; 1617 : 				MakeLocalGameTree(FalconLocalGame);

	mov	ecx, OFFSET ?vuLocalSessionEntity@@3V?$VuBin@VVuSessionEntity@@@@A ; vuLocalSessionEntity
	call	??B?$VuBin@VVuSessionEntity@@@@QBE_NXZ	; VuBin<VuSessionEntity>::operator bool
	movzx	ecx, al
	test	ecx, ecx
	je	SHORT $LN31@UpdateLoca
	mov	ecx, OFFSET ?vuLocalSessionEntity@@3V?$VuBin@VVuSessionEntity@@@@A ; vuLocalSessionEntity
	call	?get@?$VuBin@VVuSessionEntity@@@@QBEPAVVuSessionEntity@@XZ ; VuBin<VuSessionEntity>::get
	mov	ecx, eax
	call	?GetGame@FalconSessionEntity@@QAEPAVFalconGameEntity@@XZ ; FalconSessionEntity::GetGame
	mov	DWORD PTR tv207[ebp], eax
	jmp	SHORT $LN32@UpdateLoca
$LN31@UpdateLoca:
	mov	DWORD PTR tv207[ebp], 0
$LN32@UpdateLoca:
	mov	edx, DWORD PTR tv207[ebp]
	push	edx
	call	?MakeLocalGameTree@@YAXPAVVuGameEntity@@@Z ; MakeLocalGameTree
	add	esp, 4
$LN17@UpdateLoca:

; 1618 : 		}
; 1619 : 	}
; 1620 : 	else

	jmp	SHORT $LN12@UpdateLoca
$LN18@UpdateLoca:

; 1621 : 		MakeLocalGameTree(FalconLocalGame);

	mov	ecx, OFFSET ?vuLocalSessionEntity@@3V?$VuBin@VVuSessionEntity@@@@A ; vuLocalSessionEntity
	call	??B?$VuBin@VVuSessionEntity@@@@QBE_NXZ	; VuBin<VuSessionEntity>::operator bool
	movzx	eax, al
	test	eax, eax
	je	SHORT $LN33@UpdateLoca
	mov	ecx, OFFSET ?vuLocalSessionEntity@@3V?$VuBin@VVuSessionEntity@@@@A ; vuLocalSessionEntity
	call	?get@?$VuBin@VVuSessionEntity@@@@QBEPAVVuSessionEntity@@XZ ; VuBin<VuSessionEntity>::get
	mov	ecx, eax
	call	?GetGame@FalconSessionEntity@@QAEPAVFalconGameEntity@@XZ ; FalconSessionEntity::GetGame
	mov	DWORD PTR tv225[ebp], eax
	jmp	SHORT $LN34@UpdateLoca
$LN33@UpdateLoca:
	mov	DWORD PTR tv225[ebp], 0
$LN34@UpdateLoca:
	mov	ecx, DWORD PTR tv225[ebp]
	push	ecx
	call	?MakeLocalGameTree@@YAXPAVVuGameEntity@@@Z ; MakeLocalGameTree
	add	esp, 4
$LN12@UpdateLoca:

; 1622 : 
; 1623 : 	if(People->GetRoot())

	mov	ecx, DWORD PTR ?People@@3PAVC_TreeList@@A ; People
	call	?GetRoot@C_TreeList@@QAEPAVTREELIST@@XZ	; C_TreeList::GetRoot
	test	eax, eax
	je	SHORT $LN11@UpdateLoca

; 1624 : 		People->GetRoot()->Item_->SetUserNumber(100,Age);

	mov	edx, DWORD PTR _Age$[ebp]
	push	edx
	push	100					; 00000064H
	mov	ecx, DWORD PTR ?People@@3PAVC_TreeList@@A ; People
	call	?GetRoot@C_TreeList@@QAEPAVTREELIST@@XZ	; C_TreeList::GetRoot
	mov	ecx, DWORD PTR [eax+20]
	call	?SetUserNumber@C_Base@@QAEXJJ@Z		; C_Base::SetUserNumber
$LN11@UpdateLoca:

; 1625 : 
; 1626 : 	VuSessionsIterator sessionWalker(FalconLocalGame);

	mov	ecx, OFFSET ?vuLocalSessionEntity@@3V?$VuBin@VVuSessionEntity@@@@A ; vuLocalSessionEntity
	call	??B?$VuBin@VVuSessionEntity@@@@QBE_NXZ	; VuBin<VuSessionEntity>::operator bool
	movzx	eax, al
	test	eax, eax
	je	SHORT $LN35@UpdateLoca
	mov	ecx, OFFSET ?vuLocalSessionEntity@@3V?$VuBin@VVuSessionEntity@@@@A ; vuLocalSessionEntity
	call	?get@?$VuBin@VVuSessionEntity@@@@QBEPAVVuSessionEntity@@XZ ; VuBin<VuSessionEntity>::get
	mov	ecx, eax
	call	?GetGame@FalconSessionEntity@@QAEPAVFalconGameEntity@@XZ ; FalconSessionEntity::GetGame
	mov	DWORD PTR tv254[ebp], eax
	jmp	SHORT $LN36@UpdateLoca
$LN35@UpdateLoca:
	mov	DWORD PTR tv254[ebp], 0
$LN36@UpdateLoca:
	mov	ecx, DWORD PTR tv254[ebp]
	push	ecx
	lea	ecx, DWORD PTR _sessionWalker$[ebp]
	call	??0VuSessionsIterator@@QAE@PAVVuGroupEntity@@@Z ; VuSessionsIterator::VuSessionsIterator
	mov	DWORD PTR __$EHRec$[ebp+12], 0

; 1627 : 	FalconSessionEntity *session;
; 1628 : 
; 1629 : 	session = (FalconSessionEntity*)sessionWalker.GetFirst();

	lea	ecx, DWORD PTR _sessionWalker$[ebp]
	call	?GetFirst@VuSessionsIterator@@QAEPAVVuSessionEntity@@XZ ; VuSessionsIterator::GetFirst
	mov	DWORD PTR _session$[ebp], eax
$LN10@UpdateLoca:

; 1630 : 	while(session)

	cmp	DWORD PTR _session$[ebp], 0
	je	$LN9@UpdateLoca

; 1631 : 	{
; 1632 : 		player=StartTreeSearch(session->Id(),People->GetRoot(),People);

	mov	edx, DWORD PTR ?People@@3PAVC_TreeList@@A ; People
	push	edx
	mov	ecx, DWORD PTR ?People@@3PAVC_TreeList@@A ; People
	call	?GetRoot@C_TreeList@@QAEPAVTREELIST@@XZ	; C_TreeList::GetRoot
	push	eax
	lea	eax, DWORD PTR $T2[ebp]
	push	eax
	mov	ecx, DWORD PTR _session$[ebp]
	call	?Id@VuEntity@@QBE?AVVU_ID@@XZ		; VuEntity::Id
	mov	ecx, DWORD PTR [eax+4]
	push	ecx
	mov	edx, DWORD PTR [eax]
	push	edx
	call	?StartTreeSearch@@YAPAVTREELIST@@VVU_ID@@PAV1@PAVC_TreeList@@@Z ; StartTreeSearch
	add	esp, 16					; 00000010H
	mov	DWORD PTR _player$[ebp], eax

; 1633 : 		if(player == NULL)

	cmp	DWORD PTR _player$[ebp], 0
	jne	$LN8@UpdateLoca

; 1634 : 		{
; 1635 : 			player=CreatePlayerButton(People,session);

	mov	eax, DWORD PTR _session$[ebp]
	push	eax
	mov	ecx, DWORD PTR ?People@@3PAVC_TreeList@@A ; People
	push	ecx
	call	?CreatePlayerButton@@YAPAVTREELIST@@PAVC_TreeList@@PAVFalconSessionEntity@@@Z ; CreatePlayerButton
	add	esp, 8
	mov	DWORD PTR _player$[ebp], eax

; 1636 : 			if(player)

	cmp	DWORD PTR _player$[ebp], 0
	je	$LN7@UpdateLoca

; 1637 : 			{
; 1638 : 				People->AddItem(People->GetRoot(),player);

	mov	edx, DWORD PTR _player$[ebp]
	push	edx
	mov	ecx, DWORD PTR ?People@@3PAVC_TreeList@@A ; People
	call	?GetRoot@C_TreeList@@QAEPAVTREELIST@@XZ	; C_TreeList::GetRoot
	push	eax
	mov	ecx, DWORD PTR ?People@@3PAVC_TreeList@@A ; People
	call	?AddItem@C_TreeList@@QAEHPAVTREELIST@@0@Z ; C_TreeList::AddItem

; 1639 : 				if(PeopleChatType == 1)

	movsx	eax, WORD PTR _PeopleChatType
	cmp	eax, 1
	jne	SHORT $LN6@UpdateLoca

; 1640 : 					player->Item_->SetState(1);

	push	1
	mov	ecx, DWORD PTR _player$[ebp]
	mov	edx, DWORD PTR _player$[ebp]
	mov	eax, DWORD PTR [edx+20]
	mov	edx, DWORD PTR [eax]
	mov	ecx, DWORD PTR [ecx+20]
	mov	eax, DWORD PTR [edx+56]
	call	eax

; 1641 : 				else

	jmp	SHORT $LN5@UpdateLoca
$LN6@UpdateLoca:

; 1642 : 					CheckPlayerGroup(session,(C_Player*)player->Item_);

	mov	ecx, DWORD PTR _player$[ebp]
	mov	edx, DWORD PTR [ecx+20]
	push	edx
	mov	eax, DWORD PTR _session$[ebp]
	push	eax
	call	?CheckPlayerGroup@@YAXPAVFalconSessionEntity@@PAVC_Player@@@Z ; CheckPlayerGroup
	add	esp, 8
$LN5@UpdateLoca:

; 1643 : 				player->Item_->SetUserNumber(100,Age);

	mov	ecx, DWORD PTR _Age$[ebp]
	push	ecx
	push	100					; 00000064H
	mov	edx, DWORD PTR _player$[ebp]
	mov	ecx, DWORD PTR [edx+20]
	call	?SetUserNumber@C_Base@@QAEXJJ@Z		; C_Base::SetUserNumber

; 1644 : 				player->Item_->SetMenu(CHAT_POP);

	push	60057					; 0000ea99H
	mov	eax, DWORD PTR _player$[ebp]
	mov	ecx, DWORD PTR _player$[ebp]
	mov	edx, DWORD PTR [ecx+20]
	mov	edx, DWORD PTR [edx]
	mov	ecx, DWORD PTR [eax+20]
	mov	eax, DWORD PTR [edx+64]
	call	eax

; 1645 : 				_stprintf(buffer,"%s %s",((C_Player*)player->Item_)->GetName(),gStringMgr->GetString(TXT_JOINED_GAME));

	push	177					; 000000b1H
	mov	ecx, DWORD PTR ?gStringMgr@@3PAVC_String@@A ; gStringMgr
	call	?GetString@C_String@@QAEPADJ@Z		; C_String::GetString
	push	eax
	mov	ecx, DWORD PTR _player$[ebp]
	mov	ecx, DWORD PTR [ecx+20]
	call	?GetName@C_Player@@QAEPADXZ		; C_Player::GetName
	push	eax
	push	OFFSET ??_C@_05DNIIFBMG@?$CFs?5?$CFs?$AA@
	lea	edx, DWORD PTR _buffer$[ebp]
	push	edx
	call	_sprintf
	add	esp, 16					; 00000010H

; 1646 : 				ReceiveChatString(FalconNullId,buffer);

	lea	eax, DWORD PTR _buffer$[ebp]
	push	eax
	mov	ecx, DWORD PTR ?FalconNullId@@3VVU_ID@@A+4
	push	ecx
	mov	edx, DWORD PTR ?FalconNullId@@3VVU_ID@@A
	push	edx
	call	?ReceiveChatString@@YAXVVU_ID@@PAD@Z	; ReceiveChatString
	add	esp, 12					; 0000000cH

; 1647 : 
; 1648 : 				// Begin Uplink stuff
; 1649 : 				if(m_pUplink != NULL && FalconLocalGame && FalconLocalGame->IsLocal())

	push	0
	mov	ecx, OFFSET ?m_pUplink@@3V?$_com_ptr_t@V?$_com_IIID@UIUplink@GNETCORELib@@$1?_GUID_5ff85b6b_de05_42b9_831f_dc6a4e30a513@@3U__s_GUID@@B@@@@A ; m_pUplink
	call	??9?$_com_ptr_t@V?$_com_IIID@UIUplink@GNETCORELib@@$1?_GUID_5ff85b6b_de05_42b9_831f_dc6a4e30a513@@3U__s_GUID@@B@@@@QBE_NH@Z ; _com_ptr_t<_com_IIID<GNETCORELib::IUplink,&_GUID_5ff85b6b_de05_42b9_831f_dc6a4e30a513> >::operator!=
	movzx	eax, al
	test	eax, eax
	je	$LN7@UpdateLoca
	mov	ecx, OFFSET ?vuLocalSessionEntity@@3V?$VuBin@VVuSessionEntity@@@@A ; vuLocalSessionEntity
	call	??B?$VuBin@VVuSessionEntity@@@@QBE_NXZ	; VuBin<VuSessionEntity>::operator bool
	movzx	ecx, al
	test	ecx, ecx
	je	SHORT $LN37@UpdateLoca
	mov	ecx, OFFSET ?vuLocalSessionEntity@@3V?$VuBin@VVuSessionEntity@@@@A ; vuLocalSessionEntity
	call	?get@?$VuBin@VVuSessionEntity@@@@QBEPAVVuSessionEntity@@XZ ; VuBin<VuSessionEntity>::get
	mov	ecx, eax
	call	?GetGame@FalconSessionEntity@@QAEPAVFalconGameEntity@@XZ ; FalconSessionEntity::GetGame
	mov	DWORD PTR tv350[ebp], eax
	jmp	SHORT $LN38@UpdateLoca
$LN37@UpdateLoca:
	mov	DWORD PTR tv350[ebp], 0
$LN38@UpdateLoca:
	cmp	DWORD PTR tv350[ebp], 0
	je	$LN7@UpdateLoca
	mov	ecx, OFFSET ?vuLocalSessionEntity@@3V?$VuBin@VVuSessionEntity@@@@A ; vuLocalSessionEntity
	call	??B?$VuBin@VVuSessionEntity@@@@QBE_NXZ	; VuBin<VuSessionEntity>::operator bool
	movzx	edx, al
	test	edx, edx
	je	SHORT $LN39@UpdateLoca
	mov	ecx, OFFSET ?vuLocalSessionEntity@@3V?$VuBin@VVuSessionEntity@@@@A ; vuLocalSessionEntity
	call	?get@?$VuBin@VVuSessionEntity@@@@QBEPAVVuSessionEntity@@XZ ; VuBin<VuSessionEntity>::get
	mov	ecx, eax
	call	?GetGame@FalconSessionEntity@@QAEPAVFalconGameEntity@@XZ ; FalconSessionEntity::GetGame
	mov	DWORD PTR tv367[ebp], eax
	jmp	SHORT $LN40@UpdateLoca
$LN39@UpdateLoca:
	mov	DWORD PTR tv367[ebp], 0
$LN40@UpdateLoca:
	mov	ecx, DWORD PTR tv367[ebp]
	call	?IsLocal@VuEntity@@QBEEXZ		; VuEntity::IsLocal
	movzx	eax, al
	test	eax, eax
	je	$LN7@UpdateLoca

; 1650 : 				{
; 1651 : 					try
; 1652 : 					{

	mov	BYTE PTR __$EHRec$[ebp+12], 1

; 1653 : 						m_pUplink->AddPlayer(((C_Player*)player->Item_)->GetName());

	mov	ecx, DWORD PTR _player$[ebp]
	mov	ecx, DWORD PTR [ecx+20]
	call	?GetName@C_Player@@QAEPADXZ		; C_Player::GetName
	mov	DWORD PTR tv238[ebp], eax
	push	ecx
	mov	ecx, esp
	mov	DWORD PTR $T5[ebp], esp
	mov	edx, DWORD PTR tv238[ebp]
	push	edx
	call	??0_bstr_t@@QAE@PBD@Z			; _bstr_t::_bstr_t
	mov	DWORD PTR tv445[ebp], eax
	mov	eax, DWORD PTR tv445[ebp]
	mov	DWORD PTR tv442[ebp], eax
	mov	BYTE PTR __$EHRec$[ebp+12], 2
	mov	ecx, OFFSET ?m_pUplink@@3V?$_com_ptr_t@V?$_com_IIID@UIUplink@GNETCORELib@@$1?_GUID_5ff85b6b_de05_42b9_831f_dc6a4e30a513@@3U__s_GUID@@B@@@@A ; m_pUplink
	call	??C?$_com_ptr_t@V?$_com_IIID@UIUplink@GNETCORELib@@$1?_GUID_5ff85b6b_de05_42b9_831f_dc6a4e30a513@@3U__s_GUID@@B@@@@QBEPAUIUplink@GNETCORELib@@XZ ; _com_ptr_t<_com_IIID<GNETCORELib::IUplink,&_GUID_5ff85b6b_de05_42b9_831f_dc6a4e30a513> >::operator->
	mov	DWORD PTR tv446[ebp], eax
	mov	BYTE PTR __$EHRec$[ebp+12], 1
	mov	ecx, DWORD PTR tv446[ebp]
	call	?AddPlayer@IUplink@GNETCORELib@@QAEJV_bstr_t@@@Z ; GNETCORELib::IUplink::AddPlayer

; 1654 : 					}

	jmp	SHORT $LN41@UpdateLoca
__catch$?UpdateLocalGameTree@@YAXXZ$0:

; 1655 : 
; 1656 : 					catch(_com_error e)
; 1657 : 					{
; 1658 : 						MonoPrint("StartCampaignGame: Error 0x%X occured during UpLink startup!", e.Error());

	lea	ecx, DWORD PTR _e$3[ebp]
	call	?Error@_com_error@@QBEJXZ		; _com_error::Error
	push	eax
	push	OFFSET ??_C@_0DN@CJCLCKKH@StartCampaignGame?3?5Error?50x?$CFX?5oc@
	call	_MonoPrint
	add	esp, 8

; 1659 : 					}

	lea	ecx, DWORD PTR _e$3[ebp]
	call	??1_com_error@@UAE@XZ			; _com_error::~_com_error
	mov	eax, $LN47@UpdateLoca
	ret	0
$LN41@UpdateLoca:
	mov	DWORD PTR __$EHRec$[ebp+12], 0
	jmp	SHORT $LN7@UpdateLoca
$LN47@UpdateLoca:
	mov	DWORD PTR __$EHRec$[ebp+12], 0
$LN7@UpdateLoca:

; 1660 : 				}
; 1661 : 				// End Uplink stuff
; 1662 : 			}
; 1663 : 		}
; 1664 : 		else

	jmp	SHORT $LN2@UpdateLoca
$LN8@UpdateLoca:

; 1665 : 		{
; 1666 : 			player->Item_->SetUserNumber(100,Age);

	mov	ecx, DWORD PTR _Age$[ebp]
	push	ecx
	push	100					; 00000064H
	mov	edx, DWORD PTR _player$[ebp]
	mov	ecx, DWORD PTR [edx+20]
	call	?SetUserNumber@C_Base@@QAEXJJ@Z		; C_Base::SetUserNumber
$LN2@UpdateLoca:

; 1667 : 		}
; 1668 : 		session = (FalconSessionEntity*)sessionWalker.GetNext();

	lea	ecx, DWORD PTR _sessionWalker$[ebp]
	call	?GetNext@VuSessionsIterator@@QAEPAVVuSessionEntity@@XZ ; VuSessionsIterator::GetNext
	mov	DWORD PTR _session$[ebp], eax

; 1669 : 	}

	jmp	$LN10@UpdateLoca
$LN9@UpdateLoca:

; 1670 : 	People->SetDelCallback(RemoveOldPeopleTreeCB);

	push	OFFSET ?RemoveOldPeopleTreeCB@@YAXPAVTREELIST@@@Z ; RemoveOldPeopleTreeCB
	mov	ecx, DWORD PTR ?People@@3PAVC_TreeList@@A ; People
	call	?SetDelCallback@C_TreeList@@QAEXP6AXPAVTREELIST@@@Z@Z ; C_TreeList::SetDelCallback

; 1671 : 	People->RemoveOld(100,Age);

	mov	eax, DWORD PTR _Age$[ebp]
	push	eax
	push	100					; 00000064H
	mov	ecx, DWORD PTR ?People@@3PAVC_TreeList@@A ; People
	call	?RemoveOld@C_TreeList@@QAEXJJ@Z		; C_TreeList::RemoveOld

; 1672 : 	People->SetDelCallback(NULL);

	push	0
	mov	ecx, DWORD PTR ?People@@3PAVC_TreeList@@A ; People
	call	?SetDelCallback@C_TreeList@@QAEXP6AXPAVTREELIST@@@Z@Z ; C_TreeList::SetDelCallback

; 1673 : 	People->RecalcSize();

	mov	ecx, DWORD PTR ?People@@3PAVC_TreeList@@A ; People
	call	?RecalcSize@C_TreeList@@QAEXXZ		; C_TreeList::RecalcSize

; 1674 : 	if(People->Parent_)

	mov	ecx, DWORD PTR ?People@@3PAVC_TreeList@@A ; People
	cmp	DWORD PTR [ecx+48], 0
	je	SHORT $LN1@UpdateLoca

; 1675 : 		People->Parent_->RefreshClient(People->GetClient());

	mov	ecx, DWORD PTR ?People@@3PAVC_TreeList@@A ; People
	call	?GetClient@C_Base@@QAEFXZ		; C_Base::GetClient
	movsx	edx, ax
	push	edx
	mov	eax, DWORD PTR ?People@@3PAVC_TreeList@@A ; People
	mov	ecx, DWORD PTR [eax+48]
	call	?RefreshClient@C_Window@@QAEXJ@Z	; C_Window::RefreshClient
$LN1@UpdateLoca:

; 1676 : }

	mov	DWORD PTR __$EHRec$[ebp+12], -1
	lea	ecx, DWORD PTR _sessionWalker$[ebp]
	call	??1VuSessionsIterator@@UAE@XZ		; VuSessionsIterator::~VuSessionsIterator
$LN21@UpdateLoca:
	mov	ecx, DWORD PTR __$EHRec$[ebp+4]
	mov	DWORD PTR fs:0, ecx
	pop	ecx
	pop	edi
	pop	esi
	pop	ebx
	mov	ecx, DWORD PTR __$ArrayPad$[ebp]
	xor	ecx, ebp
	call	@__security_check_cookie@4
	mov	esp, ebp
	pop	ebp
	ret	0
_TEXT	ENDS
text$x	SEGMENT
__unwindfunclet$?UpdateLocalGameTree@@YAXXZ$2:
	lea	ecx, DWORD PTR _sessionWalker$[ebp]
	jmp	??1VuSessionsIterator@@UAE@XZ		; VuSessionsIterator::~VuSessionsIterator
__unwindfunclet$?UpdateLocalGameTree@@YAXXZ$3:
	mov	ecx, DWORD PTR $T5[ebp]
	jmp	??1_bstr_t@@QAE@XZ			; _bstr_t::~_bstr_t
__ehhandler$?UpdateLocalGameTree@@YAXXZ:
	mov	edx, DWORD PTR [esp+8]
	lea	eax, DWORD PTR [edx+12]
	mov	ecx, DWORD PTR [edx-204]
	xor	ecx, eax
	call	@__security_check_cookie@4
	mov	ecx, DWORD PTR [edx-8]
	xor	ecx, eax
	call	@__security_check_cookie@4
	mov	eax, OFFSET __ehfuncinfo$?UpdateLocalGameTree@@YAXXZ
	jmp	___CxxFrameHandler3
text$x	ENDS
?UpdateLocalGameTree@@YAXXZ ENDP			; UpdateLocalGameTree
; Function compile flags: /Odtp
; File c:\users\zhitao li\documents\visual studio 2012\projects\freefalcon\ui\src\comms\ui_comms.cpp
_TEXT	SEGMENT
$T1 = -16						; size = 8
_item$ = -8						; size = 4
_player$ = -4						; size = 4
_session$ = 8						; size = 4
?CheckChatFilters@@YAXPAVFalconSessionEntity@@@Z PROC	; CheckChatFilters

; 1502 : {

	push	ebp
	mov	ebp, esp
	sub	esp, 16					; 00000010H

; 1503 : 	TREELIST *item;
; 1504 : 	C_Player *player;
; 1505 : 
; 1506 : 	if(!People)

	cmp	DWORD PTR ?People@@3PAVC_TreeList@@A, 0	; People
	jne	SHORT $LN3@CheckChatF

; 1507 : 		return;

	jmp	SHORT $LN4@CheckChatF
$LN3@CheckChatF:

; 1508 : 
; 1509 : 	item=People->Find(session->Id().creator_);

	lea	eax, DWORD PTR $T1[ebp]
	push	eax
	mov	ecx, DWORD PTR _session$[ebp]
	call	?Id@VuEntity@@QBE?AVVU_ID@@XZ		; VuEntity::Id
	add	eax, 4
	mov	ecx, eax
	call	??BVU_SESSION_ID@@QBEKXZ		; VU_SESSION_ID::operator unsigned long
	push	eax
	mov	ecx, DWORD PTR ?People@@3PAVC_TreeList@@A ; People
	call	?Find@C_TreeList@@QAEPAVTREELIST@@J@Z	; C_TreeList::Find
	mov	DWORD PTR _item$[ebp], eax

; 1510 : 	if(item)

	cmp	DWORD PTR _item$[ebp], 0
	je	SHORT $LN4@CheckChatF

; 1511 : 	{
; 1512 : 		player=(C_Player*)item->Item_;

	mov	ecx, DWORD PTR _item$[ebp]
	mov	edx, DWORD PTR [ecx+20]
	mov	DWORD PTR _player$[ebp], edx

; 1513 : 		if(player)

	cmp	DWORD PTR _player$[ebp], 0
	je	SHORT $LN4@CheckChatF

; 1514 : 		{
; 1515 : 			player->SetName(session->GetPlayerCallsign());

	mov	ecx, DWORD PTR _session$[ebp]
	call	?GetPlayerCallsign@FalconSessionEntity@@QAEPADXZ ; FalconSessionEntity::GetPlayerCallsign
	push	eax
	mov	ecx, DWORD PTR _player$[ebp]
	call	?SetName@C_Player@@QAEXPAD@Z		; C_Player::SetName

; 1516 : 			CheckPlayerGroup(session,player);

	mov	eax, DWORD PTR _player$[ebp]
	push	eax
	mov	ecx, DWORD PTR _session$[ebp]
	push	ecx
	call	?CheckPlayerGroup@@YAXPAVFalconSessionEntity@@PAVC_Player@@@Z ; CheckPlayerGroup
	add	esp, 8

; 1517 : 			player->Refresh();

	mov	edx, DWORD PTR _player$[ebp]
	mov	eax, DWORD PTR [edx]
	mov	ecx, DWORD PTR _player$[ebp]
	mov	edx, DWORD PTR [eax+160]
	call	edx
$LN4@CheckChatF:

; 1518 : 		}
; 1519 : 	}
; 1520 : }

	mov	esp, ebp
	pop	ebp
	ret	0
?CheckChatFilters@@YAXPAVFalconSessionEntity@@@Z ENDP	; CheckChatFilters
_TEXT	ENDS
; Function compile flags: /Odtp
; File c:\users\zhitao li\documents\visual studio 2012\projects\freefalcon\ui\src\comms\ui_comms.cpp
_TEXT	SEGMENT
$T1 = -48						; size = 8
$T2 = -40						; size = 8
$T3 = -32						; size = 8
$T4 = -24						; size = 8
$T5 = -16						; size = 8
_player$ = -8						; size = 4
_me$ = -4						; size = 4
_session$ = 8						; size = 4
_plyr$ = 12						; size = 4
?CheckPlayerGroup@@YAXPAVFalconSessionEntity@@PAVC_Player@@@Z PROC ; CheckPlayerGroup

; 1432 : {

	push	ebp
	mov	ebp, esp
	sub	esp, 48					; 00000030H
	push	esi

; 1433 : 	Flight player,me;
; 1434 : 	if(session == FalconLocalSession)

	mov	ecx, OFFSET ?vuLocalSessionEntity@@3V?$VuBin@VVuSessionEntity@@@@A ; vuLocalSessionEntity
	call	?get@?$VuBin@VVuSessionEntity@@@@QBEPAVVuSessionEntity@@XZ ; VuBin<VuSessionEntity>::get
	cmp	DWORD PTR _session$[ebp], eax
	jne	SHORT $LN18@CheckPlaye

; 1435 : 	{
; 1436 : 		plyr->SetState(1);

	push	1
	mov	eax, DWORD PTR _plyr$[ebp]
	mov	edx, DWORD PTR [eax]
	mov	ecx, DWORD PTR _plyr$[ebp]
	mov	eax, DWORD PTR [edx+56]
	call	eax

; 1437 : 		plyr->SetMute(0);

	push	0
	mov	ecx, DWORD PTR _plyr$[ebp]
	call	?SetMute@C_Player@@QAEXF@Z		; C_Player::SetMute
	jmp	$LN19@CheckPlaye
$LN18@CheckPlaye:

; 1438 : 	}
; 1439 : 	else if(PeopleChatType == 1) // CHAT_ALL

	movsx	ecx, WORD PTR _PeopleChatType
	cmp	ecx, 1
	jne	SHORT $LN16@CheckPlaye

; 1440 : 	{
; 1441 : 		plyr->SetState(1);

	push	1
	mov	edx, DWORD PTR _plyr$[ebp]
	mov	eax, DWORD PTR [edx]
	mov	ecx, DWORD PTR _plyr$[ebp]
	mov	edx, DWORD PTR [eax+56]
	call	edx

; 1442 : 		plyr->SetMute(0);

	push	0
	mov	ecx, DWORD PTR _plyr$[ebp]
	call	?SetMute@C_Player@@QAEXF@Z		; C_Player::SetMute
	jmp	$LN19@CheckPlaye
$LN16@CheckPlaye:

; 1443 : 	}
; 1444 : 	else if(PeopleChatType == 2) // CHAT_TEAM

	movsx	eax, WORD PTR _PeopleChatType
	cmp	eax, 2
	jne	SHORT $LN14@CheckPlaye

; 1445 : 	{
; 1446 : 		if(FalconLocalSession->GetTeam() == session->GetTeam())

	mov	ecx, OFFSET ?vuLocalSessionEntity@@3V?$VuBin@VVuSessionEntity@@@@A ; vuLocalSessionEntity
	call	?get@?$VuBin@VVuSessionEntity@@@@QBEPAVVuSessionEntity@@XZ ; VuBin<VuSessionEntity>::get
	mov	ecx, eax
	call	?GetTeam@FalconSessionEntity@@QAEEXZ	; FalconSessionEntity::GetTeam
	movzx	esi, al
	mov	ecx, DWORD PTR _session$[ebp]
	call	?GetTeam@FalconSessionEntity@@QAEEXZ	; FalconSessionEntity::GetTeam
	movzx	ecx, al
	cmp	esi, ecx
	jne	SHORT $LN13@CheckPlaye

; 1447 : 		{
; 1448 : 			plyr->SetState(1);

	push	1
	mov	edx, DWORD PTR _plyr$[ebp]
	mov	eax, DWORD PTR [edx]
	mov	ecx, DWORD PTR _plyr$[ebp]
	mov	edx, DWORD PTR [eax+56]
	call	edx

; 1449 : 			plyr->SetMute(0);

	push	0
	mov	ecx, DWORD PTR _plyr$[ebp]
	call	?SetMute@C_Player@@QAEXF@Z		; C_Player::SetMute

; 1450 : 		}
; 1451 : 		else

	jmp	SHORT $LN12@CheckPlaye
$LN13@CheckPlaye:

; 1452 : 		{
; 1453 : 			plyr->SetState(0);

	push	0
	mov	eax, DWORD PTR _plyr$[ebp]
	mov	edx, DWORD PTR [eax]
	mov	ecx, DWORD PTR _plyr$[ebp]
	mov	eax, DWORD PTR [edx+56]
	call	eax

; 1454 : 			plyr->SetMute(1);

	push	1
	mov	ecx, DWORD PTR _plyr$[ebp]
	call	?SetMute@C_Player@@QAEXF@Z		; C_Player::SetMute
$LN12@CheckPlaye:

; 1455 : 		}

	jmp	$LN19@CheckPlaye
$LN14@CheckPlaye:

; 1456 : 	}
; 1457 : 	else if(PeopleChatType == 3) // CHAT_PACKAGE (ONLY Campaign & TE)

	movsx	ecx, WORD PTR _PeopleChatType
	cmp	ecx, 3
	jne	$LN10@CheckPlaye

; 1458 : 	{
; 1459 : 		me=(Flight)vuDatabase->Find(FalconLocalSession->GetPlayerFlightID());

	lea	edx, DWORD PTR $T5[ebp]
	push	edx
	mov	ecx, OFFSET ?vuLocalSessionEntity@@3V?$VuBin@VVuSessionEntity@@@@A ; vuLocalSessionEntity
	call	?get@?$VuBin@VVuSessionEntity@@@@QBEPAVVuSessionEntity@@XZ ; VuBin<VuSessionEntity>::get
	mov	ecx, eax
	call	?GetPlayerFlightID@FalconSessionEntity@@QBE?AVVU_ID@@XZ ; FalconSessionEntity::GetPlayerFlightID
	mov	ecx, DWORD PTR [eax+4]
	push	ecx
	mov	edx, DWORD PTR [eax]
	push	edx
	mov	ecx, DWORD PTR ?vuDatabase@@3PAVVuDatabase@@A ; vuDatabase
	call	?Find@VuDatabase@@QBEPAVVuEntity@@VVU_ID@@@Z ; VuDatabase::Find
	mov	DWORD PTR _me$[ebp], eax

; 1460 : 		player=(Flight)vuDatabase->Find(session->GetPlayerFlightID());

	lea	eax, DWORD PTR $T4[ebp]
	push	eax
	mov	ecx, DWORD PTR _session$[ebp]
	call	?GetPlayerFlightID@FalconSessionEntity@@QBE?AVVU_ID@@XZ ; FalconSessionEntity::GetPlayerFlightID
	mov	ecx, DWORD PTR [eax+4]
	push	ecx
	mov	edx, DWORD PTR [eax]
	push	edx
	mov	ecx, DWORD PTR ?vuDatabase@@3PAVVuDatabase@@A ; vuDatabase
	call	?Find@VuDatabase@@QBEPAVVuEntity@@VVU_ID@@@Z ; VuDatabase::Find
	mov	DWORD PTR _player$[ebp], eax

; 1461 : 
; 1462 : 		if(me && player)

	cmp	DWORD PTR _me$[ebp], 0
	je	SHORT $LN9@CheckPlaye
	cmp	DWORD PTR _player$[ebp], 0
	je	SHORT $LN9@CheckPlaye

; 1463 : 		{
; 1464 : 			if(me->GetUnitPackage() == player->GetUnitPackage())

	mov	ecx, DWORD PTR _me$[ebp]
	call	?GetUnitPackage@FlightClass@@QAEPAVPackageClass@@XZ ; FlightClass::GetUnitPackage
	mov	esi, eax
	mov	ecx, DWORD PTR _player$[ebp]
	call	?GetUnitPackage@FlightClass@@QAEPAVPackageClass@@XZ ; FlightClass::GetUnitPackage
	cmp	esi, eax
	jne	SHORT $LN8@CheckPlaye

; 1465 : 			{
; 1466 : 				plyr->SetState(1);

	push	1
	mov	eax, DWORD PTR _plyr$[ebp]
	mov	edx, DWORD PTR [eax]
	mov	ecx, DWORD PTR _plyr$[ebp]
	mov	eax, DWORD PTR [edx+56]
	call	eax

; 1467 : 				plyr->SetMute(0);

	push	0
	mov	ecx, DWORD PTR _plyr$[ebp]
	call	?SetMute@C_Player@@QAEXF@Z		; C_Player::SetMute

; 1468 : 			}
; 1469 : 			else

	jmp	SHORT $LN7@CheckPlaye
$LN8@CheckPlaye:

; 1470 : 			{
; 1471 : 				plyr->SetState(0);

	push	0
	mov	ecx, DWORD PTR _plyr$[ebp]
	mov	edx, DWORD PTR [ecx]
	mov	ecx, DWORD PTR _plyr$[ebp]
	mov	eax, DWORD PTR [edx+56]
	call	eax

; 1472 : 				plyr->SetMute(1);

	push	1
	mov	ecx, DWORD PTR _plyr$[ebp]
	call	?SetMute@C_Player@@QAEXF@Z		; C_Player::SetMute
$LN7@CheckPlaye:

; 1473 : 			}
; 1474 : 		}
; 1475 : 		else

	jmp	SHORT $LN6@CheckPlaye
$LN9@CheckPlaye:

; 1476 : 		{
; 1477 : 			plyr->SetState(0);

	push	0
	mov	ecx, DWORD PTR _plyr$[ebp]
	mov	edx, DWORD PTR [ecx]
	mov	ecx, DWORD PTR _plyr$[ebp]
	mov	eax, DWORD PTR [edx+56]
	call	eax

; 1478 : 			plyr->SetMute(1);

	push	1
	mov	ecx, DWORD PTR _plyr$[ebp]
	call	?SetMute@C_Player@@QAEXF@Z		; C_Player::SetMute
$LN6@CheckPlaye:

; 1479 : 		}

	jmp	$LN19@CheckPlaye
$LN10@CheckPlaye:

; 1480 : 	}
; 1481 : 	else if(PeopleChatType == 4) // CHAT_FLIGHT

	movsx	ecx, WORD PTR _PeopleChatType
	cmp	ecx, 4
	jne	$LN4@CheckPlaye

; 1482 : 	{
; 1483 : 		if(FalconLocalSession->GetPlayerFlightID() == session->GetPlayerFlightID() && FalconLocalSession->GetPlayerFlightID() != FalconNullId)

	lea	edx, DWORD PTR $T3[ebp]
	push	edx
	mov	ecx, DWORD PTR _session$[ebp]
	call	?GetPlayerFlightID@FalconSessionEntity@@QBE?AVVU_ID@@XZ ; FalconSessionEntity::GetPlayerFlightID
	push	eax
	lea	eax, DWORD PTR $T2[ebp]
	push	eax
	mov	ecx, OFFSET ?vuLocalSessionEntity@@3V?$VuBin@VVuSessionEntity@@@@A ; vuLocalSessionEntity
	call	?get@?$VuBin@VVuSessionEntity@@@@QBEPAVVuSessionEntity@@XZ ; VuBin<VuSessionEntity>::get
	mov	ecx, eax
	call	?GetPlayerFlightID@FalconSessionEntity@@QBE?AVVU_ID@@XZ ; FalconSessionEntity::GetPlayerFlightID
	mov	ecx, eax
	call	??8VU_ID@@QBE_NABV0@@Z			; VU_ID::operator==
	movzx	ecx, al
	test	ecx, ecx
	je	SHORT $LN3@CheckPlaye
	push	OFFSET ?FalconNullId@@3VVU_ID@@A	; FalconNullId
	lea	edx, DWORD PTR $T1[ebp]
	push	edx
	mov	ecx, OFFSET ?vuLocalSessionEntity@@3V?$VuBin@VVuSessionEntity@@@@A ; vuLocalSessionEntity
	call	?get@?$VuBin@VVuSessionEntity@@@@QBEPAVVuSessionEntity@@XZ ; VuBin<VuSessionEntity>::get
	mov	ecx, eax
	call	?GetPlayerFlightID@FalconSessionEntity@@QBE?AVVU_ID@@XZ ; FalconSessionEntity::GetPlayerFlightID
	mov	ecx, eax
	call	??9VU_ID@@QBE_NABV0@@Z			; VU_ID::operator!=
	movzx	eax, al
	test	eax, eax
	je	SHORT $LN3@CheckPlaye

; 1484 : 		{
; 1485 : 			plyr->SetState(1);

	push	1
	mov	ecx, DWORD PTR _plyr$[ebp]
	mov	edx, DWORD PTR [ecx]
	mov	ecx, DWORD PTR _plyr$[ebp]
	mov	eax, DWORD PTR [edx+56]
	call	eax

; 1486 : 			plyr->SetMute(0);

	push	0
	mov	ecx, DWORD PTR _plyr$[ebp]
	call	?SetMute@C_Player@@QAEXF@Z		; C_Player::SetMute

; 1487 : 		}
; 1488 : 		else

	jmp	SHORT $LN2@CheckPlaye
$LN3@CheckPlaye:

; 1489 : 		{
; 1490 : 			plyr->SetState(0);

	push	0
	mov	ecx, DWORD PTR _plyr$[ebp]
	mov	edx, DWORD PTR [ecx]
	mov	ecx, DWORD PTR _plyr$[ebp]
	mov	eax, DWORD PTR [edx+56]
	call	eax

; 1491 : 			plyr->SetMute(1);

	push	1
	mov	ecx, DWORD PTR _plyr$[ebp]
	call	?SetMute@C_Player@@QAEXF@Z		; C_Player::SetMute
$LN2@CheckPlaye:

; 1492 : 		}
; 1493 : 	}
; 1494 : 	else // Ignore them

	jmp	SHORT $LN19@CheckPlaye
$LN4@CheckPlaye:

; 1495 : 	{
; 1496 : 		plyr->SetState(0);

	push	0
	mov	ecx, DWORD PTR _plyr$[ebp]
	mov	edx, DWORD PTR [ecx]
	mov	ecx, DWORD PTR _plyr$[ebp]
	mov	eax, DWORD PTR [edx+56]
	call	eax

; 1497 : 		plyr->SetMute(1);

	push	1
	mov	ecx, DWORD PTR _plyr$[ebp]
	call	?SetMute@C_Player@@QAEXF@Z		; C_Player::SetMute
$LN19@CheckPlaye:

; 1498 : 	}
; 1499 : }

	pop	esi
	mov	esp, ebp
	pop	ebp
	ret	0
?CheckPlayerGroup@@YAXPAVFalconSessionEntity@@PAVC_Player@@@Z ENDP ; CheckPlayerGroup
_TEXT	ENDS
; Function compile flags: /Odtp
; File c:\users\zhitao li\documents\visual studio 2012\projects\freefalcon\ui\src\comms\ui_comms.cpp
_TEXT	SEGMENT
$T2 = -68						; size = 8
$T3 = -60						; size = 4
$T4 = -56						; size = 4
_item$ = -52						; size = 4
_tmpID$ = -48						; size = 4
tv168 = -44						; size = 4
$T5 = -40						; size = 4
tv84 = -36						; size = 4
$T6 = -32						; size = 4
tv189 = -28						; size = 4
_txt$ = -24						; size = 4
_btn$ = -20						; size = 4
_win$ = -16						; size = 4
__$EHRec$ = -12						; size = 12
_game$ = 8						; size = 4
?MakeLocalGameTree@@YAXPAVVuGameEntity@@@Z PROC		; MakeLocalGameTree

; 1336 : {

	push	ebp
	mov	ebp, esp
	push	-1
	push	__ehhandler$?MakeLocalGameTree@@YAXPAVVuGameEntity@@@Z
	mov	eax, DWORD PTR fs:0
	push	eax
	sub	esp, 56					; 00000038H
	mov	eax, DWORD PTR ___security_cookie
	xor	eax, ebp
	push	eax
	lea	eax, DWORD PTR __$EHRec$[ebp]
	mov	DWORD PTR fs:0, eax

; 1337 : 	C_Window *win;
; 1338 : 	C_Button *btn;
; 1339 : 	TREELIST *item;
; 1340 : 	C_Text *txt;
; 1341 : 	VU_ID *tmpID;
; 1342 : 
; 1343 : 	if(!People)

	cmp	DWORD PTR ?People@@3PAVC_TreeList@@A, 0	; People
	jne	SHORT $LN18@MakeLocalG

; 1344 : 		return;

	jmp	$LN19@MakeLocalG
$LN18@MakeLocalG:

; 1345 : 
; 1346 : 	if(People->GetRoot())

	mov	ecx, DWORD PTR ?People@@3PAVC_TreeList@@A ; People
	call	?GetRoot@C_TreeList@@QAEPAVTREELIST@@XZ	; C_TreeList::GetRoot
	test	eax, eax
	je	SHORT $LN17@MakeLocalG

; 1347 : 		People->DeleteBranch(People->GetRoot());

	mov	ecx, DWORD PTR ?People@@3PAVC_TreeList@@A ; People
	call	?GetRoot@C_TreeList@@QAEPAVTREELIST@@XZ	; C_TreeList::GetRoot
	push	eax
	mov	ecx, DWORD PTR ?People@@3PAVC_TreeList@@A ; People
	call	?DeleteBranch@C_TreeList@@QAEXPAVTREELIST@@@Z ; C_TreeList::DeleteBranch
$LN17@MakeLocalG:

; 1348 : 
; 1349 : 	win=gMainHandler->FindWindow(CHAT_WIN);

	push	60014					; 0000ea6eH
	mov	ecx, DWORD PTR ?gMainHandler@@3PAVC_Handler@@A ; gMainHandler
	call	?FindWindowA@C_Handler@@QAEPAVC_Window@@J@Z ; C_Handler::FindWindowA
	mov	DWORD PTR _win$[ebp], eax

; 1350 : 	if(!win)

	cmp	DWORD PTR _win$[ebp], 0
	jne	SHORT $LN16@MakeLocalG

; 1351 : 		return;

	jmp	$LN19@MakeLocalG
$LN16@MakeLocalG:

; 1352 : 
; 1353 : 	if(game)

	cmp	DWORD PTR _game$[ebp], 0
	je	$LN19@MakeLocalG

; 1354 : 	{
; 1355 : 		txt=new C_Text;

	push	76					; 0000004cH
	call	??2@YAPAXI@Z				; operator new
	add	esp, 4
	mov	DWORD PTR $T6[ebp], eax
	mov	DWORD PTR __$EHRec$[ebp+8], 0
	cmp	DWORD PTR $T6[ebp], 0
	je	SHORT $LN21@MakeLocalG
	mov	ecx, DWORD PTR $T6[ebp]
	call	??0C_Text@@QAE@XZ			; C_Text::C_Text
	mov	DWORD PTR tv84[ebp], eax
	jmp	SHORT $LN22@MakeLocalG
$LN21@MakeLocalG:
	mov	DWORD PTR tv84[ebp], 0
$LN22@MakeLocalG:
	mov	eax, DWORD PTR tv84[ebp]
	mov	DWORD PTR $T4[ebp], eax
	mov	DWORD PTR __$EHRec$[ebp+8], -1
	mov	ecx, DWORD PTR $T4[ebp]
	mov	DWORD PTR _txt$[ebp], ecx

; 1356 : 		txt->Setup(C_DONT_CARE,0);

	push	0
	push	-2					; fffffffeH
	mov	edx, DWORD PTR _txt$[ebp]
	mov	eax, DWORD PTR [edx]
	mov	ecx, DWORD PTR _txt$[ebp]
	mov	edx, DWORD PTR [eax+248]
	call	edx

; 1357 : 		txt->SetFGColor(0xeeeeee);

	push	15658734				; 00eeeeeeH
	mov	ecx, DWORD PTR _txt$[ebp]
	call	?SetFGColor@C_Text@@QAEXK@Z		; C_Text::SetFGColor

; 1358 : 		txt->SetFixedWidth(30);

	push	30					; 0000001eH
	mov	ecx, DWORD PTR _txt$[ebp]
	call	?SetFixedWidth@C_Text@@QAEXJ@Z		; C_Text::SetFixedWidth

; 1359 : 		txt->SetFont(People->GetFont());

	mov	eax, DWORD PTR ?People@@3PAVC_TreeList@@A ; People
	mov	edx, DWORD PTR [eax]
	mov	ecx, DWORD PTR ?People@@3PAVC_TreeList@@A ; People
	mov	eax, DWORD PTR [edx+124]
	call	eax
	push	eax
	mov	ecx, DWORD PTR _txt$[ebp]
	mov	edx, DWORD PTR [ecx]
	mov	ecx, DWORD PTR _txt$[ebp]
	mov	eax, DWORD PTR [edx+68]
	call	eax

; 1360 : 		if(game == (VuGameEntity*)vuPlayerPoolGroup)

	mov	ecx, DWORD PTR _game$[ebp]
	cmp	ecx, DWORD PTR ?vuPlayerPoolGroup@@3PAVVuGameEntity@@A ; vuPlayerPoolGroup
	jne	SHORT $LN14@MakeLocalG

; 1361 : 		{
; 1362 : 			txt->SetText(TXT_PLAYERPOOL);

	push	173					; 000000adH
	mov	edx, DWORD PTR _txt$[ebp]
	mov	eax, DWORD PTR [edx]
	mov	ecx, DWORD PTR _txt$[ebp]
	mov	edx, DWORD PTR [eax+252]
	call	edx

; 1363 : 			win->DisableCluster(1);

	push	1
	mov	ecx, DWORD PTR _win$[ebp]
	call	?DisableCluster@C_Window@@QAEXJ@Z	; C_Window::DisableCluster

; 1364 : 			win->DisableCluster(2);

	push	2
	mov	ecx, DWORD PTR _win$[ebp]
	call	?DisableCluster@C_Window@@QAEXJ@Z	; C_Window::DisableCluster

; 1365 : 			win->DisableCluster(3);

	push	3
	mov	ecx, DWORD PTR _win$[ebp]
	call	?DisableCluster@C_Window@@QAEXJ@Z	; C_Window::DisableCluster

; 1366 : 			win->DisableCluster(4);

	push	4
	mov	ecx, DWORD PTR _win$[ebp]
	call	?DisableCluster@C_Window@@QAEXJ@Z	; C_Window::DisableCluster

; 1367 : 			win->RefreshWindow();

	mov	ecx, DWORD PTR _win$[ebp]
	call	?RefreshWindow@C_Window@@QAEXXZ		; C_Window::RefreshWindow

; 1368 : 		}
; 1369 : 		else

	jmp	$LN13@MakeLocalG
$LN14@MakeLocalG:

; 1370 : 		{
; 1371 : 			txt->SetText(game->GameName());

	mov	ecx, DWORD PTR _game$[ebp]
	call	?GameName@VuGameEntity@@QAEPADXZ	; VuGameEntity::GameName
	push	eax
	mov	eax, DWORD PTR _txt$[ebp]
	mov	edx, DWORD PTR [eax]
	mov	ecx, DWORD PTR _txt$[ebp]
	mov	eax, DWORD PTR [edx+256]
	call	eax

; 1372 : 			tmpID=new VU_ID;

	push	8
	call	??2@YAPAXI@Z				; operator new
	add	esp, 4
	mov	DWORD PTR $T5[ebp], eax
	mov	DWORD PTR __$EHRec$[ebp+8], 1
	cmp	DWORD PTR $T5[ebp], 0
	je	SHORT $LN23@MakeLocalG
	mov	ecx, DWORD PTR $T5[ebp]
	call	??0VU_ID@@QAE@XZ			; VU_ID::VU_ID
	mov	DWORD PTR tv168[ebp], eax
	jmp	SHORT $LN24@MakeLocalG
$LN23@MakeLocalG:
	mov	DWORD PTR tv168[ebp], 0
$LN24@MakeLocalG:
	mov	ecx, DWORD PTR tv168[ebp]
	mov	DWORD PTR $T3[ebp], ecx
	mov	DWORD PTR __$EHRec$[ebp+8], -1
	mov	edx, DWORD PTR $T3[ebp]
	mov	DWORD PTR _tmpID$[ebp], edx

; 1373 : 			*tmpID=game->Id();

	lea	eax, DWORD PTR $T2[ebp]
	push	eax
	mov	ecx, DWORD PTR _game$[ebp]
	call	?Id@VuEntity@@QBE?AVVU_ID@@XZ		; VuEntity::Id
	mov	ecx, DWORD PTR [eax]
	mov	edx, DWORD PTR [eax+4]
	mov	eax, DWORD PTR _tmpID$[ebp]
	mov	DWORD PTR [eax], ecx
	mov	DWORD PTR [eax+4], edx

; 1374 : 			txt->SetUserCleanupPtr(_UI95_VU_ID_SLOT_,tmpID);

	mov	ecx, DWORD PTR _tmpID$[ebp]
	push	ecx
	push	6
	mov	ecx, DWORD PTR _txt$[ebp]
	call	?SetUserCleanupPtr@C_Base@@QAEXJPAX@Z	; C_Base::SetUserCleanupPtr

; 1375 : 
; 1376 : 			switch(((FalconGameEntity*)game)->GetGameType())

	mov	ecx, DWORD PTR _game$[ebp]
	call	?GetGameType@FalconGameEntity@@QAE?AW4FalconGameType@@XZ ; FalconGameEntity::GetGameType
	mov	DWORD PTR tv189[ebp], eax
	cmp	DWORD PTR tv189[ebp], 2
	je	SHORT $LN10@MakeLocalG
	cmp	DWORD PTR tv189[ebp], 2
	jle	SHORT $LN13@MakeLocalG
	cmp	DWORD PTR tv189[ebp], 4
	jle	SHORT $LN9@MakeLocalG
	jmp	SHORT $LN13@MakeLocalG
$LN10@MakeLocalG:

; 1377 : 			{
; 1378 : 				case game_Dogfight:
; 1379 : 					win->DisableCluster(3);

	push	3
	mov	ecx, DWORD PTR _win$[ebp]
	call	?DisableCluster@C_Window@@QAEXJ@Z	; C_Window::DisableCluster

; 1380 : 					win->EnableCluster(1);

	push	1
	mov	ecx, DWORD PTR _win$[ebp]
	call	?EnableCluster@C_Window@@QAEXJ@Z	; C_Window::EnableCluster

; 1381 : 					win->EnableCluster(2);

	push	2
	mov	ecx, DWORD PTR _win$[ebp]
	call	?EnableCluster@C_Window@@QAEXJ@Z	; C_Window::EnableCluster

; 1382 : 					win->EnableCluster(4);

	push	4
	mov	ecx, DWORD PTR _win$[ebp]
	call	?EnableCluster@C_Window@@QAEXJ@Z	; C_Window::EnableCluster

; 1383 : 					win->RefreshWindow();

	mov	ecx, DWORD PTR _win$[ebp]
	call	?RefreshWindow@C_Window@@QAEXXZ		; C_Window::RefreshWindow

; 1384 : 					break;

	jmp	SHORT $LN13@MakeLocalG
$LN9@MakeLocalG:

; 1385 : 				case game_TacticalEngagement:
; 1386 : 				case game_Campaign:
; 1387 : 					win->EnableCluster(1);

	push	1
	mov	ecx, DWORD PTR _win$[ebp]
	call	?EnableCluster@C_Window@@QAEXJ@Z	; C_Window::EnableCluster

; 1388 : 					win->EnableCluster(2);

	push	2
	mov	ecx, DWORD PTR _win$[ebp]
	call	?EnableCluster@C_Window@@QAEXJ@Z	; C_Window::EnableCluster

; 1389 : 					win->EnableCluster(3);

	push	3
	mov	ecx, DWORD PTR _win$[ebp]
	call	?EnableCluster@C_Window@@QAEXJ@Z	; C_Window::EnableCluster

; 1390 : 					win->EnableCluster(4);

	push	4
	mov	ecx, DWORD PTR _win$[ebp]
	call	?EnableCluster@C_Window@@QAEXJ@Z	; C_Window::EnableCluster

; 1391 : 					win->RefreshWindow();

	mov	ecx, DWORD PTR _win$[ebp]
	call	?RefreshWindow@C_Window@@QAEXXZ		; C_Window::RefreshWindow
$LN13@MakeLocalG:

; 1392 : 					break;
; 1393 : 			}
; 1394 : 		}
; 1395 : 		
; 1396 : 		item=People->CreateItem(1,C_TYPE_ROOT,txt);

	mov	edx, DWORD PTR _txt$[ebp]
	push	edx
	push	47					; 0000002fH
	push	1
	mov	ecx, DWORD PTR ?People@@3PAVC_TreeList@@A ; People
	call	?CreateItem@C_TreeList@@QAEPAVTREELIST@@JJPAVC_Base@@@Z ; C_TreeList::CreateItem
	mov	DWORD PTR _item$[ebp], eax

; 1397 : 		if(item)

	cmp	DWORD PTR _item$[ebp], 0
	je	SHORT $LN8@MakeLocalG

; 1398 : 			People->AddItem(People->GetRoot(),item);

	mov	eax, DWORD PTR _item$[ebp]
	push	eax
	mov	ecx, DWORD PTR ?People@@3PAVC_TreeList@@A ; People
	call	?GetRoot@C_TreeList@@QAEPAVTREELIST@@XZ	; C_TreeList::GetRoot
	push	eax
	mov	ecx, DWORD PTR ?People@@3PAVC_TreeList@@A ; People
	call	?AddItem@C_TreeList@@QAEHPAVTREELIST@@0@Z ; C_TreeList::AddItem
$LN8@MakeLocalG:

; 1399 : 
; 1400 : 		btn=(C_Button*)win->FindControl(CHAT_ALL);

	push	60051					; 0000ea93H
	mov	ecx, DWORD PTR _win$[ebp]
	call	?FindControl@C_Window@@QAEPAVC_Base@@J@Z ; C_Window::FindControl
	mov	DWORD PTR _btn$[ebp], eax

; 1401 : 		if(btn)

	cmp	DWORD PTR _btn$[ebp], 0
	je	SHORT $LN7@MakeLocalG

; 1402 : 			btn->SetState(1);

	push	1
	mov	ecx, DWORD PTR _btn$[ebp]
	mov	edx, DWORD PTR [ecx]
	mov	ecx, DWORD PTR _btn$[ebp]
	mov	eax, DWORD PTR [edx+56]
	call	eax
$LN7@MakeLocalG:

; 1403 : 
; 1404 : 		btn=(C_Button*)win->FindControl(CHAT_TEAM);

	push	60052					; 0000ea94H
	mov	ecx, DWORD PTR _win$[ebp]
	call	?FindControl@C_Window@@QAEPAVC_Base@@J@Z ; C_Window::FindControl
	mov	DWORD PTR _btn$[ebp], eax

; 1405 : 		if(btn)

	cmp	DWORD PTR _btn$[ebp], 0
	je	SHORT $LN6@MakeLocalG

; 1406 : 			btn->SetState(0);

	push	0
	mov	ecx, DWORD PTR _btn$[ebp]
	mov	edx, DWORD PTR [ecx]
	mov	ecx, DWORD PTR _btn$[ebp]
	mov	eax, DWORD PTR [edx+56]
	call	eax
$LN6@MakeLocalG:

; 1407 : 
; 1408 : 		btn=(C_Button*)win->FindControl(CHAT_PACKAGE);

	push	60053					; 0000ea95H
	mov	ecx, DWORD PTR _win$[ebp]
	call	?FindControl@C_Window@@QAEPAVC_Base@@J@Z ; C_Window::FindControl
	mov	DWORD PTR _btn$[ebp], eax

; 1409 : 		if(btn)

	cmp	DWORD PTR _btn$[ebp], 0
	je	SHORT $LN5@MakeLocalG

; 1410 : 			btn->SetState(0);

	push	0
	mov	ecx, DWORD PTR _btn$[ebp]
	mov	edx, DWORD PTR [ecx]
	mov	ecx, DWORD PTR _btn$[ebp]
	mov	eax, DWORD PTR [edx+56]
	call	eax
$LN5@MakeLocalG:

; 1411 : 
; 1412 : 		btn=(C_Button*)win->FindControl(CHAT_FLIGHT);

	push	60054					; 0000ea96H
	mov	ecx, DWORD PTR _win$[ebp]
	call	?FindControl@C_Window@@QAEPAVC_Base@@J@Z ; C_Window::FindControl
	mov	DWORD PTR _btn$[ebp], eax

; 1413 : 		if(btn)

	cmp	DWORD PTR _btn$[ebp], 0
	je	SHORT $LN4@MakeLocalG

; 1414 : 			btn->SetState(0);

	push	0
	mov	ecx, DWORD PTR _btn$[ebp]
	mov	edx, DWORD PTR [ecx]
	mov	ecx, DWORD PTR _btn$[ebp]
	mov	eax, DWORD PTR [edx+56]
	call	eax
$LN4@MakeLocalG:

; 1415 : 
; 1416 : 		btn=(C_Button*)win->FindControl(CHAT_DISCONNECT);

	push	60026					; 0000ea7aH
	mov	ecx, DWORD PTR _win$[ebp]
	call	?FindControl@C_Window@@QAEPAVC_Base@@J@Z ; C_Window::FindControl
	mov	DWORD PTR _btn$[ebp], eax

; 1417 : 		if(btn)

	cmp	DWORD PTR _btn$[ebp], 0
	je	SHORT $LN3@MakeLocalG

; 1418 : 		{
; 1419 : 			if(game == vuPlayerPoolGroup)

	mov	ecx, DWORD PTR _game$[ebp]
	cmp	ecx, DWORD PTR ?vuPlayerPoolGroup@@3PAVVuGameEntity@@A ; vuPlayerPoolGroup
	jne	SHORT $LN2@MakeLocalG

; 1420 : 				btn->SetFlagBitOff(C_BIT_INVISIBLE);

	push	8192					; 00002000H
	mov	edx, DWORD PTR _btn$[ebp]
	mov	eax, DWORD PTR [edx]
	mov	ecx, DWORD PTR _btn$[ebp]
	mov	edx, DWORD PTR [eax+12]
	call	edx

; 1421 : 			else

	jmp	SHORT $LN3@MakeLocalG
$LN2@MakeLocalG:

; 1422 : 				btn->SetFlagBitOn(C_BIT_INVISIBLE);

	push	8192					; 00002000H
	mov	eax, DWORD PTR _btn$[ebp]
	mov	edx, DWORD PTR [eax]
	mov	ecx, DWORD PTR _btn$[ebp]
	mov	eax, DWORD PTR [edx+8]
	call	eax
$LN3@MakeLocalG:

; 1423 : 		}
; 1424 : 
; 1425 : 		PeopleChatType=1;

	mov	ecx, 1
	mov	WORD PTR _PeopleChatType, cx

; 1426 : 		DeleteGroupList(CHAT_WIN);

	push	60014					; 0000ea6eH
	call	?DeleteGroupList@@YAXJ@Z		; DeleteGroupList
	add	esp, 4

; 1427 : 		CurChatY=0;

	mov	DWORD PTR _CurChatY, 0
$LN19@MakeLocalG:

; 1428 : 	}
; 1429 : }

	mov	ecx, DWORD PTR __$EHRec$[ebp]
	mov	DWORD PTR fs:0, ecx
	pop	ecx
	mov	esp, ebp
	pop	ebp
	ret	0
_TEXT	ENDS
text$x	SEGMENT
__unwindfunclet$?MakeLocalGameTree@@YAXPAVVuGameEntity@@@Z$0:
	mov	eax, DWORD PTR $T6[ebp]
	push	eax
	call	??3@YAXPAX@Z				; operator delete
	pop	ecx
	ret	0
__unwindfunclet$?MakeLocalGameTree@@YAXPAVVuGameEntity@@@Z$1:
	mov	eax, DWORD PTR $T5[ebp]
	push	eax
	call	??3@YAXPAX@Z				; operator delete
	pop	ecx
	ret	0
__ehhandler$?MakeLocalGameTree@@YAXPAVVuGameEntity@@@Z:
	mov	edx, DWORD PTR [esp+8]
	lea	eax, DWORD PTR [edx+12]
	mov	ecx, DWORD PTR [edx-60]
	xor	ecx, eax
	call	@__security_check_cookie@4
	mov	eax, OFFSET __ehfuncinfo$?MakeLocalGameTree@@YAXPAVVuGameEntity@@@Z
	jmp	___CxxFrameHandler3
text$x	ENDS
?MakeLocalGameTree@@YAXPAVVuGameEntity@@@Z ENDP		; MakeLocalGameTree
; Function compile flags: /Odtp
; File c:\users\zhitao li\documents\visual studio 2012\projects\freefalcon\ui\src\comms\ui_comms.cpp
_TEXT	SEGMENT
_e$2 = -124						; size = 16
$T3 = -108						; size = 4
tv182 = -104						; size = 4
tv185 = -100						; size = 4
tv186 = -96						; size = 4
tv187 = -92						; size = 4
tv129 = -88						; size = 4
tv146 = -84						; size = 4
_buffer$ = -80						; size = 60
__$ArrayPad$ = -20					; size = 4
__$EHRec$ = -16						; size = 16
_old$ = 8						; size = 4
?RemoveOldPeopleTreeCB@@YAXPAVTREELIST@@@Z PROC		; RemoveOldPeopleTreeCB

; 1311 : {

	push	ebp
	mov	ebp, esp
	push	-1
	push	__ehhandler$?RemoveOldPeopleTreeCB@@YAXPAVTREELIST@@@Z
	mov	eax, DWORD PTR fs:0
	push	eax
	push	ecx
	sub	esp, 108				; 0000006cH
	mov	eax, DWORD PTR ___security_cookie
	xor	eax, ebp
	mov	DWORD PTR __$ArrayPad$[ebp], eax
	push	ebx
	push	esi
	push	edi
	push	eax
	lea	eax, DWORD PTR __$EHRec$[ebp+4]
	mov	DWORD PTR fs:0, eax
	mov	DWORD PTR __$EHRec$[ebp], esp

; 1312 : 	_TCHAR buffer[60];
; 1313 : 
; 1314 : 	_stprintf(buffer,"%s %s",((C_Player*)old->Item_)->GetName(),gStringMgr->GetString(TXT_LEFT_GAME));

	push	178					; 000000b2H
	mov	ecx, DWORD PTR ?gStringMgr@@3PAVC_String@@A ; gStringMgr
	call	?GetString@C_String@@QAEPADJ@Z		; C_String::GetString
	push	eax
	mov	eax, DWORD PTR _old$[ebp]
	mov	ecx, DWORD PTR [eax+20]
	call	?GetName@C_Player@@QAEPADXZ		; C_Player::GetName
	push	eax
	push	OFFSET ??_C@_05DNIIFBMG@?$CFs?5?$CFs?$AA@
	lea	ecx, DWORD PTR _buffer$[ebp]
	push	ecx
	call	_sprintf
	add	esp, 16					; 00000010H

; 1315 : 
; 1316 : 	ReceiveChatString(FalconNullId,buffer);

	lea	edx, DWORD PTR _buffer$[ebp]
	push	edx
	mov	eax, DWORD PTR ?FalconNullId@@3VVU_ID@@A+4
	push	eax
	mov	ecx, DWORD PTR ?FalconNullId@@3VVU_ID@@A
	push	ecx
	call	?ReceiveChatString@@YAXVVU_ID@@PAD@Z	; ReceiveChatString
	add	esp, 12					; 0000000cH

; 1317 : 
; 1318 : 	// Begin Uplink stuff
; 1319 : 	if(m_pUplink != NULL && FalconLocalGame && FalconLocalGame->IsLocal())

	push	0
	mov	ecx, OFFSET ?m_pUplink@@3V?$_com_ptr_t@V?$_com_IIID@UIUplink@GNETCORELib@@$1?_GUID_5ff85b6b_de05_42b9_831f_dc6a4e30a513@@3U__s_GUID@@B@@@@A ; m_pUplink
	call	??9?$_com_ptr_t@V?$_com_IIID@UIUplink@GNETCORELib@@$1?_GUID_5ff85b6b_de05_42b9_831f_dc6a4e30a513@@3U__s_GUID@@B@@@@QBE_NH@Z ; _com_ptr_t<_com_IIID<GNETCORELib::IUplink,&_GUID_5ff85b6b_de05_42b9_831f_dc6a4e30a513> >::operator!=
	movzx	edx, al
	test	edx, edx
	je	$LN3@RemoveOldP
	mov	ecx, OFFSET ?vuLocalSessionEntity@@3V?$VuBin@VVuSessionEntity@@@@A ; vuLocalSessionEntity
	call	??B?$VuBin@VVuSessionEntity@@@@QBE_NXZ	; VuBin<VuSessionEntity>::operator bool
	movzx	eax, al
	test	eax, eax
	je	SHORT $LN5@RemoveOldP
	mov	ecx, OFFSET ?vuLocalSessionEntity@@3V?$VuBin@VVuSessionEntity@@@@A ; vuLocalSessionEntity
	call	?get@?$VuBin@VVuSessionEntity@@@@QBEPAVVuSessionEntity@@XZ ; VuBin<VuSessionEntity>::get
	mov	ecx, eax
	call	?GetGame@FalconSessionEntity@@QAEPAVFalconGameEntity@@XZ ; FalconSessionEntity::GetGame
	mov	DWORD PTR tv129[ebp], eax
	jmp	SHORT $LN6@RemoveOldP
$LN5@RemoveOldP:
	mov	DWORD PTR tv129[ebp], 0
$LN6@RemoveOldP:
	cmp	DWORD PTR tv129[ebp], 0
	je	$LN3@RemoveOldP
	mov	ecx, OFFSET ?vuLocalSessionEntity@@3V?$VuBin@VVuSessionEntity@@@@A ; vuLocalSessionEntity
	call	??B?$VuBin@VVuSessionEntity@@@@QBE_NXZ	; VuBin<VuSessionEntity>::operator bool
	movzx	ecx, al
	test	ecx, ecx
	je	SHORT $LN7@RemoveOldP
	mov	ecx, OFFSET ?vuLocalSessionEntity@@3V?$VuBin@VVuSessionEntity@@@@A ; vuLocalSessionEntity
	call	?get@?$VuBin@VVuSessionEntity@@@@QBEPAVVuSessionEntity@@XZ ; VuBin<VuSessionEntity>::get
	mov	ecx, eax
	call	?GetGame@FalconSessionEntity@@QAEPAVFalconGameEntity@@XZ ; FalconSessionEntity::GetGame
	mov	DWORD PTR tv146[ebp], eax
	jmp	SHORT $LN8@RemoveOldP
$LN7@RemoveOldP:
	mov	DWORD PTR tv146[ebp], 0
$LN8@RemoveOldP:
	mov	ecx, DWORD PTR tv146[ebp]
	call	?IsLocal@VuEntity@@QBEEXZ		; VuEntity::IsLocal
	movzx	edx, al
	test	edx, edx
	je	$LN3@RemoveOldP

; 1320 : 	{
; 1321 : 		try
; 1322 : 		{

	mov	DWORD PTR __$EHRec$[ebp+12], 0

; 1323 : 			m_pUplink->RemovePlayer(((C_Player*)old->Item_)->GetName());

	mov	eax, DWORD PTR _old$[ebp]
	mov	ecx, DWORD PTR [eax+20]
	call	?GetName@C_Player@@QAEPADXZ		; C_Player::GetName
	mov	DWORD PTR tv185[ebp], eax
	push	ecx
	mov	ecx, esp
	mov	DWORD PTR $T3[ebp], esp
	mov	edx, DWORD PTR tv185[ebp]
	push	edx
	call	??0_bstr_t@@QAE@PBD@Z			; _bstr_t::_bstr_t
	mov	DWORD PTR tv186[ebp], eax
	mov	eax, DWORD PTR tv186[ebp]
	mov	DWORD PTR tv182[ebp], eax
	mov	BYTE PTR __$EHRec$[ebp+12], 1
	mov	ecx, OFFSET ?m_pUplink@@3V?$_com_ptr_t@V?$_com_IIID@UIUplink@GNETCORELib@@$1?_GUID_5ff85b6b_de05_42b9_831f_dc6a4e30a513@@3U__s_GUID@@B@@@@A ; m_pUplink
	call	??C?$_com_ptr_t@V?$_com_IIID@UIUplink@GNETCORELib@@$1?_GUID_5ff85b6b_de05_42b9_831f_dc6a4e30a513@@3U__s_GUID@@B@@@@QBEPAUIUplink@GNETCORELib@@XZ ; _com_ptr_t<_com_IIID<GNETCORELib::IUplink,&_GUID_5ff85b6b_de05_42b9_831f_dc6a4e30a513> >::operator->
	mov	DWORD PTR tv187[ebp], eax
	mov	BYTE PTR __$EHRec$[ebp+12], 0
	mov	ecx, DWORD PTR tv187[ebp]
	call	?RemovePlayer@IUplink@GNETCORELib@@QAEJV_bstr_t@@@Z ; GNETCORELib::IUplink::RemovePlayer

; 1324 : 		}

	jmp	SHORT $LN9@RemoveOldP
__catch$?RemoveOldPeopleTreeCB@@YAXPAVTREELIST@@@Z$0:

; 1325 : 
; 1326 : 		catch(_com_error e)
; 1327 : 		{
; 1328 : 			MonoPrint("StartCampaignGame: Error 0x%X occured during UpLink startup!", e.Error());

	lea	ecx, DWORD PTR _e$2[ebp]
	call	?Error@_com_error@@QBEJXZ		; _com_error::Error
	push	eax
	push	OFFSET ??_C@_0DN@CJCLCKKH@StartCampaignGame?3?5Error?50x?$CFX?5oc@
	call	_MonoPrint
	add	esp, 8

; 1329 : 		}

	lea	ecx, DWORD PTR _e$2[ebp]
	call	??1_com_error@@UAE@XZ			; _com_error::~_com_error
	mov	eax, $LN14@RemoveOldP
	ret	0
$LN9@RemoveOldP:
	mov	DWORD PTR __$EHRec$[ebp+12], -1
	jmp	SHORT $LN3@RemoveOldP
$LN14@RemoveOldP:
	mov	DWORD PTR __$EHRec$[ebp+12], -1
$LN3@RemoveOldP:

; 1330 : 	}
; 1331 : 	// End Uplink stuff
; 1332 : }

	mov	ecx, DWORD PTR __$EHRec$[ebp+4]
	mov	DWORD PTR fs:0, ecx
	pop	ecx
	pop	edi
	pop	esi
	pop	ebx
	mov	ecx, DWORD PTR __$ArrayPad$[ebp]
	xor	ecx, ebp
	call	@__security_check_cookie@4
	mov	esp, ebp
	pop	ebp
	ret	0
_TEXT	ENDS
text$x	SEGMENT
__unwindfunclet$?RemoveOldPeopleTreeCB@@YAXPAVTREELIST@@@Z$2:
	mov	ecx, DWORD PTR $T3[ebp]
	jmp	??1_bstr_t@@QAE@XZ			; _bstr_t::~_bstr_t
__ehhandler$?RemoveOldPeopleTreeCB@@YAXPAVTREELIST@@@Z:
	mov	edx, DWORD PTR [esp+8]
	lea	eax, DWORD PTR [edx+12]
	mov	ecx, DWORD PTR [edx-128]
	xor	ecx, eax
	call	@__security_check_cookie@4
	mov	ecx, DWORD PTR [edx-8]
	xor	ecx, eax
	call	@__security_check_cookie@4
	mov	eax, OFFSET __ehfuncinfo$?RemoveOldPeopleTreeCB@@YAXPAVTREELIST@@@Z
	jmp	___CxxFrameHandler3
text$x	ENDS
?RemoveOldPeopleTreeCB@@YAXPAVTREELIST@@@Z ENDP		; RemoveOldPeopleTreeCB
; Function compile flags: /Odtp
; File c:\users\zhitao li\documents\visual studio 2012\projects\freefalcon\ui\src\comms\ui_comms.cpp
_TEXT	SEGMENT
_sessionWalker$ = -56					; size = 12
$T2 = -44						; size = 8
$T3 = -36						; size = 8
_player$ = -28						; size = 4
_session$ = -24						; size = 4
_btn$ = -20						; size = 4
_group$ = -16						; size = 4
__$EHRec$ = -12						; size = 12
_branchid$ = 8						; size = 4
_game$ = 12						; size = 4
_tree$ = 16						; size = 4
_parent$ = 20						; size = 4
_IsChild$ = 24						; size = 4
?UpdateGameTreeBranch@@YAXJPAVVuGameEntity@@PAVC_TreeList@@PAVTREELIST@@H@Z PROC ; UpdateGameTreeBranch

; 1261 : {

	push	ebp
	mov	ebp, esp
	push	-1
	push	__ehhandler$?UpdateGameTreeBranch@@YAXJPAVVuGameEntity@@PAVC_TreeList@@PAVTREELIST@@H@Z
	mov	eax, DWORD PTR fs:0
	push	eax
	sub	esp, 44					; 0000002cH
	mov	eax, DWORD PTR ___security_cookie
	xor	eax, ebp
	push	eax
	lea	eax, DWORD PTR __$EHRec$[ebp]
	mov	DWORD PTR fs:0, eax

; 1262 : 	TREELIST *group,*player;
; 1263 : 	C_Button *btn;
; 1264 : 
; 1265 : 	if(game == NULL)

	cmp	DWORD PTR _game$[ebp], 0
	jne	SHORT $LN11@UpdateGame

; 1266 : 		return;

	jmp	$LN12@UpdateGame
$LN11@UpdateGame:

; 1267 : 
; 1268 : 	if(branchid != game_PlayerPool)

	cmp	DWORD PTR _branchid$[ebp], 0
	je	$LN10@UpdateGame

; 1269 : 	{
; 1270 : 		group=StartTreeSearch(game->Id(),parent,tree);

	mov	eax, DWORD PTR _tree$[ebp]
	push	eax
	mov	ecx, DWORD PTR _parent$[ebp]
	push	ecx
	lea	edx, DWORD PTR $T3[ebp]
	push	edx
	mov	ecx, DWORD PTR _game$[ebp]
	call	?Id@VuEntity@@QBE?AVVU_ID@@XZ		; VuEntity::Id
	mov	ecx, DWORD PTR [eax+4]
	push	ecx
	mov	edx, DWORD PTR [eax]
	push	edx
	call	?StartTreeSearch@@YAPAVTREELIST@@VVU_ID@@PAV1@PAVC_TreeList@@@Z ; StartTreeSearch
	add	esp, 16					; 00000010H
	mov	DWORD PTR _group$[ebp], eax

; 1271 : 		if(group == NULL)

	cmp	DWORD PTR _group$[ebp], 0
	jne	SHORT $LN9@UpdateGame

; 1272 : 		{
; 1273 : 			if(IsChild)

	cmp	DWORD PTR _IsChild$[ebp], 0
	je	SHORT $LN8@UpdateGame

; 1274 : 				group=AddGameToList(game,parent,tree);

	mov	eax, DWORD PTR _tree$[ebp]
	push	eax
	mov	ecx, DWORD PTR _parent$[ebp]
	push	ecx
	mov	edx, DWORD PTR _game$[ebp]
	push	edx
	call	?AddGameToList@@YAPAVTREELIST@@PAVVuGameEntity@@PAV1@PAVC_TreeList@@@Z ; AddGameToList
	add	esp, 12					; 0000000cH
	mov	DWORD PTR _group$[ebp], eax

; 1275 : 			else

	jmp	SHORT $LN7@UpdateGame
$LN8@UpdateGame:

; 1276 : 				group=AddGameToList(game,NULL,tree);

	mov	eax, DWORD PTR _tree$[ebp]
	push	eax
	push	0
	mov	ecx, DWORD PTR _game$[ebp]
	push	ecx
	call	?AddGameToList@@YAPAVTREELIST@@PAVVuGameEntity@@PAV1@PAVC_TreeList@@@Z ; AddGameToList
	add	esp, 12					; 0000000cH
	mov	DWORD PTR _group$[ebp], eax
$LN7@UpdateGame:

; 1277 : 		}
; 1278 : 		else

	jmp	$LN6@UpdateGame
$LN9@UpdateGame:

; 1279 : 		{
; 1280 : 			btn=(C_Button*)group->Item_;

	mov	edx, DWORD PTR _group$[ebp]
	mov	eax, DWORD PTR [edx+20]
	mov	DWORD PTR _btn$[ebp], eax

; 1281 : 			if(btn)

	cmp	DWORD PTR _btn$[ebp], 0
	je	SHORT $LN6@UpdateGame

; 1282 : 			{
; 1283 : 				if(strcmp(game->GameName(),btn->GetText(C_STATE_0)))

	push	0
	mov	ecx, DWORD PTR _btn$[ebp]
	call	?GetText@C_Button@@QAEPADF@Z		; C_Button::GetText
	push	eax
	mov	ecx, DWORD PTR _game$[ebp]
	call	?GameName@VuGameEntity@@QAEPADXZ	; VuGameEntity::GameName
	push	eax
	call	_strcmp
	add	esp, 8
	test	eax, eax
	je	SHORT $LN6@UpdateGame

; 1284 : 				{
; 1285 : 					btn->SetText(C_STATE_0,gStringMgr->GetText(gStringMgr->AddText(game->GameName())));

	mov	ecx, DWORD PTR _game$[ebp]
	call	?GameName@VuGameEntity@@QAEPADXZ	; VuGameEntity::GameName
	push	eax
	mov	ecx, DWORD PTR ?gStringMgr@@3PAVC_String@@A ; gStringMgr
	call	?AddText@C_String@@QAEJPBD@Z		; C_String::AddText
	push	eax
	mov	ecx, DWORD PTR ?gStringMgr@@3PAVC_String@@A ; gStringMgr
	call	?GetText@C_String@@QAEPADJ@Z		; C_String::GetText
	push	eax
	push	0
	mov	ecx, DWORD PTR _btn$[ebp]
	call	?SetText@C_Button@@QAEXFPBD@Z		; C_Button::SetText

; 1286 : 					btn->SetText(C_STATE_1,gStringMgr->GetText(gStringMgr->AddText(game->GameName())));

	mov	ecx, DWORD PTR _game$[ebp]
	call	?GameName@VuGameEntity@@QAEPADXZ	; VuGameEntity::GameName
	push	eax
	mov	ecx, DWORD PTR ?gStringMgr@@3PAVC_String@@A ; gStringMgr
	call	?AddText@C_String@@QAEJPBD@Z		; C_String::AddText
	push	eax
	mov	ecx, DWORD PTR ?gStringMgr@@3PAVC_String@@A ; gStringMgr
	call	?GetText@C_String@@QAEPADJ@Z		; C_String::GetText
	push	eax
	push	1
	mov	ecx, DWORD PTR _btn$[ebp]
	call	?SetText@C_Button@@QAEXFPBD@Z		; C_Button::SetText
$LN6@UpdateGame:

; 1287 : 				}
; 1288 : 			}
; 1289 : 		}
; 1290 : 		parent=group;

	mov	ecx, DWORD PTR _group$[ebp]
	mov	DWORD PTR _parent$[ebp], ecx
$LN10@UpdateGame:

; 1291 : 	}
; 1292 : 
; 1293 : 	VuSessionsIterator sessionWalker(game);

	mov	edx, DWORD PTR _game$[ebp]
	push	edx
	lea	ecx, DWORD PTR _sessionWalker$[ebp]
	call	??0VuSessionsIterator@@QAE@PAVVuGroupEntity@@@Z ; VuSessionsIterator::VuSessionsIterator
	mov	DWORD PTR __$EHRec$[ebp+8], 0

; 1294 : 	FalconSessionEntity *session;
; 1295 : 
; 1296 : 	session = (FalconSessionEntity*)sessionWalker.GetFirst();

	lea	ecx, DWORD PTR _sessionWalker$[ebp]
	call	?GetFirst@VuSessionsIterator@@QAEPAVVuSessionEntity@@XZ ; VuSessionsIterator::GetFirst
	mov	DWORD PTR _session$[ebp], eax
$LN3@UpdateGame:

; 1297 : 	while(session)

	cmp	DWORD PTR _session$[ebp], 0
	je	SHORT $LN2@UpdateGame

; 1298 : 	{
; 1299 : 		player=StartTreeSearch(session->Id(),parent,tree);

	mov	eax, DWORD PTR _tree$[ebp]
	push	eax
	mov	ecx, DWORD PTR _parent$[ebp]
	push	ecx
	lea	edx, DWORD PTR $T2[ebp]
	push	edx
	mov	ecx, DWORD PTR _session$[ebp]
	call	?Id@VuEntity@@QBE?AVVU_ID@@XZ		; VuEntity::Id
	mov	ecx, DWORD PTR [eax+4]
	push	ecx
	mov	edx, DWORD PTR [eax]
	push	edx
	call	?StartTreeSearch@@YAPAVTREELIST@@VVU_ID@@PAV1@PAVC_TreeList@@@Z ; StartTreeSearch
	add	esp, 16					; 00000010H
	mov	DWORD PTR _player$[ebp], eax

; 1300 : 		if(player == NULL)

	cmp	DWORD PTR _player$[ebp], 0
	jne	SHORT $LN1@UpdateGame

; 1301 : 		{
; 1302 : 			player=CreatePlayerButton(tree,session);

	mov	eax, DWORD PTR _session$[ebp]
	push	eax
	mov	ecx, DWORD PTR _tree$[ebp]
	push	ecx
	call	?CreatePlayerButton@@YAPAVTREELIST@@PAVC_TreeList@@PAVFalconSessionEntity@@@Z ; CreatePlayerButton
	add	esp, 8
	mov	DWORD PTR _player$[ebp], eax

; 1303 : 			tree->AddChildItem(parent,player);

	mov	edx, DWORD PTR _player$[ebp]
	push	edx
	mov	eax, DWORD PTR _parent$[ebp]
	push	eax
	mov	ecx, DWORD PTR _tree$[ebp]
	call	?AddChildItem@C_TreeList@@QAEHPAVTREELIST@@0@Z ; C_TreeList::AddChildItem
$LN1@UpdateGame:

; 1304 : 		}
; 1305 : 		session = (FalconSessionEntity*)sessionWalker.GetNext();

	lea	ecx, DWORD PTR _sessionWalker$[ebp]
	call	?GetNext@VuSessionsIterator@@QAEPAVVuSessionEntity@@XZ ; VuSessionsIterator::GetNext
	mov	DWORD PTR _session$[ebp], eax

; 1306 : 	}

	jmp	SHORT $LN3@UpdateGame
$LN2@UpdateGame:

; 1307 : }

	mov	DWORD PTR __$EHRec$[ebp+8], -1
	lea	ecx, DWORD PTR _sessionWalker$[ebp]
	call	??1VuSessionsIterator@@UAE@XZ		; VuSessionsIterator::~VuSessionsIterator
$LN12@UpdateGame:
	mov	ecx, DWORD PTR __$EHRec$[ebp]
	mov	DWORD PTR fs:0, ecx
	pop	ecx
	mov	esp, ebp
	pop	ebp
	ret	0
_TEXT	ENDS
text$x	SEGMENT
__unwindfunclet$?UpdateGameTreeBranch@@YAXJPAVVuGameEntity@@PAVC_TreeList@@PAVTREELIST@@H@Z$0:
	lea	ecx, DWORD PTR _sessionWalker$[ebp]
	jmp	??1VuSessionsIterator@@UAE@XZ		; VuSessionsIterator::~VuSessionsIterator
__ehhandler$?UpdateGameTreeBranch@@YAXJPAVVuGameEntity@@PAVC_TreeList@@PAVTREELIST@@H@Z:
	mov	edx, DWORD PTR [esp+8]
	lea	eax, DWORD PTR [edx+12]
	mov	ecx, DWORD PTR [edx-48]
	xor	ecx, eax
	call	@__security_check_cookie@4
	mov	eax, OFFSET __ehfuncinfo$?UpdateGameTreeBranch@@YAXJPAVVuGameEntity@@PAVC_TreeList@@PAVTREELIST@@H@Z
	jmp	___CxxFrameHandler3
text$x	ENDS
?UpdateGameTreeBranch@@YAXJPAVVuGameEntity@@PAVC_TreeList@@PAVTREELIST@@H@Z ENDP ; UpdateGameTreeBranch
; Function compile flags: /Odtp
; File c:\users\zhitao li\documents\visual studio 2012\projects\freefalcon\ui\src\comms\ui_comms.cpp
_TEXT	SEGMENT
$T2 = -60						; size = 8
$T3 = -52						; size = 8
$T4 = -44						; size = 8
_item$ = -36						; size = 4
_aux$ = -32						; size = 4
$T5 = -28						; size = 4
tv73 = -24						; size = 4
$T6 = -20						; size = 4
_player$ = -16						; size = 4
__$EHRec$ = -12						; size = 12
_tree$ = 8						; size = 4
_session$ = 12						; size = 4
?CreatePlayerButton@@YAPAVTREELIST@@PAVC_TreeList@@PAVFalconSessionEntity@@@Z PROC ; CreatePlayerButton

; 1235 : {

	push	ebp
	mov	ebp, esp
	push	-1
	push	__ehhandler$?CreatePlayerButton@@YAPAVTREELIST@@PAVC_TreeList@@PAVFalconSessionEntity@@@Z
	mov	eax, DWORD PTR fs:0
	push	eax
	sub	esp, 48					; 00000030H
	mov	eax, DWORD PTR ___security_cookie
	xor	eax, ebp
	push	eax
	lea	eax, DWORD PTR __$EHRec$[ebp]
	mov	DWORD PTR fs:0, eax

; 1236 : 	TREELIST *item;
; 1237 : 	C_Player *player;
; 1238 : 	TCHAR *aux = session->GetPlayerCallsign();

	mov	ecx, DWORD PTR _session$[ebp]
	call	?GetPlayerCallsign@FalconSessionEntity@@QAEPADXZ ; FalconSessionEntity::GetPlayerCallsign
	mov	DWORD PTR _aux$[ebp], eax

; 1239 : 
; 1240 : 	player=new C_Player;

	push	148					; 00000094H
	call	??2@YAPAXI@Z				; operator new
	add	esp, 4
	mov	DWORD PTR $T6[ebp], eax
	mov	DWORD PTR __$EHRec$[ebp+8], 0
	cmp	DWORD PTR $T6[ebp], 0
	je	SHORT $LN5@CreatePlay
	mov	ecx, DWORD PTR $T6[ebp]
	call	??0C_Player@@QAE@XZ			; C_Player::C_Player
	mov	DWORD PTR tv73[ebp], eax
	jmp	SHORT $LN6@CreatePlay
$LN5@CreatePlay:
	mov	DWORD PTR tv73[ebp], 0
$LN6@CreatePlay:
	mov	eax, DWORD PTR tv73[ebp]
	mov	DWORD PTR $T5[ebp], eax
	mov	DWORD PTR __$EHRec$[ebp+8], -1
	mov	ecx, DWORD PTR $T5[ebp]
	mov	DWORD PTR _player$[ebp], ecx

; 1241 : 	player->Setup(session->Id().creator_,0);

	push	0
	lea	edx, DWORD PTR $T4[ebp]
	push	edx
	mov	ecx, DWORD PTR _session$[ebp]
	call	?Id@VuEntity@@QBE?AVVU_ID@@XZ		; VuEntity::Id
	add	eax, 4
	mov	ecx, eax
	call	??BVU_SESSION_ID@@QBEKXZ		; VU_SESSION_ID::operator unsigned long
	push	eax
	mov	ecx, DWORD PTR _player$[ebp]
	call	?Setup@C_Player@@QAEXJF@Z		; C_Player::Setup

; 1242 : 	player->InitEntity();

	mov	ecx, DWORD PTR _player$[ebp]
	call	?InitEntity@C_Player@@QAEXXZ		; C_Player::InitEntity

; 1243 : 	player->SetFont(tree->GetFont());

	mov	eax, DWORD PTR _tree$[ebp]
	mov	edx, DWORD PTR [eax]
	mov	ecx, DWORD PTR _tree$[ebp]
	mov	eax, DWORD PTR [edx+124]
	call	eax
	push	eax
	mov	ecx, DWORD PTR _player$[ebp]
	mov	edx, DWORD PTR [ecx]
	mov	ecx, DWORD PTR _player$[ebp]
	mov	eax, DWORD PTR [edx+68]
	call	eax

; 1244 : 	player->SetIcon(8,8,ICON_IMAGE);

	push	2001					; 000007d1H
	push	8
	push	8
	mov	ecx, DWORD PTR _player$[ebp]
	call	?SetIcon@C_Player@@QAEXFFJ@Z		; C_Player::SetIcon

; 1245 : 	player->SetName(20,0,aux);

	mov	ecx, DWORD PTR _aux$[ebp]
	push	ecx
	push	0
	push	20					; 00000014H
	mov	ecx, DWORD PTR _player$[ebp]
	call	?SetName@C_Player@@QAEXFFPAD@Z		; C_Player::SetName

; 1246 : 	if(session == FalconLocalSession)

	mov	ecx, OFFSET ?vuLocalSessionEntity@@3V?$VuBin@VVuSessionEntity@@@@A ; vuLocalSessionEntity
	call	?get@?$VuBin@VVuSessionEntity@@@@QBEPAVVuSessionEntity@@XZ ; VuBin<VuSessionEntity>::get
	cmp	DWORD PTR _session$[ebp], eax
	jne	SHORT $LN2@CreatePlay

; 1247 : 		player->SetColor(0x0000ffff,0x0000ffff,0x0000ffff);

	push	65535					; 0000ffffH
	push	65535					; 0000ffffH
	push	65535					; 0000ffffH
	mov	ecx, DWORD PTR _player$[ebp]
	call	?SetColor@C_Player@@QAEXKKK@Z		; C_Player::SetColor

; 1248 : 	else

	jmp	SHORT $LN1@CreatePlay
$LN2@CreatePlay:

; 1249 : 	{
; 1250 : 		player->SetColor(0x00e0e0e0,0x0000ff00,0x0000aa);

	push	170					; 000000aaH
	push	65280					; 0000ff00H
	push	14737632				; 00e0e0e0H
	mov	ecx, DWORD PTR _player$[ebp]
	call	?SetColor@C_Player@@QAEXKKK@Z		; C_Player::SetColor

; 1251 : 		player->SetStatus(8,8,MUTE_IMAGE);

	push	2000					; 000007d0H
	push	8
	push	8
	mov	ecx, DWORD PTR _player$[ebp]
	call	?SetStatus@C_Player@@QAEXFFJ@Z		; C_Player::SetStatus
$LN1@CreatePlay:

; 1252 : 	}
; 1253 : 	player->SetVUID(session->Id());

	lea	edx, DWORD PTR $T3[ebp]
	push	edx
	mov	ecx, DWORD PTR _session$[ebp]
	call	?Id@VuEntity@@QBE?AVVU_ID@@XZ		; VuEntity::Id
	mov	ecx, DWORD PTR [eax+4]
	push	ecx
	mov	edx, DWORD PTR [eax]
	push	edx
	mov	ecx, DWORD PTR _player$[ebp]
	call	?SetVUID@C_Player@@QAEXVVU_ID@@@Z	; C_Player::SetVUID

; 1254 : 
; 1255 : 	item=tree->CreateItem(session->Id().creator_,C_TYPE_ITEM,player);

	mov	eax, DWORD PTR _player$[ebp]
	push	eax
	push	50					; 00000032H
	lea	ecx, DWORD PTR $T2[ebp]
	push	ecx
	mov	ecx, DWORD PTR _session$[ebp]
	call	?Id@VuEntity@@QBE?AVVU_ID@@XZ		; VuEntity::Id
	add	eax, 4
	mov	ecx, eax
	call	??BVU_SESSION_ID@@QBEKXZ		; VU_SESSION_ID::operator unsigned long
	push	eax
	mov	ecx, DWORD PTR _tree$[ebp]
	call	?CreateItem@C_TreeList@@QAEPAVTREELIST@@JJPAVC_Base@@@Z ; C_TreeList::CreateItem
	mov	DWORD PTR _item$[ebp], eax

; 1256 : 	return(item);

	mov	eax, DWORD PTR _item$[ebp]

; 1257 : }

	mov	ecx, DWORD PTR __$EHRec$[ebp]
	mov	DWORD PTR fs:0, ecx
	pop	ecx
	mov	esp, ebp
	pop	ebp
	ret	0
_TEXT	ENDS
text$x	SEGMENT
__unwindfunclet$?CreatePlayerButton@@YAPAVTREELIST@@PAVC_TreeList@@PAVFalconSessionEntity@@@Z$0:
	mov	eax, DWORD PTR $T6[ebp]
	push	eax
	call	??3@YAXPAX@Z				; operator delete
	pop	ecx
	ret	0
__ehhandler$?CreatePlayerButton@@YAPAVTREELIST@@PAVC_TreeList@@PAVFalconSessionEntity@@@Z:
	mov	edx, DWORD PTR [esp+8]
	lea	eax, DWORD PTR [edx+12]
	mov	ecx, DWORD PTR [edx-52]
	xor	ecx, eax
	call	@__security_check_cookie@4
	mov	eax, OFFSET __ehfuncinfo$?CreatePlayerButton@@YAPAVTREELIST@@PAVC_TreeList@@PAVFalconSessionEntity@@@Z
	jmp	___CxxFrameHandler3
text$x	ENDS
?CreatePlayerButton@@YAPAVTREELIST@@PAVC_TreeList@@PAVFalconSessionEntity@@@Z ENDP ; CreatePlayerButton
; Function compile flags: /Odtp
; File c:\users\zhitao li\documents\visual studio 2012\projects\freefalcon\ui\src\comms\ui_comms.cpp
_TEXT	SEGMENT
$T2 = -68						; size = 8
tv167 = -60						; size = 4
$T3 = -56						; size = 4
$T4 = -52						; size = 4
tv193 = -48						; size = 4
_tmpID$ = -44						; size = 4
tv143 = -40						; size = 4
$T5 = -36						; size = 4
tv73 = -32						; size = 4
$T6 = -28						; size = 4
_group$ = -24						; size = 4
_name$ = -20						; size = 4
_btn$ = -16						; size = 4
__$EHRec$ = -12						; size = 12
_game$ = 8						; size = 4
_parent$ = 12						; size = 4
_tree$ = 16						; size = 4
?AddGameToList@@YAPAVTREELIST@@PAVVuGameEntity@@PAV1@PAVC_TreeList@@@Z PROC ; AddGameToList

; 1197 : {

	push	ebp
	mov	ebp, esp
	push	-1
	push	__ehhandler$?AddGameToList@@YAPAVTREELIST@@PAVVuGameEntity@@PAV1@PAVC_TreeList@@@Z
	mov	eax, DWORD PTR fs:0
	push	eax
	sub	esp, 56					; 00000038H
	mov	eax, DWORD PTR ___security_cookie
	xor	eax, ebp
	push	eax
	lea	eax, DWORD PTR __$EHRec$[ebp]
	mov	DWORD PTR fs:0, eax

; 1198 : 	C_Button *btn;
; 1199 : 	TREELIST *group;
; 1200 : 	VU_ID *tmpID;
; 1201 : 	_TCHAR *name;
; 1202 : 
; 1203 : 	name=game->GameName();

	mov	ecx, DWORD PTR _game$[ebp]
	call	?GameName@VuGameEntity@@QAEPADXZ	; VuGameEntity::GameName
	mov	DWORD PTR _name$[ebp], eax

; 1204 : 
; 1205 : 	btn=new C_Button;

	push	160					; 000000a0H
	call	??2@YAPAXI@Z				; operator new
	add	esp, 4
	mov	DWORD PTR $T6[ebp], eax
	mov	DWORD PTR __$EHRec$[ebp+8], 0
	cmp	DWORD PTR $T6[ebp], 0
	je	SHORT $LN7@AddGameToL
	mov	ecx, DWORD PTR $T6[ebp]
	call	??0C_Button@@QAE@XZ			; C_Button::C_Button
	mov	DWORD PTR tv73[ebp], eax
	jmp	SHORT $LN8@AddGameToL
$LN7@AddGameToL:
	mov	DWORD PTR tv73[ebp], 0
$LN8@AddGameToL:
	mov	eax, DWORD PTR tv73[ebp]
	mov	DWORD PTR $T4[ebp], eax
	mov	DWORD PTR __$EHRec$[ebp+8], -1
	mov	ecx, DWORD PTR $T4[ebp]
	mov	DWORD PTR _btn$[ebp], ecx

; 1206 : 	btn->Setup(C_DONT_CARE,C_TYPE_CUSTOM,0,0);

	push	0
	push	0
	push	29					; 0000001dH
	push	-2					; fffffffeH
	mov	ecx, DWORD PTR _btn$[ebp]
	call	?Setup@C_Button@@QAEXJFJJ@Z		; C_Button::Setup

; 1207 : 	btn->SetFlagBitOn(C_BIT_ENABLED);

	push	2048					; 00000800H
	mov	edx, DWORD PTR _btn$[ebp]
	mov	eax, DWORD PTR [edx]
	mov	ecx, DWORD PTR _btn$[ebp]
	mov	edx, DWORD PTR [eax+8]
	call	edx

; 1208 : 	btn->SetText(C_STATE_0,name);

	mov	eax, DWORD PTR _name$[ebp]
	push	eax
	push	0
	mov	ecx, DWORD PTR _btn$[ebp]
	call	?SetText@C_Button@@QAEXFPBD@Z		; C_Button::SetText

; 1209 : 	btn->SetText(C_STATE_1,name);

	mov	ecx, DWORD PTR _name$[ebp]
	push	ecx
	push	1
	mov	ecx, DWORD PTR _btn$[ebp]
	call	?SetText@C_Button@@QAEXFPBD@Z		; C_Button::SetText

; 1210 : 	btn->SetText(C_STATE_2,name);

	mov	edx, DWORD PTR _name$[ebp]
	push	edx
	push	2
	mov	ecx, DWORD PTR _btn$[ebp]
	call	?SetText@C_Button@@QAEXFPBD@Z		; C_Button::SetText

; 1211 : 	btn->SetFgColor(C_STATE_0,0x00e0e0e0);

	push	14737632				; 00e0e0e0H
	push	0
	mov	ecx, DWORD PTR _btn$[ebp]
	call	?SetFgColor@C_Button@@QAEXFK@Z		; C_Button::SetFgColor

; 1212 : 	btn->SetFgColor(C_STATE_1,0x0000ff00);

	push	65280					; 0000ff00H
	push	1
	mov	ecx, DWORD PTR _btn$[ebp]
	call	?SetFgColor@C_Button@@QAEXFK@Z		; C_Button::SetFgColor

; 1213 : 	btn->SetFgColor(C_STATE_2,0x0000ffff);

	push	65535					; 0000ffffH
	push	2
	mov	ecx, DWORD PTR _btn$[ebp]
	call	?SetFgColor@C_Button@@QAEXFK@Z		; C_Button::SetFgColor

; 1214 : 	tmpID=new VU_ID;

	push	8
	call	??2@YAPAXI@Z				; operator new
	add	esp, 4
	mov	DWORD PTR $T5[ebp], eax
	mov	DWORD PTR __$EHRec$[ebp+8], 1
	cmp	DWORD PTR $T5[ebp], 0
	je	SHORT $LN9@AddGameToL
	mov	ecx, DWORD PTR $T5[ebp]
	call	??0VU_ID@@QAE@XZ			; VU_ID::VU_ID
	mov	DWORD PTR tv143[ebp], eax
	jmp	SHORT $LN10@AddGameToL
$LN9@AddGameToL:
	mov	DWORD PTR tv143[ebp], 0
$LN10@AddGameToL:
	mov	eax, DWORD PTR tv143[ebp]
	mov	DWORD PTR $T3[ebp], eax
	mov	DWORD PTR __$EHRec$[ebp+8], -1
	mov	ecx, DWORD PTR $T3[ebp]
	mov	DWORD PTR _tmpID$[ebp], ecx

; 1215 : 	*tmpID=game->Id();

	lea	edx, DWORD PTR $T2[ebp]
	push	edx
	mov	ecx, DWORD PTR _game$[ebp]
	call	?Id@VuEntity@@QBE?AVVU_ID@@XZ		; VuEntity::Id
	mov	ecx, DWORD PTR [eax]
	mov	edx, DWORD PTR [eax+4]
	mov	eax, DWORD PTR _tmpID$[ebp]
	mov	DWORD PTR [eax], ecx
	mov	DWORD PTR [eax+4], edx

; 1216 : 	btn->SetUserCleanupPtr(_UI95_VU_ID_SLOT_,tmpID);

	mov	ecx, DWORD PTR _tmpID$[ebp]
	push	ecx
	push	6
	mov	ecx, DWORD PTR _btn$[ebp]
	call	?SetUserCleanupPtr@C_Base@@QAEXJPAX@Z	; C_Base::SetUserCleanupPtr

; 1217 : 
; 1218 : 	group=tree->CreateItem(gCommsUniqueID++,C_TYPE_MENU,btn);

	mov	edx, DWORD PTR _gCommsUniqueID
	mov	DWORD PTR tv167[ebp], edx
	mov	eax, DWORD PTR _gCommsUniqueID
	add	eax, 1
	mov	DWORD PTR _gCommsUniqueID, eax
	mov	ecx, DWORD PTR _btn$[ebp]
	push	ecx
	push	49					; 00000031H
	mov	edx, DWORD PTR tv167[ebp]
	push	edx
	mov	ecx, DWORD PTR _tree$[ebp]
	call	?CreateItem@C_TreeList@@QAEPAVTREELIST@@JJPAVC_Base@@@Z ; C_TreeList::CreateItem
	mov	DWORD PTR _group$[ebp], eax

; 1219 : 	if(parent)

	cmp	DWORD PTR _parent$[ebp], 0
	je	SHORT $LN4@AddGameToL

; 1220 : 		tree->AddChildItem(parent,group);

	mov	eax, DWORD PTR _group$[ebp]
	push	eax
	mov	ecx, DWORD PTR _parent$[ebp]
	push	ecx
	mov	ecx, DWORD PTR _tree$[ebp]
	call	?AddChildItem@C_TreeList@@QAEHPAVTREELIST@@0@Z ; C_TreeList::AddChildItem

; 1221 : 	else

	jmp	SHORT $LN3@AddGameToL
$LN4@AddGameToL:

; 1222 : 	{
; 1223 : 		tree->AddItem(tree->GetRoot(),group);

	mov	edx, DWORD PTR _group$[ebp]
	push	edx
	mov	ecx, DWORD PTR _tree$[ebp]
	call	?GetRoot@C_TreeList@@QAEPAVTREELIST@@XZ	; C_TreeList::GetRoot
	push	eax
	mov	ecx, DWORD PTR _tree$[ebp]
	call	?AddItem@C_TreeList@@QAEHPAVTREELIST@@0@Z ; C_TreeList::AddItem

; 1224 : 		if(FalconLocalGame == game)

	mov	ecx, OFFSET ?vuLocalSessionEntity@@3V?$VuBin@VVuSessionEntity@@@@A ; vuLocalSessionEntity
	call	??B?$VuBin@VVuSessionEntity@@@@QBE_NXZ	; VuBin<VuSessionEntity>::operator bool
	movzx	eax, al
	test	eax, eax
	je	SHORT $LN11@AddGameToL
	mov	ecx, OFFSET ?vuLocalSessionEntity@@3V?$VuBin@VVuSessionEntity@@@@A ; vuLocalSessionEntity
	call	?get@?$VuBin@VVuSessionEntity@@@@QBEPAVVuSessionEntity@@XZ ; VuBin<VuSessionEntity>::get
	mov	ecx, eax
	call	?GetGame@FalconSessionEntity@@QAEPAVFalconGameEntity@@XZ ; FalconSessionEntity::GetGame
	mov	DWORD PTR tv193[ebp], eax
	jmp	SHORT $LN12@AddGameToL
$LN11@AddGameToL:
	mov	DWORD PTR tv193[ebp], 0
$LN12@AddGameToL:
	mov	ecx, DWORD PTR tv193[ebp]
	cmp	ecx, DWORD PTR _game$[ebp]
	jne	SHORT $LN3@AddGameToL

; 1225 : 			btn->SetState(2);

	push	2
	mov	edx, DWORD PTR _btn$[ebp]
	mov	eax, DWORD PTR [edx]
	mov	ecx, DWORD PTR _btn$[ebp]
	mov	edx, DWORD PTR [eax+56]
	call	edx
$LN3@AddGameToL:

; 1226 : 	}
; 1227 : 
; 1228 : 	if (game == gCommsMgr->GetTargetGame())

	mov	ecx, DWORD PTR ?gCommsMgr@@3PAVUIComms@@A ; gCommsMgr
	call	?GetTargetGame@UIComms@@QAEPAVVuGameEntity@@XZ ; UIComms::GetTargetGame
	cmp	DWORD PTR _game$[ebp], eax
	jne	SHORT $LN1@AddGameToL

; 1229 : 		btn->Process(0,C_TYPE_LMOUSEUP);

	push	52					; 00000034H
	push	0
	mov	eax, DWORD PTR _btn$[ebp]
	mov	edx, DWORD PTR [eax]
	mov	ecx, DWORD PTR _btn$[ebp]
	mov	eax, DWORD PTR [edx+200]
	call	eax
$LN1@AddGameToL:

; 1230 : 
; 1231 : 	return(group);

	mov	eax, DWORD PTR _group$[ebp]

; 1232 : }

	mov	ecx, DWORD PTR __$EHRec$[ebp]
	mov	DWORD PTR fs:0, ecx
	pop	ecx
	mov	esp, ebp
	pop	ebp
	ret	0
_TEXT	ENDS
text$x	SEGMENT
__unwindfunclet$?AddGameToList@@YAPAVTREELIST@@PAVVuGameEntity@@PAV1@PAVC_TreeList@@@Z$0:
	mov	eax, DWORD PTR $T6[ebp]
	push	eax
	call	??3@YAXPAX@Z				; operator delete
	pop	ecx
	ret	0
__unwindfunclet$?AddGameToList@@YAPAVTREELIST@@PAVVuGameEntity@@PAV1@PAVC_TreeList@@@Z$1:
	mov	eax, DWORD PTR $T5[ebp]
	push	eax
	call	??3@YAXPAX@Z				; operator delete
	pop	ecx
	ret	0
__ehhandler$?AddGameToList@@YAPAVTREELIST@@PAVVuGameEntity@@PAV1@PAVC_TreeList@@@Z:
	mov	edx, DWORD PTR [esp+8]
	lea	eax, DWORD PTR [edx+12]
	mov	ecx, DWORD PTR [edx-60]
	xor	ecx, eax
	call	@__security_check_cookie@4
	mov	eax, OFFSET __ehfuncinfo$?AddGameToList@@YAPAVTREELIST@@PAVVuGameEntity@@PAV1@PAVC_TreeList@@@Z
	jmp	___CxxFrameHandler3
text$x	ENDS
?AddGameToList@@YAPAVTREELIST@@PAVVuGameEntity@@PAV1@PAVC_TreeList@@@Z ENDP ; AddGameToList
; Function compile flags: /Odtp
; File c:\users\zhitao li\documents\visual studio 2012\projects\freefalcon\ui\src\comms\ui_comms.cpp
_TEXT	SEGMENT
$T1 = -24						; size = 8
_plyr$ = -16						; size = 4
_game$ = -12						; size = 4
_limb$ = -8						; size = 4
_tmpID$ = -4						; size = 4
_tree$ = 8						; size = 4
_branch$ = 12						; size = 4
?TrimPlayerTree@@YAXPAVC_TreeList@@PAVTREELIST@@@Z PROC	; TrimPlayerTree

; 1152 : {

	push	ebp
	mov	ebp, esp
	sub	esp, 24					; 00000018H

; 1153 : 	VU_ID *tmpID;
; 1154 : 	TREELIST *limb;
; 1155 : 	VuGameEntity *game;
; 1156 : 	C_Player *plyr;
; 1157 : 
; 1158 : 	limb=NULL;

	mov	DWORD PTR _limb$[ebp], 0
$LN14@TrimPlayer:

; 1159 : 	while(branch)

	cmp	DWORD PTR _branch$[ebp], 0
	je	$LN15@TrimPlayer

; 1160 : 	{
; 1161 : 		if(branch->Type_ == C_TYPE_MENU)

	mov	eax, DWORD PTR _branch$[ebp]
	cmp	DWORD PTR [eax+4], 49			; 00000031H
	jne	SHORT $LN12@TrimPlayer

; 1162 : 		{
; 1163 : 			tmpID=(VU_ID*)branch->Item_->GetUserPtr(_UI95_VU_ID_SLOT_);

	push	6
	mov	ecx, DWORD PTR _branch$[ebp]
	mov	ecx, DWORD PTR [ecx+20]
	call	?GetUserPtr@C_Base@@QAEPAXJ@Z		; C_Base::GetUserPtr
	mov	DWORD PTR _tmpID$[ebp], eax

; 1164 : 			if(tmpID) // this is a game vu_id

	cmp	DWORD PTR _tmpID$[ebp], 0
	je	SHORT $LN11@TrimPlayer

; 1165 : 			{
; 1166 : 				game=(VuGameEntity*)vuDatabase->Find(*tmpID);

	mov	edx, DWORD PTR _tmpID$[ebp]
	mov	eax, DWORD PTR [edx+4]
	push	eax
	mov	ecx, DWORD PTR [edx]
	push	ecx
	mov	ecx, DWORD PTR ?vuDatabase@@3PAVVuDatabase@@A ; vuDatabase
	call	?Find@VuDatabase@@QBEPAVVuEntity@@VVU_ID@@@Z ; VuDatabase::Find
	mov	DWORD PTR _game$[ebp], eax

; 1167 : 				if(game == NULL)

	cmp	DWORD PTR _game$[ebp], 0
	jne	SHORT $LN10@TrimPlayer

; 1168 : 					limb=branch;

	mov	edx, DWORD PTR _branch$[ebp]
	mov	DWORD PTR _limb$[ebp], edx
	jmp	SHORT $LN9@TrimPlayer
$LN10@TrimPlayer:

; 1169 : 				else if(branch->Child)

	mov	eax, DWORD PTR _branch$[ebp]
	cmp	DWORD PTR [eax+32], 0
	je	SHORT $LN9@TrimPlayer

; 1170 : 					TrimPlayerTree(tree,branch->Child);

	mov	ecx, DWORD PTR _branch$[ebp]
	mov	edx, DWORD PTR [ecx+32]
	push	edx
	mov	eax, DWORD PTR _tree$[ebp]
	push	eax
	call	?TrimPlayerTree@@YAXPAVC_TreeList@@PAVTREELIST@@@Z ; TrimPlayerTree
	add	esp, 8
$LN9@TrimPlayer:

; 1171 : 			}
; 1172 : 			else

	jmp	SHORT $LN7@TrimPlayer
$LN11@TrimPlayer:

; 1173 : 				TrimPlayerTree(tree,branch->Child);

	mov	ecx, DWORD PTR _branch$[ebp]
	mov	edx, DWORD PTR [ecx+32]
	push	edx
	mov	eax, DWORD PTR _tree$[ebp]
	push	eax
	call	?TrimPlayerTree@@YAXPAVC_TreeList@@PAVTREELIST@@@Z ; TrimPlayerTree
	add	esp, 8
$LN7@TrimPlayer:
	jmp	SHORT $LN6@TrimPlayer
$LN12@TrimPlayer:

; 1174 : 		}
; 1175 : 		else if(branch->Type_ == C_TYPE_ITEM)

	mov	ecx, DWORD PTR _branch$[ebp]
	cmp	DWORD PTR [ecx+4], 50			; 00000032H
	jne	SHORT $LN6@TrimPlayer

; 1176 : 		{
; 1177 : 			tmpID=(VU_ID*)branch->Parent->Item_->GetUserPtr(_UI95_VU_ID_SLOT_);

	push	6
	mov	edx, DWORD PTR _branch$[ebp]
	mov	eax, DWORD PTR [edx+36]
	mov	ecx, DWORD PTR [eax+20]
	call	?GetUserPtr@C_Base@@QAEPAXJ@Z		; C_Base::GetUserPtr
	mov	DWORD PTR _tmpID$[ebp], eax

; 1178 : 			if(tmpID == NULL)

	cmp	DWORD PTR _tmpID$[ebp], 0
	jne	SHORT $LN4@TrimPlayer

; 1179 : 				game=vuPlayerPoolGroup;

	mov	ecx, DWORD PTR ?vuPlayerPoolGroup@@3PAVVuGameEntity@@A ; vuPlayerPoolGroup
	mov	DWORD PTR _game$[ebp], ecx

; 1180 : 			else

	jmp	SHORT $LN3@TrimPlayer
$LN4@TrimPlayer:

; 1181 : 				game=(VuGameEntity*)vuDatabase->Find(*tmpID);

	mov	edx, DWORD PTR _tmpID$[ebp]
	mov	eax, DWORD PTR [edx+4]
	push	eax
	mov	ecx, DWORD PTR [edx]
	push	ecx
	mov	ecx, DWORD PTR ?vuDatabase@@3PAVVuDatabase@@A ; vuDatabase
	call	?Find@VuDatabase@@QBEPAVVuEntity@@VVU_ID@@@Z ; VuDatabase::Find
	mov	DWORD PTR _game$[ebp], eax
$LN3@TrimPlayer:

; 1182 : 
; 1183 : 			plyr=(C_Player*)branch->Item_;

	mov	edx, DWORD PTR _branch$[ebp]
	mov	eax, DWORD PTR [edx+20]
	mov	DWORD PTR _plyr$[ebp], eax

; 1184 : 			if(!TrimmerFindSession(plyr->GetVUID(),game))

	mov	ecx, DWORD PTR _game$[ebp]
	push	ecx
	lea	edx, DWORD PTR $T1[ebp]
	push	edx
	mov	ecx, DWORD PTR _plyr$[ebp]
	call	?GetVUID@C_Player@@QAE?AVVU_ID@@XZ	; C_Player::GetVUID
	mov	ecx, DWORD PTR [eax+4]
	push	ecx
	mov	edx, DWORD PTR [eax]
	push	edx
	call	?TrimmerFindSession@@YAHVVU_ID@@PAVVuGameEntity@@@Z ; TrimmerFindSession
	add	esp, 12					; 0000000cH
	test	eax, eax
	jne	SHORT $LN6@TrimPlayer

; 1185 : 				limb=branch;

	mov	eax, DWORD PTR _branch$[ebp]
	mov	DWORD PTR _limb$[ebp], eax
$LN6@TrimPlayer:

; 1186 : 		}
; 1187 : 		branch=branch->Next;

	mov	ecx, DWORD PTR _branch$[ebp]
	mov	edx, DWORD PTR [ecx+28]
	mov	DWORD PTR _branch$[ebp], edx

; 1188 : 		if(limb)

	cmp	DWORD PTR _limb$[ebp], 0
	je	SHORT $LN1@TrimPlayer

; 1189 : 		{
; 1190 : 			tree->DeleteItem(limb);

	mov	eax, DWORD PTR _limb$[ebp]
	push	eax
	mov	ecx, DWORD PTR _tree$[ebp]
	call	?DeleteItem@C_TreeList@@QAEXPAVTREELIST@@@Z ; C_TreeList::DeleteItem

; 1191 : 			limb=NULL;

	mov	DWORD PTR _limb$[ebp], 0
$LN1@TrimPlayer:

; 1192 : 		}
; 1193 : 	}

	jmp	$LN14@TrimPlayer
$LN15@TrimPlayer:

; 1194 : }

	mov	esp, ebp
	pop	ebp
	ret	0
?TrimPlayerTree@@YAXPAVC_TreeList@@PAVTREELIST@@@Z ENDP	; TrimPlayerTree
_TEXT	ENDS
; Function compile flags: /Odtp
; File c:\users\zhitao li\documents\visual studio 2012\projects\freefalcon\ui\src\comms\ui_comms.cpp
_TEXT	SEGMENT
_sessionWalker$ = -44					; size = 12
$T2 = -32						; size = 8
$T3 = -24						; size = 4
$T4 = -20						; size = 4
_session$ = -16						; size = 4
__$EHRec$ = -12						; size = 12
_playerid$ = 8						; size = 8
_game$ = 16						; size = 4
?TrimmerFindSession@@YAHVVU_ID@@PAVVuGameEntity@@@Z PROC ; TrimmerFindSession

; 1137 : {

	push	ebp
	mov	ebp, esp
	push	-1
	push	__ehhandler$?TrimmerFindSession@@YAHVVU_ID@@PAVVuGameEntity@@@Z
	mov	eax, DWORD PTR fs:0
	push	eax
	sub	esp, 32					; 00000020H
	mov	eax, DWORD PTR ___security_cookie
	xor	eax, ebp
	push	eax
	lea	eax, DWORD PTR __$EHRec$[ebp]
	mov	DWORD PTR fs:0, eax

; 1138 : 	VuSessionsIterator sessionWalker(game);

	mov	eax, DWORD PTR _game$[ebp]
	push	eax
	lea	ecx, DWORD PTR _sessionWalker$[ebp]
	call	??0VuSessionsIterator@@QAE@PAVVuGroupEntity@@@Z ; VuSessionsIterator::VuSessionsIterator
	mov	DWORD PTR __$EHRec$[ebp+8], 0

; 1139 : 	FalconSessionEntity *session;
; 1140 : 
; 1141 : 	session = (FalconSessionEntity*)sessionWalker.GetFirst();

	lea	ecx, DWORD PTR _sessionWalker$[ebp]
	call	?GetFirst@VuSessionsIterator@@QAEPAVVuSessionEntity@@XZ ; VuSessionsIterator::GetFirst
	mov	DWORD PTR _session$[ebp], eax
$LN3@TrimmerFin:

; 1142 : 	while(session)

	cmp	DWORD PTR _session$[ebp], 0
	je	SHORT $LN2@TrimmerFin

; 1143 : 	{
; 1144 : 		if(session->Id() == playerid)

	lea	ecx, DWORD PTR _playerid$[ebp]
	push	ecx
	lea	edx, DWORD PTR $T2[ebp]
	push	edx
	mov	ecx, DWORD PTR _session$[ebp]
	call	?Id@VuEntity@@QBE?AVVU_ID@@XZ		; VuEntity::Id
	mov	ecx, eax
	call	??8VU_ID@@QBE_NABV0@@Z			; VU_ID::operator==
	movzx	eax, al
	test	eax, eax
	je	SHORT $LN1@TrimmerFin

; 1145 : 			return(TRUE);

	mov	DWORD PTR $T4[ebp], 1
	mov	DWORD PTR __$EHRec$[ebp+8], -1
	lea	ecx, DWORD PTR _sessionWalker$[ebp]
	call	??1VuSessionsIterator@@UAE@XZ		; VuSessionsIterator::~VuSessionsIterator
	mov	eax, DWORD PTR $T4[ebp]
	jmp	SHORT $LN4@TrimmerFin
$LN1@TrimmerFin:

; 1146 : 		session = (FalconSessionEntity*)sessionWalker.GetNext();

	lea	ecx, DWORD PTR _sessionWalker$[ebp]
	call	?GetNext@VuSessionsIterator@@QAEPAVVuSessionEntity@@XZ ; VuSessionsIterator::GetNext
	mov	DWORD PTR _session$[ebp], eax

; 1147 : 	}

	jmp	SHORT $LN3@TrimmerFin
$LN2@TrimmerFin:

; 1148 : 	return(FALSE);

	mov	DWORD PTR $T3[ebp], 0
	mov	DWORD PTR __$EHRec$[ebp+8], -1
	lea	ecx, DWORD PTR _sessionWalker$[ebp]
	call	??1VuSessionsIterator@@UAE@XZ		; VuSessionsIterator::~VuSessionsIterator
	mov	eax, DWORD PTR $T3[ebp]
$LN4@TrimmerFin:

; 1149 : }

	mov	ecx, DWORD PTR __$EHRec$[ebp]
	mov	DWORD PTR fs:0, ecx
	pop	ecx
	mov	esp, ebp
	pop	ebp
	ret	0
_TEXT	ENDS
text$x	SEGMENT
__unwindfunclet$?TrimmerFindSession@@YAHVVU_ID@@PAVVuGameEntity@@@Z$0:
	lea	ecx, DWORD PTR _sessionWalker$[ebp]
	jmp	??1VuSessionsIterator@@UAE@XZ		; VuSessionsIterator::~VuSessionsIterator
__ehhandler$?TrimmerFindSession@@YAHVVU_ID@@PAVVuGameEntity@@@Z:
	mov	edx, DWORD PTR [esp+8]
	lea	eax, DWORD PTR [edx+12]
	mov	ecx, DWORD PTR [edx-36]
	xor	ecx, eax
	call	@__security_check_cookie@4
	mov	eax, OFFSET __ehfuncinfo$?TrimmerFindSession@@YAHVVU_ID@@PAVVuGameEntity@@@Z
	jmp	___CxxFrameHandler3
text$x	ENDS
?TrimmerFindSession@@YAHVVU_ID@@PAVVuGameEntity@@@Z ENDP ; TrimmerFindSession
; Function compile flags: /Odtp
; File c:\users\zhitao li\documents\visual studio 2012\projects\freefalcon\ui\src\comms\ui_comms.cpp
_TEXT	SEGMENT
_findme$ = 8						; size = 8
_top$ = 16						; size = 4
_tree$ = 20						; size = 4
?StartTreeSearch@@YAPAVTREELIST@@VVU_ID@@PAV1@PAVC_TreeList@@@Z PROC ; StartTreeSearch

; 1126 : {

	push	ebp
	mov	ebp, esp

; 1127 : 	SearchID=findme;

	mov	eax, DWORD PTR _findme$[ebp]
	mov	DWORD PTR _SearchID, eax
	mov	ecx, DWORD PTR _findme$[ebp+4]
	mov	DWORD PTR _SearchID+4, ecx

; 1128 : 	tree->SetSearchCB(TreeSearchCB);

	push	OFFSET ?TreeSearchCB@@YAHPAVTREELIST@@@Z ; TreeSearchCB
	mov	ecx, DWORD PTR _tree$[ebp]
	call	?SetSearchCB@C_TreeList@@QAEXP6AHPAVTREELIST@@@Z@Z ; C_TreeList::SetSearchCB

; 1129 : 	return(tree->SearchWithCB(top));

	mov	edx, DWORD PTR _top$[ebp]
	push	edx
	mov	ecx, DWORD PTR _tree$[ebp]
	call	?SearchWithCB@C_TreeList@@QAEPAVTREELIST@@PAV2@@Z ; C_TreeList::SearchWithCB

; 1130 : }

	pop	ebp
	ret	0
?StartTreeSearch@@YAPAVTREELIST@@VVU_ID@@PAV1@PAVC_TreeList@@@Z ENDP ; StartTreeSearch
_TEXT	ENDS
; Function compile flags: /Odtp
; File c:\users\zhitao li\documents\visual studio 2012\projects\freefalcon\ui\src\comms\ui_comms.cpp
_TEXT	SEGMENT
$T1 = -8						; size = 8
_item$ = 8						; size = 4
?TreeSearchCB@@YAHPAVTREELIST@@@Z PROC			; TreeSearchCB

; 1104 : {

	push	ebp
	mov	ebp, esp
	sub	esp, 8

; 1105 : 	if(item == NULL) return(FALSE);

	cmp	DWORD PTR _item$[ebp], 0
	jne	SHORT $LN8@TreeSearch
	xor	eax, eax
	jmp	$LN9@TreeSearch
$LN8@TreeSearch:

; 1106 : 	if(item->Item_ == NULL) return(FALSE);

	mov	eax, DWORD PTR _item$[ebp]
	cmp	DWORD PTR [eax+20], 0
	jne	SHORT $LN7@TreeSearch
	xor	eax, eax
	jmp	SHORT $LN9@TreeSearch
$LN7@TreeSearch:

; 1107 : 	
; 1108 : 	if(item->Type_ == C_TYPE_ITEM)

	mov	ecx, DWORD PTR _item$[ebp]
	cmp	DWORD PTR [ecx+4], 50			; 00000032H
	jne	SHORT $LN6@TreeSearch

; 1109 : 	{
; 1110 : 		if(((C_Player*)item->Item_)->GetVUID() == SearchID)

	push	OFFSET _SearchID
	lea	edx, DWORD PTR $T1[ebp]
	push	edx
	mov	eax, DWORD PTR _item$[ebp]
	mov	ecx, DWORD PTR [eax+20]
	call	?GetVUID@C_Player@@QAE?AVVU_ID@@XZ	; C_Player::GetVUID
	mov	ecx, eax
	call	??8VU_ID@@QBE_NABV0@@Z			; VU_ID::operator==
	movzx	ecx, al
	test	ecx, ecx
	je	SHORT $LN5@TreeSearch

; 1111 : 			return(TRUE);

	mov	eax, 1
	jmp	SHORT $LN9@TreeSearch
$LN5@TreeSearch:

; 1112 : 	}

	jmp	SHORT $LN4@TreeSearch
$LN6@TreeSearch:

; 1113 : 	else if(item->Type_ == C_TYPE_MENU)

	mov	edx, DWORD PTR _item$[ebp]
	cmp	DWORD PTR [edx+4], 49			; 00000031H
	jne	SHORT $LN4@TreeSearch

; 1114 : 	{
; 1115 : 		tmpID=(VU_ID*)item->Item_->GetUserPtr(_UI95_VU_ID_SLOT_);

	push	6
	mov	eax, DWORD PTR _item$[ebp]
	mov	ecx, DWORD PTR [eax+20]
	call	?GetUserPtr@C_Base@@QAEPAXJ@Z		; C_Base::GetUserPtr
	mov	DWORD PTR _tmpID, eax

; 1116 : 		if(tmpID == NULL)

	cmp	DWORD PTR _tmpID, 0
	jne	SHORT $LN2@TreeSearch

; 1117 : 			return(FALSE);

	xor	eax, eax
	jmp	SHORT $LN9@TreeSearch
$LN2@TreeSearch:

; 1118 : 
; 1119 : 		if(*tmpID == SearchID)

	push	OFFSET _SearchID
	mov	ecx, DWORD PTR _tmpID
	call	??8VU_ID@@QBE_NABV0@@Z			; VU_ID::operator==
	movzx	ecx, al
	test	ecx, ecx
	je	SHORT $LN4@TreeSearch

; 1120 : 			return(TRUE);

	mov	eax, 1
	jmp	SHORT $LN9@TreeSearch
$LN4@TreeSearch:

; 1121 : 	}
; 1122 : 	return(FALSE);

	xor	eax, eax
$LN9@TreeSearch:

; 1123 : }

	mov	esp, ebp
	pop	ebp
	ret	0
?TreeSearchCB@@YAHPAVTREELIST@@@Z ENDP			; TreeSearchCB
_TEXT	ENDS
; Function compile flags: /Odtp
; File c:\users\zhitao li\documents\visual studio 2012\projects\freefalcon\ui\src\comms\ui_comms.cpp
;	COMDAT ??__ESearchID@@YAXXZ
text$yc	SEGMENT
??__ESearchID@@YAXXZ PROC				; `dynamic initializer for 'SearchID'', COMDAT

; 1100 : static VU_ID SearchID;

	push	ebp
	mov	ebp, esp
	mov	ecx, OFFSET _SearchID
	call	??0VU_ID@@QAE@XZ			; VU_ID::VU_ID
	pop	ebp
	ret	0
??__ESearchID@@YAXXZ ENDP				; `dynamic initializer for 'SearchID''
text$yc	ENDS
; Function compile flags: /Odtp
; File c:\users\zhitao li\documents\visual studio 2012\projects\freefalcon\ui\src\comms\ui_comms.cpp
_TEXT	SEGMENT
_win$ = -8						; size = 4
_ctrl$ = -4						; size = 4
_ID$ = 8						; size = 4
?SetOnlineStatus@@YAXJ@Z PROC				; SetOnlineStatus

; 1007 : {

	push	ebp
	mov	ebp, esp
	sub	esp, 8

; 1008 : 	C_Window *win;
; 1009 : 	C_Base *ctrl;
; 1010 : 
; 1011 : 	win=gMainHandler->FindWindow(ID);

	mov	eax, DWORD PTR _ID$[ebp]
	push	eax
	mov	ecx, DWORD PTR ?gMainHandler@@3PAVC_Handler@@A ; gMainHandler
	call	?FindWindowA@C_Handler@@QAEPAVC_Window@@J@Z ; C_Handler::FindWindowA
	mov	DWORD PTR _win$[ebp], eax

; 1012 : 	if(win)

	cmp	DWORD PTR _win$[ebp], 0
	je	$LN20@SetOnlineS

; 1013 : 	{
; 1014 : 		ctrl=win->FindControl(SINGLE_FLY_CTRL);

	push	2000000					; 001e8480H
	mov	ecx, DWORD PTR _win$[ebp]
	call	?FindControl@C_Window@@QAEPAVC_Base@@J@Z ; C_Window::FindControl
	mov	DWORD PTR _ctrl$[ebp], eax

; 1015 : 		if(ctrl)

	cmp	DWORD PTR _ctrl$[ebp], 0
	je	SHORT $LN18@SetOnlineS

; 1016 : 		{
; 1017 : 			ctrl->Refresh();

	mov	ecx, DWORD PTR _ctrl$[ebp]
	mov	edx, DWORD PTR [ecx]
	mov	ecx, DWORD PTR _ctrl$[ebp]
	mov	eax, DWORD PTR [edx+160]
	call	eax

; 1018 : 			if(gCommsMgr->Online())

	mov	ecx, DWORD PTR ?gCommsMgr@@3PAVUIComms@@A ; gCommsMgr
	call	?Online@UIComms@@QAEHXZ			; UIComms::Online
	test	eax, eax
	je	SHORT $LN17@SetOnlineS

; 1019 : 				ctrl->SetReady(0);

	push	0
	mov	ecx, DWORD PTR _ctrl$[ebp]
	call	?SetReady@C_Base@@QAEXF@Z		; C_Base::SetReady

; 1020 : 			else

	jmp	SHORT $LN16@SetOnlineS
$LN17@SetOnlineS:

; 1021 : 				ctrl->SetReady(1);

	push	1
	mov	ecx, DWORD PTR _ctrl$[ebp]
	call	?SetReady@C_Base@@QAEXF@Z		; C_Base::SetReady
$LN16@SetOnlineS:

; 1022 : 			ctrl->Refresh();

	mov	ecx, DWORD PTR _ctrl$[ebp]
	mov	edx, DWORD PTR [ecx]
	mov	ecx, DWORD PTR _ctrl$[ebp]
	mov	eax, DWORD PTR [edx+160]
	call	eax
$LN18@SetOnlineS:

; 1023 : 		}
; 1024 : 		ctrl=win->FindControl(SINGLE_COMMIT_CTRL);

	push	2000002					; 001e8482H
	mov	ecx, DWORD PTR _win$[ebp]
	call	?FindControl@C_Window@@QAEPAVC_Base@@J@Z ; C_Window::FindControl
	mov	DWORD PTR _ctrl$[ebp], eax

; 1025 : 		if(ctrl)

	cmp	DWORD PTR _ctrl$[ebp], 0
	je	SHORT $LN15@SetOnlineS

; 1026 : 		{
; 1027 : 			ctrl->Refresh();

	mov	ecx, DWORD PTR _ctrl$[ebp]
	mov	edx, DWORD PTR [ecx]
	mov	ecx, DWORD PTR _ctrl$[ebp]
	mov	eax, DWORD PTR [edx+160]
	call	eax

; 1028 : 			if(gCommsMgr->Online())

	mov	ecx, DWORD PTR ?gCommsMgr@@3PAVUIComms@@A ; gCommsMgr
	call	?Online@UIComms@@QAEHXZ			; UIComms::Online
	test	eax, eax
	je	SHORT $LN14@SetOnlineS

; 1029 : 				ctrl->SetReady(0);

	push	0
	mov	ecx, DWORD PTR _ctrl$[ebp]
	call	?SetReady@C_Base@@QAEXF@Z		; C_Base::SetReady

; 1030 : 			else

	jmp	SHORT $LN13@SetOnlineS
$LN14@SetOnlineS:

; 1031 : 				ctrl->SetReady(1);

	push	1
	mov	ecx, DWORD PTR _ctrl$[ebp]
	call	?SetReady@C_Base@@QAEXF@Z		; C_Base::SetReady
$LN13@SetOnlineS:

; 1032 : 			ctrl->Refresh();

	mov	ecx, DWORD PTR _ctrl$[ebp]
	mov	edx, DWORD PTR [ecx]
	mov	ecx, DWORD PTR _ctrl$[ebp]
	mov	eax, DWORD PTR [edx+160]
	call	eax
$LN15@SetOnlineS:

; 1033 : 		}
; 1034 : 		ctrl=win->FindControl(COMMS_FLY_CTRL);

	push	2000001					; 001e8481H
	mov	ecx, DWORD PTR _win$[ebp]
	call	?FindControl@C_Window@@QAEPAVC_Base@@J@Z ; C_Window::FindControl
	mov	DWORD PTR _ctrl$[ebp], eax

; 1035 : 		if(ctrl)

	cmp	DWORD PTR _ctrl$[ebp], 0
	je	SHORT $LN12@SetOnlineS

; 1036 : 		{
; 1037 : 			ctrl->Refresh();

	mov	ecx, DWORD PTR _ctrl$[ebp]
	mov	edx, DWORD PTR [ecx]
	mov	ecx, DWORD PTR _ctrl$[ebp]
	mov	eax, DWORD PTR [edx+160]
	call	eax

; 1038 : 			if(gCommsMgr->Online())

	mov	ecx, DWORD PTR ?gCommsMgr@@3PAVUIComms@@A ; gCommsMgr
	call	?Online@UIComms@@QAEHXZ			; UIComms::Online
	test	eax, eax
	je	SHORT $LN11@SetOnlineS

; 1039 : 				ctrl->SetReady(1);

	push	1
	mov	ecx, DWORD PTR _ctrl$[ebp]
	call	?SetReady@C_Base@@QAEXF@Z		; C_Base::SetReady

; 1040 : 			else

	jmp	SHORT $LN10@SetOnlineS
$LN11@SetOnlineS:

; 1041 : 				ctrl->SetReady(0);

	push	0
	mov	ecx, DWORD PTR _ctrl$[ebp]
	call	?SetReady@C_Base@@QAEXF@Z		; C_Base::SetReady
$LN10@SetOnlineS:

; 1042 : 			ctrl->Refresh();

	mov	ecx, DWORD PTR _ctrl$[ebp]
	mov	edx, DWORD PTR [ecx]
	mov	ecx, DWORD PTR _ctrl$[ebp]
	mov	eax, DWORD PTR [edx+160]
	call	eax
$LN12@SetOnlineS:

; 1043 : 		}
; 1044 : 		ctrl=win->FindControl(COMMS_COMMIT_CTRL);

	push	2000003					; 001e8483H
	mov	ecx, DWORD PTR _win$[ebp]
	call	?FindControl@C_Window@@QAEPAVC_Base@@J@Z ; C_Window::FindControl
	mov	DWORD PTR _ctrl$[ebp], eax

; 1045 : 		if(ctrl)

	cmp	DWORD PTR _ctrl$[ebp], 0
	je	SHORT $LN9@SetOnlineS

; 1046 : 		{
; 1047 : 			ctrl->Refresh();

	mov	ecx, DWORD PTR _ctrl$[ebp]
	mov	edx, DWORD PTR [ecx]
	mov	ecx, DWORD PTR _ctrl$[ebp]
	mov	eax, DWORD PTR [edx+160]
	call	eax

; 1048 : 			if(gCommsMgr->Online())

	mov	ecx, DWORD PTR ?gCommsMgr@@3PAVUIComms@@A ; gCommsMgr
	call	?Online@UIComms@@QAEHXZ			; UIComms::Online
	test	eax, eax
	je	SHORT $LN8@SetOnlineS

; 1049 : 				ctrl->SetReady(1);

	push	1
	mov	ecx, DWORD PTR _ctrl$[ebp]
	call	?SetReady@C_Base@@QAEXF@Z		; C_Base::SetReady

; 1050 : 			else

	jmp	SHORT $LN7@SetOnlineS
$LN8@SetOnlineS:

; 1051 : 				ctrl->SetReady(0);

	push	0
	mov	ecx, DWORD PTR _ctrl$[ebp]
	call	?SetReady@C_Base@@QAEXF@Z		; C_Base::SetReady
$LN7@SetOnlineS:

; 1052 : 			ctrl->Refresh();

	mov	ecx, DWORD PTR _ctrl$[ebp]
	mov	edx, DWORD PTR [ecx]
	mov	ecx, DWORD PTR _ctrl$[ebp]
	mov	eax, DWORD PTR [edx+160]
	call	eax
$LN9@SetOnlineS:

; 1053 : 		}
; 1054 : 		ctrl=win->FindControl(DF_OFFLINE_CTRL);

	push	21930					; 000055aaH
	mov	ecx, DWORD PTR _win$[ebp]
	call	?FindControl@C_Window@@QAEPAVC_Base@@J@Z ; C_Window::FindControl
	mov	DWORD PTR _ctrl$[ebp], eax

; 1055 : 		if(ctrl)

	cmp	DWORD PTR _ctrl$[ebp], 0
	je	SHORT $LN6@SetOnlineS

; 1056 : 		{
; 1057 : 			ctrl->Refresh();

	mov	ecx, DWORD PTR _ctrl$[ebp]
	mov	edx, DWORD PTR [ecx]
	mov	ecx, DWORD PTR _ctrl$[ebp]
	mov	eax, DWORD PTR [edx+160]
	call	eax

; 1058 : 			if(gCommsMgr->Online())

	mov	ecx, DWORD PTR ?gCommsMgr@@3PAVUIComms@@A ; gCommsMgr
	call	?Online@UIComms@@QAEHXZ			; UIComms::Online
	test	eax, eax
	je	SHORT $LN5@SetOnlineS

; 1059 : 				ctrl->SetReady(0);

	push	0
	mov	ecx, DWORD PTR _ctrl$[ebp]
	call	?SetReady@C_Base@@QAEXF@Z		; C_Base::SetReady

; 1060 : 			else

	jmp	SHORT $LN4@SetOnlineS
$LN5@SetOnlineS:

; 1061 : 				ctrl->SetReady(1);

	push	1
	mov	ecx, DWORD PTR _ctrl$[ebp]
	call	?SetReady@C_Base@@QAEXF@Z		; C_Base::SetReady
$LN4@SetOnlineS:

; 1062 : 			ctrl->Refresh();

	mov	ecx, DWORD PTR _ctrl$[ebp]
	mov	edx, DWORD PTR [ecx]
	mov	ecx, DWORD PTR _ctrl$[ebp]
	mov	eax, DWORD PTR [edx+160]
	call	eax
$LN6@SetOnlineS:

; 1063 : 		}
; 1064 : 		ctrl=win->FindControl(DF_HOST_CTRL);

	push	20323					; 00004f63H
	mov	ecx, DWORD PTR _win$[ebp]
	call	?FindControl@C_Window@@QAEPAVC_Base@@J@Z ; C_Window::FindControl
	mov	DWORD PTR _ctrl$[ebp], eax

; 1065 : 		if(ctrl)

	cmp	DWORD PTR _ctrl$[ebp], 0
	je	SHORT $LN20@SetOnlineS

; 1066 : 		{
; 1067 : 			ctrl->Refresh();

	mov	ecx, DWORD PTR _ctrl$[ebp]
	mov	edx, DWORD PTR [ecx]
	mov	ecx, DWORD PTR _ctrl$[ebp]
	mov	eax, DWORD PTR [edx+160]
	call	eax

; 1068 : 			if(gCommsMgr->Online())

	mov	ecx, DWORD PTR ?gCommsMgr@@3PAVUIComms@@A ; gCommsMgr
	call	?Online@UIComms@@QAEHXZ			; UIComms::Online
	test	eax, eax
	je	SHORT $LN2@SetOnlineS

; 1069 : 				ctrl->SetReady(1);

	push	1
	mov	ecx, DWORD PTR _ctrl$[ebp]
	call	?SetReady@C_Base@@QAEXF@Z		; C_Base::SetReady

; 1070 : 			else

	jmp	SHORT $LN1@SetOnlineS
$LN2@SetOnlineS:

; 1071 : 				ctrl->SetReady(0);

	push	0
	mov	ecx, DWORD PTR _ctrl$[ebp]
	call	?SetReady@C_Base@@QAEXF@Z		; C_Base::SetReady
$LN1@SetOnlineS:

; 1072 : 			ctrl->Refresh();

	mov	ecx, DWORD PTR _ctrl$[ebp]
	mov	edx, DWORD PTR [ecx]
	mov	ecx, DWORD PTR _ctrl$[ebp]
	mov	eax, DWORD PTR [edx+160]
	call	eax
$LN20@SetOnlineS:

; 1073 : 		}
; 1074 : 	}
; 1075 : #if 0
; 1076 : 	if(People)
; 1077 : 	{
; 1078 : 		if(gCommsMgr->Online())
; 1079 : 			People->SetReady(1);
; 1080 : 		else
; 1081 : 			People->SetReady(0);
; 1082 : 		if(People->GetParent())
; 1083 : 			People->GetParent()->RefreshClient(People->GetClient());
; 1084 : 	}
; 1085 : #endif
; 1086 : }

	mov	esp, ebp
	pop	ebp
	ret	0
?SetOnlineStatus@@YAXJ@Z ENDP				; SetOnlineStatus
_TEXT	ENDS
; Function compile flags: /Odtp
; File c:\users\zhitao li\documents\visual studio 2012\projects\freefalcon\ui\src\comms\ui_comms.cpp
_TEXT	SEGMENT
$T2 = -52						; size = 8
$T3 = -44						; size = 4
$T4 = -40						; size = 4
tv167 = -36						; size = 4
$T5 = -32						; size = 4
_session$6 = -28					; size = 4
_cur$ = -24						; size = 4
_plyr$ = -20						; size = 4
_chat$ = -16						; size = 4
__$EHRec$ = -12						; size = 12
___formal$ = 8						; size = 4
_hittype$ = 12						; size = 2
_control$ = 16						; size = 4
?SendChatStringCB@@YAXJFPAVC_Base@@@Z PROC		; SendChatStringCB

; 969  : {

	push	ebp
	mov	ebp, esp
	push	-1
	push	__ehhandler$?SendChatStringCB@@YAXJFPAVC_Base@@@Z
	mov	eax, DWORD PTR fs:0
	push	eax
	sub	esp, 40					; 00000028H
	mov	eax, DWORD PTR ___security_cookie
	xor	eax, ebp
	push	eax
	lea	eax, DWORD PTR __$EHRec$[ebp]
	mov	DWORD PTR fs:0, eax

; 970  : 	TREELIST *cur;
; 971  : 	C_Player *plyr;
; 972  : 	UI_SendChatMessage *chat;
; 973  : 	if(hittype != DIK_RETURN || control == NULL || !gCommsMgr->Online())

	movsx	eax, WORD PTR _hittype$[ebp]
	cmp	eax, 28					; 0000001cH
	jne	SHORT $LN6@SendChatSt
	cmp	DWORD PTR _control$[ebp], 0
	je	SHORT $LN6@SendChatSt
	mov	ecx, DWORD PTR ?gCommsMgr@@3PAVUIComms@@A ; gCommsMgr
	call	?Online@UIComms@@QAEHXZ			; UIComms::Online
	test	eax, eax
	jne	SHORT $LN7@SendChatSt
$LN6@SendChatSt:

; 974  : 		return;

	jmp	$LN8@SendChatSt
$LN7@SendChatSt:

; 975  : 
; 976  : 	AddMessageToChatWindow(FalconLocalSessionId,((C_EditBox *)control)->GetText());

	mov	ecx, DWORD PTR _control$[ebp]
	call	?GetText@C_EditBox@@QAEPADXZ		; C_EditBox::GetText
	push	eax
	mov	ecx, DWORD PTR ?vuLocalSession@@3VVU_ID@@A+4
	push	ecx
	mov	edx, DWORD PTR ?vuLocalSession@@3VVU_ID@@A
	push	edx
	call	?AddMessageToChatWindow@@YAXVVU_ID@@PAD@Z ; AddMessageToChatWindow
	add	esp, 12					; 0000000cH

; 977  : 
; 978  : 	cur=People->GetRoot();

	mov	ecx, DWORD PTR ?People@@3PAVC_TreeList@@A ; People
	call	?GetRoot@C_TreeList@@QAEPAVTREELIST@@XZ	; C_TreeList::GetRoot
	mov	DWORD PTR _cur$[ebp], eax
$LN5@SendChatSt:

; 979  : 	while(cur)

	cmp	DWORD PTR _cur$[ebp], 0
	je	$LN4@SendChatSt

; 980  : 	{
; 981  : 		if(cur->Type_ == C_TYPE_ITEM)

	mov	eax, DWORD PTR _cur$[ebp]
	cmp	DWORD PTR [eax+4], 50			; 00000032H
	jne	$LN3@SendChatSt

; 982  : 		{
; 983  : 			plyr=(C_Player*)cur->Item_;

	mov	ecx, DWORD PTR _cur$[ebp]
	mov	edx, DWORD PTR [ecx+20]
	mov	DWORD PTR _plyr$[ebp], edx

; 984  : 			if(plyr && plyr->GetState() && !plyr->GetIgnore())

	cmp	DWORD PTR _plyr$[ebp], 0
	je	$LN3@SendChatSt
	mov	eax, DWORD PTR _plyr$[ebp]
	mov	edx, DWORD PTR [eax]
	mov	ecx, DWORD PTR _plyr$[ebp]
	mov	eax, DWORD PTR [edx+112]
	call	eax
	movsx	ecx, ax
	test	ecx, ecx
	je	$LN3@SendChatSt
	mov	ecx, DWORD PTR _plyr$[ebp]
	call	?GetIgnore@C_Player@@QAEFXZ		; C_Player::GetIgnore
	movsx	edx, ax
	test	edx, edx
	jne	$LN3@SendChatSt

; 985  : 			{
; 986  : 				FalconSessionEntity *session = (FalconSessionEntity*) vuDatabase->Find(plyr->GetVUID());

	lea	eax, DWORD PTR $T2[ebp]
	push	eax
	mov	ecx, DWORD PTR _plyr$[ebp]
	call	?GetVUID@C_Player@@QAE?AVVU_ID@@XZ	; C_Player::GetVUID
	mov	ecx, DWORD PTR [eax+4]
	push	ecx
	mov	edx, DWORD PTR [eax]
	push	edx
	mov	ecx, DWORD PTR ?vuDatabase@@3PAVVuDatabase@@A ; vuDatabase
	call	?Find@VuDatabase@@QBEPAVVuEntity@@VVU_ID@@@Z ; VuDatabase::Find
	mov	DWORD PTR _session$6[ebp], eax

; 987  : 				if(session && session != FalconLocalSession)

	cmp	DWORD PTR _session$6[ebp], 0
	je	$LN3@SendChatSt
	mov	ecx, OFFSET ?vuLocalSessionEntity@@3V?$VuBin@VVuSessionEntity@@@@A ; vuLocalSessionEntity
	call	?get@?$VuBin@VVuSessionEntity@@@@QBEPAVVuSessionEntity@@XZ ; VuBin<VuSessionEntity>::get
	cmp	DWORD PTR _session$6[ebp], eax
	je	$LN3@SendChatSt

; 988  : 				{
; 989  : 					chat=new UI_SendChatMessage(FalconNullId,session);

	push	62					; 0000003eH
	call	??2@YAPAXI@Z				; operator new
	add	esp, 4
	mov	DWORD PTR $T5[ebp], eax
	mov	DWORD PTR __$EHRec$[ebp+8], 0
	cmp	DWORD PTR $T5[ebp], 0
	je	SHORT $LN10@SendChatSt
	push	1
	mov	eax, DWORD PTR _session$6[ebp]
	push	eax
	mov	ecx, DWORD PTR ?FalconNullId@@3VVU_ID@@A+4
	push	ecx
	mov	edx, DWORD PTR ?FalconNullId@@3VVU_ID@@A
	push	edx
	mov	ecx, DWORD PTR $T5[ebp]
	call	??0UI_SendChatMessage@@QAE@VVU_ID@@PAVVuTargetEntity@@E@Z ; UI_SendChatMessage::UI_SendChatMessage
	mov	DWORD PTR tv167[ebp], eax
	jmp	SHORT $LN11@SendChatSt
$LN10@SendChatSt:
	mov	DWORD PTR tv167[ebp], 0
$LN11@SendChatSt:
	mov	eax, DWORD PTR tv167[ebp]
	mov	DWORD PTR $T4[ebp], eax
	mov	DWORD PTR __$EHRec$[ebp+8], -1
	mov	ecx, DWORD PTR $T4[ebp]
	mov	DWORD PTR _chat$[ebp], ecx

; 990  : 
; 991  : 					chat->dataBlock.from=FalconLocalSessionId;

	mov	edx, DWORD PTR _chat$[ebp]
	mov	eax, DWORD PTR ?vuLocalSession@@3VVU_ID@@A
	mov	DWORD PTR [edx+48], eax
	mov	ecx, DWORD PTR ?vuLocalSession@@3VVU_ID@@A+4
	mov	DWORD PTR [edx+52], ecx

; 992  : 					chat->dataBlock.size=static_cast<short>((_tcsclen(((C_EditBox *)control)->GetText())+1)*sizeof(_TCHAR));

	mov	ecx, DWORD PTR _control$[ebp]
	call	?GetText@C_EditBox@@QAEPADXZ		; C_EditBox::GetText
	push	eax
	call	__tcsclen
	add	esp, 4
	add	eax, 1
	mov	edx, DWORD PTR _chat$[ebp]
	mov	WORD PTR [edx+56], ax

; 993  : 					chat->dataBlock.message=new _TCHAR[chat->dataBlock.size];

	mov	eax, DWORD PTR _chat$[ebp]
	movsx	ecx, WORD PTR [eax+56]
	push	ecx
	call	??_U@YAPAXI@Z				; operator new[]
	add	esp, 4
	mov	DWORD PTR $T3[ebp], eax
	mov	edx, DWORD PTR _chat$[ebp]
	mov	eax, DWORD PTR $T3[ebp]
	mov	DWORD PTR [edx+58], eax

; 994  : 					memcpy(chat->dataBlock.message,((C_EditBox *)control)->GetText(),chat->dataBlock.size);

	mov	ecx, DWORD PTR _chat$[ebp]
	movsx	edx, WORD PTR [ecx+56]
	push	edx
	mov	ecx, DWORD PTR _control$[ebp]
	call	?GetText@C_EditBox@@QAEPADXZ		; C_EditBox::GetText
	push	eax
	mov	eax, DWORD PTR _chat$[ebp]
	mov	ecx, DWORD PTR [eax+58]
	push	ecx
	call	_memcpy
	add	esp, 12					; 0000000cH

; 995  : 					FalconSendMessage(chat,TRUE);

	push	1
	mov	edx, DWORD PTR _chat$[ebp]
	push	edx
	call	?FalconSendMessage@@YAXPAVVuMessage@@H@Z ; FalconSendMessage
	add	esp, 8
$LN3@SendChatSt:

; 996  : 				}
; 997  : 			}
; 998  : 		}
; 999  : 		cur=cur->Next;

	mov	eax, DWORD PTR _cur$[ebp]
	mov	ecx, DWORD PTR [eax+28]
	mov	DWORD PTR _cur$[ebp], ecx

; 1000 : 	}

	jmp	$LN5@SendChatSt
$LN4@SendChatSt:

; 1001 : 
; 1002 : 	((C_EditBox*)control)->SetText(TXT_SPACE);

	push	153					; 00000099H
	mov	ecx, DWORD PTR _control$[ebp]
	call	?SetText@C_EditBox@@QAEXJ@Z		; C_EditBox::SetText

; 1003 : 	control->Refresh();

	mov	edx, DWORD PTR _control$[ebp]
	mov	eax, DWORD PTR [edx]
	mov	ecx, DWORD PTR _control$[ebp]
	mov	edx, DWORD PTR [eax+160]
	call	edx
$LN8@SendChatSt:

; 1004 : }

	mov	ecx, DWORD PTR __$EHRec$[ebp]
	mov	DWORD PTR fs:0, ecx
	pop	ecx
	mov	esp, ebp
	pop	ebp
	ret	0
_TEXT	ENDS
text$x	SEGMENT
__unwindfunclet$?SendChatStringCB@@YAXJFPAVC_Base@@@Z$0:
	mov	eax, DWORD PTR $T5[ebp]
	push	eax
	call	??3@YAXPAX@Z				; operator delete
	pop	ecx
	ret	0
__ehhandler$?SendChatStringCB@@YAXJFPAVC_Base@@@Z:
	mov	edx, DWORD PTR [esp+8]
	lea	eax, DWORD PTR [edx+12]
	mov	ecx, DWORD PTR [edx-44]
	xor	ecx, eax
	call	@__security_check_cookie@4
	mov	eax, OFFSET __ehfuncinfo$?SendChatStringCB@@YAXJFPAVC_Base@@@Z
	jmp	___CxxFrameHandler3
text$x	ENDS
?SendChatStringCB@@YAXJFPAVC_Base@@@Z ENDP		; SendChatStringCB
; Function compile flags: /Odtp
; File c:\users\zhitao li\documents\visual studio 2012\projects\freefalcon\ui\src\comms\ui_comms.cpp
_TEXT	SEGMENT
$T1 = -24						; size = 4
$T2 = -20						; size = 4
$T3 = -16						; size = 4
_plyr$4 = -12						; size = 4
_item$5 = -8						; size = 4
_session$6 = -4						; size = 4
_msg$ = 8						; size = 4
?ProcessChatStr@@YAXPAVCHATSTR@@@Z PROC			; ProcessChatStr

; 913  : {

	push	ebp
	mov	ebp, esp
	sub	esp, 24					; 00000018H

; 914  : 	if(!msg)

	cmp	DWORD PTR _msg$[ebp], 0
	jne	SHORT $LN14@ProcessCha

; 915  : 		return;

	jmp	$LN16@ProcessCha
$LN14@ProcessCha:

; 916  : 	ServerChatCommand (msg->Text_);//me123

	mov	eax, DWORD PTR _msg$[ebp]
	mov	ecx, DWORD PTR [eax+8]
	push	ecx
	call	?ServerChatCommand@@YAXPAD@Z		; ServerChatCommand
	add	esp, 4

; 917  : 	if(gMainHandler) // Assume UI is running

	cmp	DWORD PTR ?gMainHandler@@3PAVC_Handler@@A, 0 ; gMainHandler
	je	$LN13@ProcessCha

; 918  : 	{
; 919  : 		TREELIST *item;
; 920  : 		C_Player *plyr;
; 921  : 
; 922  : 		if(!People)

	cmp	DWORD PTR ?People@@3PAVC_TreeList@@A, 0	; People
	jne	SHORT $LN12@ProcessCha

; 923  : 			return;

	jmp	$LN16@ProcessCha
$LN12@ProcessCha:

; 924  : 
; 925  : 		item=People->Find(msg->ID_.creator_);

	mov	ecx, DWORD PTR _msg$[ebp]
	add	ecx, 4
	call	??BVU_SESSION_ID@@QBEKXZ		; VU_SESSION_ID::operator unsigned long
	push	eax
	mov	ecx, DWORD PTR ?People@@3PAVC_TreeList@@A ; People
	call	?Find@C_TreeList@@QAEPAVTREELIST@@J@Z	; C_TreeList::Find
	mov	DWORD PTR _item$5[ebp], eax

; 926  : 		if(item)

	cmp	DWORD PTR _item$5[ebp], 0
	je	SHORT $LN11@ProcessCha

; 927  : 		{
; 928  : 			plyr=(C_Player*)item->Item_;

	mov	edx, DWORD PTR _item$5[ebp]
	mov	eax, DWORD PTR [edx+20]
	mov	DWORD PTR _plyr$4[ebp], eax

; 929  : 			if(plyr && (plyr->GetMute())) // Filter out Chat messages we don't want to hear

	cmp	DWORD PTR _plyr$4[ebp], 0
	je	SHORT $LN11@ProcessCha
	mov	ecx, DWORD PTR _plyr$4[ebp]
	call	?GetMute@C_Player@@QAEFXZ		; C_Player::GetMute
	movsx	ecx, ax
	test	ecx, ecx
	je	SHORT $LN11@ProcessCha

; 930  : 				return;

	jmp	$LN16@ProcessCha
$LN11@ProcessCha:

; 931  : 		}
; 932  : 
; 933  : 		AddMessageToChatWindow(msg->ID_,msg->Text_);

	mov	edx, DWORD PTR _msg$[ebp]
	mov	eax, DWORD PTR [edx+8]
	push	eax
	mov	ecx, DWORD PTR _msg$[ebp]
	mov	edx, DWORD PTR [ecx+4]
	push	edx
	mov	eax, DWORD PTR [ecx]
	push	eax
	call	?AddMessageToChatWindow@@YAXVVU_ID@@PAD@Z ; AddMessageToChatWindow
	add	esp, 12					; 0000000cH

; 934  : 		if(!(gMainHandler->GetWindowFlags(CHAT_WIN) & C_BIT_ENABLED))

	push	60014					; 0000ea6eH
	mov	ecx, DWORD PTR ?gMainHandler@@3PAVC_Handler@@A ; gMainHandler
	call	?GetWindowFlags@C_Handler@@QAEJJ@Z	; C_Handler::GetWindowFlags
	and	eax, 2048				; 00000800H
	jne	SHORT $LN9@ProcessCha

; 935  : 			gNewMessage=TRUE;

	mov	DWORD PTR ?gNewMessage@@3HA, 1		; gNewMessage
$LN9@ProcessCha:

; 936  : 	}

	jmp	$LN8@ProcessCha
$LN13@ProcessCha:

; 937  : 	else if(VM)// Assume Sim is running (AND VM is initialized)

	cmp	DWORD PTR ?VM@@3PAVVoiceManager@@A, 0	; VM
	je	$LN8@ProcessCha

; 938  : 	{
; 939  : 		FalconSessionEntity *session;
; 940  : 
; 941  : 		session=(FalconSessionEntity*)vuDatabase->Find(msg->ID_);

	mov	ecx, DWORD PTR _msg$[ebp]
	mov	edx, DWORD PTR [ecx+4]
	push	edx
	mov	eax, DWORD PTR [ecx]
	push	eax
	mov	ecx, DWORD PTR ?vuDatabase@@3PAVVuDatabase@@A ; vuDatabase
	call	?Find@VuDatabase@@QBEPAVVuEntity@@VVU_ID@@@Z ; VuDatabase::Find
	mov	DWORD PTR _session$6[ebp], eax

; 942  : 
; 943  : 		if(session)

	cmp	DWORD PTR _session$6[ebp], 0
	je	SHORT $LN6@ProcessCha

; 944  : 		{
; 945  : 			if(!FilterIncommingMessage(session))

	mov	ecx, DWORD PTR _session$6[ebp]
	push	ecx
	call	?FilterIncommingMessage@@YAHPAVFalconSessionEntity@@@Z ; FilterIncommingMessage
	add	esp, 4
	test	eax, eax
	jne	SHORT $LN5@ProcessCha

; 946  : 				return;

	jmp	$LN16@ProcessCha
$LN5@ProcessCha:

; 947  : 
; 948  : 			_tcscpy(chatbuf,session->GetPlayerCallsign());

	mov	ecx, DWORD PTR _session$6[ebp]
	call	?GetPlayerCallsign@FalconSessionEntity@@QAEPADXZ ; FalconSessionEntity::GetPlayerCallsign
	push	eax
	push	OFFSET _chatbuf
	call	_strcpy
	add	esp, 8

; 949  : 			_tcscat(chatbuf,": ");

	push	OFFSET ??_C@_02LMMGGCAJ@?3?5?$AA@
	push	OFFSET _chatbuf
	call	_strcat
	add	esp, 8
	jmp	SHORT $LN4@ProcessCha
$LN6@ProcessCha:

; 950  : 		}
; 951  : 		else if (msg->ID_ != FalconNullId)

	push	OFFSET ?FalconNullId@@3VVU_ID@@A	; FalconNullId
	mov	ecx, DWORD PTR _msg$[ebp]
	call	??9VU_ID@@QBE_NABV0@@Z			; VU_ID::operator!=
	movzx	edx, al
	test	edx, edx
	je	SHORT $LN3@ProcessCha

; 952  : 		{
; 953  : 			_tcscpy(chatbuf,"Unknown");

	push	OFFSET ??_C@_07NBCGADJA@Unknown?$AA@
	push	OFFSET _chatbuf
	call	_strcpy
	add	esp, 8

; 954  : 			_tcscat(chatbuf,": ");

	push	OFFSET ??_C@_02LMMGGCAJ@?3?5?$AA@
	push	OFFSET _chatbuf
	call	_strcat
	add	esp, 8

; 955  : 		}
; 956  : 		else

	jmp	SHORT $LN4@ProcessCha
$LN3@ProcessCha:

; 957  : 			chatbuf[0] = '\0';

	mov	eax, 1
	imul	eax, 0
	mov	DWORD PTR $T3[ebp], eax
	cmp	DWORD PTR $T3[ebp], 512			; 00000200H
	jae	SHORT $LN17@ProcessCha
	jmp	SHORT $LN18@ProcessCha
$LN17@ProcessCha:
	call	___report_rangecheckfailure
$LN18@ProcessCha:
	mov	ecx, DWORD PTR $T3[ebp]
	mov	BYTE PTR _chatbuf[ecx], 0
$LN4@ProcessCha:

; 958  : 
; 959  : 		_tcscat(chatbuf,msg->Text_);

	mov	edx, DWORD PTR _msg$[ebp]
	mov	eax, DWORD PTR [edx+8]
	push	eax
	push	OFFSET _chatbuf
	call	_strcat
	add	esp, 8

; 960  : 
; 961  : 		OTWDriver.ShowMessage(chatbuf);

	push	OFFSET _chatbuf
	mov	ecx, OFFSET ?OTWDriver@@3VOTWDriverClass@@A ; OTWDriver
	call	?ShowMessage@OTWDriverClass@@QAEXPAD@Z	; OTWDriverClass::ShowMessage
$LN8@ProcessCha:

; 962  : 	}
; 963  : 
; 964  : 	if(msg->Text_) delete[] msg->Text_;		// OW - the message string was not deleted resulting in a memory leak

	mov	ecx, DWORD PTR _msg$[ebp]
	cmp	DWORD PTR [ecx+8], 0
	je	SHORT $LN1@ProcessCha
	mov	edx, DWORD PTR _msg$[ebp]
	mov	eax, DWORD PTR [edx+8]
	mov	DWORD PTR $T2[ebp], eax
	mov	ecx, DWORD PTR $T2[ebp]
	push	ecx
	call	??_V@YAXPAX@Z				; operator delete[]
	add	esp, 4
$LN1@ProcessCha:

; 965  : 	delete msg;

	mov	edx, DWORD PTR _msg$[ebp]
	mov	DWORD PTR $T1[ebp], edx
	mov	eax, DWORD PTR $T1[ebp]
	push	eax
	call	??3@YAXPAX@Z				; operator delete
	add	esp, 4
$LN16@ProcessCha:

; 966  : }

	mov	esp, ebp
	pop	ebp
	ret	0
?ProcessChatStr@@YAXPAVCHATSTR@@@Z ENDP			; ProcessChatStr
_TEXT	ENDS
; Function compile flags: /Odtp
; File c:\users\zhitao li\documents\visual studio 2012\projects\freefalcon\ui\src\comms\ui_comms.cpp
_TEXT	SEGMENT
$T2 = -32						; size = 4
$T3 = -28						; size = 4
tv71 = -24						; size = 4
$T4 = -20						; size = 4
_msg$ = -16						; size = 4
__$EHRec$ = -12						; size = 12
_from$ = 8						; size = 8
_message$ = 16						; size = 4
?ReceiveChatString@@YAXVVU_ID@@PAD@Z PROC		; ReceiveChatString

; 892  : {

	push	ebp
	mov	ebp, esp
	push	-1
	push	__ehhandler$?ReceiveChatString@@YAXVVU_ID@@PAD@Z
	mov	eax, DWORD PTR fs:0
	push	eax
	sub	esp, 20					; 00000014H
	mov	eax, DWORD PTR ___security_cookie
	xor	eax, ebp
	push	eax
	lea	eax, DWORD PTR __$EHRec$[ebp]
	mov	DWORD PTR fs:0, eax

; 893  : 	CHATSTR *msg;
; 894  : 	
; 895  : 	msg=new CHATSTR;

	push	12					; 0000000cH
	call	??2@YAPAXI@Z				; operator new
	add	esp, 4
	mov	DWORD PTR $T4[ebp], eax
	mov	DWORD PTR __$EHRec$[ebp+8], 0
	cmp	DWORD PTR $T4[ebp], 0
	je	SHORT $LN3@ReceiveCha
	mov	ecx, DWORD PTR $T4[ebp]
	call	??0CHATSTR@@QAE@XZ
	mov	DWORD PTR tv71[ebp], eax
	jmp	SHORT $LN4@ReceiveCha
$LN3@ReceiveCha:
	mov	DWORD PTR tv71[ebp], 0
$LN4@ReceiveCha:
	mov	eax, DWORD PTR tv71[ebp]
	mov	DWORD PTR $T3[ebp], eax
	mov	DWORD PTR __$EHRec$[ebp+8], -1
	mov	ecx, DWORD PTR $T3[ebp]
	mov	DWORD PTR _msg$[ebp], ecx

; 896  : 	msg->ID_=from;

	mov	edx, DWORD PTR _msg$[ebp]
	mov	eax, DWORD PTR _from$[ebp]
	mov	DWORD PTR [edx], eax
	mov	ecx, DWORD PTR _from$[ebp+4]
	mov	DWORD PTR [edx+4], ecx

; 897  : 	// OW - allocation did not include the terminating zero char
; 898  : 	#if 0
; 899  : 	msg->Text_=new _TCHAR[_tcsclen(message)];
; 900  : 	#else
; 901  : 	msg->Text_=new _TCHAR[_tcsclen(message) + 1];

	mov	edx, DWORD PTR _message$[ebp]
	push	edx
	call	__tcsclen
	add	esp, 4
	add	eax, 1
	push	eax
	call	??_U@YAPAXI@Z				; operator new[]
	add	esp, 4
	mov	DWORD PTR $T2[ebp], eax
	mov	eax, DWORD PTR _msg$[ebp]
	mov	ecx, DWORD PTR $T2[ebp]
	mov	DWORD PTR [eax+8], ecx

; 902  : 	#endif
; 903  : 
; 904  : 	_tcscpy(msg->Text_,message);

	mov	edx, DWORD PTR _message$[ebp]
	push	edx
	mov	eax, DWORD PTR _msg$[ebp]
	mov	ecx, DWORD PTR [eax+8]
	push	ecx
	call	_strcpy
	add	esp, 8

; 905  : 	PostMessage(gCommsMgr->AppWnd_,FM_RECEIVE_CHAT,0,(long)msg);

	mov	edx, DWORD PTR _msg$[ebp]
	push	edx
	push	0
	push	1072					; 00000430H
	mov	eax, DWORD PTR ?gCommsMgr@@3PAVUIComms@@A ; gCommsMgr
	mov	ecx, DWORD PTR [eax+112]
	push	ecx
	call	DWORD PTR __imp__PostMessageA@16

; 906  : 
; 907  : 
; 908  : }

	mov	ecx, DWORD PTR __$EHRec$[ebp]
	mov	DWORD PTR fs:0, ecx
	pop	ecx
	mov	esp, ebp
	pop	ebp
	ret	0
_TEXT	ENDS
text$x	SEGMENT
__unwindfunclet$?ReceiveChatString@@YAXVVU_ID@@PAD@Z$0:
	mov	eax, DWORD PTR $T4[ebp]
	push	eax
	call	??3@YAXPAX@Z				; operator delete
	pop	ecx
	ret	0
__ehhandler$?ReceiveChatString@@YAXVVU_ID@@PAD@Z:
	mov	edx, DWORD PTR [esp+8]
	lea	eax, DWORD PTR [edx+12]
	mov	ecx, DWORD PTR [edx-24]
	xor	ecx, eax
	call	@__security_check_cookie@4
	mov	eax, OFFSET __ehfuncinfo$?ReceiveChatString@@YAXVVU_ID@@PAD@Z
	jmp	___CxxFrameHandler3
text$x	ENDS
?ReceiveChatString@@YAXVVU_ID@@PAD@Z ENDP		; ReceiveChatString
; Function compile flags: /Odtp
; File c:\users\zhitao li\documents\visual studio 2012\projects\freefalcon\ui\src\comms\ui_comms.cpp
_TEXT	SEGMENT
$T1 = -164						; size = 8
$T2 = -156						; size = 8
$T3 = -148						; size = 8
$T4 = -140						; size = 8
$T5 = -132						; size = 8
$T6 = -124						; size = 8
$T7 = -116						; size = 8
$T8 = -108						; size = 8
$T9 = -100						; size = 8
$T10 = -92						; size = 8
$T11 = -84						; size = 8
$T12 = -76						; size = 8
tv540 = -68						; size = 4
tv474 = -64						; size = 4
_MyPackageID$ = -60					; size = 8
_myx$ = -52						; size = 4
_dist$ = -48						; size = 4
_sx$ = -44						; size = 4
_sy$ = -40						; size = 4
_myy$ = -36						; size = 4
tv240 = -32						; size = 4
tv69 = -28						; size = 4
_dy$ = -24						; size = 4
_dx$ = -20						; size = 4
_retval$ = -16						; size = 4
_pkg$ = -12						; size = 4
_ent$ = -8						; size = 4
_flt$ = -4						; size = 4
_session$ = 8						; size = 4
?FilterIncommingMessage@@YAHPAVFalconSessionEntity@@@Z PROC ; FilterIncommingMessage

; 740  : {

	push	ebp
	mov	ebp, esp
	sub	esp, 164				; 000000a4H
	push	esi

; 741  : 	Package pkg;
; 742  : 	Flight flt;
; 743  : 	VU_ID MyPackageID;

	lea	ecx, DWORD PTR _MyPackageID$[ebp]
	call	??0VU_ID@@QAE@XZ			; VU_ID::VU_ID

; 744  : 	BOOL retval=FALSE;

	mov	DWORD PTR _retval$[ebp], 0

; 745  : 	float myx,sx,myy,sy,dx,dy,dist;
; 746  : 	VuEntity *ent;
; 747  : 
; 748  : 	if(VM)

	cmp	DWORD PTR ?VM@@3PAVVoiceManager@@A, 0	; VM
	je	$LN15@FilterInco

; 749  : 	{
; 750  : 		switch(VM->GetRadioFreq(0))

	push	0
	mov	ecx, DWORD PTR ?VM@@3PAVVoiceManager@@A	; VM
	call	?GetRadioFreq@VoiceManager@@QAEHH@Z	; VoiceManager::GetRadioFreq
	mov	DWORD PTR tv69[ebp], eax
	mov	eax, DWORD PTR tv69[ebp]
	sub	eax, 1
	mov	DWORD PTR tv69[ebp], eax
	cmp	DWORD PTR tv69[ebp], 13			; 0000000dH
	ja	$LN31@FilterInco
	mov	ecx, DWORD PTR tv69[ebp]
	movzx	edx, BYTE PTR $LN36@FilterInco[ecx]
	jmp	DWORD PTR $LN38@FilterInco[edx*4]
$LN30@FilterInco:

; 751  : 		{
; 752  : 			case rcfFlight5:
; 753  : 			case rcfFlight1:
; 754  : 			case rcfFlight2:
; 755  : 			case rcfFlight3:
; 756  : 			case rcfFlight4:
; 757  : 
; 758  : 				if(session->GetPlayerFlightID() == FalconLocalSession->GetPlayerFlightID())

	lea	eax, DWORD PTR $T6[ebp]
	push	eax
	mov	ecx, OFFSET ?vuLocalSessionEntity@@3V?$VuBin@VVuSessionEntity@@@@A ; vuLocalSessionEntity
	call	?get@?$VuBin@VVuSessionEntity@@@@QBEPAVVuSessionEntity@@XZ ; VuBin<VuSessionEntity>::get
	mov	ecx, eax
	call	?GetPlayerFlightID@FalconSessionEntity@@QBE?AVVU_ID@@XZ ; FalconSessionEntity::GetPlayerFlightID
	push	eax
	lea	ecx, DWORD PTR $T10[ebp]
	push	ecx
	mov	ecx, DWORD PTR _session$[ebp]
	call	?GetPlayerFlightID@FalconSessionEntity@@QBE?AVVU_ID@@XZ ; FalconSessionEntity::GetPlayerFlightID
	mov	ecx, eax
	call	??8VU_ID@@QBE_NABV0@@Z			; VU_ID::operator==
	movzx	edx, al
	test	edx, edx
	je	SHORT $LN29@FilterInco

; 759  : 					retval=TRUE;

	mov	DWORD PTR _retval$[ebp], 1
$LN29@FilterInco:

; 760  : 				break;

	jmp	$LN31@FilterInco
$LN28@FilterInco:

; 761  : 			case rcfPackage5:
; 762  : 			case rcfPackage1:
; 763  : 			case rcfPackage2:
; 764  : 			case rcfPackage3:
; 765  : 			case rcfPackage4:
; 766  : 			
; 767  : 			case rcfFromPackage:
; 768  : 				flt=(Flight)vuDatabase->Find(FalconLocalSession->GetPlayerFlightID());

	lea	eax, DWORD PTR $T2[ebp]
	push	eax
	mov	ecx, OFFSET ?vuLocalSessionEntity@@3V?$VuBin@VVuSessionEntity@@@@A ; vuLocalSessionEntity
	call	?get@?$VuBin@VVuSessionEntity@@@@QBEPAVVuSessionEntity@@XZ ; VuBin<VuSessionEntity>::get
	mov	ecx, eax
	call	?GetPlayerFlightID@FalconSessionEntity@@QBE?AVVU_ID@@XZ ; FalconSessionEntity::GetPlayerFlightID
	mov	ecx, DWORD PTR [eax+4]
	push	ecx
	mov	edx, DWORD PTR [eax]
	push	edx
	mov	ecx, DWORD PTR ?vuDatabase@@3PAVVuDatabase@@A ; vuDatabase
	call	?Find@VuDatabase@@QBEPAVVuEntity@@VVU_ID@@@Z ; VuDatabase::Find
	mov	DWORD PTR _flt$[ebp], eax

; 769  : 				if(!flt)

	cmp	DWORD PTR _flt$[ebp], 0
	jne	SHORT $LN27@FilterInco

; 770  : 					break;

	jmp	$LN31@FilterInco
$LN27@FilterInco:

; 771  : 
; 772  : 				pkg=(Package)flt->GetUnitParent();

	mov	eax, DWORD PTR _flt$[ebp]
	mov	edx, DWORD PTR [eax]
	mov	ecx, DWORD PTR _flt$[ebp]
	mov	eax, DWORD PTR [edx+1008]
	call	eax
	mov	DWORD PTR _pkg$[ebp], eax

; 773  : 				if(!pkg)

	cmp	DWORD PTR _pkg$[ebp], 0
	jne	SHORT $LN26@FilterInco

; 774  : 					break;

	jmp	$LN31@FilterInco
$LN26@FilterInco:

; 775  : 
; 776  : 				MyPackageID=pkg->Id();

	lea	ecx, DWORD PTR $T8[ebp]
	push	ecx
	mov	ecx, DWORD PTR _pkg$[ebp]
	call	?Id@VuEntity@@QBE?AVVU_ID@@XZ		; VuEntity::Id
	mov	edx, DWORD PTR [eax]
	mov	eax, DWORD PTR [eax+4]
	mov	DWORD PTR _MyPackageID$[ebp], edx
	mov	DWORD PTR _MyPackageID$[ebp+4], eax

; 777  : 
; 778  : 				flt=(Flight)vuDatabase->Find(session->GetPlayerFlightID());

	lea	ecx, DWORD PTR $T4[ebp]
	push	ecx
	mov	ecx, DWORD PTR _session$[ebp]
	call	?GetPlayerFlightID@FalconSessionEntity@@QBE?AVVU_ID@@XZ ; FalconSessionEntity::GetPlayerFlightID
	mov	edx, DWORD PTR [eax+4]
	push	edx
	mov	eax, DWORD PTR [eax]
	push	eax
	mov	ecx, DWORD PTR ?vuDatabase@@3PAVVuDatabase@@A ; vuDatabase
	call	?Find@VuDatabase@@QBEPAVVuEntity@@VVU_ID@@@Z ; VuDatabase::Find
	mov	DWORD PTR _flt$[ebp], eax

; 779  : 				if(flt)

	cmp	DWORD PTR _flt$[ebp], 0
	je	SHORT $LN24@FilterInco

; 780  : 				{
; 781  : 					pkg=(Package)flt->GetUnitParent();

	mov	ecx, DWORD PTR _flt$[ebp]
	mov	edx, DWORD PTR [ecx]
	mov	ecx, DWORD PTR _flt$[ebp]
	mov	eax, DWORD PTR [edx+1008]
	call	eax
	mov	DWORD PTR _pkg$[ebp], eax

; 782  : 					if(pkg && pkg->Id() == MyPackageID)

	cmp	DWORD PTR _pkg$[ebp], 0
	je	SHORT $LN24@FilterInco
	lea	ecx, DWORD PTR _MyPackageID$[ebp]
	push	ecx
	lea	edx, DWORD PTR $T12[ebp]
	push	edx
	mov	ecx, DWORD PTR _pkg$[ebp]
	call	?Id@VuEntity@@QBE?AVVU_ID@@XZ		; VuEntity::Id
	mov	ecx, eax
	call	??8VU_ID@@QBE_NABV0@@Z			; VU_ID::operator==
	movzx	eax, al
	test	eax, eax
	je	SHORT $LN24@FilterInco

; 783  : 						retval=TRUE;

	mov	DWORD PTR _retval$[ebp], 1
$LN24@FilterInco:

; 784  : 				}
; 785  : 				break;

	jmp	$LN31@FilterInco
$LN23@FilterInco:

; 786  : 			case rcfProx: // 40nm range
; 787  : 				ent=FalconLocalSession->GetPlayerEntity();

	mov	ecx, OFFSET ?vuLocalSessionEntity@@3V?$VuBin@VVuSessionEntity@@@@A ; vuLocalSessionEntity
	call	?get@?$VuBin@VVuSessionEntity@@@@QBEPAVVuSessionEntity@@XZ ; VuBin<VuSessionEntity>::get
	mov	ecx, eax
	call	?GetPlayerEntity@FalconSessionEntity@@QBEPAVFalconEntity@@XZ ; FalconSessionEntity::GetPlayerEntity
	mov	DWORD PTR _ent$[ebp], eax

; 788  : 				if(!ent)

	cmp	DWORD PTR _ent$[ebp], 0
	jne	SHORT $LN22@FilterInco

; 789  : 					break;

	jmp	$LN31@FilterInco
$LN22@FilterInco:

; 790  : 
; 791  : 				myx=ent->XPos();

	mov	ecx, DWORD PTR _ent$[ebp]
	call	?XPos@VuEntity@@QBEMXZ			; VuEntity::XPos
	fstp	DWORD PTR _myx$[ebp]

; 792  : 				myy=ent->YPos();

	mov	ecx, DWORD PTR _ent$[ebp]
	call	?YPos@VuEntity@@QBEMXZ			; VuEntity::YPos
	fstp	DWORD PTR _myy$[ebp]

; 793  : 
; 794  : 				ent=session->GetPlayerEntity();

	mov	ecx, DWORD PTR _session$[ebp]
	call	?GetPlayerEntity@FalconSessionEntity@@QBEPAVFalconEntity@@XZ ; FalconSessionEntity::GetPlayerEntity
	mov	DWORD PTR _ent$[ebp], eax

; 795  : 				if(ent)

	cmp	DWORD PTR _ent$[ebp], 0
	je	$LN20@FilterInco

; 796  : 				{
; 797  : 					sx=ent->XPos();

	mov	ecx, DWORD PTR _ent$[ebp]
	call	?XPos@VuEntity@@QBEMXZ			; VuEntity::XPos
	fstp	DWORD PTR _sx$[ebp]

; 798  : 					sy=ent->YPos();

	mov	ecx, DWORD PTR _ent$[ebp]
	call	?YPos@VuEntity@@QBEMXZ			; VuEntity::YPos
	fstp	DWORD PTR _sy$[ebp]

; 799  : 
; 800  : 					dx=myx-sx;

	movss	xmm0, DWORD PTR _myx$[ebp]
	subss	xmm0, DWORD PTR _sx$[ebp]
	movss	DWORD PTR _dx$[ebp], xmm0

; 801  : 					dy=myy-sy;

	movss	xmm0, DWORD PTR _myy$[ebp]
	subss	xmm0, DWORD PTR _sy$[ebp]
	movss	DWORD PTR _dy$[ebp], xmm0

; 802  : 
; 803  : 					dist=static_cast<float>(sqrt(dx*dx+dy*dy) * FT_TO_NM);

	movss	xmm0, DWORD PTR _dx$[ebp]
	mulss	xmm0, DWORD PTR _dx$[ebp]
	movss	xmm1, DWORD PTR _dy$[ebp]
	mulss	xmm1, DWORD PTR _dy$[ebp]
	addss	xmm0, xmm1
	push	ecx
	movss	DWORD PTR [esp], xmm0
	call	?SqrtSSE@@YAMM@Z			; SqrtSSE
	add	esp, 4
	fstp	DWORD PTR tv474[ebp]
	movss	xmm0, DWORD PTR tv474[ebp]
	mulss	xmm0, DWORD PTR __real@392c987a
	movss	DWORD PTR _dist$[ebp], xmm0

; 804  : 
; 805  : 					if(dist <= 40.0f)

	movss	xmm0, DWORD PTR __real@42200000
	comiss	xmm0, DWORD PTR _dist$[ebp]
	jb	SHORT $LN20@FilterInco

; 806  : 						retval=TRUE;

	mov	DWORD PTR _retval$[ebp], 1
$LN20@FilterInco:

; 807  : 				}
; 808  : 				break;

	jmp	SHORT $LN31@FilterInco
$LN19@FilterInco:

; 809  : 			case rcfTeam:
; 810  : 				if(session->GetTeam() == FalconLocalSession->GetTeam())

	mov	ecx, DWORD PTR _session$[ebp]
	call	?GetTeam@FalconSessionEntity@@QAEEXZ	; FalconSessionEntity::GetTeam
	movzx	esi, al
	mov	ecx, OFFSET ?vuLocalSessionEntity@@3V?$VuBin@VVuSessionEntity@@@@A ; vuLocalSessionEntity
	call	?get@?$VuBin@VVuSessionEntity@@@@QBEPAVVuSessionEntity@@XZ ; VuBin<VuSessionEntity>::get
	mov	ecx, eax
	call	?GetTeam@FalconSessionEntity@@QAEEXZ	; FalconSessionEntity::GetTeam
	movzx	ecx, al
	cmp	esi, ecx
	jne	SHORT $LN18@FilterInco

; 811  : 					retval=TRUE;

	mov	DWORD PTR _retval$[ebp], 1
$LN18@FilterInco:

; 812  : 				break;

	jmp	SHORT $LN31@FilterInco
$LN17@FilterInco:

; 813  : 			case rcfAll:
; 814  : 				retval=TRUE;

	mov	DWORD PTR _retval$[ebp], 1
$LN31@FilterInco:

; 815  : 				break;
; 816  : 		}
; 817  : 		switch(VM->GetRadioFreq(1))

	push	1
	mov	ecx, DWORD PTR ?VM@@3PAVVoiceManager@@A	; VM
	call	?GetRadioFreq@VoiceManager@@QAEHH@Z	; VoiceManager::GetRadioFreq
	mov	DWORD PTR tv240[ebp], eax
	mov	edx, DWORD PTR tv240[ebp]
	sub	edx, 1
	mov	DWORD PTR tv240[ebp], edx
	cmp	DWORD PTR tv240[ebp], 13		; 0000000dH
	ja	$LN15@FilterInco
	mov	eax, DWORD PTR tv240[ebp]
	movzx	ecx, BYTE PTR $LN37@FilterInco[eax]
	jmp	DWORD PTR $LN39@FilterInco[ecx*4]
$LN14@FilterInco:

; 818  : 		{
; 819  : 			case rcfFlight5:
; 820  : 			case rcfFlight1:
; 821  : 			case rcfFlight2:
; 822  : 			case rcfFlight3:
; 823  : 			case rcfFlight4:
; 824  : 			
; 825  : 				if(session->GetPlayerFlightID() == FalconLocalSession->GetPlayerFlightID())

	lea	edx, DWORD PTR $T11[ebp]
	push	edx
	mov	ecx, OFFSET ?vuLocalSessionEntity@@3V?$VuBin@VVuSessionEntity@@@@A ; vuLocalSessionEntity
	call	?get@?$VuBin@VVuSessionEntity@@@@QBEPAVVuSessionEntity@@XZ ; VuBin<VuSessionEntity>::get
	mov	ecx, eax
	call	?GetPlayerFlightID@FalconSessionEntity@@QBE?AVVU_ID@@XZ ; FalconSessionEntity::GetPlayerFlightID
	push	eax
	lea	eax, DWORD PTR $T9[ebp]
	push	eax
	mov	ecx, DWORD PTR _session$[ebp]
	call	?GetPlayerFlightID@FalconSessionEntity@@QBE?AVVU_ID@@XZ ; FalconSessionEntity::GetPlayerFlightID
	mov	ecx, eax
	call	??8VU_ID@@QBE_NABV0@@Z			; VU_ID::operator==
	movzx	ecx, al
	test	ecx, ecx
	je	SHORT $LN13@FilterInco

; 826  : 					retval=TRUE;

	mov	DWORD PTR _retval$[ebp], 1
$LN13@FilterInco:

; 827  : 				break;

	jmp	$LN15@FilterInco
$LN12@FilterInco:

; 828  : 			case rcfPackage5:
; 829  : 			case rcfPackage1:
; 830  : 			case rcfPackage2:
; 831  : 			case rcfPackage3:
; 832  : 			case rcfPackage4:
; 833  : 			
; 834  : 			case rcfFromPackage:
; 835  : 				flt=(Flight)vuDatabase->Find(FalconLocalSession->GetPlayerFlightID());

	lea	edx, DWORD PTR $T7[ebp]
	push	edx
	mov	ecx, OFFSET ?vuLocalSessionEntity@@3V?$VuBin@VVuSessionEntity@@@@A ; vuLocalSessionEntity
	call	?get@?$VuBin@VVuSessionEntity@@@@QBEPAVVuSessionEntity@@XZ ; VuBin<VuSessionEntity>::get
	mov	ecx, eax
	call	?GetPlayerFlightID@FalconSessionEntity@@QBE?AVVU_ID@@XZ ; FalconSessionEntity::GetPlayerFlightID
	mov	ecx, DWORD PTR [eax+4]
	push	ecx
	mov	edx, DWORD PTR [eax]
	push	edx
	mov	ecx, DWORD PTR ?vuDatabase@@3PAVVuDatabase@@A ; vuDatabase
	call	?Find@VuDatabase@@QBEPAVVuEntity@@VVU_ID@@@Z ; VuDatabase::Find
	mov	DWORD PTR _flt$[ebp], eax

; 836  : 				if(!flt)

	cmp	DWORD PTR _flt$[ebp], 0
	jne	SHORT $LN11@FilterInco

; 837  : 					break;

	jmp	$LN15@FilterInco
$LN11@FilterInco:

; 838  : 
; 839  : 				pkg=(Package)flt->GetUnitParent();

	mov	eax, DWORD PTR _flt$[ebp]
	mov	edx, DWORD PTR [eax]
	mov	ecx, DWORD PTR _flt$[ebp]
	mov	eax, DWORD PTR [edx+1008]
	call	eax
	mov	DWORD PTR _pkg$[ebp], eax

; 840  : 				if(!pkg)

	cmp	DWORD PTR _pkg$[ebp], 0
	jne	SHORT $LN10@FilterInco

; 841  : 					break;

	jmp	$LN15@FilterInco
$LN10@FilterInco:

; 842  : 
; 843  : 				MyPackageID=pkg->Id();

	lea	ecx, DWORD PTR $T5[ebp]
	push	ecx
	mov	ecx, DWORD PTR _pkg$[ebp]
	call	?Id@VuEntity@@QBE?AVVU_ID@@XZ		; VuEntity::Id
	mov	edx, DWORD PTR [eax]
	mov	eax, DWORD PTR [eax+4]
	mov	DWORD PTR _MyPackageID$[ebp], edx
	mov	DWORD PTR _MyPackageID$[ebp+4], eax

; 844  : 
; 845  : 				flt=(Flight)vuDatabase->Find(session->GetPlayerFlightID());

	lea	ecx, DWORD PTR $T3[ebp]
	push	ecx
	mov	ecx, DWORD PTR _session$[ebp]
	call	?GetPlayerFlightID@FalconSessionEntity@@QBE?AVVU_ID@@XZ ; FalconSessionEntity::GetPlayerFlightID
	mov	edx, DWORD PTR [eax+4]
	push	edx
	mov	eax, DWORD PTR [eax]
	push	eax
	mov	ecx, DWORD PTR ?vuDatabase@@3PAVVuDatabase@@A ; vuDatabase
	call	?Find@VuDatabase@@QBEPAVVuEntity@@VVU_ID@@@Z ; VuDatabase::Find
	mov	DWORD PTR _flt$[ebp], eax

; 846  : 				if(flt)

	cmp	DWORD PTR _flt$[ebp], 0
	je	SHORT $LN8@FilterInco

; 847  : 				{
; 848  : 					pkg=(Package)flt->GetUnitParent();

	mov	ecx, DWORD PTR _flt$[ebp]
	mov	edx, DWORD PTR [ecx]
	mov	ecx, DWORD PTR _flt$[ebp]
	mov	eax, DWORD PTR [edx+1008]
	call	eax
	mov	DWORD PTR _pkg$[ebp], eax

; 849  : 					if(pkg && pkg->Id() == MyPackageID)

	cmp	DWORD PTR _pkg$[ebp], 0
	je	SHORT $LN8@FilterInco
	lea	ecx, DWORD PTR _MyPackageID$[ebp]
	push	ecx
	lea	edx, DWORD PTR $T1[ebp]
	push	edx
	mov	ecx, DWORD PTR _pkg$[ebp]
	call	?Id@VuEntity@@QBE?AVVU_ID@@XZ		; VuEntity::Id
	mov	ecx, eax
	call	??8VU_ID@@QBE_NABV0@@Z			; VU_ID::operator==
	movzx	eax, al
	test	eax, eax
	je	SHORT $LN8@FilterInco

; 850  : 						retval=TRUE;

	mov	DWORD PTR _retval$[ebp], 1
$LN8@FilterInco:

; 851  : 				}
; 852  : 				break;

	jmp	$LN15@FilterInco
$LN7@FilterInco:

; 853  : 			case rcfProx: // 40nm range
; 854  : 				ent=FalconLocalSession->GetPlayerEntity();

	mov	ecx, OFFSET ?vuLocalSessionEntity@@3V?$VuBin@VVuSessionEntity@@@@A ; vuLocalSessionEntity
	call	?get@?$VuBin@VVuSessionEntity@@@@QBEPAVVuSessionEntity@@XZ ; VuBin<VuSessionEntity>::get
	mov	ecx, eax
	call	?GetPlayerEntity@FalconSessionEntity@@QBEPAVFalconEntity@@XZ ; FalconSessionEntity::GetPlayerEntity
	mov	DWORD PTR _ent$[ebp], eax

; 855  : 				if(!ent)

	cmp	DWORD PTR _ent$[ebp], 0
	jne	SHORT $LN6@FilterInco

; 856  : 					break;

	jmp	$LN15@FilterInco
$LN6@FilterInco:

; 857  : 
; 858  : 				myx=ent->XPos();

	mov	ecx, DWORD PTR _ent$[ebp]
	call	?XPos@VuEntity@@QBEMXZ			; VuEntity::XPos
	fstp	DWORD PTR _myx$[ebp]

; 859  : 				myy=ent->YPos();

	mov	ecx, DWORD PTR _ent$[ebp]
	call	?YPos@VuEntity@@QBEMXZ			; VuEntity::YPos
	fstp	DWORD PTR _myy$[ebp]

; 860  : 
; 861  : 				ent=session->GetPlayerEntity();

	mov	ecx, DWORD PTR _session$[ebp]
	call	?GetPlayerEntity@FalconSessionEntity@@QBEPAVFalconEntity@@XZ ; FalconSessionEntity::GetPlayerEntity
	mov	DWORD PTR _ent$[ebp], eax

; 862  : 				if(ent)

	cmp	DWORD PTR _ent$[ebp], 0
	je	$LN4@FilterInco

; 863  : 				{
; 864  : 					sx=ent->XPos();

	mov	ecx, DWORD PTR _ent$[ebp]
	call	?XPos@VuEntity@@QBEMXZ			; VuEntity::XPos
	fstp	DWORD PTR _sx$[ebp]

; 865  : 					sy=ent->YPos();

	mov	ecx, DWORD PTR _ent$[ebp]
	call	?YPos@VuEntity@@QBEMXZ			; VuEntity::YPos
	fstp	DWORD PTR _sy$[ebp]

; 866  : 
; 867  : 					dx=myx-sx;

	movss	xmm0, DWORD PTR _myx$[ebp]
	subss	xmm0, DWORD PTR _sx$[ebp]
	movss	DWORD PTR _dx$[ebp], xmm0

; 868  : 					dy=myy-sy;

	movss	xmm0, DWORD PTR _myy$[ebp]
	subss	xmm0, DWORD PTR _sy$[ebp]
	movss	DWORD PTR _dy$[ebp], xmm0

; 869  : 
; 870  : 					dist=static_cast<float>(sqrt(dx*dx+dy*dy) * FT_TO_NM);

	movss	xmm0, DWORD PTR _dx$[ebp]
	mulss	xmm0, DWORD PTR _dx$[ebp]
	movss	xmm1, DWORD PTR _dy$[ebp]
	mulss	xmm1, DWORD PTR _dy$[ebp]
	addss	xmm0, xmm1
	push	ecx
	movss	DWORD PTR [esp], xmm0
	call	?SqrtSSE@@YAMM@Z			; SqrtSSE
	add	esp, 4
	fstp	DWORD PTR tv540[ebp]
	movss	xmm0, DWORD PTR tv540[ebp]
	mulss	xmm0, DWORD PTR __real@392c987a
	movss	DWORD PTR _dist$[ebp], xmm0

; 871  : 
; 872  : 					if(dist <= 40.0f)

	movss	xmm0, DWORD PTR __real@42200000
	comiss	xmm0, DWORD PTR _dist$[ebp]
	jb	SHORT $LN4@FilterInco

; 873  : 						retval=TRUE;

	mov	DWORD PTR _retval$[ebp], 1
$LN4@FilterInco:

; 874  : 				}
; 875  : 				break;

	jmp	SHORT $LN15@FilterInco
$LN3@FilterInco:

; 876  : 			case rcfTeam:
; 877  : 				if(session->GetTeam() == FalconLocalSession->GetTeam())

	mov	ecx, DWORD PTR _session$[ebp]
	call	?GetTeam@FalconSessionEntity@@QAEEXZ	; FalconSessionEntity::GetTeam
	movzx	esi, al
	mov	ecx, OFFSET ?vuLocalSessionEntity@@3V?$VuBin@VVuSessionEntity@@@@A ; vuLocalSessionEntity
	call	?get@?$VuBin@VVuSessionEntity@@@@QBEPAVVuSessionEntity@@XZ ; VuBin<VuSessionEntity>::get
	mov	ecx, eax
	call	?GetTeam@FalconSessionEntity@@QAEEXZ	; FalconSessionEntity::GetTeam
	movzx	ecx, al
	cmp	esi, ecx
	jne	SHORT $LN2@FilterInco

; 878  : 					retval=TRUE;

	mov	DWORD PTR _retval$[ebp], 1
$LN2@FilterInco:

; 879  : 				break;

	jmp	SHORT $LN15@FilterInco
$LN1@FilterInco:

; 880  : 			case rcfAll:
; 881  : 				retval=TRUE;

	mov	DWORD PTR _retval$[ebp], 1
$LN15@FilterInco:

; 882  : 				break;
; 883  : 		}
; 884  : 	}
; 885  : 	return(retval);

	mov	eax, DWORD PTR _retval$[ebp]

; 886  : }

	pop	esi
	mov	esp, ebp
	pop	ebp
	ret	0
	npad	1
$LN38@FilterInco:
	DD	$LN30@FilterInco
	DD	$LN28@FilterInco
	DD	$LN23@FilterInco
	DD	$LN19@FilterInco
	DD	$LN17@FilterInco
$LN36@FilterInco:
	DB	0
	DB	0
	DB	0
	DB	0
	DB	0
	DB	1
	DB	1
	DB	1
	DB	1
	DB	1
	DB	1
	DB	2
	DB	3
	DB	4
	npad	2
$LN39@FilterInco:
	DD	$LN14@FilterInco
	DD	$LN12@FilterInco
	DD	$LN7@FilterInco
	DD	$LN3@FilterInco
	DD	$LN1@FilterInco
$LN37@FilterInco:
	DB	0
	DB	0
	DB	0
	DB	0
	DB	0
	DB	1
	DB	1
	DB	1
	DB	1
	DB	1
	DB	1
	DB	2
	DB	3
	DB	4
?FilterIncommingMessage@@YAHPAVFalconSessionEntity@@@Z ENDP ; FilterIncommingMessage
_TEXT	ENDS
; Function compile flags: /Odtp
; File c:\users\zhitao li\documents\visual studio 2012\projects\freefalcon\ui\src\comms\ui_comms.cpp
_TEXT	SEGMENT
$T2 = -44						; size = 4
tv152 = -40						; size = 4
$T3 = -36						; size = 4
$T4 = -32						; size = 4
_color$ = -28						; size = 4
_session$ = -24						; size = 4
_win$ = -20						; size = 4
_txt$ = -16						; size = 4
__$EHRec$ = -12						; size = 12
_from$ = 8						; size = 8
_message$ = 16						; size = 4
?AddMessageToChatWindow@@YAXVVU_ID@@PAD@Z PROC		; AddMessageToChatWindow

; 653  : {

	push	ebp
	mov	ebp, esp
	push	-1
	push	__ehhandler$?AddMessageToChatWindow@@YAXVVU_ID@@PAD@Z
	mov	eax, DWORD PTR fs:0
	push	eax
	sub	esp, 32					; 00000020H
	push	esi
	mov	eax, DWORD PTR ___security_cookie
	xor	eax, ebp
	push	eax
	lea	eax, DWORD PTR __$EHRec$[ebp]
	mov	DWORD PTR fs:0, eax

; 654  : 	C_Window            *win;
; 655  : 	C_Text              *txt;
; 656  : 	FalconSessionEntity *session;
; 657  : 	COLORREF             color;
; 658  : 	win=gMainHandler->FindWindow(CHAT_WIN);

	push	60014					; 0000ea6eH
	mov	ecx, DWORD PTR ?gMainHandler@@3PAVC_Handler@@A ; gMainHandler
	call	?FindWindowA@C_Handler@@QAEPAVC_Window@@J@Z ; C_Handler::FindWindowA
	mov	DWORD PTR _win$[ebp], eax

; 659  : 	ServerChatCommand (message);//me123

	mov	eax, DWORD PTR _message$[ebp]
	push	eax
	call	?ServerChatCommand@@YAXPAD@Z		; ServerChatCommand
	add	esp, 4

; 660  : 	if(win)

	cmp	DWORD PTR _win$[ebp], 0
	je	$LN11@AddMessage

; 661  : 	{
; 662  : 		if(from == FalconLocalSessionId)

	push	OFFSET ?vuLocalSession@@3VVU_ID@@A	; vuLocalSession
	lea	ecx, DWORD PTR _from$[ebp]
	call	??8VU_ID@@QBE_NABV0@@Z			; VU_ID::operator==
	movzx	ecx, al
	test	ecx, ecx
	je	SHORT $LN8@AddMessage

; 663  : 		{
; 664  : 			color=0xcccccc;

	mov	DWORD PTR _color$[ebp], 13421772	; 00ccccccH

; 665  : 			//session=(FalconSessionEntity*)vuLocalSessionEntity;
; 666  : 			session=FalconLocalSession;

	mov	ecx, OFFSET ?vuLocalSessionEntity@@3V?$VuBin@VVuSessionEntity@@@@A ; vuLocalSessionEntity
	call	?get@?$VuBin@VVuSessionEntity@@@@QBEPAVVuSessionEntity@@XZ ; VuBin<VuSessionEntity>::get
	mov	DWORD PTR _session$[ebp], eax
	jmp	SHORT $LN7@AddMessage
$LN8@AddMessage:

; 667  : 		}
; 668  : 		else if(from != FalconNullId)

	push	OFFSET ?FalconNullId@@3VVU_ID@@A	; FalconNullId
	lea	ecx, DWORD PTR _from$[ebp]
	call	??9VU_ID@@QBE_NABV0@@Z			; VU_ID::operator!=
	movzx	edx, al
	test	edx, edx
	je	SHORT $LN6@AddMessage

; 669  : 		{
; 670  : 			color=0x00ff00;

	mov	DWORD PTR _color$[ebp], 65280		; 0000ff00H

; 671  : 			session=(FalconSessionEntity*)vuDatabase->Find(from);

	mov	eax, DWORD PTR _from$[ebp+4]
	push	eax
	mov	ecx, DWORD PTR _from$[ebp]
	push	ecx
	mov	ecx, DWORD PTR ?vuDatabase@@3PAVVuDatabase@@A ; vuDatabase
	call	?Find@VuDatabase@@QBEPAVVuEntity@@VVU_ID@@@Z ; VuDatabase::Find
	mov	DWORD PTR _session$[ebp], eax

; 672  : 		}
; 673  : 		else

	jmp	SHORT $LN7@AddMessage
$LN6@AddMessage:

; 674  : 		{
; 675  : 			color=0x0000ff;

	mov	DWORD PTR _color$[ebp], 255		; 000000ffH

; 676  : 			session=NULL;

	mov	DWORD PTR _session$[ebp], 0
$LN7@AddMessage:

; 677  : 		}
; 678  : 
; 679  : 		if(session)

	cmp	DWORD PTR _session$[ebp], 0
	je	SHORT $LN4@AddMessage

; 680  : 		{
; 681  : 			_tcscpy(chatbuf,session->GetPlayerCallsign());

	mov	ecx, DWORD PTR _session$[ebp]
	call	?GetPlayerCallsign@FalconSessionEntity@@QAEPADXZ ; FalconSessionEntity::GetPlayerCallsign
	push	eax
	push	OFFSET _chatbuf
	call	_strcpy
	add	esp, 8

; 682  : 			_tcscat(chatbuf,": ");

	push	OFFSET ??_C@_02LMMGGCAJ@?3?5?$AA@
	push	OFFSET _chatbuf
	call	_strcat
	add	esp, 8
	jmp	SHORT $LN3@AddMessage
$LN4@AddMessage:

; 683  : 		}
; 684  : 		else if(from != FalconNullId)

	push	OFFSET ?FalconNullId@@3VVU_ID@@A	; FalconNullId
	lea	ecx, DWORD PTR _from$[ebp]
	call	??9VU_ID@@QBE_NABV0@@Z			; VU_ID::operator!=
	movzx	edx, al
	test	edx, edx
	je	SHORT $LN2@AddMessage

; 685  : 		{
; 686  : 			_tcscpy(chatbuf,"Unknown");

	push	OFFSET ??_C@_07NBCGADJA@Unknown?$AA@
	push	OFFSET _chatbuf
	call	_strcpy
	add	esp, 8

; 687  : 			_tcscat(chatbuf,": ");

	push	OFFSET ??_C@_02LMMGGCAJ@?3?5?$AA@
	push	OFFSET _chatbuf
	call	_strcat
	add	esp, 8

; 688  : 		}
; 689  : 		else

	jmp	SHORT $LN3@AddMessage
$LN2@AddMessage:

; 690  : 			chatbuf[0]=0;

	mov	eax, 1
	imul	eax, 0
	mov	DWORD PTR $T4[ebp], eax
	cmp	DWORD PTR $T4[ebp], 512			; 00000200H
	jae	SHORT $LN12@AddMessage
	jmp	SHORT $LN13@AddMessage
$LN12@AddMessage:
	call	___report_rangecheckfailure
$LN13@AddMessage:
	mov	ecx, DWORD PTR $T4[ebp]
	mov	BYTE PTR _chatbuf[ecx], 0
$LN3@AddMessage:

; 691  : 		_tcscat(chatbuf,message);

	mov	edx, DWORD PTR _message$[ebp]
	push	edx
	push	OFFSET _chatbuf
	call	_strcat
	add	esp, 8

; 692  : 
; 693  : 		txt=new C_Text;

	push	76					; 0000004cH
	call	??2@YAPAXI@Z				; operator new
	add	esp, 4
	mov	DWORD PTR $T3[ebp], eax
	mov	DWORD PTR __$EHRec$[ebp+8], 0
	cmp	DWORD PTR $T3[ebp], 0
	je	SHORT $LN14@AddMessage
	mov	ecx, DWORD PTR $T3[ebp]
	call	??0C_Text@@QAE@XZ			; C_Text::C_Text
	mov	DWORD PTR tv152[ebp], eax
	jmp	SHORT $LN15@AddMessage
$LN14@AddMessage:
	mov	DWORD PTR tv152[ebp], 0
$LN15@AddMessage:
	mov	eax, DWORD PTR tv152[ebp]
	mov	DWORD PTR $T2[ebp], eax
	mov	DWORD PTR __$EHRec$[ebp+8], -1
	mov	ecx, DWORD PTR $T2[ebp]
	mov	DWORD PTR _txt$[ebp], ecx

; 694  : 		txt->Setup(C_DONT_CARE,C_TYPE_NORMAL);

	push	25					; 00000019H
	push	-2					; fffffffeH
	mov	edx, DWORD PTR _txt$[ebp]
	mov	eax, DWORD PTR [edx]
	mov	ecx, DWORD PTR _txt$[ebp]
	mov	edx, DWORD PTR [eax+248]
	call	edx

; 695  : 		txt->SetFixedWidth(_tcsclen(chatbuf)+1);

	push	OFFSET _chatbuf
	call	__tcsclen
	add	esp, 4
	add	eax, 1
	push	eax
	mov	ecx, DWORD PTR _txt$[ebp]
	call	?SetFixedWidth@C_Text@@QAEXJ@Z		; C_Text::SetFixedWidth

; 696  : 		txt->SetFont(win->Font_);

	mov	eax, DWORD PTR _win$[ebp]
	mov	ecx, DWORD PTR [eax+108]
	push	ecx
	mov	edx, DWORD PTR _txt$[ebp]
	mov	eax, DWORD PTR [edx]
	mov	ecx, DWORD PTR _txt$[ebp]
	mov	edx, DWORD PTR [eax+68]
	call	edx

; 697  : 		txt->SetText(chatbuf);

	push	OFFSET _chatbuf
	mov	eax, DWORD PTR _txt$[ebp]
	mov	edx, DWORD PTR [eax]
	mov	ecx, DWORD PTR _txt$[ebp]
	mov	eax, DWORD PTR [edx+256]
	call	eax

; 698  : 		txt->SetXY(3,CurChatY);

	mov	ecx, DWORD PTR _CurChatY
	push	ecx
	push	3
	mov	edx, DWORD PTR _txt$[ebp]
	mov	eax, DWORD PTR [edx]
	mov	ecx, DWORD PTR _txt$[ebp]
	mov	edx, DWORD PTR [eax+32]
	call	edx

; 699  : 		txt->SetW(330);

	push	330					; 0000014aH
	mov	eax, DWORD PTR _txt$[ebp]
	mov	edx, DWORD PTR [eax]
	mov	ecx, DWORD PTR _txt$[ebp]
	mov	eax, DWORD PTR [edx+24]
	call	eax

; 700  : 		txt->SetFGColor(color);

	mov	ecx, DWORD PTR _color$[ebp]
	push	ecx
	mov	ecx, DWORD PTR _txt$[ebp]
	call	?SetFGColor@C_Text@@QAEXK@Z		; C_Text::SetFGColor

; 701  : 		txt->SetClient(2);

	push	2
	mov	ecx, DWORD PTR _txt$[ebp]
	call	?SetClient@C_Base@@QAEXF@Z		; C_Base::SetClient

; 702  : 		txt->SetUserNumber(_UI95_DELGROUP_SLOT_,_UI95_DELGROUP_ID_);

	push	5551212					; 0054b46cH
	push	7
	mov	ecx, DWORD PTR _txt$[ebp]
	call	?SetUserNumber@C_Base@@QAEXJJ@Z		; C_Base::SetUserNumber

; 703  : 		txt->SetFlagBitOn(C_BIT_LEFT|C_BIT_WORDWRAP);

	push	33554464				; 02000020H
	mov	edx, DWORD PTR _txt$[ebp]
	mov	eax, DWORD PTR [edx]
	mov	ecx, DWORD PTR _txt$[ebp]
	mov	edx, DWORD PTR [eax+8]
	call	edx

; 704  : 		win->AddControl(txt);

	mov	eax, DWORD PTR _txt$[ebp]
	push	eax
	mov	ecx, DWORD PTR _win$[ebp]
	call	?AddControl@C_Window@@QAEXPAVC_Base@@@Z	; C_Window::AddControl

; 705  : 		txt->Refresh();

	mov	ecx, DWORD PTR _txt$[ebp]
	mov	edx, DWORD PTR [ecx]
	mov	ecx, DWORD PTR _txt$[ebp]
	mov	eax, DWORD PTR [edx+160]
	call	eax

; 706  : 
; 707  : 		CurChatY+=txt->GetH();// - gFontList->GetHeight(win->Font_);

	mov	ecx, DWORD PTR _txt$[ebp]
	call	?GetH@C_Base@@QAEJXZ			; C_Base::GetH
	add	eax, DWORD PTR _CurChatY
	mov	DWORD PTR _CurChatY, eax

; 708  : 
; 709  : 		win->SetVirtualY(txt->GetY()-win->ClientArea_[txt->GetClient()].top,txt->GetClient());

	mov	ecx, DWORD PTR _txt$[ebp]
	call	?GetClient@C_Base@@QAEFXZ		; C_Base::GetClient
	movsx	ecx, ax
	push	ecx
	mov	ecx, DWORD PTR _txt$[ebp]
	call	?GetY@C_Base@@QAEJXZ			; C_Base::GetY
	mov	esi, eax
	mov	ecx, DWORD PTR _txt$[ebp]
	call	?GetClient@C_Base@@QAEFXZ		; C_Base::GetClient
	movsx	edx, ax
	shl	edx, 4
	mov	eax, DWORD PTR _win$[ebp]
	sub	esi, DWORD PTR [eax+edx+172]
	push	esi
	mov	ecx, DWORD PTR _win$[ebp]
	call	?SetVirtualY@C_Window@@QAEXJJ@Z		; C_Window::SetVirtualY

; 710  : 		win->AdjustScrollbar(txt->GetClient()); 

	mov	ecx, DWORD PTR _txt$[ebp]
	call	?GetClient@C_Base@@QAEFXZ		; C_Base::GetClient
	movsx	ecx, ax
	push	ecx
	mov	ecx, DWORD PTR _win$[ebp]
	call	?AdjustScrollbar@C_Window@@QAEXJ@Z	; C_Window::AdjustScrollbar

; 711  : 		win->RefreshClient(txt->GetClient());

	mov	ecx, DWORD PTR _txt$[ebp]
	call	?GetClient@C_Base@@QAEFXZ		; C_Base::GetClient
	movsx	edx, ax
	push	edx
	mov	ecx, DWORD PTR _win$[ebp]
	call	?RefreshClient@C_Window@@QAEXJ@Z	; C_Window::RefreshClient

; 712  : 
; 713  : 		win->ScanClientArea(2);

	push	2
	mov	ecx, DWORD PTR _win$[ebp]
	call	?ScanClientArea@C_Window@@QAEXJ@Z	; C_Window::ScanClientArea
$LN11@AddMessage:

; 714  : //		gSoundMgr->PlaySound(SND_HOMER);
; 715  : 	}
; 716  : }

	mov	ecx, DWORD PTR __$EHRec$[ebp]
	mov	DWORD PTR fs:0, ecx
	pop	ecx
	pop	esi
	mov	esp, ebp
	pop	ebp
	ret	0
_TEXT	ENDS
text$x	SEGMENT
__unwindfunclet$?AddMessageToChatWindow@@YAXVVU_ID@@PAD@Z$0:
	mov	eax, DWORD PTR $T3[ebp]
	push	eax
	call	??3@YAXPAX@Z				; operator delete
	pop	ecx
	ret	0
__ehhandler$?AddMessageToChatWindow@@YAXVVU_ID@@PAD@Z:
	mov	edx, DWORD PTR [esp+8]
	lea	eax, DWORD PTR [edx+12]
	mov	ecx, DWORD PTR [edx-40]
	xor	ecx, eax
	call	@__security_check_cookie@4
	mov	eax, OFFSET __ehfuncinfo$?AddMessageToChatWindow@@YAXVVU_ID@@PAD@Z
	jmp	___CxxFrameHandler3
text$x	ENDS
?AddMessageToChatWindow@@YAXVVU_ID@@PAD@Z ENDP		; AddMessageToChatWindow
; Function compile flags: /Odtp
; File c:\users\zhitao li\documents\visual studio 2012\projects\freefalcon\ui\src\comms\ui_comms.cpp
_TEXT	SEGMENT
_d$2 = -736						; size = 4
tv770 = -732						; size = 4
tv777 = -728						; size = 4
tv763 = -724						; size = 4
tv791 = -720						; size = 4
tv956 = -716						; size = 4
_newlabels$3 = -712					; size = 4
$T4 = -708						; size = 4
$T5 = -704						; size = 4
tv784 = -700						; size = 4
$T6 = -696						; size = 4
_newfuel$7 = -692					; size = 4
tv954 = -688						; size = 4
$T8 = -684						; size = 4
tv321 = -680						; size = 4
_Pan$9 = -676						; size = 4
$T10 = -672						; size = 4
_argc$11 = -668						; size = 4
$T12 = -664						; size = 4
tv378 = -660						; size = 4
$T13 = -656						; size = 4
tv271 = -652						; size = 4
_Tilt$14 = -648						; size = 4
_argb$ = -644						; size = 4
_arga$ = -640						; size = 4
_buffer$15 = -636					; size = 260
_buffer$16 = -376					; size = 260
_message$ = -116					; size = 100
__$ArrayPad$ = -16					; size = 4
__$EHRec$ = -12						; size = 12
_msg$ = 8						; size = 4
?ServerChatCommand@@YAXPAD@Z PROC			; ServerChatCommand

; 389  : {

	push	ebp
	mov	ebp, esp
	push	-1
	push	__ehhandler$?ServerChatCommand@@YAXPAD@Z
	mov	eax, DWORD PTR fs:0
	push	eax
	sub	esp, 724				; 000002d4H
	mov	eax, DWORD PTR ___security_cookie
	xor	eax, ebp
	mov	DWORD PTR __$ArrayPad$[ebp], eax
	push	eax
	lea	eax, DWORD PTR __$EHRec$[ebp]
	mov	DWORD PTR fs:0, eax

; 390  : 	//if (!g_bServer) return;
; 391  : 	//me123 the server understands a few commands
; 392  : 
; 393  : 	// find the command
; 394  : 	char* arga;
; 395  : 	char* argb;
; 396  : 	_TCHAR message[100] = "";

	mov	al, BYTE PTR ??_C@_00CNPNBAHC@?$AA@
	mov	BYTE PTR _message$[ebp], al
	push	99					; 00000063H
	push	0
	lea	ecx, DWORD PTR _message$[ebp+1]
	push	ecx
	call	_memset
	add	esp, 12					; 0000000cH

; 397  : 	strncpy (message, msg, sizeof(message)-1); // JPO - lets me careful out there ;-)

	push	99					; 00000063H
	mov	edx, DWORD PTR _msg$[ebp]
	push	edx
	lea	eax, DWORD PTR _message$[ebp]
	push	eax
	call	_strncpy
	add	esp, 12					; 0000000cH

; 398  : 	message[99] = '\0';

	mov	ecx, 1
	imul	ecx, 99					; 00000063H
	mov	DWORD PTR $T10[ebp], ecx
	cmp	DWORD PTR $T10[ebp], 100		; 00000064H
	jae	SHORT $LN84@ServerChat
	jmp	SHORT $LN85@ServerChat
$LN84@ServerChat:
	call	___report_rangecheckfailure
$LN85@ServerChat:
	mov	edx, DWORD PTR $T10[ebp]
	mov	BYTE PTR _message$[ebp+edx], 0

; 399  : 	arga = strtok (message, " ");

	push	OFFSET ??_C@_01CLKCMJKC@?5?$AA@
	lea	eax, DWORD PTR _message$[ebp]
	push	eax
	call	_strtok
	add	esp, 8
	mov	DWORD PTR _arga$[ebp], eax

; 400  : 	argb = strtok (NULL, " ");

	push	OFFSET ??_C@_01CLKCMJKC@?5?$AA@
	push	0
	call	_strtok
	add	esp, 8
	mov	DWORD PTR _argb$[ebp], eax

; 401  : 
; 402  : 
; 403  : if (g_nShowDebugLabels)

	cmp	DWORD PTR ?g_nShowDebugLabels@@3HA, 0	; g_nShowDebugLabels
	je	$LN1@ServerChat

; 404  : {
; 405  : 	if (arga && argb && !stricmp (arga, ".trail")) {

	cmp	DWORD PTR _arga$[ebp], 0
	je	SHORT $LN78@ServerChat
	cmp	DWORD PTR _argb$[ebp], 0
	je	SHORT $LN78@ServerChat
	push	OFFSET ??_C@_06ODGENKFK@?4trail?$AA@
	mov	ecx, DWORD PTR _arga$[ebp]
	push	ecx
	call	_stricmp
	add	esp, 8
	test	eax, eax
	jne	SHORT $LN78@ServerChat

; 406  : 		if(atoi(argb)) {

	mov	edx, DWORD PTR _argb$[ebp]
	push	edx
	call	_atoi
	add	esp, 4
	test	eax, eax
	je	SHORT $LN79@ServerChat

; 407  : 			g_bNoTrails=0;

	mov	BYTE PTR ?g_bNoTrails@@3_NA, 0		; g_bNoTrails

; 408  : 		}
; 409  : 		else {

	jmp	SHORT $LN78@ServerChat
$LN79@ServerChat:

; 410  : 			g_bNoTrails=1;

	mov	BYTE PTR ?g_bNoTrails@@3_NA, 1		; g_bNoTrails
$LN78@ServerChat:

; 411  : 		}
; 412  : 		//F4SoundFXSetDist(SFX_THUNDER,0,0,1);
; 413  : 	}
; 414  : 
; 415  : 	if (arga && !stricmp (arga, ".trailreload")) {

	cmp	DWORD PTR _arga$[ebp], 0
	je	SHORT $LN77@ServerChat
	push	OFFSET ??_C@_0N@CFHNGPIC@?4trailreload?$AA@
	mov	eax, DWORD PTR _arga$[ebp]
	push	eax
	call	_stricmp
	add	esp, 8
	test	eax, eax
	jne	SHORT $LN77@ServerChat

; 416  : 		LoadTrails();

	call	?LoadTrails@@YAXXZ			; LoadTrails
$LN77@ServerChat:

; 417  : 	}
; 418  : 
; 419  : 	if (arga && !stricmp (arga, ".psreload")) {

	cmp	DWORD PTR _arga$[ebp], 0
	je	SHORT $LN76@ServerChat
	push	OFFSET ??_C@_09MLFANMAK@?4psreload?$AA@
	mov	ecx, DWORD PTR _arga$[ebp]
	push	ecx
	call	_stricmp
	add	esp, 8
	test	eax, eax
	jne	SHORT $LN76@ServerChat

; 420  : 		DrawableParticleSys::LoadParameters();

	call	?LoadParameters@DrawableParticleSys@@SA_NXZ ; DrawableParticleSys::LoadParameters
$LN76@ServerChat:

; 421  : 	}
; 422  : 	
; 423  : 	if (arga && !stricmp (arga, ".sndreload")) {

	cmp	DWORD PTR _arga$[ebp], 0
	je	SHORT $LN75@ServerChat
	push	OFFSET ??_C@_0L@MJCBANGI@?4sndreload?$AA@
	mov	edx, DWORD PTR _arga$[ebp]
	push	edx
	call	_stricmp
	add	esp, 8
	test	eax, eax
	jne	SHORT $LN75@ServerChat

; 424  : 		F4ReloadSFX();

	call	_F4ReloadSFX
$LN75@ServerChat:

; 425  : 		//F4SoundFXSetDist(SFX_THUNDER,0,0,1);
; 426  : 	}
; 427  : 
; 428  : 	if (arga && argb && !stricmp (arga, ".snd")) {

	cmp	DWORD PTR _arga$[ebp], 0
	je	SHORT $LN72@ServerChat
	cmp	DWORD PTR _argb$[ebp], 0
	je	SHORT $LN72@ServerChat
	push	OFFSET ??_C@_04HNHONOHM@?4snd?$AA@
	mov	eax, DWORD PTR _arga$[ebp]
	push	eax
	call	_stricmp
	add	esp, 8
	test	eax, eax
	jne	SHORT $LN72@ServerChat

; 429  : 		if(atoi(argb)) {

	mov	ecx, DWORD PTR _argb$[ebp]
	push	ecx
	call	_atoi
	add	esp, 4
	test	eax, eax
	je	SHORT $LN73@ServerChat

; 430  : 			g_bNoSound = 0;

	mov	BYTE PTR ?g_bNoSound@@3_NA, 0		; g_bNoSound

; 431  : 		}
; 432  : 		else {

	jmp	SHORT $LN72@ServerChat
$LN73@ServerChat:

; 433  : 			g_bNoSound = 1;

	mov	BYTE PTR ?g_bNoSound@@3_NA, 1		; g_bNoSound
$LN72@ServerChat:

; 434  : 		}
; 435  : 		//F4SoundFXSetDist(SFX_THUNDER,0,0,1);
; 436  : 	}
; 437  : 
; 438  : 	if (arga && argb && !stricmp (arga, ".sndms")) {

	cmp	DWORD PTR _arga$[ebp], 0
	je	SHORT $LN71@ServerChat
	cmp	DWORD PTR _argb$[ebp], 0
	je	SHORT $LN71@ServerChat
	push	OFFSET ??_C@_06KGPMMGBB@?4sndms?$AA@
	mov	edx, DWORD PTR _arga$[ebp]
	push	edx
	call	_stricmp
	add	esp, 8
	test	eax, eax
	jne	SHORT $LN71@ServerChat

; 439  : 		g_nSoundUpdateMS = atoi(argb); 

	mov	eax, DWORD PTR _argb$[ebp]
	push	eax
	call	_atoi
	add	esp, 4
	mov	DWORD PTR ?g_nSoundUpdateMS@@3HA, eax	; g_nSoundUpdateMS
$LN71@ServerChat:

; 440  : 		//F4SoundFXSetDist(SFX_THUNDER,0,0,1);
; 441  : 	}
; 442  : 
; 443  : 	if (arga && argb && !stricmp (arga, ".snddop")) {

	cmp	DWORD PTR _arga$[ebp], 0
	je	SHORT $LN70@ServerChat
	cmp	DWORD PTR _argb$[ebp], 0
	je	SHORT $LN70@ServerChat
	push	OFFSET ??_C@_07CNBNLAFM@?4snddop?$AA@
	mov	ecx, DWORD PTR _arga$[ebp]
	push	ecx
	call	_stricmp
	add	esp, 8
	test	eax, eax
	jne	SHORT $LN70@ServerChat

; 444  : 		g_fSoundDopplerFactor = (float)atof(argb); 

	mov	edx, DWORD PTR _argb$[ebp]
	push	edx
	call	_atof
	add	esp, 4
	fstp	DWORD PTR ?g_fSoundDopplerFactor@@3MA	; g_fSoundDopplerFactor
$LN70@ServerChat:

; 445  : 		//F4SoundFXSetDist(SFX_THUNDER,0,0,1);
; 446  : 	}
; 447  : 
; 448  :     if (arga && argb && !stricmp (arga, ".sndro")) {

	cmp	DWORD PTR _arga$[ebp], 0
	je	SHORT $LN69@ServerChat
	cmp	DWORD PTR _argb$[ebp], 0
	je	SHORT $LN69@ServerChat
	push	OFFSET ??_C@_06FHPBHPAB@?4sndro?$AA@
	mov	eax, DWORD PTR _arga$[ebp]
	push	eax
	call	_stricmp
	add	esp, 8
	test	eax, eax
	jne	SHORT $LN69@ServerChat

; 449  : 		g_fSoundRolloffFactor = (float)atof(argb); 

	mov	ecx, DWORD PTR _argb$[ebp]
	push	ecx
	call	_atof
	add	esp, 4
	fstp	DWORD PTR ?g_fSoundRolloffFactor@@3MA	; g_fSoundRolloffFactor
$LN69@ServerChat:

; 450  : 		//F4SoundFXSetDist(SFX_THUNDER,0,0,1);
; 451  : 	}
; 452  : 
; 453  : 	// COBRA - RED - SFX Activating cheat '.sfx {SfxNr}'
; 454  : 	if ((arga && argb && !stricmp (arga, ".sfx"))||(arga && !stricmp (arga, "."))) 

	cmp	DWORD PTR _arga$[ebp], 0
	je	SHORT $LN66@ServerChat
	cmp	DWORD PTR _argb$[ebp], 0
	je	SHORT $LN66@ServerChat
	push	OFFSET ??_C@_04JFBKNCJJ@?4sfx?$AA@
	mov	edx, DWORD PTR _arga$[ebp]
	push	edx
	call	_stricmp
	add	esp, 8
	test	eax, eax
	je	SHORT $LN67@ServerChat
$LN66@ServerChat:
	cmp	DWORD PTR _arga$[ebp], 0
	je	$LN68@ServerChat
	push	OFFSET ??_C@_01LFCBOECM@?4?$AA@
	mov	eax, DWORD PTR _arga$[ebp]
	push	eax
	call	_stricmp
	add	esp, 8
	test	eax, eax
	jne	$LN68@ServerChat
$LN67@ServerChat:

; 455  : 	{
; 456  : 		static	int	sfx=0;
; 457  : 		static	float Dist=300;
; 458  : 		static Tpoint vc=OTWDriver.GetEyePosition();;

	mov	ecx, DWORD PTR ?$S1@?CK@??ServerChatCommand@@YAXPAD@Z@4IA
	and	ecx, 1
	jne	SHORT $LN65@ServerChat
	mov	edx, DWORD PTR ?$S1@?CK@??ServerChatCommand@@YAXPAD@Z@4IA
	or	edx, 1
	mov	DWORD PTR ?$S1@?CK@??ServerChatCommand@@YAXPAD@Z@4IA, edx
	mov	DWORD PTR __$EHRec$[ebp+8], 0
	push	OFFSET ?vc@?CK@??ServerChatCommand@@YAXPAD@Z@4UTpoint@@A
	mov	ecx, OFFSET ?OTWDriver@@3VOTWDriverClass@@A ; OTWDriver
	call	?GetEyePosition@OTWDriverClass@@QAE?AUTpoint@@XZ ; OTWDriverClass::GetEyePosition
	mov	DWORD PTR __$EHRec$[ebp+8], -1
$LN65@ServerChat:

; 459  : 		char*	argc;	
; 460  : 		argc = strtok (NULL, " ");

	push	OFFSET ??_C@_01CLKCMJKC@?5?$AA@
	push	0
	call	_strtok
	add	esp, 8
	mov	DWORD PTR _argc$11[ebp], eax

; 461  : 		
; 462  : 		float	Pan,Tilt,d=300;

	movss	xmm0, DWORD PTR __real@43960000
	movss	DWORD PTR _d$2[ebp], xmm0

; 463  : 
; 464  : 		if(!stricmp (arga, ".")) goto doit;

	push	OFFSET ??_C@_01LFCBOECM@?4?$AA@
	mov	eax, DWORD PTR _arga$[ebp]
	push	eax
	call	_stricmp
	add	esp, 8
	test	eax, eax
	jne	SHORT $LN64@ServerChat
	jmp	$doit$97
$LN64@ServerChat:

; 465  : 
; 466  : 		if(argc) Dist=(float)atof(argc);

	cmp	DWORD PTR _argc$11[ebp], 0
	je	SHORT $LN62@ServerChat
	mov	ecx, DWORD PTR _argc$11[ebp]
	push	ecx
	call	_atof
	add	esp, 4
	fstp	DWORD PTR ?Dist@?CK@??ServerChatCommand@@YAXPAD@Z@4MA
	jmp	SHORT $LN61@ServerChat
$LN62@ServerChat:

; 467  : 		else Dist=300.0f;

	movss	xmm0, DWORD PTR __real@43960000
	movss	DWORD PTR ?Dist@?CK@??ServerChatCommand@@YAXPAD@Z@4MA, xmm0
$LN61@ServerChat:

; 468  : 		
; 469  : 		//vc.x=currentPos_.x;
; 470  : 		sfx=atoi(argb);

	mov	edx, DWORD PTR _argb$[ebp]
	push	edx
	call	_atoi
	add	esp, 4
	mov	DWORD PTR ?sfx@?CK@??ServerChatCommand@@YAXPAD@Z@4HA, eax

; 471  : 		//vc=OTWDriver.GetEyePosition();
; 472  : 		OTWDriver.GetCameraPanTilt(&Pan, &Tilt);

	lea	eax, DWORD PTR _Tilt$14[ebp]
	push	eax
	lea	ecx, DWORD PTR _Pan$9[ebp]
	push	ecx
	mov	ecx, OFFSET ?OTWDriver@@3VOTWDriverClass@@A ; OTWDriver
	call	?GetCameraPanTilt@OTWDriverClass@@QAEXPAM0@Z ; OTWDriverClass::GetCameraPanTilt

; 473  : 		vc.x=ObserverPosition.x-Dist*cos(Pan)*cos(Tilt);

	push	ecx
	movss	xmm0, DWORD PTR _Pan$9[ebp]
	movss	DWORD PTR [esp], xmm0
	call	?cos@@YAMM@Z				; cos
	add	esp, 4
	fstp	DWORD PTR tv763[ebp]
	movss	xmm0, DWORD PTR tv763[ebp]
	mulss	xmm0, DWORD PTR ?Dist@?CK@??ServerChatCommand@@YAXPAD@Z@4MA
	push	ecx
	movss	xmm1, DWORD PTR _Tilt$14[ebp]
	movss	DWORD PTR [esp], xmm1
	movss	DWORD PTR tv954[ebp], xmm0
	call	?cos@@YAMM@Z				; cos
	add	esp, 4
	fstp	DWORD PTR tv770[ebp]
	movss	xmm0, DWORD PTR tv954[ebp]
	mulss	xmm0, DWORD PTR tv770[ebp]
	movss	xmm1, DWORD PTR ?ObserverPosition@@3UTpoint@@A
	subss	xmm1, xmm0
	movss	DWORD PTR ?vc@?CK@??ServerChatCommand@@YAXPAD@Z@4UTpoint@@A, xmm1

; 474  : 		vc.y=ObserverPosition.y-Dist*sin(Pan)*cos(Tilt);

	push	ecx
	movss	xmm0, DWORD PTR _Pan$9[ebp]
	movss	DWORD PTR [esp], xmm0
	call	?sin@@YAMM@Z				; sin
	add	esp, 4
	fstp	DWORD PTR tv777[ebp]
	movss	xmm0, DWORD PTR tv777[ebp]
	mulss	xmm0, DWORD PTR ?Dist@?CK@??ServerChatCommand@@YAXPAD@Z@4MA
	push	ecx
	movss	xmm1, DWORD PTR _Tilt$14[ebp]
	movss	DWORD PTR [esp], xmm1
	movss	DWORD PTR tv956[ebp], xmm0
	call	?cos@@YAMM@Z				; cos
	add	esp, 4
	fstp	DWORD PTR tv784[ebp]
	movss	xmm0, DWORD PTR tv956[ebp]
	mulss	xmm0, DWORD PTR tv784[ebp]
	movss	xmm1, DWORD PTR ?ObserverPosition@@3UTpoint@@A+4
	subss	xmm1, xmm0
	movss	DWORD PTR ?vc@?CK@??ServerChatCommand@@YAXPAD@Z@4UTpoint@@A+4, xmm1

; 475  : 		vc.z=ObserverPosition.z+Dist*sin(Tilt);

	push	ecx
	movss	xmm0, DWORD PTR _Tilt$14[ebp]
	movss	DWORD PTR [esp], xmm0
	call	?sin@@YAMM@Z				; sin
	add	esp, 4
	fstp	DWORD PTR tv791[ebp]
	movss	xmm0, DWORD PTR tv791[ebp]
	mulss	xmm0, DWORD PTR ?Dist@?CK@??ServerChatCommand@@YAXPAD@Z@4MA
	addss	xmm0, DWORD PTR ?ObserverPosition@@3UTpoint@@A+8
	movss	DWORD PTR ?vc@?CK@??ServerChatCommand@@YAXPAD@Z@4UTpoint@@A+8, xmm0
$doit$97:

; 476  : 
; 477  : 	doit:
; 478  : 
; 479  : 		OTWDriver.AddSfxRequest(
; 480  : 				new SfxClass(sfx,				// type
; 481  : 				&vc,							// world pos
; 482  : 				60.0f,							// time to live
; 483  : 				1.0f));

	push	192					; 000000c0H
	call	??2@YAPAXI@Z				; operator new
	add	esp, 4
	mov	DWORD PTR $T8[ebp], eax
	mov	DWORD PTR __$EHRec$[ebp+8], 1
	cmp	DWORD PTR $T8[ebp], 0
	je	SHORT $LN86@ServerChat
	push	ecx
	movss	xmm0, DWORD PTR __real@3f800000
	movss	DWORD PTR [esp], xmm0
	push	ecx
	movss	xmm0, DWORD PTR __real@42700000
	movss	DWORD PTR [esp], xmm0
	push	OFFSET ?vc@?CK@??ServerChatCommand@@YAXPAD@Z@4UTpoint@@A
	mov	edx, DWORD PTR ?sfx@?CK@??ServerChatCommand@@YAXPAD@Z@4HA
	push	edx
	mov	ecx, DWORD PTR $T8[ebp]
	call	??0SfxClass@@QAE@HPAUTpoint@@MM@Z	; SfxClass::SfxClass
	mov	DWORD PTR tv271[ebp], eax
	jmp	SHORT $LN87@ServerChat
$LN86@ServerChat:
	mov	DWORD PTR tv271[ebp], 0
$LN87@ServerChat:
	mov	eax, DWORD PTR tv271[ebp]
	mov	DWORD PTR $T4[ebp], eax
	mov	DWORD PTR __$EHRec$[ebp+8], -1
	mov	ecx, DWORD PTR $T4[ebp]
	push	ecx
	mov	ecx, OFFSET ?OTWDriver@@3VOTWDriverClass@@A ; OTWDriver
	call	?AddSfxRequest@OTWDriverClass@@QAEXPAVSfxClass@@@Z ; OTWDriverClass::AddSfxRequest
$LN68@ServerChat:

; 484  : 	}
; 485  : 		
; 486  : 
; 487  : 	// 2002-02-21 MN Allow to change the set of debug labels via the chat line
; 488  : 	if (arga && argb && !stricmp (arga, ".label") && g_bActivateDebugStuff) {

	cmp	DWORD PTR _arga$[ebp], 0
	je	SHORT $LN60@ServerChat
	cmp	DWORD PTR _argb$[ebp], 0
	je	SHORT $LN60@ServerChat
	push	OFFSET ??_C@_06DAAOOBHE@?4label?$AA@
	mov	edx, DWORD PTR _arga$[ebp]
	push	edx
	call	_stricmp
	add	esp, 8
	test	eax, eax
	jne	SHORT $LN60@ServerChat
	movzx	eax, BYTE PTR ?g_bActivateDebugStuff@@3_NA ; g_bActivateDebugStuff
	test	eax, eax
	je	SHORT $LN60@ServerChat

; 489  : 		int newlabels = strtol(argb, NULL, 0); // atoi(argb); 2002-04-01 MODIFIED BY S.G. strtol will parse the inpuy string looking for standard base like 0x

	push	0
	push	0
	mov	ecx, DWORD PTR _argb$[ebp]
	push	ecx
	call	_strtol
	add	esp, 12					; 0000000cH
	mov	DWORD PTR _newlabels$3[ebp], eax

; 490  : 		g_nShowDebugLabels = newlabels;

	mov	edx, DWORD PTR _newlabels$3[ebp]
	mov	DWORD PTR ?g_nShowDebugLabels@@3HA, edx	; g_nShowDebugLabels
$LN60@ServerChat:

; 491  : 	}
; 492  : 
; 493  : 	// Changes fuel level of players aircraft - for refuel testings
; 494  : 	if (arga && argb && !stricmp (arga, ".fuel") && g_bActivateDebugStuff) {

	cmp	DWORD PTR _arga$[ebp], 0
	je	SHORT $LN59@ServerChat
	cmp	DWORD PTR _argb$[ebp], 0
	je	SHORT $LN59@ServerChat
	push	OFFSET ??_C@_05LOFMMFDJ@?4fuel?$AA@
	mov	eax, DWORD PTR _arga$[ebp]
	push	eax
	call	_stricmp
	add	esp, 8
	test	eax, eax
	jne	SHORT $LN59@ServerChat
	movzx	ecx, BYTE PTR ?g_bActivateDebugStuff@@3_NA ; g_bActivateDebugStuff
	test	ecx, ecx
	je	SHORT $LN59@ServerChat

; 495  : 		unsigned long newfuel = atol(argb);

	mov	edx, DWORD PTR _argb$[ebp]
	push	edx
	call	_atol
	add	esp, 4
	mov	DWORD PTR _newfuel$7[ebp], eax

; 496  : 		gFuelState = newfuel;

	mov	eax, DWORD PTR _newfuel$7[ebp]
	mov	DWORD PTR ?gFuelState@@3KA, eax		; gFuelState
$LN59@ServerChat:

; 497  : 	}
; 498  : 
; 499  : 	if (g_bServer) {

	movzx	ecx, BYTE PTR ?g_bServer@@3_NA		; g_bServer
	test	ecx, ecx
	je	$LN44@ServerChat

; 500  : 		if (arga && argb && !stricmp (arga, ".loadte")) {

	cmp	DWORD PTR _arga$[ebp], 0
	je	$LN57@ServerChat
	cmp	DWORD PTR _argb$[ebp], 0
	je	$LN57@ServerChat
	push	OFFSET ??_C@_07JIPBKKCL@?4loadte?$AA@
	mov	edx, DWORD PTR _arga$[ebp]
	push	edx
	call	_stricmp
	add	esp, 8
	test	eax, eax
	jne	$LN57@ServerChat

; 501  : 			DisableScenarioInfo();

	call	?DisableScenarioInfo@@YAXXZ		; DisableScenarioInfo

; 502  : 			LeaveCurrentGame();

	call	?LeaveCurrentGame@@YAXXZ		; LeaveCurrentGame

; 503  : 			RuleMode = rTACTICAL_ENGAGEMENT;

	mov	DWORD PTR ?RuleMode@@3W4RulesModes@@A, 2 ; RuleMode

; 504  : 			TheCampaign.Flags |= CAMP_TACTICAL;

	mov	eax, DWORD PTR ?TheCampaign@@3VCampaignClass@@A+64
	or	eax, 1024				; 00000400H
	mov	DWORD PTR ?TheCampaign@@3VCampaignClass@@A+64, eax

; 505  : 			if(!TACSelLoaded)

	cmp	DWORD PTR ?TACSelLoaded@@3HA, 0		; TACSelLoaded
	jne	SHORT $LN56@ServerChat

; 506  : 				LoadTacEngSelectWindows();

	call	?LoadTacEngSelectWindows@@YAXXZ		; LoadTacEngSelectWindows
$LN56@ServerChat:

; 507  : 			_TCHAR buffer[MAX_PATH];
; 508  : 			strcpy (buffer, FalconCampaignSaveDirectory);

	push	OFFSET ?FalconCampaignSaveDirectory@@3PADA ; FalconCampaignSaveDirectory
	lea	ecx, DWORD PTR _buffer$16[ebp]
	push	ecx
	call	_strcpy
	add	esp, 8

; 509  : 			strcat (buffer, "\\");

	push	OFFSET ??_C@_01KICIPPFI@?2?$AA@
	lea	edx, DWORD PTR _buffer$16[ebp]
	push	edx
	call	_strcat
	add	esp, 8

; 510  : 			strcat (buffer, argb);

	mov	eax, DWORD PTR _argb$[ebp]
	push	eax
	lea	ecx, DWORD PTR _buffer$16[ebp]
	push	ecx
	call	_strcat
	add	esp, 8

; 511  : 			strcat (buffer, ".tac");

	push	OFFSET ??_C@_04KELEDHDP@?4tac?$AA@
	lea	edx, DWORD PTR _buffer$16[ebp]
	push	edx
	call	_strcat
	add	esp, 8

; 512  : 			current_tactical_mission = new tactical_mission (buffer);

	push	208					; 000000d0H
	call	??2@YAPAXI@Z				; operator new
	add	esp, 4
	mov	DWORD PTR $T12[ebp], eax
	mov	DWORD PTR __$EHRec$[ebp+8], 2
	cmp	DWORD PTR $T12[ebp], 0
	je	SHORT $LN88@ServerChat
	lea	eax, DWORD PTR _buffer$16[ebp]
	push	eax
	mov	ecx, DWORD PTR $T12[ebp]
	call	??0tactical_mission@@QAE@PAD@Z		; tactical_mission::tactical_mission
	mov	DWORD PTR tv321[ebp], eax
	jmp	SHORT $LN89@ServerChat
$LN88@ServerChat:
	mov	DWORD PTR tv321[ebp], 0
$LN89@ServerChat:
	mov	ecx, DWORD PTR tv321[ebp]
	mov	DWORD PTR $T6[ebp], ecx
	mov	DWORD PTR __$EHRec$[ebp+8], -1
	mov	edx, DWORD PTR $T6[ebp]
	mov	DWORD PTR ?current_tactical_mission@@3PAVtactical_mission@@A, edx ; current_tactical_mission

; 513  : 			LoadTacticalWindows();

	call	?LoadTacticalWindows@@YAXXZ		; LoadTacticalWindows

; 514  : 			gMainHandler->EnterCritical();

	mov	ecx, DWORD PTR ?gMainHandler@@3PAVC_Handler@@A ; gMainHandler
	call	?EnterCritical@C_Handler@@QAEXXZ	; C_Handler::EnterCritical

; 515  : 			FalconLocalSession->SetCountry(2);

	push	2
	mov	ecx, OFFSET ?vuLocalSessionEntity@@3V?$VuBin@VVuSessionEntity@@@@A ; vuLocalSessionEntity
	call	?get@?$VuBin@VVuSessionEntity@@@@QBEPAVVuSessionEntity@@XZ ; VuBin<VuSessionEntity>::get
	mov	ecx, eax
	call	?SetCountry@FalconSessionEntity@@QAEXE@Z ; FalconSessionEntity::SetCountry

; 516  : 			tactical_accept_mission ();

	call	?tactical_accept_mission@@YAXXZ		; tactical_accept_mission

; 517  : 			gMainHandler->LeaveCritical();

	mov	ecx, DWORD PTR ?gMainHandler@@3PAVC_Handler@@A ; gMainHandler
	call	?LeaveCritical@C_Handler@@QAEXXZ	; C_Handler::LeaveCritical

; 518  : 			SetTimeCompression (0);

	push	0
	call	?SetTimeCompression@@YAXH@Z		; SetTimeCompression
	add	esp, 4

; 519  : 			MainLastGroup = 3000;

	mov	DWORD PTR ?MainLastGroup@@3HA, 3000	; MainLastGroup, 00000bb8H
$LN57@ServerChat:

; 520  : 		}
; 521  : 		if (arga && argb && !stricmp (arga, ".acmi")) {

	cmp	DWORD PTR _arga$[ebp], 0
	je	$LN48@ServerChat
	cmp	DWORD PTR _argb$[ebp], 0
	je	$LN48@ServerChat
	push	OFFSET ??_C@_05KGKLEJH@?4acmi?$AA@
	mov	eax, DWORD PTR _arga$[ebp]
	push	eax
	call	_stricmp
	add	esp, 8
	test	eax, eax
	jne	$LN48@ServerChat

; 522  : 			if (!stricmp (argb, "on")) {

	push	OFFSET ??_C@_02LIELOMNJ@on?$AA@
	mov	ecx, DWORD PTR _argb$[ebp]
	push	ecx
	call	_stricmp
	add	esp, 8
	test	eax, eax
	jne	SHORT $LN54@ServerChat

; 523  : 				if (!gACMIRec.IsRecording()) {

	mov	ecx, OFFSET ?gACMIRec@@3VACMIRecorder@@A ; gACMIRec
	call	?IsRecording@ACMIRecorder@@QAEHXZ	; ACMIRecorder::IsRecording
	test	eax, eax
	jne	SHORT $LN53@ServerChat

; 524  : 					//F4EnterCriticalSection( _csect );
; 525  : 					gACMIRec.StartRecording();

	mov	ecx, OFFSET ?gACMIRec@@3VACMIRecorder@@A ; gACMIRec
	call	?StartRecording@ACMIRecorder@@QAEXXZ	; ACMIRecorder::StartRecording
$LN53@ServerChat:

; 526  : 					//F4LeaveCriticalSection( _csect );
; 527  : 				}
; 528  : 			}

	jmp	SHORT $LN48@ServerChat
$LN54@ServerChat:

; 529  : 			else if (!stricmp (argb, "off")) {

	push	OFFSET ??_C@_03MCADLMAF@off?$AA@
	mov	edx, DWORD PTR _argb$[ebp]
	push	edx
	call	_stricmp
	add	esp, 8
	test	eax, eax
	jne	SHORT $LN51@ServerChat

; 530  : 				if (gACMIRec.IsRecording()) {

	mov	ecx, OFFSET ?gACMIRec@@3VACMIRecorder@@A ; gACMIRec
	call	?IsRecording@ACMIRecorder@@QAEHXZ	; ACMIRecorder::IsRecording
	test	eax, eax
	je	SHORT $LN50@ServerChat

; 531  : 					//F4EnterCriticalSection( _csect );
; 532  : 					gACMIRec.StopRecording();

	mov	ecx, OFFSET ?gACMIRec@@3VACMIRecorder@@A ; gACMIRec
	call	?StopRecording@ACMIRecorder@@QAEXXZ	; ACMIRecorder::StopRecording
$LN50@ServerChat:

; 533  : 					//F4LeaveCriticalSection( _csect );
; 534  : 				}
; 535  : 			}

	jmp	SHORT $LN48@ServerChat
$LN51@ServerChat:

; 536  : 
; 537  : 			else if (!stricmp (argb, "dofile")) {

	push	OFFSET ??_C@_06ONNDGCDK@dofile?$AA@
	mov	eax, DWORD PTR _argb$[ebp]
	push	eax
	call	_stricmp
	add	esp, 8
	test	eax, eax
	jne	SHORT $LN48@ServerChat

; 538  : 				if (gACMIRec.IsRecording())

	mov	ecx, OFFSET ?gACMIRec@@3VACMIRecorder@@A ; gACMIRec
	call	?IsRecording@ACMIRecorder@@QAEHXZ	; ACMIRecorder::IsRecording
	test	eax, eax
	je	SHORT $LN47@ServerChat

; 539  : 		 			gACMIRec.StopRecording();

	mov	ecx, OFFSET ?gACMIRec@@3VACMIRecorder@@A ; gACMIRec
	call	?StopRecording@ACMIRecorder@@QAEXXZ	; ACMIRecorder::StopRecording
$LN47@ServerChat:

; 540  : 				ACMI_ImportFile();

	call	?ACMI_ImportFile@@YAXXZ			; ACMI_ImportFile
$LN48@ServerChat:

; 541  : 			}
; 542  : 	   }
; 543  : 
; 544  : 		if (0 && arga && argb && !stricmp (arga, ".loadcam")) {

	xor	ecx, ecx
	je	$LN46@ServerChat

; 545  : 			DisableScenarioInfo();

	call	?DisableScenarioInfo@@YAXXZ		; DisableScenarioInfo

; 546  : 			LeaveCurrentGame();

	call	?LeaveCurrentGame@@YAXXZ		; LeaveCurrentGame

; 547  : 			RuleMode = rCAMPAIGN;

	mov	DWORD PTR ?RuleMode@@3W4RulesModes@@A, 3 ; RuleMode

; 548  : 			
; 549  : 			if(!CPSelectLoaded)

	cmp	DWORD PTR ?CPSelectLoaded@@3HA, 0	; CPSelectLoaded
	jne	SHORT $LN45@ServerChat

; 550  : 				LoadCampaignSelectWindows();

	call	?LoadCampaignSelectWindows@@YAXXZ	; LoadCampaignSelectWindows
$LN45@ServerChat:

; 551  : 			
; 552  : 			_TCHAR buffer[MAX_PATH];
; 553  : 			strcpy (buffer, FalconCampaignSaveDirectory);

	push	OFFSET ?FalconCampaignSaveDirectory@@3PADA ; FalconCampaignSaveDirectory
	lea	edx, DWORD PTR _buffer$15[ebp]
	push	edx
	call	_strcpy
	add	esp, 8

; 554  : 			strcat (buffer, argb);

	mov	eax, DWORD PTR _argb$[ebp]
	push	eax
	lea	ecx, DWORD PTR _buffer$15[ebp]
	push	ecx
	call	_strcat
	add	esp, 8

; 555  : 			strcat (buffer, ".cam");

	push	OFFSET ??_C@_04PHPJHFJH@?4cam?$AA@
	lea	edx, DWORD PTR _buffer$15[ebp]
	push	edx
	call	_strcat
	add	esp, 8

; 556  : 			current_tactical_mission = new tactical_mission (buffer);

	push	208					; 000000d0H
	call	??2@YAPAXI@Z				; operator new
	add	esp, 4
	mov	DWORD PTR $T13[ebp], eax
	mov	DWORD PTR __$EHRec$[ebp+8], 3
	cmp	DWORD PTR $T13[ebp], 0
	je	SHORT $LN90@ServerChat
	lea	eax, DWORD PTR _buffer$15[ebp]
	push	eax
	mov	ecx, DWORD PTR $T13[ebp]
	call	??0tactical_mission@@QAE@PAD@Z		; tactical_mission::tactical_mission
	mov	DWORD PTR tv378[ebp], eax
	jmp	SHORT $LN91@ServerChat
$LN90@ServerChat:
	mov	DWORD PTR tv378[ebp], 0
$LN91@ServerChat:
	mov	ecx, DWORD PTR tv378[ebp]
	mov	DWORD PTR $T5[ebp], ecx
	mov	DWORD PTR __$EHRec$[ebp+8], -1
	mov	edx, DWORD PTR $T5[ebp]
	mov	DWORD PTR ?current_tactical_mission@@3PAVtactical_mission@@A, edx ; current_tactical_mission

; 557  : 			LoadTacticalWindows();

	call	?LoadTacticalWindows@@YAXXZ		; LoadTacticalWindows

; 558  : 			gMainHandler->EnterCritical();

	mov	ecx, DWORD PTR ?gMainHandler@@3PAVC_Handler@@A ; gMainHandler
	call	?EnterCritical@C_Handler@@QAEXXZ	; C_Handler::EnterCritical

; 559  : 			FalconLocalSession->SetCountry(2);

	push	2
	mov	ecx, OFFSET ?vuLocalSessionEntity@@3V?$VuBin@VVuSessionEntity@@@@A ; vuLocalSessionEntity
	call	?get@?$VuBin@VVuSessionEntity@@@@QBEPAVVuSessionEntity@@XZ ; VuBin<VuSessionEntity>::get
	mov	ecx, eax
	call	?SetCountry@FalconSessionEntity@@QAEXE@Z ; FalconSessionEntity::SetCountry

; 560  : 			tactical_accept_mission ();

	call	?tactical_accept_mission@@YAXXZ		; tactical_accept_mission

; 561  : 			gMainHandler->LeaveCritical();

	mov	ecx, DWORD PTR ?gMainHandler@@3PAVC_Handler@@A ; gMainHandler
	call	?LeaveCritical@C_Handler@@QAEXXZ	; C_Handler::LeaveCritical

; 562  : 			SetTimeCompression (0);

	push	0
	call	?SetTimeCompression@@YAXH@Z		; SetTimeCompression
	add	esp, 4

; 563  : 			MainLastGroup = 3000;

	mov	DWORD PTR ?MainLastGroup@@3HA, 3000	; MainLastGroup, 00000bb8H
$LN46@ServerChat:

; 564  : 		}
; 565  : 		if (arga && !stricmp (arga, ".quit")) {

	cmp	DWORD PTR _arga$[ebp], 0
	je	$LN44@ServerChat
	push	OFFSET ??_C@_05OHJNOPJG@?4quit?$AA@
	mov	eax, DWORD PTR _arga$[ebp]
	push	eax
	call	_stricmp
	add	esp, 8
	test	eax, eax
	jne	SHORT $LN44@ServerChat

; 566  : 			tactical_mission_loaded = FALSE;

	mov	DWORD PTR ?tactical_mission_loaded@@3HA, 0 ; tactical_mission_loaded

; 567  : 			RemoveTacticalEdit();

	call	?RemoveTacticalEdit@@YAXXZ		; RemoveTacticalEdit

; 568  : 			gMainHandler->EnterCritical();

	mov	ecx, DWORD PTR ?gMainHandler@@3PAVC_Handler@@A ; gMainHandler
	call	?EnterCritical@C_Handler@@QAEXXZ	; C_Handler::EnterCritical

; 569  : 			TheCampaign.EndCampaign ();

	mov	ecx, OFFSET ?TheCampaign@@3VCampaignClass@@A ; TheCampaign
	call	?EndCampaign@CampaignClass@@QAEXXZ	; CampaignClass::EndCampaign

; 570  : 			CleanupTacticalEngagementUI ();

	call	?CleanupTacticalEngagementUI@@YAXXZ	; CleanupTacticalEngagementUI

; 571  : 			TacLastGroup = 0;

	mov	DWORD PTR ?TacLastGroup@@3HA, 0		; TacLastGroup

; 572  : 			gMainHandler->DisableSection(200);

	push	200					; 000000c8H
	mov	ecx, DWORD PTR ?gMainHandler@@3PAVC_Handler@@A ; gMainHandler
	call	?DisableSection@C_Handler@@QAEXJ@Z	; C_Handler::DisableSection

; 573  : 			gMainHandler->SetSection(100);

	push	100					; 00000064H
	mov	ecx, DWORD PTR ?gMainHandler@@3PAVC_Handler@@A ; gMainHandler
	call	?SetSection@C_Handler@@QAEXJ@Z		; C_Handler::SetSection

; 574  : 			gMainHandler->EnableWindowGroup(100);

	push	100					; 00000064H
	mov	ecx, DWORD PTR ?gMainHandler@@3PAVC_Handler@@A ; gMainHandler
	call	?EnableWindowGroup@C_Handler@@QAEXJ@Z	; C_Handler::EnableWindowGroup

; 575  : 			gMainHandler->EnableWindowGroup(MainLastGroup);

	mov	ecx, DWORD PTR ?MainLastGroup@@3HA	; MainLastGroup
	push	ecx
	mov	ecx, DWORD PTR ?gMainHandler@@3PAVC_Handler@@A ; gMainHandler
	call	?EnableWindowGroup@C_Handler@@QAEXJ@Z	; C_Handler::EnableWindowGroup

; 576  : 			gMainHandler->LeaveCritical();

	mov	ecx, DWORD PTR ?gMainHandler@@3PAVC_Handler@@A ; gMainHandler
	call	?LeaveCritical@C_Handler@@QAEXXZ	; C_Handler::LeaveCritical
$LN44@ServerChat:

; 577  : 		 }
; 578  : 	}
; 579  :     
; 580  : 	if (arga && argb && !stricmp (arga, ".mistrail") && g_bActivateDebugStuff) {

	cmp	DWORD PTR _arga$[ebp], 0
	je	SHORT $LN43@ServerChat
	cmp	DWORD PTR _argb$[ebp], 0
	je	SHORT $LN43@ServerChat
	push	OFFSET ??_C@_09OMJMALCF@?4mistrail?$AA@
	mov	edx, DWORD PTR _arga$[ebp]
	push	edx
	call	_stricmp
	add	esp, 8
	test	eax, eax
	jne	SHORT $LN43@ServerChat
	movzx	eax, BYTE PTR ?g_bActivateDebugStuff@@3_NA ; g_bActivateDebugStuff
	test	eax, eax
	je	SHORT $LN43@ServerChat

; 581  : 	   g_nmissiletrial = atoi(argb);

	mov	ecx, DWORD PTR _argb$[ebp]
	push	ecx
	call	_atoi
	add	esp, 4
	mov	DWORD PTR ?g_nmissiletrial@@3HA, eax	; g_nmissiletrial
	jmp	$LN1@ServerChat
$LN43@ServerChat:

; 582  : 	}
; 583  : 	else if (arga && !stricmp (arga, ".boundb") && g_bActivateDebugStuff) {

	cmp	DWORD PTR _arga$[ebp], 0
	je	SHORT $LN41@ServerChat
	push	OFFSET ??_C@_07GBHEDFOH@?4boundb?$AA@
	mov	edx, DWORD PTR _arga$[ebp]
	push	edx
	call	_stricmp
	add	esp, 8
	test	eax, eax
	jne	SHORT $LN41@ServerChat
	movzx	eax, BYTE PTR ?g_bActivateDebugStuff@@3_NA ; g_bActivateDebugStuff
	test	eax, eax
	je	SHORT $LN41@ServerChat

; 584  : 		if (g_bDrawBoundingBox)

	movzx	ecx, BYTE PTR ?g_bDrawBoundingBox@@3_NA	; g_bDrawBoundingBox
	test	ecx, ecx
	je	SHORT $LN40@ServerChat

; 585  : 			g_bDrawBoundingBox = false;

	mov	BYTE PTR ?g_bDrawBoundingBox@@3_NA, 0	; g_bDrawBoundingBox

; 586  : 		else

	jmp	SHORT $LN39@ServerChat
$LN40@ServerChat:

; 587  : 			g_bDrawBoundingBox = true;

	mov	BYTE PTR ?g_bDrawBoundingBox@@3_NA, 1	; g_bDrawBoundingBox
$LN39@ServerChat:
	jmp	$LN1@ServerChat
$LN41@ServerChat:

; 588  : 	}
; 589  : // RV - Biker - Who does need - we do!!
; 590  : 	else if (arga && argb &&!stricmp (arga, ".bgs") && g_bActivateDebugStuff) {

	cmp	DWORD PTR _arga$[ebp], 0
	je	SHORT $LN37@ServerChat
	cmp	DWORD PTR _argb$[ebp], 0
	je	SHORT $LN37@ServerChat
	push	OFFSET ??_C@_04JPIJFBJP@?4bgs?$AA@
	mov	edx, DWORD PTR _arga$[ebp]
	push	edx
	call	_stricmp
	add	esp, 8
	test	eax, eax
	jne	SHORT $LN37@ServerChat
	movzx	eax, BYTE PTR ?g_bActivateDebugStuff@@3_NA ; g_bActivateDebugStuff
	test	eax, eax
	je	SHORT $LN37@ServerChat

; 591  : 		g_nboostguidesec = (float)atof(argb);

	mov	ecx, DWORD PTR _argb$[ebp]
	push	ecx
	call	_atof
	add	esp, 4
	fstp	DWORD PTR ?g_nboostguidesec@@3MA	; g_nboostguidesec
	jmp	$LN1@ServerChat
$LN37@ServerChat:

; 592  : 	}
; 593  : 	else if (arga && argb &&!stricmp (arga, ".tgr") && g_bActivateDebugStuff) {

	cmp	DWORD PTR _arga$[ebp], 0
	je	SHORT $LN35@ServerChat
	cmp	DWORD PTR _argb$[ebp], 0
	je	SHORT $LN35@ServerChat
	push	OFFSET ??_C@_04PDOAGIJN@?4tgr?$AA@
	mov	edx, DWORD PTR _arga$[ebp]
	push	edx
	call	_stricmp
	add	esp, 8
	test	eax, eax
	jne	SHORT $LN35@ServerChat
	movzx	eax, BYTE PTR ?g_bActivateDebugStuff@@3_NA ; g_bActivateDebugStuff
	test	eax, eax
	je	SHORT $LN35@ServerChat

; 594  : 		g_nterminalguiderange = (float)atof(argb);

	mov	ecx, DWORD PTR _argb$[ebp]
	push	ecx
	call	_atof
	add	esp, 4
	fstp	DWORD PTR ?g_nterminalguiderange@@3MA	; g_nterminalguiderange
	jmp	$LN1@ServerChat
$LN35@ServerChat:

; 595  : 	}
; 596  : 	else if (arga && argb &&!stricmp (arga, ".bgsp") && g_bActivateDebugStuff) {

	cmp	DWORD PTR _arga$[ebp], 0
	je	SHORT $LN33@ServerChat
	cmp	DWORD PTR _argb$[ebp], 0
	je	SHORT $LN33@ServerChat
	push	OFFSET ??_C@_05EPBAHOHC@?4bgsp?$AA@
	mov	edx, DWORD PTR _arga$[ebp]
	push	edx
	call	_stricmp
	add	esp, 8
	test	eax, eax
	jne	SHORT $LN33@ServerChat
	movzx	eax, BYTE PTR ?g_bActivateDebugStuff@@3_NA ; g_bActivateDebugStuff
	test	eax, eax
	je	SHORT $LN33@ServerChat

; 597  : 		g_nboostguideSensorPrecision = (float)atof(argb);

	mov	ecx, DWORD PTR _argb$[ebp]
	push	ecx
	call	_atof
	add	esp, 4
	fstp	DWORD PTR ?g_nboostguideSensorPrecision@@3MA ; g_nboostguideSensorPrecision
	jmp	$LN1@ServerChat
$LN33@ServerChat:

; 598  : 	}
; 599  : 	else if (arga && argb &&!stricmp (arga, ".sgsp") && g_bActivateDebugStuff) {

	cmp	DWORD PTR _arga$[ebp], 0
	je	SHORT $LN31@ServerChat
	cmp	DWORD PTR _argb$[ebp], 0
	je	SHORT $LN31@ServerChat
	push	OFFSET ??_C@_05BCJAMAEA@?4sgsp?$AA@
	mov	edx, DWORD PTR _arga$[ebp]
	push	edx
	call	_stricmp
	add	esp, 8
	test	eax, eax
	jne	SHORT $LN31@ServerChat
	movzx	eax, BYTE PTR ?g_bActivateDebugStuff@@3_NA ; g_bActivateDebugStuff
	test	eax, eax
	je	SHORT $LN31@ServerChat

; 600  : 		g_nsustainguideSensorPrecision = (float)atof(argb);

	mov	ecx, DWORD PTR _argb$[ebp]
	push	ecx
	call	_atof
	add	esp, 4
	fstp	DWORD PTR ?g_nsustainguideSensorPrecision@@3MA ; g_nsustainguideSensorPrecision
	jmp	$LN1@ServerChat
$LN31@ServerChat:

; 601  : 	}
; 602  : 	else if (arga && argb &&!stricmp (arga, ".tgsp") && g_bActivateDebugStuff) {

	cmp	DWORD PTR _arga$[ebp], 0
	je	SHORT $LN29@ServerChat
	cmp	DWORD PTR _argb$[ebp], 0
	je	SHORT $LN29@ServerChat
	push	OFFSET ??_C@_05KALABMFA@?4tgsp?$AA@
	mov	edx, DWORD PTR _arga$[ebp]
	push	edx
	call	_stricmp
	add	esp, 8
	test	eax, eax
	jne	SHORT $LN29@ServerChat
	movzx	eax, BYTE PTR ?g_bActivateDebugStuff@@3_NA ; g_bActivateDebugStuff
	test	eax, eax
	je	SHORT $LN29@ServerChat

; 603  : 		g_nterminalguideSensorPrecision = (float)atof(argb);

	mov	ecx, DWORD PTR _argb$[ebp]
	push	ecx
	call	_atof
	add	esp, 4
	fstp	DWORD PTR ?g_nterminalguideSensorPrecision@@3MA ; g_nterminalguideSensorPrecision
	jmp	$LN1@ServerChat
$LN29@ServerChat:

; 604  : 	}
; 605  : 	else if (arga && argb &&!stricmp (arga, ".bgl") && g_bActivateDebugStuff) {

	cmp	DWORD PTR _arga$[ebp], 0
	je	SHORT $LN27@ServerChat
	cmp	DWORD PTR _argb$[ebp], 0
	je	SHORT $LN27@ServerChat
	push	OFFSET ??_C@_04FCNDFPAB@?4bgl?$AA@
	mov	edx, DWORD PTR _arga$[ebp]
	push	edx
	call	_stricmp
	add	esp, 8
	test	eax, eax
	jne	SHORT $LN27@ServerChat
	movzx	eax, BYTE PTR ?g_bActivateDebugStuff@@3_NA ; g_bActivateDebugStuff
	test	eax, eax
	je	SHORT $LN27@ServerChat

; 606  : 		g_nboostguideLead = (float)atof(argb);

	mov	ecx, DWORD PTR _argb$[ebp]
	push	ecx
	call	_atof
	add	esp, 4
	fstp	DWORD PTR ?g_nboostguideLead@@3MA	; g_nboostguideLead
	jmp	$LN1@ServerChat
$LN27@ServerChat:

; 607  : 	}
; 608  : 	else if (arga && argb &&!stricmp (arga, ".sgl") && g_bActivateDebugStuff) {

	cmp	DWORD PTR _arga$[ebp], 0
	je	SHORT $LN25@ServerChat
	cmp	DWORD PTR _argb$[ebp], 0
	je	SHORT $LN25@ServerChat
	push	OFFSET ??_C@_04LKHGGPPL@?4sgl?$AA@
	mov	edx, DWORD PTR _arga$[ebp]
	push	edx
	call	_stricmp
	add	esp, 8
	test	eax, eax
	jne	SHORT $LN25@ServerChat
	movzx	eax, BYTE PTR ?g_bActivateDebugStuff@@3_NA ; g_bActivateDebugStuff
	test	eax, eax
	je	SHORT $LN25@ServerChat

; 609  : 		g_nsustainguideLead = (float)atof(argb);

	mov	ecx, DWORD PTR _argb$[ebp]
	push	ecx
	call	_atof
	add	esp, 4
	fstp	DWORD PTR ?g_nsustainguideLead@@3MA	; g_nsustainguideLead
	jmp	$LN1@ServerChat
$LN25@ServerChat:

; 610  : 	}
; 611  : 	else if (arga && argb &&!stricmp (arga, ".tgl") && g_bActivateDebugStuff) {

	cmp	DWORD PTR _arga$[ebp], 0
	je	SHORT $LN23@ServerChat
	cmp	DWORD PTR _argb$[ebp], 0
	je	SHORT $LN23@ServerChat
	push	OFFSET ??_C@_04CHKBFHEC@?4tgl?$AA@
	mov	edx, DWORD PTR _arga$[ebp]
	push	edx
	call	_stricmp
	add	esp, 8
	test	eax, eax
	jne	SHORT $LN23@ServerChat
	movzx	eax, BYTE PTR ?g_bActivateDebugStuff@@3_NA ; g_bActivateDebugStuff
	test	eax, eax
	je	SHORT $LN23@ServerChat

; 612  : 		g_nterminalguideLead = (float)atof(argb);

	mov	ecx, DWORD PTR _argb$[ebp]
	push	ecx
	call	_atof
	add	esp, 4
	fstp	DWORD PTR ?g_nterminalguideLead@@3MA	; g_nterminalguideLead
	jmp	$LN1@ServerChat
$LN23@ServerChat:

; 613  : 	}
; 614  : 	else if (arga && argb &&!stricmp (arga, ".bggn") && g_bActivateDebugStuff) {

	cmp	DWORD PTR _arga$[ebp], 0
	je	SHORT $LN21@ServerChat
	cmp	DWORD PTR _argb$[ebp], 0
	je	SHORT $LN21@ServerChat
	push	OFFSET ??_C@_05IAHOEKAB@?4bggn?$AA@
	mov	edx, DWORD PTR _arga$[ebp]
	push	edx
	call	_stricmp
	add	esp, 8
	test	eax, eax
	jne	SHORT $LN21@ServerChat
	movzx	eax, BYTE PTR ?g_bActivateDebugStuff@@3_NA ; g_bActivateDebugStuff
	test	eax, eax
	je	SHORT $LN21@ServerChat

; 615  : 		g_nboostguideGnav = (float)atof(argb);

	mov	ecx, DWORD PTR _argb$[ebp]
	push	ecx
	call	_atof
	add	esp, 4
	fstp	DWORD PTR ?g_nboostguideGnav@@3MA	; g_nboostguideGnav
	jmp	$LN1@ServerChat
$LN21@ServerChat:

; 616  : 	}
; 617  : 	else if (arga && argb &&!stricmp (arga, ".sggn") && g_bActivateDebugStuff) {

	cmp	DWORD PTR _arga$[ebp], 0
	je	SHORT $LN19@ServerChat
	cmp	DWORD PTR _argb$[ebp], 0
	je	SHORT $LN19@ServerChat
	push	OFFSET ??_C@_05NNPOPEDD@?4sggn?$AA@
	mov	edx, DWORD PTR _arga$[ebp]
	push	edx
	call	_stricmp
	add	esp, 8
	test	eax, eax
	jne	SHORT $LN19@ServerChat
	movzx	eax, BYTE PTR ?g_bActivateDebugStuff@@3_NA ; g_bActivateDebugStuff
	test	eax, eax
	je	SHORT $LN19@ServerChat

; 618  : 		g_nsustainguideGnav = (float)atof(argb);

	mov	ecx, DWORD PTR _argb$[ebp]
	push	ecx
	call	_atof
	add	esp, 4
	fstp	DWORD PTR ?g_nsustainguideGnav@@3MA	; g_nsustainguideGnav
	jmp	$LN1@ServerChat
$LN19@ServerChat:

; 619  : 	}
; 620  : 	else if (arga && argb &&!stricmp (arga, ".tggn") && g_bActivateDebugStuff) {

	cmp	DWORD PTR _arga$[ebp], 0
	je	SHORT $LN17@ServerChat
	cmp	DWORD PTR _argb$[ebp], 0
	je	SHORT $LN17@ServerChat
	push	OFFSET ??_C@_05GPNOCICD@?4tggn?$AA@
	mov	edx, DWORD PTR _arga$[ebp]
	push	edx
	call	_stricmp
	add	esp, 8
	test	eax, eax
	jne	SHORT $LN17@ServerChat
	movzx	eax, BYTE PTR ?g_bActivateDebugStuff@@3_NA ; g_bActivateDebugStuff
	test	eax, eax
	je	SHORT $LN17@ServerChat

; 621  : 		g_nterminalguideGnav = (float)atof(argb);

	mov	ecx, DWORD PTR _argb$[ebp]
	push	ecx
	call	_atof
	add	esp, 4
	fstp	DWORD PTR ?g_nterminalguideGnav@@3MA	; g_nterminalguideGnav
	jmp	$LN1@ServerChat
$LN17@ServerChat:

; 622  : 	}
; 623  : 	else if (arga && argb &&!stricmp (arga, ".bgbw") && g_bActivateDebugStuff) {

	cmp	DWORD PTR _arga$[ebp], 0
	je	SHORT $LN15@ServerChat
	cmp	DWORD PTR _argb$[ebp], 0
	je	SHORT $LN15@ServerChat
	push	OFFSET ??_C@_05BNLFCBPC@?4bgbw?$AA@
	mov	edx, DWORD PTR _arga$[ebp]
	push	edx
	call	_stricmp
	add	esp, 8
	test	eax, eax
	jne	SHORT $LN15@ServerChat
	movzx	eax, BYTE PTR ?g_bActivateDebugStuff@@3_NA ; g_bActivateDebugStuff
	test	eax, eax
	je	SHORT $LN15@ServerChat

; 624  : 		g_nboostguideBwap = (float)atof(argb);

	mov	ecx, DWORD PTR _argb$[ebp]
	push	ecx
	call	_atof
	add	esp, 4
	fstp	DWORD PTR ?g_nboostguideBwap@@3MA	; g_nboostguideBwap
	jmp	$LN1@ServerChat
$LN15@ServerChat:

; 625  : 	}
; 626  : 	else if (arga && argb &&!stricmp (arga, ".sgbw") && g_bActivateDebugStuff) {

	cmp	DWORD PTR _arga$[ebp], 0
	je	SHORT $LN13@ServerChat
	cmp	DWORD PTR _argb$[ebp], 0
	je	SHORT $LN13@ServerChat
	push	OFFSET ??_C@_05EADFJPMA@?4sgbw?$AA@
	mov	edx, DWORD PTR _arga$[ebp]
	push	edx
	call	_stricmp
	add	esp, 8
	test	eax, eax
	jne	SHORT $LN13@ServerChat
	movzx	eax, BYTE PTR ?g_bActivateDebugStuff@@3_NA ; g_bActivateDebugStuff
	test	eax, eax
	je	SHORT $LN13@ServerChat

; 627  : 		g_nsustainguideBwap = (float)atof(argb);

	mov	ecx, DWORD PTR _argb$[ebp]
	push	ecx
	call	_atof
	add	esp, 4
	fstp	DWORD PTR ?g_nsustainguideBwap@@3MA	; g_nsustainguideBwap
	jmp	$LN1@ServerChat
$LN13@ServerChat:

; 628  : 	}	   
; 629  : 	else if (arga && argb &&!stricmp (arga, ".tgbw") && g_bActivateDebugStuff) {

	cmp	DWORD PTR _arga$[ebp], 0
	je	SHORT $LN11@ServerChat
	cmp	DWORD PTR _argb$[ebp], 0
	je	SHORT $LN11@ServerChat
	push	OFFSET ??_C@_05PCBFEDNA@?4tgbw?$AA@
	mov	edx, DWORD PTR _arga$[ebp]
	push	edx
	call	_stricmp
	add	esp, 8
	test	eax, eax
	jne	SHORT $LN11@ServerChat
	movzx	eax, BYTE PTR ?g_bActivateDebugStuff@@3_NA ; g_bActivateDebugStuff
	test	eax, eax
	je	SHORT $LN11@ServerChat

; 630  : 		g_nterminalguideBwap = (float)atof(argb);

	mov	ecx, DWORD PTR _argb$[ebp]
	push	ecx
	call	_atof
	add	esp, 4
	fstp	DWORD PTR ?g_nterminalguideBwap@@3MA	; g_nterminalguideBwap
	jmp	$LN1@ServerChat
$LN11@ServerChat:

; 631  : 	}
; 632  : 	else if (arga && argb &&!stricmp (arga, ".cbw") && g_bActivateDebugStuff) {

	cmp	DWORD PTR _arga$[ebp], 0
	je	SHORT $LN9@ServerChat
	cmp	DWORD PTR _argb$[ebp], 0
	je	SHORT $LN9@ServerChat
	push	OFFSET ??_C@_04EFJCDBBF@?4cbw?$AA@
	mov	edx, DWORD PTR _arga$[ebp]
	push	edx
	call	_stricmp
	add	esp, 8
	test	eax, eax
	jne	SHORT $LN9@ServerChat
	movzx	eax, BYTE PTR ?g_bActivateDebugStuff@@3_NA ; g_bActivateDebugStuff
	test	eax, eax
	je	SHORT $LN9@ServerChat
	jmp	$LN1@ServerChat
$LN9@ServerChat:

; 633  : 		//clientbwforupdatesmodifyer = float(atoi(argb)/1000.0f);
; 634  : 	}
; 635  : 	else if (arga && argb &&!stricmp (arga, ".hbw") && g_bActivateDebugStuff) {

	cmp	DWORD PTR _arga$[ebp], 0
	je	SHORT $LN7@ServerChat
	cmp	DWORD PTR _argb$[ebp], 0
	je	SHORT $LN7@ServerChat
	push	OFFSET ??_C@_04JCJDLGBE@?4hbw?$AA@
	mov	ecx, DWORD PTR _arga$[ebp]
	push	ecx
	call	_stricmp
	add	esp, 8
	test	eax, eax
	jne	SHORT $LN7@ServerChat
	movzx	edx, BYTE PTR ?g_bActivateDebugStuff@@3_NA ; g_bActivateDebugStuff
	test	edx, edx
	je	SHORT $LN7@ServerChat
	jmp	$LN1@ServerChat
$LN7@ServerChat:

; 636  : 		//hostbwforupdatesmodifyer = float(atoi(argb)/1000.0f);
; 637  : 	}
; 638  : 	else if (arga && argb &&!stricmp (arga, ".tf") && g_bActivateDebugStuff) {

	cmp	DWORD PTR _arga$[ebp], 0
	je	SHORT $LN5@ServerChat
	cmp	DWORD PTR _argb$[ebp], 0
	je	SHORT $LN5@ServerChat
	push	OFFSET ??_C@_03POAJPEED@?4tf?$AA@
	mov	eax, DWORD PTR _arga$[ebp]
	push	eax
	call	_stricmp
	add	esp, 8
	test	eax, eax
	jne	SHORT $LN5@ServerChat
	movzx	ecx, BYTE PTR ?g_bActivateDebugStuff@@3_NA ; g_bActivateDebugStuff
	test	ecx, ecx
	je	SHORT $LN5@ServerChat

; 639  : 		g_nMpdelaytweakfactor = float(atoi(argb));

	mov	edx, DWORD PTR _argb$[ebp]
	push	edx
	call	_atoi
	add	esp, 4
	cvtsi2ss xmm0, eax
	movss	DWORD PTR ?g_nMpdelaytweakfactor@@3MA, xmm0
	jmp	SHORT $LN1@ServerChat
$LN5@ServerChat:

; 640  : 	}
; 641  : 	else if (arga && argb &&!stricmp (arga, ".mbw") && g_bActivateDebugStuff) {

	cmp	DWORD PTR _arga$[ebp], 0
	je	SHORT $LN3@ServerChat
	cmp	DWORD PTR _argb$[ebp], 0
	je	SHORT $LN3@ServerChat
	push	OFFSET ??_C@_04KFENEGCG@?4mbw?$AA@
	mov	eax, DWORD PTR _arga$[ebp]
	push	eax
	call	_stricmp
	add	esp, 8
	test	eax, eax
	jne	SHORT $LN3@ServerChat
	movzx	ecx, BYTE PTR ?g_bActivateDebugStuff@@3_NA ; g_bActivateDebugStuff
	test	ecx, ecx
	je	SHORT $LN3@ServerChat
	jmp	SHORT $LN1@ServerChat
$LN3@ServerChat:

; 642  : 		//MinBwForOtherData = float(atoi(argb));
; 643  : 	}
; 644  : 	else if (arga && argb &&!stricmp (arga, ".pos")) {

	cmp	DWORD PTR _arga$[ebp], 0
	je	SHORT $LN1@ServerChat
	cmp	DWORD PTR _argb$[ebp], 0
	je	SHORT $LN1@ServerChat
	push	OFFSET ??_C@_04GLIKJPDD@?4pos?$AA@
	mov	edx, DWORD PTR _arga$[ebp]
	push	edx
	call	_stricmp
	add	esp, 8
$LN1@ServerChat:
$LN82@ServerChat:

; 645  : 		//Posupdsize = float(atoi(argb));
; 646  : 	}
; 647  : } // end g_nShowDebugLabels
; 648  : }

	mov	ecx, DWORD PTR __$EHRec$[ebp]
	mov	DWORD PTR fs:0, ecx
	pop	ecx
	mov	ecx, DWORD PTR __$ArrayPad$[ebp]
	xor	ecx, ebp
	call	@__security_check_cookie@4
	mov	esp, ebp
	pop	ebp
	ret	0
_TEXT	ENDS
text$x	SEGMENT
__unwindfunclet$?ServerChatCommand@@YAXPAD@Z$1:
	mov	eax, DWORD PTR ?$S1@?CK@??ServerChatCommand@@YAXPAD@Z@4IA
	and	eax, -2					; fffffffeH
	mov	DWORD PTR ?$S1@?CK@??ServerChatCommand@@YAXPAD@Z@4IA, eax
	ret	0
__unwindfunclet$?ServerChatCommand@@YAXPAD@Z$2:
	mov	eax, DWORD PTR $T8[ebp]
	push	eax
	call	??3@YAXPAX@Z				; operator delete
	pop	ecx
	ret	0
__unwindfunclet$?ServerChatCommand@@YAXPAD@Z$3:
	mov	eax, DWORD PTR $T12[ebp]
	push	eax
	call	??3@YAXPAX@Z				; operator delete
	pop	ecx
	ret	0
__unwindfunclet$?ServerChatCommand@@YAXPAD@Z$4:
	mov	eax, DWORD PTR $T13[ebp]
	push	eax
	call	??3@YAXPAX@Z				; operator delete
	pop	ecx
	ret	0
__ehhandler$?ServerChatCommand@@YAXPAD@Z:
	mov	edx, DWORD PTR [esp+8]
	lea	eax, DWORD PTR [edx+12]
	mov	ecx, DWORD PTR [edx-728]
	xor	ecx, eax
	call	@__security_check_cookie@4
	mov	ecx, DWORD PTR [edx-4]
	xor	ecx, eax
	call	@__security_check_cookie@4
	mov	eax, OFFSET __ehfuncinfo$?ServerChatCommand@@YAXPAD@Z
	jmp	___CxxFrameHandler3
text$x	ENDS
?ServerChatCommand@@YAXPAD@Z ENDP			; ServerChatCommand
; Function compile flags: /Odtp
; File c:\users\zhitao li\documents\visual studio 2012\projects\freefalcon\ui\src\comms\ui_comms.cpp
_TEXT	SEGMENT
_win$ = -4						; size = 4
___formal$ = 8						; size = 4
_hittype$ = 12						; size = 2
_control$ = 16						; size = 4
?OpenPhoneBookCB@@YAXJFPAVC_Base@@@Z PROC		; OpenPhoneBookCB

; 331  : {

	push	ebp
	mov	ebp, esp
	push	ecx

; 332  : 	C_Window *win;
; 333  : 
; 334  : 	if(hittype != C_TYPE_LMOUSEUP)

	movsx	eax, WORD PTR _hittype$[ebp]
	cmp	eax, 52					; 00000034H
	je	SHORT $LN1@OpenPhoneB

; 335  : 		return;

	jmp	SHORT $LN2@OpenPhoneB
$LN1@OpenPhoneB:

; 336  : 
; 337  : 	gMainHandler->EnableWindowGroup(control->GetGroup());

	mov	ecx, DWORD PTR _control$[ebp]
	call	?GetGroup@C_Base@@QAEJXZ		; C_Base::GetGroup
	push	eax
	mov	ecx, DWORD PTR ?gMainHandler@@3PAVC_Handler@@A ; gMainHandler
	call	?EnableWindowGroup@C_Handler@@QAEXJ@Z	; C_Handler::EnableWindowGroup

; 338  : 	win=gMainHandler->FindWindow(PB_WIN);

	push	60004					; 0000ea64H
	mov	ecx, DWORD PTR ?gMainHandler@@3PAVC_Handler@@A ; gMainHandler
	call	?FindWindowA@C_Handler@@QAEPAVC_Window@@J@Z ; C_Handler::FindWindowA
	mov	DWORD PTR _win$[ebp], eax

; 339  : 	gMainHandler->WindowToFront(win);

	mov	ecx, DWORD PTR _win$[ebp]
	push	ecx
	mov	ecx, DWORD PTR ?gMainHandler@@3PAVC_Handler@@A ; gMainHandler
	call	?WindowToFront@C_Handler@@QAEXPAVC_Window@@@Z ; C_Handler::WindowToFront
$LN2@OpenPhoneB:

; 340  : }

	mov	esp, ebp
	pop	ebp
	ret	0
?OpenPhoneBookCB@@YAXJFPAVC_Base@@@Z ENDP		; OpenPhoneBookCB
_TEXT	ENDS
; Function compile flags: /Odtp
; File c:\users\zhitao li\documents\visual studio 2012\projects\freefalcon\ui\src\comms\ui_comms.cpp
_TEXT	SEGMENT
___formal$ = 8						; size = 4
_hittype$ = 12						; size = 2
___formal$ = 16						; size = 4
?DisconnectCommsCB@@YAXJFPAVC_Base@@@Z PROC		; DisconnectCommsCB

; 318  : {

	push	ebp
	mov	ebp, esp

; 319  : 	if ((hittype != C_TYPE_LMOUSEUP) || (!gCommsMgr->Online())){

	movsx	eax, WORD PTR _hittype$[ebp]
	cmp	eax, 52					; 00000034H
	jne	SHORT $LN1@Disconnect
	mov	ecx, DWORD PTR ?gCommsMgr@@3PAVUIComms@@A ; gCommsMgr
	call	?Online@UIComms@@QAEHXZ			; UIComms::Online
	test	eax, eax
	jne	SHORT $LN2@Disconnect
$LN1@Disconnect:

; 320  : 		return;

	jmp	SHORT $LN3@Disconnect
$LN2@Disconnect:

; 321  : 	}
; 322  : 
; 323  : 	gCommsMgr->StopComms();

	mov	ecx, DWORD PTR ?gCommsMgr@@3PAVUIComms@@A ; gCommsMgr
	call	?StopComms@UIComms@@QAEXXZ		; UIComms::StopComms

; 324  : 	RebuildGameTree();

	call	?RebuildGameTree@@YAXXZ			; RebuildGameTree

; 325  : 	UI_Refresh();

	call	?UI_Refresh@@YAXXZ			; UI_Refresh

; 326  : 	SetSingle_Comms_Ctrls();

	call	?SetSingle_Comms_Ctrls@@YAXXZ		; SetSingle_Comms_Ctrls

; 327  : 	CheckFlyButton();

	call	?CheckFlyButton@@YAXXZ			; CheckFlyButton
$LN3@Disconnect:

; 328  : }

	pop	ebp
	ret	0
?DisconnectCommsCB@@YAXJFPAVC_Base@@@Z ENDP		; DisconnectCommsCB
_TEXT	ENDS
; Function compile flags: /Odtp
; File c:\users\zhitao li\documents\visual studio 2012\projects\freefalcon\ui\src\comms\ui_comms.cpp
_TEXT	SEGMENT
tv65 = -8						; size = 4
_messageid$ = -4					; size = 4
_error$ = 8						; size = 2
?UI_CommsErrorMessage@@YAXG@Z PROC			; UI_CommsErrorMessage

; 228  : {

	push	ebp
	mov	ebp, esp
	sub	esp, 8

; 229  : 	long messageid=0;

	mov	DWORD PTR _messageid$[ebp], 0

; 230  : 	switch(error)

	movzx	eax, WORD PTR _error$[ebp]
	mov	DWORD PTR tv65[ebp], eax
	mov	ecx, DWORD PTR tv65[ebp]
	add	ecx, 5
	mov	DWORD PTR tv65[ebp], ecx
	cmp	DWORD PTR tv65[ebp], 7
	ja	SHORT $LN9@UI_CommsEr
	mov	edx, DWORD PTR tv65[ebp]
	jmp	DWORD PTR $LN13@UI_CommsEr[edx*4]
$LN8@UI_CommsEr:

; 231  : 	{
; 232  : 		case F4COMMS_CONNECTED:
; 233  : 			messageid=TXT_COMMS_CONNECTED;

	mov	DWORD PTR _messageid$[ebp], 140		; 0000008cH

; 234  : 			break;

	jmp	SHORT $LN9@UI_CommsEr
$LN7@UI_CommsEr:

; 235  : 		case F4COMMS_ERROR_TCP_NOT_AVAILABLE:
; 236  : 			messageid=TXT_COMMS_NO_TCP;

	mov	DWORD PTR _messageid$[ebp], 141		; 0000008dH

; 237  : 			break;

	jmp	SHORT $LN9@UI_CommsEr
$LN6@UI_CommsEr:

; 238  : 		case F4COMMS_ERROR_UDP_NOT_AVAILABLE:
; 239  : 			messageid=TXT_COMMS_NO_UDP;

	mov	DWORD PTR _messageid$[ebp], 142		; 0000008eH

; 240  : 			break;

	jmp	SHORT $LN9@UI_CommsEr
$LN5@UI_CommsEr:

; 241  : 		case F4COMMS_ERROR_MULTICAST_NOT_AVAILABLE:
; 242  : 			messageid=TXT_COMMS_NO_MULTICAST;

	mov	DWORD PTR _messageid$[ebp], 143		; 0000008fH

; 243  : 			break;

	jmp	SHORT $LN9@UI_CommsEr
$LN4@UI_CommsEr:

; 244  : 		case F4COMMS_ERROR_FAILED_TO_CREATE_GAME:
; 245  : 			messageid=TXT_COMMS_NO_GAME_CREATE;

	mov	DWORD PTR _messageid$[ebp], 144		; 00000090H

; 246  : 			break;

	jmp	SHORT $LN9@UI_CommsEr
$LN3@UI_CommsEr:

; 247  : 		case F4COMMS_ERROR_COULDNT_CONNECT_TO_SERVER:
; 248  : 			messageid=TXT_COMMS_NO_SERVER;

	mov	DWORD PTR _messageid$[ebp], 145		; 00000091H

; 249  : 			break;

	jmp	SHORT $LN9@UI_CommsEr
$LN2@UI_CommsEr:

; 250  : 		case F4COMMS_PENDING:
; 251  : 			messageid=TXT_COMMS_PENDING;

	mov	DWORD PTR _messageid$[ebp], 146		; 00000092H
$LN9@UI_CommsEr:

; 252  : 			break;
; 253  : 	}
; 254  : 	if(messageid)

	cmp	DWORD PTR _messageid$[ebp], 0
	je	SHORT $LN11@UI_CommsEr

; 255  : 		CommsErrorDialog(TXT_COMMS_TITLE,messageid,GenericCloseWindowCB,NULL);

	push	0
	push	OFFSET ?GenericCloseWindowCB@@YAXJFPAVC_Base@@@Z ; GenericCloseWindowCB
	mov	eax, DWORD PTR _messageid$[ebp]
	push	eax
	push	139					; 0000008bH
	call	?CommsErrorDialog@@YAXJJP6AXJFPAVC_Base@@@Z1@Z ; CommsErrorDialog
	add	esp, 16					; 00000010H
$LN11@UI_CommsEr:

; 256  : }

	mov	esp, ebp
	pop	ebp
	ret	0
$LN13@UI_CommsEr:
	DD	$LN3@UI_CommsEr
	DD	$LN4@UI_CommsEr
	DD	$LN5@UI_CommsEr
	DD	$LN6@UI_CommsEr
	DD	$LN7@UI_CommsEr
	DD	$LN9@UI_CommsEr
	DD	$LN8@UI_CommsEr
	DD	$LN2@UI_CommsEr
?UI_CommsErrorMessage@@YAXG@Z ENDP			; UI_CommsErrorMessage
_TEXT	ENDS
; Function compile flags: /Odtp
; File c:\users\zhitao li\documents\visual studio 2012\projects\freefalcon\ui\src\comms\ui_comms.cpp
_TEXT	SEGMENT
_win$ = -12						; size = 4
_txt$ = -8						; size = 4
_btn$ = -4						; size = 4
_TitleID$ = 8						; size = 4
_MessageID$ = 12					; size = 4
_OKCB$ = 16						; size = 4
_CancelCB$ = 20						; size = 4
?CommsErrorDialog@@YAXJJP6AXJFPAVC_Base@@@Z1@Z PROC	; CommsErrorDialog

; 186  : {

	push	ebp
	mov	ebp, esp
	sub	esp, 12					; 0000000cH

; 187  : 	C_Window *win;
; 188  : 	C_Button *btn;
; 189  : 	C_Text *txt;
; 190  : 
; 191  : 	if(!MessageID || !gMainHandler)

	cmp	DWORD PTR _MessageID$[ebp], 0
	je	SHORT $LN8@CommsError
	cmp	DWORD PTR ?gMainHandler@@3PAVC_Handler@@A, 0 ; gMainHandler
	jne	SHORT $LN9@CommsError
$LN8@CommsError:

; 192  : 		return;

	jmp	$LN10@CommsError
$LN9@CommsError:

; 193  : 
; 194  : 	win=gMainHandler->FindWindow(COMMLINK_WIN);

	push	19600					; 00004c90H
	mov	ecx, DWORD PTR ?gMainHandler@@3PAVC_Handler@@A ; gMainHandler
	call	?FindWindowA@C_Handler@@QAEPAVC_Window@@J@Z ; C_Handler::FindWindowA
	mov	DWORD PTR _win$[ebp], eax

; 195  : 	if(win)

	cmp	DWORD PTR _win$[ebp], 0
	je	$LN10@CommsError

; 196  : 	{
; 197  : 		txt=(C_Text*)win->FindControl(TITLE_LABEL);

	push	40303					; 00009d6fH
	mov	ecx, DWORD PTR _win$[ebp]
	call	?FindControl@C_Window@@QAEPAVC_Base@@J@Z ; C_Window::FindControl
	mov	DWORD PTR _txt$[ebp], eax

; 198  : 		if(txt)

	cmp	DWORD PTR _txt$[ebp], 0
	je	SHORT $LN6@CommsError

; 199  : 			txt->SetText(TitleID);

	mov	eax, DWORD PTR _TitleID$[ebp]
	push	eax
	mov	ecx, DWORD PTR _txt$[ebp]
	mov	edx, DWORD PTR [ecx]
	mov	ecx, DWORD PTR _txt$[ebp]
	mov	eax, DWORD PTR [edx+252]
	call	eax
$LN6@CommsError:

; 200  : 
; 201  : 		btn=(C_Button *)win->FindControl(ALERT_CANCEL);

	push	19502					; 00004c2eH
	mov	ecx, DWORD PTR _win$[ebp]
	call	?FindControl@C_Window@@QAEPAVC_Base@@J@Z ; C_Window::FindControl
	mov	DWORD PTR _btn$[ebp], eax

; 202  : 		if(btn)

	cmp	DWORD PTR _btn$[ebp], 0
	je	SHORT $LN5@CommsError

; 203  : 		{
; 204  : 			if(OKCB)

	cmp	DWORD PTR _OKCB$[ebp], 0
	je	SHORT $LN4@CommsError

; 205  : 			{
; 206  : 				btn->SetAllLabel(TXT_OK);

	push	113					; 00000071H
	mov	ecx, DWORD PTR _btn$[ebp]
	call	?SetAllLabel@C_Button@@QAEXJ@Z		; C_Button::SetAllLabel

; 207  : 				btn->SetFlagBitOn(C_BIT_ENABLED);

	push	2048					; 00000800H
	mov	ecx, DWORD PTR _btn$[ebp]
	mov	edx, DWORD PTR [ecx]
	mov	ecx, DWORD PTR _btn$[ebp]
	mov	eax, DWORD PTR [edx+8]
	call	eax

; 208  : 				btn->SetCallback(OKCB);

	mov	ecx, DWORD PTR _OKCB$[ebp]
	push	ecx
	mov	edx, DWORD PTR _btn$[ebp]
	mov	eax, DWORD PTR [edx]
	mov	ecx, DWORD PTR _btn$[ebp]
	mov	edx, DWORD PTR [eax+100]
	call	edx
	jmp	SHORT $LN5@CommsError
$LN4@CommsError:

; 209  : 			}
; 210  : 			else if(CancelCB)

	cmp	DWORD PTR _CancelCB$[ebp], 0
	je	SHORT $LN5@CommsError

; 211  : 			{
; 212  : 				btn->SetAllLabel(TXT_CANCEL);

	push	152					; 00000098H
	mov	ecx, DWORD PTR _btn$[ebp]
	call	?SetAllLabel@C_Button@@QAEXJ@Z		; C_Button::SetAllLabel

; 213  : 				btn->SetFlagBitOn(C_BIT_ENABLED);

	push	2048					; 00000800H
	mov	eax, DWORD PTR _btn$[ebp]
	mov	edx, DWORD PTR [eax]
	mov	ecx, DWORD PTR _btn$[ebp]
	mov	eax, DWORD PTR [edx+8]
	call	eax

; 214  : 				btn->SetCallback(CancelCB);

	mov	ecx, DWORD PTR _CancelCB$[ebp]
	push	ecx
	mov	edx, DWORD PTR _btn$[ebp]
	mov	eax, DWORD PTR [edx]
	mov	ecx, DWORD PTR _btn$[ebp]
	mov	edx, DWORD PTR [eax+100]
	call	edx
$LN5@CommsError:

; 215  : 			}
; 216  : 		}
; 217  : 
; 218  : 		txt=(C_Text*)win->FindControl(COMMLINK_MESSAGE);

	push	19601					; 00004c91H
	mov	ecx, DWORD PTR _win$[ebp]
	call	?FindControl@C_Window@@QAEPAVC_Base@@J@Z ; C_Window::FindControl
	mov	DWORD PTR _txt$[ebp], eax

; 219  : 		if(txt)

	cmp	DWORD PTR _txt$[ebp], 0
	je	SHORT $LN1@CommsError

; 220  : 			txt->SetText(MessageID);

	mov	eax, DWORD PTR _MessageID$[ebp]
	push	eax
	mov	ecx, DWORD PTR _txt$[ebp]
	mov	edx, DWORD PTR [ecx]
	mov	ecx, DWORD PTR _txt$[ebp]
	mov	eax, DWORD PTR [edx+252]
	call	eax
$LN1@CommsError:

; 221  : 
; 222  : 		gMainHandler->ShowWindow(win);

	mov	ecx, DWORD PTR _win$[ebp]
	push	ecx
	mov	ecx, DWORD PTR ?gMainHandler@@3PAVC_Handler@@A ; gMainHandler
	call	?ShowWindow@C_Handler@@QAEHPAVC_Window@@@Z ; C_Handler::ShowWindow

; 223  : 		gMainHandler->WindowToFront(win);

	mov	edx, DWORD PTR _win$[ebp]
	push	edx
	mov	ecx, DWORD PTR ?gMainHandler@@3PAVC_Handler@@A ; gMainHandler
	call	?WindowToFront@C_Handler@@QAEXPAVC_Window@@@Z ; C_Handler::WindowToFront
$LN10@CommsError:

; 224  : 	}
; 225  : }

	mov	esp, ebp
	pop	ebp
	ret	0
?CommsErrorDialog@@YAXJJP6AXJFPAVC_Base@@@Z1@Z ENDP	; CommsErrorDialog
_TEXT	ENDS
; Function compile flags: /Odtp
; File c:\users\zhitao li\documents\visual studio 2012\projects\freefalcon\ui\src\comms\ui_comms.cpp
_TEXT	SEGMENT
$T2 = -52						; size = 8
$T3 = -44						; size = 4
_rlb$ = -40						; size = 4
tv143 = -36						; size = 4
$T4 = -32						; size = 4
_session$ = -28						; size = 4
_plyr$ = -24						; size = 4
_item$ = -20						; size = 4
_tree$ = -16						; size = 4
__$EHRec$ = -12						; size = 12
___formal$ = 8						; size = 4
_hittype$ = 12						; size = 2
___formal$ = 16						; size = 4
?ViewRemoteLBCB@@YAXJFPAVC_Base@@@Z PROC		; ViewRemoteLBCB

; 141  : {

	push	ebp
	mov	ebp, esp
	push	-1
	push	__ehhandler$?ViewRemoteLBCB@@YAXJFPAVC_Base@@@Z
	mov	eax, DWORD PTR fs:0
	push	eax
	sub	esp, 40					; 00000028H
	mov	eax, DWORD PTR ___security_cookie
	xor	eax, ebp
	push	eax
	lea	eax, DWORD PTR __$EHRec$[ebp]
	mov	DWORD PTR fs:0, eax

; 142  : 	C_TreeList  *tree;
; 143  : 	TREELIST    *item;
; 144  : 	C_Player	*plyr;
; 145  : 	UI_RequestLogbook *rlb;
; 146  : 	FalconSessionEntity *session;
; 147  : 
; 148  : 	if(hittype != C_TYPE_LMOUSEUP)

	movsx	eax, WORD PTR _hittype$[ebp]
	cmp	eax, 52					; 00000034H
	je	SHORT $LN6@ViewRemote

; 149  : 		return;

	jmp	$LN7@ViewRemote
$LN6@ViewRemote:

; 150  : 
; 151  : 	if(gPopupMgr->GetCallingType() == C_TYPE_CONTROL)

	mov	ecx, DWORD PTR ?gPopupMgr@@3PAVC_PopupMgr@@A ; gPopupMgr
	call	?GetCallingType@C_PopupMgr@@QAEFXZ	; C_PopupMgr::GetCallingType
	movsx	ecx, ax
	cmp	ecx, 72					; 00000048H
	jne	$LN5@ViewRemote

; 152  : 	{
; 153  : 		tree=(C_TreeList*)gPopupMgr->GetCallingControl();

	mov	ecx, DWORD PTR ?gPopupMgr@@3PAVC_PopupMgr@@A ; gPopupMgr
	call	?GetCallingControl@C_PopupMgr@@QAEPAVC_Base@@XZ ; C_PopupMgr::GetCallingControl
	mov	DWORD PTR _tree$[ebp], eax

; 154  : 		if(tree)

	cmp	DWORD PTR _tree$[ebp], 0
	je	$LN5@ViewRemote

; 155  : 		{
; 156  : 			item=tree->GetLastItem();

	mov	ecx, DWORD PTR _tree$[ebp]
	call	?GetLastItem@C_TreeList@@QAEPAVTREELIST@@XZ ; C_TreeList::GetLastItem
	mov	DWORD PTR _item$[ebp], eax

; 157  : 			if(item)

	cmp	DWORD PTR _item$[ebp], 0
	je	$LN5@ViewRemote

; 158  : 			{
; 159  : 				plyr=(C_Player *)item->Item_;

	mov	edx, DWORD PTR _item$[ebp]
	mov	eax, DWORD PTR [edx+20]
	mov	DWORD PTR _plyr$[ebp], eax

; 160  : 				if(plyr)

	cmp	DWORD PTR _plyr$[ebp], 0
	je	$LN5@ViewRemote

; 161  : 				{
; 162  : 					//if(plyr->GetVUID() != FalconLocalSessionId)
; 163  : 					{
; 164  : 						// Go Ask for Logbook info & Open logbook...
; 165  : 						// Log book should be EMPTY, until data appears...
; 166  : 						// if(Player closes logbook before it's all received)
; 167  : 						// cancel
; 168  : 						session=(FalconSessionEntity*)vuDatabase->Find(plyr->GetVUID());

	lea	ecx, DWORD PTR $T2[ebp]
	push	ecx
	mov	ecx, DWORD PTR _plyr$[ebp]
	call	?GetVUID@C_Player@@QAE?AVVU_ID@@XZ	; C_Player::GetVUID
	mov	edx, DWORD PTR [eax+4]
	push	edx
	mov	eax, DWORD PTR [eax]
	push	eax
	mov	ecx, DWORD PTR ?vuDatabase@@3PAVVuDatabase@@A ; vuDatabase
	call	?Find@VuDatabase@@QBEPAVVuEntity@@VVU_ID@@@Z ; VuDatabase::Find
	mov	DWORD PTR _session$[ebp], eax

; 169  : 						if(session)

	cmp	DWORD PTR _session$[ebp], 0
	je	$LN5@ViewRemote

; 170  : 						{
; 171  : 							rlb=new UI_RequestLogbook(FalconNullId,session);

	push	56					; 00000038H
	call	??2@YAPAXI@Z				; operator new
	add	esp, 4
	mov	DWORD PTR $T4[ebp], eax
	mov	DWORD PTR __$EHRec$[ebp+8], 0
	cmp	DWORD PTR $T4[ebp], 0
	je	SHORT $LN9@ViewRemote
	push	1
	mov	ecx, DWORD PTR _session$[ebp]
	push	ecx
	mov	edx, DWORD PTR ?FalconNullId@@3VVU_ID@@A+4
	push	edx
	mov	eax, DWORD PTR ?FalconNullId@@3VVU_ID@@A
	push	eax
	mov	ecx, DWORD PTR $T4[ebp]
	call	??0UI_RequestLogbook@@QAE@VVU_ID@@PAVVuTargetEntity@@E@Z ; UI_RequestLogbook::UI_RequestLogbook
	mov	DWORD PTR tv143[ebp], eax
	jmp	SHORT $LN10@ViewRemote
$LN9@ViewRemote:
	mov	DWORD PTR tv143[ebp], 0
$LN10@ViewRemote:
	mov	ecx, DWORD PTR tv143[ebp]
	mov	DWORD PTR $T3[ebp], ecx
	mov	DWORD PTR __$EHRec$[ebp+8], -1
	mov	edx, DWORD PTR $T3[ebp]
	mov	DWORD PTR _rlb$[ebp], edx

; 172  : 							rlb->dataBlock.fromID=FalconLocalSessionId;

	mov	eax, DWORD PTR _rlb$[ebp]
	mov	ecx, DWORD PTR ?vuLocalSession@@3VVU_ID@@A
	mov	DWORD PTR [eax+48], ecx
	mov	edx, DWORD PTR ?vuLocalSession@@3VVU_ID@@A+4
	mov	DWORD PTR [eax+52], edx

; 173  : 
; 174  : 							FalconSendMessage(rlb,true);

	push	1
	mov	eax, DWORD PTR _rlb$[ebp]
	push	eax
	call	?FalconSendMessage@@YAXPAVVuMessage@@H@Z ; FalconSendMessage
	add	esp, 8

; 175  : 							ViewLogBook=1;

	mov	ecx, 1
	mov	WORD PTR ?ViewLogBook@@3FA, cx		; ViewLogBook
$LN5@ViewRemote:

; 176  : 						}
; 177  : 					}
; 178  : 				}
; 179  : 			}
; 180  : 		}
; 181  : 	}
; 182  : 	gPopupMgr->CloseMenu();

	mov	ecx, DWORD PTR ?gPopupMgr@@3PAVC_PopupMgr@@A ; gPopupMgr
	call	?CloseMenu@C_PopupMgr@@QAEXXZ		; C_PopupMgr::CloseMenu
$LN7@ViewRemote:

; 183  : }

	mov	ecx, DWORD PTR __$EHRec$[ebp]
	mov	DWORD PTR fs:0, ecx
	pop	ecx
	mov	esp, ebp
	pop	ebp
	ret	0
_TEXT	ENDS
text$x	SEGMENT
__unwindfunclet$?ViewRemoteLBCB@@YAXJFPAVC_Base@@@Z$0:
	mov	eax, DWORD PTR $T4[ebp]
	push	eax
	call	??3@YAXPAX@Z				; operator delete
	pop	ecx
	ret	0
__ehhandler$?ViewRemoteLBCB@@YAXJFPAVC_Base@@@Z:
	mov	edx, DWORD PTR [esp+8]
	lea	eax, DWORD PTR [edx+12]
	mov	ecx, DWORD PTR [edx-44]
	xor	ecx, eax
	call	@__security_check_cookie@4
	mov	eax, OFFSET __ehfuncinfo$?ViewRemoteLBCB@@YAXJFPAVC_Base@@@Z
	jmp	___CxxFrameHandler3
text$x	ENDS
?ViewRemoteLBCB@@YAXJFPAVC_Base@@@Z ENDP		; ViewRemoteLBCB
; Function compile flags: /Odtp
; File c:\users\zhitao li\documents\visual studio 2012\projects\freefalcon\ui\src\comms\ui_comms.cpp
_TEXT	SEGMENT
_btn$ = -4						; size = 4
___formal$ = 8						; size = 4
___formal$ = 12						; size = 2
_control$ = 16						; size = 4
?BlinkCommsButtonTimerCB@@YAXJFPAVC_Base@@@Z PROC	; BlinkCommsButtonTimerCB

; 719  : {

	push	ebp
	mov	ebp, esp
	push	ecx

; 720  : 	C_Button *btn;
; 721  : 
; 722  : 	if (!gCommsMgr) return;

	cmp	DWORD PTR ?gCommsMgr@@3PAVUIComms@@A, 0	; gCommsMgr
	jne	SHORT $LN6@BlinkComms
	jmp	SHORT $LN7@BlinkComms
$LN6@BlinkComms:

; 723  : 	if(!gNewMessage || !gCommsMgr->Online()) return;

	cmp	DWORD PTR ?gNewMessage@@3HA, 0		; gNewMessage
	je	SHORT $LN4@BlinkComms
	mov	ecx, DWORD PTR ?gCommsMgr@@3PAVUIComms@@A ; gCommsMgr
	call	?Online@UIComms@@QAEHXZ			; UIComms::Online
	test	eax, eax
	jne	SHORT $LN5@BlinkComms
$LN4@BlinkComms:
	jmp	SHORT $LN7@BlinkComms
$LN5@BlinkComms:

; 724  : 
; 725  : 	btn=(C_Button *)control->Parent_->FindControl(CO_MAIN_CTRL);	

	push	60003					; 0000ea63H
	mov	eax, DWORD PTR _control$[ebp]
	mov	ecx, DWORD PTR [eax+48]
	call	?FindControl@C_Window@@QAEPAVC_Base@@J@Z ; C_Window::FindControl
	mov	DWORD PTR _btn$[ebp], eax

; 726  : 	if(btn)

	cmp	DWORD PTR _btn$[ebp], 0
	je	SHORT $LN7@BlinkComms

; 727  : 	{
; 728  : 		if(!(btn->GetFlags() & C_BIT_FORCEMOUSEOVER))

	mov	ecx, DWORD PTR _btn$[ebp]
	call	?GetFlags@C_Base@@QAEJXZ		; C_Base::GetFlags
	and	eax, 16384				; 00004000H
	jne	SHORT $LN2@BlinkComms

; 729  : 		{
; 730  : 			// gSoundMgr->PlaySound(SND_HOMER);
; 731  : 			btn->SetFlagBitOn(C_BIT_FORCEMOUSEOVER);

	push	16384					; 00004000H
	mov	ecx, DWORD PTR _btn$[ebp]
	mov	edx, DWORD PTR [ecx]
	mov	ecx, DWORD PTR _btn$[ebp]
	mov	eax, DWORD PTR [edx+8]
	call	eax

; 732  : 		}
; 733  : 		else

	jmp	SHORT $LN1@BlinkComms
$LN2@BlinkComms:

; 734  : 			btn->SetFlagBitOff(C_BIT_FORCEMOUSEOVER);

	push	16384					; 00004000H
	mov	ecx, DWORD PTR _btn$[ebp]
	mov	edx, DWORD PTR [ecx]
	mov	ecx, DWORD PTR _btn$[ebp]
	mov	eax, DWORD PTR [edx+12]
	call	eax
$LN1@BlinkComms:

; 735  : 		btn->Refresh();

	mov	ecx, DWORD PTR _btn$[ebp]
	mov	edx, DWORD PTR [ecx]
	mov	ecx, DWORD PTR _btn$[ebp]
	mov	eax, DWORD PTR [edx+160]
	call	eax
$LN7@BlinkComms:

; 736  : 	}
; 737  : }

	mov	esp, ebp
	pop	ebp
	ret	0
?BlinkCommsButtonTimerCB@@YAXJFPAVC_Base@@@Z ENDP	; BlinkCommsButtonTimerCB
_TEXT	ENDS
; Function compile flags: /Odtp
; File c:\users\zhitao li\documents\visual studio 2012\projects\freefalcon\ui\src\comms\ui_comms.cpp
_TEXT	SEGMENT
___formal$ = 8						; size = 2
___formal$ = 12						; size = 8
___formal$ = 20						; size = 8
?UpdatePlayerListCB@@YAXFVVU_ID@@0@Z PROC		; UpdatePlayerListCB

; 1133 : {

	push	ebp
	mov	ebp, esp

; 1134 : }

	pop	ebp
	ret	0
?UpdatePlayerListCB@@YAXFVVU_ID@@0@Z ENDP		; UpdatePlayerListCB
_TEXT	ENDS
; Function compile flags: /Odtp
; File c:\users\zhitao li\documents\visual studio 2012\projects\freefalcon\ui\src\comms\ui_comms.cpp
_TEXT	SEGMENT
_b$ = -20						; size = 4
_ebox$ = -16						; size = 4
_tree$ = -12						; size = 4
_winme$ = -8						; size = 4
_ctrl$ = -4						; size = 4
_ID$ = 8						; size = 4
?HookupCommsControls@@YAXJ@Z PROC			; HookupCommsControls

; 2306 : {

	push	ebp
	mov	ebp, esp
	sub	esp, 20					; 00000014H

; 2307 : 	C_Window *winme;
; 2308 : 	C_Button *ctrl;
; 2309 : 	C_EditBox *ebox;
; 2310 : 	C_TreeList *tree;
; 2311 : 
; 2312 : 	winme=gMainHandler->FindWindow(ID);

	mov	eax, DWORD PTR _ID$[ebp]
	push	eax
	mov	ecx, DWORD PTR ?gMainHandler@@3PAVC_Handler@@A ; gMainHandler
	call	?FindWindowA@C_Handler@@QAEPAVC_Window@@J@Z ; C_Handler::FindWindowA
	mov	DWORD PTR _winme$[ebp], eax

; 2313 : 
; 2314 : 	if(winme == NULL)

	cmp	DWORD PTR _winme$[ebp], 0
	jne	SHORT $LN17@HookupComm

; 2315 : 		return;

	jmp	$LN18@HookupComm
$LN17@HookupComm:

; 2316 : 
; 2317 : 	// Hook up IDs here
; 2318 : 	// Hook up Close Button
; 2319 : 	ctrl=(C_Button *)winme->FindControl(CHAT_ALL);

	push	60051					; 0000ea93H
	mov	ecx, DWORD PTR _winme$[ebp]
	call	?FindControl@C_Window@@QAEPAVC_Base@@J@Z ; C_Window::FindControl
	mov	DWORD PTR _ctrl$[ebp], eax

; 2320 : 	if(ctrl)

	cmp	DWORD PTR _ctrl$[ebp], 0
	je	SHORT $LN16@HookupComm

; 2321 : 		ctrl->SetCallback(SelectChatFilterCB);

	push	OFFSET ?SelectChatFilterCB@@YAXJFPAVC_Base@@@Z ; SelectChatFilterCB
	mov	ecx, DWORD PTR _ctrl$[ebp]
	mov	edx, DWORD PTR [ecx]
	mov	ecx, DWORD PTR _ctrl$[ebp]
	mov	eax, DWORD PTR [edx+100]
	call	eax
$LN16@HookupComm:

; 2322 : 
; 2323 : 	ctrl=(C_Button *)winme->FindControl(CHAT_TEAM);

	push	60052					; 0000ea94H
	mov	ecx, DWORD PTR _winme$[ebp]
	call	?FindControl@C_Window@@QAEPAVC_Base@@J@Z ; C_Window::FindControl
	mov	DWORD PTR _ctrl$[ebp], eax

; 2324 : 	if(ctrl)

	cmp	DWORD PTR _ctrl$[ebp], 0
	je	SHORT $LN15@HookupComm

; 2325 : 		ctrl->SetCallback(SelectChatFilterCB);

	push	OFFSET ?SelectChatFilterCB@@YAXJFPAVC_Base@@@Z ; SelectChatFilterCB
	mov	ecx, DWORD PTR _ctrl$[ebp]
	mov	edx, DWORD PTR [ecx]
	mov	ecx, DWORD PTR _ctrl$[ebp]
	mov	eax, DWORD PTR [edx+100]
	call	eax
$LN15@HookupComm:

; 2326 : 
; 2327 : 	ctrl=(C_Button *)winme->FindControl(CHAT_PACKAGE);

	push	60053					; 0000ea95H
	mov	ecx, DWORD PTR _winme$[ebp]
	call	?FindControl@C_Window@@QAEPAVC_Base@@J@Z ; C_Window::FindControl
	mov	DWORD PTR _ctrl$[ebp], eax

; 2328 : 	if(ctrl)

	cmp	DWORD PTR _ctrl$[ebp], 0
	je	SHORT $LN14@HookupComm

; 2329 : 		ctrl->SetCallback(SelectChatFilterCB);

	push	OFFSET ?SelectChatFilterCB@@YAXJFPAVC_Base@@@Z ; SelectChatFilterCB
	mov	ecx, DWORD PTR _ctrl$[ebp]
	mov	edx, DWORD PTR [ecx]
	mov	ecx, DWORD PTR _ctrl$[ebp]
	mov	eax, DWORD PTR [edx+100]
	call	eax
$LN14@HookupComm:

; 2330 : 
; 2331 : 	ctrl=(C_Button *)winme->FindControl(CHAT_FLIGHT);

	push	60054					; 0000ea96H
	mov	ecx, DWORD PTR _winme$[ebp]
	call	?FindControl@C_Window@@QAEPAVC_Base@@J@Z ; C_Window::FindControl
	mov	DWORD PTR _ctrl$[ebp], eax

; 2332 : 	if(ctrl)

	cmp	DWORD PTR _ctrl$[ebp], 0
	je	SHORT $LN13@HookupComm

; 2333 : 		ctrl->SetCallback(SelectChatFilterCB);

	push	OFFSET ?SelectChatFilterCB@@YAXJFPAVC_Base@@@Z ; SelectChatFilterCB
	mov	ecx, DWORD PTR _ctrl$[ebp]
	mov	edx, DWORD PTR [ecx]
	mov	ecx, DWORD PTR _ctrl$[ebp]
	mov	eax, DWORD PTR [edx+100]
	call	eax
$LN13@HookupComm:

; 2334 : 
; 2335 : 	ctrl=(C_Button *)winme->FindControl(CHAT_DISCONNECT);

	push	60026					; 0000ea7aH
	mov	ecx, DWORD PTR _winme$[ebp]
	call	?FindControl@C_Window@@QAEPAVC_Base@@J@Z ; C_Window::FindControl
	mov	DWORD PTR _ctrl$[ebp], eax

; 2336 : 	if(ctrl)

	cmp	DWORD PTR _ctrl$[ebp], 0
	je	SHORT $LN12@HookupComm

; 2337 : 		ctrl->SetCallback(DisconnectCommsCB);

	push	OFFSET ?DisconnectCommsCB@@YAXJFPAVC_Base@@@Z ; DisconnectCommsCB
	mov	ecx, DWORD PTR _ctrl$[ebp]
	mov	edx, DWORD PTR [ecx]
	mov	ecx, DWORD PTR _ctrl$[ebp]
	mov	eax, DWORD PTR [edx+100]
	call	eax
$LN12@HookupComm:

; 2338 : 
; 2339 : 	ctrl=(C_Button *)winme->FindControl(CHAT_PBOOK);

	push	60027					; 0000ea7bH
	mov	ecx, DWORD PTR _winme$[ebp]
	call	?FindControl@C_Window@@QAEPAVC_Base@@J@Z ; C_Window::FindControl
	mov	DWORD PTR _ctrl$[ebp], eax

; 2340 : 	if(ctrl)

	cmp	DWORD PTR _ctrl$[ebp], 0
	je	SHORT $LN11@HookupComm

; 2341 : 		ctrl->SetCallback(OpenPhoneBookCB);

	push	OFFSET ?OpenPhoneBookCB@@YAXJFPAVC_Base@@@Z ; OpenPhoneBookCB
	mov	ecx, DWORD PTR _ctrl$[ebp]
	mov	edx, DWORD PTR [ecx]
	mov	ecx, DWORD PTR _ctrl$[ebp]
	mov	eax, DWORD PTR [edx+100]
	call	eax
$LN11@HookupComm:

; 2342 : 
; 2343 : 	ctrl=(C_Button *)winme->FindControl(CLOSE_WINDOW);

	push	80001					; 00013881H
	mov	ecx, DWORD PTR _winme$[ebp]
	call	?FindControl@C_Window@@QAEPAVC_Base@@J@Z ; C_Window::FindControl
	mov	DWORD PTR _ctrl$[ebp], eax

; 2344 : 	if(ctrl)

	cmp	DWORD PTR _ctrl$[ebp], 0
	je	SHORT $LN10@HookupComm

; 2345 : 		ctrl->SetCallback(CloseWindowCB);

	push	OFFSET ?CloseWindowCB@@YAXJFPAVC_Base@@@Z ; CloseWindowCB
	mov	ecx, DWORD PTR _ctrl$[ebp]
	mov	edx, DWORD PTR [ecx]
	mov	ecx, DWORD PTR _ctrl$[ebp]
	mov	eax, DWORD PTR [edx+100]
	call	eax
$LN10@HookupComm:

; 2346 : 
; 2347 : 	ebox=(C_EditBox *)winme->FindControl(TEXT_OUT);

	push	60015					; 0000ea6fH
	mov	ecx, DWORD PTR _winme$[ebp]
	call	?FindControl@C_Window@@QAEPAVC_Base@@J@Z ; C_Window::FindControl
	mov	DWORD PTR _ebox$[ebp], eax

; 2348 : 	if(ebox)

	cmp	DWORD PTR _ebox$[ebp], 0
	je	SHORT $LN9@HookupComm

; 2349 : 		ebox->SetCallback(SendChatStringCB);

	push	OFFSET ?SendChatStringCB@@YAXJFPAVC_Base@@@Z ; SendChatStringCB
	mov	ecx, DWORD PTR _ebox$[ebp]
	mov	edx, DWORD PTR [ecx]
	mov	ecx, DWORD PTR _ebox$[ebp]
	mov	eax, DWORD PTR [edx+100]
	call	eax
$LN9@HookupComm:

; 2350 : 
; 2351 : 	ctrl=(C_Button *)winme->FindControl(PB_NEW);

	push	60009					; 0000ea69H
	mov	ecx, DWORD PTR _winme$[ebp]
	call	?FindControl@C_Window@@QAEPAVC_Base@@J@Z ; C_Window::FindControl
	mov	DWORD PTR _ctrl$[ebp], eax

; 2352 : 	if(ctrl)

	cmp	DWORD PTR _ctrl$[ebp], 0
	je	SHORT $LN8@HookupComm

; 2353 : 		ctrl->SetCallback(Phone_New_CB);

	push	OFFSET ?Phone_New_CB@@YAXJFPAVC_Base@@@Z ; Phone_New_CB
	mov	ecx, DWORD PTR _ctrl$[ebp]
	mov	edx, DWORD PTR [ecx]
	mov	ecx, DWORD PTR _ctrl$[ebp]
	mov	eax, DWORD PTR [edx+100]
	call	eax
$LN8@HookupComm:

; 2354 : 
; 2355 : 	ctrl=(C_Button *)winme->FindControl(PB_APPLY);

	push	60010					; 0000ea6aH
	mov	ecx, DWORD PTR _winme$[ebp]
	call	?FindControl@C_Window@@QAEPAVC_Base@@J@Z ; C_Window::FindControl
	mov	DWORD PTR _ctrl$[ebp], eax

; 2356 : 	if(ctrl)

	cmp	DWORD PTR _ctrl$[ebp], 0
	je	SHORT $LN7@HookupComm

; 2357 : 		ctrl->SetCallback(Phone_Apply_CB);

	push	OFFSET ?Phone_Apply_CB@@YAXJFPAVC_Base@@@Z ; Phone_Apply_CB
	mov	ecx, DWORD PTR _ctrl$[ebp]
	mov	edx, DWORD PTR [ecx]
	mov	ecx, DWORD PTR _ctrl$[ebp]
	mov	eax, DWORD PTR [edx+100]
	call	eax
$LN7@HookupComm:

; 2358 : 
; 2359 : 	ctrl=(C_Button *)winme->FindControl(PB_REMOVE);

	push	60011					; 0000ea6bH
	mov	ecx, DWORD PTR _winme$[ebp]
	call	?FindControl@C_Window@@QAEPAVC_Base@@J@Z ; C_Window::FindControl
	mov	DWORD PTR _ctrl$[ebp], eax

; 2360 : 	if(ctrl)

	cmp	DWORD PTR _ctrl$[ebp], 0
	je	SHORT $LN6@HookupComm

; 2361 : 		ctrl->SetCallback(Phone_Remove_CB);

	push	OFFSET ?Phone_Remove_CB@@YAXJFPAVC_Base@@@Z ; Phone_Remove_CB
	mov	ecx, DWORD PTR _ctrl$[ebp]
	mov	edx, DWORD PTR [ecx]
	mov	ecx, DWORD PTR _ctrl$[ebp]
	mov	eax, DWORD PTR [edx+100]
	call	eax
$LN6@HookupComm:

; 2362 : 
; 2363 : 	ctrl=(C_Button *)winme->FindControl(PB_CONNECT);

	push	60012					; 0000ea6cH
	mov	ecx, DWORD PTR _winme$[ebp]
	call	?FindControl@C_Window@@QAEPAVC_Base@@J@Z ; C_Window::FindControl
	mov	DWORD PTR _ctrl$[ebp], eax

; 2364 : 	if(ctrl)

	cmp	DWORD PTR _ctrl$[ebp], 0
	je	SHORT $LN5@HookupComm

; 2365 : 		ctrl->SetCallback(Phone_Connect_CB);

	push	OFFSET ?Phone_Connect_CB@@YAXJFPAVC_Base@@@Z ; Phone_Connect_CB
	mov	ecx, DWORD PTR _ctrl$[ebp]
	mov	edx, DWORD PTR [ecx]
	mov	ecx, DWORD PTR _ctrl$[ebp]
	mov	eax, DWORD PTR [edx+100]
	call	eax
$LN5@HookupComm:

; 2366 : 
; 2367 : 	ctrl=(C_Button *)winme->FindControl(PB_CANCEL);

	push	60013					; 0000ea6dH
	mov	ecx, DWORD PTR _winme$[ebp]
	call	?FindControl@C_Window@@QAEPAVC_Base@@J@Z ; C_Window::FindControl
	mov	DWORD PTR _ctrl$[ebp], eax

; 2368 : 	if(ctrl)

	cmp	DWORD PTR _ctrl$[ebp], 0
	je	SHORT $LN4@HookupComm

; 2369 : 		ctrl->SetCallback(CloseWindowCB);

	push	OFFSET ?CloseWindowCB@@YAXJFPAVC_Base@@@Z ; CloseWindowCB
	mov	ecx, DWORD PTR _ctrl$[ebp]
	mov	edx, DWORD PTR [ecx]
	mov	ecx, DWORD PTR _ctrl$[ebp]
	mov	eax, DWORD PTR [edx+100]
	call	eax
$LN4@HookupComm:

; 2370 : 
; 2371 : 	C_Base *b =(C_EditBox *)winme->FindControl(IP_ADDRESS_1);

	push	60037					; 0000ea85H
	mov	ecx, DWORD PTR _winme$[ebp]
	call	?FindControl@C_Window@@QAEPAVC_Base@@J@Z ; C_Window::FindControl
	mov	DWORD PTR _b$[ebp], eax

; 2372 : 	if(b)

	cmp	DWORD PTR _b$[ebp], 0
	je	SHORT $LN3@HookupComm

; 2373 : 		b->SetCallback(AddressInputCB);

	push	OFFSET ?AddressInputCB@@YAXJFPAVC_Base@@@Z ; AddressInputCB
	mov	ecx, DWORD PTR _b$[ebp]
	mov	edx, DWORD PTR [ecx]
	mov	ecx, DWORD PTR _b$[ebp]
	mov	eax, DWORD PTR [edx+100]
	call	eax
$LN3@HookupComm:

; 2374 : 
; 2375 : 
; 2376 : //	ctrl=(C_Button *)winme->FindControl(CON_TYPE_MODEM);
; 2377 : //	if(ctrl)
; 2378 : //		ctrl->SetCallback(Phone_ConnectType_CB);
; 2379 : 
; 2380 : //	ctrl=(C_Button *)winme->FindControl(CON_TYPE_INTERNET);
; 2381 : //	if(ctrl)
; 2382 : //		ctrl->SetCallback(Phone_ConnectType_CB);
; 2383 : 
; 2384 : //	ctrl=(C_Button *)winme->FindControl(CON_TYPE_LAN);
; 2385 : //	if(ctrl)
; 2386 : //		ctrl->SetCallback(Phone_ConnectType_CB);
; 2387 : 
; 2388 : //	ctrl=(C_Button *)winme->FindControl(CON_TYPE_SERIAL);
; 2389 : //	if(ctrl)
; 2390 : //		ctrl->SetCallback(Phone_ConnectType_CB);
; 2391 : 
; 2392 : //	ctrl=(C_Button *)winme->FindControl(CON_TYPE_JETNET);
; 2393 : //	if(ctrl)
; 2394 : //		ctrl->SetCallback(Phone_ConnectType_CB);
; 2395 : 
; 2396 : 	tree=(C_TreeList*)winme->FindControl(PEOPLE_TREE);

	push	60050					; 0000ea92H
	mov	ecx, DWORD PTR _winme$[ebp]
	call	?FindControl@C_Window@@QAEPAVC_Base@@J@Z ; C_Window::FindControl
	mov	DWORD PTR _tree$[ebp], eax

; 2397 : 	if(tree)

	cmp	DWORD PTR _tree$[ebp], 0
	je	SHORT $LN2@HookupComm

; 2398 : 	{
; 2399 : 		People=tree;

	mov	ecx, DWORD PTR _tree$[ebp]
	mov	DWORD PTR ?People@@3PAVC_TreeList@@A, ecx ; People

; 2400 : 		tree->SetCallback(PeopleSelectCB);

	push	OFFSET ?PeopleSelectCB@@YAXJFPAVC_Base@@@Z ; PeopleSelectCB
	mov	edx, DWORD PTR _tree$[ebp]
	mov	eax, DWORD PTR [edx]
	mov	ecx, DWORD PTR _tree$[ebp]
	mov	edx, DWORD PTR [eax+100]
	call	edx
$LN2@HookupComm:

; 2401 : 	}
; 2402 : 
; 2403 : // Help GUIDE thing
; 2404 : 	ctrl=(C_Button*)winme->FindControl(UI_HELP_GUIDE);

	push	2501					; 000009c5H
	mov	ecx, DWORD PTR _winme$[ebp]
	call	?FindControl@C_Window@@QAEPAVC_Base@@J@Z ; C_Window::FindControl
	mov	DWORD PTR _ctrl$[ebp], eax

; 2405 : 	if(ctrl)

	cmp	DWORD PTR _ctrl$[ebp], 0
	je	SHORT $LN1@HookupComm

; 2406 : 		ctrl->SetCallback(UI_Help_Guide_CB);

	push	OFFSET ?UI_Help_Guide_CB@@YAXJFPAVC_Base@@@Z ; UI_Help_Guide_CB
	mov	eax, DWORD PTR _ctrl$[ebp]
	mov	edx, DWORD PTR [eax]
	mov	ecx, DWORD PTR _ctrl$[ebp]
	mov	eax, DWORD PTR [edx+100]
	call	eax
$LN1@HookupComm:

; 2407 : 
; 2408 : 	HookupServerBrowserControls(JETNET_WIN);

	push	70166					; 00011216H
	call	?HookupServerBrowserControls@@YAXJ@Z	; HookupServerBrowserControls
	add	esp, 4
$LN18@HookupComm:

; 2409 : }

	mov	esp, ebp
	pop	ebp
	ret	0
?HookupCommsControls@@YAXJ@Z ENDP			; HookupCommsControls
_TEXT	ENDS
; Function compile flags: /Odtp
; File c:\users\zhitao li\documents\visual studio 2012\projects\freefalcon\ui\src\comms\ui_comms.cpp
_TEXT	SEGMENT
tv92 = -12						; size = 4
tv76 = -8						; size = 4
tv95 = -4						; size = 4
?UI_Refresh@@YAXXZ PROC					; UI_Refresh

; 2020 : {

	push	ebp
	mov	ebp, esp
	sub	esp, 12					; 0000000cH

; 2021 : 	if (!FalconLocalGame || !gCommsMgr || !gMainHandler){

	mov	ecx, OFFSET ?vuLocalSessionEntity@@3V?$VuBin@VVuSessionEntity@@@@A ; vuLocalSessionEntity
	call	??B?$VuBin@VVuSessionEntity@@@@QBE_NXZ	; VuBin<VuSessionEntity>::operator bool
	movzx	eax, al
	test	eax, eax
	je	SHORT $LN11@UI_Refresh
	mov	ecx, OFFSET ?vuLocalSessionEntity@@3V?$VuBin@VVuSessionEntity@@@@A ; vuLocalSessionEntity
	call	?get@?$VuBin@VVuSessionEntity@@@@QBEPAVVuSessionEntity@@XZ ; VuBin<VuSessionEntity>::get
	mov	ecx, eax
	call	?GetGame@FalconSessionEntity@@QAEPAVFalconGameEntity@@XZ ; FalconSessionEntity::GetGame
	mov	DWORD PTR tv76[ebp], eax
	jmp	SHORT $LN12@UI_Refresh
$LN11@UI_Refresh:
	mov	DWORD PTR tv76[ebp], 0
$LN12@UI_Refresh:
	cmp	DWORD PTR tv76[ebp], 0
	je	SHORT $LN7@UI_Refresh
	cmp	DWORD PTR ?gCommsMgr@@3PAVUIComms@@A, 0	; gCommsMgr
	je	SHORT $LN7@UI_Refresh
	cmp	DWORD PTR ?gMainHandler@@3PAVC_Handler@@A, 0 ; gMainHandler
	jne	SHORT $LN8@UI_Refresh
$LN7@UI_Refresh:

; 2022 : 		return;

	jmp	$LN9@UI_Refresh
$LN8@UI_Refresh:

; 2023 : 	}
; 2024 : 
; 2025 : 	// Do UI Notification stuff
; 2026 : 	switch (FalconLocalGame->GetGameType())

	mov	ecx, OFFSET ?vuLocalSessionEntity@@3V?$VuBin@VVuSessionEntity@@@@A ; vuLocalSessionEntity
	call	??B?$VuBin@VVuSessionEntity@@@@QBE_NXZ	; VuBin<VuSessionEntity>::operator bool
	movzx	ecx, al
	test	ecx, ecx
	je	SHORT $LN13@UI_Refresh
	mov	ecx, OFFSET ?vuLocalSessionEntity@@3V?$VuBin@VVuSessionEntity@@@@A ; vuLocalSessionEntity
	call	?get@?$VuBin@VVuSessionEntity@@@@QBEPAVVuSessionEntity@@XZ ; VuBin<VuSessionEntity>::get
	mov	ecx, eax
	call	?GetGame@FalconSessionEntity@@QAEPAVFalconGameEntity@@XZ ; FalconSessionEntity::GetGame
	mov	DWORD PTR tv92[ebp], eax
	jmp	SHORT $LN14@UI_Refresh
$LN13@UI_Refresh:
	mov	DWORD PTR tv92[ebp], 0
$LN14@UI_Refresh:
	mov	ecx, DWORD PTR tv92[ebp]
	call	?GetGameType@FalconGameEntity@@QAE?AW4FalconGameType@@XZ ; FalconGameEntity::GetGameType
	mov	DWORD PTR tv95[ebp], eax
	cmp	DWORD PTR tv95[ebp], 2
	je	SHORT $LN4@UI_Refresh
	cmp	DWORD PTR tv95[ebp], 3
	je	SHORT $LN3@UI_Refresh
	cmp	DWORD PTR tv95[ebp], 4
	je	SHORT $LN2@UI_Refresh
	jmp	SHORT $LN9@UI_Refresh
$LN4@UI_Refresh:

; 2027 : 	{
; 2028 : 		case game_Dogfight:
; 2029 : 			PostMessage(FalconDisplay.appWin,FM_REFRESH_DOGFIGHT,0,0);

	push	0
	push	0
	push	1063					; 00000427H
	mov	edx, DWORD PTR ?FalconDisplay@@3VFalconDisplayConfiguration@@A+108
	push	edx
	call	DWORD PTR __imp__PostMessageA@16

; 2030 : 			break;

	jmp	SHORT $LN9@UI_Refresh
$LN3@UI_Refresh:

; 2031 : 		
; 2032 : 		case game_TacticalEngagement:
; 2033 : 			PostMessage(FalconDisplay.appWin,FM_REFRESH_TACTICAL,0,0);

	push	0
	push	0
	push	1064					; 00000428H
	mov	eax, DWORD PTR ?FalconDisplay@@3VFalconDisplayConfiguration@@A+108
	push	eax
	call	DWORD PTR __imp__PostMessageA@16

; 2034 : 			break;

	jmp	SHORT $LN9@UI_Refresh
$LN2@UI_Refresh:

; 2035 : 
; 2036 : 		case game_Campaign:
; 2037 : 			PostMessage(FalconDisplay.appWin,FM_REFRESH_CAMPAIGN,0,0);

	push	0
	push	0
	push	1065					; 00000429H
	mov	ecx, DWORD PTR ?FalconDisplay@@3VFalconDisplayConfiguration@@A+108
	push	ecx
	call	DWORD PTR __imp__PostMessageA@16
$LN9@UI_Refresh:

; 2038 : 			break;
; 2039 : 		default:
; 2040 : 			break;
; 2041 : 	}
; 2042 : }

	mov	esp, ebp
	pop	ebp
	ret	0
?UI_Refresh@@YAXXZ ENDP					; UI_Refresh
_TEXT	ENDS
; Function compile flags: /Odtp
; File c:\users\zhitao li\documents\visual studio 2012\projects\freefalcon\ui\src\comms\ui_comms.cpp
_TEXT	SEGMENT
$T1 = -28						; size = 8
$T2 = -20						; size = 8
_item$ = -12						; size = 4
_tree$ = -8						; size = 4
_plyr$ = -4						; size = 4
___formal$ = 8						; size = 4
_hittype$ = 12						; size = 2
___formal$ = 16						; size = 4
?IgnorePlayerCB@@YAXJFPAVC_Base@@@Z PROC		; IgnorePlayerCB

; 1557 : {

	push	ebp
	mov	ebp, esp
	sub	esp, 28					; 0000001cH

; 1558 : 	C_TreeList  *tree;
; 1559 : 	TREELIST    *item;
; 1560 : 	C_Player	*plyr;
; 1561 : 
; 1562 : 	if(hittype != C_TYPE_LMOUSEUP)

	movsx	eax, WORD PTR _hittype$[ebp]
	cmp	eax, 52					; 00000034H
	je	SHORT $LN8@IgnorePlay

; 1563 : 		return;

	jmp	$LN9@IgnorePlay
$LN8@IgnorePlay:

; 1564 : 
; 1565 : 	if(gPopupMgr->GetCallingType() == C_TYPE_CONTROL)

	mov	ecx, DWORD PTR ?gPopupMgr@@3PAVC_PopupMgr@@A ; gPopupMgr
	call	?GetCallingType@C_PopupMgr@@QAEFXZ	; C_PopupMgr::GetCallingType
	movsx	ecx, ax
	cmp	ecx, 72					; 00000048H
	jne	$LN7@IgnorePlay

; 1566 : 	{
; 1567 : 		tree=(C_TreeList*)gPopupMgr->GetCallingControl();

	mov	ecx, DWORD PTR ?gPopupMgr@@3PAVC_PopupMgr@@A ; gPopupMgr
	call	?GetCallingControl@C_PopupMgr@@QAEPAVC_Base@@XZ ; C_PopupMgr::GetCallingControl
	mov	DWORD PTR _tree$[ebp], eax

; 1568 : 		if(tree)

	cmp	DWORD PTR _tree$[ebp], 0
	je	SHORT $LN7@IgnorePlay

; 1569 : 		{
; 1570 : 			item=tree->GetLastItem();

	mov	ecx, DWORD PTR _tree$[ebp]
	call	?GetLastItem@C_TreeList@@QAEPAVTREELIST@@XZ ; C_TreeList::GetLastItem
	mov	DWORD PTR _item$[ebp], eax

; 1571 : 			if(item)

	cmp	DWORD PTR _item$[ebp], 0
	je	SHORT $LN7@IgnorePlay

; 1572 : 			{
; 1573 : 				plyr=(C_Player *)item->Item_;

	mov	edx, DWORD PTR _item$[ebp]
	mov	eax, DWORD PTR [edx+20]
	mov	DWORD PTR _plyr$[ebp], eax

; 1574 : 				if(plyr)

	cmp	DWORD PTR _plyr$[ebp], 0
	je	SHORT $LN7@IgnorePlay

; 1575 : 				{
; 1576 : 					if(plyr->GetVUID() != FalconLocalSession->Id())

	lea	ecx, DWORD PTR $T2[ebp]
	push	ecx
	mov	ecx, OFFSET ?vuLocalSessionEntity@@3V?$VuBin@VVuSessionEntity@@@@A ; vuLocalSessionEntity
	call	?get@?$VuBin@VVuSessionEntity@@@@QBEPAVVuSessionEntity@@XZ ; VuBin<VuSessionEntity>::get
	mov	ecx, eax
	call	?Id@VuEntity@@QBE?AVVU_ID@@XZ		; VuEntity::Id
	push	eax
	lea	edx, DWORD PTR $T1[ebp]
	push	edx
	mov	ecx, DWORD PTR _plyr$[ebp]
	call	?GetVUID@C_Player@@QAE?AVVU_ID@@XZ	; C_Player::GetVUID
	mov	ecx, eax
	call	??9VU_ID@@QBE_NABV0@@Z			; VU_ID::operator!=
	movzx	eax, al
	test	eax, eax
	je	SHORT $LN7@IgnorePlay

; 1577 : 					{
; 1578 : 						if(plyr->GetIgnore())

	mov	ecx, DWORD PTR _plyr$[ebp]
	call	?GetIgnore@C_Player@@QAEFXZ		; C_Player::GetIgnore
	movsx	ecx, ax
	test	ecx, ecx
	je	SHORT $LN2@IgnorePlay

; 1579 : 							plyr->SetIgnore(0);

	push	0
	mov	ecx, DWORD PTR _plyr$[ebp]
	call	?SetIgnore@C_Player@@QAEXF@Z		; C_Player::SetIgnore

; 1580 : 						else

	jmp	SHORT $LN7@IgnorePlay
$LN2@IgnorePlay:

; 1581 : 							plyr->SetIgnore(1);

	push	1
	mov	ecx, DWORD PTR _plyr$[ebp]
	call	?SetIgnore@C_Player@@QAEXF@Z		; C_Player::SetIgnore
$LN7@IgnorePlay:

; 1582 : 					}
; 1583 : 				}
; 1584 : 			}
; 1585 : 		}
; 1586 : 	}
; 1587 : 	gPopupMgr->CloseMenu();

	mov	ecx, DWORD PTR ?gPopupMgr@@3PAVC_PopupMgr@@A ; gPopupMgr
	call	?CloseMenu@C_PopupMgr@@QAEXXZ		; C_PopupMgr::CloseMenu
$LN9@IgnorePlay:

; 1588 : }

	mov	esp, ebp
	pop	ebp
	ret	0
?IgnorePlayerCB@@YAXJFPAVC_Base@@@Z ENDP		; IgnorePlayerCB
_TEXT	ENDS
; Function compile flags: /Odtp
; File c:\users\zhitao li\documents\visual studio 2012\projects\freefalcon\ui\src\comms\ui_comms.cpp
_TEXT	SEGMENT
$T1 = -20						; size = 8
_item$ = -12						; size = 4
_tree$ = -8						; size = 4
_plyr$ = -4						; size = 4
___formal$ = 8						; size = 4
_hittype$ = 12						; size = 2
___formal$ = 16						; size = 4
?MutePlayerCB@@YAXJFPAVC_Base@@@Z PROC			; MutePlayerCB

; 1523 : {

	push	ebp
	mov	ebp, esp
	sub	esp, 20					; 00000014H

; 1524 : 	C_TreeList  *tree;
; 1525 : 	TREELIST    *item;
; 1526 : 	C_Player	*plyr;
; 1527 : 
; 1528 : 	if(hittype != C_TYPE_LMOUSEUP)

	movsx	eax, WORD PTR _hittype$[ebp]
	cmp	eax, 52					; 00000034H
	je	SHORT $LN8@MutePlayer

; 1529 : 		return;

	jmp	$LN9@MutePlayer
$LN8@MutePlayer:

; 1530 : 
; 1531 : 	if(gPopupMgr->GetCallingType() == C_TYPE_CONTROL)

	mov	ecx, DWORD PTR ?gPopupMgr@@3PAVC_PopupMgr@@A ; gPopupMgr
	call	?GetCallingType@C_PopupMgr@@QAEFXZ	; C_PopupMgr::GetCallingType
	movsx	ecx, ax
	cmp	ecx, 72					; 00000048H
	jne	SHORT $LN7@MutePlayer

; 1532 : 	{
; 1533 : 		tree=(C_TreeList*)gPopupMgr->GetCallingControl();

	mov	ecx, DWORD PTR ?gPopupMgr@@3PAVC_PopupMgr@@A ; gPopupMgr
	call	?GetCallingControl@C_PopupMgr@@QAEPAVC_Base@@XZ ; C_PopupMgr::GetCallingControl
	mov	DWORD PTR _tree$[ebp], eax

; 1534 : 		if(tree)

	cmp	DWORD PTR _tree$[ebp], 0
	je	SHORT $LN7@MutePlayer

; 1535 : 		{
; 1536 : 			item=tree->GetLastItem();

	mov	ecx, DWORD PTR _tree$[ebp]
	call	?GetLastItem@C_TreeList@@QAEPAVTREELIST@@XZ ; C_TreeList::GetLastItem
	mov	DWORD PTR _item$[ebp], eax

; 1537 : 			if(item)

	cmp	DWORD PTR _item$[ebp], 0
	je	SHORT $LN7@MutePlayer

; 1538 : 			{
; 1539 : 				plyr=(C_Player *)item->Item_;

	mov	edx, DWORD PTR _item$[ebp]
	mov	eax, DWORD PTR [edx+20]
	mov	DWORD PTR _plyr$[ebp], eax

; 1540 : 				if(plyr)

	cmp	DWORD PTR _plyr$[ebp], 0
	je	SHORT $LN7@MutePlayer

; 1541 : 				{
; 1542 : 					if(plyr->GetVUID() != FalconLocalSessionId)

	push	OFFSET ?vuLocalSession@@3VVU_ID@@A	; vuLocalSession
	lea	ecx, DWORD PTR $T1[ebp]
	push	ecx
	mov	ecx, DWORD PTR _plyr$[ebp]
	call	?GetVUID@C_Player@@QAE?AVVU_ID@@XZ	; C_Player::GetVUID
	mov	ecx, eax
	call	??9VU_ID@@QBE_NABV0@@Z			; VU_ID::operator!=
	movzx	edx, al
	test	edx, edx
	je	SHORT $LN7@MutePlayer

; 1543 : 					{
; 1544 : 						if(plyr->GetMute())

	mov	ecx, DWORD PTR _plyr$[ebp]
	call	?GetMute@C_Player@@QAEFXZ		; C_Player::GetMute
	cwde
	test	eax, eax
	je	SHORT $LN2@MutePlayer

; 1545 : 							plyr->SetMute(0);

	push	0
	mov	ecx, DWORD PTR _plyr$[ebp]
	call	?SetMute@C_Player@@QAEXF@Z		; C_Player::SetMute

; 1546 : 						else

	jmp	SHORT $LN7@MutePlayer
$LN2@MutePlayer:

; 1547 : 							plyr->SetMute(1);

	push	1
	mov	ecx, DWORD PTR _plyr$[ebp]
	call	?SetMute@C_Player@@QAEXF@Z		; C_Player::SetMute
$LN7@MutePlayer:

; 1548 : 					}
; 1549 : 				}
; 1550 : 			}
; 1551 : 		}
; 1552 : 	}
; 1553 : 	gPopupMgr->CloseMenu();

	mov	ecx, DWORD PTR ?gPopupMgr@@3PAVC_PopupMgr@@A ; gPopupMgr
	call	?CloseMenu@C_PopupMgr@@QAEXXZ		; C_PopupMgr::CloseMenu
$LN9@MutePlayer:

; 1554 : }

	mov	esp, ebp
	pop	ebp
	ret	0
?MutePlayerCB@@YAXJFPAVC_Base@@@Z ENDP			; MutePlayerCB
_TEXT	ENDS
; Function compile flags: /Odtp
; File c:\users\zhitao li\documents\visual studio 2012\projects\freefalcon\ui\src\comms\ui_comms.cpp
_TEXT	SEGMENT
?SetSingle_Comms_Ctrls@@YAXXZ PROC			; SetSingle_Comms_Ctrls

; 1090 : {

	push	ebp
	mov	ebp, esp

; 1091 : //	SetOnlineStatus(IA_TOOLBAR_WIN); // Single player ONLY for Instant Action
; 1092 : 	SetOnlineStatus(DF_TOOLBAR_WIN);

	push	21050					; 0000523aH
	call	?SetOnlineStatus@@YAXJ@Z		; SetOnlineStatus
	add	esp, 4

; 1093 : 	SetOnlineStatus(DF_PLAY_TOOLBAR_WIN);

	push	21883					; 0000557bH
	call	?SetOnlineStatus@@YAXJ@Z		; SetOnlineStatus
	add	esp, 4

; 1094 : 	SetOnlineStatus(TAC_TOOLBAR_WIN);

	push	30402					; 000076c2H
	call	?SetOnlineStatus@@YAXJ@Z		; SetOnlineStatus
	add	esp, 4

; 1095 : 	SetOnlineStatus(TAC_LOAD_TOOLBAR);

	push	30209					; 00007601H
	call	?SetOnlineStatus@@YAXJ@Z		; SetOnlineStatus
	add	esp, 4

; 1096 : 	SetOnlineStatus(CP_TOOLBAR);

	push	6013					; 0000177dH
	call	?SetOnlineStatus@@YAXJ@Z		; SetOnlineStatus
	add	esp, 4

; 1097 : 	SetOnlineStatus(CS_TOOLBAR_WIN);

	push	40500					; 00009e34H
	call	?SetOnlineStatus@@YAXJ@Z		; SetOnlineStatus
	add	esp, 4

; 1098 : }

	pop	ebp
	ret	0
?SetSingle_Comms_Ctrls@@YAXXZ ENDP			; SetSingle_Comms_Ctrls
_TEXT	ENDS
; Function compile flags: /Odtp
; File c:\users\zhitao li\documents\visual studio 2012\projects\freefalcon\ui\src\comms\ui_comms.cpp
_TEXT	SEGMENT
_dbiter$2 = -60						; size = 24
_filter$3 = -36						; size = 8
_gamename$ = -28					; size = 4
tv180 = -24						; size = 4
_gametype$ = -20					; size = 4
_game$4 = -16						; size = 4
__$EHRec$ = -12						; size = 12
?RebuildGameTree@@YAXXZ PROC				; RebuildGameTree

; 1679 : {

	push	ebp
	mov	ebp, esp
	push	-1
	push	__ehhandler$?RebuildGameTree@@YAXXZ
	mov	eax, DWORD PTR fs:0
	push	eax
	sub	esp, 48					; 00000030H
	mov	eax, DWORD PTR ___security_cookie
	xor	eax, ebp
	push	eax
	lea	eax, DWORD PTR __$EHRec$[ebp]
	mov	DWORD PTR fs:0, eax

; 1680 : 	_TCHAR *gamename;
; 1681 : 	FalconGameType gametype;
; 1682 : 
; 1683 : 	if(People)

	cmp	DWORD PTR ?People@@3PAVC_TreeList@@A, 0	; People
	je	SHORT $LN31@RebuildGam

; 1684 : 		People->Refresh();

	mov	eax, DWORD PTR ?People@@3PAVC_TreeList@@A ; People
	mov	edx, DWORD PTR [eax]
	mov	ecx, DWORD PTR ?People@@3PAVC_TreeList@@A ; People
	mov	eax, DWORD PTR [edx+160]
	call	eax
$LN31@RebuildGam:

; 1685 : 	if(DogfightGames)

	cmp	DWORD PTR ?DogfightGames@@3PAVC_TreeList@@A, 0 ; DogfightGames
	je	SHORT $LN30@RebuildGam

; 1686 : 		DogfightGames->Refresh();

	mov	ecx, DWORD PTR ?DogfightGames@@3PAVC_TreeList@@A ; DogfightGames
	mov	edx, DWORD PTR [ecx]
	mov	ecx, DWORD PTR ?DogfightGames@@3PAVC_TreeList@@A ; DogfightGames
	mov	eax, DWORD PTR [edx+160]
	call	eax
$LN30@RebuildGam:

; 1687 : 	if(TacticalGames)

	cmp	DWORD PTR ?TacticalGames@@3PAVC_TreeList@@A, 0 ; TacticalGames
	je	SHORT $LN29@RebuildGam

; 1688 : 		TacticalGames->Refresh();

	mov	ecx, DWORD PTR ?TacticalGames@@3PAVC_TreeList@@A ; TacticalGames
	mov	edx, DWORD PTR [ecx]
	mov	ecx, DWORD PTR ?TacticalGames@@3PAVC_TreeList@@A ; TacticalGames
	mov	eax, DWORD PTR [edx+160]
	call	eax
$LN29@RebuildGam:

; 1689 : 	if(CampaignGames)

	cmp	DWORD PTR ?CampaignGames@@3PAVC_TreeList@@A, 0 ; CampaignGames
	je	SHORT $LN28@RebuildGam

; 1690 : 		CampaignGames->Refresh();

	mov	ecx, DWORD PTR ?CampaignGames@@3PAVC_TreeList@@A ; CampaignGames
	mov	edx, DWORD PTR [ecx]
	mov	ecx, DWORD PTR ?CampaignGames@@3PAVC_TreeList@@A ; CampaignGames
	mov	eax, DWORD PTR [edx+160]
	call	eax
$LN28@RebuildGam:

; 1691 : 
; 1692 : 	if ((gCommsMgr) && (gCommsMgr->Online()))

	cmp	DWORD PTR ?gCommsMgr@@3PAVUIComms@@A, 0	; gCommsMgr
	je	$LN27@RebuildGam
	mov	ecx, DWORD PTR ?gCommsMgr@@3PAVUIComms@@A ; gCommsMgr
	call	?Online@UIComms@@QAEHXZ			; UIComms::Online
	test	eax, eax
	je	$LN27@RebuildGam

; 1693 : 	{
; 1694 : 		UpdateLocalGameTree(); // Updates Game in Chat window (Current area we are in)

	call	?UpdateLocalGameTree@@YAXXZ		; UpdateLocalGameTree

; 1695 : 
; 1696 : 		if(DogfightGames)

	cmp	DWORD PTR ?DogfightGames@@3PAVC_TreeList@@A, 0 ; DogfightGames
	je	SHORT $LN26@RebuildGam

; 1697 : 			TrimPlayerTree(DogfightGames,DogfightGames->GetRoot());

	mov	ecx, DWORD PTR ?DogfightGames@@3PAVC_TreeList@@A ; DogfightGames
	call	?GetRoot@C_TreeList@@QAEPAVTREELIST@@XZ	; C_TreeList::GetRoot
	push	eax
	mov	ecx, DWORD PTR ?DogfightGames@@3PAVC_TreeList@@A ; DogfightGames
	push	ecx
	call	?TrimPlayerTree@@YAXPAVC_TreeList@@PAVTREELIST@@@Z ; TrimPlayerTree
	add	esp, 8
$LN26@RebuildGam:

; 1698 : 		if(TacticalGames)

	cmp	DWORD PTR ?TacticalGames@@3PAVC_TreeList@@A, 0 ; TacticalGames
	je	SHORT $LN25@RebuildGam

; 1699 : 			TrimPlayerTree(TacticalGames,TacticalGames->GetRoot());

	mov	ecx, DWORD PTR ?TacticalGames@@3PAVC_TreeList@@A ; TacticalGames
	call	?GetRoot@C_TreeList@@QAEPAVTREELIST@@XZ	; C_TreeList::GetRoot
	push	eax
	mov	edx, DWORD PTR ?TacticalGames@@3PAVC_TreeList@@A ; TacticalGames
	push	edx
	call	?TrimPlayerTree@@YAXPAVC_TreeList@@PAVTREELIST@@@Z ; TrimPlayerTree
	add	esp, 8
$LN25@RebuildGam:

; 1700 : 		if(CampaignGames)

	cmp	DWORD PTR ?CampaignGames@@3PAVC_TreeList@@A, 0 ; CampaignGames
	je	SHORT $LN24@RebuildGam

; 1701 : 			TrimPlayerTree(CampaignGames,CampaignGames->GetRoot());

	mov	ecx, DWORD PTR ?CampaignGames@@3PAVC_TreeList@@A ; CampaignGames
	call	?GetRoot@C_TreeList@@QAEPAVTREELIST@@XZ	; C_TreeList::GetRoot
	push	eax
	mov	eax, DWORD PTR ?CampaignGames@@3PAVC_TreeList@@A ; CampaignGames
	push	eax
	call	?TrimPlayerTree@@YAXPAVC_TreeList@@PAVTREELIST@@@Z ; TrimPlayerTree
	add	esp, 8
$LN24@RebuildGam:

; 1702 : 
; 1703 : 		VuDatabaseIterator dbiter;

	lea	ecx, DWORD PTR _dbiter$2[ebp]
	call	??0VuDatabaseIterator@@QAE@XZ		; VuDatabaseIterator::VuDatabaseIterator
	mov	DWORD PTR __$EHRec$[ebp+8], 0

; 1704 : 		VuTypeFilter filter(static_cast<unsigned short>(F4GameType+VU_LAST_ENTITY_TYPE));

	mov	ecx, DWORD PTR ?F4GameType@@3HA		; F4GameType
	add	ecx, 100				; 00000064H
	push	ecx
	lea	ecx, DWORD PTR _filter$3[ebp]
	call	??0VuTypeFilter@@QAE@G@Z		; VuTypeFilter::VuTypeFilter
	mov	BYTE PTR __$EHRec$[ebp+8], 1

; 1705 : 		FalconGameEntity *game;
; 1706 : 
; 1707 : 		game = (FalconGameEntity*)dbiter.GetFirst(&filter);

	lea	edx, DWORD PTR _filter$3[ebp]
	push	edx
	lea	ecx, DWORD PTR _dbiter$2[ebp]
	call	?GetFirst@VuHashIterator@@QAEPAVVuEntity@@PAVVuFilter@@@Z ; VuHashIterator::GetFirst
	mov	DWORD PTR _game$4[ebp], eax
$LN23@RebuildGam:

; 1708 : 		while(game)

	cmp	DWORD PTR _game$4[ebp], 0
	je	$LN22@RebuildGam

; 1709 : 		{
; 1710 : 			gametype=game->GetGameType();

	mov	ecx, DWORD PTR _game$4[ebp]
	call	?GetGameType@FalconGameEntity@@QAE?AW4FalconGameType@@XZ ; FalconGameEntity::GetGameType
	mov	DWORD PTR _gametype$[ebp], eax

; 1711 : 			gamename=game->GameName();

	mov	ecx, DWORD PTR _game$4[ebp]
	call	?GameName@VuGameEntity@@QAEPADXZ	; VuGameEntity::GameName
	mov	DWORD PTR _gamename$[ebp], eax

; 1712 : 
; 1713 : 			switch(gametype)

	mov	eax, DWORD PTR _gametype$[ebp]
	mov	DWORD PTR tv180[ebp], eax
	cmp	DWORD PTR tv180[ebp], 2
	je	SHORT $LN19@RebuildGam
	cmp	DWORD PTR tv180[ebp], 3
	je	SHORT $LN17@RebuildGam
	cmp	DWORD PTR tv180[ebp], 4
	je	SHORT $LN15@RebuildGam
	jmp	$LN20@RebuildGam
$LN19@RebuildGam:

; 1714 : 			{
; 1715 : 				case game_Dogfight:
; 1716 : 					if(DogfightGames)

	cmp	DWORD PTR ?DogfightGames@@3PAVC_TreeList@@A, 0 ; DogfightGames
	je	SHORT $LN18@RebuildGam

; 1717 : 						UpdateGameTreeBranch(gametype,game,DogfightGames,DogfightGames->GetRoot(),FALSE);

	push	0
	mov	ecx, DWORD PTR ?DogfightGames@@3PAVC_TreeList@@A ; DogfightGames
	call	?GetRoot@C_TreeList@@QAEPAVTREELIST@@XZ	; C_TreeList::GetRoot
	push	eax
	mov	ecx, DWORD PTR ?DogfightGames@@3PAVC_TreeList@@A ; DogfightGames
	push	ecx
	mov	edx, DWORD PTR _game$4[ebp]
	push	edx
	mov	eax, DWORD PTR _gametype$[ebp]
	push	eax
	call	?UpdateGameTreeBranch@@YAXJPAVVuGameEntity@@PAVC_TreeList@@PAVTREELIST@@H@Z ; UpdateGameTreeBranch
	add	esp, 20					; 00000014H
$LN18@RebuildGam:

; 1718 : 					break;

	jmp	SHORT $LN20@RebuildGam
$LN17@RebuildGam:

; 1719 : 				case game_TacticalEngagement:
; 1720 : 					if(TacticalGames)

	cmp	DWORD PTR ?TacticalGames@@3PAVC_TreeList@@A, 0 ; TacticalGames
	je	SHORT $LN16@RebuildGam

; 1721 : 						UpdateGameTreeBranch(gametype,game,TacticalGames,TacticalGames->GetRoot(),FALSE);

	push	0
	mov	ecx, DWORD PTR ?TacticalGames@@3PAVC_TreeList@@A ; TacticalGames
	call	?GetRoot@C_TreeList@@QAEPAVTREELIST@@XZ	; C_TreeList::GetRoot
	push	eax
	mov	ecx, DWORD PTR ?TacticalGames@@3PAVC_TreeList@@A ; TacticalGames
	push	ecx
	mov	edx, DWORD PTR _game$4[ebp]
	push	edx
	mov	eax, DWORD PTR _gametype$[ebp]
	push	eax
	call	?UpdateGameTreeBranch@@YAXJPAVVuGameEntity@@PAVC_TreeList@@PAVTREELIST@@H@Z ; UpdateGameTreeBranch
	add	esp, 20					; 00000014H
$LN16@RebuildGam:

; 1722 : 					break;

	jmp	SHORT $LN20@RebuildGam
$LN15@RebuildGam:

; 1723 : 				case game_Campaign:
; 1724 : 					if(CampaignGames)

	cmp	DWORD PTR ?CampaignGames@@3PAVC_TreeList@@A, 0 ; CampaignGames
	je	SHORT $LN20@RebuildGam

; 1725 : 						UpdateGameTreeBranch(gametype,game,CampaignGames,CampaignGames->GetRoot(),FALSE);

	push	0
	mov	ecx, DWORD PTR ?CampaignGames@@3PAVC_TreeList@@A ; CampaignGames
	call	?GetRoot@C_TreeList@@QAEPAVTREELIST@@XZ	; C_TreeList::GetRoot
	push	eax
	mov	ecx, DWORD PTR ?CampaignGames@@3PAVC_TreeList@@A ; CampaignGames
	push	ecx
	mov	edx, DWORD PTR _game$4[ebp]
	push	edx
	mov	eax, DWORD PTR _gametype$[ebp]
	push	eax
	call	?UpdateGameTreeBranch@@YAXJPAVVuGameEntity@@PAVC_TreeList@@PAVTREELIST@@H@Z ; UpdateGameTreeBranch
	add	esp, 20					; 00000014H
$LN20@RebuildGam:

; 1726 : 					break;
; 1727 : 			}
; 1728 : 			game = (FalconGameEntity*)dbiter.GetNext(&filter);

	lea	ecx, DWORD PTR _filter$3[ebp]
	push	ecx
	lea	ecx, DWORD PTR _dbiter$2[ebp]
	call	?GetNext@VuHashIterator@@QAEPAVVuEntity@@PAVVuFilter@@@Z ; VuHashIterator::GetNext
	mov	DWORD PTR _game$4[ebp], eax

; 1729 : 		}

	jmp	$LN23@RebuildGam
$LN22@RebuildGam:

; 1730 : 	}

	mov	BYTE PTR __$EHRec$[ebp+8], 0
	lea	ecx, DWORD PTR _filter$3[ebp]
	call	??1VuTypeFilter@@UAE@XZ			; VuTypeFilter::~VuTypeFilter
	mov	DWORD PTR __$EHRec$[ebp+8], -1
	lea	ecx, DWORD PTR _dbiter$2[ebp]
	call	??1VuDatabaseIterator@@UAE@XZ		; VuDatabaseIterator::~VuDatabaseIterator

; 1731 : 	else

	jmp	$LN13@RebuildGam
$LN27@RebuildGam:

; 1732 : 	{
; 1733 : 		if(People)

	cmp	DWORD PTR ?People@@3PAVC_TreeList@@A, 0	; People
	je	SHORT $LN12@RebuildGam

; 1734 : 			People->DeleteBranch(People->GetRoot());

	mov	ecx, DWORD PTR ?People@@3PAVC_TreeList@@A ; People
	call	?GetRoot@C_TreeList@@QAEPAVTREELIST@@XZ	; C_TreeList::GetRoot
	push	eax
	mov	ecx, DWORD PTR ?People@@3PAVC_TreeList@@A ; People
	call	?DeleteBranch@C_TreeList@@QAEXPAVTREELIST@@@Z ; C_TreeList::DeleteBranch
$LN12@RebuildGam:

; 1735 : 		if(DogfightGames)

	cmp	DWORD PTR ?DogfightGames@@3PAVC_TreeList@@A, 0 ; DogfightGames
	je	SHORT $LN11@RebuildGam

; 1736 : 			DogfightGames->DeleteBranch(DogfightGames->GetRoot());

	mov	ecx, DWORD PTR ?DogfightGames@@3PAVC_TreeList@@A ; DogfightGames
	call	?GetRoot@C_TreeList@@QAEPAVTREELIST@@XZ	; C_TreeList::GetRoot
	push	eax
	mov	ecx, DWORD PTR ?DogfightGames@@3PAVC_TreeList@@A ; DogfightGames
	call	?DeleteBranch@C_TreeList@@QAEXPAVTREELIST@@@Z ; C_TreeList::DeleteBranch
$LN11@RebuildGam:

; 1737 : 		if(TacticalGames)

	cmp	DWORD PTR ?TacticalGames@@3PAVC_TreeList@@A, 0 ; TacticalGames
	je	SHORT $LN10@RebuildGam

; 1738 : 			TacticalGames->DeleteBranch(TacticalGames->GetRoot());

	mov	ecx, DWORD PTR ?TacticalGames@@3PAVC_TreeList@@A ; TacticalGames
	call	?GetRoot@C_TreeList@@QAEPAVTREELIST@@XZ	; C_TreeList::GetRoot
	push	eax
	mov	ecx, DWORD PTR ?TacticalGames@@3PAVC_TreeList@@A ; TacticalGames
	call	?DeleteBranch@C_TreeList@@QAEXPAVTREELIST@@@Z ; C_TreeList::DeleteBranch
$LN10@RebuildGam:

; 1739 : 		if(CampaignGames)

	cmp	DWORD PTR ?CampaignGames@@3PAVC_TreeList@@A, 0 ; CampaignGames
	je	SHORT $LN13@RebuildGam

; 1740 : 			CampaignGames->DeleteBranch(CampaignGames->GetRoot());

	mov	ecx, DWORD PTR ?CampaignGames@@3PAVC_TreeList@@A ; CampaignGames
	call	?GetRoot@C_TreeList@@QAEPAVTREELIST@@XZ	; C_TreeList::GetRoot
	push	eax
	mov	ecx, DWORD PTR ?CampaignGames@@3PAVC_TreeList@@A ; CampaignGames
	call	?DeleteBranch@C_TreeList@@QAEXPAVTREELIST@@@Z ; C_TreeList::DeleteBranch
$LN13@RebuildGam:

; 1741 : 	}
; 1742 : 	if(People)

	cmp	DWORD PTR ?People@@3PAVC_TreeList@@A, 0	; People
	je	SHORT $LN8@RebuildGam

; 1743 : 	{
; 1744 : 		People->RecalcSize();

	mov	ecx, DWORD PTR ?People@@3PAVC_TreeList@@A ; People
	call	?RecalcSize@C_TreeList@@QAEXXZ		; C_TreeList::RecalcSize

; 1745 : 		if(People->Parent_)

	mov	edx, DWORD PTR ?People@@3PAVC_TreeList@@A ; People
	cmp	DWORD PTR [edx+48], 0
	je	SHORT $LN8@RebuildGam

; 1746 : 			People->Parent_->RefreshClient(People->GetClient());

	mov	ecx, DWORD PTR ?People@@3PAVC_TreeList@@A ; People
	call	?GetClient@C_Base@@QAEFXZ		; C_Base::GetClient
	cwde
	push	eax
	mov	ecx, DWORD PTR ?People@@3PAVC_TreeList@@A ; People
	mov	ecx, DWORD PTR [ecx+48]
	call	?RefreshClient@C_Window@@QAEXJ@Z	; C_Window::RefreshClient
$LN8@RebuildGam:

; 1747 : 	}
; 1748 : 	if(DogfightGames)

	cmp	DWORD PTR ?DogfightGames@@3PAVC_TreeList@@A, 0 ; DogfightGames
	je	SHORT $LN6@RebuildGam

; 1749 : 	{
; 1750 : 		DogfightGames->RecalcSize();

	mov	ecx, DWORD PTR ?DogfightGames@@3PAVC_TreeList@@A ; DogfightGames
	call	?RecalcSize@C_TreeList@@QAEXXZ		; C_TreeList::RecalcSize

; 1751 : 		if(DogfightGames->Parent_)

	mov	edx, DWORD PTR ?DogfightGames@@3PAVC_TreeList@@A ; DogfightGames
	cmp	DWORD PTR [edx+48], 0
	je	SHORT $LN6@RebuildGam

; 1752 : 			DogfightGames->Parent_->RefreshClient(DogfightGames->GetClient());

	mov	ecx, DWORD PTR ?DogfightGames@@3PAVC_TreeList@@A ; DogfightGames
	call	?GetClient@C_Base@@QAEFXZ		; C_Base::GetClient
	cwde
	push	eax
	mov	ecx, DWORD PTR ?DogfightGames@@3PAVC_TreeList@@A ; DogfightGames
	mov	ecx, DWORD PTR [ecx+48]
	call	?RefreshClient@C_Window@@QAEXJ@Z	; C_Window::RefreshClient
$LN6@RebuildGam:

; 1753 : 	}
; 1754 : 	if(TacticalGames)

	cmp	DWORD PTR ?TacticalGames@@3PAVC_TreeList@@A, 0 ; TacticalGames
	je	SHORT $LN4@RebuildGam

; 1755 : 	{
; 1756 : 		TacticalGames->RecalcSize();

	mov	ecx, DWORD PTR ?TacticalGames@@3PAVC_TreeList@@A ; TacticalGames
	call	?RecalcSize@C_TreeList@@QAEXXZ		; C_TreeList::RecalcSize

; 1757 : 		if(TacticalGames->Parent_)

	mov	edx, DWORD PTR ?TacticalGames@@3PAVC_TreeList@@A ; TacticalGames
	cmp	DWORD PTR [edx+48], 0
	je	SHORT $LN4@RebuildGam

; 1758 : 			TacticalGames->Parent_->RefreshClient(TacticalGames->GetClient());

	mov	ecx, DWORD PTR ?TacticalGames@@3PAVC_TreeList@@A ; TacticalGames
	call	?GetClient@C_Base@@QAEFXZ		; C_Base::GetClient
	cwde
	push	eax
	mov	ecx, DWORD PTR ?TacticalGames@@3PAVC_TreeList@@A ; TacticalGames
	mov	ecx, DWORD PTR [ecx+48]
	call	?RefreshClient@C_Window@@QAEXJ@Z	; C_Window::RefreshClient
$LN4@RebuildGam:

; 1759 : 	}
; 1760 : 	if(CampaignGames)

	cmp	DWORD PTR ?CampaignGames@@3PAVC_TreeList@@A, 0 ; CampaignGames
	je	SHORT $LN32@RebuildGam

; 1761 : 	{
; 1762 : 		CampaignGames->RecalcSize();

	mov	ecx, DWORD PTR ?CampaignGames@@3PAVC_TreeList@@A ; CampaignGames
	call	?RecalcSize@C_TreeList@@QAEXXZ		; C_TreeList::RecalcSize

; 1763 : 		if(CampaignGames->Parent_)

	mov	edx, DWORD PTR ?CampaignGames@@3PAVC_TreeList@@A ; CampaignGames
	cmp	DWORD PTR [edx+48], 0
	je	SHORT $LN32@RebuildGam

; 1764 : 			CampaignGames->Parent_->RefreshClient(CampaignGames->GetClient());

	mov	ecx, DWORD PTR ?CampaignGames@@3PAVC_TreeList@@A ; CampaignGames
	call	?GetClient@C_Base@@QAEFXZ		; C_Base::GetClient
	cwde
	push	eax
	mov	ecx, DWORD PTR ?CampaignGames@@3PAVC_TreeList@@A ; CampaignGames
	mov	ecx, DWORD PTR [ecx+48]
	call	?RefreshClient@C_Window@@QAEXJ@Z	; C_Window::RefreshClient
$LN32@RebuildGam:

; 1765 : 	}
; 1766 : }

	mov	ecx, DWORD PTR __$EHRec$[ebp]
	mov	DWORD PTR fs:0, ecx
	pop	ecx
	mov	esp, ebp
	pop	ebp
	ret	0
_TEXT	ENDS
text$x	SEGMENT
__unwindfunclet$?RebuildGameTree@@YAXXZ$0:
	lea	ecx, DWORD PTR _dbiter$2[ebp]
	jmp	??1VuDatabaseIterator@@UAE@XZ		; VuDatabaseIterator::~VuDatabaseIterator
__unwindfunclet$?RebuildGameTree@@YAXXZ$1:
	lea	ecx, DWORD PTR _filter$3[ebp]
	jmp	??1VuTypeFilter@@UAE@XZ			; VuTypeFilter::~VuTypeFilter
__ehhandler$?RebuildGameTree@@YAXXZ:
	mov	edx, DWORD PTR [esp+8]
	lea	eax, DWORD PTR [edx+12]
	mov	ecx, DWORD PTR [edx-52]
	xor	ecx, eax
	call	@__security_check_cookie@4
	mov	eax, OFFSET __ehfuncinfo$?RebuildGameTree@@YAXXZ
	jmp	___CxxFrameHandler3
text$x	ENDS
?RebuildGameTree@@YAXXZ ENDP				; RebuildGameTree
; Function compile flags: /Odtp
; File c:\users\zhitao li\documents\visual studio 2012\projects\freefalcon\ui\src\comms\ui_comms.cpp
_TEXT	SEGMENT
$T2 = -32						; size = 4
_win$ = -28						; size = 4
tv75 = -24						; size = 4
$T3 = -20						; size = 4
_tmr$ = -16						; size = 4
__$EHRec$ = -12						; size = 12
?CommsSetup@@YAXXZ PROC					; CommsSetup

; 296  : {

	push	ebp
	mov	ebp, esp
	push	-1
	push	__ehhandler$?CommsSetup@@YAXXZ
	mov	eax, DWORD PTR fs:0
	push	eax
	sub	esp, 20					; 00000014H
	mov	eax, DWORD PTR ___security_cookie
	xor	eax, ebp
	push	eax
	lea	eax, DWORD PTR __$EHRec$[ebp]
	mov	DWORD PTR fs:0, eax

; 297  : 	C_Window *win;
; 298  : 	C_TimerHook *tmr;
; 299  : 
; 300  : 	CurChatY=0;

	mov	DWORD PTR _CurChatY, 0

; 301  : 
; 302  : 	win=gMainHandler->FindWindow(UI_MAIN_SCREEN);

	push	5000					; 00001388H
	mov	ecx, DWORD PTR ?gMainHandler@@3PAVC_Handler@@A ; gMainHandler
	call	?FindWindowA@C_Handler@@QAEPAVC_Window@@J@Z ; C_Handler::FindWindowA
	mov	DWORD PTR _win$[ebp], eax

; 303  : 	if(win)

	cmp	DWORD PTR _win$[ebp], 0
	je	SHORT $LN1@CommsSetup

; 304  : 	{
; 305  : 		tmr=new C_TimerHook;

	push	68					; 00000044H
	call	??2@YAPAXI@Z				; operator new
	add	esp, 4
	mov	DWORD PTR $T3[ebp], eax
	mov	DWORD PTR __$EHRec$[ebp+8], 0
	cmp	DWORD PTR $T3[ebp], 0
	je	SHORT $LN4@CommsSetup
	mov	ecx, DWORD PTR $T3[ebp]
	call	??0C_TimerHook@@QAE@XZ			; C_TimerHook::C_TimerHook
	mov	DWORD PTR tv75[ebp], eax
	jmp	SHORT $LN5@CommsSetup
$LN4@CommsSetup:
	mov	DWORD PTR tv75[ebp], 0
$LN5@CommsSetup:
	mov	eax, DWORD PTR tv75[ebp]
	mov	DWORD PTR $T2[ebp], eax
	mov	DWORD PTR __$EHRec$[ebp+8], -1
	mov	ecx, DWORD PTR $T2[ebp]
	mov	DWORD PTR _tmr$[ebp], ecx

; 306  : 		tmr->Setup(C_DONT_CARE,C_TYPE_TIMER);

	push	67					; 00000043H
	push	-2					; fffffffeH
	mov	ecx, DWORD PTR _tmr$[ebp]
	call	?Setup@C_TimerHook@@QAEXJF@Z		; C_TimerHook::Setup

; 307  : 		tmr->SetUpdateCallback(GenericTimerCB);

	push	OFFSET ?GenericTimerCB@@YAXJFPAVC_Base@@@Z ; GenericTimerCB
	mov	ecx, DWORD PTR _tmr$[ebp]
	call	?SetUpdateCallback@C_TimerHook@@QAEXP6AXJFPAVC_Base@@@Z@Z ; C_TimerHook::SetUpdateCallback

; 308  : 		tmr->SetRefreshCallback(BlinkCommsButtonTimerCB);

	push	OFFSET ?BlinkCommsButtonTimerCB@@YAXJFPAVC_Base@@@Z ; BlinkCommsButtonTimerCB
	mov	ecx, DWORD PTR _tmr$[ebp]
	call	?SetRefreshCallback@C_TimerHook@@QAEXP6AXJFPAVC_Base@@@Z@Z ; C_TimerHook::SetRefreshCallback

; 309  : 		tmr->SetUserNumber(_UI95_TIMER_DELAY_,2*_UI95_TICKS_PER_SECOND_);

	push	20					; 00000014H
	push	4
	mov	ecx, DWORD PTR _tmr$[ebp]
	call	?SetUserNumber@C_Base@@QAEXJJ@Z		; C_Base::SetUserNumber

; 310  : 
; 311  : 		win->AddControl(tmr);

	mov	edx, DWORD PTR _tmr$[ebp]
	push	edx
	mov	ecx, DWORD PTR _win$[ebp]
	call	?AddControl@C_Window@@QAEXPAVC_Base@@@Z	; C_Window::AddControl
$LN1@CommsSetup:

; 312  : 	}
; 313  : 
; 314  : 	CopyPBToWindow(PB_WIN,0);

	push	0
	push	60004					; 0000ea64H
	call	?CopyPBToWindow@@YAXJJ@Z		; CopyPBToWindow
	add	esp, 8

; 315  : }

	mov	ecx, DWORD PTR __$EHRec$[ebp]
	mov	DWORD PTR fs:0, ecx
	pop	ecx
	mov	esp, ebp
	pop	ebp
	ret	0
_TEXT	ENDS
text$x	SEGMENT
__unwindfunclet$?CommsSetup@@YAXXZ$0:
	mov	eax, DWORD PTR $T3[ebp]
	push	eax
	call	??3@YAXPAX@Z				; operator delete
	pop	ecx
	ret	0
__ehhandler$?CommsSetup@@YAXXZ:
	mov	edx, DWORD PTR [esp+8]
	lea	eax, DWORD PTR [edx+12]
	mov	ecx, DWORD PTR [edx-24]
	xor	ecx, eax
	call	@__security_check_cookie@4
	mov	eax, OFFSET __ehfuncinfo$?CommsSetup@@YAXXZ
	jmp	___CxxFrameHandler3
text$x	ENDS
?CommsSetup@@YAXXZ ENDP					; CommsSetup
; Function compile flags: /Odtp
; File c:\users\zhitao li\documents\visual studio 2012\projects\freefalcon\ui\src\comms\ui_comms.cpp
_TEXT	SEGMENT
_ID$ = -8						; size = 4
_menu$ = -4						; size = 4
?LoadCommsWindows@@YAXXZ PROC				; LoadCommsWindows

; 259  : {

	push	ebp
	mov	ebp, esp
	sub	esp, 8

; 260  : 	long ID;
; 261  : 	C_PopupList *menu;
; 262  : 
; 263  : 	if(COLoaded) return;

	cmp	DWORD PTR ?COLoaded@@3HA, 0		; COLoaded
	je	SHORT $LN7@LoadCommsW
	jmp	$LN8@LoadCommsW
$LN7@LoadCommsW:

; 264  : 
; 265  : 	if( _LOAD_ART_RESOURCES_)

	cmp	DWORD PTR ?_LOAD_ART_RESOURCES_@@3JA, 0	; _LOAD_ART_RESOURCES_
	je	SHORT $LN6@LoadCommsW

; 266  : 		gMainParser->LoadImageList("comm_res.lst");

	push	OFFSET ??_C@_0N@KDGOBPCJ@comm_res?4lst?$AA@
	mov	ecx, DWORD PTR ?gMainParser@@3PAVC_Parser@@A ; gMainParser
	call	?LoadImageList@C_Parser@@QAEHPAD@Z	; C_Parser::LoadImageList

; 267  : 	else

	jmp	SHORT $LN5@LoadCommsW
$LN6@LoadCommsW:

; 268  : 		gMainParser->LoadImageList("comm_art.lst");

	push	OFFSET ??_C@_0N@OOCGLLBJ@comm_art?4lst?$AA@
	mov	ecx, DWORD PTR ?gMainParser@@3PAVC_Parser@@A ; gMainParser
	call	?LoadImageList@C_Parser@@QAEHPAD@Z	; C_Parser::LoadImageList
$LN5@LoadCommsW:

; 269  : 	gMainParser->LoadSoundList("comm_snd.lst");

	push	OFFSET ??_C@_0N@HDBAHJGO@comm_snd?4lst?$AA@
	mov	ecx, DWORD PTR ?gMainParser@@3PAVC_Parser@@A ; gMainParser
	call	?LoadSoundList@C_Parser@@QAEHPAD@Z	; C_Parser::LoadSoundList

; 270  : 	gMainParser->LoadWindowList("comm_scf.lst");	// Modified by M.N. - add art/art1024 by LoadWindowList

	push	OFFSET ??_C@_0N@FPAPLJKF@comm_scf?4lst?$AA@
	mov	ecx, DWORD PTR ?gMainParser@@3PAVC_Parser@@A ; gMainParser
	call	?LoadWindowList@C_Parser@@QAEHPAD@Z	; C_Parser::LoadWindowList

; 271  : 
; 272  : 	ID=gMainParser->GetFirstWindowLoaded();

	mov	ecx, DWORD PTR ?gMainParser@@3PAVC_Parser@@A ; gMainParser
	call	?GetFirstWindowLoaded@C_Parser@@QAEJXZ	; C_Parser::GetFirstWindowLoaded
	mov	DWORD PTR _ID$[ebp], eax
$LN4@LoadCommsW:

; 273  : 	while(ID)

	cmp	DWORD PTR _ID$[ebp], 0
	je	SHORT $LN3@LoadCommsW

; 274  : 	{
; 275  : 		HookupCommsControls(ID);

	mov	eax, DWORD PTR _ID$[ebp]
	push	eax
	call	?HookupCommsControls@@YAXJ@Z		; HookupCommsControls
	add	esp, 4

; 276  : 		ID=gMainParser->GetNextWindowLoaded();

	mov	ecx, DWORD PTR ?gMainParser@@3PAVC_Parser@@A ; gMainParser
	call	?GetNextWindowLoaded@C_Parser@@QAEJXZ	; C_Parser::GetNextWindowLoaded
	mov	DWORD PTR _ID$[ebp], eax

; 277  : 	}

	jmp	SHORT $LN4@LoadCommsW
$LN3@LoadCommsW:

; 278  : 
; 279  : 	if(gCommsMgr)

	cmp	DWORD PTR ?gCommsMgr@@3PAVUIComms@@A, 0	; gCommsMgr
	je	SHORT $LN2@LoadCommsW

; 280  : 		gCommsMgr->SetCallback(game_PlayerPool,UpdatePlayerListCB);

	push	OFFSET ?UpdatePlayerListCB@@YAXFVVU_ID@@0@Z ; UpdatePlayerListCB
	push	0
	mov	ecx, DWORD PTR ?gCommsMgr@@3PAVUIComms@@A ; gCommsMgr
	call	?SetCallback@UIComms@@QAEXHP6AXFVVU_ID@@0@Z@Z ; UIComms::SetCallback
$LN2@LoadCommsW:

; 281  : 
; 282  : 	COLoaded++;

	mov	ecx, DWORD PTR ?COLoaded@@3HA		; COLoaded
	add	ecx, 1
	mov	DWORD PTR ?COLoaded@@3HA, ecx		; COLoaded

; 283  : 
; 284  : 	CommsSetup();

	call	?CommsSetup@@YAXXZ			; CommsSetup

; 285  : 
; 286  : 	menu=gPopupMgr->GetMenu(CHAT_POP);

	push	60057					; 0000ea99H
	mov	ecx, DWORD PTR ?gPopupMgr@@3PAVC_PopupMgr@@A ; gPopupMgr
	call	?GetMenu@C_PopupMgr@@QAEPAVC_PopupList@@J@Z ; C_PopupMgr::GetMenu
	mov	DWORD PTR _menu$[ebp], eax

; 287  : 	if(menu)

	cmp	DWORD PTR _menu$[ebp], 0
	je	SHORT $LN8@LoadCommsW

; 288  : 	{
; 289  : 		menu->SetCallback(MID_MUTE,MutePlayerCB);

	push	OFFSET ?MutePlayerCB@@YAXJFPAVC_Base@@@Z ; MutePlayerCB
	push	60055					; 0000ea97H
	mov	ecx, DWORD PTR _menu$[ebp]
	call	?SetCallback@C_PopupList@@QAEXJP6AXJFPAVC_Base@@@Z@Z ; C_PopupList::SetCallback

; 290  : 		menu->SetCallback(MID_IGNORE,IgnorePlayerCB);

	push	OFFSET ?IgnorePlayerCB@@YAXJFPAVC_Base@@@Z ; IgnorePlayerCB
	push	60056					; 0000ea98H
	mov	ecx, DWORD PTR _menu$[ebp]
	call	?SetCallback@C_PopupList@@QAEXJP6AXJFPAVC_Base@@@Z@Z ; C_PopupList::SetCallback

; 291  : 		menu->SetCallback(MID_LOGBOOK,ViewRemoteLBCB);

	push	OFFSET ?ViewRemoteLBCB@@YAXJFPAVC_Base@@@Z ; ViewRemoteLBCB
	push	60058					; 0000ea9aH
	mov	ecx, DWORD PTR _menu$[ebp]
	call	?SetCallback@C_PopupList@@QAEXJP6AXJFPAVC_Base@@@Z@Z ; C_PopupList::SetCallback
$LN8@LoadCommsW:

; 292  : 	}
; 293  : }

	mov	esp, ebp
	pop	ebp
	ret	0
?LoadCommsWindows@@YAXXZ ENDP				; LoadCommsWindows
_TEXT	ENDS
; Function compile flags: /Odtp
; File c:\program files (x86)\microsoft visual studio 11.0\vc\include\comip.h
;	COMDAT ??9?$_com_ptr_t@V?$_com_IIID@UIUplink@GNETCORELib@@$1?_GUID_5ff85b6b_de05_42b9_831f_dc6a4e30a513@@3U__s_GUID@@B@@@@QBE_NH@Z
_TEXT	SEGMENT
_this$ = -8						; size = 4
tv69 = -4						; size = 4
_null$ = 8						; size = 4
??9?$_com_ptr_t@V?$_com_IIID@UIUplink@GNETCORELib@@$1?_GUID_5ff85b6b_de05_42b9_831f_dc6a4e30a513@@3U__s_GUID@@B@@@@QBE_NH@Z PROC ; _com_ptr_t<_com_IIID<GNETCORELib::IUplink,&_GUID_5ff85b6b_de05_42b9_831f_dc6a4e30a513> >::operator!=, COMDAT
; _this$ = ecx

; 476  :     {

	push	ebp
	mov	ebp, esp
	sub	esp, 8
	mov	DWORD PTR _this$[ebp], ecx

; 477  :         return !(operator==(null));

	mov	eax, DWORD PTR _null$[ebp]
	push	eax
	mov	ecx, DWORD PTR _this$[ebp]
	call	??8?$_com_ptr_t@V?$_com_IIID@UIUplink@GNETCORELib@@$1?_GUID_5ff85b6b_de05_42b9_831f_dc6a4e30a513@@3U__s_GUID@@B@@@@QBE_NH@Z ; _com_ptr_t<_com_IIID<GNETCORELib::IUplink,&_GUID_5ff85b6b_de05_42b9_831f_dc6a4e30a513> >::operator==
	movzx	ecx, al
	test	ecx, ecx
	jne	SHORT $LN3@operator
	mov	DWORD PTR tv69[ebp], 1
	jmp	SHORT $LN4@operator
$LN3@operator:
	mov	DWORD PTR tv69[ebp], 0
$LN4@operator:
	mov	al, BYTE PTR tv69[ebp]

; 478  :     }

	mov	esp, ebp
	pop	ebp
	ret	4
??9?$_com_ptr_t@V?$_com_IIID@UIUplink@GNETCORELib@@$1?_GUID_5ff85b6b_de05_42b9_831f_dc6a4e30a513@@3U__s_GUID@@B@@@@QBE_NH@Z ENDP ; _com_ptr_t<_com_IIID<GNETCORELib::IUplink,&_GUID_5ff85b6b_de05_42b9_831f_dc6a4e30a513> >::operator!=
_TEXT	ENDS
; Function compile flags: /Odtp
; File c:\program files (x86)\microsoft visual studio 11.0\vc\include\comip.h
;	COMDAT ??8?$_com_ptr_t@V?$_com_IIID@UIUplink@GNETCORELib@@$1?_GUID_5ff85b6b_de05_42b9_831f_dc6a4e30a513@@3U__s_GUID@@B@@@@QBE_NH@Z
_TEXT	SEGMENT
_this$ = -8						; size = 4
tv68 = -4						; size = 4
_null$ = 8						; size = 4
??8?$_com_ptr_t@V?$_com_IIID@UIUplink@GNETCORELib@@$1?_GUID_5ff85b6b_de05_42b9_831f_dc6a4e30a513@@3U__s_GUID@@B@@@@QBE_NH@Z PROC ; _com_ptr_t<_com_IIID<GNETCORELib::IUplink,&_GUID_5ff85b6b_de05_42b9_831f_dc6a4e30a513> >::operator==, COMDAT
; _this$ = ecx

; 451  :     {

	push	ebp
	mov	ebp, esp
	sub	esp, 8
	mov	DWORD PTR _this$[ebp], ecx

; 452  :         if (null != 0) {

	cmp	DWORD PTR _null$[ebp], 0
	je	SHORT $LN1@operator

; 453  :             _com_issue_error(E_POINTER);

	push	-2147467261				; 80004003H
	call	?_com_issue_error@@YGXJ@Z		; _com_issue_error
$LN1@operator:

; 454  :         }
; 455  : 
; 456  :         return m_pInterface == NULL;

	mov	eax, DWORD PTR _this$[ebp]
	cmp	DWORD PTR [eax], 0
	jne	SHORT $LN4@operator
	mov	DWORD PTR tv68[ebp], 1
	jmp	SHORT $LN5@operator
$LN4@operator:
	mov	DWORD PTR tv68[ebp], 0
$LN5@operator:
	mov	al, BYTE PTR tv68[ebp]
$LN3@operator:

; 457  :     }

	mov	esp, ebp
	pop	ebp
	ret	4
??8?$_com_ptr_t@V?$_com_IIID@UIUplink@GNETCORELib@@$1?_GUID_5ff85b6b_de05_42b9_831f_dc6a4e30a513@@3U__s_GUID@@B@@@@QBE_NH@Z ENDP ; _com_ptr_t<_com_IIID<GNETCORELib::IUplink,&_GUID_5ff85b6b_de05_42b9_831f_dc6a4e30a513> >::operator==
_TEXT	ENDS
; Function compile flags: /Odtp
; File c:\program files (x86)\microsoft visual studio 11.0\vc\include\comip.h
;	COMDAT ??C?$_com_ptr_t@V?$_com_IIID@UIUplink@GNETCORELib@@$1?_GUID_5ff85b6b_de05_42b9_831f_dc6a4e30a513@@3U__s_GUID@@B@@@@QBEPAUIUplink@GNETCORELib@@XZ
_TEXT	SEGMENT
_this$ = -4						; size = 4
??C?$_com_ptr_t@V?$_com_IIID@UIUplink@GNETCORELib@@$1?_GUID_5ff85b6b_de05_42b9_831f_dc6a4e30a513@@3U__s_GUID@@B@@@@QBEPAUIUplink@GNETCORELib@@XZ PROC ; _com_ptr_t<_com_IIID<GNETCORELib::IUplink,&_GUID_5ff85b6b_de05_42b9_831f_dc6a4e30a513> >::operator->, COMDAT
; _this$ = ecx

; 401  :     { 

	push	ebp
	mov	ebp, esp
	push	ecx
	mov	DWORD PTR _this$[ebp], ecx

; 402  :         if (m_pInterface == NULL) {

	mov	eax, DWORD PTR _this$[ebp]
	cmp	DWORD PTR [eax], 0
	jne	SHORT $LN1@operator

; 403  :             _com_issue_error(E_POINTER);

	push	-2147467261				; 80004003H
	call	?_com_issue_error@@YGXJ@Z		; _com_issue_error
$LN1@operator:

; 404  :         }
; 405  : 
; 406  :         return m_pInterface; 

	mov	ecx, DWORD PTR _this$[ebp]
	mov	eax, DWORD PTR [ecx]
$LN3@operator:

; 407  :     }

	mov	esp, ebp
	pop	ebp
	ret	0
??C?$_com_ptr_t@V?$_com_IIID@UIUplink@GNETCORELib@@$1?_GUID_5ff85b6b_de05_42b9_831f_dc6a4e30a513@@3U__s_GUID@@B@@@@QBEPAUIUplink@GNETCORELib@@XZ ENDP ; _com_ptr_t<_com_IIID<GNETCORELib::IUplink,&_GUID_5ff85b6b_de05_42b9_831f_dc6a4e30a513> >::operator->
_TEXT	ENDS
; Function compile flags: /Odtp
; File c:\users\zhitao li\documents\visual studio 2012\projects\freefalcon\build\release_win32\ui\comms\core.tli
;	COMDAT ?RemovePlayer@IUplink@GNETCORELib@@QAEJV_bstr_t@@@Z
_TEXT	SEGMENT
$T2 = -24						; size = 4
__hr$ = -20						; size = 4
_this$ = -16						; size = 4
__$EHRec$ = -12						; size = 12
_Name$ = 8						; size = 4
?RemovePlayer@IUplink@GNETCORELib@@QAEJV_bstr_t@@@Z PROC ; GNETCORELib::IUplink::RemovePlayer, COMDAT
; _this$ = ecx

; 819  : inline HRESULT IUplink::RemovePlayer ( _bstr_t Name ) {

	push	ebp
	mov	ebp, esp
	push	-1
	push	__ehhandler$?RemovePlayer@IUplink@GNETCORELib@@QAEJV_bstr_t@@@Z
	mov	eax, DWORD PTR fs:0
	push	eax
	sub	esp, 12					; 0000000cH
	mov	eax, DWORD PTR ___security_cookie
	xor	eax, ebp
	push	eax
	lea	eax, DWORD PTR __$EHRec$[ebp]
	mov	DWORD PTR fs:0, eax
	mov	DWORD PTR _this$[ebp], ecx
	mov	DWORD PTR __$EHRec$[ebp+8], 0

; 820  :     HRESULT _hr = raw_RemovePlayer(Name);

	lea	ecx, DWORD PTR _Name$[ebp]
	call	??B_bstr_t@@QBEPA_WXZ			; _bstr_t::operator wchar_t *
	push	eax
	mov	eax, DWORD PTR _this$[ebp]
	mov	ecx, DWORD PTR [eax]
	mov	edx, DWORD PTR _this$[ebp]
	push	edx
	mov	eax, DWORD PTR [ecx+124]
	call	eax
	mov	DWORD PTR __hr$[ebp], eax

; 821  :     if (FAILED(_hr)) _com_issue_errorex(_hr, this, __uuidof(this));

	cmp	DWORD PTR __hr$[ebp], 0
	jge	SHORT $LN1@RemovePlay
	push	OFFSET __GUID_5ff85b6b_de05_42b9_831f_dc6a4e30a513
	mov	ecx, DWORD PTR _this$[ebp]
	push	ecx
	mov	edx, DWORD PTR __hr$[ebp]
	push	edx
	call	?_com_issue_errorex@@YGXJPAUIUnknown@@ABU_GUID@@@Z ; _com_issue_errorex
$LN1@RemovePlay:

; 822  :     return _hr;

	mov	eax, DWORD PTR __hr$[ebp]
	mov	DWORD PTR $T2[ebp], eax
	mov	DWORD PTR __$EHRec$[ebp+8], -1
	lea	ecx, DWORD PTR _Name$[ebp]
	call	??1_bstr_t@@QAE@XZ			; _bstr_t::~_bstr_t
	mov	eax, DWORD PTR $T2[ebp]

; 823  : }

	mov	ecx, DWORD PTR __$EHRec$[ebp]
	mov	DWORD PTR fs:0, ecx
	pop	ecx
	mov	esp, ebp
	pop	ebp
	ret	4
_TEXT	ENDS
;	COMDAT text$x
text$x	SEGMENT
__unwindfunclet$?RemovePlayer@IUplink@GNETCORELib@@QAEJV_bstr_t@@@Z$0:
	lea	ecx, DWORD PTR _Name$[ebp]
	jmp	??1_bstr_t@@QAE@XZ			; _bstr_t::~_bstr_t
__ehhandler$?RemovePlayer@IUplink@GNETCORELib@@QAEJV_bstr_t@@@Z:
	mov	edx, DWORD PTR [esp+8]
	lea	eax, DWORD PTR [edx+12]
	mov	ecx, DWORD PTR [edx-16]
	xor	ecx, eax
	call	@__security_check_cookie@4
	mov	eax, OFFSET __ehfuncinfo$?RemovePlayer@IUplink@GNETCORELib@@QAEJV_bstr_t@@@Z
	jmp	___CxxFrameHandler3
text$x	ENDS
?RemovePlayer@IUplink@GNETCORELib@@QAEJV_bstr_t@@@Z ENDP ; GNETCORELib::IUplink::RemovePlayer
; Function compile flags: /Odtp
; File c:\users\zhitao li\documents\visual studio 2012\projects\freefalcon\build\release_win32\ui\comms\core.tli
;	COMDAT ?AddPlayer@IUplink@GNETCORELib@@QAEJV_bstr_t@@@Z
_TEXT	SEGMENT
$T2 = -24						; size = 4
__hr$ = -20						; size = 4
_this$ = -16						; size = 4
__$EHRec$ = -12						; size = 12
_Name$ = 8						; size = 4
?AddPlayer@IUplink@GNETCORELib@@QAEJV_bstr_t@@@Z PROC	; GNETCORELib::IUplink::AddPlayer, COMDAT
; _this$ = ecx

; 806  : inline HRESULT IUplink::AddPlayer ( _bstr_t Name ) {

	push	ebp
	mov	ebp, esp
	push	-1
	push	__ehhandler$?AddPlayer@IUplink@GNETCORELib@@QAEJV_bstr_t@@@Z
	mov	eax, DWORD PTR fs:0
	push	eax
	sub	esp, 12					; 0000000cH
	mov	eax, DWORD PTR ___security_cookie
	xor	eax, ebp
	push	eax
	lea	eax, DWORD PTR __$EHRec$[ebp]
	mov	DWORD PTR fs:0, eax
	mov	DWORD PTR _this$[ebp], ecx
	mov	DWORD PTR __$EHRec$[ebp+8], 0

; 807  :     HRESULT _hr = raw_AddPlayer(Name);

	lea	ecx, DWORD PTR _Name$[ebp]
	call	??B_bstr_t@@QBEPA_WXZ			; _bstr_t::operator wchar_t *
	push	eax
	mov	eax, DWORD PTR _this$[ebp]
	mov	ecx, DWORD PTR [eax]
	mov	edx, DWORD PTR _this$[ebp]
	push	edx
	mov	eax, DWORD PTR [ecx+116]
	call	eax
	mov	DWORD PTR __hr$[ebp], eax

; 808  :     if (FAILED(_hr)) _com_issue_errorex(_hr, this, __uuidof(this));

	cmp	DWORD PTR __hr$[ebp], 0
	jge	SHORT $LN1@AddPlayer
	push	OFFSET __GUID_5ff85b6b_de05_42b9_831f_dc6a4e30a513
	mov	ecx, DWORD PTR _this$[ebp]
	push	ecx
	mov	edx, DWORD PTR __hr$[ebp]
	push	edx
	call	?_com_issue_errorex@@YGXJPAUIUnknown@@ABU_GUID@@@Z ; _com_issue_errorex
$LN1@AddPlayer:

; 809  :     return _hr;

	mov	eax, DWORD PTR __hr$[ebp]
	mov	DWORD PTR $T2[ebp], eax
	mov	DWORD PTR __$EHRec$[ebp+8], -1
	lea	ecx, DWORD PTR _Name$[ebp]
	call	??1_bstr_t@@QAE@XZ			; _bstr_t::~_bstr_t
	mov	eax, DWORD PTR $T2[ebp]

; 810  : }

	mov	ecx, DWORD PTR __$EHRec$[ebp]
	mov	DWORD PTR fs:0, ecx
	pop	ecx
	mov	esp, ebp
	pop	ebp
	ret	4
_TEXT	ENDS
;	COMDAT text$x
text$x	SEGMENT
__unwindfunclet$?AddPlayer@IUplink@GNETCORELib@@QAEJV_bstr_t@@@Z$0:
	lea	ecx, DWORD PTR _Name$[ebp]
	jmp	??1_bstr_t@@QAE@XZ			; _bstr_t::~_bstr_t
__ehhandler$?AddPlayer@IUplink@GNETCORELib@@QAEJV_bstr_t@@@Z:
	mov	edx, DWORD PTR [esp+8]
	lea	eax, DWORD PTR [edx+12]
	mov	ecx, DWORD PTR [edx-16]
	xor	ecx, eax
	call	@__security_check_cookie@4
	mov	eax, OFFSET __ehfuncinfo$?AddPlayer@IUplink@GNETCORELib@@QAEJV_bstr_t@@@Z
	jmp	___CxxFrameHandler3
text$x	ENDS
?AddPlayer@IUplink@GNETCORELib@@QAEJV_bstr_t@@@Z ENDP	; GNETCORELib::IUplink::AddPlayer
; Function compile flags: /Odtp
;	COMDAT ??_G_com_error@@UAEPAXI@Z
_TEXT	SEGMENT
_this$ = -4						; size = 4
___flags$ = 8						; size = 4
??_G_com_error@@UAEPAXI@Z PROC				; _com_error::`scalar deleting destructor', COMDAT
; _this$ = ecx
	push	ebp
	mov	ebp, esp
	push	ecx
	mov	DWORD PTR _this$[ebp], ecx
	mov	ecx, DWORD PTR _this$[ebp]
	call	??1_com_error@@UAE@XZ			; _com_error::~_com_error
	mov	eax, DWORD PTR ___flags$[ebp]
	and	eax, 1
	je	SHORT $LN1@scalar
	mov	ecx, DWORD PTR _this$[ebp]
	push	ecx
	call	??3@YAXPAX@Z				; operator delete
	add	esp, 4
$LN1@scalar:
	mov	eax, DWORD PTR _this$[ebp]
	mov	esp, ebp
	pop	ebp
	ret	4
??_G_com_error@@UAEPAXI@Z ENDP				; _com_error::`scalar deleting destructor'
_TEXT	ENDS
; Function compile flags: /Odtp
; File c:\program files (x86)\microsoft visual studio 11.0\vc\include\comdef.h
;	COMDAT ?Error@_com_error@@QBEJXZ
_TEXT	SEGMENT
_this$ = -4						; size = 4
?Error@_com_error@@QBEJXZ PROC				; _com_error::Error, COMDAT
; _this$ = ecx

; 313  : {

	push	ebp
	mov	ebp, esp
	push	ecx
	mov	DWORD PTR _this$[ebp], ecx

; 314  :     return m_hresult;

	mov	eax, DWORD PTR _this$[ebp]
	mov	eax, DWORD PTR [eax+4]

; 315  : }

	mov	esp, ebp
	pop	ebp
	ret	0
?Error@_com_error@@QBEJXZ ENDP				; _com_error::Error
_TEXT	ENDS
; Function compile flags: /Odtp
; File c:\program files (x86)\microsoft visual studio 11.0\vc\include\comdef.h
;	COMDAT ??1_com_error@@UAE@XZ
_TEXT	SEGMENT
_this$ = -4						; size = 4
??1_com_error@@UAE@XZ PROC				; _com_error::~_com_error, COMDAT
; _this$ = ecx

; 294  : {

	push	ebp
	mov	ebp, esp
	push	ecx
	mov	DWORD PTR _this$[ebp], ecx
	mov	eax, DWORD PTR _this$[ebp]
	mov	DWORD PTR [eax], OFFSET ??_7_com_error@@6B@

; 295  :     if (m_perrinfo != NULL) {

	mov	ecx, DWORD PTR _this$[ebp]
	cmp	DWORD PTR [ecx+8], 0
	je	SHORT $LN2@com_error

; 296  :         m_perrinfo->Release();

	mov	edx, DWORD PTR _this$[ebp]
	mov	eax, DWORD PTR [edx+8]
	mov	ecx, DWORD PTR _this$[ebp]
	mov	edx, DWORD PTR [ecx+8]
	mov	eax, DWORD PTR [eax]
	push	edx
	mov	ecx, DWORD PTR [eax+8]
	call	ecx
$LN2@com_error:

; 297  :     }
; 298  :     if (m_pszMsg != NULL) {

	mov	edx, DWORD PTR _this$[ebp]
	cmp	DWORD PTR [edx+12], 0
	je	SHORT $LN3@com_error

; 299  :         LocalFree((HLOCAL)m_pszMsg);

	mov	eax, DWORD PTR _this$[ebp]
	mov	ecx, DWORD PTR [eax+12]
	push	ecx
	call	DWORD PTR __imp__LocalFree@4
$LN3@com_error:

; 300  :     }
; 301  : }

	mov	esp, ebp
	pop	ebp
	ret	0
??1_com_error@@UAE@XZ ENDP				; _com_error::~_com_error
_TEXT	ENDS
; Function compile flags: /Odtp
; File c:\program files (x86)\microsoft visual studio 11.0\vc\include\comutil.h
;	COMDAT ?_Free@_bstr_t@@AAEXXZ
_TEXT	SEGMENT
_this$ = -4						; size = 4
?_Free@_bstr_t@@AAEXXZ PROC				; _bstr_t::_Free, COMDAT
; _this$ = ecx

; 636  : {

	push	ebp
	mov	ebp, esp
	push	ecx
	mov	DWORD PTR _this$[ebp], ecx

; 637  :     if (m_Data != NULL) {

	mov	eax, DWORD PTR _this$[ebp]
	cmp	DWORD PTR [eax], 0
	je	SHORT $LN2@Free

; 638  :         m_Data->Release();

	mov	ecx, DWORD PTR _this$[ebp]
	mov	ecx, DWORD PTR [ecx]
	call	?Release@Data_t@_bstr_t@@QAEKXZ		; _bstr_t::Data_t::Release

; 639  :         m_Data = NULL;

	mov	edx, DWORD PTR _this$[ebp]
	mov	DWORD PTR [edx], 0
$LN2@Free:

; 640  :     }
; 641  : }

	mov	esp, ebp
	pop	ebp
	ret	0
?_Free@_bstr_t@@AAEXXZ ENDP				; _bstr_t::_Free
_TEXT	ENDS
; Function compile flags: /Odtp
;	COMDAT ??_GData_t@_bstr_t@@AAEPAXI@Z
_TEXT	SEGMENT
_this$ = -4						; size = 4
___flags$ = 8						; size = 4
??_GData_t@_bstr_t@@AAEPAXI@Z PROC			; _bstr_t::Data_t::`scalar deleting destructor', COMDAT
; _this$ = ecx
	push	ebp
	mov	ebp, esp
	push	ecx
	mov	DWORD PTR _this$[ebp], ecx
	mov	ecx, DWORD PTR _this$[ebp]
	call	??1Data_t@_bstr_t@@AAE@XZ		; _bstr_t::Data_t::~Data_t
	mov	eax, DWORD PTR ___flags$[ebp]
	and	eax, 1
	je	SHORT $LN1@scalar
	mov	ecx, DWORD PTR _this$[ebp]
	push	ecx
	call	??3@YAXPAX@Z				; operator delete
	add	esp, 4
$LN1@scalar:
	mov	eax, DWORD PTR _this$[ebp]
	mov	esp, ebp
	pop	ebp
	ret	4
??_GData_t@_bstr_t@@AAEPAXI@Z ENDP			; _bstr_t::Data_t::`scalar deleting destructor'
_TEXT	ENDS
; Function compile flags: /Odtp
; File c:\program files (x86)\microsoft visual studio 11.0\vc\include\comutil.h
;	COMDAT ?_Free@Data_t@_bstr_t@@AAEXXZ
_TEXT	SEGMENT
$T1 = -8						; size = 4
_this$ = -4						; size = 4
?_Free@Data_t@_bstr_t@@AAEXXZ PROC			; _bstr_t::Data_t::_Free, COMDAT
; _this$ = ecx

; 929  : {

	push	ebp
	mov	ebp, esp
	sub	esp, 8
	mov	DWORD PTR _this$[ebp], ecx

; 930  :     if (m_wstr != NULL) {

	mov	eax, DWORD PTR _this$[ebp]
	cmp	DWORD PTR [eax], 0
	je	SHORT $LN2@Free

; 931  :         ::SysFreeString(m_wstr);

	mov	ecx, DWORD PTR _this$[ebp]
	mov	edx, DWORD PTR [ecx]
	push	edx
	call	DWORD PTR __imp__SysFreeString@4

; 932  :         m_wstr = NULL;

	mov	eax, DWORD PTR _this$[ebp]
	mov	DWORD PTR [eax], 0
$LN2@Free:

; 933  :     }
; 934  : 
; 935  :     if (m_str != NULL) {

	mov	ecx, DWORD PTR _this$[ebp]
	cmp	DWORD PTR [ecx+4], 0
	je	SHORT $LN3@Free

; 936  :         delete [] m_str;

	mov	edx, DWORD PTR _this$[ebp]
	mov	eax, DWORD PTR [edx+4]
	mov	DWORD PTR $T1[ebp], eax
	mov	ecx, DWORD PTR $T1[ebp]
	push	ecx
	call	??_V@YAXPAX@Z				; operator delete[]
	add	esp, 4

; 937  :         m_str = NULL;

	mov	edx, DWORD PTR _this$[ebp]
	mov	DWORD PTR [edx+4], 0
$LN3@Free:

; 938  :     }
; 939  : }

	mov	esp, ebp
	pop	ebp
	ret	0
?_Free@Data_t@_bstr_t@@AAEXXZ ENDP			; _bstr_t::Data_t::_Free
_TEXT	ENDS
; Function compile flags: /Odtp
; File c:\program files (x86)\microsoft visual studio 11.0\vc\include\comutil.h
;	COMDAT ??1Data_t@_bstr_t@@AAE@XZ
_TEXT	SEGMENT
_this$ = -4						; size = 4
??1Data_t@_bstr_t@@AAE@XZ PROC				; _bstr_t::Data_t::~Data_t, COMDAT
; _this$ = ecx

; 922  : {

	push	ebp
	mov	ebp, esp
	push	ecx
	mov	DWORD PTR _this$[ebp], ecx

; 923  :     _Free();

	mov	ecx, DWORD PTR _this$[ebp]
	call	?_Free@Data_t@_bstr_t@@AAEXXZ		; _bstr_t::Data_t::_Free

; 924  : }

	mov	esp, ebp
	pop	ebp
	ret	0
??1Data_t@_bstr_t@@AAE@XZ ENDP				; _bstr_t::Data_t::~Data_t
_TEXT	ENDS
; Function compile flags: /Odtp
; File c:\program files (x86)\microsoft visual studio 11.0\vc\include\comutil.h
;	COMDAT ??2Data_t@_bstr_t@@SAPAXI@Z
_TEXT	SEGMENT
_sz$ = 8						; size = 4
??2Data_t@_bstr_t@@SAPAXI@Z PROC			; _bstr_t::Data_t::operator new, COMDAT

; 914  : {

	push	ebp
	mov	ebp, esp

; 915  :     return ::operator new(sz);

	mov	eax, DWORD PTR _sz$[ebp]
	push	eax
	call	??2@YAPAXI@Z				; operator new
	add	esp, 4

; 916  : }

	pop	ebp
	ret	0
??2Data_t@_bstr_t@@SAPAXI@Z ENDP			; _bstr_t::Data_t::operator new
_TEXT	ENDS
; Function compile flags: /Odtp
; File c:\program files (x86)\microsoft visual studio 11.0\vc\include\comutil.h
;	COMDAT ?GetWString@Data_t@_bstr_t@@QAEAAPA_WXZ
_TEXT	SEGMENT
_this$ = -4						; size = 4
?GetWString@Data_t@_bstr_t@@QAEAAPA_WXZ PROC		; _bstr_t::Data_t::GetWString, COMDAT
; _this$ = ecx

; 818  : {

	push	ebp
	mov	ebp, esp
	push	ecx
	mov	DWORD PTR _this$[ebp], ecx

; 819  :     return m_wstr;

	mov	eax, DWORD PTR _this$[ebp]

; 820  : }

	mov	esp, ebp
	pop	ebp
	ret	0
?GetWString@Data_t@_bstr_t@@QAEAAPA_WXZ ENDP		; _bstr_t::Data_t::GetWString
_TEXT	ENDS
; Function compile flags: /Odtp
; File c:\program files (x86)\microsoft visual studio 11.0\vc\include\comutil.h
;	COMDAT ?Release@Data_t@_bstr_t@@QAEKXZ
_TEXT	SEGMENT
tv72 = -20						; size = 4
$T1 = -16						; size = 4
_cRef$ = -12						; size = 4
$T2 = -8						; size = 4
_this$ = -4						; size = 4
?Release@Data_t@_bstr_t@@QAEKXZ PROC			; _bstr_t::Data_t::Release, COMDAT
; _this$ = ecx

; 772  : {

	push	ebp
	mov	ebp, esp
	sub	esp, 20					; 00000014H
	mov	DWORD PTR _this$[ebp], ecx

; 773  :     unsigned long cRef = InterlockedDecrement(reinterpret_cast<long*>(&m_RefCount));

	mov	eax, DWORD PTR _this$[ebp]
	add	eax, 8
	push	eax
	call	DWORD PTR __imp__InterlockedDecrement@4
	mov	DWORD PTR _cRef$[ebp], eax

; 774  :     if (cRef == 0) {

	cmp	DWORD PTR _cRef$[ebp], 0
	jne	SHORT $LN1@Release

; 775  :         delete this;

	mov	ecx, DWORD PTR _this$[ebp]
	mov	DWORD PTR $T1[ebp], ecx
	mov	edx, DWORD PTR $T1[ebp]
	mov	DWORD PTR $T2[ebp], edx
	cmp	DWORD PTR $T2[ebp], 0
	je	SHORT $LN4@Release
	push	1
	mov	ecx, DWORD PTR $T2[ebp]
	call	??_GData_t@_bstr_t@@AAEPAXI@Z
	mov	DWORD PTR tv72[ebp], eax
	jmp	SHORT $LN1@Release
$LN4@Release:
	mov	DWORD PTR tv72[ebp], 0
$LN1@Release:

; 776  :     }
; 777  : 
; 778  :     return cRef;

	mov	eax, DWORD PTR _cRef$[ebp]

; 779  : }

	mov	esp, ebp
	pop	ebp
	ret	0
?Release@Data_t@_bstr_t@@QAEKXZ ENDP			; _bstr_t::Data_t::Release
_TEXT	ENDS
; Function compile flags: /Odtp
; File c:\program files (x86)\microsoft visual studio 11.0\vc\include\comutil.h
;	COMDAT ??0Data_t@_bstr_t@@QAE@PBD@Z
_TEXT	SEGMENT
_this$ = -4						; size = 4
_s$ = 8							; size = 4
??0Data_t@_bstr_t@@QAE@PBD@Z PROC			; _bstr_t::Data_t::Data_t, COMDAT
; _this$ = ecx

; 682  : {

	push	ebp
	mov	ebp, esp
	push	ecx
	mov	DWORD PTR _this$[ebp], ecx
	mov	eax, DWORD PTR _this$[ebp]
	mov	DWORD PTR [eax+4], 0
	mov	ecx, DWORD PTR _this$[ebp]
	mov	DWORD PTR [ecx+8], 1

; 683  :     m_wstr = _com_util::ConvertStringToBSTR(s);

	mov	edx, DWORD PTR _s$[ebp]
	push	edx
	call	?ConvertStringToBSTR@_com_util@@YGPA_WPBD@Z ; _com_util::ConvertStringToBSTR
	mov	ecx, DWORD PTR _this$[ebp]
	mov	DWORD PTR [ecx], eax

; 684  : }

	mov	eax, DWORD PTR _this$[ebp]
	mov	esp, ebp
	pop	ebp
	ret	4
??0Data_t@_bstr_t@@QAE@PBD@Z ENDP			; _bstr_t::Data_t::Data_t
_TEXT	ENDS
; Function compile flags: /Odtp
; File c:\program files (x86)\microsoft visual studio 11.0\vc\include\comutil.h
;	COMDAT ??B_bstr_t@@QBEPA_WXZ
_TEXT	SEGMENT
tv69 = -8						; size = 4
_this$ = -4						; size = 4
??B_bstr_t@@QBEPA_WXZ PROC				; _bstr_t::operator wchar_t *, COMDAT
; _this$ = ecx

; 478  : {

	push	ebp
	mov	ebp, esp
	sub	esp, 8
	mov	DWORD PTR _this$[ebp], ecx

; 479  :     return const_cast<wchar_t*>((m_Data != NULL) ? m_Data->GetWString() : NULL);

	mov	eax, DWORD PTR _this$[ebp]
	cmp	DWORD PTR [eax], 0
	je	SHORT $LN3@operator
	mov	ecx, DWORD PTR _this$[ebp]
	mov	ecx, DWORD PTR [ecx]
	call	?GetWString@Data_t@_bstr_t@@QAEAAPA_WXZ	; _bstr_t::Data_t::GetWString
	mov	edx, DWORD PTR [eax]
	mov	DWORD PTR tv69[ebp], edx
	jmp	SHORT $LN4@operator
$LN3@operator:
	mov	DWORD PTR tv69[ebp], 0
$LN4@operator:
	mov	eax, DWORD PTR tv69[ebp]

; 480  : }

	mov	esp, ebp
	pop	ebp
	ret	0
??B_bstr_t@@QBEPA_WXZ ENDP				; _bstr_t::operator wchar_t *
_TEXT	ENDS
; Function compile flags: /Odtp
; File c:\program files (x86)\microsoft visual studio 11.0\vc\include\comutil.h
;	COMDAT ??1_bstr_t@@QAE@XZ
_TEXT	SEGMENT
_this$ = -4						; size = 4
??1_bstr_t@@QAE@XZ PROC					; _bstr_t::~_bstr_t, COMDAT
; _this$ = ecx

; 342  : {

	push	ebp
	mov	ebp, esp
	push	ecx
	mov	DWORD PTR _this$[ebp], ecx

; 343  :     _Free();

	mov	ecx, DWORD PTR _this$[ebp]
	call	?_Free@_bstr_t@@AAEXXZ			; _bstr_t::_Free

; 344  : }

	mov	esp, ebp
	pop	ebp
	ret	0
??1_bstr_t@@QAE@XZ ENDP					; _bstr_t::~_bstr_t
_TEXT	ENDS
; Function compile flags: /Odtp
; File c:\program files (x86)\microsoft visual studio 11.0\vc\include\comutil.h
;	COMDAT ??0_bstr_t@@QAE@PBD@Z
_TEXT	SEGMENT
$T2 = -28						; size = 4
tv73 = -24						; size = 4
$T3 = -20						; size = 4
_this$ = -16						; size = 4
__$EHRec$ = -12						; size = 12
_s$ = 8							; size = 4
??0_bstr_t@@QAE@PBD@Z PROC				; _bstr_t::_bstr_t, COMDAT
; _this$ = ecx

; 312  : {

	push	ebp
	mov	ebp, esp
	push	-1
	push	__ehhandler$??0_bstr_t@@QAE@PBD@Z
	mov	eax, DWORD PTR fs:0
	push	eax
	sub	esp, 16					; 00000010H
	mov	eax, DWORD PTR ___security_cookie
	xor	eax, ebp
	push	eax
	lea	eax, DWORD PTR __$EHRec$[ebp]
	mov	DWORD PTR fs:0, eax
	mov	DWORD PTR _this$[ebp], ecx
	push	12					; 0000000cH
	call	??2Data_t@_bstr_t@@SAPAXI@Z		; _bstr_t::Data_t::operator new
	add	esp, 4
	mov	DWORD PTR $T3[ebp], eax
	mov	DWORD PTR __$EHRec$[ebp+8], 0
	cmp	DWORD PTR $T3[ebp], 0
	je	SHORT $LN4@bstr_t
	mov	eax, DWORD PTR _s$[ebp]
	push	eax
	mov	ecx, DWORD PTR $T3[ebp]
	call	??0Data_t@_bstr_t@@QAE@PBD@Z		; _bstr_t::Data_t::Data_t
	mov	DWORD PTR tv73[ebp], eax
	jmp	SHORT $LN5@bstr_t
$LN4@bstr_t:
	mov	DWORD PTR tv73[ebp], 0
$LN5@bstr_t:
	mov	ecx, DWORD PTR tv73[ebp]
	mov	DWORD PTR $T2[ebp], ecx
	mov	DWORD PTR __$EHRec$[ebp+8], -1
	mov	edx, DWORD PTR _this$[ebp]
	mov	eax, DWORD PTR $T2[ebp]
	mov	DWORD PTR [edx], eax

; 313  :     if (m_Data == NULL) {

	mov	ecx, DWORD PTR _this$[ebp]
	cmp	DWORD PTR [ecx], 0
	jne	SHORT $LN2@bstr_t

; 314  :         _com_issue_error(E_OUTOFMEMORY);

	push	-2147024882				; 8007000eH
	call	?_com_issue_error@@YGXJ@Z		; _com_issue_error
$LN2@bstr_t:

; 315  :     }
; 316  : }

	mov	eax, DWORD PTR _this$[ebp]
$LN3@bstr_t:
	mov	ecx, DWORD PTR __$EHRec$[ebp]
	mov	DWORD PTR fs:0, ecx
	pop	ecx
	mov	esp, ebp
	pop	ebp
	ret	4
_TEXT	ENDS
;	COMDAT text$x
text$x	SEGMENT
__unwindfunclet$??0_bstr_t@@QAE@PBD@Z$0:
	mov	eax, DWORD PTR $T3[ebp]
	push	eax
	call	??3@YAXPAX@Z				; operator delete
	pop	ecx
	ret	0
__ehhandler$??0_bstr_t@@QAE@PBD@Z:
	mov	edx, DWORD PTR [esp+8]
	lea	eax, DWORD PTR [edx+12]
	mov	ecx, DWORD PTR [edx-20]
	xor	ecx, eax
	call	@__security_check_cookie@4
	mov	eax, OFFSET __ehfuncinfo$??0_bstr_t@@QAE@PBD@Z
	jmp	___CxxFrameHandler3
text$x	ENDS
??0_bstr_t@@QAE@PBD@Z ENDP				; _bstr_t::_bstr_t
; Function compile flags: /Odtp
; File c:\users\zhitao li\documents\visual studio 2012\projects\freefalcon\acmi\src\include\acmirec.h
;	COMDAT ?IsRecording@ACMIRecorder@@QAEHXZ
_TEXT	SEGMENT
_this$ = -4						; size = 4
?IsRecording@ACMIRecorder@@QAEHXZ PROC			; ACMIRecorder::IsRecording, COMDAT
; _this$ = ecx

; 319  : 	{

	push	ebp
	mov	ebp, esp
	push	ecx
	mov	DWORD PTR _this$[ebp], ecx

; 320  : 		return _recording;

	mov	eax, DWORD PTR _this$[ebp]
	mov	eax, DWORD PTR [eax+8]

; 321  : 	};

	mov	esp, ebp
	pop	ebp
	ret	0
?IsRecording@ACMIRecorder@@QAEHXZ ENDP			; ACMIRecorder::IsRecording
_TEXT	ENDS
; Function compile flags: /Odtp
; File c:\users\zhitao li\documents\visual studio 2012\projects\freefalcon\falcsnd\voicemanager.h
;	COMDAT ?Radio@VoiceManager@@QAEHXZ
_TEXT	SEGMENT
_this$ = -4						; size = 4
?Radio@VoiceManager@@QAEHXZ PROC			; VoiceManager::Radio, COMDAT
; _this$ = ecx

; 214  : 	int			Radio					(void)				{return currRadio;}

	push	ebp
	mov	ebp, esp
	push	ecx
	mov	DWORD PTR _this$[ebp], ecx
	mov	eax, DWORD PTR _this$[ebp]
	mov	eax, DWORD PTR [eax+144]
	mov	esp, ebp
	pop	ebp
	ret	0
?Radio@VoiceManager@@QAEHXZ ENDP			; VoiceManager::Radio
_TEXT	ENDS
; Function compile flags: /Odtp
; File c:\users\zhitao li\documents\visual studio 2012\projects\freefalcon\campaign\include\flight.h
;	COMDAT ?GetUnitPackage@FlightClass@@QAEPAVPackageClass@@XZ
_TEXT	SEGMENT
_this$ = -4						; size = 4
?GetUnitPackage@FlightClass@@QAEPAVPackageClass@@XZ PROC ; FlightClass::GetUnitPackage, COMDAT
; _this$ = ecx

; 216  : 		PackageClass* GetUnitPackage (void)	{ 

	push	ebp
	mov	ebp, esp
	push	ecx
	mov	DWORD PTR _this$[ebp], ecx

; 217  : 			return (PackageClass*)vuDatabase->Find(package); 

	mov	eax, DWORD PTR _this$[ebp]
	mov	ecx, DWORD PTR [eax+388]
	push	ecx
	mov	edx, DWORD PTR [eax+384]
	push	edx
	mov	ecx, DWORD PTR ?vuDatabase@@3PAVVuDatabase@@A ; vuDatabase
	call	?Find@VuDatabase@@QBEPAVVuEntity@@VVU_ID@@@Z ; VuDatabase::Find

; 218  : 		}

	mov	esp, ebp
	pop	ebp
	ret	0
?GetUnitPackage@FlightClass@@QAEPAVPackageClass@@XZ ENDP ; FlightClass::GetUnitPackage
_TEXT	ENDS
; Function compile flags: /Odtp
; File c:\users\zhitao li\documents\visual studio 2012\projects\freefalcon\ui\src\comms\ui_comms.cpp
_TEXT	SEGMENT
___formal$ = 8						; size = 4
_state$ = 12						; size = 4
___formal$ = 16						; size = 4
?SimOpenChatBox@@YAXKHPAX@Z PROC			; SimOpenChatBox

; 2286 : {

	push	ebp
	mov	ebp, esp

; 2287 : 	if ((state & KEY_DOWN))

	mov	eax, DWORD PTR _state$[ebp]
	and	eax, 8
	je	SHORT $LN2@SimOpenCha

; 2288 : 	{
; 2289 : 		CommandsKeyCombo = -2;

	mov	DWORD PTR ?CommandsKeyCombo@@3HA, -2	; CommandsKeyCombo, fffffffeH

; 2290 : 		CommandsKeyComboMod = -2;

	mov	DWORD PTR ?CommandsKeyComboMod@@3HA, -2	; CommandsKeyComboMod, fffffffeH

; 2291 : 
; 2292 : 		memset(chatterStr,0,sizeof(chatterStr));

	push	256					; 00000100H
	push	0
	push	OFFSET ?chatterStr@@3PADA		; chatterStr
	call	_memset
	add	esp, 12					; 0000000cH

; 2293 : 		chatterCount=0;

	mov	DWORD PTR ?chatterCount@@3IA, 0		; chatterCount

; 2294 : 
; 2295 : 		UseInputFn=SendTextMessageToChannel;

	mov	DWORD PTR ?UseInputFn@@3P6AXXZA, OFFSET ?SendTextMessageToChannel@@YAXXZ ; UseInputFn, SendTextMessageToChannel

; 2296 : 		DiscardInputFn=NULL;

	mov	DWORD PTR ?DiscardInputFn@@3P6AXXZA, 0	; DiscardInputFn

; 2297 : 		MaxInputLength=60;

	mov	DWORD PTR ?MaxInputLength@@3IA, 60	; MaxInputLength, 0000003cH

; 2298 : 		AsciiAllowed=0; // All

	xor	ecx, ecx
	mov	WORD PTR ?AsciiAllowed@@3FA, cx		; AsciiAllowed

; 2299 : 
; 2300 : 		OTWDriver.SetFrontTextFlags(OTWDriver.GetFrontTextFlags() | SHOW_CHATBOX);

	mov	ecx, OFFSET ?OTWDriver@@3VOTWDriverClass@@A ; OTWDriver
	call	?GetFrontTextFlags@OTWDriverClass@@QAEJXZ ; OTWDriverClass::GetFrontTextFlags
	or	eax, 1
	push	eax
	mov	ecx, OFFSET ?OTWDriver@@3VOTWDriverClass@@A ; OTWDriver
	call	?SetFrontTextFlags@OTWDriverClass@@QAEXJ@Z ; OTWDriverClass::SetFrontTextFlags
$LN2@SimOpenCha:

; 2301 : 	}
; 2302 : }

	pop	ebp
	ret	0
?SimOpenChatBox@@YAXKHPAX@Z ENDP			; SimOpenChatBox
_TEXT	ENDS
; Function compile flags: /Odtp
; File c:\users\zhitao li\documents\visual studio 2012\projects\freefalcon\ui\include\uicomms.h
;	COMDAT ?GetGame@UIComms@@QAEPAVVuGameEntity@@XZ
_TEXT	SEGMENT
_this$ = -8						; size = 4
tv79 = -4						; size = 4
?GetGame@UIComms@@QAEPAVVuGameEntity@@XZ PROC		; UIComms::GetGame, COMDAT
; _this$ = ecx

; 124  : 		VuGameEntity* GetGame()			{ return FalconLocalGame; }

	push	ebp
	mov	ebp, esp
	sub	esp, 8
	mov	DWORD PTR _this$[ebp], ecx
	mov	ecx, OFFSET ?vuLocalSessionEntity@@3V?$VuBin@VVuSessionEntity@@@@A ; vuLocalSessionEntity
	call	??B?$VuBin@VVuSessionEntity@@@@QBE_NXZ	; VuBin<VuSessionEntity>::operator bool
	movzx	eax, al
	test	eax, eax
	je	SHORT $LN3@GetGame
	mov	ecx, OFFSET ?vuLocalSessionEntity@@3V?$VuBin@VVuSessionEntity@@@@A ; vuLocalSessionEntity
	call	?get@?$VuBin@VVuSessionEntity@@@@QBEPAVVuSessionEntity@@XZ ; VuBin<VuSessionEntity>::get
	mov	ecx, eax
	call	?GetGame@FalconSessionEntity@@QAEPAVFalconGameEntity@@XZ ; FalconSessionEntity::GetGame
	mov	DWORD PTR tv79[ebp], eax
	jmp	SHORT $LN4@GetGame
$LN3@GetGame:
	mov	DWORD PTR tv79[ebp], 0
$LN4@GetGame:
	mov	eax, DWORD PTR tv79[ebp]
	mov	esp, ebp
	pop	ebp
	ret	0
?GetGame@UIComms@@QAEPAVVuGameEntity@@XZ ENDP		; UIComms::GetGame
_TEXT	ENDS
; Function compile flags: /Odtp
; File c:\users\zhitao li\documents\visual studio 2012\projects\freefalcon\ui\include\uicomms.h
;	COMDAT ?Online@UIComms@@QAEHXZ
_TEXT	SEGMENT
_this$ = -4						; size = 4
?Online@UIComms@@QAEHXZ PROC				; UIComms::Online, COMDAT
; _this$ = ecx

; 118  : 		BOOL Online()					{ return(Online_); }

	push	ebp
	mov	ebp, esp
	push	ecx
	mov	DWORD PTR _this$[ebp], ecx
	mov	eax, DWORD PTR _this$[ebp]
	mov	eax, DWORD PTR [eax+64]
	mov	esp, ebp
	pop	ebp
	ret	0
?Online@UIComms@@QAEHXZ ENDP				; UIComms::Online
_TEXT	ENDS
; Function compile flags: /Odtp
; File c:\users\zhitao li\documents\visual studio 2012\projects\freefalcon\ui\include\uicomms.h
;	COMDAT ?GetTargetGameID@UIComms@@QAE?AVVU_ID@@XZ
_TEXT	SEGMENT
_this$ = -4						; size = 4
___$ReturnUdt$ = 8					; size = 4
?GetTargetGameID@UIComms@@QAE?AVVU_ID@@XZ PROC		; UIComms::GetTargetGameID, COMDAT
; _this$ = ecx

; 114  : 		VU_ID GetTargetGameID() { return(TargetGame_); }

	push	ebp
	mov	ebp, esp
	push	ecx
	mov	DWORD PTR _this$[ebp], ecx
	mov	eax, DWORD PTR _this$[ebp]
	mov	ecx, DWORD PTR [eax+76]
	mov	edx, DWORD PTR [eax+80]
	mov	eax, DWORD PTR ___$ReturnUdt$[ebp]
	mov	DWORD PTR [eax], ecx
	mov	DWORD PTR [eax+4], edx
	mov	eax, DWORD PTR ___$ReturnUdt$[ebp]
	mov	esp, ebp
	pop	ebp
	ret	4
?GetTargetGameID@UIComms@@QAE?AVVU_ID@@XZ ENDP		; UIComms::GetTargetGameID
_TEXT	ENDS
; Function compile flags: /Odtp
;	COMDAT ??0CHATSTR@@QAE@XZ
_TEXT	SEGMENT
_this$ = -4						; size = 4
??0CHATSTR@@QAE@XZ PROC					; CHATSTR::CHATSTR, COMDAT
; _this$ = ecx
	push	ebp
	mov	ebp, esp
	push	ecx
	mov	DWORD PTR _this$[ebp], ecx
	mov	ecx, DWORD PTR _this$[ebp]
	call	??0VU_ID@@QAE@XZ			; VU_ID::VU_ID
	mov	eax, DWORD PTR _this$[ebp]
	mov	esp, ebp
	pop	ebp
	ret	0
??0CHATSTR@@QAE@XZ ENDP					; CHATSTR::CHATSTR
_TEXT	ENDS
; Function compile flags: /Odtp
; File c:\users\zhitao li\documents\visual studio 2012\projects\freefalcon\falclib\include\falcsess.h
;	COMDAT ?GetGame@FalconSessionEntity@@QAEPAVFalconGameEntity@@XZ
_TEXT	SEGMENT
_this$ = -4						; size = 4
?GetGame@FalconSessionEntity@@QAEPAVFalconGameEntity@@XZ PROC ; FalconSessionEntity::GetGame, COMDAT
; _this$ = ecx

; 154  : 	FalconGameEntity* GetGame (void)              { return (FalconGameEntity*)VuSessionEntity::Game(); }

	push	ebp
	mov	ebp, esp
	push	ecx
	mov	DWORD PTR _this$[ebp], ecx
	mov	ecx, DWORD PTR _this$[ebp]
	call	?Game@VuSessionEntity@@QAEPAVVuGameEntity@@XZ ; VuSessionEntity::Game
	mov	esp, ebp
	pop	ebp
	ret	0
?GetGame@FalconSessionEntity@@QAEPAVFalconGameEntity@@XZ ENDP ; FalconSessionEntity::GetGame
_TEXT	ENDS
; Function compile flags: /Odtp
; File c:\users\zhitao li\documents\visual studio 2012\projects\freefalcon\falclib\include\falcsess.h
;	COMDAT ?GetPlayerEntity@FalconSessionEntity@@QBEPAVFalconEntity@@XZ
_TEXT	SEGMENT
_this$ = -4						; size = 4
?GetPlayerEntity@FalconSessionEntity@@QBEPAVFalconEntity@@XZ PROC ; FalconSessionEntity::GetPlayerEntity, COMDAT
; _this$ = ecx

; 138  : 	FalconEntity* GetPlayerEntity(void) const     { return playerEntityPtr.get(); }

	push	ebp
	mov	ebp, esp
	push	ecx
	mov	DWORD PTR _this$[ebp], ecx
	mov	ecx, DWORD PTR _this$[ebp]
	add	ecx, 484				; 000001e4H
	call	?get@?$VuBin@VFalconEntity@@@@QBEPAVFalconEntity@@XZ ; VuBin<FalconEntity>::get
	mov	esp, ebp
	pop	ebp
	ret	0
?GetPlayerEntity@FalconSessionEntity@@QBEPAVFalconEntity@@XZ ENDP ; FalconSessionEntity::GetPlayerEntity
_TEXT	ENDS
; Function compile flags: /Odtp
; File c:\users\zhitao li\documents\visual studio 2012\projects\freefalcon\falclib\include\falcsess.h
;	COMDAT ?GetPlayerFlightID@FalconSessionEntity@@QBE?AVVU_ID@@XZ
_TEXT	SEGMENT
_this$ = -4						; size = 4
___$ReturnUdt$ = 8					; size = 4
?GetPlayerFlightID@FalconSessionEntity@@QBE?AVVU_ID@@XZ PROC ; FalconSessionEntity::GetPlayerFlightID, COMDAT
; _this$ = ecx

; 134  : 	VU_ID GetPlayerFlightID(void) const           { return playerFlight; }

	push	ebp
	mov	ebp, esp
	push	ecx
	mov	DWORD PTR _this$[ebp], ecx
	mov	eax, DWORD PTR _this$[ebp]
	mov	ecx, DWORD PTR [eax+460]
	mov	edx, DWORD PTR [eax+464]
	mov	eax, DWORD PTR ___$ReturnUdt$[ebp]
	mov	DWORD PTR [eax], ecx
	mov	DWORD PTR [eax+4], edx
	mov	eax, DWORD PTR ___$ReturnUdt$[ebp]
	mov	esp, ebp
	pop	ebp
	ret	4
?GetPlayerFlightID@FalconSessionEntity@@QBE?AVVU_ID@@XZ ENDP ; FalconSessionEntity::GetPlayerFlightID
_TEXT	ENDS
; Function compile flags: /Odtp
; File c:\users\zhitao li\documents\visual studio 2012\projects\freefalcon\falclib\include\falcsess.h
;	COMDAT ?GetPlayerCallsign@FalconSessionEntity@@QAEPADXZ
_TEXT	SEGMENT
_this$ = -4						; size = 4
?GetPlayerCallsign@FalconSessionEntity@@QAEPADXZ PROC	; FalconSessionEntity::GetPlayerCallsign, COMDAT
; _this$ = ecx

; 132  : 	_TCHAR* GetPlayerCallsign(void)               { return callSign; }

	push	ebp
	mov	ebp, esp
	push	ecx
	mov	DWORD PTR _this$[ebp], ecx
	mov	eax, DWORD PTR _this$[ebp]
	add	eax, 437				; 000001b5H
	mov	esp, ebp
	pop	ebp
	ret	0
?GetPlayerCallsign@FalconSessionEntity@@QAEPADXZ ENDP	; FalconSessionEntity::GetPlayerCallsign
_TEXT	ENDS
; Function compile flags: /Odtp
; File c:\users\zhitao li\documents\visual studio 2012\projects\freefalcon\ui95_ext\cplayer.h
;	COMDAT ?GetVUID@C_Player@@QAE?AVVU_ID@@XZ
_TEXT	SEGMENT
_this$ = -4						; size = 4
___$ReturnUdt$ = 8					; size = 4
?GetVUID@C_Player@@QAE?AVVU_ID@@XZ PROC			; C_Player::GetVUID, COMDAT
; _this$ = ecx

; 80   : 		VU_ID GetVUID()										{ return(vuID); }

	push	ebp
	mov	ebp, esp
	push	ecx
	mov	DWORD PTR _this$[ebp], ecx
	mov	eax, DWORD PTR _this$[ebp]
	mov	ecx, DWORD PTR [eax+140]
	mov	edx, DWORD PTR [eax+144]
	mov	eax, DWORD PTR ___$ReturnUdt$[ebp]
	mov	DWORD PTR [eax], ecx
	mov	DWORD PTR [eax+4], edx
	mov	eax, DWORD PTR ___$ReturnUdt$[ebp]
	mov	esp, ebp
	pop	ebp
	ret	4
?GetVUID@C_Player@@QAE?AVVU_ID@@XZ ENDP			; C_Player::GetVUID
_TEXT	ENDS
; Function compile flags: /Odtp
; File c:\users\zhitao li\documents\visual studio 2012\projects\freefalcon\ui95_ext\cplayer.h
;	COMDAT ?SetVUID@C_Player@@QAEXVVU_ID@@@Z
_TEXT	SEGMENT
_this$ = -4						; size = 4
_id$ = 8						; size = 8
?SetVUID@C_Player@@QAEXVVU_ID@@@Z PROC			; C_Player::SetVUID, COMDAT
; _this$ = ecx

; 79   : 		void SetVUID(VU_ID id)								{ vuID=id; }

	push	ebp
	mov	ebp, esp
	push	ecx
	mov	DWORD PTR _this$[ebp], ecx
	mov	eax, DWORD PTR _this$[ebp]
	mov	ecx, DWORD PTR _id$[ebp]
	mov	DWORD PTR [eax+140], ecx
	mov	edx, DWORD PTR _id$[ebp+4]
	mov	DWORD PTR [eax+144], edx
	mov	esp, ebp
	pop	ebp
	ret	8
?SetVUID@C_Player@@QAEXVVU_ID@@@Z ENDP			; C_Player::SetVUID
_TEXT	ENDS
; Function compile flags: /Odtp
; File c:\users\zhitao li\documents\visual studio 2012\projects\freefalcon\ui95_ext\cplayer.h
;	COMDAT ?GetName@C_Player@@QAEPADXZ
_TEXT	SEGMENT
_this$ = -4						; size = 4
?GetName@C_Player@@QAEPADXZ PROC			; C_Player::GetName, COMDAT
; _this$ = ecx

; 66   : 		_TCHAR *GetName()									{ if(Name_) return(Name_->GetText()); return(NULL); }

	push	ebp
	mov	ebp, esp
	push	ecx
	mov	DWORD PTR _this$[ebp], ecx
	mov	eax, DWORD PTR _this$[ebp]
	cmp	DWORD PTR [eax+128], 0
	je	SHORT $LN1@GetName
	mov	ecx, DWORD PTR _this$[ebp]
	mov	ecx, DWORD PTR [ecx+128]
	call	?GetText@O_Output@@QAEPADXZ		; O_Output::GetText
	jmp	SHORT $LN2@GetName
$LN1@GetName:
	xor	eax, eax
$LN2@GetName:
	mov	esp, ebp
	pop	ebp
	ret	0
?GetName@C_Player@@QAEPADXZ ENDP			; C_Player::GetName
_TEXT	ENDS
; Function compile flags: /Odtp
; File c:\users\zhitao li\documents\visual studio 2012\projects\freefalcon\ui95_ext\cplayer.h
;	COMDAT ?GetIgnore@C_Player@@QAEFXZ
_TEXT	SEGMENT
_this$ = -4						; size = 4
?GetIgnore@C_Player@@QAEFXZ PROC			; C_Player::GetIgnore, COMDAT
; _this$ = ecx

; 64   : 		short GetIgnore()									{ return(ignored_); }

	push	ebp
	mov	ebp, esp
	push	ecx
	mov	DWORD PTR _this$[ebp], ecx
	mov	eax, DWORD PTR _this$[ebp]
	mov	ax, WORD PTR [eax+108]
	mov	esp, ebp
	pop	ebp
	ret	0
?GetIgnore@C_Player@@QAEFXZ ENDP			; C_Player::GetIgnore
_TEXT	ENDS
; Function compile flags: /Odtp
; File c:\users\zhitao li\documents\visual studio 2012\projects\freefalcon\ui95_ext\cplayer.h
;	COMDAT ?GetMute@C_Player@@QAEFXZ
_TEXT	SEGMENT
_this$ = -4						; size = 4
?GetMute@C_Player@@QAEFXZ PROC				; C_Player::GetMute, COMDAT
; _this$ = ecx

; 61   : 		short GetMute()										{ return(muted_); }

	push	ebp
	mov	ebp, esp
	push	ecx
	mov	DWORD PTR _this$[ebp], ecx
	mov	eax, DWORD PTR _this$[ebp]
	mov	ax, WORD PTR [eax+106]
	mov	esp, ebp
	pop	ebp
	ret	0
?GetMute@C_Player@@QAEFXZ ENDP				; C_Player::GetMute
_TEXT	ENDS
; Function compile flags: /Odtp
; File c:\users\zhitao li\documents\visual studio 2012\projects\freefalcon\ui95_ext\cplayer.h
;	COMDAT ?SetColor@C_Player@@QAEXKKK@Z
_TEXT	SEGMENT
_this$ = -4						; size = 4
_Off$ = 8						; size = 4
_On$ = 12						; size = 4
_ign$ = 16						; size = 4
?SetColor@C_Player@@QAEXKKK@Z PROC			; C_Player::SetColor, COMDAT
; _this$ = ecx

; 55   : 		void SetColor(COLORREF Off,COLORREF On,COLORREF ign)	{ Color_[0]=Off; Color_[1]=On; Color_[2]=ign; }

	push	ebp
	mov	ebp, esp
	push	ecx
	mov	DWORD PTR _this$[ebp], ecx
	mov	eax, 4
	imul	eax, 0
	mov	ecx, DWORD PTR _this$[ebp]
	mov	edx, DWORD PTR _Off$[ebp]
	mov	DWORD PTR [ecx+eax+112], edx
	mov	eax, 4
	shl	eax, 0
	mov	ecx, DWORD PTR _this$[ebp]
	mov	edx, DWORD PTR _On$[ebp]
	mov	DWORD PTR [ecx+eax+112], edx
	mov	eax, 4
	shl	eax, 1
	mov	ecx, DWORD PTR _this$[ebp]
	mov	edx, DWORD PTR _ign$[ebp]
	mov	DWORD PTR [ecx+eax+112], edx
	mov	esp, ebp
	pop	ebp
	ret	12					; 0000000cH
?SetColor@C_Player@@QAEXKKK@Z ENDP			; C_Player::SetColor
_TEXT	ENDS
; Function compile flags: /Odtp
; File c:\users\zhitao li\documents\visual studio 2012\projects\freefalcon\ui95_ext\cplayer.h
;	COMDAT ?SetName@C_Player@@QAEXPAD@Z
_TEXT	SEGMENT
_this$ = -4						; size = 4
_str$ = 8						; size = 4
?SetName@C_Player@@QAEXPAD@Z PROC			; C_Player::SetName, COMDAT
; _this$ = ecx

; 52   : 		void SetName(_TCHAR *str)							{ if(Name_) { Name_->SetText(str); Name_->SetInfo(); } }

	push	ebp
	mov	ebp, esp
	push	ecx
	mov	DWORD PTR _this$[ebp], ecx
	mov	eax, DWORD PTR _this$[ebp]
	cmp	DWORD PTR [eax+128], 0
	je	SHORT $LN2@SetName
	mov	ecx, DWORD PTR _str$[ebp]
	push	ecx
	mov	edx, DWORD PTR _this$[ebp]
	mov	ecx, DWORD PTR [edx+128]
	call	?SetText@O_Output@@QAEXPAD@Z		; O_Output::SetText
	mov	eax, DWORD PTR _this$[ebp]
	mov	ecx, DWORD PTR [eax+128]
	call	?SetInfo@O_Output@@QAEXXZ		; O_Output::SetInfo
$LN2@SetName:
	mov	esp, ebp
	pop	ebp
	ret	4
?SetName@C_Player@@QAEXPAD@Z ENDP			; C_Player::SetName
_TEXT	ENDS
; Function compile flags: /Odtp
; File c:\users\zhitao li\documents\visual studio 2012\projects\freefalcon\ui95_ext\cplayer.h
;	COMDAT ?SetStatus@C_Player@@QAEXFFJ@Z
_TEXT	SEGMENT
_this$ = -4						; size = 4
_x$ = 8							; size = 2
_y$ = 12						; size = 2
_ImageID$ = 16						; size = 4
?SetStatus@C_Player@@QAEXFFJ@Z PROC			; C_Player::SetStatus, COMDAT
; _this$ = ecx

; 48   : 		void SetStatus(short x,short y,long ImageID)		{ if(Status_) { Status_->SetXY(x,y); Status_->SetImage(ImageID); Status_->SetInfo(); } }

	push	ebp
	mov	ebp, esp
	push	ecx
	mov	DWORD PTR _this$[ebp], ecx
	mov	eax, DWORD PTR _this$[ebp]
	cmp	DWORD PTR [eax+132], 0
	je	SHORT $LN2@SetStatus
	movsx	ecx, WORD PTR _y$[ebp]
	push	ecx
	movsx	edx, WORD PTR _x$[ebp]
	push	edx
	mov	eax, DWORD PTR _this$[ebp]
	mov	ecx, DWORD PTR [eax+132]
	call	?SetXY@O_Output@@QAEXJJ@Z		; O_Output::SetXY
	mov	ecx, DWORD PTR _ImageID$[ebp]
	push	ecx
	mov	edx, DWORD PTR _this$[ebp]
	mov	ecx, DWORD PTR [edx+132]
	call	?SetImage@O_Output@@QAEXJ@Z		; O_Output::SetImage
	mov	eax, DWORD PTR _this$[ebp]
	mov	ecx, DWORD PTR [eax+132]
	call	?SetInfo@O_Output@@QAEXXZ		; O_Output::SetInfo
$LN2@SetStatus:
	mov	esp, ebp
	pop	ebp
	ret	12					; 0000000cH
?SetStatus@C_Player@@QAEXFFJ@Z ENDP			; C_Player::SetStatus
_TEXT	ENDS
; Function compile flags: /Odtp
; File c:\users\zhitao li\documents\visual studio 2012\projects\freefalcon\ui95_ext\cplayer.h
;	COMDAT ?SetName@C_Player@@QAEXFFPAD@Z
_TEXT	SEGMENT
_this$ = -4						; size = 4
_x$ = 8							; size = 2
_y$ = 12						; size = 2
_str$ = 16						; size = 4
?SetName@C_Player@@QAEXFFPAD@Z PROC			; C_Player::SetName, COMDAT
; _this$ = ecx

; 47   : 		void SetName(short x,short y,TCHAR *str) 	        { if(Name_) { Name_->SetXY(x,y); Name_->SetText(str); Name_->SetInfo(); } }

	push	ebp
	mov	ebp, esp
	push	ecx
	mov	DWORD PTR _this$[ebp], ecx
	mov	eax, DWORD PTR _this$[ebp]
	cmp	DWORD PTR [eax+128], 0
	je	SHORT $LN2@SetName
	movsx	ecx, WORD PTR _y$[ebp]
	push	ecx
	movsx	edx, WORD PTR _x$[ebp]
	push	edx
	mov	eax, DWORD PTR _this$[ebp]
	mov	ecx, DWORD PTR [eax+128]
	call	?SetXY@O_Output@@QAEXJJ@Z		; O_Output::SetXY
	mov	ecx, DWORD PTR _str$[ebp]
	push	ecx
	mov	edx, DWORD PTR _this$[ebp]
	mov	ecx, DWORD PTR [edx+128]
	call	?SetText@O_Output@@QAEXPAD@Z		; O_Output::SetText
	mov	eax, DWORD PTR _this$[ebp]
	mov	ecx, DWORD PTR [eax+128]
	call	?SetInfo@O_Output@@QAEXXZ		; O_Output::SetInfo
$LN2@SetName:
	mov	esp, ebp
	pop	ebp
	ret	12					; 0000000cH
?SetName@C_Player@@QAEXFFPAD@Z ENDP			; C_Player::SetName
_TEXT	ENDS
; Function compile flags: /Odtp
; File c:\users\zhitao li\documents\visual studio 2012\projects\freefalcon\ui95_ext\cplayer.h
;	COMDAT ?SetIcon@C_Player@@QAEXFFJ@Z
_TEXT	SEGMENT
_this$ = -4						; size = 4
_x$ = 8							; size = 2
_y$ = 12						; size = 2
_ImageID$ = 16						; size = 4
?SetIcon@C_Player@@QAEXFFJ@Z PROC			; C_Player::SetIcon, COMDAT
; _this$ = ecx

; 45   : 		void SetIcon(short x,short y,long ImageID)			{ if(Icon_) { Icon_->SetXY(x,y); Icon_->SetImage(ImageID); Icon_->SetInfo(); } }

	push	ebp
	mov	ebp, esp
	push	ecx
	mov	DWORD PTR _this$[ebp], ecx
	mov	eax, DWORD PTR _this$[ebp]
	cmp	DWORD PTR [eax+124], 0
	je	SHORT $LN2@SetIcon
	movsx	ecx, WORD PTR _y$[ebp]
	push	ecx
	movsx	edx, WORD PTR _x$[ebp]
	push	edx
	mov	eax, DWORD PTR _this$[ebp]
	mov	ecx, DWORD PTR [eax+124]
	call	?SetXY@O_Output@@QAEXJJ@Z		; O_Output::SetXY
	mov	ecx, DWORD PTR _ImageID$[ebp]
	push	ecx
	mov	edx, DWORD PTR _this$[ebp]
	mov	ecx, DWORD PTR [edx+124]
	call	?SetImage@O_Output@@QAEXJ@Z		; O_Output::SetImage
	mov	eax, DWORD PTR _this$[ebp]
	mov	ecx, DWORD PTR [eax+124]
	call	?SetInfo@O_Output@@QAEXXZ		; O_Output::SetInfo
$LN2@SetIcon:
	mov	esp, ebp
	pop	ebp
	ret	12					; 0000000cH
?SetIcon@C_Player@@QAEXFFJ@Z ENDP			; C_Player::SetIcon
_TEXT	ENDS
; Function compile flags: /Odtp
; File c:\users\zhitao li\documents\visual studio 2012\projects\freefalcon\ui95\chandler.h
;	COMDAT ?SetSection@C_Handler@@QAEXJ@Z
_TEXT	SEGMENT
_this$ = -4						; size = 4
_ID$ = 8						; size = 4
?SetSection@C_Handler@@QAEXJ@Z PROC			; C_Handler::SetSection, COMDAT
; _this$ = ecx

; 180  : 		void SetSection(long ID) { CurrentSection_=ID; }

	push	ebp
	mov	ebp, esp
	push	ecx
	mov	DWORD PTR _this$[ebp], ecx
	mov	eax, DWORD PTR _this$[ebp]
	mov	ecx, DWORD PTR _ID$[ebp]
	mov	DWORD PTR [eax+124], ecx
	mov	esp, ebp
	pop	ebp
	ret	4
?SetSection@C_Handler@@QAEXJ@Z ENDP			; C_Handler::SetSection
_TEXT	ENDS
; Function compile flags: /Odtp
; File c:\users\zhitao li\documents\visual studio 2012\projects\freefalcon\ui95\cwindow.h
;	COMDAT ?SetVirtualY@C_Window@@QAEXJJ@Z
_TEXT	SEGMENT
_this$ = -4						; size = 4
_y$ = 8							; size = 4
_Client$ = 12						; size = 4
?SetVirtualY@C_Window@@QAEXJJ@Z PROC			; C_Window::SetVirtualY, COMDAT
; _this$ = ecx

; 255  : 		void SetVirtualY(long y,long Client) { if(Client >= WIN_MAX_CLIENTS) return; VY_[Client]=-y;}

	push	ebp
	mov	ebp, esp
	push	ecx
	mov	DWORD PTR _this$[ebp], ecx
	cmp	DWORD PTR _Client$[ebp], 8
	jl	SHORT $LN1@SetVirtual
	jmp	SHORT $LN2@SetVirtual
$LN1@SetVirtual:
	mov	eax, DWORD PTR _y$[ebp]
	neg	eax
	mov	ecx, DWORD PTR _Client$[ebp]
	mov	edx, DWORD PTR _this$[ebp]
	mov	DWORD PTR [edx+ecx*4+512], eax
$LN2@SetVirtual:
	mov	esp, ebp
	pop	ebp
	ret	8
?SetVirtualY@C_Window@@QAEXJJ@Z ENDP			; C_Window::SetVirtualY
_TEXT	ENDS
; Function compile flags: /Odtp
; File c:\users\zhitao li\documents\visual studio 2012\projects\freefalcon\ui95\cparser.h
;	COMDAT ?GetNextWindowLoaded@C_Parser@@QAEJXZ
_TEXT	SEGMENT
_this$ = -4						; size = 4
?GetNextWindowLoaded@C_Parser@@QAEJXZ PROC		; C_Parser::GetNextWindowLoaded, COMDAT
; _this$ = ecx

; 99   : 		long GetNextWindowLoaded() { WinIndex_++; if(WinIndex_ < WinLoaded_) return(WindowList_[WinIndex_]); else return(0); }

	push	ebp
	mov	ebp, esp
	push	ecx
	mov	DWORD PTR _this$[ebp], ecx
	mov	eax, DWORD PTR _this$[ebp]
	mov	cx, WORD PTR [eax+960]
	add	cx, 1
	mov	edx, DWORD PTR _this$[ebp]
	mov	WORD PTR [edx+960], cx
	mov	eax, DWORD PTR _this$[ebp]
	movsx	ecx, WORD PTR [eax+960]
	mov	edx, DWORD PTR _this$[ebp]
	movsx	eax, WORD PTR [edx+962]
	cmp	ecx, eax
	jge	SHORT $LN2@GetNextWin
	mov	ecx, DWORD PTR _this$[ebp]
	movsx	edx, WORD PTR [ecx+960]
	mov	eax, DWORD PTR _this$[ebp]
	mov	eax, DWORD PTR [eax+edx*4+104]
	jmp	SHORT $LN3@GetNextWin
	jmp	SHORT $LN3@GetNextWin
$LN2@GetNextWin:
	xor	eax, eax
$LN3@GetNextWin:
	mov	esp, ebp
	pop	ebp
	ret	0
?GetNextWindowLoaded@C_Parser@@QAEJXZ ENDP		; C_Parser::GetNextWindowLoaded
_TEXT	ENDS
; Function compile flags: /Odtp
; File c:\users\zhitao li\documents\visual studio 2012\projects\freefalcon\ui95\cparser.h
;	COMDAT ?GetFirstWindowLoaded@C_Parser@@QAEJXZ
_TEXT	SEGMENT
_this$ = -4						; size = 4
?GetFirstWindowLoaded@C_Parser@@QAEJXZ PROC		; C_Parser::GetFirstWindowLoaded, COMDAT
; _this$ = ecx

; 98   : 		long GetFirstWindowLoaded() { WinIndex_=0; if(WinIndex_ < WinLoaded_) return(WindowList_[WinIndex_]); else return(0); }

	push	ebp
	mov	ebp, esp
	push	ecx
	mov	DWORD PTR _this$[ebp], ecx
	xor	eax, eax
	mov	ecx, DWORD PTR _this$[ebp]
	mov	WORD PTR [ecx+960], ax
	mov	edx, DWORD PTR _this$[ebp]
	movsx	eax, WORD PTR [edx+960]
	mov	ecx, DWORD PTR _this$[ebp]
	movsx	edx, WORD PTR [ecx+962]
	cmp	eax, edx
	jge	SHORT $LN2@GetFirstWi
	mov	eax, DWORD PTR _this$[ebp]
	movsx	ecx, WORD PTR [eax+960]
	mov	edx, DWORD PTR _this$[ebp]
	mov	eax, DWORD PTR [edx+ecx*4+104]
	jmp	SHORT $LN3@GetFirstWi
	jmp	SHORT $LN3@GetFirstWi
$LN2@GetFirstWi:
	xor	eax, eax
$LN3@GetFirstWi:
	mov	esp, ebp
	pop	ebp
	ret	0
?GetFirstWindowLoaded@C_Parser@@QAEJXZ ENDP		; C_Parser::GetFirstWindowLoaded
_TEXT	ENDS
; Function compile flags: /Odtp
; File c:\users\zhitao li\documents\visual studio 2012\projects\freefalcon\ui95\cpopmgr.h
;	COMDAT ?GetCallingControl@C_PopupMgr@@QAEPAVC_Base@@XZ
_TEXT	SEGMENT
_this$ = -4						; size = 4
?GetCallingControl@C_PopupMgr@@QAEPAVC_Base@@XZ PROC	; C_PopupMgr::GetCallingControl, COMDAT
; _this$ = ecx

; 58   : 		C_Base *GetCallingControl() { return(Control_); }

	push	ebp
	mov	ebp, esp
	push	ecx
	mov	DWORD PTR _this$[ebp], ecx
	mov	eax, DWORD PTR _this$[ebp]
	mov	eax, DWORD PTR [eax+24]
	mov	esp, ebp
	pop	ebp
	ret	0
?GetCallingControl@C_PopupMgr@@QAEPAVC_Base@@XZ ENDP	; C_PopupMgr::GetCallingControl
_TEXT	ENDS
; Function compile flags: /Odtp
; File c:\users\zhitao li\documents\visual studio 2012\projects\freefalcon\ui95\cpopmgr.h
;	COMDAT ?GetCallingType@C_PopupMgr@@QAEFXZ
_TEXT	SEGMENT
_this$ = -4						; size = 4
?GetCallingType@C_PopupMgr@@QAEFXZ PROC			; C_PopupMgr::GetCallingType, COMDAT
; _this$ = ecx

; 56   : 		short GetCallingType() { return(CurrentType_); }

	push	ebp
	mov	ebp, esp
	push	ecx
	mov	DWORD PTR _this$[ebp], ecx
	mov	eax, DWORD PTR _this$[ebp]
	mov	ax, WORD PTR [eax+4]
	mov	esp, ebp
	pop	ebp
	ret	0
?GetCallingType@C_PopupMgr@@QAEFXZ ENDP			; C_PopupMgr::GetCallingType
_TEXT	ENDS
; Function compile flags: /Odtp
; File c:\users\zhitao li\documents\visual studio 2012\projects\freefalcon\ui95\cthook.h
;	COMDAT ?SetRefreshCallback@C_TimerHook@@QAEXP6AXJFPAVC_Base@@@Z@Z
_TEXT	SEGMENT
_this$ = -4						; size = 4
_routine$ = 8						; size = 4
?SetRefreshCallback@C_TimerHook@@QAEXP6AXJFPAVC_Base@@@Z@Z PROC ; C_TimerHook::SetRefreshCallback, COMDAT
; _this$ = ecx

; 33   : 		void SetRefreshCallback(void (*routine)(long ID,short hittype,C_Base *control)) { RefreshCallback_=routine; }

	push	ebp
	mov	ebp, esp
	push	ecx
	mov	DWORD PTR _this$[ebp], ecx
	mov	eax, DWORD PTR _this$[ebp]
	mov	ecx, DWORD PTR _routine$[ebp]
	mov	DWORD PTR [eax+56], ecx
	mov	esp, ebp
	pop	ebp
	ret	4
?SetRefreshCallback@C_TimerHook@@QAEXP6AXJFPAVC_Base@@@Z@Z ENDP ; C_TimerHook::SetRefreshCallback
_TEXT	ENDS
; Function compile flags: /Odtp
; File c:\users\zhitao li\documents\visual studio 2012\projects\freefalcon\ui95\cthook.h
;	COMDAT ?SetUpdateCallback@C_TimerHook@@QAEXP6AXJFPAVC_Base@@@Z@Z
_TEXT	SEGMENT
_this$ = -4						; size = 4
_routine$ = 8						; size = 4
?SetUpdateCallback@C_TimerHook@@QAEXP6AXJFPAVC_Base@@@Z@Z PROC ; C_TimerHook::SetUpdateCallback, COMDAT
; _this$ = ecx

; 32   : 		void SetUpdateCallback(void (*routine)(long ID,short hittype,C_Base *control)) { UpdateCallback_=routine; }

	push	ebp
	mov	ebp, esp
	push	ecx
	mov	DWORD PTR _this$[ebp], ecx
	mov	eax, DWORD PTR _this$[ebp]
	mov	ecx, DWORD PTR _routine$[ebp]
	mov	DWORD PTR [eax+52], ecx
	mov	esp, ebp
	pop	ebp
	ret	4
?SetUpdateCallback@C_TimerHook@@QAEXP6AXJFPAVC_Base@@@Z@Z ENDP ; C_TimerHook::SetUpdateCallback
_TEXT	ENDS
; Function compile flags: /Odtp
; File c:\users\zhitao li\documents\visual studio 2012\projects\freefalcon\ui95\ctree.h
;	COMDAT ?SearchWithCB@C_TreeList@@QAEPAVTREELIST@@PAV2@@Z
_TEXT	SEGMENT
_this$ = -4						; size = 4
_me$ = 8						; size = 4
?SearchWithCB@C_TreeList@@QAEPAVTREELIST@@PAV2@@Z PROC	; C_TreeList::SearchWithCB, COMDAT
; _this$ = ecx

; 122  : 		TREELIST *SearchWithCB(TREELIST *me) { if(SearchCB_ != NULL) return(FindItemWithCB(me)); return(NULL); }

	push	ebp
	mov	ebp, esp
	push	ecx
	mov	DWORD PTR _this$[ebp], ecx
	mov	eax, DWORD PTR _this$[ebp]
	cmp	DWORD PTR [eax+172], 0
	je	SHORT $LN1@SearchWith
	mov	ecx, DWORD PTR _me$[ebp]
	push	ecx
	mov	ecx, DWORD PTR _this$[ebp]
	call	?FindItemWithCB@C_TreeList@@IAEPAVTREELIST@@PAV2@@Z ; C_TreeList::FindItemWithCB
	jmp	SHORT $LN2@SearchWith
$LN1@SearchWith:
	xor	eax, eax
$LN2@SearchWith:
	mov	esp, ebp
	pop	ebp
	ret	4
?SearchWithCB@C_TreeList@@QAEPAVTREELIST@@PAV2@@Z ENDP	; C_TreeList::SearchWithCB
_TEXT	ENDS
; Function compile flags: /Odtp
; File c:\users\zhitao li\documents\visual studio 2012\projects\freefalcon\ui95\ctree.h
;	COMDAT ?GetLastItem@C_TreeList@@QAEPAVTREELIST@@XZ
_TEXT	SEGMENT
_this$ = -4						; size = 4
?GetLastItem@C_TreeList@@QAEPAVTREELIST@@XZ PROC	; C_TreeList::GetLastItem, COMDAT
; _this$ = ecx

; 119  : 		TREELIST *GetLastItem() { return(LastFound_); }

	push	ebp
	mov	ebp, esp
	push	ecx
	mov	DWORD PTR _this$[ebp], ecx
	mov	eax, DWORD PTR _this$[ebp]
	mov	eax, DWORD PTR [eax+140]
	mov	esp, ebp
	pop	ebp
	ret	0
?GetLastItem@C_TreeList@@QAEPAVTREELIST@@XZ ENDP	; C_TreeList::GetLastItem
_TEXT	ENDS
; Function compile flags: /Odtp
; File c:\users\zhitao li\documents\visual studio 2012\projects\freefalcon\ui95\ctree.h
;	COMDAT ?GetRoot@C_TreeList@@QAEPAVTREELIST@@XZ
_TEXT	SEGMENT
_this$ = -4						; size = 4
?GetRoot@C_TreeList@@QAEPAVTREELIST@@XZ PROC		; C_TreeList::GetRoot, COMDAT
; _this$ = ecx

; 118  : 		TREELIST *GetRoot() { return(Root_); }

	push	ebp
	mov	ebp, esp
	push	ecx
	mov	DWORD PTR _this$[ebp], ecx
	mov	eax, DWORD PTR _this$[ebp]
	mov	eax, DWORD PTR [eax+136]
	mov	esp, ebp
	pop	ebp
	ret	0
?GetRoot@C_TreeList@@QAEPAVTREELIST@@XZ ENDP		; C_TreeList::GetRoot
_TEXT	ENDS
; Function compile flags: /Odtp
; File c:\users\zhitao li\documents\visual studio 2012\projects\freefalcon\ui95\ctree.h
;	COMDAT ?SetSearchCB@C_TreeList@@QAEXP6AHPAVTREELIST@@@Z@Z
_TEXT	SEGMENT
_this$ = -4						; size = 4
_cb$ = 8						; size = 4
?SetSearchCB@C_TreeList@@QAEXP6AHPAVTREELIST@@@Z@Z PROC	; C_TreeList::SetSearchCB, COMDAT
; _this$ = ecx

; 99   : 		void SetSearchCB(BOOL (*cb)(TREELIST*)) { SearchCB_=cb; }

	push	ebp
	mov	ebp, esp
	push	ecx
	mov	DWORD PTR _this$[ebp], ecx
	mov	eax, DWORD PTR _this$[ebp]
	mov	ecx, DWORD PTR _cb$[ebp]
	mov	DWORD PTR [eax+172], ecx
	mov	esp, ebp
	pop	ebp
	ret	4
?SetSearchCB@C_TreeList@@QAEXP6AHPAVTREELIST@@@Z@Z ENDP	; C_TreeList::SetSearchCB
_TEXT	ENDS
; Function compile flags: /Odtp
; File c:\users\zhitao li\documents\visual studio 2012\projects\freefalcon\ui95\ctree.h
;	COMDAT ?SetDelCallback@C_TreeList@@QAEXP6AXPAVTREELIST@@@Z@Z
_TEXT	SEGMENT
_this$ = -4						; size = 4
_cb$ = 8						; size = 4
?SetDelCallback@C_TreeList@@QAEXP6AXPAVTREELIST@@@Z@Z PROC ; C_TreeList::SetDelCallback, COMDAT
; _this$ = ecx

; 92   : 		void SetDelCallback(void (*cb)(TREELIST *item)) { DelCallback_=cb; }

	push	ebp
	mov	ebp, esp
	push	ecx
	mov	DWORD PTR _this$[ebp], ecx
	mov	eax, DWORD PTR _this$[ebp]
	mov	ecx, DWORD PTR _cb$[ebp]
	mov	DWORD PTR [eax+164], ecx
	mov	esp, ebp
	pop	ebp
	ret	4
?SetDelCallback@C_TreeList@@QAEXP6AXPAVTREELIST@@@Z@Z ENDP ; C_TreeList::SetDelCallback
_TEXT	ENDS
; Function compile flags: /Odtp
; File c:\users\zhitao li\documents\visual studio 2012\projects\freefalcon\ui95\cbase.h
;	COMDAT ?GetParent@C_Base@@QAEPAVC_Window@@XZ
_TEXT	SEGMENT
_this$ = -4						; size = 4
?GetParent@C_Base@@QAEPAVC_Window@@XZ PROC		; C_Base::GetParent, COMDAT
; _this$ = ecx

; 149  : 		C_Window *GetParent()		{ return(Parent_); }

	push	ebp
	mov	ebp, esp
	push	ecx
	mov	DWORD PTR _this$[ebp], ecx
	mov	eax, DWORD PTR _this$[ebp]
	mov	eax, DWORD PTR [eax+48]
	mov	esp, ebp
	pop	ebp
	ret	0
?GetParent@C_Base@@QAEPAVC_Window@@XZ ENDP		; C_Base::GetParent
_TEXT	ENDS
; Function compile flags: /Odtp
; File c:\users\zhitao li\documents\visual studio 2012\projects\freefalcon\ui95\cbase.h
;	COMDAT ?GetH@C_Base@@QAEJXZ
_TEXT	SEGMENT
_this$ = -4						; size = 4
?GetH@C_Base@@QAEJXZ PROC				; C_Base::GetH, COMDAT
; _this$ = ecx

; 144  : 		long GetH()					{ return(h_); }

	push	ebp
	mov	ebp, esp
	push	ecx
	mov	DWORD PTR _this$[ebp], ecx
	mov	eax, DWORD PTR _this$[ebp]
	mov	eax, DWORD PTR [eax+36]
	mov	esp, ebp
	pop	ebp
	ret	0
?GetH@C_Base@@QAEJXZ ENDP				; C_Base::GetH
_TEXT	ENDS
; Function compile flags: /Odtp
; File c:\users\zhitao li\documents\visual studio 2012\projects\freefalcon\ui95\cbase.h
;	COMDAT ?GetY@C_Base@@QAEJXZ
_TEXT	SEGMENT
_this$ = -4						; size = 4
?GetY@C_Base@@QAEJXZ PROC				; C_Base::GetY, COMDAT
; _this$ = ecx

; 142  : 		long GetY()					{ return(y_); }

	push	ebp
	mov	ebp, esp
	push	ecx
	mov	DWORD PTR _this$[ebp], ecx
	mov	eax, DWORD PTR _this$[ebp]
	mov	eax, DWORD PTR [eax+28]
	mov	esp, ebp
	pop	ebp
	ret	0
?GetY@C_Base@@QAEJXZ ENDP				; C_Base::GetY
_TEXT	ENDS
; Function compile flags: /Odtp
; File c:\users\zhitao li\documents\visual studio 2012\projects\freefalcon\ui95\cbase.h
;	COMDAT ?GetClient@C_Base@@QAEFXZ
_TEXT	SEGMENT
_this$ = -4						; size = 4
?GetClient@C_Base@@QAEFXZ PROC				; C_Base::GetClient, COMDAT
; _this$ = ecx

; 140  : 		short GetClient()			{ return(Client_); }

	push	ebp
	mov	ebp, esp
	push	ecx
	mov	DWORD PTR _this$[ebp], ecx
	mov	eax, DWORD PTR _this$[ebp]
	mov	ax, WORD PTR [eax+40]
	mov	esp, ebp
	pop	ebp
	ret	0
?GetClient@C_Base@@QAEFXZ ENDP				; C_Base::GetClient
_TEXT	ENDS
; Function compile flags: /Odtp
; File c:\users\zhitao li\documents\visual studio 2012\projects\freefalcon\ui95\cbase.h
;	COMDAT ?GetFlags@C_Base@@QAEJXZ
_TEXT	SEGMENT
_this$ = -4						; size = 4
?GetFlags@C_Base@@QAEJXZ PROC				; C_Base::GetFlags, COMDAT
; _this$ = ecx

; 139  : 		long  GetFlags()			{ return(Flags_); }

	push	ebp
	mov	ebp, esp
	push	ecx
	mov	DWORD PTR _this$[ebp], ecx
	mov	eax, DWORD PTR _this$[ebp]
	mov	eax, DWORD PTR [eax+16]
	mov	esp, ebp
	pop	ebp
	ret	0
?GetFlags@C_Base@@QAEJXZ ENDP				; C_Base::GetFlags
_TEXT	ENDS
; Function compile flags: /Odtp
; File c:\users\zhitao li\documents\visual studio 2012\projects\freefalcon\ui95\cbase.h
;	COMDAT ?GetCluster@C_Base@@QAEJXZ
_TEXT	SEGMENT
_this$ = -4						; size = 4
?GetCluster@C_Base@@QAEJXZ PROC				; C_Base::GetCluster, COMDAT
; _this$ = ecx

; 138  : 		long  GetCluster()			{ return(Section_[_CLUSTER_]); }

	push	ebp
	mov	ebp, esp
	push	ecx
	mov	DWORD PTR _this$[ebp], ecx
	mov	eax, 4
	shl	eax, 0
	mov	ecx, DWORD PTR _this$[ebp]
	mov	eax, DWORD PTR [ecx+eax+8]
	mov	esp, ebp
	pop	ebp
	ret	0
?GetCluster@C_Base@@QAEJXZ ENDP				; C_Base::GetCluster
_TEXT	ENDS
; Function compile flags: /Odtp
; File c:\users\zhitao li\documents\visual studio 2012\projects\freefalcon\ui95\cbase.h
;	COMDAT ?GetGroup@C_Base@@QAEJXZ
_TEXT	SEGMENT
_this$ = -4						; size = 4
?GetGroup@C_Base@@QAEJXZ PROC				; C_Base::GetGroup, COMDAT
; _this$ = ecx

; 137  : 		long  GetGroup()			{ return(Section_[_GROUP_]); }

	push	ebp
	mov	ebp, esp
	push	ecx
	mov	DWORD PTR _this$[ebp], ecx
	mov	eax, 4
	imul	eax, 0
	mov	ecx, DWORD PTR _this$[ebp]
	mov	eax, DWORD PTR [ecx+eax+8]
	mov	esp, ebp
	pop	ebp
	ret	0
?GetGroup@C_Base@@QAEJXZ ENDP				; C_Base::GetGroup
_TEXT	ENDS
; Function compile flags: /Odtp
; File c:\users\zhitao li\documents\visual studio 2012\projects\freefalcon\ui95\cbase.h
;	COMDAT ?SetReady@C_Base@@QAEXF@Z
_TEXT	SEGMENT
_this$ = -4						; size = 4
_r$ = 8							; size = 2
?SetReady@C_Base@@QAEXF@Z PROC				; C_Base::SetReady, COMDAT
; _this$ = ecx

; 116  : 		void SetReady(short r)									{ Ready_=r; }

	push	ebp
	mov	ebp, esp
	push	ecx
	mov	DWORD PTR _this$[ebp], ecx
	mov	eax, DWORD PTR _this$[ebp]
	mov	cx, WORD PTR _r$[ebp]
	mov	WORD PTR [eax+42], cx
	mov	esp, ebp
	pop	ebp
	ret	4
?SetReady@C_Base@@QAEXF@Z ENDP				; C_Base::SetReady
_TEXT	ENDS
; Function compile flags: /Odtp
; File c:\users\zhitao li\documents\visual studio 2012\projects\freefalcon\ui95\cbase.h
;	COMDAT ?SetClient@C_Base@@QAEXF@Z
_TEXT	SEGMENT
_this$ = -4						; size = 4
_client$ = 8						; size = 2
?SetClient@C_Base@@QAEXF@Z PROC				; C_Base::SetClient, COMDAT
; _this$ = ecx

; 98   : 		void SetClient(short client)							{ Client_=client; }

	push	ebp
	mov	ebp, esp
	push	ecx
	mov	DWORD PTR _this$[ebp], ecx
	mov	eax, DWORD PTR _this$[ebp]
	mov	cx, WORD PTR _client$[ebp]
	mov	WORD PTR [eax+40], cx
	mov	esp, ebp
	pop	ebp
	ret	4
?SetClient@C_Base@@QAEXF@Z ENDP				; C_Base::SetClient
_TEXT	ENDS
; Function compile flags: /Odtp
; File c:\users\zhitao li\documents\visual studio 2012\projects\freefalcon\ui95\ooutput.h
;	COMDAT ?GetText@O_Output@@QAEPADXZ
_TEXT	SEGMENT
_this$ = -4						; size = 4
?GetText@O_Output@@QAEPADXZ PROC			; O_Output::GetText, COMDAT
; _this$ = ecx

; 151  : 		_TCHAR *GetText()				{ return(Label_); }

	push	ebp
	mov	ebp, esp
	push	ecx
	mov	DWORD PTR _this$[ebp], ecx
	mov	eax, DWORD PTR _this$[ebp]
	mov	eax, DWORD PTR [eax+128]
	mov	esp, ebp
	pop	ebp
	ret	0
?GetText@O_Output@@QAEPADXZ ENDP			; O_Output::GetText
_TEXT	ENDS
; Function compile flags: /Odtp
; File c:\users\zhitao li\documents\visual studio 2012\projects\freefalcon\ui95\ooutput.h
;	COMDAT ?SetXY@O_Output@@QAEXJJ@Z
_TEXT	SEGMENT
_this$ = -4						; size = 4
_x$ = 8							; size = 4
_y$ = 12						; size = 4
?SetXY@O_Output@@QAEXJJ@Z PROC				; O_Output::SetXY, COMDAT
; _this$ = ecx

; 118  : 		void SetXY(long x,long y)				{ origx_ = x; origy_ = y; }

	push	ebp
	mov	ebp, esp
	push	ecx
	mov	DWORD PTR _this$[ebp], ecx
	mov	eax, DWORD PTR _this$[ebp]
	mov	ecx, DWORD PTR _x$[ebp]
	mov	DWORD PTR [eax+52], ecx
	mov	edx, DWORD PTR _this$[ebp]
	mov	eax, DWORD PTR _y$[ebp]
	mov	DWORD PTR [edx+56], eax
	mov	esp, ebp
	pop	ebp
	ret	8
?SetXY@O_Output@@QAEXJJ@Z ENDP				; O_Output::SetXY
_TEXT	ENDS
; Function compile flags: /Odtp
; File c:\users\zhitao li\documents\visual studio 2012\projects\freefalcon\sim\include\otwdrive.h
;	COMDAT ?GetCameraPanTilt@OTWDriverClass@@QAEXPAM0@Z
_TEXT	SEGMENT
_this$ = -4						; size = 4
_pan$ = 8						; size = 4
_tilt$ = 12						; size = 4
?GetCameraPanTilt@OTWDriverClass@@QAEXPAM0@Z PROC	; OTWDriverClass::GetCameraPanTilt, COMDAT
; _this$ = ecx

; 428  : 	  void GetCameraPanTilt(float *pan, float *tilt) {*pan = eyePan, *tilt = eyeTilt;};	//Wombat778 3-19-04

	push	ebp
	mov	ebp, esp
	push	ecx
	mov	DWORD PTR _this$[ebp], ecx
	mov	eax, DWORD PTR _pan$[ebp]
	mov	ecx, DWORD PTR _this$[ebp]
	mov	edx, DWORD PTR [ecx+32272]
	mov	DWORD PTR [eax], edx
	mov	eax, DWORD PTR _tilt$[ebp]
	mov	ecx, DWORD PTR _this$[ebp]
	mov	edx, DWORD PTR [ecx+32276]
	mov	DWORD PTR [eax], edx
	mov	esp, ebp
	pop	ebp
	ret	8
?GetCameraPanTilt@OTWDriverClass@@QAEXPAM0@Z ENDP	; OTWDriverClass::GetCameraPanTilt
_TEXT	ENDS
; Function compile flags: /Odtp
; File c:\users\zhitao li\documents\visual studio 2012\projects\freefalcon\sim\include\otwdrive.h
;	COMDAT ?GetFrontTextFlags@OTWDriverClass@@QAEJXZ
_TEXT	SEGMENT
_this$ = -4						; size = 4
?GetFrontTextFlags@OTWDriverClass@@QAEJXZ PROC		; OTWDriverClass::GetFrontTextFlags, COMDAT
; _this$ = ecx

; 371  : 	  long GetFrontTextFlags() { return(showFrontText); }

	push	ebp
	mov	ebp, esp
	push	ecx
	mov	DWORD PTR _this$[ebp], ecx
	mov	eax, DWORD PTR _this$[ebp]
	mov	eax, DWORD PTR [eax+32352]
	mov	esp, ebp
	pop	ebp
	ret	0
?GetFrontTextFlags@OTWDriverClass@@QAEJXZ ENDP		; OTWDriverClass::GetFrontTextFlags
_TEXT	ENDS
; Function compile flags: /Odtp
; File c:\users\zhitao li\documents\visual studio 2012\projects\freefalcon\sim\include\otwdrive.h
;	COMDAT ?SetFrontTextFlags@OTWDriverClass@@QAEXJ@Z
_TEXT	SEGMENT
_this$ = -4						; size = 4
_flags$ = 8						; size = 4
?SetFrontTextFlags@OTWDriverClass@@QAEXJ@Z PROC		; OTWDriverClass::SetFrontTextFlags, COMDAT
; _this$ = ecx

; 370  :       void SetFrontTextFlags(long flags) { showFrontText=flags; }

	push	ebp
	mov	ebp, esp
	push	ecx
	mov	DWORD PTR _this$[ebp], ecx
	mov	eax, DWORD PTR _this$[ebp]
	mov	ecx, DWORD PTR _flags$[ebp]
	mov	DWORD PTR [eax+32352], ecx
	mov	esp, ebp
	pop	ebp
	ret	4
?SetFrontTextFlags@OTWDriverClass@@QAEXJ@Z ENDP		; OTWDriverClass::SetFrontTextFlags
_TEXT	ENDS
; Function compile flags: /Odtp
; File c:\users\zhitao li\documents\visual studio 2012\projects\freefalcon\vu2\include\vu_templates.h
;	COMDAT ?get@?$VuBin@VFalconEntity@@@@QBEPAVFalconEntity@@XZ
_TEXT	SEGMENT
_this$ = -4						; size = 4
?get@?$VuBin@VFalconEntity@@@@QBEPAVFalconEntity@@XZ PROC ; VuBin<FalconEntity>::get, COMDAT
; _this$ = ecx

; 55   : 	E *get() const{

	push	ebp
	mov	ebp, esp
	push	ecx
	mov	DWORD PTR _this$[ebp], ecx

; 56   : 		return e;

	mov	eax, DWORD PTR _this$[ebp]
	mov	eax, DWORD PTR [eax]

; 57   : 	}

	mov	esp, ebp
	pop	ebp
	ret	0
?get@?$VuBin@VFalconEntity@@@@QBEPAVFalconEntity@@XZ ENDP ; VuBin<FalconEntity>::get
_TEXT	ENDS
; Function compile flags: /Odtp
; File c:\program files (x86)\microsoft visual studio 11.0\vc\include\tchar.h
;	COMDAT __tcsclen
_TEXT	SEGMENT
__String$ = 8						; size = 4
__tcsclen PROC						; COMDAT

; 1748 : {

	push	ebp
	mov	ebp, esp

; 1749 :     return _mbslen((const unsigned char *)_String);

	mov	eax, DWORD PTR __String$[ebp]
	push	eax
	call	__mbslen
	add	esp, 4

; 1750 : }

	pop	ebp
	ret	0
__tcsclen ENDP
_TEXT	ENDS
; Function compile flags: /Odtp
;	COMDAT ??_G_System_error_category@std@@UAEPAXI@Z
_TEXT	SEGMENT
_this$ = -4						; size = 4
___flags$ = 8						; size = 4
??_G_System_error_category@std@@UAEPAXI@Z PROC		; std::_System_error_category::`scalar deleting destructor', COMDAT
; _this$ = ecx
	push	ebp
	mov	ebp, esp
	push	ecx
	mov	DWORD PTR _this$[ebp], ecx
	mov	ecx, DWORD PTR _this$[ebp]
	call	??1_System_error_category@std@@UAE@XZ
	mov	eax, DWORD PTR ___flags$[ebp]
	and	eax, 1
	je	SHORT $LN1@scalar
	mov	ecx, DWORD PTR _this$[ebp]
	push	ecx
	call	??3@YAXPAX@Z				; operator delete
	add	esp, 4
$LN1@scalar:
	mov	eax, DWORD PTR _this$[ebp]
	mov	esp, ebp
	pop	ebp
	ret	4
??_G_System_error_category@std@@UAEPAXI@Z ENDP		; std::_System_error_category::`scalar deleting destructor'
_TEXT	ENDS
; Function compile flags: /Odtp
;	COMDAT ??1_System_error_category@std@@UAE@XZ
_TEXT	SEGMENT
_this$ = -4						; size = 4
??1_System_error_category@std@@UAE@XZ PROC		; std::_System_error_category::~_System_error_category, COMDAT
; _this$ = ecx
	push	ebp
	mov	ebp, esp
	push	ecx
	mov	DWORD PTR _this$[ebp], ecx
	mov	ecx, DWORD PTR _this$[ebp]
	call	??1_Generic_error_category@std@@UAE@XZ
	mov	esp, ebp
	pop	ebp
	ret	0
??1_System_error_category@std@@UAE@XZ ENDP		; std::_System_error_category::~_System_error_category
_TEXT	ENDS
; Function compile flags: /Odtp
; File c:\program files (x86)\microsoft visual studio 11.0\vc\include\system_error
;	COMDAT ?default_error_condition@_System_error_category@std@@UBE?AVerror_condition@2@H@Z
_TEXT	SEGMENT
_this$ = -4						; size = 4
___$ReturnUdt$ = 8					; size = 4
__Errval$ = 12						; size = 4
?default_error_condition@_System_error_category@std@@UBE?AVerror_condition@2@H@Z PROC ; std::_System_error_category::default_error_condition, COMDAT
; _this$ = ecx

; 641  : 		{	// make error_condition for error code (generic if possible)

	push	ebp
	mov	ebp, esp
	push	ecx
	mov	DWORD PTR _this$[ebp], ecx

; 642  : 		if (_Syserror_map(_Errval))

	mov	eax, DWORD PTR __Errval$[ebp]
	push	eax
	call	?_Syserror_map@std@@YAPBDH@Z		; std::_Syserror_map
	add	esp, 4
	test	eax, eax
	je	SHORT $LN2@default_er

; 643  : 			return (error_condition(_Errval, generic_category()));

	call	?generic_category@std@@YAABVerror_category@1@XZ ; std::generic_category
	push	eax
	mov	ecx, DWORD PTR __Errval$[ebp]
	push	ecx
	mov	ecx, DWORD PTR ___$ReturnUdt$[ebp]
	call	??0error_condition@std@@QAE@HABVerror_category@1@@Z ; std::error_condition::error_condition
	mov	eax, DWORD PTR ___$ReturnUdt$[ebp]
	jmp	SHORT $LN3@default_er

; 644  : 		else

	jmp	SHORT $LN3@default_er
$LN2@default_er:

; 645  : 			return (error_condition(_Errval, system_category()));

	call	?system_category@std@@YAABVerror_category@1@XZ ; std::system_category
	push	eax
	mov	edx, DWORD PTR __Errval$[ebp]
	push	edx
	mov	ecx, DWORD PTR ___$ReturnUdt$[ebp]
	call	??0error_condition@std@@QAE@HABVerror_category@1@@Z ; std::error_condition::error_condition
	mov	eax, DWORD PTR ___$ReturnUdt$[ebp]
$LN3@default_er:

; 646  : 		}

	mov	esp, ebp
	pop	ebp
	ret	8
?default_error_condition@_System_error_category@std@@UBE?AVerror_condition@2@H@Z ENDP ; std::_System_error_category::default_error_condition
_TEXT	ENDS
; Function compile flags: /Odtp
; File c:\program files (x86)\microsoft visual studio 11.0\vc\include\system_error
;	COMDAT ?message@_System_error_category@std@@UBE?AV?$basic_string@DU?$char_traits@D@std@@V?$allocator@D@2@@2@H@Z
_TEXT	SEGMENT
_this$ = -16						; size = 4
$T1 = -12						; size = 4
tv69 = -8						; size = 4
__Name$ = -4						; size = 4
___$ReturnUdt$ = 8					; size = 4
__Errcode$ = 12						; size = 4
?message@_System_error_category@std@@UBE?AV?$basic_string@DU?$char_traits@D@std@@V?$allocator@D@2@@2@H@Z PROC ; std::_System_error_category::message, COMDAT
; _this$ = ecx

; 634  : 		{	// convert to name of error

	push	ebp
	mov	ebp, esp
	sub	esp, 16					; 00000010H
	mov	DWORD PTR _this$[ebp], ecx
	mov	DWORD PTR $T1[ebp], 0

; 635  : 		const char *_Name = _Winerror_map(_Errcode);

	mov	eax, DWORD PTR __Errcode$[ebp]
	push	eax
	call	?_Winerror_map@std@@YAPBDH@Z		; std::_Winerror_map
	add	esp, 4
	mov	DWORD PTR __Name$[ebp], eax

; 636  : 		return (string(_Name != 0 ? _Name : "unknown error"));

	cmp	DWORD PTR __Name$[ebp], 0
	je	SHORT $LN3@message
	mov	ecx, DWORD PTR __Name$[ebp]
	mov	DWORD PTR tv69[ebp], ecx
	jmp	SHORT $LN4@message
$LN3@message:
	mov	DWORD PTR tv69[ebp], OFFSET ??_C@_0O@BFJCFAAK@unknown?5error?$AA@
$LN4@message:
	mov	edx, DWORD PTR tv69[ebp]
	push	edx
	mov	ecx, DWORD PTR ___$ReturnUdt$[ebp]
	call	??0?$basic_string@DU?$char_traits@D@std@@V?$allocator@D@2@@std@@QAE@PBD@Z ; std::basic_string<char,std::char_traits<char>,std::allocator<char> >::basic_string<char,std::char_traits<char>,std::allocator<char> >
	mov	eax, DWORD PTR $T1[ebp]
	or	eax, 1
	mov	DWORD PTR $T1[ebp], eax
	mov	eax, DWORD PTR ___$ReturnUdt$[ebp]

; 637  : 		}

	mov	esp, ebp
	pop	ebp
	ret	8
?message@_System_error_category@std@@UBE?AV?$basic_string@DU?$char_traits@D@std@@V?$allocator@D@2@@2@H@Z ENDP ; std::_System_error_category::message
_TEXT	ENDS
; Function compile flags: /Odtp
; File c:\program files (x86)\microsoft visual studio 11.0\vc\include\system_error
;	COMDAT ?name@_System_error_category@std@@UBEPBDXZ
_TEXT	SEGMENT
_this$ = -4						; size = 4
?name@_System_error_category@std@@UBEPBDXZ PROC		; std::_System_error_category::name, COMDAT
; _this$ = ecx

; 629  : 		{	// get name of category

	push	ebp
	mov	ebp, esp
	push	ecx
	mov	DWORD PTR _this$[ebp], ecx

; 630  : 		return ("system");

	mov	eax, OFFSET ??_C@_06FHFOAHML@system?$AA@

; 631  : 		}

	mov	esp, ebp
	pop	ebp
	ret	0
?name@_System_error_category@std@@UBEPBDXZ ENDP		; std::_System_error_category::name
_TEXT	ENDS
; Function compile flags: /Odtp
; File c:\program files (x86)\microsoft visual studio 11.0\vc\include\system_error
;	COMDAT ??0_System_error_category@std@@QAE@XZ
_TEXT	SEGMENT
_this$ = -4						; size = 4
??0_System_error_category@std@@QAE@XZ PROC		; std::_System_error_category::_System_error_category, COMDAT
; _this$ = ecx

; 624  : 	_System_error_category()

	push	ebp
	mov	ebp, esp
	push	ecx
	mov	DWORD PTR _this$[ebp], ecx
	mov	ecx, DWORD PTR _this$[ebp]
	call	??0_Generic_error_category@std@@QAE@XZ	; std::_Generic_error_category::_Generic_error_category
	mov	eax, DWORD PTR _this$[ebp]
	mov	DWORD PTR [eax], OFFSET ??_7_System_error_category@std@@6B@

; 625  : 		{	// default constructor
; 626  : 		}

	mov	eax, DWORD PTR _this$[ebp]
	mov	esp, ebp
	pop	ebp
	ret	0
??0_System_error_category@std@@QAE@XZ ENDP		; std::_System_error_category::_System_error_category
_TEXT	ENDS
; Function compile flags: /Odtp
;	COMDAT ??_G_Iostream_error_category@std@@UAEPAXI@Z
_TEXT	SEGMENT
_this$ = -4						; size = 4
___flags$ = 8						; size = 4
??_G_Iostream_error_category@std@@UAEPAXI@Z PROC	; std::_Iostream_error_category::`scalar deleting destructor', COMDAT
; _this$ = ecx
	push	ebp
	mov	ebp, esp
	push	ecx
	mov	DWORD PTR _this$[ebp], ecx
	mov	ecx, DWORD PTR _this$[ebp]
	call	??1_Iostream_error_category@std@@UAE@XZ
	mov	eax, DWORD PTR ___flags$[ebp]
	and	eax, 1
	je	SHORT $LN1@scalar
	mov	ecx, DWORD PTR _this$[ebp]
	push	ecx
	call	??3@YAXPAX@Z				; operator delete
	add	esp, 4
$LN1@scalar:
	mov	eax, DWORD PTR _this$[ebp]
	mov	esp, ebp
	pop	ebp
	ret	4
??_G_Iostream_error_category@std@@UAEPAXI@Z ENDP	; std::_Iostream_error_category::`scalar deleting destructor'
_TEXT	ENDS
; Function compile flags: /Odtp
;	COMDAT ??1_Iostream_error_category@std@@UAE@XZ
_TEXT	SEGMENT
_this$ = -4						; size = 4
??1_Iostream_error_category@std@@UAE@XZ PROC		; std::_Iostream_error_category::~_Iostream_error_category, COMDAT
; _this$ = ecx
	push	ebp
	mov	ebp, esp
	push	ecx
	mov	DWORD PTR _this$[ebp], ecx
	mov	ecx, DWORD PTR _this$[ebp]
	call	??1_Generic_error_category@std@@UAE@XZ
	mov	esp, ebp
	pop	ebp
	ret	0
??1_Iostream_error_category@std@@UAE@XZ ENDP		; std::_Iostream_error_category::~_Iostream_error_category
_TEXT	ENDS
; Function compile flags: /Odtp
; File c:\program files (x86)\microsoft visual studio 11.0\vc\include\system_error
;	COMDAT ?message@_Iostream_error_category@std@@UBE?AV?$basic_string@DU?$char_traits@D@std@@V?$allocator@D@2@@2@H@Z
_TEXT	SEGMENT
_this$ = -8						; size = 4
$T1 = -4						; size = 4
___$ReturnUdt$ = 8					; size = 4
__Errcode$ = 12						; size = 4
?message@_Iostream_error_category@std@@UBE?AV?$basic_string@DU?$char_traits@D@std@@V?$allocator@D@2@@2@H@Z PROC ; std::_Iostream_error_category::message, COMDAT
; _this$ = ecx

; 611  : 		{	// convert to name of error

	push	ebp
	mov	ebp, esp
	sub	esp, 8
	mov	DWORD PTR _this$[ebp], ecx
	mov	DWORD PTR $T1[ebp], 0

; 612  : 		if (_Errcode == (int)io_errc::stream)

	cmp	DWORD PTR __Errcode$[ebp], 1
	jne	SHORT $LN2@message

; 613  : 			return ("iostream stream error");

	push	OFFSET ??_C@_0BG@PADBLCHM@iostream?5stream?5error?$AA@
	mov	ecx, DWORD PTR ___$ReturnUdt$[ebp]
	call	??0?$basic_string@DU?$char_traits@D@std@@V?$allocator@D@2@@std@@QAE@PBD@Z ; std::basic_string<char,std::char_traits<char>,std::allocator<char> >::basic_string<char,std::char_traits<char>,std::allocator<char> >
	mov	eax, DWORD PTR $T1[ebp]
	or	eax, 1
	mov	DWORD PTR $T1[ebp], eax
	mov	eax, DWORD PTR ___$ReturnUdt$[ebp]
	jmp	SHORT $LN3@message

; 614  : 		else

	jmp	SHORT $LN3@message
$LN2@message:

; 615  : 			return (_Generic_error_category::message(_Errcode));

	mov	ecx, DWORD PTR __Errcode$[ebp]
	push	ecx
	mov	edx, DWORD PTR ___$ReturnUdt$[ebp]
	push	edx
	mov	ecx, DWORD PTR _this$[ebp]
	call	?message@_Generic_error_category@std@@UBE?AV?$basic_string@DU?$char_traits@D@std@@V?$allocator@D@2@@2@H@Z ; std::_Generic_error_category::message
	mov	eax, DWORD PTR $T1[ebp]
	or	eax, 1
	mov	DWORD PTR $T1[ebp], eax
	mov	eax, DWORD PTR ___$ReturnUdt$[ebp]
$LN3@message:

; 616  : 		}

	mov	esp, ebp
	pop	ebp
	ret	8
?message@_Iostream_error_category@std@@UBE?AV?$basic_string@DU?$char_traits@D@std@@V?$allocator@D@2@@2@H@Z ENDP ; std::_Iostream_error_category::message
_TEXT	ENDS
; Function compile flags: /Odtp
; File c:\program files (x86)\microsoft visual studio 11.0\vc\include\system_error
;	COMDAT ?name@_Iostream_error_category@std@@UBEPBDXZ
_TEXT	SEGMENT
_this$ = -4						; size = 4
?name@_Iostream_error_category@std@@UBEPBDXZ PROC	; std::_Iostream_error_category::name, COMDAT
; _this$ = ecx

; 606  : 		{	// get name of category

	push	ebp
	mov	ebp, esp
	push	ecx
	mov	DWORD PTR _this$[ebp], ecx

; 607  : 		return ("iostream");

	mov	eax, OFFSET ??_C@_08LLGCOLLL@iostream?$AA@

; 608  : 		}

	mov	esp, ebp
	pop	ebp
	ret	0
?name@_Iostream_error_category@std@@UBEPBDXZ ENDP	; std::_Iostream_error_category::name
_TEXT	ENDS
; Function compile flags: /Odtp
; File c:\program files (x86)\microsoft visual studio 11.0\vc\include\system_error
;	COMDAT ??0_Iostream_error_category@std@@QAE@XZ
_TEXT	SEGMENT
_this$ = -4						; size = 4
??0_Iostream_error_category@std@@QAE@XZ PROC		; std::_Iostream_error_category::_Iostream_error_category, COMDAT
; _this$ = ecx

; 601  : 	_Iostream_error_category()

	push	ebp
	mov	ebp, esp
	push	ecx
	mov	DWORD PTR _this$[ebp], ecx
	mov	ecx, DWORD PTR _this$[ebp]
	call	??0_Generic_error_category@std@@QAE@XZ	; std::_Generic_error_category::_Generic_error_category
	mov	eax, DWORD PTR _this$[ebp]
	mov	DWORD PTR [eax], OFFSET ??_7_Iostream_error_category@std@@6B@

; 602  : 		{	// default constructor
; 603  : 		}

	mov	eax, DWORD PTR _this$[ebp]
	mov	esp, ebp
	pop	ebp
	ret	0
??0_Iostream_error_category@std@@QAE@XZ ENDP		; std::_Iostream_error_category::_Iostream_error_category
_TEXT	ENDS
; Function compile flags: /Odtp
;	COMDAT ??_G_Generic_error_category@std@@UAEPAXI@Z
_TEXT	SEGMENT
_this$ = -4						; size = 4
___flags$ = 8						; size = 4
??_G_Generic_error_category@std@@UAEPAXI@Z PROC		; std::_Generic_error_category::`scalar deleting destructor', COMDAT
; _this$ = ecx
	push	ebp
	mov	ebp, esp
	push	ecx
	mov	DWORD PTR _this$[ebp], ecx
	mov	ecx, DWORD PTR _this$[ebp]
	call	??1_Generic_error_category@std@@UAE@XZ
	mov	eax, DWORD PTR ___flags$[ebp]
	and	eax, 1
	je	SHORT $LN1@scalar
	mov	ecx, DWORD PTR _this$[ebp]
	push	ecx
	call	??3@YAXPAX@Z				; operator delete
	add	esp, 4
$LN1@scalar:
	mov	eax, DWORD PTR _this$[ebp]
	mov	esp, ebp
	pop	ebp
	ret	4
??_G_Generic_error_category@std@@UAEPAXI@Z ENDP		; std::_Generic_error_category::`scalar deleting destructor'
_TEXT	ENDS
; Function compile flags: /Odtp
;	COMDAT ??1_Generic_error_category@std@@UAE@XZ
_TEXT	SEGMENT
_this$ = -4						; size = 4
??1_Generic_error_category@std@@UAE@XZ PROC		; std::_Generic_error_category::~_Generic_error_category, COMDAT
; _this$ = ecx
	push	ebp
	mov	ebp, esp
	push	ecx
	mov	DWORD PTR _this$[ebp], ecx
	mov	ecx, DWORD PTR _this$[ebp]
	call	??1error_category@std@@UAE@XZ		; std::error_category::~error_category
	mov	esp, ebp
	pop	ebp
	ret	0
??1_Generic_error_category@std@@UAE@XZ ENDP		; std::_Generic_error_category::~_Generic_error_category
_TEXT	ENDS
; Function compile flags: /Odtp
; File c:\program files (x86)\microsoft visual studio 11.0\vc\include\system_error
;	COMDAT ?message@_Generic_error_category@std@@UBE?AV?$basic_string@DU?$char_traits@D@std@@V?$allocator@D@2@@2@H@Z
_TEXT	SEGMENT
_this$ = -16						; size = 4
$T1 = -12						; size = 4
tv69 = -8						; size = 4
__Name$ = -4						; size = 4
___$ReturnUdt$ = 8					; size = 4
__Errcode$ = 12						; size = 4
?message@_Generic_error_category@std@@UBE?AV?$basic_string@DU?$char_traits@D@std@@V?$allocator@D@2@@2@H@Z PROC ; std::_Generic_error_category::message, COMDAT
; _this$ = ecx

; 590  : 		{	// convert to name of error

	push	ebp
	mov	ebp, esp
	sub	esp, 16					; 00000010H
	mov	DWORD PTR _this$[ebp], ecx
	mov	DWORD PTR $T1[ebp], 0

; 591  : 		const char *_Name = _Syserror_map(_Errcode);

	mov	eax, DWORD PTR __Errcode$[ebp]
	push	eax
	call	?_Syserror_map@std@@YAPBDH@Z		; std::_Syserror_map
	add	esp, 4
	mov	DWORD PTR __Name$[ebp], eax

; 592  : 		return (string(_Name != 0 ? _Name : "unknown error"));

	cmp	DWORD PTR __Name$[ebp], 0
	je	SHORT $LN3@message
	mov	ecx, DWORD PTR __Name$[ebp]
	mov	DWORD PTR tv69[ebp], ecx
	jmp	SHORT $LN4@message
$LN3@message:
	mov	DWORD PTR tv69[ebp], OFFSET ??_C@_0O@BFJCFAAK@unknown?5error?$AA@
$LN4@message:
	mov	edx, DWORD PTR tv69[ebp]
	push	edx
	mov	ecx, DWORD PTR ___$ReturnUdt$[ebp]
	call	??0?$basic_string@DU?$char_traits@D@std@@V?$allocator@D@2@@std@@QAE@PBD@Z ; std::basic_string<char,std::char_traits<char>,std::allocator<char> >::basic_string<char,std::char_traits<char>,std::allocator<char> >
	mov	eax, DWORD PTR $T1[ebp]
	or	eax, 1
	mov	DWORD PTR $T1[ebp], eax
	mov	eax, DWORD PTR ___$ReturnUdt$[ebp]

; 593  : 		}

	mov	esp, ebp
	pop	ebp
	ret	8
?message@_Generic_error_category@std@@UBE?AV?$basic_string@DU?$char_traits@D@std@@V?$allocator@D@2@@2@H@Z ENDP ; std::_Generic_error_category::message
_TEXT	ENDS
; Function compile flags: /Odtp
; File c:\program files (x86)\microsoft visual studio 11.0\vc\include\system_error
;	COMDAT ?name@_Generic_error_category@std@@UBEPBDXZ
_TEXT	SEGMENT
_this$ = -4						; size = 4
?name@_Generic_error_category@std@@UBEPBDXZ PROC	; std::_Generic_error_category::name, COMDAT
; _this$ = ecx

; 585  : 		{	// get name of category

	push	ebp
	mov	ebp, esp
	push	ecx
	mov	DWORD PTR _this$[ebp], ecx

; 586  : 		return ("generic");

	mov	eax, OFFSET ??_C@_07DCLBNMLN@generic?$AA@

; 587  : 		}

	mov	esp, ebp
	pop	ebp
	ret	0
?name@_Generic_error_category@std@@UBEPBDXZ ENDP	; std::_Generic_error_category::name
_TEXT	ENDS
; Function compile flags: /Odtp
; File c:\program files (x86)\microsoft visual studio 11.0\vc\include\system_error
;	COMDAT ??0_Generic_error_category@std@@QAE@XZ
_TEXT	SEGMENT
_this$ = -4						; size = 4
??0_Generic_error_category@std@@QAE@XZ PROC		; std::_Generic_error_category::_Generic_error_category, COMDAT
; _this$ = ecx

; 580  : 	_Generic_error_category()

	push	ebp
	mov	ebp, esp
	push	ecx
	mov	DWORD PTR _this$[ebp], ecx
	mov	ecx, DWORD PTR _this$[ebp]
	call	??0error_category@std@@QAE@XZ		; std::error_category::error_category
	mov	eax, DWORD PTR _this$[ebp]
	mov	DWORD PTR [eax], OFFSET ??_7_Generic_error_category@std@@6B@

; 581  : 		{	// default constructor
; 582  : 		}

	mov	eax, DWORD PTR _this$[ebp]
	mov	esp, ebp
	pop	ebp
	ret	0
??0_Generic_error_category@std@@QAE@XZ ENDP		; std::_Generic_error_category::_Generic_error_category
_TEXT	ENDS
; Function compile flags: /Odtp
; File c:\program files (x86)\microsoft visual studio 11.0\vc\include\system_error
;	COMDAT ??8error_condition@std@@QBE_NABV01@@Z
_TEXT	SEGMENT
tv78 = -8						; size = 4
_this$ = -4						; size = 4
__Right$ = 8						; size = 4
??8error_condition@std@@QBE_NABV01@@Z PROC		; std::error_condition::operator==, COMDAT
; _this$ = ecx

; 376  : 		{	// test if *this == _Right

	push	ebp
	mov	ebp, esp
	sub	esp, 8
	push	esi
	mov	DWORD PTR _this$[ebp], ecx

; 377  : 		return (category() == _Right.category()
; 378  : 			&& value() == _Right.value());

	mov	ecx, DWORD PTR __Right$[ebp]
	call	?category@error_condition@std@@QBEABVerror_category@2@XZ ; std::error_condition::category
	push	eax
	mov	ecx, DWORD PTR _this$[ebp]
	call	?category@error_condition@std@@QBEABVerror_category@2@XZ ; std::error_condition::category
	mov	ecx, eax
	call	??8error_category@std@@QBE_NABV01@@Z	; std::error_category::operator==
	movzx	eax, al
	test	eax, eax
	je	SHORT $LN3@operator
	mov	ecx, DWORD PTR _this$[ebp]
	call	?value@error_condition@std@@QBEHXZ	; std::error_condition::value
	mov	esi, eax
	mov	ecx, DWORD PTR __Right$[ebp]
	call	?value@error_condition@std@@QBEHXZ	; std::error_condition::value
	cmp	esi, eax
	jne	SHORT $LN3@operator
	mov	DWORD PTR tv78[ebp], 1
	jmp	SHORT $LN4@operator
$LN3@operator:
	mov	DWORD PTR tv78[ebp], 0
$LN4@operator:
	mov	al, BYTE PTR tv78[ebp]

; 379  : 		}

	pop	esi
	mov	esp, ebp
	pop	ebp
	ret	4
??8error_condition@std@@QBE_NABV01@@Z ENDP		; std::error_condition::operator==
_TEXT	ENDS
; Function compile flags: /Odtp
; File c:\program files (x86)\microsoft visual studio 11.0\vc\include\system_error
;	COMDAT ?category@error_condition@std@@QBEABVerror_category@2@XZ
_TEXT	SEGMENT
_this$ = -4						; size = 4
?category@error_condition@std@@QBEABVerror_category@2@XZ PROC ; std::error_condition::category, COMDAT
; _this$ = ecx

; 354  : 		{	// get category

	push	ebp
	mov	ebp, esp
	push	ecx
	mov	DWORD PTR _this$[ebp], ecx

; 355  : 		return (*_Mycat);

	mov	eax, DWORD PTR _this$[ebp]
	mov	eax, DWORD PTR [eax+4]

; 356  : 		}

	mov	esp, ebp
	pop	ebp
	ret	0
?category@error_condition@std@@QBEABVerror_category@2@XZ ENDP ; std::error_condition::category
_TEXT	ENDS
; Function compile flags: /Odtp
; File c:\program files (x86)\microsoft visual studio 11.0\vc\include\system_error
;	COMDAT ?value@error_condition@std@@QBEHXZ
_TEXT	SEGMENT
_this$ = -4						; size = 4
?value@error_condition@std@@QBEHXZ PROC			; std::error_condition::value, COMDAT
; _this$ = ecx

; 349  : 		{	// get error code

	push	ebp
	mov	ebp, esp
	push	ecx
	mov	DWORD PTR _this$[ebp], ecx

; 350  : 		return (_Myval);

	mov	eax, DWORD PTR _this$[ebp]
	mov	eax, DWORD PTR [eax]

; 351  : 		}

	mov	esp, ebp
	pop	ebp
	ret	0
?value@error_condition@std@@QBEHXZ ENDP			; std::error_condition::value
_TEXT	ENDS
; Function compile flags: /Odtp
; File c:\program files (x86)\microsoft visual studio 11.0\vc\include\system_error
;	COMDAT ??0error_condition@std@@QAE@HABVerror_category@1@@Z
_TEXT	SEGMENT
_this$ = -4						; size = 4
__Val$ = 8						; size = 4
__Cat$ = 12						; size = 4
??0error_condition@std@@QAE@HABVerror_category@1@@Z PROC ; std::error_condition::error_condition, COMDAT
; _this$ = ecx

; 316  : 		{	// construct from error code and category

	push	ebp
	mov	ebp, esp
	push	ecx
	mov	DWORD PTR _this$[ebp], ecx
	mov	eax, DWORD PTR _this$[ebp]
	mov	ecx, DWORD PTR __Val$[ebp]
	mov	DWORD PTR [eax], ecx
	mov	edx, DWORD PTR _this$[ebp]
	mov	eax, DWORD PTR __Cat$[ebp]
	mov	DWORD PTR [edx+4], eax

; 317  : 		}

	mov	eax, DWORD PTR _this$[ebp]
	mov	esp, ebp
	pop	ebp
	ret	8
??0error_condition@std@@QAE@HABVerror_category@1@@Z ENDP ; std::error_condition::error_condition
_TEXT	ENDS
; Function compile flags: /Odtp
; File c:\program files (x86)\microsoft visual studio 11.0\vc\include\system_error
;	COMDAT ?category@error_code@std@@QBEABVerror_category@2@XZ
_TEXT	SEGMENT
_this$ = -4						; size = 4
?category@error_code@std@@QBEABVerror_category@2@XZ PROC ; std::error_code::category, COMDAT
; _this$ = ecx

; 256  : 		{	// get category

	push	ebp
	mov	ebp, esp
	push	ecx
	mov	DWORD PTR _this$[ebp], ecx

; 257  : 		return (*_Mycat);

	mov	eax, DWORD PTR _this$[ebp]
	mov	eax, DWORD PTR [eax+4]

; 258  : 		}

	mov	esp, ebp
	pop	ebp
	ret	0
?category@error_code@std@@QBEABVerror_category@2@XZ ENDP ; std::error_code::category
_TEXT	ENDS
; Function compile flags: /Odtp
; File c:\program files (x86)\microsoft visual studio 11.0\vc\include\system_error
;	COMDAT ?value@error_code@std@@QBEHXZ
_TEXT	SEGMENT
_this$ = -4						; size = 4
?value@error_code@std@@QBEHXZ PROC			; std::error_code::value, COMDAT
; _this$ = ecx

; 251  : 		{	// get error code

	push	ebp
	mov	ebp, esp
	push	ecx
	mov	DWORD PTR _this$[ebp], ecx

; 252  : 		return (_Myval);

	mov	eax, DWORD PTR _this$[ebp]
	mov	eax, DWORD PTR [eax]

; 253  : 		}

	mov	esp, ebp
	pop	ebp
	ret	0
?value@error_code@std@@QBEHXZ ENDP			; std::error_code::value
_TEXT	ENDS
; Function compile flags: /Odtp
;	COMDAT ??_Gerror_category@std@@UAEPAXI@Z
_TEXT	SEGMENT
_this$ = -4						; size = 4
___flags$ = 8						; size = 4
??_Gerror_category@std@@UAEPAXI@Z PROC			; std::error_category::`scalar deleting destructor', COMDAT
; _this$ = ecx
	push	ebp
	mov	ebp, esp
	push	ecx
	mov	DWORD PTR _this$[ebp], ecx
	mov	ecx, DWORD PTR _this$[ebp]
	call	??1error_category@std@@UAE@XZ		; std::error_category::~error_category
	mov	eax, DWORD PTR ___flags$[ebp]
	and	eax, 1
	je	SHORT $LN1@scalar
	mov	ecx, DWORD PTR _this$[ebp]
	push	ecx
	call	??3@YAXPAX@Z				; operator delete
	add	esp, 4
$LN1@scalar:
	mov	eax, DWORD PTR _this$[ebp]
	mov	esp, ebp
	pop	ebp
	ret	4
??_Gerror_category@std@@UAEPAXI@Z ENDP			; std::error_category::`scalar deleting destructor'
_TEXT	ENDS
; Function compile flags: /Odtp
; File c:\program files (x86)\microsoft visual studio 11.0\vc\include\system_error
;	COMDAT ??8error_category@std@@QBE_NABV01@@Z
_TEXT	SEGMENT
_this$ = -8						; size = 4
tv65 = -4						; size = 4
__Right$ = 8						; size = 4
??8error_category@std@@QBE_NABV01@@Z PROC		; std::error_category::operator==, COMDAT
; _this$ = ecx

; 184  : 		{	// compare categories for equality

	push	ebp
	mov	ebp, esp
	sub	esp, 8
	mov	DWORD PTR _this$[ebp], ecx

; 185  : 		return (this == &_Right);

	mov	eax, DWORD PTR _this$[ebp]
	cmp	eax, DWORD PTR __Right$[ebp]
	jne	SHORT $LN3@operator
	mov	DWORD PTR tv65[ebp], 1
	jmp	SHORT $LN4@operator
$LN3@operator:
	mov	DWORD PTR tv65[ebp], 0
$LN4@operator:
	mov	al, BYTE PTR tv65[ebp]

; 186  : 		}

	mov	esp, ebp
	pop	ebp
	ret	4
??8error_category@std@@QBE_NABV01@@Z ENDP		; std::error_category::operator==
_TEXT	ENDS
; Function compile flags: /Odtp
; File c:\program files (x86)\microsoft visual studio 11.0\vc\include\system_error
;	COMDAT ?equivalent@error_category@std@@UBE_NABVerror_code@2@H@Z
_TEXT	SEGMENT
_this$ = -8						; size = 4
tv74 = -4						; size = 4
__Code$ = 8						; size = 4
__Errval$ = 12						; size = 4
?equivalent@error_category@std@@UBE_NABVerror_code@2@H@Z PROC ; std::error_category::equivalent, COMDAT
; _this$ = ecx

; 415  : 	{	// test if conditions same for this category

	push	ebp
	mov	ebp, esp
	sub	esp, 8
	mov	DWORD PTR _this$[ebp], ecx

; 416  : 	return (*this == _Code.category() && _Code.value() == _Errval);

	mov	ecx, DWORD PTR __Code$[ebp]
	call	?category@error_code@std@@QBEABVerror_category@2@XZ ; std::error_code::category
	push	eax
	mov	ecx, DWORD PTR _this$[ebp]
	call	??8error_category@std@@QBE_NABV01@@Z	; std::error_category::operator==
	movzx	eax, al
	test	eax, eax
	je	SHORT $LN3@equivalent
	mov	ecx, DWORD PTR __Code$[ebp]
	call	?value@error_code@std@@QBEHXZ		; std::error_code::value
	cmp	eax, DWORD PTR __Errval$[ebp]
	jne	SHORT $LN3@equivalent
	mov	DWORD PTR tv74[ebp], 1
	jmp	SHORT $LN4@equivalent
$LN3@equivalent:
	mov	DWORD PTR tv74[ebp], 0
$LN4@equivalent:
	mov	al, BYTE PTR tv74[ebp]

; 417  : 	}

	mov	esp, ebp
	pop	ebp
	ret	8
?equivalent@error_category@std@@UBE_NABVerror_code@2@H@Z ENDP ; std::error_category::equivalent
_TEXT	ENDS
; Function compile flags: /Odtp
; File c:\program files (x86)\microsoft visual studio 11.0\vc\include\system_error
;	COMDAT ?equivalent@error_category@std@@UBE_NHABVerror_condition@2@@Z
_TEXT	SEGMENT
$T1 = -12						; size = 8
_this$ = -4						; size = 4
__Errval$ = 8						; size = 4
__Cond$ = 12						; size = 4
?equivalent@error_category@std@@UBE_NHABVerror_condition@2@@Z PROC ; std::error_category::equivalent, COMDAT
; _this$ = ecx

; 408  : 	{	// test if error code same condition

	push	ebp
	mov	ebp, esp
	sub	esp, 12					; 0000000cH
	mov	DWORD PTR _this$[ebp], ecx

; 409  : 	return (default_error_condition(_Errval) == _Cond);

	mov	eax, DWORD PTR __Cond$[ebp]
	push	eax
	mov	ecx, DWORD PTR __Errval$[ebp]
	push	ecx
	lea	edx, DWORD PTR $T1[ebp]
	push	edx
	mov	eax, DWORD PTR _this$[ebp]
	mov	edx, DWORD PTR [eax]
	mov	ecx, DWORD PTR _this$[ebp]
	mov	eax, DWORD PTR [edx+12]
	call	eax
	mov	ecx, eax
	call	??8error_condition@std@@QBE_NABV01@@Z	; std::error_condition::operator==

; 410  : 	}

	mov	esp, ebp
	pop	ebp
	ret	8
?equivalent@error_category@std@@UBE_NHABVerror_condition@2@@Z ENDP ; std::error_category::equivalent
_TEXT	ENDS
; Function compile flags: /Odtp
; File c:\program files (x86)\microsoft visual studio 11.0\vc\include\system_error
;	COMDAT ?default_error_condition@error_category@std@@UBE?AVerror_condition@2@H@Z
_TEXT	SEGMENT
_this$ = -4						; size = 4
___$ReturnUdt$ = 8					; size = 4
__Errval$ = 12						; size = 4
?default_error_condition@error_category@std@@UBE?AVerror_condition@2@H@Z PROC ; std::error_category::default_error_condition, COMDAT
; _this$ = ecx

; 401  : 	{	// make error_condition for error code

	push	ebp
	mov	ebp, esp
	push	ecx
	mov	DWORD PTR _this$[ebp], ecx

; 402  : 	return (error_condition(_Errval, *this));

	mov	eax, DWORD PTR _this$[ebp]
	push	eax
	mov	ecx, DWORD PTR __Errval$[ebp]
	push	ecx
	mov	ecx, DWORD PTR ___$ReturnUdt$[ebp]
	call	??0error_condition@std@@QAE@HABVerror_category@1@@Z ; std::error_condition::error_condition
	mov	eax, DWORD PTR ___$ReturnUdt$[ebp]

; 403  : 	}

	mov	esp, ebp
	pop	ebp
	ret	8
?default_error_condition@error_category@std@@UBE?AVerror_condition@2@H@Z ENDP ; std::error_category::default_error_condition
_TEXT	ENDS
; Function compile flags: /Odtp
; File c:\program files (x86)\microsoft visual studio 11.0\vc\include\system_error
;	COMDAT ??1error_category@std@@UAE@XZ
_TEXT	SEGMENT
_this$ = -4						; size = 4
??1error_category@std@@UAE@XZ PROC			; std::error_category::~error_category, COMDAT
; _this$ = ecx

; 167  : 		{	// destroy the object

	push	ebp
	mov	ebp, esp
	push	ecx
	mov	DWORD PTR _this$[ebp], ecx
	mov	eax, DWORD PTR _this$[ebp]
	mov	DWORD PTR [eax], OFFSET ??_7error_category@std@@6B@

; 168  : 		}

	mov	esp, ebp
	pop	ebp
	ret	0
??1error_category@std@@UAE@XZ ENDP			; std::error_category::~error_category
_TEXT	ENDS
; Function compile flags: /Odtp
; File c:\program files (x86)\microsoft visual studio 11.0\vc\include\system_error
;	COMDAT ??0error_category@std@@QAE@XZ
_TEXT	SEGMENT
_this$ = -4						; size = 4
??0error_category@std@@QAE@XZ PROC			; std::error_category::error_category, COMDAT
; _this$ = ecx

; 162  : 	error_category()

	push	ebp
	mov	ebp, esp
	push	ecx
	mov	DWORD PTR _this$[ebp], ecx
	mov	eax, DWORD PTR _this$[ebp]
	mov	DWORD PTR [eax], OFFSET ??_7error_category@std@@6B@

; 163  : 		{	// default constructor
; 164  : 		}

	mov	eax, DWORD PTR _this$[ebp]
	mov	esp, ebp
	pop	ebp
	ret	0
??0error_category@std@@QAE@XZ ENDP			; std::error_category::error_category
_TEXT	ENDS
; Function compile flags: /Odtp
; File c:\program files (x86)\microsoft visual studio 11.0\vc\include\system_error
;	COMDAT ?system_category@std@@YAABVerror_category@1@XZ
_TEXT	SEGMENT
?system_category@std@@YAABVerror_category@1@XZ PROC	; std::system_category, COMDAT

; 679  : 	{	// get system_category

	push	ebp
	mov	ebp, esp

; 680  : 	return (_Error_objects<int>::_System_object);

	mov	eax, OFFSET ?_System_object@?$_Error_objects@H@std@@2V_System_error_category@2@A ; std::_Error_objects<int>::_System_object

; 681  : 	}

	pop	ebp
	ret	0
?system_category@std@@YAABVerror_category@1@XZ ENDP	; std::system_category
_TEXT	ENDS
; Function compile flags: /Odtp
; File c:\program files (x86)\microsoft visual studio 11.0\vc\include\system_error
;	COMDAT ?generic_category@std@@YAABVerror_category@1@XZ
_TEXT	SEGMENT
?generic_category@std@@YAABVerror_category@1@XZ PROC	; std::generic_category, COMDAT

; 669  : 	{	// get generic_category

	push	ebp
	mov	ebp, esp

; 670  : 	return (_Error_objects<int>::_Generic_object);

	mov	eax, OFFSET ?_Generic_object@?$_Error_objects@H@std@@2V_Generic_error_category@2@A ; std::_Error_objects<int>::_Generic_object

; 671  : 	}

	pop	ebp
	ret	0
?generic_category@std@@YAABVerror_category@1@XZ ENDP	; std::generic_category
_TEXT	ENDS
; Function compile flags: /Odtp
; File c:\program files (x86)\microsoft visual studio 11.0\vc\include\xlocale
;	COMDAT ??0id@locale@std@@QAE@I@Z
_TEXT	SEGMENT
_this$ = -4						; size = 4
__Val$ = 8						; size = 4
??0id@locale@std@@QAE@I@Z PROC				; std::locale::id::id, COMDAT
; _this$ = ecx

; 74   : 			{	// construct with specified stamp value

	push	ebp
	mov	ebp, esp
	push	ecx
	mov	DWORD PTR _this$[ebp], ecx
	mov	eax, DWORD PTR _this$[ebp]
	mov	ecx, DWORD PTR __Val$[ebp]
	mov	DWORD PTR [eax], ecx

; 75   : 			}

	mov	eax, DWORD PTR _this$[ebp]
	mov	esp, ebp
	pop	ebp
	ret	4
??0id@locale@std@@QAE@I@Z ENDP				; std::locale::id::id
_TEXT	ENDS
; Function compile flags: /Odtp
; File c:\users\zhitao li\documents\visual studio 2012\projects\freefalcon\vu2\include\vusessn.h
;	COMDAT ?GameName@VuGameEntity@@QAEPADXZ
_TEXT	SEGMENT
_this$ = -4						; size = 4
?GameName@VuGameEntity@@QAEPADXZ PROC			; VuGameEntity::GameName, COMDAT
; _this$ = ecx

; 400  : 	char *GameName()		{ return gameName_; }

	push	ebp
	mov	ebp, esp
	push	ecx
	mov	DWORD PTR _this$[ebp], ecx
	mov	eax, DWORD PTR _this$[ebp]
	mov	eax, DWORD PTR [eax+348]
	mov	esp, ebp
	pop	ebp
	ret	0
?GameName@VuGameEntity@@QAEPADXZ ENDP			; VuGameEntity::GameName
_TEXT	ENDS
; Function compile flags: /Odtp
; File c:\users\zhitao li\documents\visual studio 2012\projects\freefalcon\vu2\include\vu_templates.h
;	COMDAT ?get@?$VuBin@VVuSessionEntity@@@@QBEPAVVuSessionEntity@@XZ
_TEXT	SEGMENT
_this$ = -4						; size = 4
?get@?$VuBin@VVuSessionEntity@@@@QBEPAVVuSessionEntity@@XZ PROC ; VuBin<VuSessionEntity>::get, COMDAT
; _this$ = ecx

; 55   : 	E *get() const{

	push	ebp
	mov	ebp, esp
	push	ecx
	mov	DWORD PTR _this$[ebp], ecx

; 56   : 		return e;

	mov	eax, DWORD PTR _this$[ebp]
	mov	eax, DWORD PTR [eax]

; 57   : 	}

	mov	esp, ebp
	pop	ebp
	ret	0
?get@?$VuBin@VVuSessionEntity@@@@QBEPAVVuSessionEntity@@XZ ENDP ; VuBin<VuSessionEntity>::get
_TEXT	ENDS
; Function compile flags: /Odtp
; File c:\users\zhitao li\documents\visual studio 2012\projects\freefalcon\vu2\include\vu_templates.h
;	COMDAT ??B?$VuBin@VVuSessionEntity@@@@QBE_NXZ
_TEXT	SEGMENT
_this$ = -8						; size = 4
tv66 = -4						; size = 4
??B?$VuBin@VVuSessionEntity@@@@QBE_NXZ PROC		; VuBin<VuSessionEntity>::operator bool, COMDAT
; _this$ = ecx

; 40   : 	operator bool() const{

	push	ebp
	mov	ebp, esp
	sub	esp, 8
	mov	DWORD PTR _this$[ebp], ecx

; 41   : 		return e != NULL;

	mov	eax, DWORD PTR _this$[ebp]
	cmp	DWORD PTR [eax], 0
	je	SHORT $LN3@operator
	mov	DWORD PTR tv66[ebp], 1
	jmp	SHORT $LN4@operator
$LN3@operator:
	mov	DWORD PTR tv66[ebp], 0
$LN4@operator:
	mov	al, BYTE PTR tv66[ebp]

; 42   : 	}

	mov	esp, ebp
	pop	ebp
	ret	0
??B?$VuBin@VVuSessionEntity@@@@QBE_NXZ ENDP		; VuBin<VuSessionEntity>::operator bool
_TEXT	ENDS
; Function compile flags: /Odtp
; File c:\program files (x86)\microsoft visual studio 11.0\vc\include\xstring
;	COMDAT ?_Xran@?$basic_string@DU?$char_traits@D@std@@V?$allocator@D@2@@std@@QBEXXZ
_TEXT	SEGMENT
_this$ = -4						; size = 4
?_Xran@?$basic_string@DU?$char_traits@D@std@@V?$allocator@D@2@@std@@QBEXXZ PROC ; std::basic_string<char,std::char_traits<char>,std::allocator<char> >::_Xran, COMDAT
; _this$ = ecx

; 2275 : 		{	// report an out_of_range error

	push	ebp
	mov	ebp, esp
	push	ecx
	mov	DWORD PTR _this$[ebp], ecx

; 2276 : 		_Xout_of_range("invalid string position");

	push	OFFSET ??_C@_0BI@CFPLBAOH@invalid?5string?5position?$AA@
	call	?_Xout_of_range@std@@YAXPBD@Z		; std::_Xout_of_range
$LN2@Xran:

; 2277 : 		}

	mov	esp, ebp
	pop	ebp
	ret	0
?_Xran@?$basic_string@DU?$char_traits@D@std@@V?$allocator@D@2@@std@@QBEXXZ ENDP ; std::basic_string<char,std::char_traits<char>,std::allocator<char> >::_Xran
_TEXT	ENDS
; Function compile flags: /Odtp
; File c:\program files (x86)\microsoft visual studio 11.0\vc\include\xstring
;	COMDAT ?_Xlen@?$basic_string@DU?$char_traits@D@std@@V?$allocator@D@2@@std@@QBEXXZ
_TEXT	SEGMENT
_this$ = -4						; size = 4
?_Xlen@?$basic_string@DU?$char_traits@D@std@@V?$allocator@D@2@@std@@QBEXXZ PROC ; std::basic_string<char,std::char_traits<char>,std::allocator<char> >::_Xlen, COMDAT
; _this$ = ecx

; 2270 : 		{	// report a length_error

	push	ebp
	mov	ebp, esp
	push	ecx
	mov	DWORD PTR _this$[ebp], ecx

; 2271 : 		_Xlength_error("string too long");

	push	OFFSET ??_C@_0BA@JFNIOLAK@string?5too?5long?$AA@
	call	?_Xlength_error@std@@YAXPBD@Z		; std::_Xlength_error
$LN2@Xlen:

; 2272 : 		}

	mov	esp, ebp
	pop	ebp
	ret	0
?_Xlen@?$basic_string@DU?$char_traits@D@std@@V?$allocator@D@2@@std@@QBEXXZ ENDP ; std::basic_string<char,std::char_traits<char>,std::allocator<char> >::_Xlen
_TEXT	ENDS
; Function compile flags: /Odtp
; File c:\program files (x86)\microsoft visual studio 11.0\vc\include\xstring
;	COMDAT ?_Tidy@?$basic_string@DU?$char_traits@D@std@@V?$allocator@D@2@@std@@QAEX_NI@Z
_TEXT	SEGMENT
__Ptr$1 = -12						; size = 4
_this$ = -8						; size = 4
$T2 = -2						; size = 1
$T3 = -1						; size = 1
__Built$ = 8						; size = 1
__Newsize$ = 12						; size = 4
?_Tidy@?$basic_string@DU?$char_traits@D@std@@V?$allocator@D@2@@std@@QAEX_NI@Z PROC ; std::basic_string<char,std::char_traits<char>,std::allocator<char> >::_Tidy, COMDAT
; _this$ = ecx

; 2253 : 		{	// initialize buffer, deallocating any storage

	push	ebp
	mov	ebp, esp
	sub	esp, 12					; 0000000cH
	mov	DWORD PTR _this$[ebp], ecx

; 2254 : 		if (!_Built)

	movzx	eax, BYTE PTR __Built$[ebp]
	test	eax, eax
	jne	SHORT $LN4@Tidy
	jmp	SHORT $LN3@Tidy
$LN4@Tidy:

; 2255 : 			;
; 2256 : 		else if (this->_BUF_SIZE <= this->_Myres)

	mov	ecx, DWORD PTR _this$[ebp]
	cmp	DWORD PTR [ecx+20], 16			; 00000010H
	jb	SHORT $LN3@Tidy

; 2257 : 			{	// copy any leftovers to small buffer and deallocate
; 2258 : 			pointer _Ptr = this->_Bx._Ptr;

	mov	edx, DWORD PTR _this$[ebp]
	mov	eax, DWORD PTR [edx]
	mov	DWORD PTR __Ptr$1[ebp], eax

; 2259 : 			this->_Getal().destroy(&this->_Bx._Ptr);

	mov	ecx, DWORD PTR _this$[ebp]
	push	ecx
	lea	edx, DWORD PTR $T3[ebp]
	push	edx
	mov	ecx, DWORD PTR _this$[ebp]
	call	?_Getal@?$_String_alloc@$0A@U?$_String_base_types@DV?$allocator@D@std@@@std@@@std@@QBE?AU?$_Wrap_alloc@V?$allocator@D@std@@@2@XZ ; std::_String_alloc<0,std::_String_base_types<char,std::allocator<char> > >::_Getal
	mov	ecx, eax
	call	??$destroy@PAD@?$_Wrap_alloc@V?$allocator@D@std@@@std@@QAEXPAPAD@Z ; std::_Wrap_alloc<std::allocator<char> >::destroy<char *>

; 2260 : 			if (0 < _Newsize)

	cmp	DWORD PTR __Newsize$[ebp], 0
	jbe	SHORT $LN1@Tidy

; 2261 : 				_Traits::copy(this->_Bx._Buf,
; 2262 : 					_STD addressof(*_Ptr), _Newsize);

	mov	eax, DWORD PTR __Newsize$[ebp]
	push	eax
	mov	ecx, DWORD PTR __Ptr$1[ebp]
	push	ecx
	call	??$addressof@D@std@@YAPADAAD@Z		; std::addressof<char>
	add	esp, 4
	push	eax
	mov	edx, DWORD PTR _this$[ebp]
	push	edx
	call	?copy@?$char_traits@D@std@@SAPADPADPBDI@Z ; std::char_traits<char>::copy
	add	esp, 12					; 0000000cH
$LN1@Tidy:

; 2263 : 			this->_Getal().deallocate(_Ptr, this->_Myres + 1);

	mov	eax, DWORD PTR _this$[ebp]
	mov	ecx, DWORD PTR [eax+20]
	add	ecx, 1
	push	ecx
	mov	edx, DWORD PTR __Ptr$1[ebp]
	push	edx
	lea	eax, DWORD PTR $T2[ebp]
	push	eax
	mov	ecx, DWORD PTR _this$[ebp]
	call	?_Getal@?$_String_alloc@$0A@U?$_String_base_types@DV?$allocator@D@std@@@std@@@std@@QBE?AU?$_Wrap_alloc@V?$allocator@D@std@@@2@XZ ; std::_String_alloc<0,std::_String_base_types<char,std::allocator<char> > >::_Getal
	mov	ecx, eax
	call	?deallocate@?$_Wrap_alloc@V?$allocator@D@std@@@std@@QAEXPADI@Z ; std::_Wrap_alloc<std::allocator<char> >::deallocate
$LN3@Tidy:

; 2264 : 			}
; 2265 : 		this->_Myres = this->_BUF_SIZE - 1;

	mov	ecx, DWORD PTR _this$[ebp]
	mov	DWORD PTR [ecx+20], 15			; 0000000fH

; 2266 : 		_Eos(_Newsize);

	mov	edx, DWORD PTR __Newsize$[ebp]
	push	edx
	mov	ecx, DWORD PTR _this$[ebp]
	call	?_Eos@?$basic_string@DU?$char_traits@D@std@@V?$allocator@D@2@@std@@QAEXI@Z ; std::basic_string<char,std::char_traits<char>,std::allocator<char> >::_Eos

; 2267 : 		}

	mov	esp, ebp
	pop	ebp
	ret	8
?_Tidy@?$basic_string@DU?$char_traits@D@std@@V?$allocator@D@2@@std@@QAEX_NI@Z ENDP ; std::basic_string<char,std::char_traits<char>,std::allocator<char> >::_Tidy
_TEXT	ENDS
; Function compile flags: /Odtp
; File c:\program files (x86)\microsoft visual studio 11.0\vc\include\xstring
;	COMDAT ?_Inside@?$basic_string@DU?$char_traits@D@std@@V?$allocator@D@2@@std@@QAE_NPBD@Z
_TEXT	SEGMENT
_this$ = -4						; size = 4
__Ptr$ = 8						; size = 4
?_Inside@?$basic_string@DU?$char_traits@D@std@@V?$allocator@D@2@@std@@QAE_NPBD@Z PROC ; std::basic_string<char,std::char_traits<char>,std::allocator<char> >::_Inside, COMDAT
; _this$ = ecx

; 2237 : 		{	// test if _Ptr points inside string

	push	ebp
	mov	ebp, esp
	push	ecx
	mov	DWORD PTR _this$[ebp], ecx

; 2238 : 		if (_Ptr == 0 || _Ptr < this->_Myptr()
; 2239 : 			|| this->_Myptr() + this->_Mysize <= _Ptr)

	cmp	DWORD PTR __Ptr$[ebp], 0
	je	SHORT $LN2@Inside
	mov	ecx, DWORD PTR _this$[ebp]
	call	?_Myptr@?$_String_val@U?$_Simple_types@D@std@@@std@@QAEPADXZ ; std::_String_val<std::_Simple_types<char> >::_Myptr
	cmp	DWORD PTR __Ptr$[ebp], eax
	jb	SHORT $LN2@Inside
	mov	ecx, DWORD PTR _this$[ebp]
	call	?_Myptr@?$_String_val@U?$_Simple_types@D@std@@@std@@QAEPADXZ ; std::_String_val<std::_Simple_types<char> >::_Myptr
	mov	ecx, DWORD PTR _this$[ebp]
	add	eax, DWORD PTR [ecx+16]
	cmp	eax, DWORD PTR __Ptr$[ebp]
	ja	SHORT $LN3@Inside
$LN2@Inside:

; 2240 : 			return (false);	// don't ask

	xor	al, al
	jmp	SHORT $LN4@Inside

; 2241 : 		else

	jmp	SHORT $LN4@Inside
$LN3@Inside:

; 2242 : 			return (true);

	mov	al, 1
$LN4@Inside:

; 2243 : 		}

	mov	esp, ebp
	pop	ebp
	ret	4
?_Inside@?$basic_string@DU?$char_traits@D@std@@V?$allocator@D@2@@std@@QAE_NPBD@Z ENDP ; std::basic_string<char,std::char_traits<char>,std::allocator<char> >::_Inside
_TEXT	ENDS
; Function compile flags: /Odtp
; File c:\program files (x86)\microsoft visual studio 11.0\vc\include\xstring
;	COMDAT ?_Grow@?$basic_string@DU?$char_traits@D@std@@V?$allocator@D@2@@std@@QAE_NI_N@Z
_TEXT	SEGMENT
tv136 = -12						; size = 4
tv129 = -8						; size = 4
_this$ = -4						; size = 4
__Newsize$ = 8						; size = 4
__Trim$ = 12						; size = 1
?_Grow@?$basic_string@DU?$char_traits@D@std@@V?$allocator@D@2@@std@@QAE_NI_N@Z PROC ; std::basic_string<char,std::char_traits<char>,std::allocator<char> >::_Grow, COMDAT
; _this$ = ecx

; 2223 : 		{	// ensure buffer is big enough, trim to size if _Trim is true

	push	ebp
	mov	ebp, esp
	sub	esp, 12					; 0000000cH
	mov	DWORD PTR _this$[ebp], ecx

; 2224 : 		if (max_size() < _Newsize)

	mov	ecx, DWORD PTR _this$[ebp]
	call	?max_size@?$basic_string@DU?$char_traits@D@std@@V?$allocator@D@2@@std@@QBEIXZ ; std::basic_string<char,std::char_traits<char>,std::allocator<char> >::max_size
	cmp	eax, DWORD PTR __Newsize$[ebp]
	jae	SHORT $LN6@Grow

; 2225 : 			_Xlen();	// result too long

	mov	ecx, DWORD PTR _this$[ebp]
	call	?_Xlen@?$basic_string@DU?$char_traits@D@std@@V?$allocator@D@2@@std@@QBEXXZ ; std::basic_string<char,std::char_traits<char>,std::allocator<char> >::_Xlen
$LN6@Grow:

; 2226 : 		if (this->_Myres < _Newsize)

	mov	eax, DWORD PTR _this$[ebp]
	mov	ecx, DWORD PTR [eax+20]
	cmp	ecx, DWORD PTR __Newsize$[ebp]
	jae	SHORT $LN5@Grow

; 2227 : 			_Copy(_Newsize, this->_Mysize);	// reallocate to grow

	mov	edx, DWORD PTR _this$[ebp]
	mov	eax, DWORD PTR [edx+16]
	push	eax
	mov	ecx, DWORD PTR __Newsize$[ebp]
	push	ecx
	mov	ecx, DWORD PTR _this$[ebp]
	call	?_Copy@?$basic_string@DU?$char_traits@D@std@@V?$allocator@D@2@@std@@QAEXII@Z ; std::basic_string<char,std::char_traits<char>,std::allocator<char> >::_Copy
	jmp	SHORT $LN4@Grow
$LN5@Grow:

; 2228 : 		else if (_Trim && _Newsize < this->_BUF_SIZE)

	movzx	edx, BYTE PTR __Trim$[ebp]
	test	edx, edx
	je	SHORT $LN3@Grow
	cmp	DWORD PTR __Newsize$[ebp], 16		; 00000010H
	jae	SHORT $LN3@Grow

; 2229 : 			_Tidy(true,	// copy and deallocate if trimming to small string
; 2230 : 				_Newsize < this->_Mysize ? _Newsize : this->_Mysize);

	mov	eax, DWORD PTR _this$[ebp]
	mov	ecx, DWORD PTR __Newsize$[ebp]
	cmp	ecx, DWORD PTR [eax+16]
	jae	SHORT $LN9@Grow
	mov	edx, DWORD PTR __Newsize$[ebp]
	mov	DWORD PTR tv129[ebp], edx
	jmp	SHORT $LN10@Grow
$LN9@Grow:
	mov	eax, DWORD PTR _this$[ebp]
	mov	ecx, DWORD PTR [eax+16]
	mov	DWORD PTR tv129[ebp], ecx
$LN10@Grow:
	mov	edx, DWORD PTR tv129[ebp]
	push	edx
	push	1
	mov	ecx, DWORD PTR _this$[ebp]
	call	?_Tidy@?$basic_string@DU?$char_traits@D@std@@V?$allocator@D@2@@std@@QAEX_NI@Z ; std::basic_string<char,std::char_traits<char>,std::allocator<char> >::_Tidy
	jmp	SHORT $LN4@Grow
$LN3@Grow:

; 2231 : 		else if (_Newsize == 0)

	cmp	DWORD PTR __Newsize$[ebp], 0
	jne	SHORT $LN4@Grow

; 2232 : 			_Eos(0);	// new size is zero, just null terminate

	push	0
	mov	ecx, DWORD PTR _this$[ebp]
	call	?_Eos@?$basic_string@DU?$char_traits@D@std@@V?$allocator@D@2@@std@@QAEXI@Z ; std::basic_string<char,std::char_traits<char>,std::allocator<char> >::_Eos
$LN4@Grow:

; 2233 : 		return (0 < _Newsize);	// return true only if more work to do

	cmp	DWORD PTR __Newsize$[ebp], 0
	jbe	SHORT $LN11@Grow
	mov	DWORD PTR tv136[ebp], 1
	jmp	SHORT $LN12@Grow
$LN11@Grow:
	mov	DWORD PTR tv136[ebp], 0
$LN12@Grow:
	mov	al, BYTE PTR tv136[ebp]
$LN8@Grow:

; 2234 : 		}

	mov	esp, ebp
	pop	ebp
	ret	8
?_Grow@?$basic_string@DU?$char_traits@D@std@@V?$allocator@D@2@@std@@QAE_NI_N@Z ENDP ; std::basic_string<char,std::char_traits<char>,std::allocator<char> >::_Grow
_TEXT	ENDS
; Function compile flags: /Odtp
; File c:\program files (x86)\microsoft visual studio 11.0\vc\include\xstring
;	COMDAT ?_Eos@?$basic_string@DU?$char_traits@D@std@@V?$allocator@D@2@@std@@QAEXI@Z
_TEXT	SEGMENT
_this$ = -8						; size = 4
$T1 = -1						; size = 1
__Newsize$ = 8						; size = 4
?_Eos@?$basic_string@DU?$char_traits@D@std@@V?$allocator@D@2@@std@@QAEXI@Z PROC ; std::basic_string<char,std::char_traits<char>,std::allocator<char> >::_Eos, COMDAT
; _this$ = ecx

; 2217 : 		{	// set new length and null terminator

	push	ebp
	mov	ebp, esp
	sub	esp, 8
	mov	DWORD PTR _this$[ebp], ecx

; 2218 : 		_Traits::assign(this->_Myptr()[this->_Mysize = _Newsize], _Elem());

	mov	BYTE PTR $T1[ebp], 0
	mov	eax, DWORD PTR _this$[ebp]
	mov	ecx, DWORD PTR __Newsize$[ebp]
	mov	DWORD PTR [eax+16], ecx
	lea	edx, DWORD PTR $T1[ebp]
	push	edx
	mov	ecx, DWORD PTR _this$[ebp]
	call	?_Myptr@?$_String_val@U?$_Simple_types@D@std@@@std@@QAEPADXZ ; std::_String_val<std::_Simple_types<char> >::_Myptr
	add	eax, DWORD PTR __Newsize$[ebp]
	push	eax
	call	?assign@?$char_traits@D@std@@SAXAADABD@Z ; std::char_traits<char>::assign
	add	esp, 8

; 2219 : 		}

	mov	esp, ebp
	pop	ebp
	ret	4
?_Eos@?$basic_string@DU?$char_traits@D@std@@V?$allocator@D@2@@std@@QAEXI@Z ENDP ; std::basic_string<char,std::char_traits<char>,std::allocator<char> >::_Eos
_TEXT	ENDS
; Function compile flags: /Odtp
; File c:\program files (x86)\microsoft visual studio 11.0\vc\include\xstring
;	COMDAT ?_Copy@?$basic_string@DU?$char_traits@D@std@@V?$allocator@D@2@@std@@QAEXII@Z
_TEXT	SEGMENT
tv205 = -48						; size = 4
tv204 = -44						; size = 4
tv203 = -40						; size = 4
tv202 = -36						; size = 4
__Ptr$ = -32						; size = 4
__Newres$ = -28						; size = 4
_this$ = -24						; size = 4
$T2 = -19						; size = 1
$T3 = -18						; size = 1
$T4 = -17						; size = 1
__$EHRec$ = -16						; size = 16
__Newsize$ = 8						; size = 4
__Oldlen$ = 12						; size = 4
?_Copy@?$basic_string@DU?$char_traits@D@std@@V?$allocator@D@2@@std@@QAEXII@Z PROC ; std::basic_string<char,std::char_traits<char>,std::allocator<char> >::_Copy, COMDAT
; _this$ = ecx

; 2182 : 		{	// copy _Oldlen elements to newly allocated buffer

	push	ebp
	mov	ebp, esp
	push	-1
	push	__ehhandler$?_Copy@?$basic_string@DU?$char_traits@D@std@@V?$allocator@D@2@@std@@QAEXII@Z
	mov	eax, DWORD PTR fs:0
	push	eax
	push	ecx
	sub	esp, 32					; 00000020H
	push	ebx
	push	esi
	push	edi
	mov	eax, DWORD PTR ___security_cookie
	xor	eax, ebp
	push	eax
	lea	eax, DWORD PTR __$EHRec$[ebp+4]
	mov	DWORD PTR fs:0, eax
	mov	DWORD PTR __$EHRec$[ebp], esp
	mov	DWORD PTR _this$[ebp], ecx

; 2183 : 		size_type _Newres = _Newsize | this->_ALLOC_MASK;

	mov	eax, DWORD PTR __Newsize$[ebp]
	or	eax, 15					; 0000000fH
	mov	DWORD PTR __Newres$[ebp], eax

; 2184 : 		if (max_size() < _Newres)

	mov	ecx, DWORD PTR _this$[ebp]
	call	?max_size@?$basic_string@DU?$char_traits@D@std@@V?$allocator@D@2@@std@@QBEIXZ ; std::basic_string<char,std::char_traits<char>,std::allocator<char> >::max_size
	cmp	eax, DWORD PTR __Newres$[ebp]
	jae	SHORT $LN9@Copy

; 2185 : 			_Newres = _Newsize;	// undo roundup if too big

	mov	ecx, DWORD PTR __Newsize$[ebp]
	mov	DWORD PTR __Newres$[ebp], ecx
	jmp	SHORT $LN8@Copy
$LN9@Copy:

; 2186 : 		else if (this->_Myres / 2 <= _Newres / 3)

	mov	eax, DWORD PTR __Newres$[ebp]
	xor	edx, edx
	mov	ecx, 3
	div	ecx
	mov	edx, DWORD PTR _this$[ebp]
	mov	ecx, DWORD PTR [edx+20]
	shr	ecx, 1
	cmp	ecx, eax
	ja	SHORT $LN7@Copy
	jmp	SHORT $LN8@Copy
$LN7@Copy:

; 2187 : 			;
; 2188 : 		else if (this->_Myres <= max_size() - this->_Myres / 2)

	mov	edx, DWORD PTR _this$[ebp]
	mov	esi, DWORD PTR [edx+20]
	shr	esi, 1
	mov	ecx, DWORD PTR _this$[ebp]
	call	?max_size@?$basic_string@DU?$char_traits@D@std@@V?$allocator@D@2@@std@@QBEIXZ ; std::basic_string<char,std::char_traits<char>,std::allocator<char> >::max_size
	sub	eax, esi
	mov	ecx, DWORD PTR _this$[ebp]
	cmp	DWORD PTR [ecx+20], eax
	ja	SHORT $LN5@Copy

; 2189 : 			_Newres = this->_Myres
; 2190 : 				+ this->_Myres / 2;	// grow exponentially if possible

	mov	edx, DWORD PTR _this$[ebp]
	mov	eax, DWORD PTR [edx+20]
	shr	eax, 1
	mov	ecx, DWORD PTR _this$[ebp]
	add	eax, DWORD PTR [ecx+20]
	mov	DWORD PTR __Newres$[ebp], eax

; 2191 : 		else

	jmp	SHORT $LN8@Copy
$LN5@Copy:

; 2192 : 			_Newres = max_size();	// settle for max_size()

	mov	ecx, DWORD PTR _this$[ebp]
	call	?max_size@?$basic_string@DU?$char_traits@D@std@@V?$allocator@D@2@@std@@QBEIXZ ; std::basic_string<char,std::char_traits<char>,std::allocator<char> >::max_size
	mov	DWORD PTR __Newres$[ebp], eax
$LN8@Copy:

; 2193 : 
; 2194 : 		_Elem *_Ptr;
; 2195 : 		_TRY_BEGIN

	mov	DWORD PTR __$EHRec$[ebp+12], 0

; 2196 : 			_Ptr = this->_Getal().allocate(_Newres + 1);

	lea	edx, DWORD PTR $T4[ebp]
	push	edx
	mov	ecx, DWORD PTR _this$[ebp]
	call	?_Getal@?$_String_alloc@$0A@U?$_String_base_types@DV?$allocator@D@std@@@std@@@std@@QBE?AU?$_Wrap_alloc@V?$allocator@D@std@@@2@XZ ; std::_String_alloc<0,std::_String_base_types<char,std::allocator<char> > >::_Getal
	mov	DWORD PTR tv202[ebp], eax
	mov	eax, DWORD PTR __Newres$[ebp]
	add	eax, 1
	push	eax
	mov	ecx, DWORD PTR tv202[ebp]
	call	?allocate@?$_Wrap_alloc@V?$allocator@D@std@@@std@@QAEPADI@Z ; std::_Wrap_alloc<std::allocator<char> >::allocate
	mov	DWORD PTR tv203[ebp], eax
	mov	ecx, DWORD PTR tv203[ebp]
	mov	DWORD PTR __Ptr$[ebp], ecx
	jmp	SHORT $LN12@Copy
__catch$?_Copy@?$basic_string@DU?$char_traits@D@std@@V?$allocator@D@2@@std@@QAEXII@Z$0:

; 2197 : 		_CATCH_ALL

	mov	DWORD PTR __$EHRec$[ebp], esp

; 2198 : 			_Newres = _Newsize;	// allocation failed, undo roundup and retry

	mov	edx, DWORD PTR __Newsize$[ebp]
	mov	DWORD PTR __Newres$[ebp], edx

; 2199 : 			_TRY_BEGIN

	mov	BYTE PTR __$EHRec$[ebp+12], 2

; 2200 : 				_Ptr = this->_Getal().allocate(_Newres + 1);

	lea	eax, DWORD PTR $T3[ebp]
	push	eax
	mov	ecx, DWORD PTR _this$[ebp]
	call	?_Getal@?$_String_alloc@$0A@U?$_String_base_types@DV?$allocator@D@std@@@std@@@std@@QBE?AU?$_Wrap_alloc@V?$allocator@D@std@@@2@XZ ; std::_String_alloc<0,std::_String_base_types<char,std::allocator<char> > >::_Getal
	mov	DWORD PTR tv204[ebp], eax
	mov	ecx, DWORD PTR __Newres$[ebp]
	add	ecx, 1
	push	ecx
	mov	ecx, DWORD PTR tv204[ebp]
	call	?allocate@?$_Wrap_alloc@V?$allocator@D@std@@@std@@QAEPADI@Z ; std::_Wrap_alloc<std::allocator<char> >::allocate
	mov	DWORD PTR tv205[ebp], eax
	mov	edx, DWORD PTR tv205[ebp]
	mov	DWORD PTR __Ptr$[ebp], edx
	jmp	SHORT $LN14@Copy
__catch$?_Copy@?$basic_string@DU?$char_traits@D@std@@V?$allocator@D@2@@std@@QAEXII@Z$1:

; 2201 : 			_CATCH_ALL
; 2202 : 			_Tidy(true);	// failed again, discard storage and reraise

	push	0
	push	1
	mov	ecx, DWORD PTR _this$[ebp]
	call	?_Tidy@?$basic_string@DU?$char_traits@D@std@@V?$allocator@D@2@@std@@QAEX_NI@Z ; std::basic_string<char,std::char_traits<char>,std::allocator<char> >::_Tidy

; 2203 : 			_RERAISE;

	push	0
	push	0
	call	__CxxThrowException@8

; 2204 : 			_CATCH_END

	mov	eax, $LN17@Copy
	ret	0
$LN14@Copy:
	mov	DWORD PTR __$EHRec$[ebp+12], 1
	jmp	SHORT __tryend$?_Copy@?$basic_string@DU?$char_traits@D@std@@V?$allocator@D@2@@std@@QAEXII@Z$2
$LN17@Copy:
	mov	DWORD PTR __$EHRec$[ebp+12], 1
__tryend$?_Copy@?$basic_string@DU?$char_traits@D@std@@V?$allocator@D@2@@std@@QAEXII@Z$2:

; 2205 : 		_CATCH_END

	mov	eax, $LN19@Copy
	ret	0
$LN12@Copy:
	mov	DWORD PTR __$EHRec$[ebp+12], -1
	jmp	SHORT __tryend$?_Copy@?$basic_string@DU?$char_traits@D@std@@V?$allocator@D@2@@std@@QAEXII@Z$3
$LN19@Copy:
	mov	DWORD PTR __$EHRec$[ebp+12], -1
__tryend$?_Copy@?$basic_string@DU?$char_traits@D@std@@V?$allocator@D@2@@std@@QAEXII@Z$3:

; 2206 : 
; 2207 : 		if (0 < _Oldlen)

	cmp	DWORD PTR __Oldlen$[ebp], 0
	jbe	SHORT $LN1@Copy

; 2208 : 			_Traits::copy(_Ptr, this->_Myptr(),
; 2209 : 				_Oldlen);	// copy existing elements

	mov	eax, DWORD PTR __Oldlen$[ebp]
	push	eax
	mov	ecx, DWORD PTR _this$[ebp]
	call	?_Myptr@?$_String_val@U?$_Simple_types@D@std@@@std@@QAEPADXZ ; std::_String_val<std::_Simple_types<char> >::_Myptr
	push	eax
	mov	ecx, DWORD PTR __Ptr$[ebp]
	push	ecx
	call	?copy@?$char_traits@D@std@@SAPADPADPBDI@Z ; std::char_traits<char>::copy
	add	esp, 12					; 0000000cH
$LN1@Copy:

; 2210 : 		_Tidy(true);

	push	0
	push	1
	mov	ecx, DWORD PTR _this$[ebp]
	call	?_Tidy@?$basic_string@DU?$char_traits@D@std@@V?$allocator@D@2@@std@@QAEX_NI@Z ; std::basic_string<char,std::char_traits<char>,std::allocator<char> >::_Tidy

; 2211 : 		this->_Getal().construct(&this->_Bx._Ptr, _Ptr);

	lea	edx, DWORD PTR __Ptr$[ebp]
	push	edx
	mov	eax, DWORD PTR _this$[ebp]
	push	eax
	lea	ecx, DWORD PTR $T2[ebp]
	push	ecx
	mov	ecx, DWORD PTR _this$[ebp]
	call	?_Getal@?$_String_alloc@$0A@U?$_String_base_types@DV?$allocator@D@std@@@std@@@std@@QBE?AU?$_Wrap_alloc@V?$allocator@D@std@@@2@XZ ; std::_String_alloc<0,std::_String_base_types<char,std::allocator<char> > >::_Getal
	mov	ecx, eax
	call	??$construct@PADAAPAD@?$_Wrap_alloc@V?$allocator@D@std@@@std@@QAEXPAPADAAPAD@Z ; std::_Wrap_alloc<std::allocator<char> >::construct<char *,char * &>

; 2212 : 		this->_Myres = _Newres;

	mov	edx, DWORD PTR _this$[ebp]
	mov	eax, DWORD PTR __Newres$[ebp]
	mov	DWORD PTR [edx+20], eax

; 2213 : 		_Eos(_Oldlen);

	mov	ecx, DWORD PTR __Oldlen$[ebp]
	push	ecx
	mov	ecx, DWORD PTR _this$[ebp]
	call	?_Eos@?$basic_string@DU?$char_traits@D@std@@V?$allocator@D@2@@std@@QAEXI@Z ; std::basic_string<char,std::char_traits<char>,std::allocator<char> >::_Eos
$LN11@Copy:

; 2214 : 		}

	mov	ecx, DWORD PTR __$EHRec$[ebp+4]
	mov	DWORD PTR fs:0, ecx
	pop	ecx
	pop	edi
	pop	esi
	pop	ebx
	mov	esp, ebp
	pop	ebp
	ret	8
_TEXT	ENDS
;	COMDAT text$x
text$x	SEGMENT
__ehhandler$?_Copy@?$basic_string@DU?$char_traits@D@std@@V?$allocator@D@2@@std@@QAEXII@Z:
	mov	edx, DWORD PTR [esp+8]
	lea	eax, DWORD PTR [edx+12]
	mov	ecx, DWORD PTR [edx-52]
	xor	ecx, eax
	call	@__security_check_cookie@4
	mov	eax, OFFSET __ehfuncinfo$?_Copy@?$basic_string@DU?$char_traits@D@std@@V?$allocator@D@2@@std@@QAEXII@Z
	jmp	___CxxFrameHandler3
text$x	ENDS
?_Copy@?$basic_string@DU?$char_traits@D@std@@V?$allocator@D@2@@std@@QAEXII@Z ENDP ; std::basic_string<char,std::char_traits<char>,std::allocator<char> >::_Copy
; Function compile flags: /Odtp
; File c:\program files (x86)\microsoft visual studio 11.0\vc\include\xstring
;	COMDAT ?max_size@?$basic_string@DU?$char_traits@D@std@@V?$allocator@D@2@@std@@QBEIXZ
_TEXT	SEGMENT
_this$ = -16						; size = 4
tv75 = -12						; size = 4
__Num$ = -8						; size = 4
$T1 = -1						; size = 1
?max_size@?$basic_string@DU?$char_traits@D@std@@V?$allocator@D@2@@std@@QBEIXZ PROC ; std::basic_string<char,std::char_traits<char>,std::allocator<char> >::max_size, COMDAT
; _this$ = ecx

; 1737 : 		{	// return maximum possible length of sequence

	push	ebp
	mov	ebp, esp
	sub	esp, 16					; 00000010H
	mov	DWORD PTR _this$[ebp], ecx

; 1738 : 		size_type _Num = this->_Getal().max_size();

	lea	eax, DWORD PTR $T1[ebp]
	push	eax
	mov	ecx, DWORD PTR _this$[ebp]
	call	?_Getal@?$_String_alloc@$0A@U?$_String_base_types@DV?$allocator@D@std@@@std@@@std@@QBE?AU?$_Wrap_alloc@V?$allocator@D@std@@@2@XZ ; std::_String_alloc<0,std::_String_base_types<char,std::allocator<char> > >::_Getal
	mov	ecx, eax
	call	?max_size@?$_Wrap_alloc@V?$allocator@D@std@@@std@@QBEIXZ ; std::_Wrap_alloc<std::allocator<char> >::max_size
	mov	DWORD PTR __Num$[ebp], eax

; 1739 : 		return (_Num <= 1 ? 1 : _Num - 1);

	cmp	DWORD PTR __Num$[ebp], 1
	ja	SHORT $LN3@max_size
	mov	DWORD PTR tv75[ebp], 1
	jmp	SHORT $LN4@max_size
$LN3@max_size:
	mov	ecx, DWORD PTR __Num$[ebp]
	sub	ecx, 1
	mov	DWORD PTR tv75[ebp], ecx
$LN4@max_size:
	mov	eax, DWORD PTR tv75[ebp]

; 1740 : 		}

	mov	esp, ebp
	pop	ebp
	ret	0
?max_size@?$basic_string@DU?$char_traits@D@std@@V?$allocator@D@2@@std@@QBEIXZ ENDP ; std::basic_string<char,std::char_traits<char>,std::allocator<char> >::max_size
_TEXT	ENDS
; Function compile flags: /Odtp
; File c:\program files (x86)\microsoft visual studio 11.0\vc\include\xstring
;	COMDAT ?size@?$basic_string@DU?$char_traits@D@std@@V?$allocator@D@2@@std@@QBEIXZ
_TEXT	SEGMENT
_this$ = -4						; size = 4
?size@?$basic_string@DU?$char_traits@D@std@@V?$allocator@D@2@@std@@QBEIXZ PROC ; std::basic_string<char,std::char_traits<char>,std::allocator<char> >::size, COMDAT
; _this$ = ecx

; 1732 : 		{	// return length of sequence

	push	ebp
	mov	ebp, esp
	push	ecx
	mov	DWORD PTR _this$[ebp], ecx

; 1733 : 		return (this->_Mysize);

	mov	eax, DWORD PTR _this$[ebp]
	mov	eax, DWORD PTR [eax+16]

; 1734 : 		}

	mov	esp, ebp
	pop	ebp
	ret	0
?size@?$basic_string@DU?$char_traits@D@std@@V?$allocator@D@2@@std@@QBEIXZ ENDP ; std::basic_string<char,std::char_traits<char>,std::allocator<char> >::size
_TEXT	ENDS
; Function compile flags: /Odtp
; File c:\program files (x86)\microsoft visual studio 11.0\vc\include\xstring
;	COMDAT ?erase@?$basic_string@DU?$char_traits@D@std@@V?$allocator@D@2@@std@@QAEAAV12@II@Z
_TEXT	SEGMENT
__Newsize$1 = -12					; size = 4
__Ptr$2 = -8						; size = 4
_this$ = -4						; size = 4
__Off$ = 8						; size = 4
__Count$ = 12						; size = 4
?erase@?$basic_string@DU?$char_traits@D@std@@V?$allocator@D@2@@std@@QAEAAV12@II@Z PROC ; std::basic_string<char,std::char_traits<char>,std::allocator<char> >::erase, COMDAT
; _this$ = ecx

; 1317 : 		{	// erase elements [_Off, _Off + _Count)

	push	ebp
	mov	ebp, esp
	sub	esp, 12					; 0000000cH
	mov	DWORD PTR _this$[ebp], ecx

; 1318 : 		if (this->_Mysize < _Off)

	mov	eax, DWORD PTR _this$[ebp]
	mov	ecx, DWORD PTR [eax+16]
	cmp	ecx, DWORD PTR __Off$[ebp]
	jae	SHORT $LN4@erase

; 1319 : 			_Xran();	// _Off off end

	mov	ecx, DWORD PTR _this$[ebp]
	call	?_Xran@?$basic_string@DU?$char_traits@D@std@@V?$allocator@D@2@@std@@QBEXXZ ; std::basic_string<char,std::char_traits<char>,std::allocator<char> >::_Xran
$LN4@erase:

; 1320 : 		if (this->_Mysize - _Off <= _Count)

	mov	edx, DWORD PTR _this$[ebp]
	mov	eax, DWORD PTR [edx+16]
	sub	eax, DWORD PTR __Off$[ebp]
	cmp	eax, DWORD PTR __Count$[ebp]
	ja	SHORT $LN3@erase

; 1321 : 			_Eos(_Off);	// erase elements [_Off, ...)

	mov	ecx, DWORD PTR __Off$[ebp]
	push	ecx
	mov	ecx, DWORD PTR _this$[ebp]
	call	?_Eos@?$basic_string@DU?$char_traits@D@std@@V?$allocator@D@2@@std@@QAEXI@Z ; std::basic_string<char,std::char_traits<char>,std::allocator<char> >::_Eos
	jmp	SHORT $LN2@erase
$LN3@erase:

; 1322 : 		else if (0 < _Count)

	cmp	DWORD PTR __Count$[ebp], 0
	jbe	SHORT $LN2@erase

; 1323 : 			{	// move elements down
; 1324 : 			value_type *_Ptr = this->_Myptr() + _Off;

	mov	ecx, DWORD PTR _this$[ebp]
	call	?_Myptr@?$_String_val@U?$_Simple_types@D@std@@@std@@QAEPADXZ ; std::_String_val<std::_Simple_types<char> >::_Myptr
	add	eax, DWORD PTR __Off$[ebp]
	mov	DWORD PTR __Ptr$2[ebp], eax

; 1325 : 			size_type _Newsize = this->_Mysize - _Count;

	mov	edx, DWORD PTR _this$[ebp]
	mov	eax, DWORD PTR [edx+16]
	sub	eax, DWORD PTR __Count$[ebp]
	mov	DWORD PTR __Newsize$1[ebp], eax

; 1326 : 			_Traits::move(_Ptr, _Ptr + _Count, _Newsize - _Off);

	mov	ecx, DWORD PTR __Newsize$1[ebp]
	sub	ecx, DWORD PTR __Off$[ebp]
	push	ecx
	mov	edx, DWORD PTR __Ptr$2[ebp]
	add	edx, DWORD PTR __Count$[ebp]
	push	edx
	mov	eax, DWORD PTR __Ptr$2[ebp]
	push	eax
	call	?move@?$char_traits@D@std@@SAPADPADPBDI@Z ; std::char_traits<char>::move
	add	esp, 12					; 0000000cH

; 1327 : 			_Eos(_Newsize);

	mov	ecx, DWORD PTR __Newsize$1[ebp]
	push	ecx
	mov	ecx, DWORD PTR _this$[ebp]
	call	?_Eos@?$basic_string@DU?$char_traits@D@std@@V?$allocator@D@2@@std@@QAEXI@Z ; std::basic_string<char,std::char_traits<char>,std::allocator<char> >::_Eos
$LN2@erase:

; 1328 : 			}
; 1329 : 		return (*this);

	mov	eax, DWORD PTR _this$[ebp]
$LN6@erase:

; 1330 : 		}

	mov	esp, ebp
	pop	ebp
	ret	8
?erase@?$basic_string@DU?$char_traits@D@std@@V?$allocator@D@2@@std@@QAEAAV12@II@Z ENDP ; std::basic_string<char,std::char_traits<char>,std::allocator<char> >::erase
_TEXT	ENDS
; Function compile flags: /Odtp
; File c:\program files (x86)\microsoft visual studio 11.0\vc\include\xstring
;	COMDAT ?erase@?$basic_string@DU?$char_traits@D@std@@V?$allocator@D@2@@std@@QAEAAV12@I@Z
_TEXT	SEGMENT
_this$ = -4						; size = 4
__Off$ = 8						; size = 4
?erase@?$basic_string@DU?$char_traits@D@std@@V?$allocator@D@2@@std@@QAEAAV12@I@Z PROC ; std::basic_string<char,std::char_traits<char>,std::allocator<char> >::erase, COMDAT
; _this$ = ecx

; 1309 : 		{	// erase elements [_Off, ...)

	push	ebp
	mov	ebp, esp
	push	ecx
	mov	DWORD PTR _this$[ebp], ecx

; 1310 : 		if (this->_Mysize < _Off)

	mov	eax, DWORD PTR _this$[ebp]
	mov	ecx, DWORD PTR [eax+16]
	cmp	ecx, DWORD PTR __Off$[ebp]
	jae	SHORT $LN1@erase

; 1311 : 			_Xran();	// _Off off end

	mov	ecx, DWORD PTR _this$[ebp]
	call	?_Xran@?$basic_string@DU?$char_traits@D@std@@V?$allocator@D@2@@std@@QBEXXZ ; std::basic_string<char,std::char_traits<char>,std::allocator<char> >::_Xran
$LN1@erase:

; 1312 : 		_Eos(_Off);

	mov	edx, DWORD PTR __Off$[ebp]
	push	edx
	mov	ecx, DWORD PTR _this$[ebp]
	call	?_Eos@?$basic_string@DU?$char_traits@D@std@@V?$allocator@D@2@@std@@QAEXI@Z ; std::basic_string<char,std::char_traits<char>,std::allocator<char> >::_Eos

; 1313 : 		return (*this);

	mov	eax, DWORD PTR _this$[ebp]
$LN3@erase:

; 1314 : 		}

	mov	esp, ebp
	pop	ebp
	ret	4
?erase@?$basic_string@DU?$char_traits@D@std@@V?$allocator@D@2@@std@@QAEAAV12@I@Z ENDP ; std::basic_string<char,std::char_traits<char>,std::allocator<char> >::erase
_TEXT	ENDS
; Function compile flags: /Odtp
; File c:\program files (x86)\microsoft visual studio 11.0\vc\include\xstring
;	COMDAT ?assign@?$basic_string@DU?$char_traits@D@std@@V?$allocator@D@2@@std@@QAEAAV12@PBD@Z
_TEXT	SEGMENT
_this$ = -4						; size = 4
__Ptr$ = 8						; size = 4
?assign@?$basic_string@DU?$char_traits@D@std@@V?$allocator@D@2@@std@@QAEAAV12@PBD@Z PROC ; std::basic_string<char,std::char_traits<char>,std::allocator<char> >::assign, COMDAT
; _this$ = ecx

; 1142 : 		{	// assign [_Ptr, <null>)

	push	ebp
	mov	ebp, esp
	push	ecx
	mov	DWORD PTR _this$[ebp], ecx

; 1143 : 		_DEBUG_POINTER(_Ptr);
; 1144 : 		return (assign(_Ptr, _Traits::length(_Ptr)));

	mov	eax, DWORD PTR __Ptr$[ebp]
	push	eax
	call	?length@?$char_traits@D@std@@SAIPBD@Z	; std::char_traits<char>::length
	add	esp, 4
	push	eax
	mov	ecx, DWORD PTR __Ptr$[ebp]
	push	ecx
	mov	ecx, DWORD PTR _this$[ebp]
	call	?assign@?$basic_string@DU?$char_traits@D@std@@V?$allocator@D@2@@std@@QAEAAV12@PBDI@Z ; std::basic_string<char,std::char_traits<char>,std::allocator<char> >::assign

; 1145 : 		}

	mov	esp, ebp
	pop	ebp
	ret	4
?assign@?$basic_string@DU?$char_traits@D@std@@V?$allocator@D@2@@std@@QAEAAV12@PBD@Z ENDP ; std::basic_string<char,std::char_traits<char>,std::allocator<char> >::assign
_TEXT	ENDS
; Function compile flags: /Odtp
; File c:\program files (x86)\microsoft visual studio 11.0\vc\include\xstring
;	COMDAT ?assign@?$basic_string@DU?$char_traits@D@std@@V?$allocator@D@2@@std@@QAEAAV12@PBDI@Z
_TEXT	SEGMENT
_this$ = -4						; size = 4
__Ptr$ = 8						; size = 4
__Count$ = 12						; size = 4
?assign@?$basic_string@DU?$char_traits@D@std@@V?$allocator@D@2@@std@@QAEAAV12@PBDI@Z PROC ; std::basic_string<char,std::char_traits<char>,std::allocator<char> >::assign, COMDAT
; _this$ = ecx

; 1123 : 		{	// assign [_Ptr, _Ptr + _Count)

	push	ebp
	mov	ebp, esp
	push	ecx
	mov	DWORD PTR _this$[ebp], ecx

; 1124 :  #if _ITERATOR_DEBUG_LEVEL == 2
; 1125 : 		if (_Count != 0)
; 1126 : 			_DEBUG_POINTER(_Ptr);
; 1127 :  #endif /* _ITERATOR_DEBUG_LEVEL == 2 */
; 1128 : 
; 1129 : 		if (_Inside(_Ptr))

	mov	eax, DWORD PTR __Ptr$[ebp]
	push	eax
	mov	ecx, DWORD PTR _this$[ebp]
	call	?_Inside@?$basic_string@DU?$char_traits@D@std@@V?$allocator@D@2@@std@@QAE_NPBD@Z ; std::basic_string<char,std::char_traits<char>,std::allocator<char> >::_Inside
	movzx	ecx, al
	test	ecx, ecx
	je	SHORT $LN2@assign

; 1130 : 			return (assign(*this,
; 1131 : 				_Ptr - this->_Myptr(), _Count));	// substring

	mov	edx, DWORD PTR __Count$[ebp]
	push	edx
	mov	ecx, DWORD PTR _this$[ebp]
	call	?_Myptr@?$_String_val@U?$_Simple_types@D@std@@@std@@QAEPADXZ ; std::_String_val<std::_Simple_types<char> >::_Myptr
	mov	ecx, DWORD PTR __Ptr$[ebp]
	sub	ecx, eax
	push	ecx
	mov	edx, DWORD PTR _this$[ebp]
	push	edx
	mov	ecx, DWORD PTR _this$[ebp]
	call	?assign@?$basic_string@DU?$char_traits@D@std@@V?$allocator@D@2@@std@@QAEAAV12@ABV12@II@Z ; std::basic_string<char,std::char_traits<char>,std::allocator<char> >::assign
	jmp	SHORT $LN3@assign
$LN2@assign:

; 1132 : 
; 1133 : 		if (_Grow(_Count))

	push	0
	mov	eax, DWORD PTR __Count$[ebp]
	push	eax
	mov	ecx, DWORD PTR _this$[ebp]
	call	?_Grow@?$basic_string@DU?$char_traits@D@std@@V?$allocator@D@2@@std@@QAE_NI_N@Z ; std::basic_string<char,std::char_traits<char>,std::allocator<char> >::_Grow
	movzx	ecx, al
	test	ecx, ecx
	je	SHORT $LN1@assign

; 1134 : 			{	// make room and assign new stuff
; 1135 : 			_Traits::copy(this->_Myptr(), _Ptr, _Count);

	mov	edx, DWORD PTR __Count$[ebp]
	push	edx
	mov	eax, DWORD PTR __Ptr$[ebp]
	push	eax
	mov	ecx, DWORD PTR _this$[ebp]
	call	?_Myptr@?$_String_val@U?$_Simple_types@D@std@@@std@@QAEPADXZ ; std::_String_val<std::_Simple_types<char> >::_Myptr
	push	eax
	call	?copy@?$char_traits@D@std@@SAPADPADPBDI@Z ; std::char_traits<char>::copy
	add	esp, 12					; 0000000cH

; 1136 : 			_Eos(_Count);

	mov	ecx, DWORD PTR __Count$[ebp]
	push	ecx
	mov	ecx, DWORD PTR _this$[ebp]
	call	?_Eos@?$basic_string@DU?$char_traits@D@std@@V?$allocator@D@2@@std@@QAEXI@Z ; std::basic_string<char,std::char_traits<char>,std::allocator<char> >::_Eos
$LN1@assign:

; 1137 : 			}
; 1138 : 		return (*this);

	mov	eax, DWORD PTR _this$[ebp]
$LN3@assign:

; 1139 : 		}

	mov	esp, ebp
	pop	ebp
	ret	8
?assign@?$basic_string@DU?$char_traits@D@std@@V?$allocator@D@2@@std@@QAEAAV12@PBDI@Z ENDP ; std::basic_string<char,std::char_traits<char>,std::allocator<char> >::assign
_TEXT	ENDS
; Function compile flags: /Odtp
; File c:\program files (x86)\microsoft visual studio 11.0\vc\include\xstring
;	COMDAT ?assign@?$basic_string@DU?$char_traits@D@std@@V?$allocator@D@2@@std@@QAEAAV12@ABV12@II@Z
_TEXT	SEGMENT
__Num$ = -8						; size = 4
_this$ = -4						; size = 4
__Right$ = 8						; size = 4
__Roff$ = 12						; size = 4
__Count$ = 16						; size = 4
?assign@?$basic_string@DU?$char_traits@D@std@@V?$allocator@D@2@@std@@QAEAAV12@ABV12@II@Z PROC ; std::basic_string<char,std::char_traits<char>,std::allocator<char> >::assign, COMDAT
; _this$ = ecx

; 1104 : 		{	// assign _Right [_Roff, _Roff + _Count)

	push	ebp
	mov	ebp, esp
	sub	esp, 8
	mov	DWORD PTR _this$[ebp], ecx

; 1105 : 		if (_Right.size() < _Roff)

	mov	ecx, DWORD PTR __Right$[ebp]
	call	?size@?$basic_string@DU?$char_traits@D@std@@V?$allocator@D@2@@std@@QBEIXZ ; std::basic_string<char,std::char_traits<char>,std::allocator<char> >::size
	cmp	eax, DWORD PTR __Roff$[ebp]
	jae	SHORT $LN5@assign

; 1106 : 			_Xran();	// _Roff off end

	mov	ecx, DWORD PTR _this$[ebp]
	call	?_Xran@?$basic_string@DU?$char_traits@D@std@@V?$allocator@D@2@@std@@QBEXXZ ; std::basic_string<char,std::char_traits<char>,std::allocator<char> >::_Xran
$LN5@assign:

; 1107 : 		size_type _Num = _Right.size() - _Roff;

	mov	ecx, DWORD PTR __Right$[ebp]
	call	?size@?$basic_string@DU?$char_traits@D@std@@V?$allocator@D@2@@std@@QBEIXZ ; std::basic_string<char,std::char_traits<char>,std::allocator<char> >::size
	sub	eax, DWORD PTR __Roff$[ebp]
	mov	DWORD PTR __Num$[ebp], eax

; 1108 : 		if (_Count < _Num)

	mov	eax, DWORD PTR __Count$[ebp]
	cmp	eax, DWORD PTR __Num$[ebp]
	jae	SHORT $LN4@assign

; 1109 : 			_Num = _Count;	// trim _Num to size

	mov	ecx, DWORD PTR __Count$[ebp]
	mov	DWORD PTR __Num$[ebp], ecx
$LN4@assign:

; 1110 : 
; 1111 : 		if (this == &_Right)

	mov	edx, DWORD PTR _this$[ebp]
	cmp	edx, DWORD PTR __Right$[ebp]
	jne	SHORT $LN3@assign

; 1112 : 			erase((size_type)(_Roff + _Num)), erase(0, _Roff);	// substring

	mov	eax, DWORD PTR __Roff$[ebp]
	add	eax, DWORD PTR __Num$[ebp]
	push	eax
	mov	ecx, DWORD PTR _this$[ebp]
	call	?erase@?$basic_string@DU?$char_traits@D@std@@V?$allocator@D@2@@std@@QAEAAV12@I@Z ; std::basic_string<char,std::char_traits<char>,std::allocator<char> >::erase
	mov	ecx, DWORD PTR __Roff$[ebp]
	push	ecx
	push	0
	mov	ecx, DWORD PTR _this$[ebp]
	call	?erase@?$basic_string@DU?$char_traits@D@std@@V?$allocator@D@2@@std@@QAEAAV12@II@Z ; std::basic_string<char,std::char_traits<char>,std::allocator<char> >::erase
	jmp	SHORT $LN2@assign
$LN3@assign:

; 1113 : 		else if (_Grow(_Num))

	push	0
	mov	edx, DWORD PTR __Num$[ebp]
	push	edx
	mov	ecx, DWORD PTR _this$[ebp]
	call	?_Grow@?$basic_string@DU?$char_traits@D@std@@V?$allocator@D@2@@std@@QAE_NI_N@Z ; std::basic_string<char,std::char_traits<char>,std::allocator<char> >::_Grow
	movzx	eax, al
	test	eax, eax
	je	SHORT $LN2@assign

; 1114 : 			{	// make room and assign new stuff
; 1115 : 			_Traits::copy(this->_Myptr(),
; 1116 : 				_Right._Myptr() + _Roff, _Num);

	mov	ecx, DWORD PTR __Num$[ebp]
	push	ecx
	mov	ecx, DWORD PTR __Right$[ebp]
	call	?_Myptr@?$_String_val@U?$_Simple_types@D@std@@@std@@QBEPBDXZ ; std::_String_val<std::_Simple_types<char> >::_Myptr
	add	eax, DWORD PTR __Roff$[ebp]
	push	eax
	mov	ecx, DWORD PTR _this$[ebp]
	call	?_Myptr@?$_String_val@U?$_Simple_types@D@std@@@std@@QAEPADXZ ; std::_String_val<std::_Simple_types<char> >::_Myptr
	push	eax
	call	?copy@?$char_traits@D@std@@SAPADPADPBDI@Z ; std::char_traits<char>::copy
	add	esp, 12					; 0000000cH

; 1117 : 			_Eos(_Num);

	mov	edx, DWORD PTR __Num$[ebp]
	push	edx
	mov	ecx, DWORD PTR _this$[ebp]
	call	?_Eos@?$basic_string@DU?$char_traits@D@std@@V?$allocator@D@2@@std@@QAEXI@Z ; std::basic_string<char,std::char_traits<char>,std::allocator<char> >::_Eos
$LN2@assign:

; 1118 : 			}
; 1119 : 		return (*this);

	mov	eax, DWORD PTR _this$[ebp]
$LN7@assign:

; 1120 : 		}

	mov	esp, ebp
	pop	ebp
	ret	12					; 0000000cH
?assign@?$basic_string@DU?$char_traits@D@std@@V?$allocator@D@2@@std@@QAEAAV12@ABV12@II@Z ENDP ; std::basic_string<char,std::char_traits<char>,std::allocator<char> >::assign
_TEXT	ENDS
; Function compile flags: /Odtp
; File c:\program files (x86)\microsoft visual studio 11.0\vc\include\xstring
;	COMDAT ??0?$basic_string@DU?$char_traits@D@std@@V?$allocator@D@2@@std@@QAE@PBD@Z
_TEXT	SEGMENT
_this$ = -8						; size = 4
$T1 = -1						; size = 1
__Ptr$ = 8						; size = 4
??0?$basic_string@DU?$char_traits@D@std@@V?$allocator@D@2@@std@@QAE@PBD@Z PROC ; std::basic_string<char,std::char_traits<char>,std::allocator<char> >::basic_string<char,std::char_traits<char>,std::allocator<char> >, COMDAT
; _this$ = ecx

; 791  : 		{	// construct from [_Ptr, <null>)

	push	ebp
	mov	ebp, esp
	sub	esp, 8
	mov	DWORD PTR _this$[ebp], ecx
	lea	ecx, DWORD PTR $T1[ebp]
	call	??0?$allocator@D@std@@QAE@XZ		; std::allocator<char>::allocator<char>
	push	eax
	mov	ecx, DWORD PTR _this$[ebp]
	call	??0?$_String_alloc@$0A@U?$_String_base_types@DV?$allocator@D@std@@@std@@@std@@QAE@ABV?$allocator@D@1@@Z ; std::_String_alloc<0,std::_String_base_types<char,std::allocator<char> > >::_String_alloc<0,std::_String_base_types<char,std::allocator<char> > >

; 792  : 		_Tidy();

	push	0
	push	0
	mov	ecx, DWORD PTR _this$[ebp]
	call	?_Tidy@?$basic_string@DU?$char_traits@D@std@@V?$allocator@D@2@@std@@QAEX_NI@Z ; std::basic_string<char,std::char_traits<char>,std::allocator<char> >::_Tidy

; 793  : 		assign(_Ptr);

	mov	eax, DWORD PTR __Ptr$[ebp]
	push	eax
	mov	ecx, DWORD PTR _this$[ebp]
	call	?assign@?$basic_string@DU?$char_traits@D@std@@V?$allocator@D@2@@std@@QAEAAV12@PBD@Z ; std::basic_string<char,std::char_traits<char>,std::allocator<char> >::assign

; 794  : 		}

	mov	eax, DWORD PTR _this$[ebp]
	mov	esp, ebp
	pop	ebp
	ret	4
??0?$basic_string@DU?$char_traits@D@std@@V?$allocator@D@2@@std@@QAE@PBD@Z ENDP ; std::basic_string<char,std::char_traits<char>,std::allocator<char> >::basic_string<char,std::char_traits<char>,std::allocator<char> >
_TEXT	ENDS
; Function compile flags: /Odtp
; File c:\program files (x86)\microsoft visual studio 11.0\vc\include\xstring
;	COMDAT ?_Getal@?$_String_alloc@$0A@U?$_String_base_types@DV?$allocator@D@std@@@std@@@std@@QBE?AU?$_Wrap_alloc@V?$allocator@D@std@@@2@XZ
_TEXT	SEGMENT
_this$ = -4						; size = 4
___$ReturnUdt$ = 8					; size = 4
?_Getal@?$_String_alloc@$0A@U?$_String_base_types@DV?$allocator@D@std@@@std@@@std@@QBE?AU?$_Wrap_alloc@V?$allocator@D@std@@@2@XZ PROC ; std::_String_alloc<0,std::_String_base_types<char,std::allocator<char> > >::_Getal, COMDAT
; _this$ = ecx

; 688  : 		{	// get reference to allocator

	push	ebp
	mov	ebp, esp
	push	ecx
	mov	DWORD PTR _this$[ebp], ecx

; 689  : 		return (_Alty());

	mov	ecx, DWORD PTR ___$ReturnUdt$[ebp]
	call	??0?$_Wrap_alloc@V?$allocator@D@std@@@std@@QAE@XZ ; std::_Wrap_alloc<std::allocator<char> >::_Wrap_alloc<std::allocator<char> >
	mov	eax, DWORD PTR ___$ReturnUdt$[ebp]

; 690  : 		}

	mov	esp, ebp
	pop	ebp
	ret	4
?_Getal@?$_String_alloc@$0A@U?$_String_base_types@DV?$allocator@D@std@@@std@@@std@@QBE?AU?$_Wrap_alloc@V?$allocator@D@std@@@2@XZ ENDP ; std::_String_alloc<0,std::_String_base_types<char,std::allocator<char> > >::_Getal
_TEXT	ENDS
; Function compile flags: /Odtp
; File c:\program files (x86)\microsoft visual studio 11.0\vc\include\xstring
;	COMDAT ??0?$_String_alloc@$0A@U?$_String_base_types@DV?$allocator@D@std@@@std@@@std@@QAE@ABV?$allocator@D@1@@Z
_TEXT	SEGMENT
_this$ = -4						; size = 4
___formal$ = 8						; size = 4
??0?$_String_alloc@$0A@U?$_String_base_types@DV?$allocator@D@std@@@std@@@std@@QAE@ABV?$allocator@D@1@@Z PROC ; std::_String_alloc<0,std::_String_base_types<char,std::allocator<char> > >::_String_alloc<0,std::_String_base_types<char,std::allocator<char> > >, COMDAT
; _this$ = ecx

; 635  : 	_String_alloc(const _Alloc& = _Alloc())

	push	ebp
	mov	ebp, esp
	push	ecx
	mov	DWORD PTR _this$[ebp], ecx
	mov	ecx, DWORD PTR _this$[ebp]
	call	??0?$_String_val@U?$_Simple_types@D@std@@@std@@QAE@XZ ; std::_String_val<std::_Simple_types<char> >::_String_val<std::_Simple_types<char> >

; 636  : 		{	// construct allocator from _Al
; 637  : 		}

	mov	eax, DWORD PTR _this$[ebp]
	mov	esp, ebp
	pop	ebp
	ret	4
??0?$_String_alloc@$0A@U?$_String_base_types@DV?$allocator@D@std@@@std@@@std@@QAE@ABV?$allocator@D@1@@Z ENDP ; std::_String_alloc<0,std::_String_base_types<char,std::allocator<char> > >::_String_alloc<0,std::_String_base_types<char,std::allocator<char> > >
_TEXT	ENDS
; Function compile flags: /Odtp
; File c:\program files (x86)\microsoft visual studio 11.0\vc\include\xstring
;	COMDAT ?_Myptr@?$_String_val@U?$_Simple_types@D@std@@@std@@QBEPBDXZ
_TEXT	SEGMENT
tv72 = -8						; size = 4
_this$ = -4						; size = 4
?_Myptr@?$_String_val@U?$_Simple_types@D@std@@@std@@QBEPBDXZ PROC ; std::_String_val<std::_Simple_types<char> >::_Myptr, COMDAT
; _this$ = ecx

; 521  : 		{	// determine current pointer to buffer for nonmutable string

	push	ebp
	mov	ebp, esp
	sub	esp, 8
	mov	DWORD PTR _this$[ebp], ecx

; 522  : 		return (this->_BUF_SIZE <= this->_Myres
; 523  : 			? _STD addressof(*this->_Bx._Ptr)
; 524  : 			: this->_Bx._Buf);

	mov	eax, DWORD PTR _this$[ebp]
	cmp	DWORD PTR [eax+20], 16			; 00000010H
	jb	SHORT $LN3@Myptr
	mov	ecx, DWORD PTR _this$[ebp]
	mov	edx, DWORD PTR [ecx]
	push	edx
	call	??$addressof@D@std@@YAPADAAD@Z		; std::addressof<char>
	add	esp, 4
	mov	DWORD PTR tv72[ebp], eax
	jmp	SHORT $LN4@Myptr
$LN3@Myptr:
	mov	eax, DWORD PTR _this$[ebp]
	mov	DWORD PTR tv72[ebp], eax
$LN4@Myptr:
	mov	eax, DWORD PTR tv72[ebp]

; 525  : 		}

	mov	esp, ebp
	pop	ebp
	ret	0
?_Myptr@?$_String_val@U?$_Simple_types@D@std@@@std@@QBEPBDXZ ENDP ; std::_String_val<std::_Simple_types<char> >::_Myptr
_TEXT	ENDS
; Function compile flags: /Odtp
; File c:\program files (x86)\microsoft visual studio 11.0\vc\include\xstring
;	COMDAT ?_Myptr@?$_String_val@U?$_Simple_types@D@std@@@std@@QAEPADXZ
_TEXT	SEGMENT
tv72 = -8						; size = 4
_this$ = -4						; size = 4
?_Myptr@?$_String_val@U?$_Simple_types@D@std@@@std@@QAEPADXZ PROC ; std::_String_val<std::_Simple_types<char> >::_Myptr, COMDAT
; _this$ = ecx

; 514  : 		{	// determine current pointer to buffer for mutable string

	push	ebp
	mov	ebp, esp
	sub	esp, 8
	mov	DWORD PTR _this$[ebp], ecx

; 515  : 		return (this->_BUF_SIZE <= this->_Myres
; 516  : 			? _STD addressof(*this->_Bx._Ptr)
; 517  : 			: this->_Bx._Buf);

	mov	eax, DWORD PTR _this$[ebp]
	cmp	DWORD PTR [eax+20], 16			; 00000010H
	jb	SHORT $LN3@Myptr
	mov	ecx, DWORD PTR _this$[ebp]
	mov	edx, DWORD PTR [ecx]
	push	edx
	call	??$addressof@D@std@@YAPADAAD@Z		; std::addressof<char>
	add	esp, 4
	mov	DWORD PTR tv72[ebp], eax
	jmp	SHORT $LN4@Myptr
$LN3@Myptr:
	mov	eax, DWORD PTR _this$[ebp]
	mov	DWORD PTR tv72[ebp], eax
$LN4@Myptr:
	mov	eax, DWORD PTR tv72[ebp]

; 518  : 		}

	mov	esp, ebp
	pop	ebp
	ret	0
?_Myptr@?$_String_val@U?$_Simple_types@D@std@@@std@@QAEPADXZ ENDP ; std::_String_val<std::_Simple_types<char> >::_Myptr
_TEXT	ENDS
; Function compile flags: /Odtp
; File c:\program files (x86)\microsoft visual studio 11.0\vc\include\xstring
;	COMDAT ??0?$_String_val@U?$_Simple_types@D@std@@@std@@QAE@XZ
_TEXT	SEGMENT
_this$ = -4						; size = 4
??0?$_String_val@U?$_Simple_types@D@std@@@std@@QAE@XZ PROC ; std::_String_val<std::_Simple_types<char> >::_String_val<std::_Simple_types<char> >, COMDAT
; _this$ = ecx

; 496  : 	_String_val()

	push	ebp
	mov	ebp, esp
	push	ecx
	mov	DWORD PTR _this$[ebp], ecx

; 497  : 		{	// initialize values
; 498  : 		_Mysize = 0;

	mov	eax, DWORD PTR _this$[ebp]
	mov	DWORD PTR [eax+16], 0

; 499  : 		_Myres = 0;

	mov	ecx, DWORD PTR _this$[ebp]
	mov	DWORD PTR [ecx+20], 0

; 500  : 		}

	mov	eax, DWORD PTR _this$[ebp]
	mov	esp, ebp
	pop	ebp
	ret	0
??0?$_String_val@U?$_Simple_types@D@std@@@std@@QAE@XZ ENDP ; std::_String_val<std::_Simple_types<char> >::_String_val<std::_Simple_types<char> >
_TEXT	ENDS
; Function compile flags: /Odtp
; File c:\program files (x86)\microsoft visual studio 11.0\vc\include\xmemory0
;	COMDAT ?max_size@?$_Wrap_alloc@V?$allocator@D@std@@@std@@QBEIXZ
_TEXT	SEGMENT
_this$ = -4						; size = 4
?max_size@?$_Wrap_alloc@V?$allocator@D@std@@@std@@QBEIXZ PROC ; std::_Wrap_alloc<std::allocator<char> >::max_size, COMDAT
; _this$ = ecx

; 913  : 		{	// get maximum size

	push	ebp
	mov	ebp, esp
	push	ecx
	mov	DWORD PTR _this$[ebp], ecx

; 914  : 		return (_Mytraits::max_size(*this));

	mov	eax, DWORD PTR _this$[ebp]
	push	eax
	call	?max_size@?$allocator_traits@V?$allocator@D@std@@@std@@SAIABV?$allocator@D@2@@Z ; std::allocator_traits<std::allocator<char> >::max_size
	add	esp, 4

; 915  : 		}

	mov	esp, ebp
	pop	ebp
	ret	0
?max_size@?$_Wrap_alloc@V?$allocator@D@std@@@std@@QBEIXZ ENDP ; std::_Wrap_alloc<std::allocator<char> >::max_size
_TEXT	ENDS
; Function compile flags: /Odtp
; File c:\program files (x86)\microsoft visual studio 11.0\vc\include\xmemory0
;	COMDAT ?deallocate@?$_Wrap_alloc@V?$allocator@D@std@@@std@@QAEXPADI@Z
_TEXT	SEGMENT
_this$ = -4						; size = 4
__Ptr$ = 8						; size = 4
__Count$ = 12						; size = 4
?deallocate@?$_Wrap_alloc@V?$allocator@D@std@@@std@@QAEXPADI@Z PROC ; std::_Wrap_alloc<std::allocator<char> >::deallocate, COMDAT
; _this$ = ecx

; 886  : 		{	// deallocate object at _Ptr, ignore size

	push	ebp
	mov	ebp, esp
	push	ecx
	mov	DWORD PTR _this$[ebp], ecx

; 887  : 		_Mybase::deallocate(_Ptr, _Count);

	mov	eax, DWORD PTR __Count$[ebp]
	push	eax
	mov	ecx, DWORD PTR __Ptr$[ebp]
	push	ecx
	mov	ecx, DWORD PTR _this$[ebp]
	call	?deallocate@?$allocator@D@std@@QAEXPADI@Z ; std::allocator<char>::deallocate

; 888  : 		}

	mov	esp, ebp
	pop	ebp
	ret	8
?deallocate@?$_Wrap_alloc@V?$allocator@D@std@@@std@@QAEXPADI@Z ENDP ; std::_Wrap_alloc<std::allocator<char> >::deallocate
_TEXT	ENDS
; Function compile flags: /Odtp
; File c:\program files (x86)\microsoft visual studio 11.0\vc\include\xmemory0
;	COMDAT ?allocate@?$_Wrap_alloc@V?$allocator@D@std@@@std@@QAEPADI@Z
_TEXT	SEGMENT
_this$ = -4						; size = 4
__Count$ = 8						; size = 4
?allocate@?$_Wrap_alloc@V?$allocator@D@std@@@std@@QAEPADI@Z PROC ; std::_Wrap_alloc<std::allocator<char> >::allocate, COMDAT
; _this$ = ecx

; 875  : 		{	// allocate array of _Count elements

	push	ebp
	mov	ebp, esp
	push	ecx
	mov	DWORD PTR _this$[ebp], ecx

; 876  : 		return (_Mybase::allocate(_Count));

	mov	eax, DWORD PTR __Count$[ebp]
	push	eax
	mov	ecx, DWORD PTR _this$[ebp]
	call	?allocate@?$allocator@D@std@@QAEPADI@Z	; std::allocator<char>::allocate

; 877  : 		}

	mov	esp, ebp
	pop	ebp
	ret	4
?allocate@?$_Wrap_alloc@V?$allocator@D@std@@@std@@QAEPADI@Z ENDP ; std::_Wrap_alloc<std::allocator<char> >::allocate
_TEXT	ENDS
; Function compile flags: /Odtp
; File c:\program files (x86)\microsoft visual studio 11.0\vc\include\xmemory0
;	COMDAT ??0?$_Wrap_alloc@V?$allocator@D@std@@@std@@QAE@XZ
_TEXT	SEGMENT
_this$ = -4						; size = 4
??0?$_Wrap_alloc@V?$allocator@D@std@@@std@@QAE@XZ PROC	; std::_Wrap_alloc<std::allocator<char> >::_Wrap_alloc<std::allocator<char> >, COMDAT
; _this$ = ecx

; 830  : 		{	// construct default allocator (do nothing)

	push	ebp
	mov	ebp, esp
	push	ecx
	mov	DWORD PTR _this$[ebp], ecx
	mov	ecx, DWORD PTR _this$[ebp]
	call	??0?$allocator@D@std@@QAE@XZ		; std::allocator<char>::allocator<char>

; 831  : 		}

	mov	eax, DWORD PTR _this$[ebp]
	mov	esp, ebp
	pop	ebp
	ret	0
??0?$_Wrap_alloc@V?$allocator@D@std@@@std@@QAE@XZ ENDP	; std::_Wrap_alloc<std::allocator<char> >::_Wrap_alloc<std::allocator<char> >
_TEXT	ENDS
; Function compile flags: /Odtp
; File c:\program files (x86)\microsoft visual studio 11.0\vc\include\xmemory0
;	COMDAT ?max_size@?$allocator_traits@V?$allocator@D@std@@@std@@SAIABV?$allocator@D@2@@Z
_TEXT	SEGMENT
__Al$ = 8						; size = 4
?max_size@?$allocator_traits@V?$allocator@D@std@@@std@@SAIABV?$allocator@D@2@@Z PROC ; std::allocator_traits<std::allocator<char> >::max_size, COMDAT

; 761  : 		{	// get maximum size

	push	ebp
	mov	ebp, esp

; 762  : 		return (_Al.max_size());

	mov	ecx, DWORD PTR __Al$[ebp]
	call	?max_size@?$allocator@D@std@@QBEIXZ	; std::allocator<char>::max_size

; 763  : 		}

	pop	ebp
	ret	0
?max_size@?$allocator_traits@V?$allocator@D@std@@@std@@SAIABV?$allocator@D@2@@Z ENDP ; std::allocator_traits<std::allocator<char> >::max_size
_TEXT	ENDS
; Function compile flags: /Odtp
; File c:\program files (x86)\microsoft visual studio 11.0\vc\include\xmemory0
;	COMDAT ?max_size@?$allocator@D@std@@QBEIXZ
_TEXT	SEGMENT
_this$ = -4						; size = 4
?max_size@?$allocator@D@std@@QBEIXZ PROC		; std::allocator<char>::max_size, COMDAT
; _this$ = ecx

; 627  : 		{	// estimate maximum array size

	push	ebp
	mov	ebp, esp
	push	ecx
	mov	DWORD PTR _this$[ebp], ecx

; 628  : 		return ((size_t)(-1) / sizeof (_Ty));

	or	eax, -1

; 629  : 		}

	mov	esp, ebp
	pop	ebp
	ret	0
?max_size@?$allocator@D@std@@QBEIXZ ENDP		; std::allocator<char>::max_size
_TEXT	ENDS
; Function compile flags: /Odtp
; File c:\program files (x86)\microsoft visual studio 11.0\vc\include\xmemory0
;	COMDAT ?allocate@?$allocator@D@std@@QAEPADI@Z
_TEXT	SEGMENT
_this$ = -4						; size = 4
__Count$ = 8						; size = 4
?allocate@?$allocator@D@std@@QAEPADI@Z PROC		; std::allocator<char>::allocate, COMDAT
; _this$ = ecx

; 590  : 		{	// allocate array of _Count elements

	push	ebp
	mov	ebp, esp
	push	ecx
	mov	DWORD PTR _this$[ebp], ecx

; 591  : 		return (_Allocate(_Count, (pointer)0));

	push	0
	mov	eax, DWORD PTR __Count$[ebp]
	push	eax
	call	??$_Allocate@D@std@@YAPADIPAD@Z		; std::_Allocate<char>
	add	esp, 8

; 592  : 		}

	mov	esp, ebp
	pop	ebp
	ret	4
?allocate@?$allocator@D@std@@QAEPADI@Z ENDP		; std::allocator<char>::allocate
_TEXT	ENDS
; Function compile flags: /Odtp
; File c:\program files (x86)\microsoft visual studio 11.0\vc\include\xmemory0
;	COMDAT ?deallocate@?$allocator@D@std@@QAEXPADI@Z
_TEXT	SEGMENT
_this$ = -4						; size = 4
__Ptr$ = 8						; size = 4
___formal$ = 12						; size = 4
?deallocate@?$allocator@D@std@@QAEXPADI@Z PROC		; std::allocator<char>::deallocate, COMDAT
; _this$ = ecx

; 585  : 		{	// deallocate object at _Ptr, ignore size

	push	ebp
	mov	ebp, esp
	push	ecx
	mov	DWORD PTR _this$[ebp], ecx

; 586  : 		::operator delete(_Ptr);

	mov	eax, DWORD PTR __Ptr$[ebp]
	push	eax
	call	??3@YAXPAX@Z				; operator delete
	add	esp, 4

; 587  : 		}

	mov	esp, ebp
	pop	ebp
	ret	8
?deallocate@?$allocator@D@std@@QAEXPADI@Z ENDP		; std::allocator<char>::deallocate
_TEXT	ENDS
; Function compile flags: /Odtp
; File c:\program files (x86)\microsoft visual studio 11.0\vc\include\xmemory0
;	COMDAT ??0?$allocator@D@std@@QAE@XZ
_TEXT	SEGMENT
_this$ = -4						; size = 4
??0?$allocator@D@std@@QAE@XZ PROC			; std::allocator<char>::allocator<char>, COMDAT
; _this$ = ecx

; 565  : 	allocator() _THROW0()

	push	ebp
	mov	ebp, esp
	push	ecx
	mov	DWORD PTR _this$[ebp], ecx

; 566  : 		{	// construct default allocator (do nothing)
; 567  : 		}

	mov	eax, DWORD PTR _this$[ebp]
	mov	esp, ebp
	pop	ebp
	ret	0
??0?$allocator@D@std@@QAE@XZ ENDP			; std::allocator<char>::allocator<char>
_TEXT	ENDS
; Function compile flags: /Odtp
; File c:\program files (x86)\microsoft visual studio 11.0\vc\include\xutility
;	COMDAT ??__Eallocator_arg@std@@YAXXZ
text$yc	SEGMENT
$T1 = -1						; size = 1
??__Eallocator_arg@std@@YAXXZ PROC			; std::`dynamic initializer for 'allocator_arg'', COMDAT

; 3644 : const allocator_arg_t allocator_arg = allocator_arg_t();

	push	ebp
	mov	ebp, esp
	push	ecx
	xor	eax, eax
	mov	BYTE PTR $T1[ebp], al
	mov	esp, ebp
	pop	ebp
	ret	0
??__Eallocator_arg@std@@YAXXZ ENDP			; std::`dynamic initializer for 'allocator_arg''
text$yc	ENDS
; Function compile flags: /Odtp
; File c:\program files (x86)\microsoft visual studio 11.0\vc\include\utility
;	COMDAT ??__Epiecewise_construct@std@@YAXXZ
text$yc	SEGMENT
$T1 = -1						; size = 1
??__Epiecewise_construct@std@@YAXXZ PROC		; std::`dynamic initializer for 'piecewise_construct'', COMDAT

; 65   : 	piecewise_construct_t();

	push	ebp
	mov	ebp, esp
	push	ecx
	xor	eax, eax
	mov	BYTE PTR $T1[ebp], al
	mov	esp, ebp
	pop	ebp
	ret	0
??__Epiecewise_construct@std@@YAXXZ ENDP		; std::`dynamic initializer for 'piecewise_construct''
text$yc	ENDS
; Function compile flags: /Odtp
; File c:\program files (x86)\microsoft visual studio 11.0\vc\include\iosfwd
;	COMDAT ?assign@?$char_traits@D@std@@SAXAADABD@Z
_TEXT	SEGMENT
__Left$ = 8						; size = 4
__Right$ = 12						; size = 4
?assign@?$char_traits@D@std@@SAXAADABD@Z PROC		; std::char_traits<char>::assign, COMDAT

; 563  : 		{	// assign an element

	push	ebp
	mov	ebp, esp

; 564  : 		_Left = _Right;

	mov	eax, DWORD PTR __Left$[ebp]
	mov	ecx, DWORD PTR __Right$[ebp]
	mov	dl, BYTE PTR [ecx]
	mov	BYTE PTR [eax], dl

; 565  : 		}

	pop	ebp
	ret	0
?assign@?$char_traits@D@std@@SAXAADABD@Z ENDP		; std::char_traits<char>::assign
_TEXT	ENDS
; Function compile flags: /Odtp
; File c:\program files (x86)\microsoft visual studio 11.0\vc\include\iosfwd
;	COMDAT ?move@?$char_traits@D@std@@SAPADPADPBDI@Z
_TEXT	SEGMENT
tv69 = -4						; size = 4
__First1$ = 8						; size = 4
__First2$ = 12						; size = 4
__Count$ = 16						; size = 4
?move@?$char_traits@D@std@@SAPADPADPBDI@Z PROC		; std::char_traits<char>::move, COMDAT

; 551  : 		{	// copy [_First2, _First2 + _Count) to [_First1, ...)

	push	ebp
	mov	ebp, esp
	push	ecx

; 552  : 		return (_Count == 0 ? _First1
; 553  : 			: (_Elem *)_CSTD memmove(_First1, _First2, _Count));

	cmp	DWORD PTR __Count$[ebp], 0
	jne	SHORT $LN3@move
	mov	eax, DWORD PTR __First1$[ebp]
	mov	DWORD PTR tv69[ebp], eax
	jmp	SHORT $LN4@move
$LN3@move:
	mov	ecx, DWORD PTR __Count$[ebp]
	push	ecx
	mov	edx, DWORD PTR __First2$[ebp]
	push	edx
	mov	eax, DWORD PTR __First1$[ebp]
	push	eax
	call	_memmove
	add	esp, 12					; 0000000cH
	mov	DWORD PTR tv69[ebp], eax
$LN4@move:
	mov	eax, DWORD PTR tv69[ebp]

; 554  : 		}

	mov	esp, ebp
	pop	ebp
	ret	0
?move@?$char_traits@D@std@@SAPADPADPBDI@Z ENDP		; std::char_traits<char>::move
_TEXT	ENDS
; Function compile flags: /Odtp
; File c:\program files (x86)\microsoft visual studio 11.0\vc\include\iosfwd
;	COMDAT ?copy@?$char_traits@D@std@@SAPADPADPBDI@Z
_TEXT	SEGMENT
tv69 = -4						; size = 4
__First1$ = 8						; size = 4
__First2$ = 12						; size = 4
__Count$ = 16						; size = 4
?copy@?$char_traits@D@std@@SAPADPADPBDI@Z PROC		; std::char_traits<char>::copy, COMDAT

; 528  : 		{	// copy [_First2, _First2 + _Count) to [_First1, ...)

	push	ebp
	mov	ebp, esp
	push	ecx

; 529  : 		return (_Count == 0 ? _First1
; 530  : 			: (_Elem *)_CSTD memcpy(_First1, _First2, _Count));

	cmp	DWORD PTR __Count$[ebp], 0
	jne	SHORT $LN3@copy
	mov	eax, DWORD PTR __First1$[ebp]
	mov	DWORD PTR tv69[ebp], eax
	jmp	SHORT $LN4@copy
$LN3@copy:
	mov	ecx, DWORD PTR __Count$[ebp]
	push	ecx
	mov	edx, DWORD PTR __First2$[ebp]
	push	edx
	mov	eax, DWORD PTR __First1$[ebp]
	push	eax
	call	_memcpy
	add	esp, 12					; 0000000cH
	mov	DWORD PTR tv69[ebp], eax
$LN4@copy:
	mov	eax, DWORD PTR tv69[ebp]

; 531  : 		}

	mov	esp, ebp
	pop	ebp
	ret	0
?copy@?$char_traits@D@std@@SAPADPADPBDI@Z ENDP		; std::char_traits<char>::copy
_TEXT	ENDS
; Function compile flags: /Odtp
; File c:\program files (x86)\microsoft visual studio 11.0\vc\include\iosfwd
;	COMDAT ?length@?$char_traits@D@std@@SAIPBD@Z
_TEXT	SEGMENT
tv68 = -4						; size = 4
__First$ = 8						; size = 4
?length@?$char_traits@D@std@@SAIPBD@Z PROC		; std::char_traits<char>::length, COMDAT

; 521  : 		{	// find length of null-terminated string

	push	ebp
	mov	ebp, esp
	push	ecx

; 522  : 		return (*_First == 0 ? 0
; 523  : 			: _CSTD strlen(_First));

	mov	eax, DWORD PTR __First$[ebp]
	movsx	ecx, BYTE PTR [eax]
	test	ecx, ecx
	jne	SHORT $LN3@length
	mov	DWORD PTR tv68[ebp], 0
	jmp	SHORT $LN4@length
$LN3@length:
	mov	edx, DWORD PTR __First$[ebp]
	push	edx
	call	_strlen
	add	esp, 4
	mov	DWORD PTR tv68[ebp], eax
$LN4@length:
	mov	eax, DWORD PTR tv68[ebp]

; 524  : 		}

	mov	esp, ebp
	pop	ebp
	ret	0
?length@?$char_traits@D@std@@SAIPBD@Z ENDP		; std::char_traits<char>::length
_TEXT	ENDS
; Function compile flags: /Odtp
; File c:\program files (x86)\microsoft visual studio 11.0\vc\include\new
;	COMDAT ??3@YAXPAX0@Z
_TEXT	SEGMENT
___formal$ = 8						; size = 4
___formal$ = 12						; size = 4
??3@YAXPAX0@Z PROC					; operator delete, COMDAT

; 64   : 	{	// delete if placement new fails

	push	ebp
	mov	ebp, esp

; 65   : 	}

	pop	ebp
	ret	0
??3@YAXPAX0@Z ENDP					; operator delete
_TEXT	ENDS
; Function compile flags: /Odtp
; File c:\program files (x86)\microsoft visual studio 11.0\vc\include\new
;	COMDAT ??2@YAPAXIPAX@Z
_TEXT	SEGMENT
___formal$ = 8						; size = 4
__Where$ = 12						; size = 4
??2@YAPAXIPAX@Z PROC					; operator new, COMDAT

; 59   : 	{	// construct array with placement at _Where

	push	ebp
	mov	ebp, esp

; 60   : 	return (_Where);

	mov	eax, DWORD PTR __Where$[ebp]

; 61   : 	}

	pop	ebp
	ret	0
??2@YAPAXIPAX@Z ENDP					; operator new
_TEXT	ENDS
; Function compile flags: /Odtp
; File c:\users\zhitao li\documents\visual studio 2012\projects\freefalcon\vu2\include\vuentity.h
;	COMDAT ?YPos@VuEntity@@QBEMXZ
_TEXT	SEGMENT
_this$ = -4						; size = 4
?YPos@VuEntity@@QBEMXZ PROC				; VuEntity::YPos, COMDAT
; _this$ = ecx

; 159  : 	BIG_SCALAR YPos()	const { return pos_.y_; }

	push	ebp
	mov	ebp, esp
	push	ecx
	mov	DWORD PTR _this$[ebp], ecx
	mov	eax, DWORD PTR _this$[ebp]
	fld	DWORD PTR [eax+40]
	mov	esp, ebp
	pop	ebp
	ret	0
?YPos@VuEntity@@QBEMXZ ENDP				; VuEntity::YPos
_TEXT	ENDS
; Function compile flags: /Odtp
; File c:\users\zhitao li\documents\visual studio 2012\projects\freefalcon\vu2\include\vuentity.h
;	COMDAT ?XPos@VuEntity@@QBEMXZ
_TEXT	SEGMENT
_this$ = -4						; size = 4
?XPos@VuEntity@@QBEMXZ PROC				; VuEntity::XPos, COMDAT
; _this$ = ecx

; 158  : 	BIG_SCALAR XPos() const { return pos_.x_; }

	push	ebp
	mov	ebp, esp
	push	ecx
	mov	DWORD PTR _this$[ebp], ecx
	mov	eax, DWORD PTR _this$[ebp]
	fld	DWORD PTR [eax+36]
	mov	esp, ebp
	pop	ebp
	ret	0
?XPos@VuEntity@@QBEMXZ ENDP				; VuEntity::XPos
_TEXT	ENDS
; Function compile flags: /Odtp
; File c:\users\zhitao li\documents\visual studio 2012\projects\freefalcon\vu2\include\vuentity.h
;	COMDAT ?Id@VuEntity@@QBE?AVVU_ID@@XZ
_TEXT	SEGMENT
_this$ = -4						; size = 4
___$ReturnUdt$ = 8					; size = 4
?Id@VuEntity@@QBE?AVVU_ID@@XZ PROC			; VuEntity::Id, COMDAT
; _this$ = ecx

; 131  : 	VU_ID Id() const	{ return share_.id_; }

	push	ebp
	mov	ebp, esp
	push	ecx
	mov	DWORD PTR _this$[ebp], ecx
	mov	eax, DWORD PTR _this$[ebp]
	mov	ecx, DWORD PTR [eax+12]
	mov	edx, DWORD PTR [eax+16]
	mov	eax, DWORD PTR ___$ReturnUdt$[ebp]
	mov	DWORD PTR [eax], ecx
	mov	DWORD PTR [eax+4], edx
	mov	eax, DWORD PTR ___$ReturnUdt$[ebp]
	mov	esp, ebp
	pop	ebp
	ret	4
?Id@VuEntity@@QBE?AVVU_ID@@XZ ENDP			; VuEntity::Id
_TEXT	ENDS
; Function compile flags: /Odtp
; File c:\users\zhitao li\documents\visual studio 2012\projects\freefalcon\falclib\include\vutypes.h
;	COMDAT ??9VU_ID@@QBE_NABV0@@Z
_TEXT	SEGMENT
_this$ = -8						; size = 4
tv74 = -2						; size = 1
tv73 = -1						; size = 1
_rhs$ = 8						; size = 4
??9VU_ID@@QBE_NABV0@@Z PROC				; VU_ID::operator!=, COMDAT
; _this$ = ecx

; 111  : 	bool operator != (const VU_ID &rhs) const { 

	push	ebp
	mov	ebp, esp
	sub	esp, 8
	mov	DWORD PTR _this$[ebp], ecx

; 112  : 		return (
; 113  : 			num_ == rhs.num_ ? 
; 114  : 			(creator_ == rhs.creator_ ? false : true) : 
; 115  : 			true
; 116  : 		); 

	mov	eax, DWORD PTR _this$[ebp]
	mov	ecx, DWORD PTR _rhs$[ebp]
	mov	edx, DWORD PTR [eax]
	cmp	edx, DWORD PTR [ecx]
	jne	SHORT $LN5@operator
	mov	eax, DWORD PTR _rhs$[ebp]
	add	eax, 4
	push	eax
	mov	ecx, DWORD PTR _this$[ebp]
	add	ecx, 4
	call	??8VU_SESSION_ID@@QBEHABV0@@Z		; VU_SESSION_ID::operator==
	test	eax, eax
	je	SHORT $LN3@operator
	mov	BYTE PTR tv73[ebp], 0
	jmp	SHORT $LN4@operator
$LN3@operator:
	mov	BYTE PTR tv73[ebp], 1
$LN4@operator:
	mov	cl, BYTE PTR tv73[ebp]
	mov	BYTE PTR tv74[ebp], cl
	jmp	SHORT $LN6@operator
$LN5@operator:
	mov	BYTE PTR tv74[ebp], 1
$LN6@operator:
	mov	al, BYTE PTR tv74[ebp]

; 117  : 	}

	mov	esp, ebp
	pop	ebp
	ret	4
??9VU_ID@@QBE_NABV0@@Z ENDP				; VU_ID::operator!=
_TEXT	ENDS
; Function compile flags: /Odtp
; File c:\users\zhitao li\documents\visual studio 2012\projects\freefalcon\falclib\include\vutypes.h
;	COMDAT ??8VU_ID@@QBE_NABV0@@Z
_TEXT	SEGMENT
_this$ = -8						; size = 4
tv74 = -2						; size = 1
tv73 = -1						; size = 1
_rhs$ = 8						; size = 4
??8VU_ID@@QBE_NABV0@@Z PROC				; VU_ID::operator==, COMDAT
; _this$ = ecx

; 104  : 	bool operator == (const VU_ID &rhs) const { 

	push	ebp
	mov	ebp, esp
	sub	esp, 8
	mov	DWORD PTR _this$[ebp], ecx

; 105  : 		return (
; 106  : 			num_ == rhs.num_ ? 
; 107  : 			(creator_ == rhs.creator_ ? true : false) : 
; 108  : 			false
; 109  : 		); 

	mov	eax, DWORD PTR _this$[ebp]
	mov	ecx, DWORD PTR _rhs$[ebp]
	mov	edx, DWORD PTR [eax]
	cmp	edx, DWORD PTR [ecx]
	jne	SHORT $LN5@operator
	mov	eax, DWORD PTR _rhs$[ebp]
	add	eax, 4
	push	eax
	mov	ecx, DWORD PTR _this$[ebp]
	add	ecx, 4
	call	??8VU_SESSION_ID@@QBEHABV0@@Z		; VU_SESSION_ID::operator==
	test	eax, eax
	je	SHORT $LN3@operator
	mov	BYTE PTR tv73[ebp], 1
	jmp	SHORT $LN4@operator
$LN3@operator:
	mov	BYTE PTR tv73[ebp], 0
$LN4@operator:
	mov	cl, BYTE PTR tv73[ebp]
	mov	BYTE PTR tv74[ebp], cl
	jmp	SHORT $LN6@operator
$LN5@operator:
	mov	BYTE PTR tv74[ebp], 0
$LN6@operator:
	mov	al, BYTE PTR tv74[ebp]

; 110  : 	}

	mov	esp, ebp
	pop	ebp
	ret	4
??8VU_ID@@QBE_NABV0@@Z ENDP				; VU_ID::operator==
_TEXT	ENDS
; Function compile flags: /Odtp
; File c:\users\zhitao li\documents\visual studio 2012\projects\freefalcon\falclib\include\vutypes.h
;	COMDAT ??0VU_ID@@QAE@XZ
_TEXT	SEGMENT
_this$ = -4						; size = 4
??0VU_ID@@QAE@XZ PROC					; VU_ID::VU_ID, COMDAT
; _this$ = ecx

; 100  : 	VU_ID() : num_(0), creator_(0){}

	push	ebp
	mov	ebp, esp
	push	ecx
	mov	DWORD PTR _this$[ebp], ecx
	mov	eax, DWORD PTR _this$[ebp]
	mov	DWORD PTR [eax], 0
	push	0
	mov	ecx, DWORD PTR _this$[ebp]
	add	ecx, 4
	call	??0VU_SESSION_ID@@QAE@K@Z		; VU_SESSION_ID::VU_SESSION_ID
	mov	eax, DWORD PTR _this$[ebp]
	mov	esp, ebp
	pop	ebp
	ret	0
??0VU_ID@@QAE@XZ ENDP					; VU_ID::VU_ID
_TEXT	ENDS
; Function compile flags: /Odtp
; File c:\users\zhitao li\documents\visual studio 2012\projects\freefalcon\falclib\include\vutypes.h
;	COMDAT ??BVU_SESSION_ID@@QBEKXZ
_TEXT	SEGMENT
_this$ = -4						; size = 4
??BVU_SESSION_ID@@QBEKXZ PROC				; VU_SESSION_ID::operator unsigned long, COMDAT
; _this$ = ecx

; 79   : 	operator unsigned long() const { 

	push	ebp
	mov	ebp, esp
	push	ecx
	mov	DWORD PTR _this$[ebp], ecx

; 80   : 		return (unsigned long) value_; 

	mov	eax, DWORD PTR _this$[ebp]
	mov	eax, DWORD PTR [eax]

; 81   : 	}

	mov	esp, ebp
	pop	ebp
	ret	0
??BVU_SESSION_ID@@QBEKXZ ENDP				; VU_SESSION_ID::operator unsigned long
_TEXT	ENDS
; Function compile flags: /Odtp
; File c:\users\zhitao li\documents\visual studio 2012\projects\freefalcon\falclib\include\vutypes.h
;	COMDAT ??8VU_SESSION_ID@@QBEHABV0@@Z
_TEXT	SEGMENT
_this$ = -8						; size = 4
tv67 = -4						; size = 4
_rhs$ = 8						; size = 4
??8VU_SESSION_ID@@QBEHABV0@@Z PROC			; VU_SESSION_ID::operator==, COMDAT
; _this$ = ecx

; 55   : 	int operator == (const VU_SESSION_ID &rhs) const{

	push	ebp
	mov	ebp, esp
	sub	esp, 8
	mov	DWORD PTR _this$[ebp], ecx

; 56   : 		return (value_ == rhs.value_ ? TRUE : FALSE); 

	mov	eax, DWORD PTR _this$[ebp]
	mov	ecx, DWORD PTR _rhs$[ebp]
	mov	edx, DWORD PTR [eax]
	cmp	edx, DWORD PTR [ecx]
	jne	SHORT $LN3@operator
	mov	DWORD PTR tv67[ebp], 1
	jmp	SHORT $LN4@operator
$LN3@operator:
	mov	DWORD PTR tv67[ebp], 0
$LN4@operator:
	mov	eax, DWORD PTR tv67[ebp]

; 57   : 	}

	mov	esp, ebp
	pop	ebp
	ret	4
??8VU_SESSION_ID@@QBEHABV0@@Z ENDP			; VU_SESSION_ID::operator==
_TEXT	ENDS
; Function compile flags: /Odtp
; File c:\users\zhitao li\documents\visual studio 2012\projects\freefalcon\falclib\include\vutypes.h
;	COMDAT ??0VU_SESSION_ID@@QAE@K@Z
_TEXT	SEGMENT
_this$ = -4						; size = 4
_value$ = 8						; size = 4
??0VU_SESSION_ID@@QAE@K@Z PROC				; VU_SESSION_ID::VU_SESSION_ID, COMDAT
; _this$ = ecx

; 53   : 	VU_SESSION_ID(unsigned long value) : value_((unsigned long)value) { }

	push	ebp
	mov	ebp, esp
	push	ecx
	mov	DWORD PTR _this$[ebp], ecx
	mov	eax, DWORD PTR _this$[ebp]
	mov	ecx, DWORD PTR _value$[ebp]
	mov	DWORD PTR [eax], ecx
	mov	eax, DWORD PTR _this$[ebp]
	mov	esp, ebp
	pop	ebp
	ret	4
??0VU_SESSION_ID@@QAE@K@Z ENDP				; VU_SESSION_ID::VU_SESSION_ID
_TEXT	ENDS
; Function compile flags: /Odtp
; File c:\users\zhitao li\documents\visual studio 2012\projects\freefalcon\mathlib\math.h
_TEXT	SEGMENT
_x$ = 8							; size = 4
?SqrtSSE@@YAMM@Z PROC					; SqrtSSE

; 91   : static inline float SqrtSSE(float x){ 

	push	ebp
	mov	ebp, esp

; 92   :     __asm 
; 93   :     { 
; 94   :         sqrtss xmm0,x 

	sqrtss	xmm0, DWORD PTR _x$[ebp]

; 95   :         movss x,xmm0 

	movss	XMMWORD PTR _x$[ebp], xmm0

; 96   :     } 
; 97   : 
; 98   :     return x; 

	fld	DWORD PTR _x$[ebp]

; 99   : } 

	pop	ebp
	ret	0
?SqrtSSE@@YAMM@Z ENDP					; SqrtSSE
_TEXT	ENDS
; Function compile flags: /Odtp
; File c:\program files (x86)\microsoft visual studio 11.0\vc\include\math.h
;	COMDAT ?sin@@YAMM@Z
_TEXT	SEGMENT
__X$ = 8						; size = 4
?sin@@YAMM@Z PROC					; sin, COMDAT

; 537  :         {return (sinf(_X)); }

	push	ebp
	mov	ebp, esp
	push	ecx
	movss	xmm0, DWORD PTR __X$[ebp]
	movss	DWORD PTR [esp], xmm0
	call	_sinf
	add	esp, 4
	pop	ebp
	ret	0
?sin@@YAMM@Z ENDP					; sin
_TEXT	ENDS
; Function compile flags: /Odtp
; File c:\program files (x86)\microsoft visual studio 11.0\vc\include\math.h
;	COMDAT ?cos@@YAMM@Z
_TEXT	SEGMENT
__X$ = 8						; size = 4
?cos@@YAMM@Z PROC					; cos, COMDAT

; 511  :         {return (cosf(_X)); }

	push	ebp
	mov	ebp, esp
	push	ecx
	movss	xmm0, DWORD PTR __X$[ebp]
	movss	DWORD PTR [esp], xmm0
	call	_cosf
	add	esp, 4
	pop	ebp
	ret	0
?cos@@YAMM@Z ENDP					; cos
_TEXT	ENDS
; Function compile flags: /Odtp
; File c:\program files (x86)\microsoft visual studio 11.0\vc\include\math.h
;	COMDAT _sinf
_TEXT	SEGMENT
tv74 = -12						; size = 8
tv76 = -4						; size = 4
__X$ = 8						; size = 4
_sinf	PROC						; COMDAT

; 430  :         {return ((float)sin((double)_X)); }

	push	ebp
	mov	ebp, esp
	sub	esp, 12					; 0000000cH
	cvtss2sd xmm0, DWORD PTR __X$[ebp]
	sub	esp, 8
	movsd	QWORD PTR [esp], xmm0
	call	_sin
	add	esp, 8
	fstp	QWORD PTR tv74[ebp]
	movsd	xmm0, QWORD PTR tv74[ebp]
	cvtsd2ss xmm0, xmm0
	movss	DWORD PTR tv76[ebp], xmm0
	fld	DWORD PTR tv76[ebp]
	mov	esp, ebp
	pop	ebp
	ret	0
_sinf	ENDP
_TEXT	ENDS
; Function compile flags: /Odtp
; File c:\program files (x86)\microsoft visual studio 11.0\vc\include\math.h
;	COMDAT _cosf
_TEXT	SEGMENT
tv74 = -12						; size = 8
tv76 = -4						; size = 4
__X$ = 8						; size = 4
_cosf	PROC						; COMDAT

; 410  :         {return ((float)cos((double)_X)); }

	push	ebp
	mov	ebp, esp
	sub	esp, 12					; 0000000cH
	cvtss2sd xmm0, DWORD PTR __X$[ebp]
	sub	esp, 8
	movsd	QWORD PTR [esp], xmm0
	call	_cos
	add	esp, 8
	fstp	QWORD PTR tv74[ebp]
	movsd	xmm0, QWORD PTR tv74[ebp]
	cvtsd2ss xmm0, xmm0
	movss	DWORD PTR tv76[ebp], xmm0
	fld	DWORD PTR tv76[ebp]
	mov	esp, ebp
	pop	ebp
	ret	0
_cosf	ENDP
_TEXT	ENDS
END
