; Listing generated by Microsoft (R) Optimizing Compiler Version 17.00.51106.1 

	TITLE	C:\Users\Zhitao Li\Documents\Visual Studio 2012\Projects\Freefalcon\CAMPAIGN\CAMPUPD\iaction.cpp
	.686P
	.XMM
	include listing.inc
	.model	flat

INCLUDELIB LIBCMT
INCLUDELIB OLDNAMES

PUBLIC	?has_denorm@_Num_base@std@@2W4float_denorm_style@2@B ; std::_Num_base::has_denorm
PUBLIC	?has_denorm_loss@_Num_base@std@@2_NB		; std::_Num_base::has_denorm_loss
PUBLIC	?has_infinity@_Num_base@std@@2_NB		; std::_Num_base::has_infinity
PUBLIC	?has_quiet_NaN@_Num_base@std@@2_NB		; std::_Num_base::has_quiet_NaN
PUBLIC	?has_signaling_NaN@_Num_base@std@@2_NB		; std::_Num_base::has_signaling_NaN
PUBLIC	?is_bounded@_Num_base@std@@2_NB			; std::_Num_base::is_bounded
PUBLIC	?is_exact@_Num_base@std@@2_NB			; std::_Num_base::is_exact
PUBLIC	?is_iec559@_Num_base@std@@2_NB			; std::_Num_base::is_iec559
PUBLIC	?is_integer@_Num_base@std@@2_NB			; std::_Num_base::is_integer
PUBLIC	?is_modulo@_Num_base@std@@2_NB			; std::_Num_base::is_modulo
PUBLIC	?is_signed@_Num_base@std@@2_NB			; std::_Num_base::is_signed
PUBLIC	?is_specialized@_Num_base@std@@2_NB		; std::_Num_base::is_specialized
PUBLIC	?tinyness_before@_Num_base@std@@2_NB		; std::_Num_base::tinyness_before
PUBLIC	?traps@_Num_base@std@@2_NB			; std::_Num_base::traps
PUBLIC	?round_style@_Num_base@std@@2W4float_round_style@2@B ; std::_Num_base::round_style
PUBLIC	?digits@_Num_base@std@@2HB			; std::_Num_base::digits
PUBLIC	?digits10@_Num_base@std@@2HB			; std::_Num_base::digits10
PUBLIC	?max_digits10@_Num_base@std@@2HB		; std::_Num_base::max_digits10
PUBLIC	?max_exponent@_Num_base@std@@2HB		; std::_Num_base::max_exponent
PUBLIC	?max_exponent10@_Num_base@std@@2HB		; std::_Num_base::max_exponent10
PUBLIC	?min_exponent@_Num_base@std@@2HB		; std::_Num_base::min_exponent
PUBLIC	??_C@_03PCBIACNO@an2?$AA@			; `string'
PUBLIC	??_C@_04NKLDBECG@an24?$AA@			; `string'
PUBLIC	?min_exponent10@_Num_base@std@@2HB		; std::_Num_base::min_exponent10
PUBLIC	??_C@_04FGLDPHIB@c130?$AA@			; `string'
PUBLIC	??_C@_04HEDHDHAF@il76?$AA@			; `string'
PUBLIC	??_C@_02EMABMJMJ@y8?$AA@			; `string'
PUBLIC	?radix@_Num_base@std@@2HB			; std::_Num_base::radix
PUBLIC	??_C@_03KHMOAJNB@a10?$AA@			; `string'
PUBLIC	??_C@_03MJCIDIBA@f4g?$AA@			; `string'
PUBLIC	??_C@_05NIABIBOH@fb111?$AA@			; `string'
PUBLIC	??_C@_04OMHPNIGA@il28?$AA@			; `string'
PUBLIC	??_C@_05HPGMAJJE@mig27?$AA@			; `string'
PUBLIC	??_C@_04FOJADBBL@su25?$AA@			; `string'
PUBLIC	??_C@_04PINBODCG@ah64?$AA@			; `string'
PUBLIC	??_C@_05NDGEPKLN@ah64d?$AA@			; `string'
PUBLIC	??_C@_04KJEDMPFA@ka50?$AA@			; `string'
PUBLIC	??_C@_04ICJEMBJO@mi24?$AA@			; `string'
PUBLIC	??_C@_03KAMHKBAN@a50?$AA@			; `string'
PUBLIC	??_C@_02LKMJEKBG@e3?$AA@			; `string'
PUBLIC	??_C@_04BAIJOIMC@b52g?$AA@			; `string'
PUBLIC	??_C@_04MFNLAAJB@tu16?$AA@			; `string'
PUBLIC	??_C@_05KLBFFFIJ@ef111?$AA@			; `string'
PUBLIC	??_C@_04DILMACGB@f14a?$AA@			; `string'
PUBLIC	??_C@_04LEIAKNE@f15c?$AA@			; `string'
PUBLIC	??_C@_03PLBOFKJC@f4e?$AA@			; `string'
PUBLIC	??_C@_03PKNMDAKF@f5e?$AA@			; `string'
PUBLIC	??_C@_05ODKJJKED@mig19?$AA@			; `string'
PUBLIC	??_C@_05CJDGKOBC@mig21?$AA@			; `string'
PUBLIC	??_C@_05BLAAMMJA@mig23?$AA@			; `string'
PUBLIC	??_C@_05ENFKGLBG@mig25?$AA@			; `string'
PUBLIC	??_C@_05OBOPCEBK@mig29?$AA@			; `string'
PUBLIC	??_C@_04GMKGFDJJ@su27?$AA@			; `string'
PUBLIC	??_C@_04NCJGDKFI@f117?$AA@			; `string'
PUBLIC	??_C@_04FNBCKNFC@f15e?$AA@			; `string'
PUBLIC	??_C@_04JAOLEIN@f16c?$AA@			; `string'
PUBLIC	??_C@_04DBKGPLAF@f18a?$AA@			; `string'
PUBLIC	??_C@_04EMNBAPEA@f18d?$AA@			; `string'
PUBLIC	?is_bounded@_Num_int_base@std@@2_NB		; std::_Num_int_base::is_bounded
PUBLIC	??_C@_05KKDNEIKF@md500?$AA@			; `string'
PUBLIC	??_C@_05PCMBMNEH@oh58d?$AA@			; `string'
PUBLIC	??_C@_04OKLEBKIL@il78?$AA@			; `string'
PUBLIC	?is_exact@_Num_int_base@std@@2_NB		; std::_Num_int_base::is_exact
PUBLIC	??_C@_04EEDKPAH@kc10?$AA@			; `string'
PUBLIC	??_C@_05DOBHKKOD@kc135?$AA@			; `string'
PUBLIC	??_C@_05HMLDDOPL@tu16n?$AA@			; `string'
PUBLIC	?is_integer@_Num_int_base@std@@2_NB		; std::_Num_int_base::is_integer
PUBLIC	??_C@_04KKLIDHOL@ch47?$AA@			; `string'
PUBLIC	??_C@_04CIKKHBDP@uh1n?$AA@			; `string'
PUBLIC	??_C@_05IEPDJIOE@uh60l?$AA@			; `string'
PUBLIC	?is_modulo@_Num_int_base@std@@2_NB		; std::_Num_int_base::is_modulo
PUBLIC	??_C@_0M@DODAJCBD@chinese_t80?$AA@		; `string'
PUBLIC	??_C@_0M@EDEHGGFG@chinese_t85?$AA@		; `string'
PUBLIC	?is_specialized@_Num_int_base@std@@2_NB		; std::_Num_int_base::is_specialized
PUBLIC	??_C@_0M@DPPCPICE@chinese_t90?$AA@		; `string'
PUBLIC	??_C@_0M@JGNABIBD@chinese_sa6?$AA@		; `string'
PUBLIC	??_C@_0N@KFCBPOJD@chinese_zu23?$AA@		; `string'
PUBLIC	?radix@_Num_int_base@std@@2HB			; std::_Num_int_base::radix
PUBLIC	??_C@_0L@EMLLFGBD@chinese_hq?$AA@		; `string'
PUBLIC	??_C@_0M@BIJDLFIB@chinese_inf?$AA@		; `string'
PUBLIC	??_C@_0N@BDMJCCIG@chinese_mech?$AA@		; `string'
PUBLIC	??_C@_0L@EFNDCLMD@chinese_sp?$AA@		; `string'
PUBLIC	??_C@_0M@LAOPLHKJ@chinese_art?$AA@		; `string'
PUBLIC	??_C@_08KBMHKHHP@dprk_aaa?$AA@			; `string'
PUBLIC	??_C@_08MKEBDGPM@dprk_sa2?$AA@			; `string'
PUBLIC	??_C@_08NDFKAHLN@dprk_sa3?$AA@			; `string'
PUBLIC	??_C@_08IFAAKADL@dprk_sa5?$AA@			; `string'
PUBLIC	??_C@_0P@KNOHCIAC@dprk_airmobile?$AA@		; `string'
PUBLIC	?has_denorm@_Num_float_base@std@@2W4float_denorm_style@2@B ; std::_Num_float_base::has_denorm
PUBLIC	??_C@_08HDGCBOOO@dprk_t55?$AA@			; `string'
PUBLIC	??_C@_08DOGFDGHA@dprk_t62?$AA@			; `string'
PUBLIC	??_C@_07GJJCHJLB@dprk_hq?$AA@			; `string'
PUBLIC	?has_denorm_loss@_Num_float_base@std@@2_NB	; std::_Num_float_base::has_denorm_loss
PUBLIC	?SIMDIRTYDATA_INTERVAL@FalconEntity@@2KB	; FalconEntity::SIMDIRTYDATA_INTERVAL
PUBLIC	??_C@_08CAGOFOGK@dprk_inf?$AA@			; `string'
PUBLIC	??_C@_09BGNEKAJH@dprk_bmp1?$AA@			; `string'
PUBLIC	?CMPDIRTYDATA_INTERVAL@FalconEntity@@2KB	; FalconEntity::CMPDIRTYDATA_INTERVAL
PUBLIC	??_C@_09DNPJPDFE@dprk_bmp2?$AA@			; `string'
PUBLIC	?has_infinity@_Num_float_base@std@@2_NB		; std::_Num_float_base::has_infinity
PUBLIC	??_C@_09GFMKPJDJ@dprk_bm21?$AA@			; `string'
PUBLIC	??_C@_0L@PCBJIFDK@dprk_sp122?$AA@		; `string'
PUBLIC	??_C@_0L@PHFGJDLP@dprk_sp152?$AA@		; `string'
PUBLIC	?has_quiet_NaN@_Num_float_base@std@@2_NB	; std::_Num_float_base::has_quiet_NaN
PUBLIC	??_C@_09BALFFPAB@dprk_frog?$AA@			; `string'
PUBLIC	??_C@_09GKIMACGM@dprk_scud?$AA@			; `string'
PUBLIC	??_C@_0N@FOBFEEPM@dprk_tow_art?$AA@		; `string'
PUBLIC	?has_signaling_NaN@_Num_float_base@std@@2_NB	; std::_Num_float_base::has_signaling_NaN
PUBLIC	??_C@_07GHEPEGGD@rok_aaa?$AA@			; `string'
PUBLIC	??_C@_08EHGOHAHL@rok_hawk?$AA@			; `string'
PUBLIC	??_C@_08IGCFNKKO@rok_nike?$AA@			; `string'
PUBLIC	?is_bounded@_Num_float_base@std@@2_NB		; std::_Num_float_base::is_bounded
PUBLIC	??_C@_07CMJHPDJN@rok_m48?$AA@			; `string'
PUBLIC	??_C@_06ONKKNHIL@rok_hq?$AA@			; `string'
PUBLIC	??_C@_07OGOGLPHG@rok_inf?$AA@			; `string'
PUBLIC	?is_exact@_Num_float_base@std@@2_NB		; std::_Num_float_base::is_exact
PUBLIC	??_C@_0L@PGNMIHPL@rok_marine?$AA@		; `string'
PUBLIC	??_C@_08ECPGNGIH@rok_m113?$AA@			; `string'
PUBLIC	??_C@_06OEMCKKFL@rok_sp?$AA@			; `string'
PUBLIC	?is_iec559@_Num_float_base@std@@2_NB		; std::_Num_float_base::is_iec559
PUBLIC	??_C@_08KPBBFOPE@rok_m198?$AA@			; `string'
PUBLIC	??_C@_0M@NIMBGNOH@soviet_sa15?$AA@		; `string'
PUBLIC	??_C@_0L@NFLEGPEM@soviet_sa6?$AA@		; `string'
PUBLIC	?is_integer@_Num_float_base@std@@2_NB		; std::_Num_float_base::is_integer
PUBLIC	??_C@_0L@ELDHECMC@soviet_sa8?$AA@		; `string'
PUBLIC	??_C@_0L@LFKCCLOB@soviet_air?$AA@		; `string'
PUBLIC	??_C@_0L@EEDOMAPD@soviet_t72?$AA@		; `string'
PUBLIC	?is_modulo@_Num_float_base@std@@2_NB		; std::_Num_float_base::is_modulo
PUBLIC	??_C@_0L@HNFEOFEM@soviet_t80?$AA@		; `string'
PUBLIC	??_C@_0L@IDKEMCH@soviet_eng?$AA@		; `string'
PUBLIC	??_C@_09EBCFGDHL@soviet_hq?$AA@			; `string'
PUBLIC	?is_signed@_Num_float_base@std@@2_NB		; std::_Num_float_base::is_signed
PUBLIC	??_C@_0L@FLPHMCNO@soviet_inf?$AA@		; `string'
PUBLIC	??_C@_0O@NBJGKMNH@soviet_marine?$AA@		; `string'
PUBLIC	??_C@_0M@OIFOAKJE@soviet_mech?$AA@		; `string'
PUBLIC	?is_specialized@_Num_float_base@std@@2_NB	; std::_Num_float_base::is_specialized
PUBLIC	??_C@_0M@KGPLOMGF@soviet_scud?$AA@		; `string'
PUBLIC	??_C@_0N@JOAAOKLH@soviet_frog7?$AA@		; `string'
PUBLIC	??_C@_09EIENBOKL@soviet_sp?$AA@			; `string'
PUBLIC	?tinyness_before@_Num_float_base@std@@2_NB	; std::_Num_float_base::tinyness_before
PUBLIC	??_C@_0L@GILIIMGD@soviet_sup?$AA@		; `string'
PUBLIC	??_C@_0M@BICGPBGL@soveit_bm21?$AA@		; `string'
PUBLIC	??_C@_0M@NEMKODHF@soviet_bm24?$AA@		; `string'
PUBLIC	?traps@_Num_float_base@std@@2_NB		; std::_Num_float_base::traps
PUBLIC	??_C@_0O@CPJIFHDA@soviet_bm9a52?$AA@		; `string'
PUBLIC	??_C@_0L@PDILMAPG@soviet_art?$AA@		; `string'
PUBLIC	??_C@_0L@HHFOKCEB@us_patriot?$AA@		; `string'
PUBLIC	?round_style@_Num_float_base@std@@2W4float_round_style@2@B ; std::_Num_float_base::round_style
PUBLIC	??_C@_07KDFKKPKF@us_hawk?$AA@			; `string'
PUBLIC	??_C@_06DCKDIDMF@us_air?$AA@			; `string'
PUBLIC	??_C@_05LOJMBIAE@us_m1?$AA@			; `string'
PUBLIC	?radix@_Num_float_base@std@@2HB			; std::_Num_float_base::radix
PUBLIC	??_C@_06NNNKHIHH@us_m60?$AA@			; `string'
PUBLIC	??_C@_06PCNFNPPC@us_cav?$AA@			; `string'
PUBLIC	??_C@_06IPDLOEAD@us_eng?$AA@			; `string'
PUBLIC	??_C@_05EICOJFOK@us_hq?$AA@			; `string'
PUBLIC	??_C@_06NMPGGKPK@us_inf?$AA@			; `string'
PUBLIC	??_C@_08EEGOPPDC@us_lav25?$AA@			; `string'
PUBLIC	??_C@_05JFLBELMH@us_m2?$AA@			; `string'
PUBLIC	??_C@_07BNAAKCLK@us_mlrs?$AA@			; `string'
PUBLIC	??_C@_07FNOPILOE@us_m109?$AA@			; `string'
PUBLIC	??_C@_06OPLJCEEH@us_sup?$AA@			; `string'
PUBLIC	?is_signed@?$numeric_limits@D@std@@2_NB		; std::numeric_limits<char>::is_signed
PUBLIC	?digits@?$numeric_limits@D@std@@2HB		; std::numeric_limits<char>::digits
PUBLIC	?digits10@?$numeric_limits@D@std@@2HB		; std::numeric_limits<char>::digits10
PUBLIC	?is_signed@?$numeric_limits@_W@std@@2_NB	; std::numeric_limits<wchar_t>::is_signed
PUBLIC	?digits@?$numeric_limits@_W@std@@2HB		; std::numeric_limits<wchar_t>::digits
PUBLIC	?digits10@?$numeric_limits@_W@std@@2HB		; std::numeric_limits<wchar_t>::digits10
PUBLIC	?is_modulo@?$numeric_limits@_N@std@@2_NB	; std::numeric_limits<bool>::is_modulo
PUBLIC	?is_signed@?$numeric_limits@_N@std@@2_NB	; std::numeric_limits<bool>::is_signed
PUBLIC	?digits@?$numeric_limits@_N@std@@2HB		; std::numeric_limits<bool>::digits
PUBLIC	?digits10@?$numeric_limits@_N@std@@2HB		; std::numeric_limits<bool>::digits10
PUBLIC	?is_signed@?$numeric_limits@C@std@@2_NB		; std::numeric_limits<signed char>::is_signed
PUBLIC	?digits@?$numeric_limits@C@std@@2HB		; std::numeric_limits<signed char>::digits
PUBLIC	?digits10@?$numeric_limits@C@std@@2HB		; std::numeric_limits<signed char>::digits10
PUBLIC	?is_signed@?$numeric_limits@E@std@@2_NB		; std::numeric_limits<unsigned char>::is_signed
PUBLIC	?digits@?$numeric_limits@E@std@@2HB		; std::numeric_limits<unsigned char>::digits
PUBLIC	?digits10@?$numeric_limits@E@std@@2HB		; std::numeric_limits<unsigned char>::digits10
PUBLIC	?is_signed@?$numeric_limits@F@std@@2_NB		; std::numeric_limits<short>::is_signed
PUBLIC	?digits@?$numeric_limits@F@std@@2HB		; std::numeric_limits<short>::digits
PUBLIC	?digits10@?$numeric_limits@F@std@@2HB		; std::numeric_limits<short>::digits10
PUBLIC	?value@?$integral_constant@_N$0A@@std@@2_NB	; std::integral_constant<bool,0>::value
PUBLIC	?value@?$integral_constant@_N$00@std@@2_NB	; std::integral_constant<bool,1>::value
PUBLIC	?is_signed@?$numeric_limits@G@std@@2_NB		; std::numeric_limits<unsigned short>::is_signed
PUBLIC	?digits@?$numeric_limits@G@std@@2HB		; std::numeric_limits<unsigned short>::digits
PUBLIC	?digits10@?$numeric_limits@G@std@@2HB		; std::numeric_limits<unsigned short>::digits10
PUBLIC	?skipws@?$_Iosb@H@std@@2W4_Fmtflags@12@B	; std::_Iosb<int>::skipws
PUBLIC	?unitbuf@?$_Iosb@H@std@@2W4_Fmtflags@12@B	; std::_Iosb<int>::unitbuf
PUBLIC	?uppercase@?$_Iosb@H@std@@2W4_Fmtflags@12@B	; std::_Iosb<int>::uppercase
PUBLIC	?showbase@?$_Iosb@H@std@@2W4_Fmtflags@12@B	; std::_Iosb<int>::showbase
PUBLIC	?showpoint@?$_Iosb@H@std@@2W4_Fmtflags@12@B	; std::_Iosb<int>::showpoint
PUBLIC	?is_signed@?$numeric_limits@H@std@@2_NB		; std::numeric_limits<int>::is_signed
PUBLIC	?value@?$_Sizeof@HU_Nil@std@@U12@U12@U12@U12@U12@U12@@std@@2IB ; std::_Sizeof<int,std::_Nil,std::_Nil,std::_Nil,std::_Nil,std::_Nil,std::_Nil,std::_Nil>::value
PUBLIC	?showpos@?$_Iosb@H@std@@2W4_Fmtflags@12@B	; std::_Iosb<int>::showpos
PUBLIC	?digits@?$numeric_limits@H@std@@2HB		; std::numeric_limits<int>::digits
PUBLIC	?left@?$_Iosb@H@std@@2W4_Fmtflags@12@B		; std::_Iosb<int>::left
PUBLIC	?right@?$_Iosb@H@std@@2W4_Fmtflags@12@B		; std::_Iosb<int>::right
PUBLIC	?digits10@?$numeric_limits@H@std@@2HB		; std::numeric_limits<int>::digits10
PUBLIC	?internal@?$_Iosb@H@std@@2W4_Fmtflags@12@B	; std::_Iosb<int>::internal
PUBLIC	?dec@?$_Iosb@H@std@@2W4_Fmtflags@12@B		; std::_Iosb<int>::dec
PUBLIC	?oct@?$_Iosb@H@std@@2W4_Fmtflags@12@B		; std::_Iosb<int>::oct
PUBLIC	?hex@?$_Iosb@H@std@@2W4_Fmtflags@12@B		; std::_Iosb<int>::hex
PUBLIC	?scientific@?$_Iosb@H@std@@2W4_Fmtflags@12@B	; std::_Iosb<int>::scientific
PUBLIC	?fixed@?$_Iosb@H@std@@2W4_Fmtflags@12@B		; std::_Iosb<int>::fixed
PUBLIC	?hexfloat@?$_Iosb@H@std@@2W4_Fmtflags@12@B	; std::_Iosb<int>::hexfloat
PUBLIC	?boolalpha@?$_Iosb@H@std@@2W4_Fmtflags@12@B	; std::_Iosb<int>::boolalpha
PUBLIC	?_Stdio@?$_Iosb@H@std@@2W4_Fmtflags@12@B	; std::_Iosb<int>::_Stdio
PUBLIC	?adjustfield@?$_Iosb@H@std@@2W4_Fmtflags@12@B	; std::_Iosb<int>::adjustfield
PUBLIC	?is_signed@?$numeric_limits@I@std@@2_NB		; std::numeric_limits<unsigned int>::is_signed
PUBLIC	?basefield@?$_Iosb@H@std@@2W4_Fmtflags@12@B	; std::_Iosb<int>::basefield
PUBLIC	?digits@?$numeric_limits@I@std@@2HB		; std::numeric_limits<unsigned int>::digits
PUBLIC	?floatfield@?$_Iosb@H@std@@2W4_Fmtflags@12@B	; std::_Iosb<int>::floatfield
PUBLIC	?digits10@?$numeric_limits@I@std@@2HB		; std::numeric_limits<unsigned int>::digits10
PUBLIC	?goodbit@?$_Iosb@H@std@@2W4_Iostate@12@B	; std::_Iosb<int>::goodbit
PUBLIC	?eofbit@?$_Iosb@H@std@@2W4_Iostate@12@B		; std::_Iosb<int>::eofbit
PUBLIC	?failbit@?$_Iosb@H@std@@2W4_Iostate@12@B	; std::_Iosb<int>::failbit
PUBLIC	?badbit@?$_Iosb@H@std@@2W4_Iostate@12@B		; std::_Iosb<int>::badbit
PUBLIC	?_Hardfail@?$_Iosb@H@std@@2W4_Iostate@12@B	; std::_Iosb<int>::_Hardfail
PUBLIC	?in@?$_Iosb@H@std@@2W4_Openmode@12@B		; std::_Iosb<int>::in
PUBLIC	?out@?$_Iosb@H@std@@2W4_Openmode@12@B		; std::_Iosb<int>::out
PUBLIC	?ate@?$_Iosb@H@std@@2W4_Openmode@12@B		; std::_Iosb<int>::ate
PUBLIC	?app@?$_Iosb@H@std@@2W4_Openmode@12@B		; std::_Iosb<int>::app
PUBLIC	?is_signed@?$numeric_limits@J@std@@2_NB		; std::numeric_limits<long>::is_signed
PUBLIC	?trunc@?$_Iosb@H@std@@2W4_Openmode@12@B		; std::_Iosb<int>::trunc
PUBLIC	?digits@?$numeric_limits@J@std@@2HB		; std::numeric_limits<long>::digits
PUBLIC	?_Nocreate@?$_Iosb@H@std@@2W4_Openmode@12@B	; std::_Iosb<int>::_Nocreate
PUBLIC	?_Noreplace@?$_Iosb@H@std@@2W4_Openmode@12@B	; std::_Iosb<int>::_Noreplace
PUBLIC	?digits10@?$numeric_limits@J@std@@2HB		; std::numeric_limits<long>::digits10
PUBLIC	?binary@?$_Iosb@H@std@@2W4_Openmode@12@B	; std::_Iosb<int>::binary
PUBLIC	?beg@?$_Iosb@H@std@@2W4_Seekdir@12@B		; std::_Iosb<int>::beg
PUBLIC	?cur@?$_Iosb@H@std@@2W4_Seekdir@12@B		; std::_Iosb<int>::cur
PUBLIC	?end@?$_Iosb@H@std@@2W4_Seekdir@12@B		; std::_Iosb<int>::end
PUBLIC	?is_signed@?$numeric_limits@K@std@@2_NB		; std::numeric_limits<unsigned long>::is_signed
PUBLIC	?digits@?$numeric_limits@K@std@@2HB		; std::numeric_limits<unsigned long>::digits
PUBLIC	?digits10@?$numeric_limits@K@std@@2HB		; std::numeric_limits<unsigned long>::digits10
PUBLIC	?_Stream_err@failure@ios_base@std@@0W4io_errc@43@B ; std::ios_base::failure::_Stream_err
PUBLIC	?is_signed@?$numeric_limits@_J@std@@2_NB	; std::numeric_limits<__int64>::is_signed
PUBLIC	?digits@?$numeric_limits@_J@std@@2HB		; std::numeric_limits<__int64>::digits
PUBLIC	?digits10@?$numeric_limits@_J@std@@2HB		; std::numeric_limits<__int64>::digits10
PUBLIC	?is_signed@?$numeric_limits@_K@std@@2_NB	; std::numeric_limits<unsigned __int64>::is_signed
PUBLIC	?digits@?$numeric_limits@_K@std@@2HB		; std::numeric_limits<unsigned __int64>::digits
PUBLIC	?digits10@?$numeric_limits@_K@std@@2HB		; std::numeric_limits<unsigned __int64>::digits10
PUBLIC	?digits@?$numeric_limits@M@std@@2HB		; std::numeric_limits<float>::digits
PUBLIC	?digits10@?$numeric_limits@M@std@@2HB		; std::numeric_limits<float>::digits10
PUBLIC	?max_digits10@?$numeric_limits@M@std@@2HB	; std::numeric_limits<float>::max_digits10
PUBLIC	?max_exponent@?$numeric_limits@M@std@@2HB	; std::numeric_limits<float>::max_exponent
PUBLIC	?max_exponent10@?$numeric_limits@M@std@@2HB	; std::numeric_limits<float>::max_exponent10
PUBLIC	?min_exponent@?$numeric_limits@M@std@@2HB	; std::numeric_limits<float>::min_exponent
PUBLIC	?min_exponent10@?$numeric_limits@M@std@@2HB	; std::numeric_limits<float>::min_exponent10
PUBLIC	?value@?$integral_constant@I$0A@@std@@2IB	; std::integral_constant<unsigned int,0>::value
PUBLIC	?digits@?$numeric_limits@N@std@@2HB		; std::numeric_limits<double>::digits
PUBLIC	?digits10@?$numeric_limits@N@std@@2HB		; std::numeric_limits<double>::digits10
PUBLIC	?max_digits10@?$numeric_limits@N@std@@2HB	; std::numeric_limits<double>::max_digits10
PUBLIC	?max_exponent@?$numeric_limits@N@std@@2HB	; std::numeric_limits<double>::max_exponent
PUBLIC	?max_exponent10@?$numeric_limits@N@std@@2HB	; std::numeric_limits<double>::max_exponent10
PUBLIC	?min_exponent@?$numeric_limits@N@std@@2HB	; std::numeric_limits<double>::min_exponent
PUBLIC	?min_exponent10@?$numeric_limits@N@std@@2HB	; std::numeric_limits<double>::min_exponent10
PUBLIC	?digits@?$numeric_limits@O@std@@2HB		; std::numeric_limits<long double>::digits
PUBLIC	?digits10@?$numeric_limits@O@std@@2HB		; std::numeric_limits<long double>::digits10
PUBLIC	?max_digits10@?$numeric_limits@O@std@@2HB	; std::numeric_limits<long double>::max_digits10
PUBLIC	?max_exponent@?$numeric_limits@O@std@@2HB	; std::numeric_limits<long double>::max_exponent
PUBLIC	?max_exponent10@?$numeric_limits@O@std@@2HB	; std::numeric_limits<long double>::max_exponent10
PUBLIC	?min_exponent@?$numeric_limits@O@std@@2HB	; std::numeric_limits<long double>::min_exponent
PUBLIC	?min_exponent10@?$numeric_limits@O@std@@2HB	; std::numeric_limits<long double>::min_exponent10
PUBLIC	?collate@?$_Locbase@H@std@@2HB			; std::_Locbase<int>::collate
PUBLIC	?ctype@?$_Locbase@H@std@@2HB			; std::_Locbase<int>::ctype
PUBLIC	?monetary@?$_Locbase@H@std@@2HB			; std::_Locbase<int>::monetary
PUBLIC	?numeric@?$_Locbase@H@std@@2HB			; std::_Locbase<int>::numeric
PUBLIC	?time@?$_Locbase@H@std@@2HB			; std::_Locbase<int>::time
PUBLIC	?messages@?$_Locbase@H@std@@2HB			; std::_Locbase<int>::messages
PUBLIC	?all@?$_Locbase@H@std@@2HB			; std::_Locbase<int>::all
PUBLIC	?none@?$_Locbase@H@std@@2HB			; std::_Locbase<int>::none
PUBLIC	?start_time@instant_action@@1JA			; instant_action::start_time
PUBLIC	?start_x@instant_action@@1MA			; instant_action::start_x
PUBLIC	?start_y@instant_action@@1MA			; instant_action::start_y
PUBLIC	?player_flight@instant_action@@1PAVFlightClass@@A ; instant_action::player_flight
PUBLIC	?generic_skill@instant_action@@1HA		; instant_action::generic_skill
PUBLIC	?current_wave@instant_action@@1HA		; instant_action::current_wave
PUBLIC	?current_mode@instant_action@@1DA		; instant_action::current_mode
PUBLIC	?wave_time@instant_action@@1KA			; instant_action::wave_time
PUBLIC	?value@?$_Sizeof@U_Nil@std@@U12@U12@U12@U12@U12@U12@U12@@std@@2IB ; std::_Sizeof<std::_Nil,std::_Nil,std::_Nil,std::_Nil,std::_Nil,std::_Nil,std::_Nil,std::_Nil>::value
PUBLIC	?wave_created@instant_action@@1HA		; instant_action::wave_created
PUBLIC	?table_size@?$ctype@D@std@@2IB			; std::ctype<char>::table_size
_BSS	SEGMENT
?start_time@instant_action@@1JA DD 01H DUP (?)		; instant_action::start_time
?player_flight@instant_action@@1PAVFlightClass@@A DD 01H DUP (?) ; instant_action::player_flight
?generic_skill@instant_action@@1HA DD 01H DUP (?)	; instant_action::generic_skill
?current_wave@instant_action@@1HA DD 01H DUP (?)	; instant_action::current_wave
?wave_time@instant_action@@1KA DD 01H DUP (?)		; instant_action::wave_time
?wave_created@instant_action@@1HA DD 01H DUP (?)	; instant_action::wave_created
_BSS	ENDS
;	COMDAT ?table_size@?$ctype@D@std@@2IB
CONST	SEGMENT
?table_size@?$ctype@D@std@@2IB DD 0100H			; std::ctype<char>::table_size
CONST	ENDS
;	COMDAT ?value@?$_Sizeof@U_Nil@std@@U12@U12@U12@U12@U12@U12@U12@@std@@2IB
CONST	SEGMENT
?value@?$_Sizeof@U_Nil@std@@U12@U12@U12@U12@U12@U12@U12@@std@@2IB DD 00H ; std::_Sizeof<std::_Nil,std::_Nil,std::_Nil,std::_Nil,std::_Nil,std::_Nil,std::_Nil,std::_Nil>::value
CONST	ENDS
;	COMDAT ?none@?$_Locbase@H@std@@2HB
CONST	SEGMENT
?none@?$_Locbase@H@std@@2HB DD 00H			; std::_Locbase<int>::none
CONST	ENDS
;	COMDAT ?all@?$_Locbase@H@std@@2HB
CONST	SEGMENT
?all@?$_Locbase@H@std@@2HB DD 03fH			; std::_Locbase<int>::all
CONST	ENDS
;	COMDAT ?messages@?$_Locbase@H@std@@2HB
CONST	SEGMENT
?messages@?$_Locbase@H@std@@2HB DD 020H			; std::_Locbase<int>::messages
CONST	ENDS
;	COMDAT ?time@?$_Locbase@H@std@@2HB
CONST	SEGMENT
?time@?$_Locbase@H@std@@2HB DD 010H			; std::_Locbase<int>::time
CONST	ENDS
;	COMDAT ?numeric@?$_Locbase@H@std@@2HB
CONST	SEGMENT
?numeric@?$_Locbase@H@std@@2HB DD 08H			; std::_Locbase<int>::numeric
CONST	ENDS
;	COMDAT ?monetary@?$_Locbase@H@std@@2HB
CONST	SEGMENT
?monetary@?$_Locbase@H@std@@2HB DD 04H			; std::_Locbase<int>::monetary
CONST	ENDS
;	COMDAT ?ctype@?$_Locbase@H@std@@2HB
CONST	SEGMENT
?ctype@?$_Locbase@H@std@@2HB DD 02H			; std::_Locbase<int>::ctype
CONST	ENDS
;	COMDAT ?collate@?$_Locbase@H@std@@2HB
CONST	SEGMENT
?collate@?$_Locbase@H@std@@2HB DD 01H			; std::_Locbase<int>::collate
CONST	ENDS
;	COMDAT ?min_exponent10@?$numeric_limits@O@std@@2HB
CONST	SEGMENT
?min_exponent10@?$numeric_limits@O@std@@2HB DD 0fffffecdH ; std::numeric_limits<long double>::min_exponent10
CONST	ENDS
;	COMDAT ?min_exponent@?$numeric_limits@O@std@@2HB
CONST	SEGMENT
?min_exponent@?$numeric_limits@O@std@@2HB DD 0fffffc03H	; std::numeric_limits<long double>::min_exponent
CONST	ENDS
;	COMDAT ?max_exponent10@?$numeric_limits@O@std@@2HB
CONST	SEGMENT
?max_exponent10@?$numeric_limits@O@std@@2HB DD 0134H	; std::numeric_limits<long double>::max_exponent10
CONST	ENDS
;	COMDAT ?max_exponent@?$numeric_limits@O@std@@2HB
CONST	SEGMENT
?max_exponent@?$numeric_limits@O@std@@2HB DD 0400H	; std::numeric_limits<long double>::max_exponent
CONST	ENDS
;	COMDAT ?max_digits10@?$numeric_limits@O@std@@2HB
CONST	SEGMENT
?max_digits10@?$numeric_limits@O@std@@2HB DD 011H	; std::numeric_limits<long double>::max_digits10
CONST	ENDS
;	COMDAT ?digits10@?$numeric_limits@O@std@@2HB
CONST	SEGMENT
?digits10@?$numeric_limits@O@std@@2HB DD 0fH		; std::numeric_limits<long double>::digits10
CONST	ENDS
;	COMDAT ?digits@?$numeric_limits@O@std@@2HB
CONST	SEGMENT
?digits@?$numeric_limits@O@std@@2HB DD 035H		; std::numeric_limits<long double>::digits
CONST	ENDS
;	COMDAT ?min_exponent10@?$numeric_limits@N@std@@2HB
CONST	SEGMENT
?min_exponent10@?$numeric_limits@N@std@@2HB DD 0fffffecdH ; std::numeric_limits<double>::min_exponent10
CONST	ENDS
;	COMDAT ?min_exponent@?$numeric_limits@N@std@@2HB
CONST	SEGMENT
?min_exponent@?$numeric_limits@N@std@@2HB DD 0fffffc03H	; std::numeric_limits<double>::min_exponent
CONST	ENDS
;	COMDAT ?max_exponent10@?$numeric_limits@N@std@@2HB
CONST	SEGMENT
?max_exponent10@?$numeric_limits@N@std@@2HB DD 0134H	; std::numeric_limits<double>::max_exponent10
CONST	ENDS
;	COMDAT ?max_exponent@?$numeric_limits@N@std@@2HB
CONST	SEGMENT
?max_exponent@?$numeric_limits@N@std@@2HB DD 0400H	; std::numeric_limits<double>::max_exponent
CONST	ENDS
;	COMDAT ?max_digits10@?$numeric_limits@N@std@@2HB
CONST	SEGMENT
?max_digits10@?$numeric_limits@N@std@@2HB DD 011H	; std::numeric_limits<double>::max_digits10
CONST	ENDS
;	COMDAT ?digits10@?$numeric_limits@N@std@@2HB
CONST	SEGMENT
?digits10@?$numeric_limits@N@std@@2HB DD 0fH		; std::numeric_limits<double>::digits10
CONST	ENDS
;	COMDAT ?digits@?$numeric_limits@N@std@@2HB
CONST	SEGMENT
?digits@?$numeric_limits@N@std@@2HB DD 035H		; std::numeric_limits<double>::digits
CONST	ENDS
;	COMDAT ?value@?$integral_constant@I$0A@@std@@2IB
CONST	SEGMENT
?value@?$integral_constant@I$0A@@std@@2IB DD 00H	; std::integral_constant<unsigned int,0>::value
CONST	ENDS
;	COMDAT ?min_exponent10@?$numeric_limits@M@std@@2HB
CONST	SEGMENT
?min_exponent10@?$numeric_limits@M@std@@2HB DD 0ffffffdbH ; std::numeric_limits<float>::min_exponent10
CONST	ENDS
;	COMDAT ?min_exponent@?$numeric_limits@M@std@@2HB
CONST	SEGMENT
?min_exponent@?$numeric_limits@M@std@@2HB DD 0ffffff83H	; std::numeric_limits<float>::min_exponent
CONST	ENDS
;	COMDAT ?max_exponent10@?$numeric_limits@M@std@@2HB
CONST	SEGMENT
?max_exponent10@?$numeric_limits@M@std@@2HB DD 026H	; std::numeric_limits<float>::max_exponent10
CONST	ENDS
;	COMDAT ?max_exponent@?$numeric_limits@M@std@@2HB
CONST	SEGMENT
?max_exponent@?$numeric_limits@M@std@@2HB DD 080H	; std::numeric_limits<float>::max_exponent
CONST	ENDS
;	COMDAT ?max_digits10@?$numeric_limits@M@std@@2HB
CONST	SEGMENT
?max_digits10@?$numeric_limits@M@std@@2HB DD 09H	; std::numeric_limits<float>::max_digits10
CONST	ENDS
;	COMDAT ?digits10@?$numeric_limits@M@std@@2HB
CONST	SEGMENT
?digits10@?$numeric_limits@M@std@@2HB DD 06H		; std::numeric_limits<float>::digits10
CONST	ENDS
;	COMDAT ?digits@?$numeric_limits@M@std@@2HB
CONST	SEGMENT
?digits@?$numeric_limits@M@std@@2HB DD 018H		; std::numeric_limits<float>::digits
CONST	ENDS
;	COMDAT ?digits10@?$numeric_limits@_K@std@@2HB
CONST	SEGMENT
?digits10@?$numeric_limits@_K@std@@2HB DD 013H		; std::numeric_limits<unsigned __int64>::digits10
CONST	ENDS
;	COMDAT ?digits@?$numeric_limits@_K@std@@2HB
CONST	SEGMENT
?digits@?$numeric_limits@_K@std@@2HB DD 040H		; std::numeric_limits<unsigned __int64>::digits
CONST	ENDS
;	COMDAT ?is_signed@?$numeric_limits@_K@std@@2_NB
CONST	SEGMENT
?is_signed@?$numeric_limits@_K@std@@2_NB DB 00H		; std::numeric_limits<unsigned __int64>::is_signed
CONST	ENDS
;	COMDAT ?digits10@?$numeric_limits@_J@std@@2HB
CONST	SEGMENT
?digits10@?$numeric_limits@_J@std@@2HB DD 012H		; std::numeric_limits<__int64>::digits10
CONST	ENDS
;	COMDAT ?digits@?$numeric_limits@_J@std@@2HB
CONST	SEGMENT
?digits@?$numeric_limits@_J@std@@2HB DD 03fH		; std::numeric_limits<__int64>::digits
CONST	ENDS
;	COMDAT ?is_signed@?$numeric_limits@_J@std@@2_NB
CONST	SEGMENT
?is_signed@?$numeric_limits@_J@std@@2_NB DB 01H		; std::numeric_limits<__int64>::is_signed
CONST	ENDS
;	COMDAT ?_Stream_err@failure@ios_base@std@@0W4io_errc@43@B
CONST	SEGMENT
?_Stream_err@failure@ios_base@std@@0W4io_errc@43@B DD 01H ; std::ios_base::failure::_Stream_err
CONST	ENDS
;	COMDAT ?digits10@?$numeric_limits@K@std@@2HB
CONST	SEGMENT
?digits10@?$numeric_limits@K@std@@2HB DD 09H		; std::numeric_limits<unsigned long>::digits10
CONST	ENDS
;	COMDAT ?digits@?$numeric_limits@K@std@@2HB
CONST	SEGMENT
?digits@?$numeric_limits@K@std@@2HB DD 020H		; std::numeric_limits<unsigned long>::digits
CONST	ENDS
;	COMDAT ?is_signed@?$numeric_limits@K@std@@2_NB
CONST	SEGMENT
?is_signed@?$numeric_limits@K@std@@2_NB DB 00H		; std::numeric_limits<unsigned long>::is_signed
CONST	ENDS
;	COMDAT ?end@?$_Iosb@H@std@@2W4_Seekdir@12@B
CONST	SEGMENT
?end@?$_Iosb@H@std@@2W4_Seekdir@12@B DD 02H		; std::_Iosb<int>::end
CONST	ENDS
;	COMDAT ?cur@?$_Iosb@H@std@@2W4_Seekdir@12@B
CONST	SEGMENT
?cur@?$_Iosb@H@std@@2W4_Seekdir@12@B DD 01H		; std::_Iosb<int>::cur
CONST	ENDS
;	COMDAT ?beg@?$_Iosb@H@std@@2W4_Seekdir@12@B
CONST	SEGMENT
?beg@?$_Iosb@H@std@@2W4_Seekdir@12@B DD 00H		; std::_Iosb<int>::beg
CONST	ENDS
;	COMDAT ?binary@?$_Iosb@H@std@@2W4_Openmode@12@B
CONST	SEGMENT
?binary@?$_Iosb@H@std@@2W4_Openmode@12@B DD 020H	; std::_Iosb<int>::binary
CONST	ENDS
;	COMDAT ?digits10@?$numeric_limits@J@std@@2HB
CONST	SEGMENT
?digits10@?$numeric_limits@J@std@@2HB DD 09H		; std::numeric_limits<long>::digits10
CONST	ENDS
;	COMDAT ?_Noreplace@?$_Iosb@H@std@@2W4_Openmode@12@B
CONST	SEGMENT
?_Noreplace@?$_Iosb@H@std@@2W4_Openmode@12@B DD 080H	; std::_Iosb<int>::_Noreplace
CONST	ENDS
;	COMDAT ?_Nocreate@?$_Iosb@H@std@@2W4_Openmode@12@B
CONST	SEGMENT
?_Nocreate@?$_Iosb@H@std@@2W4_Openmode@12@B DD 040H	; std::_Iosb<int>::_Nocreate
CONST	ENDS
;	COMDAT ?digits@?$numeric_limits@J@std@@2HB
CONST	SEGMENT
?digits@?$numeric_limits@J@std@@2HB DD 01fH		; std::numeric_limits<long>::digits
CONST	ENDS
;	COMDAT ?trunc@?$_Iosb@H@std@@2W4_Openmode@12@B
CONST	SEGMENT
?trunc@?$_Iosb@H@std@@2W4_Openmode@12@B DD 010H		; std::_Iosb<int>::trunc
CONST	ENDS
;	COMDAT ?is_signed@?$numeric_limits@J@std@@2_NB
CONST	SEGMENT
?is_signed@?$numeric_limits@J@std@@2_NB DB 01H		; std::numeric_limits<long>::is_signed
CONST	ENDS
;	COMDAT ?app@?$_Iosb@H@std@@2W4_Openmode@12@B
CONST	SEGMENT
?app@?$_Iosb@H@std@@2W4_Openmode@12@B DD 08H		; std::_Iosb<int>::app
CONST	ENDS
;	COMDAT ?ate@?$_Iosb@H@std@@2W4_Openmode@12@B
CONST	SEGMENT
?ate@?$_Iosb@H@std@@2W4_Openmode@12@B DD 04H		; std::_Iosb<int>::ate
CONST	ENDS
;	COMDAT ?out@?$_Iosb@H@std@@2W4_Openmode@12@B
CONST	SEGMENT
?out@?$_Iosb@H@std@@2W4_Openmode@12@B DD 02H		; std::_Iosb<int>::out
CONST	ENDS
;	COMDAT ?in@?$_Iosb@H@std@@2W4_Openmode@12@B
CONST	SEGMENT
?in@?$_Iosb@H@std@@2W4_Openmode@12@B DD 01H		; std::_Iosb<int>::in
CONST	ENDS
;	COMDAT ?_Hardfail@?$_Iosb@H@std@@2W4_Iostate@12@B
CONST	SEGMENT
?_Hardfail@?$_Iosb@H@std@@2W4_Iostate@12@B DD 010H	; std::_Iosb<int>::_Hardfail
CONST	ENDS
;	COMDAT ?badbit@?$_Iosb@H@std@@2W4_Iostate@12@B
CONST	SEGMENT
?badbit@?$_Iosb@H@std@@2W4_Iostate@12@B DD 04H		; std::_Iosb<int>::badbit
CONST	ENDS
;	COMDAT ?failbit@?$_Iosb@H@std@@2W4_Iostate@12@B
CONST	SEGMENT
?failbit@?$_Iosb@H@std@@2W4_Iostate@12@B DD 02H		; std::_Iosb<int>::failbit
CONST	ENDS
;	COMDAT ?eofbit@?$_Iosb@H@std@@2W4_Iostate@12@B
CONST	SEGMENT
?eofbit@?$_Iosb@H@std@@2W4_Iostate@12@B DD 01H		; std::_Iosb<int>::eofbit
CONST	ENDS
;	COMDAT ?goodbit@?$_Iosb@H@std@@2W4_Iostate@12@B
CONST	SEGMENT
?goodbit@?$_Iosb@H@std@@2W4_Iostate@12@B DD 00H		; std::_Iosb<int>::goodbit
CONST	ENDS
;	COMDAT ?digits10@?$numeric_limits@I@std@@2HB
CONST	SEGMENT
?digits10@?$numeric_limits@I@std@@2HB DD 09H		; std::numeric_limits<unsigned int>::digits10
CONST	ENDS
;	COMDAT ?floatfield@?$_Iosb@H@std@@2W4_Fmtflags@12@B
CONST	SEGMENT
?floatfield@?$_Iosb@H@std@@2W4_Fmtflags@12@B DD 03000H	; std::_Iosb<int>::floatfield
CONST	ENDS
;	COMDAT ?digits@?$numeric_limits@I@std@@2HB
CONST	SEGMENT
?digits@?$numeric_limits@I@std@@2HB DD 020H		; std::numeric_limits<unsigned int>::digits
CONST	ENDS
;	COMDAT ?basefield@?$_Iosb@H@std@@2W4_Fmtflags@12@B
CONST	SEGMENT
?basefield@?$_Iosb@H@std@@2W4_Fmtflags@12@B DD 0e00H	; std::_Iosb<int>::basefield
CONST	ENDS
;	COMDAT ?is_signed@?$numeric_limits@I@std@@2_NB
CONST	SEGMENT
?is_signed@?$numeric_limits@I@std@@2_NB DB 00H		; std::numeric_limits<unsigned int>::is_signed
CONST	ENDS
;	COMDAT ?adjustfield@?$_Iosb@H@std@@2W4_Fmtflags@12@B
CONST	SEGMENT
?adjustfield@?$_Iosb@H@std@@2W4_Fmtflags@12@B DD 01c0H	; std::_Iosb<int>::adjustfield
CONST	ENDS
;	COMDAT ?_Stdio@?$_Iosb@H@std@@2W4_Fmtflags@12@B
CONST	SEGMENT
?_Stdio@?$_Iosb@H@std@@2W4_Fmtflags@12@B DD 08000H	; std::_Iosb<int>::_Stdio
CONST	ENDS
;	COMDAT ?boolalpha@?$_Iosb@H@std@@2W4_Fmtflags@12@B
CONST	SEGMENT
?boolalpha@?$_Iosb@H@std@@2W4_Fmtflags@12@B DD 04000H	; std::_Iosb<int>::boolalpha
CONST	ENDS
;	COMDAT ?hexfloat@?$_Iosb@H@std@@2W4_Fmtflags@12@B
CONST	SEGMENT
?hexfloat@?$_Iosb@H@std@@2W4_Fmtflags@12@B DD 03000H	; std::_Iosb<int>::hexfloat
CONST	ENDS
;	COMDAT ?fixed@?$_Iosb@H@std@@2W4_Fmtflags@12@B
CONST	SEGMENT
?fixed@?$_Iosb@H@std@@2W4_Fmtflags@12@B DD 02000H	; std::_Iosb<int>::fixed
CONST	ENDS
;	COMDAT ?scientific@?$_Iosb@H@std@@2W4_Fmtflags@12@B
CONST	SEGMENT
?scientific@?$_Iosb@H@std@@2W4_Fmtflags@12@B DD 01000H	; std::_Iosb<int>::scientific
CONST	ENDS
;	COMDAT ?hex@?$_Iosb@H@std@@2W4_Fmtflags@12@B
CONST	SEGMENT
?hex@?$_Iosb@H@std@@2W4_Fmtflags@12@B DD 0800H		; std::_Iosb<int>::hex
CONST	ENDS
;	COMDAT ?oct@?$_Iosb@H@std@@2W4_Fmtflags@12@B
CONST	SEGMENT
?oct@?$_Iosb@H@std@@2W4_Fmtflags@12@B DD 0400H		; std::_Iosb<int>::oct
CONST	ENDS
;	COMDAT ?dec@?$_Iosb@H@std@@2W4_Fmtflags@12@B
CONST	SEGMENT
?dec@?$_Iosb@H@std@@2W4_Fmtflags@12@B DD 0200H		; std::_Iosb<int>::dec
CONST	ENDS
;	COMDAT ?internal@?$_Iosb@H@std@@2W4_Fmtflags@12@B
CONST	SEGMENT
?internal@?$_Iosb@H@std@@2W4_Fmtflags@12@B DD 0100H	; std::_Iosb<int>::internal
CONST	ENDS
;	COMDAT ?digits10@?$numeric_limits@H@std@@2HB
CONST	SEGMENT
?digits10@?$numeric_limits@H@std@@2HB DD 09H		; std::numeric_limits<int>::digits10
CONST	ENDS
;	COMDAT ?right@?$_Iosb@H@std@@2W4_Fmtflags@12@B
CONST	SEGMENT
?right@?$_Iosb@H@std@@2W4_Fmtflags@12@B DD 080H		; std::_Iosb<int>::right
CONST	ENDS
;	COMDAT ?left@?$_Iosb@H@std@@2W4_Fmtflags@12@B
CONST	SEGMENT
?left@?$_Iosb@H@std@@2W4_Fmtflags@12@B DD 040H		; std::_Iosb<int>::left
CONST	ENDS
;	COMDAT ?digits@?$numeric_limits@H@std@@2HB
CONST	SEGMENT
?digits@?$numeric_limits@H@std@@2HB DD 01fH		; std::numeric_limits<int>::digits
CONST	ENDS
;	COMDAT ?showpos@?$_Iosb@H@std@@2W4_Fmtflags@12@B
CONST	SEGMENT
?showpos@?$_Iosb@H@std@@2W4_Fmtflags@12@B DD 020H	; std::_Iosb<int>::showpos
CONST	ENDS
;	COMDAT ?value@?$_Sizeof@HU_Nil@std@@U12@U12@U12@U12@U12@U12@@std@@2IB
CONST	SEGMENT
?value@?$_Sizeof@HU_Nil@std@@U12@U12@U12@U12@U12@U12@@std@@2IB DD 01H ; std::_Sizeof<int,std::_Nil,std::_Nil,std::_Nil,std::_Nil,std::_Nil,std::_Nil,std::_Nil>::value
CONST	ENDS
;	COMDAT ?is_signed@?$numeric_limits@H@std@@2_NB
CONST	SEGMENT
?is_signed@?$numeric_limits@H@std@@2_NB DB 01H		; std::numeric_limits<int>::is_signed
CONST	ENDS
;	COMDAT ?showpoint@?$_Iosb@H@std@@2W4_Fmtflags@12@B
CONST	SEGMENT
?showpoint@?$_Iosb@H@std@@2W4_Fmtflags@12@B DD 010H	; std::_Iosb<int>::showpoint
CONST	ENDS
;	COMDAT ?showbase@?$_Iosb@H@std@@2W4_Fmtflags@12@B
CONST	SEGMENT
?showbase@?$_Iosb@H@std@@2W4_Fmtflags@12@B DD 08H	; std::_Iosb<int>::showbase
CONST	ENDS
;	COMDAT ?uppercase@?$_Iosb@H@std@@2W4_Fmtflags@12@B
CONST	SEGMENT
?uppercase@?$_Iosb@H@std@@2W4_Fmtflags@12@B DD 04H	; std::_Iosb<int>::uppercase
CONST	ENDS
;	COMDAT ?unitbuf@?$_Iosb@H@std@@2W4_Fmtflags@12@B
CONST	SEGMENT
?unitbuf@?$_Iosb@H@std@@2W4_Fmtflags@12@B DD 02H	; std::_Iosb<int>::unitbuf
CONST	ENDS
;	COMDAT ?skipws@?$_Iosb@H@std@@2W4_Fmtflags@12@B
CONST	SEGMENT
?skipws@?$_Iosb@H@std@@2W4_Fmtflags@12@B DD 01H		; std::_Iosb<int>::skipws
CONST	ENDS
;	COMDAT ?digits10@?$numeric_limits@G@std@@2HB
CONST	SEGMENT
?digits10@?$numeric_limits@G@std@@2HB DD 04H		; std::numeric_limits<unsigned short>::digits10
CONST	ENDS
;	COMDAT ?digits@?$numeric_limits@G@std@@2HB
CONST	SEGMENT
?digits@?$numeric_limits@G@std@@2HB DD 010H		; std::numeric_limits<unsigned short>::digits
CONST	ENDS
;	COMDAT ?is_signed@?$numeric_limits@G@std@@2_NB
CONST	SEGMENT
?is_signed@?$numeric_limits@G@std@@2_NB DB 00H		; std::numeric_limits<unsigned short>::is_signed
CONST	ENDS
;	COMDAT ?value@?$integral_constant@_N$00@std@@2_NB
CONST	SEGMENT
?value@?$integral_constant@_N$00@std@@2_NB DB 01H	; std::integral_constant<bool,1>::value
CONST	ENDS
;	COMDAT ?value@?$integral_constant@_N$0A@@std@@2_NB
CONST	SEGMENT
?value@?$integral_constant@_N$0A@@std@@2_NB DB 00H	; std::integral_constant<bool,0>::value
CONST	ENDS
;	COMDAT ?digits10@?$numeric_limits@F@std@@2HB
CONST	SEGMENT
?digits10@?$numeric_limits@F@std@@2HB DD 04H		; std::numeric_limits<short>::digits10
CONST	ENDS
;	COMDAT ?digits@?$numeric_limits@F@std@@2HB
CONST	SEGMENT
?digits@?$numeric_limits@F@std@@2HB DD 0fH		; std::numeric_limits<short>::digits
CONST	ENDS
;	COMDAT ?is_signed@?$numeric_limits@F@std@@2_NB
CONST	SEGMENT
?is_signed@?$numeric_limits@F@std@@2_NB DB 01H		; std::numeric_limits<short>::is_signed
CONST	ENDS
;	COMDAT ?digits10@?$numeric_limits@E@std@@2HB
CONST	SEGMENT
?digits10@?$numeric_limits@E@std@@2HB DD 02H		; std::numeric_limits<unsigned char>::digits10
CONST	ENDS
;	COMDAT ?digits@?$numeric_limits@E@std@@2HB
CONST	SEGMENT
?digits@?$numeric_limits@E@std@@2HB DD 08H		; std::numeric_limits<unsigned char>::digits
CONST	ENDS
;	COMDAT ?is_signed@?$numeric_limits@E@std@@2_NB
CONST	SEGMENT
?is_signed@?$numeric_limits@E@std@@2_NB DB 00H		; std::numeric_limits<unsigned char>::is_signed
CONST	ENDS
CONST	SEGMENT
_L_2	DD	03f317218r			; 0.693147
_NEAR_CLIP DD	03f800000r			; 1
_groundStuff DD	041H
	DD	041200000r			; 10
	DD	044H
	DD	041200000r			; 10
	DD	03fH
	DD	041200000r			; 10
	DD	03dH
	DD	041700000r			; 15
	DD	045H
	DD	041200000r			; 10
	DD	047H
	DD	041700000r			; 15
	DD	048H
	DD	041200000r			; 10
	DD	038H
	DD	041200000r			; 10
	DD	042H
	DD	041200000r			; 10
	DD	046H
	DD	041200000r			; 10
	DD	039H
	DD	041a00000r			; 20
	DD	03eH
	DD	041700000r			; 15
	DD	040H
	DD	040e00000r			; 7
	DD	043H
	DD	041200000r			; 10
	DD	03bH
	DD	042200000r			; 40
	DD	057H
	DD	041700000r			; 15
	DD	03aH
	DD	041700000r			; 15
	DD	064H
	DD	041200000r			; 10
	DD	055H
	DD	041400000r			; 12
	DD	05eH
	DD	041200000r			; 10
	DD	032H
	DD	041200000r			; 10
	DD	031H
	DD	041f00000r			; 30
	DD	058H
	DD	041200000r			; 10
	DD	053H
	DD	041200000r			; 10
CONST	ENDS
;	COMDAT ?digits10@?$numeric_limits@C@std@@2HB
CONST	SEGMENT
?digits10@?$numeric_limits@C@std@@2HB DD 02H		; std::numeric_limits<signed char>::digits10
CONST	ENDS
;	COMDAT ?digits@?$numeric_limits@C@std@@2HB
CONST	SEGMENT
?digits@?$numeric_limits@C@std@@2HB DD 07H		; std::numeric_limits<signed char>::digits
CONST	ENDS
;	COMDAT ?is_signed@?$numeric_limits@C@std@@2_NB
CONST	SEGMENT
?is_signed@?$numeric_limits@C@std@@2_NB DB 01H		; std::numeric_limits<signed char>::is_signed
CONST	ENDS
;	COMDAT ?digits10@?$numeric_limits@_N@std@@2HB
CONST	SEGMENT
?digits10@?$numeric_limits@_N@std@@2HB DD 00H		; std::numeric_limits<bool>::digits10
CONST	ENDS
;	COMDAT ?digits@?$numeric_limits@_N@std@@2HB
CONST	SEGMENT
?digits@?$numeric_limits@_N@std@@2HB DD 01H		; std::numeric_limits<bool>::digits
CONST	ENDS
;	COMDAT ?is_signed@?$numeric_limits@_N@std@@2_NB
CONST	SEGMENT
?is_signed@?$numeric_limits@_N@std@@2_NB DB 00H		; std::numeric_limits<bool>::is_signed
CONST	ENDS
;	COMDAT ?is_modulo@?$numeric_limits@_N@std@@2_NB
CONST	SEGMENT
?is_modulo@?$numeric_limits@_N@std@@2_NB DB 00H		; std::numeric_limits<bool>::is_modulo
CONST	ENDS
;	COMDAT ?digits10@?$numeric_limits@_W@std@@2HB
CONST	SEGMENT
?digits10@?$numeric_limits@_W@std@@2HB DD 04H		; std::numeric_limits<wchar_t>::digits10
CONST	ENDS
;	COMDAT ?digits@?$numeric_limits@_W@std@@2HB
CONST	SEGMENT
?digits@?$numeric_limits@_W@std@@2HB DD 010H		; std::numeric_limits<wchar_t>::digits
CONST	ENDS
;	COMDAT ?is_signed@?$numeric_limits@_W@std@@2_NB
CONST	SEGMENT
?is_signed@?$numeric_limits@_W@std@@2_NB DB 00H		; std::numeric_limits<wchar_t>::is_signed
CONST	ENDS
;	COMDAT ?digits10@?$numeric_limits@D@std@@2HB
CONST	SEGMENT
?digits10@?$numeric_limits@D@std@@2HB DD 02H		; std::numeric_limits<char>::digits10
CONST	ENDS
;	COMDAT ?digits@?$numeric_limits@D@std@@2HB
CONST	SEGMENT
?digits@?$numeric_limits@D@std@@2HB DD 07H		; std::numeric_limits<char>::digits
CONST	ENDS
;	COMDAT ?is_signed@?$numeric_limits@D@std@@2_NB
CONST	SEGMENT
?is_signed@?$numeric_limits@D@std@@2_NB DB 01H		; std::numeric_limits<char>::is_signed
CONST	ENDS
;	COMDAT ??_C@_06OPLJCEEH@us_sup?$AA@
CONST	SEGMENT
??_C@_06OPLJCEEH@us_sup?$AA@ DB 'us_sup', 00H		; `string'
CONST	ENDS
;	COMDAT ??_C@_07FNOPILOE@us_m109?$AA@
CONST	SEGMENT
??_C@_07FNOPILOE@us_m109?$AA@ DB 'us_m109', 00H		; `string'
CONST	ENDS
;	COMDAT ??_C@_07BNAAKCLK@us_mlrs?$AA@
CONST	SEGMENT
??_C@_07BNAAKCLK@us_mlrs?$AA@ DB 'us_mlrs', 00H		; `string'
CONST	ENDS
;	COMDAT ??_C@_05JFLBELMH@us_m2?$AA@
CONST	SEGMENT
??_C@_05JFLBELMH@us_m2?$AA@ DB 'us_m2', 00H		; `string'
CONST	ENDS
;	COMDAT ??_C@_08EEGOPPDC@us_lav25?$AA@
CONST	SEGMENT
??_C@_08EEGOPPDC@us_lav25?$AA@ DB 'us_lav25', 00H	; `string'
CONST	ENDS
;	COMDAT ??_C@_06NMPGGKPK@us_inf?$AA@
CONST	SEGMENT
??_C@_06NMPGGKPK@us_inf?$AA@ DB 'us_inf', 00H		; `string'
CONST	ENDS
;	COMDAT ??_C@_05EICOJFOK@us_hq?$AA@
CONST	SEGMENT
??_C@_05EICOJFOK@us_hq?$AA@ DB 'us_hq', 00H		; `string'
CONST	ENDS
;	COMDAT ??_C@_06IPDLOEAD@us_eng?$AA@
CONST	SEGMENT
??_C@_06IPDLOEAD@us_eng?$AA@ DB 'us_eng', 00H		; `string'
CONST	ENDS
;	COMDAT ??_C@_06PCNFNPPC@us_cav?$AA@
CONST	SEGMENT
??_C@_06PCNFNPPC@us_cav?$AA@ DB 'us_cav', 00H		; `string'
CONST	ENDS
;	COMDAT ??_C@_06NNNKHIHH@us_m60?$AA@
CONST	SEGMENT
??_C@_06NNNKHIHH@us_m60?$AA@ DB 'us_m60', 00H		; `string'
CONST	ENDS
;	COMDAT ?radix@_Num_float_base@std@@2HB
CONST	SEGMENT
?radix@_Num_float_base@std@@2HB DD 02H			; std::_Num_float_base::radix
CONST	ENDS
;	COMDAT ??_C@_05LOJMBIAE@us_m1?$AA@
CONST	SEGMENT
??_C@_05LOJMBIAE@us_m1?$AA@ DB 'us_m1', 00H		; `string'
CONST	ENDS
;	COMDAT ??_C@_06DCKDIDMF@us_air?$AA@
CONST	SEGMENT
??_C@_06DCKDIDMF@us_air?$AA@ DB 'us_air', 00H		; `string'
CONST	ENDS
;	COMDAT ??_C@_07KDFKKPKF@us_hawk?$AA@
CONST	SEGMENT
??_C@_07KDFKKPKF@us_hawk?$AA@ DB 'us_hawk', 00H		; `string'
CONST	ENDS
;	COMDAT ?round_style@_Num_float_base@std@@2W4float_round_style@2@B
CONST	SEGMENT
?round_style@_Num_float_base@std@@2W4float_round_style@2@B DD 01H ; std::_Num_float_base::round_style
CONST	ENDS
;	COMDAT ??_C@_0L@HHFOKCEB@us_patriot?$AA@
CONST	SEGMENT
??_C@_0L@HHFOKCEB@us_patriot?$AA@ DB 'us_patriot', 00H	; `string'
CONST	ENDS
;	COMDAT ??_C@_0L@PDILMAPG@soviet_art?$AA@
CONST	SEGMENT
??_C@_0L@PDILMAPG@soviet_art?$AA@ DB 'soviet_art', 00H	; `string'
CONST	ENDS
;	COMDAT ??_C@_0O@CPJIFHDA@soviet_bm9a52?$AA@
CONST	SEGMENT
??_C@_0O@CPJIFHDA@soviet_bm9a52?$AA@ DB 'soviet_bm9a52', 00H ; `string'
CONST	ENDS
;	COMDAT ?traps@_Num_float_base@std@@2_NB
CONST	SEGMENT
?traps@_Num_float_base@std@@2_NB DB 00H			; std::_Num_float_base::traps
CONST	ENDS
;	COMDAT ??_C@_0M@NEMKODHF@soviet_bm24?$AA@
CONST	SEGMENT
??_C@_0M@NEMKODHF@soviet_bm24?$AA@ DB 'soviet_bm24', 00H ; `string'
CONST	ENDS
;	COMDAT ??_C@_0M@BICGPBGL@soveit_bm21?$AA@
CONST	SEGMENT
??_C@_0M@BICGPBGL@soveit_bm21?$AA@ DB 'soveit_bm21', 00H ; `string'
CONST	ENDS
;	COMDAT ??_C@_0L@GILIIMGD@soviet_sup?$AA@
CONST	SEGMENT
??_C@_0L@GILIIMGD@soviet_sup?$AA@ DB 'soviet_sup', 00H	; `string'
CONST	ENDS
;	COMDAT ?tinyness_before@_Num_float_base@std@@2_NB
CONST	SEGMENT
?tinyness_before@_Num_float_base@std@@2_NB DB 01H	; std::_Num_float_base::tinyness_before
CONST	ENDS
;	COMDAT ??_C@_09EIENBOKL@soviet_sp?$AA@
CONST	SEGMENT
??_C@_09EIENBOKL@soviet_sp?$AA@ DB 'soviet_sp', 00H	; `string'
CONST	ENDS
;	COMDAT ??_C@_0N@JOAAOKLH@soviet_frog7?$AA@
CONST	SEGMENT
??_C@_0N@JOAAOKLH@soviet_frog7?$AA@ DB 'soviet_frog7', 00H ; `string'
CONST	ENDS
;	COMDAT ??_C@_0M@KGPLOMGF@soviet_scud?$AA@
CONST	SEGMENT
??_C@_0M@KGPLOMGF@soviet_scud?$AA@ DB 'soviet_scud', 00H ; `string'
CONST	ENDS
;	COMDAT ?is_specialized@_Num_float_base@std@@2_NB
CONST	SEGMENT
?is_specialized@_Num_float_base@std@@2_NB DB 01H	; std::_Num_float_base::is_specialized
CONST	ENDS
;	COMDAT ??_C@_0M@OIFOAKJE@soviet_mech?$AA@
CONST	SEGMENT
??_C@_0M@OIFOAKJE@soviet_mech?$AA@ DB 'soviet_mech', 00H ; `string'
CONST	ENDS
;	COMDAT ??_C@_0O@NBJGKMNH@soviet_marine?$AA@
CONST	SEGMENT
??_C@_0O@NBJGKMNH@soviet_marine?$AA@ DB 'soviet_marine', 00H ; `string'
CONST	ENDS
;	COMDAT ??_C@_0L@FLPHMCNO@soviet_inf?$AA@
CONST	SEGMENT
??_C@_0L@FLPHMCNO@soviet_inf?$AA@ DB 'soviet_inf', 00H	; `string'
CONST	ENDS
;	COMDAT ?is_signed@_Num_float_base@std@@2_NB
CONST	SEGMENT
?is_signed@_Num_float_base@std@@2_NB DB 01H		; std::_Num_float_base::is_signed
CONST	ENDS
;	COMDAT ??_C@_09EBCFGDHL@soviet_hq?$AA@
CONST	SEGMENT
??_C@_09EBCFGDHL@soviet_hq?$AA@ DB 'soviet_hq', 00H	; `string'
CONST	ENDS
;	COMDAT ??_C@_0L@IDKEMCH@soviet_eng?$AA@
CONST	SEGMENT
??_C@_0L@IDKEMCH@soviet_eng?$AA@ DB 'soviet_eng', 00H	; `string'
CONST	ENDS
;	COMDAT ??_C@_0L@HNFEOFEM@soviet_t80?$AA@
CONST	SEGMENT
??_C@_0L@HNFEOFEM@soviet_t80?$AA@ DB 'soviet_t80', 00H	; `string'
CONST	ENDS
;	COMDAT ?is_modulo@_Num_float_base@std@@2_NB
CONST	SEGMENT
?is_modulo@_Num_float_base@std@@2_NB DB 00H		; std::_Num_float_base::is_modulo
CONST	ENDS
;	COMDAT ??_C@_0L@EEDOMAPD@soviet_t72?$AA@
CONST	SEGMENT
??_C@_0L@EEDOMAPD@soviet_t72?$AA@ DB 'soviet_t72', 00H	; `string'
CONST	ENDS
;	COMDAT ??_C@_0L@LFKCCLOB@soviet_air?$AA@
CONST	SEGMENT
??_C@_0L@LFKCCLOB@soviet_air?$AA@ DB 'soviet_air', 00H	; `string'
CONST	ENDS
;	COMDAT ??_C@_0L@ELDHECMC@soviet_sa8?$AA@
CONST	SEGMENT
??_C@_0L@ELDHECMC@soviet_sa8?$AA@ DB 'soviet_sa8', 00H	; `string'
CONST	ENDS
;	COMDAT ?is_integer@_Num_float_base@std@@2_NB
CONST	SEGMENT
?is_integer@_Num_float_base@std@@2_NB DB 00H		; std::_Num_float_base::is_integer
CONST	ENDS
;	COMDAT ??_C@_0L@NFLEGPEM@soviet_sa6?$AA@
CONST	SEGMENT
??_C@_0L@NFLEGPEM@soviet_sa6?$AA@ DB 'soviet_sa6', 00H	; `string'
CONST	ENDS
;	COMDAT ??_C@_0M@NIMBGNOH@soviet_sa15?$AA@
CONST	SEGMENT
??_C@_0M@NIMBGNOH@soviet_sa15?$AA@ DB 'soviet_sa15', 00H ; `string'
CONST	ENDS
;	COMDAT ??_C@_08KPBBFOPE@rok_m198?$AA@
CONST	SEGMENT
??_C@_08KPBBFOPE@rok_m198?$AA@ DB 'rok_m198', 00H	; `string'
CONST	ENDS
;	COMDAT ?is_iec559@_Num_float_base@std@@2_NB
CONST	SEGMENT
?is_iec559@_Num_float_base@std@@2_NB DB 01H		; std::_Num_float_base::is_iec559
CONST	ENDS
;	COMDAT ??_C@_06OEMCKKFL@rok_sp?$AA@
CONST	SEGMENT
??_C@_06OEMCKKFL@rok_sp?$AA@ DB 'rok_sp', 00H		; `string'
CONST	ENDS
;	COMDAT ??_C@_08ECPGNGIH@rok_m113?$AA@
CONST	SEGMENT
??_C@_08ECPGNGIH@rok_m113?$AA@ DB 'rok_m113', 00H	; `string'
CONST	ENDS
;	COMDAT ??_C@_0L@PGNMIHPL@rok_marine?$AA@
CONST	SEGMENT
??_C@_0L@PGNMIHPL@rok_marine?$AA@ DB 'rok_marine', 00H	; `string'
CONST	ENDS
;	COMDAT ?is_exact@_Num_float_base@std@@2_NB
CONST	SEGMENT
?is_exact@_Num_float_base@std@@2_NB DB 00H		; std::_Num_float_base::is_exact
CONST	ENDS
;	COMDAT ??_C@_07OGOGLPHG@rok_inf?$AA@
CONST	SEGMENT
??_C@_07OGOGLPHG@rok_inf?$AA@ DB 'rok_inf', 00H		; `string'
CONST	ENDS
;	COMDAT ??_C@_06ONKKNHIL@rok_hq?$AA@
CONST	SEGMENT
??_C@_06ONKKNHIL@rok_hq?$AA@ DB 'rok_hq', 00H		; `string'
CONST	ENDS
;	COMDAT ??_C@_07CMJHPDJN@rok_m48?$AA@
CONST	SEGMENT
??_C@_07CMJHPDJN@rok_m48?$AA@ DB 'rok_m48', 00H		; `string'
CONST	ENDS
;	COMDAT ?is_bounded@_Num_float_base@std@@2_NB
CONST	SEGMENT
?is_bounded@_Num_float_base@std@@2_NB DB 01H		; std::_Num_float_base::is_bounded
CONST	ENDS
;	COMDAT ??_C@_08IGCFNKKO@rok_nike?$AA@
CONST	SEGMENT
??_C@_08IGCFNKKO@rok_nike?$AA@ DB 'rok_nike', 00H	; `string'
CONST	ENDS
;	COMDAT ??_C@_08EHGOHAHL@rok_hawk?$AA@
CONST	SEGMENT
??_C@_08EHGOHAHL@rok_hawk?$AA@ DB 'rok_hawk', 00H	; `string'
CONST	ENDS
;	COMDAT ??_C@_07GHEPEGGD@rok_aaa?$AA@
CONST	SEGMENT
??_C@_07GHEPEGGD@rok_aaa?$AA@ DB 'rok_aaa', 00H		; `string'
CONST	ENDS
;	COMDAT ?has_signaling_NaN@_Num_float_base@std@@2_NB
CONST	SEGMENT
?has_signaling_NaN@_Num_float_base@std@@2_NB DB 01H	; std::_Num_float_base::has_signaling_NaN
CONST	ENDS
;	COMDAT ??_C@_0N@FOBFEEPM@dprk_tow_art?$AA@
CONST	SEGMENT
??_C@_0N@FOBFEEPM@dprk_tow_art?$AA@ DB 'dprk_tow_art', 00H ; `string'
CONST	ENDS
;	COMDAT ??_C@_09GKIMACGM@dprk_scud?$AA@
CONST	SEGMENT
??_C@_09GKIMACGM@dprk_scud?$AA@ DB 'dprk_scud', 00H	; `string'
CONST	ENDS
;	COMDAT ??_C@_09BALFFPAB@dprk_frog?$AA@
CONST	SEGMENT
??_C@_09BALFFPAB@dprk_frog?$AA@ DB 'dprk_frog', 00H	; `string'
CONST	ENDS
;	COMDAT ?has_quiet_NaN@_Num_float_base@std@@2_NB
CONST	SEGMENT
?has_quiet_NaN@_Num_float_base@std@@2_NB DB 01H		; std::_Num_float_base::has_quiet_NaN
CONST	ENDS
;	COMDAT ??_C@_0L@PHFGJDLP@dprk_sp152?$AA@
CONST	SEGMENT
??_C@_0L@PHFGJDLP@dprk_sp152?$AA@ DB 'dprk_sp152', 00H	; `string'
CONST	ENDS
;	COMDAT ??_C@_0L@PCBJIFDK@dprk_sp122?$AA@
CONST	SEGMENT
??_C@_0L@PCBJIFDK@dprk_sp122?$AA@ DB 'dprk_sp122', 00H	; `string'
CONST	ENDS
;	COMDAT ??_C@_09GFMKPJDJ@dprk_bm21?$AA@
CONST	SEGMENT
??_C@_09GFMKPJDJ@dprk_bm21?$AA@ DB 'dprk_bm21', 00H	; `string'
CONST	ENDS
;	COMDAT ?has_infinity@_Num_float_base@std@@2_NB
CONST	SEGMENT
?has_infinity@_Num_float_base@std@@2_NB DB 01H		; std::_Num_float_base::has_infinity
CONST	ENDS
;	COMDAT ??_C@_09DNPJPDFE@dprk_bmp2?$AA@
CONST	SEGMENT
??_C@_09DNPJPDFE@dprk_bmp2?$AA@ DB 'dprk_bmp2', 00H	; `string'
CONST	ENDS
;	COMDAT ?CMPDIRTYDATA_INTERVAL@FalconEntity@@2KB
CONST	SEGMENT
?CMPDIRTYDATA_INTERVAL@FalconEntity@@2KB DD 0c8H	; FalconEntity::CMPDIRTYDATA_INTERVAL
CONST	ENDS
;	COMDAT ??_C@_09BGNEKAJH@dprk_bmp1?$AA@
CONST	SEGMENT
??_C@_09BGNEKAJH@dprk_bmp1?$AA@ DB 'dprk_bmp1', 00H	; `string'
CONST	ENDS
;	COMDAT ??_C@_08CAGOFOGK@dprk_inf?$AA@
CONST	SEGMENT
??_C@_08CAGOFOGK@dprk_inf?$AA@ DB 'dprk_inf', 00H	; `string'
CONST	ENDS
;	COMDAT ?SIMDIRTYDATA_INTERVAL@FalconEntity@@2KB
CONST	SEGMENT
?SIMDIRTYDATA_INTERVAL@FalconEntity@@2KB DD 0c8H	; FalconEntity::SIMDIRTYDATA_INTERVAL
CONST	ENDS
;	COMDAT ?has_denorm_loss@_Num_float_base@std@@2_NB
CONST	SEGMENT
?has_denorm_loss@_Num_float_base@std@@2_NB DB 01H	; std::_Num_float_base::has_denorm_loss
CONST	ENDS
;	COMDAT ??_C@_07GJJCHJLB@dprk_hq?$AA@
CONST	SEGMENT
??_C@_07GJJCHJLB@dprk_hq?$AA@ DB 'dprk_hq', 00H		; `string'
CONST	ENDS
;	COMDAT ??_C@_08DOGFDGHA@dprk_t62?$AA@
CONST	SEGMENT
??_C@_08DOGFDGHA@dprk_t62?$AA@ DB 'dprk_t62', 00H	; `string'
CONST	ENDS
;	COMDAT ??_C@_08HDGCBOOO@dprk_t55?$AA@
CONST	SEGMENT
??_C@_08HDGCBOOO@dprk_t55?$AA@ DB 'dprk_t55', 00H	; `string'
CONST	ENDS
;	COMDAT ?has_denorm@_Num_float_base@std@@2W4float_denorm_style@2@B
CONST	SEGMENT
?has_denorm@_Num_float_base@std@@2W4float_denorm_style@2@B DD 01H ; std::_Num_float_base::has_denorm
CONST	ENDS
;	COMDAT ??_C@_0P@KNOHCIAC@dprk_airmobile?$AA@
CONST	SEGMENT
??_C@_0P@KNOHCIAC@dprk_airmobile?$AA@ DB 'dprk_airmobile', 00H ; `string'
CONST	ENDS
;	COMDAT ??_C@_08IFAAKADL@dprk_sa5?$AA@
CONST	SEGMENT
??_C@_08IFAAKADL@dprk_sa5?$AA@ DB 'dprk_sa5', 00H	; `string'
CONST	ENDS
;	COMDAT ??_C@_08NDFKAHLN@dprk_sa3?$AA@
CONST	SEGMENT
??_C@_08NDFKAHLN@dprk_sa3?$AA@ DB 'dprk_sa3', 00H	; `string'
CONST	ENDS
;	COMDAT ??_C@_08MKEBDGPM@dprk_sa2?$AA@
CONST	SEGMENT
??_C@_08MKEBDGPM@dprk_sa2?$AA@ DB 'dprk_sa2', 00H	; `string'
CONST	ENDS
;	COMDAT ??_C@_08KBMHKHHP@dprk_aaa?$AA@
CONST	SEGMENT
??_C@_08KBMHKHHP@dprk_aaa?$AA@ DB 'dprk_aaa', 00H	; `string'
CONST	ENDS
;	COMDAT ??_C@_0M@LAOPLHKJ@chinese_art?$AA@
CONST	SEGMENT
??_C@_0M@LAOPLHKJ@chinese_art?$AA@ DB 'chinese_art', 00H ; `string'
CONST	ENDS
;	COMDAT ??_C@_0L@EFNDCLMD@chinese_sp?$AA@
CONST	SEGMENT
??_C@_0L@EFNDCLMD@chinese_sp?$AA@ DB 'chinese_sp', 00H	; `string'
CONST	ENDS
;	COMDAT ??_C@_0N@BDMJCCIG@chinese_mech?$AA@
CONST	SEGMENT
??_C@_0N@BDMJCCIG@chinese_mech?$AA@ DB 'chinese_mech', 00H ; `string'
CONST	ENDS
;	COMDAT ??_C@_0M@BIJDLFIB@chinese_inf?$AA@
CONST	SEGMENT
??_C@_0M@BIJDLFIB@chinese_inf?$AA@ DB 'chinese_inf', 00H ; `string'
CONST	ENDS
;	COMDAT ??_C@_0L@EMLLFGBD@chinese_hq?$AA@
CONST	SEGMENT
??_C@_0L@EMLLFGBD@chinese_hq?$AA@ DB 'chinese_hq', 00H	; `string'
CONST	ENDS
;	COMDAT ?radix@_Num_int_base@std@@2HB
CONST	SEGMENT
?radix@_Num_int_base@std@@2HB DD 02H			; std::_Num_int_base::radix
CONST	ENDS
;	COMDAT ??_C@_0N@KFCBPOJD@chinese_zu23?$AA@
CONST	SEGMENT
??_C@_0N@KFCBPOJD@chinese_zu23?$AA@ DB 'chinese_zu23', 00H ; `string'
CONST	ENDS
;	COMDAT ??_C@_0M@JGNABIBD@chinese_sa6?$AA@
CONST	SEGMENT
??_C@_0M@JGNABIBD@chinese_sa6?$AA@ DB 'chinese_sa6', 00H ; `string'
CONST	ENDS
;	COMDAT ??_C@_0M@DPPCPICE@chinese_t90?$AA@
CONST	SEGMENT
??_C@_0M@DPPCPICE@chinese_t90?$AA@ DB 'chinese_t90', 00H ; `string'
CONST	ENDS
;	COMDAT ?is_specialized@_Num_int_base@std@@2_NB
CONST	SEGMENT
?is_specialized@_Num_int_base@std@@2_NB DB 01H		; std::_Num_int_base::is_specialized
CONST	ENDS
;	COMDAT ??_C@_0M@EDEHGGFG@chinese_t85?$AA@
CONST	SEGMENT
??_C@_0M@EDEHGGFG@chinese_t85?$AA@ DB 'chinese_t85', 00H ; `string'
CONST	ENDS
;	COMDAT ??_C@_0M@DODAJCBD@chinese_t80?$AA@
CONST	SEGMENT
??_C@_0M@DODAJCBD@chinese_t80?$AA@ DB 'chinese_t80', 00H ; `string'
CONST	ENDS
;	COMDAT ?is_modulo@_Num_int_base@std@@2_NB
CONST	SEGMENT
?is_modulo@_Num_int_base@std@@2_NB DB 01H		; std::_Num_int_base::is_modulo
CONST	ENDS
;	COMDAT ??_C@_05IEPDJIOE@uh60l?$AA@
CONST	SEGMENT
??_C@_05IEPDJIOE@uh60l?$AA@ DB 'uh60l', 00H		; `string'
CONST	ENDS
;	COMDAT ??_C@_04CIKKHBDP@uh1n?$AA@
CONST	SEGMENT
??_C@_04CIKKHBDP@uh1n?$AA@ DB 'uh1n', 00H		; `string'
CONST	ENDS
;	COMDAT ??_C@_04KKLIDHOL@ch47?$AA@
CONST	SEGMENT
??_C@_04KKLIDHOL@ch47?$AA@ DB 'ch47', 00H		; `string'
CONST	ENDS
;	COMDAT ?is_integer@_Num_int_base@std@@2_NB
CONST	SEGMENT
?is_integer@_Num_int_base@std@@2_NB DB 01H		; std::_Num_int_base::is_integer
CONST	ENDS
;	COMDAT ??_C@_05HMLDDOPL@tu16n?$AA@
CONST	SEGMENT
??_C@_05HMLDDOPL@tu16n?$AA@ DB 'tu16n', 00H		; `string'
CONST	ENDS
;	COMDAT ??_C@_05DOBHKKOD@kc135?$AA@
CONST	SEGMENT
??_C@_05DOBHKKOD@kc135?$AA@ DB 'kc135', 00H		; `string'
CONST	ENDS
;	COMDAT ??_C@_04EEDKPAH@kc10?$AA@
CONST	SEGMENT
??_C@_04EEDKPAH@kc10?$AA@ DB 'kc10', 00H		; `string'
CONST	ENDS
;	COMDAT ?is_exact@_Num_int_base@std@@2_NB
CONST	SEGMENT
?is_exact@_Num_int_base@std@@2_NB DB 01H		; std::_Num_int_base::is_exact
CONST	ENDS
;	COMDAT ??_C@_04OKLEBKIL@il78?$AA@
CONST	SEGMENT
??_C@_04OKLEBKIL@il78?$AA@ DB 'il78', 00H		; `string'
CONST	ENDS
;	COMDAT ??_C@_05PCMBMNEH@oh58d?$AA@
CONST	SEGMENT
??_C@_05PCMBMNEH@oh58d?$AA@ DB 'oh58d', 00H		; `string'
CONST	ENDS
;	COMDAT ??_C@_05KKDNEIKF@md500?$AA@
CONST	SEGMENT
??_C@_05KKDNEIKF@md500?$AA@ DB 'md500', 00H		; `string'
CONST	ENDS
;	COMDAT ?is_bounded@_Num_int_base@std@@2_NB
CONST	SEGMENT
?is_bounded@_Num_int_base@std@@2_NB DB 01H		; std::_Num_int_base::is_bounded
CONST	ENDS
;	COMDAT ??_C@_04EMNBAPEA@f18d?$AA@
CONST	SEGMENT
??_C@_04EMNBAPEA@f18d?$AA@ DB 'f18d', 00H		; `string'
CONST	ENDS
;	COMDAT ??_C@_04DBKGPLAF@f18a?$AA@
CONST	SEGMENT
??_C@_04DBKGPLAF@f18a?$AA@ DB 'f18a', 00H		; `string'
CONST	ENDS
;	COMDAT ??_C@_04JAOLEIN@f16c?$AA@
CONST	SEGMENT
??_C@_04JAOLEIN@f16c?$AA@ DB 'f16c', 00H		; `string'
CONST	ENDS
;	COMDAT ??_C@_04FNBCKNFC@f15e?$AA@
CONST	SEGMENT
??_C@_04FNBCKNFC@f15e?$AA@ DB 'f15e', 00H		; `string'
CONST	ENDS
;	COMDAT ??_C@_04NCJGDKFI@f117?$AA@
CONST	SEGMENT
??_C@_04NCJGDKFI@f117?$AA@ DB 'f117', 00H		; `string'
CONST	ENDS
;	COMDAT ??_C@_04GMKGFDJJ@su27?$AA@
CONST	SEGMENT
??_C@_04GMKGFDJJ@su27?$AA@ DB 'su27', 00H		; `string'
CONST	ENDS
;	COMDAT ??_C@_05OBOPCEBK@mig29?$AA@
CONST	SEGMENT
??_C@_05OBOPCEBK@mig29?$AA@ DB 'mig29', 00H		; `string'
CONST	ENDS
;	COMDAT ??_C@_05ENFKGLBG@mig25?$AA@
CONST	SEGMENT
??_C@_05ENFKGLBG@mig25?$AA@ DB 'mig25', 00H		; `string'
CONST	ENDS
;	COMDAT ??_C@_05BLAAMMJA@mig23?$AA@
CONST	SEGMENT
??_C@_05BLAAMMJA@mig23?$AA@ DB 'mig23', 00H		; `string'
CONST	ENDS
;	COMDAT ??_C@_05CJDGKOBC@mig21?$AA@
CONST	SEGMENT
??_C@_05CJDGKOBC@mig21?$AA@ DB 'mig21', 00H		; `string'
CONST	ENDS
;	COMDAT ??_C@_05ODKJJKED@mig19?$AA@
CONST	SEGMENT
??_C@_05ODKJJKED@mig19?$AA@ DB 'mig19', 00H		; `string'
CONST	ENDS
;	COMDAT ??_C@_03PKNMDAKF@f5e?$AA@
CONST	SEGMENT
??_C@_03PKNMDAKF@f5e?$AA@ DB 'f5e', 00H			; `string'
CONST	ENDS
;	COMDAT ??_C@_03PLBOFKJC@f4e?$AA@
CONST	SEGMENT
??_C@_03PLBOFKJC@f4e?$AA@ DB 'f4e', 00H			; `string'
CONST	ENDS
;	COMDAT ??_C@_04LEIAKNE@f15c?$AA@
CONST	SEGMENT
??_C@_04LEIAKNE@f15c?$AA@ DB 'f15c', 00H		; `string'
CONST	ENDS
;	COMDAT ??_C@_04DILMACGB@f14a?$AA@
CONST	SEGMENT
??_C@_04DILMACGB@f14a?$AA@ DB 'f14a', 00H		; `string'
CONST	ENDS
;	COMDAT ??_C@_05KLBFFFIJ@ef111?$AA@
CONST	SEGMENT
??_C@_05KLBFFFIJ@ef111?$AA@ DB 'ef111', 00H		; `string'
CONST	ENDS
;	COMDAT ??_C@_04MFNLAAJB@tu16?$AA@
CONST	SEGMENT
??_C@_04MFNLAAJB@tu16?$AA@ DB 'tu16', 00H		; `string'
CONST	ENDS
;	COMDAT ??_C@_04BAIJOIMC@b52g?$AA@
CONST	SEGMENT
??_C@_04BAIJOIMC@b52g?$AA@ DB 'b52g', 00H		; `string'
CONST	ENDS
;	COMDAT ??_C@_02LKMJEKBG@e3?$AA@
CONST	SEGMENT
??_C@_02LKMJEKBG@e3?$AA@ DB 'e3', 00H			; `string'
CONST	ENDS
;	COMDAT ??_C@_03KAMHKBAN@a50?$AA@
CONST	SEGMENT
??_C@_03KAMHKBAN@a50?$AA@ DB 'a50', 00H			; `string'
CONST	ENDS
;	COMDAT ??_C@_04ICJEMBJO@mi24?$AA@
CONST	SEGMENT
??_C@_04ICJEMBJO@mi24?$AA@ DB 'mi24', 00H		; `string'
CONST	ENDS
;	COMDAT ??_C@_04KJEDMPFA@ka50?$AA@
CONST	SEGMENT
??_C@_04KJEDMPFA@ka50?$AA@ DB 'ka50', 00H		; `string'
CONST	ENDS
;	COMDAT ??_C@_05NDGEPKLN@ah64d?$AA@
CONST	SEGMENT
??_C@_05NDGEPKLN@ah64d?$AA@ DB 'ah64d', 00H		; `string'
CONST	ENDS
;	COMDAT ??_C@_04PINBODCG@ah64?$AA@
CONST	SEGMENT
??_C@_04PINBODCG@ah64?$AA@ DB 'ah64', 00H		; `string'
CONST	ENDS
;	COMDAT ??_C@_04FOJADBBL@su25?$AA@
CONST	SEGMENT
??_C@_04FOJADBBL@su25?$AA@ DB 'su25', 00H		; `string'
CONST	ENDS
;	COMDAT ??_C@_05HPGMAJJE@mig27?$AA@
CONST	SEGMENT
??_C@_05HPGMAJJE@mig27?$AA@ DB 'mig27', 00H		; `string'
CONST	ENDS
;	COMDAT ??_C@_04OMHPNIGA@il28?$AA@
CONST	SEGMENT
??_C@_04OMHPNIGA@il28?$AA@ DB 'il28', 00H		; `string'
CONST	ENDS
;	COMDAT ??_C@_05NIABIBOH@fb111?$AA@
CONST	SEGMENT
??_C@_05NIABIBOH@fb111?$AA@ DB 'fb111', 00H		; `string'
CONST	ENDS
;	COMDAT ??_C@_03MJCIDIBA@f4g?$AA@
CONST	SEGMENT
??_C@_03MJCIDIBA@f4g?$AA@ DB 'f4g', 00H			; `string'
CONST	ENDS
;	COMDAT ??_C@_03KHMOAJNB@a10?$AA@
CONST	SEGMENT
??_C@_03KHMOAJNB@a10?$AA@ DB 'a10', 00H			; `string'
CONST	ENDS
;	COMDAT ?radix@_Num_base@std@@2HB
CONST	SEGMENT
?radix@_Num_base@std@@2HB DD 00H			; std::_Num_base::radix
CONST	ENDS
;	COMDAT ??_C@_02EMABMJMJ@y8?$AA@
CONST	SEGMENT
??_C@_02EMABMJMJ@y8?$AA@ DB 'y8', 00H			; `string'
CONST	ENDS
;	COMDAT ??_C@_04HEDHDHAF@il76?$AA@
CONST	SEGMENT
??_C@_04HEDHDHAF@il76?$AA@ DB 'il76', 00H		; `string'
CONST	ENDS
;	COMDAT ??_C@_04FGLDPHIB@c130?$AA@
CONST	SEGMENT
??_C@_04FGLDPHIB@c130?$AA@ DB 'c130', 00H		; `string'
CONST	ENDS
;	COMDAT ?min_exponent10@_Num_base@std@@2HB
CONST	SEGMENT
?min_exponent10@_Num_base@std@@2HB DD 00H		; std::_Num_base::min_exponent10
CONST	ENDS
;	COMDAT ??_C@_04NKLDBECG@an24?$AA@
CONST	SEGMENT
??_C@_04NKLDBECG@an24?$AA@ DB 'an24', 00H		; `string'
CONST	ENDS
;	COMDAT ??_C@_03PCBIACNO@an2?$AA@
CONST	SEGMENT
??_C@_03PCBIACNO@an2?$AA@ DB 'an2', 00H			; `string'
CONST	ENDS
_DATA	SEGMENT
_ia_air_objects DD FLAT:??_C@_03PCBIACNO@an2?$AA@
	DD	01H
	DB	01H
	DB	03H
	ORG $+2
	DD	FLAT:??_C@_04NKLDBECG@an24?$AA@
	DD	02H
	DB	01H
	DB	0eH
	ORG $+2
	DD	FLAT:??_C@_04FGLDPHIB@c130?$AA@
	DD	03H
	DB	01H
	DB	07H
	ORG $+2
	DD	FLAT:??_C@_04HEDHDHAF@il76?$AA@
	DD	04H
	DB	01H
	DB	0bH
	ORG $+2
	DD	FLAT:??_C@_02EMABMJMJ@y8?$AA@
	DD	05H
	DB	01H
	DB	0dH
	ORG $+2
	DD	FLAT:??_C@_03KHMOAJNB@a10?$AA@
	DD	06H
	DB	03H
	DB	01H
	ORG $+2
	DD	FLAT:??_C@_03MJCIDIBA@f4g?$AA@
	DD	07H
	DB	03H
	DB	05H
	ORG $+2
	DD	FLAT:??_C@_05NIABIBOH@fb111?$AA@
	DD	08H
	DB	03H
	DB	06H
	ORG $+2
	DD	FLAT:??_C@_04OMHPNIGA@il28?$AA@
	DD	09H
	DB	03H
	DB	08H
	ORG $+2
	DD	FLAT:??_C@_05HPGMAJJE@mig27?$AA@
	DD	0aH
	DB	03H
	DB	09H
	ORG $+2
	DD	FLAT:??_C@_04FOJADBBL@su25?$AA@
	DD	0bH
	DB	03H
	DB	0cH
	ORG $+2
	DD	FLAT:??_C@_04PINBODCG@ah64?$AA@
	DD	0cH
	DB	04H
	DB	02H
	ORG $+2
	DD	FLAT:??_C@_05NDGEPKLN@ah64d?$AA@
	DD	0dH
	DB	04H
	DB	03H
	ORG $+2
	DD	FLAT:??_C@_04KJEDMPFA@ka50?$AA@
	DD	0eH
	DB	04H
	DB	05H
	ORG $+2
	DD	FLAT:??_C@_04ICJEMBJO@mi24?$AA@
	DD	0fH
	DB	04H
	DB	06H
	ORG $+2
	DD	FLAT:??_C@_03KAMHKBAN@a50?$AA@
	DD	010H
	DB	05H
	DB	01H
	ORG $+2
	DD	FLAT:??_C@_02LKMJEKBG@e3?$AA@
	DD	011H
	DB	05H
	DB	03H
	ORG $+2
	DD	FLAT:??_C@_04BAIJOIMC@b52g?$AA@
	DD	012H
	DB	06H
	DB	03H
	ORG $+2
	DD	FLAT:??_C@_04MFNLAAJB@tu16?$AA@
	DD	013H
	DB	06H
	DB	04H
	ORG $+2
	DD	FLAT:??_C@_05KLBFFFIJ@ef111?$AA@
	DD	014H
	DB	07H
	DB	02H
	ORG $+2
	DD	FLAT:??_C@_04DILMACGB@f14a?$AA@
	DD	015H
	DB	08H
	DB	02H
	ORG $+2
	DD	FLAT:??_C@_04LEIAKNE@f15c?$AA@
	DD	016H
	DB	08H
	DB	03H
	ORG $+2
	DD	FLAT:??_C@_03PLBOFKJC@f4e?$AA@
	DD	017H
	DB	08H
	DB	05H
	ORG $+2
	DD	FLAT:??_C@_03PKNMDAKF@f5e?$AA@
	DD	018H
	DB	08H
	DB	06H
	ORG $+2
	DD	FLAT:??_C@_05ODKJJKED@mig19?$AA@
	DD	019H
	DB	08H
	DB	0aH
	ORG $+2
	DD	FLAT:??_C@_05CJDGKOBC@mig21?$AA@
	DD	01aH
	DB	08H
	DB	0bH
	ORG $+2
	DD	FLAT:??_C@_05BLAAMMJA@mig23?$AA@
	DD	01bH
	DB	08H
	DB	0cH
	ORG $+2
	DD	FLAT:??_C@_05ENFKGLBG@mig25?$AA@
	DD	01cH
	DB	08H
	DB	0dH
	ORG $+2
	DD	FLAT:??_C@_05OBOPCEBK@mig29?$AA@
	DD	01dH
	DB	08H
	DB	0eH
	ORG $+2
	DD	FLAT:??_C@_04GMKGFDJJ@su27?$AA@
	DD	01eH
	DB	08H
	DB	01H
	ORG $+2
	DD	FLAT:??_C@_04NCJGDKFI@f117?$AA@
	DD	01fH
	DB	09H
	DB	01H
	ORG $+2
	DD	FLAT:??_C@_04FNBCKNFC@f15e?$AA@
	DD	020H
	DB	09H
	DB	02H
	ORG $+2
	DD	FLAT:??_C@_04JAOLEIN@f16c?$AA@
	DD	021H
	DB	09H
	DB	03H
	ORG $+2
	DD	FLAT:??_C@_04DBKGPLAF@f18a?$AA@
	DD	022H
	DB	09H
	DB	07H
	ORG $+2
	DD	FLAT:??_C@_04EMNBAPEA@f18d?$AA@
	DD	023H
	DB	09H
	DB	06H
	ORG $+2
	DD	FLAT:??_C@_05KKDNEIKF@md500?$AA@
	DD	024H
	DB	0cH
	DB	01H
	ORG $+2
	DD	FLAT:??_C@_05PCMBMNEH@oh58d?$AA@
	DD	025H
	DB	0cH
	DB	02H
	ORG $+2
	DD	FLAT:??_C@_04OKLEBKIL@il78?$AA@
	DD	026H
	DB	0dH
	DB	01H
	ORG $+2
	DD	FLAT:??_C@_04EEDKPAH@kc10?$AA@
	DD	027H
	DB	0dH
	DB	02H
	ORG $+2
	DD	FLAT:??_C@_05DOBHKKOD@kc135?$AA@
	DD	028H
	DB	0dH
	DB	04H
	ORG $+2
	DD	FLAT:??_C@_05HMLDDOPL@tu16n?$AA@
	DD	029H
	DB	0dH
	DB	05H
	ORG $+2
	DD	FLAT:??_C@_04KKLIDHOL@ch47?$AA@
	DD	02aH
	DB	0eH
	DB	02H
	ORG $+2
	DD	FLAT:??_C@_04CIKKHBDP@uh1n?$AA@
	DD	02bH
	DB	0eH
	DB	05H
	ORG $+2
	DD	FLAT:??_C@_05IEPDJIOE@uh60l?$AA@
	DD	02cH
	DB	0eH
	DB	06H
	ORG $+2
	DD	00H
	DD	00H
	DB	00H
	DB	00H
	ORG $+2
?start_x@instant_action@@1MA DD 04a11353cr	; 2.37909e+006 ; instant_action::start_x
_ia_grnd_objects DD FLAT:??_C@_0M@DODAJCBD@chinese_t80?$AA@
	DD	02eH
	DB	03H
	DB	02H
	ORG $+2
	DD	FLAT:??_C@_0M@EDEHGGFG@chinese_t85?$AA@
	DD	02fH
	DB	03H
	DB	03H
	ORG $+2
	DD	FLAT:??_C@_0M@DPPCPICE@chinese_t90?$AA@
	DD	030H
	DB	03H
	DB	04H
	ORG $+2
	DD	FLAT:??_C@_0M@JGNABIBD@chinese_sa6?$AA@
	DD	031H
	DB	01H
	DB	02H
	ORG $+2
	DD	FLAT:??_C@_0N@KFCBPOJD@chinese_zu23?$AA@
	DD	032H
	DB	01H
	DB	03H
	ORG $+2
	DD	FLAT:??_C@_0L@EMLLFGBD@chinese_hq?$AA@
	DD	033H
	DB	06H
	DB	02H
	ORG $+2
	DD	FLAT:??_C@_0M@BIJDLFIB@chinese_inf?$AA@
	DD	034H
	DB	07H
	DB	02H
	ORG $+2
	DD	FLAT:??_C@_0N@BDMJCCIG@chinese_mech?$AA@
	DD	035H
	DB	09H
	DB	02H
	ORG $+2
	DD	FLAT:??_C@_0L@EFNDCLMD@chinese_sp?$AA@
	DD	036H
	DB	0bH
	DB	02H
	ORG $+2
	DD	FLAT:??_C@_0M@LAOPLHKJ@chinese_art?$AA@
	DD	037H
	DB	0eH
	DB	02H
	ORG $+2
	DD	FLAT:??_C@_08KBMHKHHP@dprk_aaa?$AA@
	DD	038H
	DB	01H
	DB	01H
	ORG $+2
	DD	FLAT:??_C@_08MKEBDGPM@dprk_sa2?$AA@
	DD	039H
	DB	01H
	DB	04H
	ORG $+2
	DD	FLAT:??_C@_08NDFKAHLN@dprk_sa3?$AA@
	DD	03aH
	DB	01H
	DB	05H
	ORG $+2
	DD	FLAT:??_C@_08IFAAKADL@dprk_sa5?$AA@
	DD	03bH
	DB	01H
	DB	06H
	ORG $+2
	DD	FLAT:??_C@_0P@KNOHCIAC@dprk_airmobile?$AA@
	DD	03cH
	DB	02H
	DB	03H
	ORG $+2
	DD	FLAT:??_C@_08HDGCBOOO@dprk_t55?$AA@
	DD	03dH
	DB	03H
	DB	01H
	ORG $+2
	DD	FLAT:??_C@_08DOGFDGHA@dprk_t62?$AA@
	DD	03eH
	DB	03H
	DB	05H
	ORG $+2
	DD	FLAT:??_C@_07GJJCHJLB@dprk_hq?$AA@
	DD	03fH
	DB	06H
	DB	03H
	ORG $+2
	DD	FLAT:??_C@_08CAGOFOGK@dprk_inf?$AA@
	DD	040H
	DB	07H
	DB	03H
	ORG $+2
	DD	FLAT:??_C@_09BGNEKAJH@dprk_bmp1?$AA@
	DD	041H
	DB	09H
	DB	03H
	ORG $+2
	DD	FLAT:??_C@_09DNPJPDFE@dprk_bmp2?$AA@
	DD	042H
	DB	09H
	DB	06H
	ORG $+2
	DD	FLAT:??_C@_09GFMKPJDJ@dprk_bm21?$AA@
	DD	043H
	DB	0aH
	DB	01H
	ORG $+2
	DD	FLAT:??_C@_0L@PCBJIFDK@dprk_sp122?$AA@
	DD	044H
	DB	0bH
	DB	03H
	ORG $+2
	DD	FLAT:??_C@_0L@PHFGJDLP@dprk_sp152?$AA@
	DD	045H
	DB	0bH
	DB	01H
	ORG $+2
	DD	FLAT:??_C@_09BALFFPAB@dprk_frog?$AA@
	DD	046H
	DB	0cH
	DB	04H
	ORG $+2
	DD	FLAT:??_C@_09GKIMACGM@dprk_scud?$AA@
	DD	047H
	DB	0cH
	DB	01H
	ORG $+2
	DD	FLAT:??_C@_0N@FOBFEEPM@dprk_tow_art?$AA@
	DD	048H
	DB	0eH
	DB	01H
	ORG $+2
	DD	FLAT:??_C@_07GHEPEGGD@rok_aaa?$AA@
	DD	049H
	DB	01H
	DB	0eH
	ORG $+2
	DD	FLAT:??_C@_08EHGOHAHL@rok_hawk?$AA@
	DD	04aH
	DB	01H
	DB	08H
	ORG $+2
	DD	FLAT:??_C@_08IGCFNKKO@rok_nike?$AA@
	DD	04bH
	DB	01H
	DB	09H
	ORG $+2
	DD	FLAT:??_C@_07CMJHPDJN@rok_m48?$AA@
	DD	04cH
	DB	03H
	DB	06H
	ORG $+2
	DD	FLAT:??_C@_06ONKKNHIL@rok_hq?$AA@
	DD	04dH
	DB	06H
	DB	04H
	ORG $+2
	DD	FLAT:??_C@_07OGOGLPHG@rok_inf?$AA@
	DD	04eH
	DB	07H
	DB	04H
	ORG $+2
	DD	FLAT:??_C@_0L@PGNMIHPL@rok_marine?$AA@
	DD	04fH
	DB	08H
	DB	03H
	ORG $+2
	DD	FLAT:??_C@_08ECPGNGIH@rok_m113?$AA@
	DD	050H
	DB	09H
	DB	04H
	ORG $+2
	DD	FLAT:??_C@_06OEMCKKFL@rok_sp?$AA@
	DD	051H
	DB	0bH
	DB	04H
	ORG $+2
	DD	FLAT:??_C@_08KPBBFOPE@rok_m198?$AA@
	DD	052H
	DB	0eH
	DB	04H
	ORG $+2
	DD	FLAT:??_C@_0M@NIMBGNOH@soviet_sa15?$AA@
	DD	053H
	DB	01H
	DB	0aH
	ORG $+2
	DD	FLAT:??_C@_0L@NFLEGPEM@soviet_sa6?$AA@
	DD	054H
	DB	01H
	DB	0bH
	ORG $+2
	DD	FLAT:??_C@_0L@ELDHECMC@soviet_sa8?$AA@
	DD	055H
	DB	01H
	DB	0cH
	ORG $+2
	DD	FLAT:??_C@_0L@LFKCCLOB@soviet_air?$AA@
	DD	056H
	DB	02H
	DB	01H
	ORG $+2
	DD	FLAT:??_C@_0L@EEDOMAPD@soviet_t72?$AA@
	DD	057H
	DB	03H
	DB	07H
	ORG $+2
	DD	FLAT:??_C@_0L@HNFEOFEM@soviet_t80?$AA@
	DD	058H
	DB	03H
	DB	08H
	ORG $+2
	DD	FLAT:??_C@_0L@IDKEMCH@soviet_eng?$AA@
	DD	05aH
	DB	05H
	DB	02H
	ORG $+2
	DD	FLAT:??_C@_09EBCFGDHL@soviet_hq?$AA@
	DD	05bH
	DB	06H
	DB	05H
	ORG $+2
	DD	FLAT:??_C@_0L@FLPHMCNO@soviet_inf?$AA@
	DD	05cH
	DB	07H
	DB	05H
	ORG $+2
	DD	FLAT:??_C@_0O@NBJGKMNH@soviet_marine?$AA@
	DD	05dH
	DB	08H
	DB	02H
	ORG $+2
	DD	FLAT:??_C@_0M@OIFOAKJE@soviet_mech?$AA@
	DD	05eH
	DB	09H
	DB	05H
	ORG $+2
	DD	FLAT:??_C@_0M@KGPLOMGF@soviet_scud?$AA@
	DD	05fH
	DB	0cH
	DB	03H
	ORG $+2
	DD	FLAT:??_C@_0N@JOAAOKLH@soviet_frog7?$AA@
	DD	060H
	DB	0cH
	DB	02H
	ORG $+2
	DD	FLAT:??_C@_09EIENBOKL@soviet_sp?$AA@
	DD	061H
	DB	0bH
	DB	05H
	ORG $+2
	DD	FLAT:??_C@_0L@GILIIMGD@soviet_sup?$AA@
	DD	062H
	DB	0dH
	DB	02H
	ORG $+2
	DD	FLAT:??_C@_0M@BICGPBGL@soveit_bm21?$AA@
	DD	063H
	DB	0aH
	DB	02H
	ORG $+2
	DD	FLAT:??_C@_0M@NEMKODHF@soviet_bm24?$AA@
	DD	064H
	DB	0aH
	DB	03H
	ORG $+2
	DD	FLAT:??_C@_0O@CPJIFHDA@soviet_bm9a52?$AA@
	DD	065H
	DB	0aH
	DB	04H
	ORG $+2
	DD	FLAT:??_C@_0L@PDILMAPG@soviet_art?$AA@
	DD	066H
	DB	0eH
	DB	03H
	ORG $+2
	DD	FLAT:??_C@_0L@HHFOKCEB@us_patriot?$AA@
	DD	067H
	DB	01H
	DB	07H
	ORG $+2
	DD	FLAT:??_C@_07KDFKKPKF@us_hawk?$AA@
	DD	068H
	DB	01H
	DB	0dH
	ORG $+2
	DD	FLAT:??_C@_06DCKDIDMF@us_air?$AA@
	DD	069H
	DB	02H
	DB	02H
	ORG $+2
	DD	FLAT:??_C@_05LOJMBIAE@us_m1?$AA@
	DD	06aH
	DB	03H
	DB	0aH
	ORG $+2
	DD	FLAT:??_C@_06NNNKHIHH@us_m60?$AA@
	DD	06bH
	DB	03H
	DB	0bH
	ORG $+2
	DD	FLAT:??_C@_06PCNFNPPC@us_cav?$AA@
	DD	06cH
	DB	04H
	DB	01H
	ORG $+2
	DD	FLAT:??_C@_06IPDLOEAD@us_eng?$AA@
	DD	06dH
	DB	05H
	DB	01H
	ORG $+2
	DD	FLAT:??_C@_05EICOJFOK@us_hq?$AA@
	DD	06eH
	DB	06H
	DB	01H
	ORG $+2
	DD	FLAT:??_C@_06NMPGGKPK@us_inf?$AA@
	DD	06fH
	DB	07H
	DB	01H
	ORG $+2
	DD	FLAT:??_C@_08EEGOPPDC@us_lav25?$AA@
	DD	070H
	DB	08H
	DB	01H
	ORG $+2
	DD	FLAT:??_C@_05JFLBELMH@us_m2?$AA@
	DD	071H
	DB	09H
	DB	01H
	ORG $+2
	DD	FLAT:??_C@_07BNAAKCLK@us_mlrs?$AA@
	DD	072H
	DB	0aH
	DB	05H
	ORG $+2
	DD	FLAT:??_C@_07FNOPILOE@us_m109?$AA@
	DD	073H
	DB	0bH
	DB	06H
	ORG $+2
	DD	FLAT:??_C@_06OPLJCEEH@us_sup?$AA@
	DD	074H
	DB	0dH
	DB	01H
	ORG $+2
	DD	00H
	DD	00H
	DB	00H
	DB	00H
	ORG $+2
?start_y@instant_action@@1MA DD 049bf7968r	; 1.56856e+006 ; instant_action::start_y
_cloudPntList DD 0c5bcc000r			; -6040
	DD	0c4070000r			; -540
	DD	0c694ac00r			; -19030
	DD	0c6de1c00r			; -28430
	DD	0c4dfc000r			; -1790
	DD	046dcc800r			; 28260
	DD	047104200r			; 36930
	DD	045732000r			; 3890
	DD	04744ea00r			; 50410
	DD	045336000r			; 2870
	DD	0c4d48000r			; -1700
	DD	04736da00r			; 46810
	DD	0c763ee00r			; -58350
	DD	0c4d48000r			; -1700
	DD	0c64c1000r			; -13060
	DD	046f2bc00r			; 31070
	DD	045480000r			; 3200
	DD	0c7293800r			; -43320
	DD	0c7bdc400r			; -97160
	DD	0c4d48000r			; -1700
	DD	04576e000r			; 3950
	DD	0c792e000r			; -75200
	DD	0c4bb8000r			; -1500
	DD	047957400r			; 76520
	DD	04759ee00r			; 55790
	DD	0c5a1e000r			; -5180
	DD	0c7a24e00r			; -83100
	DD	0c7473800r			; -51000
	DD	0c3a00000r			; -320
	DD	0c7829100r			; -66850
	DD	047733400r			; 62260
	DD	0c3a00000r			; -320
	DD	047708200r			; 61570
	DD	0c7710e00r			; -61710
	DD	0c550c000r			; -3340
	DD	046fb7c00r			; 32190
	DD	0c7719a00r			; -61850
	DD	0c7483200r			; -51250
	DD	047543a00r			; 54330
	DD	0c5bcc000r			; -6040
	DD	0c7495400r			; -51540
	DD	0c694ac00r			; -19030
	DD	0c6a7a800r			; -21460
	DD	0c74b0200r			; -51970
	DD	0468e8000r			; 18240
	DD	047298800r			; 43400
	DD	0c74bf200r			; -52210
	DD	046bc7000r			; 24120
	DD	0c749f400r			; -51700
	DD	0c74bc000r			; -52160
	DD	046948400r			; 19010
	DD	0c605e800r			; -8570
	DD	0c7488200r			; -51330
	DD	0c74ca600r			; -52390
	DD	04731bc00r			; 45500
	DD	0c7509800r			; -53400
	DD	0c6725800r			; -15510
	DD	0c7719a00r			; -61850
	DD	0c7483200r			; -51250
	DD	047543a00r			; 54330
	DD	047553400r			; 54580
	DD	0c74ddc00r			; -52700
	DD	0479a5600r			; 79020
	DD	047a7e400r			; 85960
	DD	0c74c5600r			; -52310
	DD	0477d4800r			; 64840
	DD	0c7c44500r			; -100490
	DD	0c74d1400r			; -52500
	DD	047ac2600r			; 88140
	DD	0c7a1ae00r			; -82780
	DD	0c749ea00r			; -51690
	DD	0c7bce300r			; -96710
	DD	0c6126800r			; -9370
	DD	0c7495400r			; -51540
	DD	043cd0000r			; 410
	DD	0c6a7a800r			; -21460
	DD	0c74a8a00r			; -51850
	DD	0473fae00r			; 49070
	DD	0457c8000r			; 4040
	DD	0c74e4a00r			; -52810
	DD	047871e00r			; 69180
	DD	0c6cbc000r			; -26080
	DD	0c74bc000r			; -52160
	DD	046984400r			; 19490
	DD	0452fa000r			; 2810
	DD	0c7488200r			; -51330
	DD	0c7081800r			; -34840
	DD	0c7719a00r			; -61850
	DD	0c749d600r			; -51670
	DD	047b17600r			; 90860
	DD	047553400r			; 54580
	DD	0c74ddc00r			; -52700
	DD	0479a5600r			; 79020
	DD	047a7e400r			; 85960
	DD	0c74c5600r			; -52310
	DD	0477d4800r			; 64840
	DD	0c7c44500r			; -100490
	DD	0c74d1400r			; -52500
	DD	047ac2600r			; 88140
	DD	047c04e00r			; 98460
	DD	0c74d1400r			; -52500
	DD	0c732a200r			; -45730
	DD	0467b9000r			; 16100
	DD	0c7487800r			; -51320
	DD	0c749a400r			; -51620
	DD	047636c00r			; 58220
	DD	0c74e0400r			; -52740
	DD	0c760b000r			; -57520
	DD	0c6126800r			; -9370
	DD	0c4070000r			; -540
	DD	043cd0000r			; 410
	DD	0c4e60000r			; -1840
	DD	0c6a30c00r			; -20870
	DD	0470a6600r			; 35430
	DD	0c7230c00r			; -41740
	DD	046924000r			; 18720
	DD	04797d600r			; 77740
	DD	0460d9000r			; 9060
	DD	0c616c800r			; -9650
	DD	0c7921300r			; -74790
_lightningPosList DD 041300000r			; 11
	DD	000000000r			; 0
	DD	040e00000r			; 7
	DD	040a00000r			; 5
	DD	041100000r			; 9
	DD	041000000r			; 8
	DD	041000000r			; 8
	DD	041600000r			; 14
	DD	041800000r			; 16
	DD	041a00000r			; 20
	DD	041200000r			; 10
	DD	041c00000r			; 24
	DD	041300000r			; 11
	DD	041d80000r			; 27
	DD	040c00000r			; 6
	DD	041f00000r			; 30
	DD	040e00000r			; 7
	DD	042040000r			; 33
	DD	03f800000r			; 1
	DD	042180000r			; 38
	DD	040a00000r			; 5
	DD	042280000r			; 42
	DD	040a00000r			; 5
	DD	042340000r			; 45
	DD	041400000r			; 12
	DD	042400000r			; 48
	DD	041a00000r			; 20
	DD	042500000r			; 52
	DD	041a00000r			; 20
	DD	042680000r			; 58
	DD	041b80000r			; 23
	DD	042740000r			; 61
	DD	041b00000r			; 22
	DD	0427c0000r			; 63
	DD	041b00000r			; 22
	DD	042840000r			; 66
	DD	041c80000r			; 25
	DD	042880000r			; 68
	DD	041a00000r			; 20
	DD	0428c0000r			; 70
	DD	041c00000r			; 24
	DD	042960000r			; 75
	DD	041c00000r			; 24
	DD	0429a0000r			; 77
	DD	041f80000r			; 31
	DD	042a00000r			; 80
	DD	041f80000r			; 31
	DD	042a60000r			; 83
	DD	042040000r			; 33
	DD	042b00000r			; 88
	DD	041f80000r			; 31
	DD	042b80000r			; 92
	DD	0423c0000r			; 47
	DD	042ce0000r			; 103
	DD	042380000r			; 46
	DD	042d20000r			; 105
	DD	0423c0000r			; 47
	DD	042d60000r			; 107
	DD	042340000r			; 45
	DD	042e00000r			; 112
	DD	042400000r			; 48
	DD	042e40000r			; 114
	DD	042380000r			; 46
	DD	042ea0000r			; 117
	DD	0422c0000r			; 43
	DD	043000000r			; 128
?current_mode@instant_action@@1DA DB 066H		; instant_action::current_mode
_DATA	ENDS
;	COMDAT ?min_exponent@_Num_base@std@@2HB
CONST	SEGMENT
?min_exponent@_Num_base@std@@2HB DD 00H			; std::_Num_base::min_exponent
CONST	ENDS
;	COMDAT ?max_exponent10@_Num_base@std@@2HB
CONST	SEGMENT
?max_exponent10@_Num_base@std@@2HB DD 00H		; std::_Num_base::max_exponent10
CONST	ENDS
;	COMDAT ?max_exponent@_Num_base@std@@2HB
CONST	SEGMENT
?max_exponent@_Num_base@std@@2HB DD 00H			; std::_Num_base::max_exponent
CONST	ENDS
;	COMDAT ?max_digits10@_Num_base@std@@2HB
CONST	SEGMENT
?max_digits10@_Num_base@std@@2HB DD 00H			; std::_Num_base::max_digits10
CONST	ENDS
;	COMDAT ?digits10@_Num_base@std@@2HB
CONST	SEGMENT
?digits10@_Num_base@std@@2HB DD 00H			; std::_Num_base::digits10
CONST	ENDS
;	COMDAT ?digits@_Num_base@std@@2HB
CONST	SEGMENT
?digits@_Num_base@std@@2HB DD 00H			; std::_Num_base::digits
CONST	ENDS
;	COMDAT ?round_style@_Num_base@std@@2W4float_round_style@2@B
CONST	SEGMENT
?round_style@_Num_base@std@@2W4float_round_style@2@B DD 00H ; std::_Num_base::round_style
CONST	ENDS
;	COMDAT ?traps@_Num_base@std@@2_NB
CONST	SEGMENT
?traps@_Num_base@std@@2_NB DB 00H			; std::_Num_base::traps
CONST	ENDS
;	COMDAT ?tinyness_before@_Num_base@std@@2_NB
CONST	SEGMENT
?tinyness_before@_Num_base@std@@2_NB DB 00H		; std::_Num_base::tinyness_before
CONST	ENDS
;	COMDAT ?is_specialized@_Num_base@std@@2_NB
CONST	SEGMENT
?is_specialized@_Num_base@std@@2_NB DB 00H		; std::_Num_base::is_specialized
CONST	ENDS
;	COMDAT ?is_signed@_Num_base@std@@2_NB
CONST	SEGMENT
?is_signed@_Num_base@std@@2_NB DB 00H			; std::_Num_base::is_signed
CONST	ENDS
;	COMDAT ?is_modulo@_Num_base@std@@2_NB
CONST	SEGMENT
?is_modulo@_Num_base@std@@2_NB DB 00H			; std::_Num_base::is_modulo
CONST	ENDS
;	COMDAT ?is_integer@_Num_base@std@@2_NB
CONST	SEGMENT
?is_integer@_Num_base@std@@2_NB DB 00H			; std::_Num_base::is_integer
CONST	ENDS
;	COMDAT ?is_iec559@_Num_base@std@@2_NB
CONST	SEGMENT
?is_iec559@_Num_base@std@@2_NB DB 00H			; std::_Num_base::is_iec559
CONST	ENDS
;	COMDAT ?is_exact@_Num_base@std@@2_NB
CONST	SEGMENT
?is_exact@_Num_base@std@@2_NB DB 00H			; std::_Num_base::is_exact
CONST	ENDS
;	COMDAT ?is_bounded@_Num_base@std@@2_NB
CONST	SEGMENT
?is_bounded@_Num_base@std@@2_NB DB 00H			; std::_Num_base::is_bounded
CONST	ENDS
;	COMDAT ?has_signaling_NaN@_Num_base@std@@2_NB
CONST	SEGMENT
?has_signaling_NaN@_Num_base@std@@2_NB DB 00H		; std::_Num_base::has_signaling_NaN
CONST	ENDS
;	COMDAT ?has_quiet_NaN@_Num_base@std@@2_NB
CONST	SEGMENT
?has_quiet_NaN@_Num_base@std@@2_NB DB 00H		; std::_Num_base::has_quiet_NaN
CONST	ENDS
;	COMDAT ?has_infinity@_Num_base@std@@2_NB
CONST	SEGMENT
?has_infinity@_Num_base@std@@2_NB DB 00H		; std::_Num_base::has_infinity
CONST	ENDS
;	COMDAT ?has_denorm_loss@_Num_base@std@@2_NB
CONST	SEGMENT
?has_denorm_loss@_Num_base@std@@2_NB DB 00H		; std::_Num_base::has_denorm_loss
CONST	ENDS
;	COMDAT ?has_denorm@_Num_base@std@@2W4float_denorm_style@2@B
CONST	SEGMENT
?has_denorm@_Num_base@std@@2W4float_denorm_style@2@B DD 00H ; std::_Num_base::has_denorm
CONST	ENDS
PUBLIC	_fabsf
PUBLIC	_cosf
PUBLIC	_sinf
PUBLIC	?cos@@YAMM@Z					; cos
PUBLIC	?fabs@@YAMM@Z					; fabs
PUBLIC	?sin@@YAMM@Z					; sin
PUBLIC	?Id@VuEntity@@QBE?AVVU_ID@@XZ			; VuEntity::Id
PUBLIC	?XPos@VuEntity@@QBEMXZ				; VuEntity::XPos
PUBLIC	?YPos@VuEntity@@QBEMXZ				; VuEntity::YPos
PUBLIC	?EntityType@VuEntity@@QBEPAUVuEntityType@@XZ	; VuEntity::EntityType
PUBLIC	??2@YAPAXIPAX@Z					; operator new
PUBLIC	??3@YAXPAX0@Z					; operator delete
PUBLIC	?length@?$char_traits@D@std@@SAIPBD@Z		; std::char_traits<char>::length
PUBLIC	?copy@?$char_traits@D@std@@SAPADPADPBDI@Z	; std::char_traits<char>::copy
PUBLIC	?move@?$char_traits@D@std@@SAPADPADPBDI@Z	; std::char_traits<char>::move
PUBLIC	?assign@?$char_traits@D@std@@SAXAADABD@Z	; std::char_traits<char>::assign
PUBLIC	??0?$allocator@D@std@@QAE@XZ			; std::allocator<char>::allocator<char>
PUBLIC	?deallocate@?$allocator@D@std@@QAEXPADI@Z	; std::allocator<char>::deallocate
PUBLIC	?allocate@?$allocator@D@std@@QAEPADI@Z		; std::allocator<char>::allocate
PUBLIC	?max_size@?$allocator@D@std@@QBEIXZ		; std::allocator<char>::max_size
PUBLIC	?max_size@?$allocator_traits@V?$allocator@D@std@@@std@@SAIABV?$allocator@D@2@@Z ; std::allocator_traits<std::allocator<char> >::max_size
PUBLIC	??0?$_Wrap_alloc@V?$allocator@D@std@@@std@@QAE@XZ ; std::_Wrap_alloc<std::allocator<char> >::_Wrap_alloc<std::allocator<char> >
PUBLIC	?allocate@?$_Wrap_alloc@V?$allocator@D@std@@@std@@QAEPADI@Z ; std::_Wrap_alloc<std::allocator<char> >::allocate
PUBLIC	?deallocate@?$_Wrap_alloc@V?$allocator@D@std@@@std@@QAEXPADI@Z ; std::_Wrap_alloc<std::allocator<char> >::deallocate
PUBLIC	?max_size@?$_Wrap_alloc@V?$allocator@D@std@@@std@@QBEIXZ ; std::_Wrap_alloc<std::allocator<char> >::max_size
PUBLIC	??0?$_String_val@U?$_Simple_types@D@std@@@std@@QAE@XZ ; std::_String_val<std::_Simple_types<char> >::_String_val<std::_Simple_types<char> >
PUBLIC	?_Myptr@?$_String_val@U?$_Simple_types@D@std@@@std@@QAEPADXZ ; std::_String_val<std::_Simple_types<char> >::_Myptr
PUBLIC	?_Myptr@?$_String_val@U?$_Simple_types@D@std@@@std@@QBEPBDXZ ; std::_String_val<std::_Simple_types<char> >::_Myptr
PUBLIC	??0?$_String_alloc@$0A@U?$_String_base_types@DV?$allocator@D@std@@@std@@@std@@QAE@ABV?$allocator@D@1@@Z ; std::_String_alloc<0,std::_String_base_types<char,std::allocator<char> > >::_String_alloc<0,std::_String_base_types<char,std::allocator<char> > >
PUBLIC	?_Getal@?$_String_alloc@$0A@U?$_String_base_types@DV?$allocator@D@std@@@std@@@std@@QBE?AU?$_Wrap_alloc@V?$allocator@D@std@@@2@XZ ; std::_String_alloc<0,std::_String_base_types<char,std::allocator<char> > >::_Getal
PUBLIC	??0?$basic_string@DU?$char_traits@D@std@@V?$allocator@D@2@@std@@QAE@PBD@Z ; std::basic_string<char,std::char_traits<char>,std::allocator<char> >::basic_string<char,std::char_traits<char>,std::allocator<char> >
PUBLIC	?assign@?$basic_string@DU?$char_traits@D@std@@V?$allocator@D@2@@std@@QAEAAV12@ABV12@II@Z ; std::basic_string<char,std::char_traits<char>,std::allocator<char> >::assign
PUBLIC	?assign@?$basic_string@DU?$char_traits@D@std@@V?$allocator@D@2@@std@@QAEAAV12@PBDI@Z ; std::basic_string<char,std::char_traits<char>,std::allocator<char> >::assign
PUBLIC	?assign@?$basic_string@DU?$char_traits@D@std@@V?$allocator@D@2@@std@@QAEAAV12@PBD@Z ; std::basic_string<char,std::char_traits<char>,std::allocator<char> >::assign
PUBLIC	?erase@?$basic_string@DU?$char_traits@D@std@@V?$allocator@D@2@@std@@QAEAAV12@I@Z ; std::basic_string<char,std::char_traits<char>,std::allocator<char> >::erase
PUBLIC	?erase@?$basic_string@DU?$char_traits@D@std@@V?$allocator@D@2@@std@@QAEAAV12@II@Z ; std::basic_string<char,std::char_traits<char>,std::allocator<char> >::erase
PUBLIC	?size@?$basic_string@DU?$char_traits@D@std@@V?$allocator@D@2@@std@@QBEIXZ ; std::basic_string<char,std::char_traits<char>,std::allocator<char> >::size
PUBLIC	?max_size@?$basic_string@DU?$char_traits@D@std@@V?$allocator@D@2@@std@@QBEIXZ ; std::basic_string<char,std::char_traits<char>,std::allocator<char> >::max_size
PUBLIC	?_Copy@?$basic_string@DU?$char_traits@D@std@@V?$allocator@D@2@@std@@QAEXII@Z ; std::basic_string<char,std::char_traits<char>,std::allocator<char> >::_Copy
PUBLIC	?_Eos@?$basic_string@DU?$char_traits@D@std@@V?$allocator@D@2@@std@@QAEXI@Z ; std::basic_string<char,std::char_traits<char>,std::allocator<char> >::_Eos
PUBLIC	?_Grow@?$basic_string@DU?$char_traits@D@std@@V?$allocator@D@2@@std@@QAE_NI_N@Z ; std::basic_string<char,std::char_traits<char>,std::allocator<char> >::_Grow
PUBLIC	?_Inside@?$basic_string@DU?$char_traits@D@std@@V?$allocator@D@2@@std@@QAE_NPBD@Z ; std::basic_string<char,std::char_traits<char>,std::allocator<char> >::_Inside
PUBLIC	?_Tidy@?$basic_string@DU?$char_traits@D@std@@V?$allocator@D@2@@std@@QAEX_NI@Z ; std::basic_string<char,std::char_traits<char>,std::allocator<char> >::_Tidy
PUBLIC	?_Xlen@?$basic_string@DU?$char_traits@D@std@@V?$allocator@D@2@@std@@QBEXXZ ; std::basic_string<char,std::char_traits<char>,std::allocator<char> >::_Xlen
PUBLIC	?_Xran@?$basic_string@DU?$char_traits@D@std@@V?$allocator@D@2@@std@@QBEXXZ ; std::basic_string<char,std::char_traits<char>,std::allocator<char> >::_Xran
PUBLIC	?get@?$VuBin@VVuSessionEntity@@@@QBEPAVVuSessionEntity@@XZ ; VuBin<VuSessionEntity>::get
PUBLIC	?SetWPAction@WayPointClass@@QAEXH@Z		; WayPointClass::SetWPAction
PUBLIC	?SetWPFlags@WayPointClass@@QAEXK@Z		; WayPointClass::SetWPFlags
PUBLIC	?SetWPDepartTime@WayPointClass@@QAEXK@Z		; WayPointClass::SetWPDepartTime
PUBLIC	?SetWPArrive@WayPointClass@@QAEXK@Z		; WayPointClass::SetWPArrive
PUBLIC	?GetDomain@CampBaseClass@@QBEEXZ		; CampBaseClass::GetDomain
PUBLIC	?GetType@CampBaseClass@@QBEEXZ			; CampBaseClass::GetType
PUBLIC	??0LoadoutStruct@@QAE@XZ			; LoadoutStruct::LoadoutStruct
PUBLIC	?IAKill@UnitClass@@QAEHXZ			; UnitClass::IAKill
PUBLIC	?SetUnitDestination@UnitClass@@QAEXFF@Z		; UnitClass::SetUnitDestination
PUBLIC	?SetNumVehicles@UnitClass@@QAEXHH@Z		; UnitClass::SetNumVehicles
PUBLIC	?GetFirstUnitWP@UnitClass@@QAEPAVWayPointClass@@XZ ; UnitClass::GetFirstUnitWP
PUBLIC	?GetMissionRequest@PackageClass@@QAEPAVMissionRequestClass@@XZ ; PackageClass::GetMissionRequest
PUBLIC	?GetLastDirection@FlightClass@@QAEEXZ		; FlightClass::GetLastDirection
PUBLIC	?GetUnitPackage@FlightClass@@QAEPAVPackageClass@@XZ ; FlightClass::GetUnitPackage
PUBLIC	??0id@locale@std@@QAE@I@Z			; std::locale::id::id
PUBLIC	?generic_category@std@@YAABVerror_category@1@XZ	; std::generic_category
PUBLIC	?system_category@std@@YAABVerror_category@1@XZ	; std::system_category
PUBLIC	??0error_category@std@@QAE@XZ			; std::error_category::error_category
PUBLIC	??1error_category@std@@UAE@XZ			; std::error_category::~error_category
PUBLIC	?default_error_condition@error_category@std@@UBE?AVerror_condition@2@H@Z ; std::error_category::default_error_condition
PUBLIC	?equivalent@error_category@std@@UBE_NHABVerror_condition@2@@Z ; std::error_category::equivalent
PUBLIC	?equivalent@error_category@std@@UBE_NABVerror_code@2@H@Z ; std::error_category::equivalent
PUBLIC	??8error_category@std@@QBE_NABV01@@Z		; std::error_category::operator==
PUBLIC	??_Gerror_category@std@@UAEPAXI@Z		; std::error_category::`scalar deleting destructor'
PUBLIC	?value@error_code@std@@QBEHXZ			; std::error_code::value
PUBLIC	?category@error_code@std@@QBEABVerror_category@2@XZ ; std::error_code::category
PUBLIC	??0error_condition@std@@QAE@HABVerror_category@1@@Z ; std::error_condition::error_condition
PUBLIC	?value@error_condition@std@@QBEHXZ		; std::error_condition::value
PUBLIC	?category@error_condition@std@@QBEABVerror_category@2@XZ ; std::error_condition::category
PUBLIC	??8error_condition@std@@QBE_NABV01@@Z		; std::error_condition::operator==
PUBLIC	??0_Generic_error_category@std@@QAE@XZ		; std::_Generic_error_category::_Generic_error_category
PUBLIC	?name@_Generic_error_category@std@@UBEPBDXZ	; std::_Generic_error_category::name
PUBLIC	?message@_Generic_error_category@std@@UBE?AV?$basic_string@DU?$char_traits@D@std@@V?$allocator@D@2@@2@H@Z ; std::_Generic_error_category::message
PUBLIC	??1_Generic_error_category@std@@UAE@XZ		; std::_Generic_error_category::~_Generic_error_category
PUBLIC	??_G_Generic_error_category@std@@UAEPAXI@Z	; std::_Generic_error_category::`scalar deleting destructor'
PUBLIC	??0_Iostream_error_category@std@@QAE@XZ		; std::_Iostream_error_category::_Iostream_error_category
PUBLIC	?name@_Iostream_error_category@std@@UBEPBDXZ	; std::_Iostream_error_category::name
PUBLIC	?message@_Iostream_error_category@std@@UBE?AV?$basic_string@DU?$char_traits@D@std@@V?$allocator@D@2@@2@H@Z ; std::_Iostream_error_category::message
PUBLIC	??1_Iostream_error_category@std@@UAE@XZ		; std::_Iostream_error_category::~_Iostream_error_category
PUBLIC	??_G_Iostream_error_category@std@@UAEPAXI@Z	; std::_Iostream_error_category::`scalar deleting destructor'
PUBLIC	??0_System_error_category@std@@QAE@XZ		; std::_System_error_category::_System_error_category
PUBLIC	?name@_System_error_category@std@@UBEPBDXZ	; std::_System_error_category::name
PUBLIC	?message@_System_error_category@std@@UBE?AV?$basic_string@DU?$char_traits@D@std@@V?$allocator@D@2@@2@H@Z ; std::_System_error_category::message
PUBLIC	?default_error_condition@_System_error_category@std@@UBE?AVerror_condition@2@H@Z ; std::_System_error_category::default_error_condition
PUBLIC	??1_System_error_category@std@@UAE@XZ		; std::_System_error_category::~_System_error_category
PUBLIC	??_G_System_error_category@std@@UAEPAXI@Z	; std::_System_error_category::`scalar deleting destructor'
PUBLIC	?get@?$VuBin@VFalconEntity@@@@QBEPAVFalconEntity@@XZ ; VuBin<FalconEntity>::get
PUBLIC	?get@?$VuBin@VFlightClass@@@@QBEPAVFlightClass@@XZ ; VuBin<FlightClass>::get
PUBLIC	?GetPlayerEntity@FalconSessionEntity@@QBEPAVFalconEntity@@XZ ; FalconSessionEntity::GetPlayerEntity
PUBLIC	?GetPlayerFlight@FalconSessionEntity@@QBEPAVFlightClass@@XZ ; FalconSessionEntity::GetPlayerFlight
PUBLIC	?GetPilotSlot@FalconSessionEntity@@QBEEXZ	; FalconSessionEntity::GetPilotSlot
PUBLIC	?create_unit@instant_action@@KAXAAUia_data@@@Z	; instant_action::create_unit
PUBLIC	?create_flight@instant_action@@KAXAAUia_data@@@Z ; instant_action::create_flight
PUBLIC	?create_battalion@instant_action@@KAXAAUia_data@@@Z ; instant_action::create_battalion
PUBLIC	?create_player_flight@instant_action@@SAXXZ	; instant_action::create_player_flight
PUBLIC	?move_player_flight@instant_action@@SAXXZ	; instant_action::move_player_flight
PUBLIC	?create_wave@instant_action@@SAXXZ		; instant_action::create_wave
PUBLIC	?check_next_wave@instant_action@@SAXXZ		; instant_action::check_next_wave
PUBLIC	?create_more_stuff@instant_action@@SAXXZ	; instant_action::create_more_stuff
PUBLIC	?is_fighter_sweep@instant_action@@SAHXZ		; instant_action::is_fighter_sweep
PUBLIC	?is_moving_mud@instant_action@@SAHXZ		; instant_action::is_moving_mud
PUBLIC	?set_start_wave@instant_action@@SAXH@Z		; instant_action::set_start_wave
PUBLIC	?set_start_mode@instant_action@@SAXD@Z		; instant_action::set_start_mode
PUBLIC	?set_start_position@instant_action@@SAXMM@Z	; instant_action::set_start_position
PUBLIC	?get_start_position@instant_action@@SAXAAM0@Z	; instant_action::get_start_position
PUBLIC	?set_start_time@instant_action@@SAXJ@Z		; instant_action::set_start_time
PUBLIC	?get_start_time@instant_action@@SAJXZ		; instant_action::get_start_time
PUBLIC	?set_campaign_time@instant_action@@SAXXZ	; instant_action::set_campaign_time
PUBLIC	??$construct@PADAAPAD@?$_Wrap_alloc@V?$allocator@D@std@@@std@@QAEXPAPADAAPAD@Z ; std::_Wrap_alloc<std::allocator<char> >::construct<char *,char * &>
PUBLIC	??$destroy@PAD@?$_Wrap_alloc@V?$allocator@D@std@@@std@@QAEXPAPAD@Z ; std::_Wrap_alloc<std::allocator<char> >::destroy<char *>
PUBLIC	??$addressof@D@std@@YAPADAAD@Z			; std::addressof<char>
PUBLIC	??$_Allocate@D@std@@YAPADIPAD@Z			; std::_Allocate<char>
PUBLIC	??$forward@AAPAD@std@@YAAAPADAAPAD@Z		; std::forward<char * &>
PUBLIC	??$construct@PADAAPAD@?$allocator_traits@V?$allocator@D@std@@@std@@SAXAAV?$allocator@D@1@PAPADAAPAD@Z ; std::allocator_traits<std::allocator<char> >::construct<char *,char * &>
PUBLIC	??$destroy@PAD@?$allocator_traits@V?$allocator@D@std@@@std@@SAXAAV?$allocator@D@1@PAPAD@Z ; std::allocator_traits<std::allocator<char> >::destroy<char *>
PUBLIC	??$construct@PADAAPAD@?$allocator@D@std@@QAEXPAPADAAPAD@Z ; std::allocator<char>::construct<char *,char * &>
PUBLIC	??$destroy@PAD@?$allocator@D@std@@QAEXPAPAD@Z	; std::allocator<char>::destroy<char *>
PUBLIC	??_7error_category@std@@6B@			; std::error_category::`vftable'
PUBLIC	??_7_Generic_error_category@std@@6B@		; std::_Generic_error_category::`vftable'
PUBLIC	??_C@_07DCLBNMLN@generic?$AA@			; `string'
PUBLIC	??_C@_0O@BFJCFAAK@unknown?5error?$AA@		; `string'
PUBLIC	??_7_Iostream_error_category@std@@6B@		; std::_Iostream_error_category::`vftable'
PUBLIC	??_C@_08LLGCOLLL@iostream?$AA@			; `string'
PUBLIC	??_C@_0BG@PADBLCHM@iostream?5stream?5error?$AA@	; `string'
PUBLIC	??_7_System_error_category@std@@6B@		; std::_System_error_category::`vftable'
PUBLIC	??_C@_06FHFOAHML@system?$AA@			; `string'
PUBLIC	?_Generic_object@?$_Error_objects@H@std@@2V_Generic_error_category@2@A ; std::_Error_objects<int>::_Generic_object
PUBLIC	?_Iostream_object@?$_Error_objects@H@std@@2V_Iostream_error_category@2@A ; std::_Error_objects<int>::_Iostream_object
PUBLIC	?_System_object@?$_Error_objects@H@std@@2V_System_error_category@2@A ; std::_Error_objects<int>::_System_object
PUBLIC	?id@?$num_put@DV?$back_insert_iterator@V?$basic_string@DU?$char_traits@D@std@@V?$allocator@D@2@@std@@@std@@@std@@2V0locale@2@A ; std::num_put<char,std::back_insert_iterator<std::basic_string<char,std::char_traits<char>,std::allocator<char> > > >::id
PUBLIC	?id@?$num_put@_WV?$back_insert_iterator@V?$basic_string@_WU?$char_traits@_W@std@@V?$allocator@_W@2@@std@@@std@@@std@@2V0locale@2@A ; std::num_put<wchar_t,std::back_insert_iterator<std::basic_string<wchar_t,std::char_traits<wchar_t>,std::allocator<wchar_t> > > >::id
PUBLIC	??_C@_0L@KBLNOMHJ@?$CFs?2?$CFc?$CFd?4ia?$AA@	; `string'
PUBLIC	??_C@_01KDCPPGHE@r?$AA@				; `string'
PUBLIC	??_C@_07GCICIJGK@minutes?$AA@			; `string'
PUBLIC	??_C@_02JEGPBHMG@km?$AA@			; `string'
PUBLIC	??_C@_03OFPLEBM@deg?$AA@			; `string'
PUBLIC	??_C@_03GFHGLKFI@kts?$AA@			; `string'
PUBLIC	??_C@_04CGBIDIAH@feet?$AA@			; `string'
PUBLIC	??_C@_06NBFPPGEG@vector?$AA@			; `string'
PUBLIC	??_C@_0P@JOIGPIED@Unknown?5?$CFd?3?$CFs?6?$AA@	; `string'
PUBLIC	??_C@_06GFAFCNFM@allied?$AA@			; `string'
PUBLIC	??_C@_05ICAMJEGE@enemy?$AA@			; `string'
PUBLIC	??_C@_07JAOEMGIL@neutral?$AA@			; `string'
PUBLIC	??_C@_08IKJAOFHB@killthis?$AA@			; `string'
PUBLIC	??_C@_04IHFDPAO@guns?$AA@			; `string'
PUBLIC	??_C@_05EMNNHGFM@radar?$AA@			; `string'
PUBLIC	??_C@_04JOCBCOLK@heat?$AA@			; `string'
PUBLIC	??_C@_06GODDAGJL@ground?$AA@			; `string'
PUBLIC	??_C@_09DAPOABIO@noweapons?$AA@			; `string'
PUBLIC	??_C@_04PLMLMMEO@full?$AA@			; `string'
PUBLIC	??_C@_04BOEKNIJH@dumb?$AA@			; `string'
PUBLIC	??_C@_07PAOAAHJB@recruit?$AA@			; `string'
PUBLIC	??_C@_05NFAEKIDI@cadet?$AA@			; `string'
PUBLIC	??_C@_06EIAPKDNP@rookie?$AA@			; `string'
PUBLIC	??_C@_07JLFAODAA@veteran?$AA@			; `string'
PUBLIC	??_C@_03PDKFKBO@ace?$AA@			; `string'
PUBLIC	??_C@_0BE@KEEAPDJC@Unknown?5Command?5?$CFs?6?$AA@ ; `string'
PUBLIC	??_C@_08OFMENCFB@?$CFs?2?$CFc?4ia?$AA@		; `string'
PUBLIC	??_C@_04GPMDFGEJ@type?$AA@			; `string'
PUBLIC	??_C@_07BFHALJJD@subtype?$AA@			; `string'
PUBLIC	??_C@_08KINPOOEP@specific?$AA@			; `string'
PUBLIC	??_C@_02IOEGGOML@w0?$AA@			; `string'
PUBLIC	??_C@_02JFGJGFGH@c0?$AA@			; `string'
PUBLIC	??_C@_02JHFNFPIK@w1?$AA@			; `string'
PUBLIC	??_C@_02IMHCFECG@c1?$AA@			; `string'
PUBLIC	??_C@_02LMHAAMEJ@w2?$AA@			; `string'
PUBLIC	??_C@_02KHFPAHOF@c2?$AA@			; `string'
PUBLIC	??_C@_02KFGLDNAI@w3?$AA@			; `string'
PUBLIC	??_C@_02LOEEDGKE@c3?$AA@			; `string'
PUBLIC	??_C@_02OKCKKLMP@w4?$AA@			; `string'
PUBLIC	??_C@_02PBAFKAGD@c4?$AA@			; `string'
PUBLIC	??_C@_02PDDBJKIO@w5?$AA@			; `string'
PUBLIC	??_C@_02OIBOJBCC@c5?$AA@			; `string'
PUBLIC	??_C@_02NIBMMJEN@w6?$AA@			; `string'
PUBLIC	??_C@_02MDDDMCOB@c6?$AA@			; `string'
PUBLIC	??_C@_02MBAHPIAM@w7?$AA@			; `string'
PUBLIC	??_C@_02NKCIPDKA@c7?$AA@			; `string'
PUBLIC	??_C@_02EGJPOEMD@w8?$AA@			; `string'
PUBLIC	??_C@_02FNLAOPGP@c8?$AA@			; `string'
PUBLIC	??_C@_02FPIENFIC@w9?$AA@			; `string'
PUBLIC	??_C@_02EEKLNOCO@c9?$AA@			; `string'
PUBLIC	??_C@_0BL@GGMJKOGP@Cannot?5create?5F16C?5Flight?6?$AA@ ; `string'
PUBLIC	??_C@_0CC@LHJKAMAN@Cannot?5create?5FlightClass?5object@ ; `string'
PUBLIC	??_C@_0EK@KKBJOKA@Cannot?5find?5Aircraft?5Type?5in?5Ins@ ; `string'
PUBLIC	??_C@_0BI@HNCLFAFG@Create?5Flight?5?$CFd?0?$CFd?5?$CFd?5?$AA@ ; `string'
PUBLIC	??_C@_0BF@LFOINCLP@?$DN?$DO?5?$CFd?0?$CFd?5?$CI?$CFd?5Skill?$CJ?6?$AA@ ; `string'
PUBLIC	??_C@_0EM@FJJOHNJF@Cannot?5find?5Battalion?5Type?5in?5In@ ; `string'
PUBLIC	?id@?$numpunct@D@std@@2V0locale@2@A		; std::numpunct<char>::id
PUBLIC	?id@?$numpunct@_W@std@@2V0locale@2@A		; std::numpunct<wchar_t>::id
PUBLIC	??_C@_0BI@CFPLBAOH@invalid?5string?5position?$AA@ ; `string'
PUBLIC	??_C@_0BA@JFNIOLAK@string?5too?5long?$AA@	; `string'
PUBLIC	??_R4error_category@std@@6B@			; std::error_category::`RTTI Complete Object Locator'
PUBLIC	??_R0?AVerror_category@std@@@8			; std::error_category `RTTI Type Descriptor'
PUBLIC	??_R3error_category@std@@8			; std::error_category::`RTTI Class Hierarchy Descriptor'
PUBLIC	??_R2error_category@std@@8			; std::error_category::`RTTI Base Class Array'
PUBLIC	??_R1A@?0A@EA@error_category@std@@8		; std::error_category::`RTTI Base Class Descriptor at (0,-1,0,64)'
PUBLIC	??_R4_Generic_error_category@std@@6B@		; std::_Generic_error_category::`RTTI Complete Object Locator'
PUBLIC	??_R0?AV_Generic_error_category@std@@@8		; std::_Generic_error_category `RTTI Type Descriptor'
PUBLIC	??_R3_Generic_error_category@std@@8		; std::_Generic_error_category::`RTTI Class Hierarchy Descriptor'
PUBLIC	??_R2_Generic_error_category@std@@8		; std::_Generic_error_category::`RTTI Base Class Array'
PUBLIC	??_R1A@?0A@EA@_Generic_error_category@std@@8	; std::_Generic_error_category::`RTTI Base Class Descriptor at (0,-1,0,64)'
PUBLIC	??_R4_Iostream_error_category@std@@6B@		; std::_Iostream_error_category::`RTTI Complete Object Locator'
PUBLIC	??_R0?AV_Iostream_error_category@std@@@8	; std::_Iostream_error_category `RTTI Type Descriptor'
PUBLIC	??_R3_Iostream_error_category@std@@8		; std::_Iostream_error_category::`RTTI Class Hierarchy Descriptor'
PUBLIC	??_R2_Iostream_error_category@std@@8		; std::_Iostream_error_category::`RTTI Base Class Array'
PUBLIC	??_R1A@?0A@EA@_Iostream_error_category@std@@8	; std::_Iostream_error_category::`RTTI Base Class Descriptor at (0,-1,0,64)'
PUBLIC	??_R4_System_error_category@std@@6B@		; std::_System_error_category::`RTTI Complete Object Locator'
PUBLIC	??_R0?AV_System_error_category@std@@@8		; std::_System_error_category `RTTI Type Descriptor'
PUBLIC	??_R3_System_error_category@std@@8		; std::_System_error_category::`RTTI Class Hierarchy Descriptor'
PUBLIC	??_R2_System_error_category@std@@8		; std::_System_error_category::`RTTI Base Class Array'
PUBLIC	??_R1A@?0A@EA@_System_error_category@std@@8	; std::_System_error_category::`RTTI Base Class Descriptor at (0,-1,0,64)'
PUBLIC	__real@00000000
PUBLIC	__real@3c8efa34
PUBLIC	__real@3f000000
PUBLIC	__real@3f400000
PUBLIC	__real@46fffe00
PUBLIC	__real@4ab96e66
PUBLIC	__real@c61c4000
EXTRN	__purecall:PROC
EXTRN	??2@YAPAXI@Z:PROC				; operator new
EXTRN	??3@YAXPAX@Z:PROC				; operator delete
EXTRN	_atexit:PROC
EXTRN	_fclose:PROC
EXTRN	_fgets:PROC
EXTRN	_fopen:PROC
EXTRN	_sprintf:PROC
EXTRN	_cos:PROC
EXTRN	_fabs:PROC
EXTRN	_sin:PROC
EXTRN	_atoi:PROC
EXTRN	_rand:PROC
EXTRN	_memcpy:PROC
EXTRN	_memset:PROC
EXTRN	_strlen:PROC
EXTRN	_memmove:PROC
EXTRN	_stricmp:PROC
EXTRN	?_Xbad_alloc@std@@YAXXZ:PROC			; std::_Xbad_alloc
EXTRN	?_Xlength_error@std@@YAXPBD@Z:PROC		; std::_Xlength_error
EXTRN	?_Xout_of_range@std@@YAXPBD@Z:PROC		; std::_Xout_of_range
EXTRN	?Insert@VuDatabase@@QAEHPAVVuEntity@@@Z:PROC	; VuDatabase::Insert
EXTRN	?Find@VuDatabase@@QBEPAVVuEntity@@VVU_ID@@@Z:PROC ; VuDatabase::Find
EXTRN	??0VuListIterator@@QAE@PAVVuLinkedList@@@Z:PROC	; VuListIterator::VuListIterator
EXTRN	??1VuListIterator@@UAE@XZ:PROC			; VuListIterator::~VuListIterator
EXTRN	?GetFirst@VuListIterator@@QAEPAVVuEntity@@XZ:PROC ; VuListIterator::GetFirst
EXTRN	?GetNext@VuListIterator@@QAEPAVVuEntity@@XZ:PROC ; VuListIterator::GetNext
EXTRN	?GetLocation@FalconEntity@@QBEXPAF0@Z:PROC	; FalconEntity::GetLocation
EXTRN	_MonoPrint:PROC
EXTRN	?GetCover@@YA?AW4CoverType@@FF@Z:PROC		; GetCover
EXTRN	??0WayPointClass@@QAE@XZ:PROC			; WayPointClass::WayPointClass
EXTRN	??0WayPointClass@@QAE@FFHHKKEH@Z:PROC		; WayPointClass::WayPointClass
EXTRN	?SetNextWP@WayPointClass@@QAEXPAV1@@Z:PROC	; WayPointClass::SetNextWP
EXTRN	?SetLocation@WayPointClass@@QAEXMMM@Z:PROC	; WayPointClass::SetLocation
EXTRN	?SetWPTimes@@YAKPAVWayPointClass@@KHH@Z:PROC	; SetWPTimes
EXTRN	?GetWeaponDescriptionIndex@@YAHH@Z:PROC		; GetWeaponDescriptionIndex
EXTRN	?GetClassID@@YAHEEEEEEEE@Z:PROC			; GetClassID
EXTRN	?SetLocation@CampBaseClass@@QAEXFF@Z:PROC	; CampBaseClass::SetLocation
EXTRN	?SetAltitude@CampBaseClass@@QAEXH@Z:PROC	; CampBaseClass::SetAltitude
EXTRN	?SetEmitting@CampBaseClass@@QAEXH@Z:PROC	; CampBaseClass::SetEmitting
EXTRN	?GetVehicleClassData@@YAPAUVehicleClassDataType@@H@Z:PROC ; GetVehicleClassData
EXTRN	?SetRoster@UnitClass@@QAEXJ@Z:PROC		; UnitClass::SetRoster
EXTRN	?SetCurrentWaypoint@UnitClass@@QAEXG@Z:PROC	; UnitClass::SetCurrentWaypoint
EXTRN	?SetFinal@UnitClass@@QAEXH@Z:PROC		; UnitClass::SetFinal
EXTRN	?SetIAKill@UnitClass@@QAEXH@Z:PROC		; UnitClass::SetIAKill
EXTRN	?SetNoAbort@UnitClass@@QAEXH@Z:PROC		; UnitClass::SetNoAbort
EXTRN	?GetVehicleID@UnitClass@@QAEFH@Z:PROC		; UnitClass::GetVehicleID
EXTRN	?GetTotalVehicles@UnitClass@@QAEHXZ:PROC	; UnitClass::GetTotalVehicles
EXTRN	?GetCombatSpeed@UnitClass@@QBEHXZ:PROC		; UnitClass::GetCombatSpeed
EXTRN	?BuildElements@UnitClass@@QAEXXZ:PROC		; UnitClass::BuildElements
EXTRN	?KillUnit@UnitClass@@QAEXXZ:PROC		; UnitClass::KillUnit
EXTRN	?GetFirstUnit@@YAPAVUnitClass@@PAVVuListIterator@@@Z:PROC ; GetFirstUnit
EXTRN	?GetNextUnit@@YAPAVUnitClass@@PAVVuListIterator@@@Z:PROC ; GetNextUnit
EXTRN	?NewUnit@@YAPAVUnitClass@@HHHHPAV1@@Z:PROC	; NewUnit
EXTRN	?DistSqu@@YAHFFFF@Z:PROC			; DistSqu
EXTRN	?Distance@@YAMMMMM@Z:PROC			; Distance
EXTRN	?FindNearestObjective@@YAPAVObjectiveClass@@FFPAMF@Z:PROC ; FindNearestObjective
EXTRN	?ConvertSimToGrid@@YAXPAUvector@@PAF1@Z:PROC	; ConvertSimToGrid
EXTRN	?GetCallsignID@@YAXPAE0H@Z:PROC			; GetCallsignID
EXTRN	?SetCallsignID@@YAXHH@Z:PROC			; SetCallsignID
EXTRN	?SetTanker@PackageClass@@QAEXVVU_ID@@@Z:PROC	; PackageClass::SetTanker
EXTRN	?SetLastDirection@FlightClass@@QAEXE@Z:PROC	; FlightClass::SetLastDirection
EXTRN	?SetPackage@FlightClass@@QAEXVVU_ID@@@Z:PROC	; FlightClass::SetPackage
EXTRN	?MakeFlightDirty@FlightClass@@QAEXW4Dirty_Flight@@W4Dirtyness@@@Z:PROC ; FlightClass::MakeFlightDirty
EXTRN	?NewFlight@@YAPAVFlightClass@@HPAVUnitClass@@0@Z:PROC ; NewFlight
EXTRN	??_Eerror_category@std@@UAEPAXI@Z:PROC		; std::error_category::`vector deleting destructor'
EXTRN	?_Syserror_map@std@@YAPBDH@Z:PROC		; std::_Syserror_map
EXTRN	?_Winerror_map@std@@YAPBDH@Z:PROC		; std::_Winerror_map
EXTRN	??_E_Generic_error_category@std@@UAEPAXI@Z:PROC	; std::_Generic_error_category::`vector deleting destructor'
EXTRN	??_E_Iostream_error_category@std@@UAEPAXI@Z:PROC ; std::_Iostream_error_category::`vector deleting destructor'
EXTRN	??_E_System_error_category@std@@UAEPAXI@Z:PROC	; std::_System_error_category::`vector deleting destructor'
EXTRN	?NewBattalion@@YAPAVBattalionClass@@HPAVUnitClass@@@Z:PROC ; NewBattalion
EXTRN	?PreMissionEval@MissionEvaluationClass@@QAEHPAVFlightClass@@E@Z:PROC ; MissionEvaluationClass::PreMissionEval
EXTRN	?DoFullUpdate@FalconSessionEntity@@QAEXXZ:PROC	; FalconSessionEntity::DoFullUpdate
EXTRN	?SetPlayerFlight@FalconSessionEntity@@QAEXPAVFlightClass@@@Z:PROC ; FalconSessionEntity::SetPlayerFlight
EXTRN	?SetAircraftNum@FalconSessionEntity@@QAEXE@Z:PROC ; FalconSessionEntity::SetAircraftNum
EXTRN	?SetPilotSlot@FalconSessionEntity@@QAEXE@Z:PROC	; FalconSessionEntity::SetPilotSlot
EXTRN	?SetTime@@YAXK@Z:PROC				; SetTime
EXTRN	@__security_check_cookie@4:PROC
EXTRN	__CxxThrowException@8:PROC
EXTRN	___CxxFrameHandler3:PROC
EXTRN	_memset:PROC
EXTRN	?vuDatabase@@3PAVVuDatabase@@A:DWORD		; vuDatabase
EXTRN	?vuLocalSessionEntity@@3V?$VuBin@VVuSessionEntity@@@@A:DWORD ; vuLocalSessionEntity
EXTRN	?FalconNullId@@3VVU_ID@@A:QWORD			; FalconNullId
EXTRN	?Falcon4ClassTable@@3PAUFalcon4EntityClassType@@A:DWORD ; Falcon4ClassTable
EXTRN	??_7type_info@@6B@:QWORD			; type_info::`vftable'
EXTRN	?DefaultDamageMods@@3PAEA:BYTE			; DefaultDamageMods
EXTRN	?TheCampaign@@3VCampaignClass@@A:BYTE		; TheCampaign
EXTRN	?AllRealList@@3PAVVuLinkedList@@A:DWORD		; AllRealList
EXTRN	?AllCampList@@3PAVVuLinkedList@@A:DWORD		; AllCampList
EXTRN	?FalconCampUserSaveDirectory@@3PADA:BYTE	; FalconCampUserSaveDirectory
EXTRN	?InstantActionSettings@@3UUI_IA@@A:BYTE		; InstantActionSettings
EXTRN	?gSelectedFlightID@@3VVU_ID@@A:QWORD		; gSelectedFlightID
EXTRN	?gActiveFlightID@@3VVU_ID@@A:QWORD		; gActiveFlightID
EXTRN	___security_cookie:DWORD
EXTRN	__fltused:DWORD
_BSS	SEGMENT
_piecewise_construct DB 01H DUP (?)
	ALIGN	4

_allocator_arg DB 01H DUP (?)
_BSS	ENDS
;	COMDAT ?_Generic_object@?$_Error_objects@H@std@@2V_Generic_error_category@2@A
_BSS	SEGMENT
?_Generic_object@?$_Error_objects@H@std@@2V_Generic_error_category@2@A DD 01H DUP (?) ; std::_Error_objects<int>::_Generic_object
_BSS	ENDS
;	COMDAT ?_Iostream_object@?$_Error_objects@H@std@@2V_Iostream_error_category@2@A
_BSS	SEGMENT
?_Iostream_object@?$_Error_objects@H@std@@2V_Iostream_error_category@2@A DD 01H DUP (?) ; std::_Error_objects<int>::_Iostream_object
_BSS	ENDS
;	COMDAT ?_System_object@?$_Error_objects@H@std@@2V_System_error_category@2@A
_BSS	SEGMENT
?_System_object@?$_Error_objects@H@std@@2V_System_error_category@2@A DD 01H DUP (?) ; std::_Error_objects<int>::_System_object
_BSS	ENDS
;	COMDAT ?id@?$num_put@DV?$back_insert_iterator@V?$basic_string@DU?$char_traits@D@std@@V?$allocator@D@2@@std@@@std@@@std@@2V0locale@2@A
_BSS	SEGMENT
?id@?$num_put@DV?$back_insert_iterator@V?$basic_string@DU?$char_traits@D@std@@V?$allocator@D@2@@std@@@std@@@std@@2V0locale@2@A DD 01H DUP (?) ; std::num_put<char,std::back_insert_iterator<std::basic_string<char,std::char_traits<char>,std::allocator<char> > > >::id
_BSS	ENDS
;	COMDAT ?id@?$num_put@_WV?$back_insert_iterator@V?$basic_string@_WU?$char_traits@_W@std@@V?$allocator@_W@2@@std@@@std@@@std@@2V0locale@2@A
_BSS	SEGMENT
?id@?$num_put@_WV?$back_insert_iterator@V?$basic_string@_WU?$char_traits@_W@std@@V?$allocator@_W@2@@std@@@std@@@std@@2V0locale@2@A DD 01H DUP (?) ; std::num_put<wchar_t,std::back_insert_iterator<std::basic_string<wchar_t,std::char_traits<wchar_t>,std::allocator<wchar_t> > > >::id
_BSS	ENDS
;	COMDAT ?id@?$numpunct@D@std@@2V0locale@2@A
_BSS	SEGMENT
?id@?$numpunct@D@std@@2V0locale@2@A DD 01H DUP (?)	; std::numpunct<char>::id
_BSS	ENDS
;	COMDAT ?id@?$numpunct@_W@std@@2V0locale@2@A
_BSS	SEGMENT
?id@?$numpunct@_W@std@@2V0locale@2@A DD 01H DUP (?)	; std::numpunct<wchar_t>::id
_BSS	ENDS
CRT$XCU	SEGMENT
_piecewise_construct$initializer$ DD FLAT:??__Epiecewise_construct@std@@YAXXZ
CRT$XCU	ENDS
;	COMDAT __real@c61c4000
CONST	SEGMENT
__real@c61c4000 DD 0c61c4000r			; -10000
CONST	ENDS
;	COMDAT __real@4ab96e66
CONST	SEGMENT
__real@4ab96e66 DD 04ab96e66r			; 6.07621e+006
CONST	ENDS
;	COMDAT __real@46fffe00
CONST	SEGMENT
__real@46fffe00 DD 046fffe00r			; 32767
CONST	ENDS
;	COMDAT __real@3f400000
CONST	SEGMENT
__real@3f400000 DD 03f400000r			; 0.75
CONST	ENDS
;	COMDAT __real@3f000000
CONST	SEGMENT
__real@3f000000 DD 03f000000r			; 0.5
CONST	ENDS
;	COMDAT __real@3c8efa34
CONST	SEGMENT
__real@3c8efa34 DD 03c8efa34r			; 0.0174533
CONST	ENDS
;	COMDAT __real@00000000
CONST	SEGMENT
__real@00000000 DD 000000000r			; 0
CONST	ENDS
;	COMDAT ??_R1A@?0A@EA@_System_error_category@std@@8
rdata$r	SEGMENT
??_R1A@?0A@EA@_System_error_category@std@@8 DD FLAT:??_R0?AV_System_error_category@std@@@8 ; std::_System_error_category::`RTTI Base Class Descriptor at (0,-1,0,64)'
	DD	02H
	DD	00H
	DD	0ffffffffH
	DD	00H
	DD	040H
	DD	FLAT:??_R3_System_error_category@std@@8
rdata$r	ENDS
;	COMDAT ??_R2_System_error_category@std@@8
rdata$r	SEGMENT
??_R2_System_error_category@std@@8 DD FLAT:??_R1A@?0A@EA@_System_error_category@std@@8 ; std::_System_error_category::`RTTI Base Class Array'
	DD	FLAT:??_R1A@?0A@EA@_Generic_error_category@std@@8
	DD	FLAT:??_R1A@?0A@EA@error_category@std@@8
rdata$r	ENDS
;	COMDAT ??_R3_System_error_category@std@@8
rdata$r	SEGMENT
??_R3_System_error_category@std@@8 DD 00H		; std::_System_error_category::`RTTI Class Hierarchy Descriptor'
	DD	00H
	DD	03H
	DD	FLAT:??_R2_System_error_category@std@@8
rdata$r	ENDS
;	COMDAT ??_R0?AV_System_error_category@std@@@8
_DATA	SEGMENT
??_R0?AV_System_error_category@std@@@8 DD FLAT:??_7type_info@@6B@ ; std::_System_error_category `RTTI Type Descriptor'
	DD	00H
	DB	'.?AV_System_error_category@std@@', 00H
_DATA	ENDS
;	COMDAT ??_R4_System_error_category@std@@6B@
rdata$r	SEGMENT
??_R4_System_error_category@std@@6B@ DD 00H		; std::_System_error_category::`RTTI Complete Object Locator'
	DD	00H
	DD	00H
	DD	FLAT:??_R0?AV_System_error_category@std@@@8
	DD	FLAT:??_R3_System_error_category@std@@8
rdata$r	ENDS
;	COMDAT ??_R1A@?0A@EA@_Iostream_error_category@std@@8
rdata$r	SEGMENT
??_R1A@?0A@EA@_Iostream_error_category@std@@8 DD FLAT:??_R0?AV_Iostream_error_category@std@@@8 ; std::_Iostream_error_category::`RTTI Base Class Descriptor at (0,-1,0,64)'
	DD	02H
	DD	00H
	DD	0ffffffffH
	DD	00H
	DD	040H
	DD	FLAT:??_R3_Iostream_error_category@std@@8
rdata$r	ENDS
;	COMDAT ??_R2_Iostream_error_category@std@@8
rdata$r	SEGMENT
??_R2_Iostream_error_category@std@@8 DD FLAT:??_R1A@?0A@EA@_Iostream_error_category@std@@8 ; std::_Iostream_error_category::`RTTI Base Class Array'
	DD	FLAT:??_R1A@?0A@EA@_Generic_error_category@std@@8
	DD	FLAT:??_R1A@?0A@EA@error_category@std@@8
rdata$r	ENDS
;	COMDAT ??_R3_Iostream_error_category@std@@8
rdata$r	SEGMENT
??_R3_Iostream_error_category@std@@8 DD 00H		; std::_Iostream_error_category::`RTTI Class Hierarchy Descriptor'
	DD	00H
	DD	03H
	DD	FLAT:??_R2_Iostream_error_category@std@@8
rdata$r	ENDS
;	COMDAT ??_R0?AV_Iostream_error_category@std@@@8
_DATA	SEGMENT
??_R0?AV_Iostream_error_category@std@@@8 DD FLAT:??_7type_info@@6B@ ; std::_Iostream_error_category `RTTI Type Descriptor'
	DD	00H
	DB	'.?AV_Iostream_error_category@std@@', 00H
_DATA	ENDS
;	COMDAT ??_R4_Iostream_error_category@std@@6B@
rdata$r	SEGMENT
??_R4_Iostream_error_category@std@@6B@ DD 00H		; std::_Iostream_error_category::`RTTI Complete Object Locator'
	DD	00H
	DD	00H
	DD	FLAT:??_R0?AV_Iostream_error_category@std@@@8
	DD	FLAT:??_R3_Iostream_error_category@std@@8
rdata$r	ENDS
;	COMDAT ??_R1A@?0A@EA@_Generic_error_category@std@@8
rdata$r	SEGMENT
??_R1A@?0A@EA@_Generic_error_category@std@@8 DD FLAT:??_R0?AV_Generic_error_category@std@@@8 ; std::_Generic_error_category::`RTTI Base Class Descriptor at (0,-1,0,64)'
	DD	01H
	DD	00H
	DD	0ffffffffH
	DD	00H
	DD	040H
	DD	FLAT:??_R3_Generic_error_category@std@@8
rdata$r	ENDS
;	COMDAT ??_R2_Generic_error_category@std@@8
rdata$r	SEGMENT
??_R2_Generic_error_category@std@@8 DD FLAT:??_R1A@?0A@EA@_Generic_error_category@std@@8 ; std::_Generic_error_category::`RTTI Base Class Array'
	DD	FLAT:??_R1A@?0A@EA@error_category@std@@8
rdata$r	ENDS
;	COMDAT ??_R3_Generic_error_category@std@@8
rdata$r	SEGMENT
??_R3_Generic_error_category@std@@8 DD 00H		; std::_Generic_error_category::`RTTI Class Hierarchy Descriptor'
	DD	00H
	DD	02H
	DD	FLAT:??_R2_Generic_error_category@std@@8
rdata$r	ENDS
;	COMDAT ??_R0?AV_Generic_error_category@std@@@8
_DATA	SEGMENT
??_R0?AV_Generic_error_category@std@@@8 DD FLAT:??_7type_info@@6B@ ; std::_Generic_error_category `RTTI Type Descriptor'
	DD	00H
	DB	'.?AV_Generic_error_category@std@@', 00H
_DATA	ENDS
;	COMDAT ??_R4_Generic_error_category@std@@6B@
rdata$r	SEGMENT
??_R4_Generic_error_category@std@@6B@ DD 00H		; std::_Generic_error_category::`RTTI Complete Object Locator'
	DD	00H
	DD	00H
	DD	FLAT:??_R0?AV_Generic_error_category@std@@@8
	DD	FLAT:??_R3_Generic_error_category@std@@8
rdata$r	ENDS
;	COMDAT ??_R1A@?0A@EA@error_category@std@@8
rdata$r	SEGMENT
??_R1A@?0A@EA@error_category@std@@8 DD FLAT:??_R0?AVerror_category@std@@@8 ; std::error_category::`RTTI Base Class Descriptor at (0,-1,0,64)'
	DD	00H
	DD	00H
	DD	0ffffffffH
	DD	00H
	DD	040H
	DD	FLAT:??_R3error_category@std@@8
rdata$r	ENDS
;	COMDAT ??_R2error_category@std@@8
rdata$r	SEGMENT
??_R2error_category@std@@8 DD FLAT:??_R1A@?0A@EA@error_category@std@@8 ; std::error_category::`RTTI Base Class Array'
rdata$r	ENDS
;	COMDAT ??_R3error_category@std@@8
rdata$r	SEGMENT
??_R3error_category@std@@8 DD 00H			; std::error_category::`RTTI Class Hierarchy Descriptor'
	DD	00H
	DD	01H
	DD	FLAT:??_R2error_category@std@@8
rdata$r	ENDS
;	COMDAT ??_R0?AVerror_category@std@@@8
_DATA	SEGMENT
??_R0?AVerror_category@std@@@8 DD FLAT:??_7type_info@@6B@ ; std::error_category `RTTI Type Descriptor'
	DD	00H
	DB	'.?AVerror_category@std@@', 00H
_DATA	ENDS
;	COMDAT ??_R4error_category@std@@6B@
rdata$r	SEGMENT
??_R4error_category@std@@6B@ DD 00H			; std::error_category::`RTTI Complete Object Locator'
	DD	00H
	DD	00H
	DD	FLAT:??_R0?AVerror_category@std@@@8
	DD	FLAT:??_R3error_category@std@@8
rdata$r	ENDS
;	COMDAT ??_C@_0BA@JFNIOLAK@string?5too?5long?$AA@
CONST	SEGMENT
??_C@_0BA@JFNIOLAK@string?5too?5long?$AA@ DB 'string too long', 00H ; `string'
CONST	ENDS
;	COMDAT ??_C@_0BI@CFPLBAOH@invalid?5string?5position?$AA@
CONST	SEGMENT
??_C@_0BI@CFPLBAOH@invalid?5string?5position?$AA@ DB 'invalid string posi'
	DB	'tion', 00H					; `string'
CONST	ENDS
;	COMDAT ??_C@_0EM@FJJOHNJF@Cannot?5find?5Battalion?5Type?5in?5In@
CONST	SEGMENT
??_C@_0EM@FJJOHNJF@Cannot?5find?5Battalion?5Type?5in?5In@ DB 'Cannot find'
	DB	' Battalion Type in Instant Action Object Table (ia_grnd_objec'
	DB	'ts)', 00H					; `string'
CONST	ENDS
;	COMDAT ??_C@_0BF@LFOINCLP@?$DN?$DO?5?$CFd?0?$CFd?5?$CI?$CFd?5Skill?$CJ?6?$AA@
CONST	SEGMENT
??_C@_0BF@LFOINCLP@?$DN?$DO?5?$CFd?0?$CFd?5?$CI?$CFd?5Skill?$CJ?6?$AA@ DB '='
	DB	'> %d,%d (%d Skill)', 0aH, 00H		; `string'
CONST	ENDS
;	COMDAT ??_C@_0BI@HNCLFAFG@Create?5Flight?5?$CFd?0?$CFd?5?$CFd?5?$AA@
CONST	SEGMENT
??_C@_0BI@HNCLFAFG@Create?5Flight?5?$CFd?0?$CFd?5?$CFd?5?$AA@ DB 'Create '
	DB	'Flight %d,%d %d ', 00H			; `string'
CONST	ENDS
;	COMDAT ??_C@_0EK@KKBJOKA@Cannot?5find?5Aircraft?5Type?5in?5Ins@
CONST	SEGMENT
??_C@_0EK@KKBJOKA@Cannot?5find?5Aircraft?5Type?5in?5Ins@ DB 'Cannot find '
	DB	'Aircraft Type in Instant Action Object Table (ia_air_objects)'
	DB	00H						; `string'
CONST	ENDS
;	COMDAT ?FLIGHT_PLAN_SPEED@?1??move_player_flight@instant_action@@SAXXZ@4MB
CONST	SEGMENT
?FLIGHT_PLAN_SPEED@?1??move_player_flight@instant_action@@SAXXZ@4MB DD 04413af87r ; 590.743 ; `instant_action::move_player_flight'::`2'::FLIGHT_PLAN_SPEED
CONST	ENDS
;	COMDAT ??_C@_0CC@LHJKAMAN@Cannot?5create?5FlightClass?5object@
CONST	SEGMENT
??_C@_0CC@LHJKAMAN@Cannot?5create?5FlightClass?5object@ DB 'Cannot create'
	DB	' FlightClass object', 0aH, 00H		; `string'
CONST	ENDS
;	COMDAT ??_C@_0BL@GGMJKOGP@Cannot?5create?5F16C?5Flight?6?$AA@
CONST	SEGMENT
??_C@_0BL@GGMJKOGP@Cannot?5create?5F16C?5Flight?6?$AA@ DB 'Cannot create '
	DB	'F16C Flight', 0aH, 00H			; `string'
CONST	ENDS
;	COMDAT ??_C@_02EEKLNOCO@c9?$AA@
CONST	SEGMENT
??_C@_02EEKLNOCO@c9?$AA@ DB 'c9', 00H			; `string'
CONST	ENDS
;	COMDAT ??_C@_02FPIENFIC@w9?$AA@
CONST	SEGMENT
??_C@_02FPIENFIC@w9?$AA@ DB 'w9', 00H			; `string'
CONST	ENDS
;	COMDAT ??_C@_02FNLAOPGP@c8?$AA@
CONST	SEGMENT
??_C@_02FNLAOPGP@c8?$AA@ DB 'c8', 00H			; `string'
CONST	ENDS
;	COMDAT ??_C@_02EGJPOEMD@w8?$AA@
CONST	SEGMENT
??_C@_02EGJPOEMD@w8?$AA@ DB 'w8', 00H			; `string'
CONST	ENDS
;	COMDAT ??_C@_02NKCIPDKA@c7?$AA@
CONST	SEGMENT
??_C@_02NKCIPDKA@c7?$AA@ DB 'c7', 00H			; `string'
CONST	ENDS
;	COMDAT ??_C@_02MBAHPIAM@w7?$AA@
CONST	SEGMENT
??_C@_02MBAHPIAM@w7?$AA@ DB 'w7', 00H			; `string'
CONST	ENDS
;	COMDAT ??_C@_02MDDDMCOB@c6?$AA@
CONST	SEGMENT
??_C@_02MDDDMCOB@c6?$AA@ DB 'c6', 00H			; `string'
CONST	ENDS
;	COMDAT ??_C@_02NIBMMJEN@w6?$AA@
CONST	SEGMENT
??_C@_02NIBMMJEN@w6?$AA@ DB 'w6', 00H			; `string'
CONST	ENDS
;	COMDAT ??_C@_02OIBOJBCC@c5?$AA@
CONST	SEGMENT
??_C@_02OIBOJBCC@c5?$AA@ DB 'c5', 00H			; `string'
CONST	ENDS
;	COMDAT ??_C@_02PDDBJKIO@w5?$AA@
CONST	SEGMENT
??_C@_02PDDBJKIO@w5?$AA@ DB 'w5', 00H			; `string'
CONST	ENDS
;	COMDAT ??_C@_02PBAFKAGD@c4?$AA@
CONST	SEGMENT
??_C@_02PBAFKAGD@c4?$AA@ DB 'c4', 00H			; `string'
CONST	ENDS
;	COMDAT ??_C@_02OKCKKLMP@w4?$AA@
CONST	SEGMENT
??_C@_02OKCKKLMP@w4?$AA@ DB 'w4', 00H			; `string'
CONST	ENDS
;	COMDAT ??_C@_02LOEEDGKE@c3?$AA@
CONST	SEGMENT
??_C@_02LOEEDGKE@c3?$AA@ DB 'c3', 00H			; `string'
CONST	ENDS
;	COMDAT ??_C@_02KFGLDNAI@w3?$AA@
CONST	SEGMENT
??_C@_02KFGLDNAI@w3?$AA@ DB 'w3', 00H			; `string'
CONST	ENDS
;	COMDAT ??_C@_02KHFPAHOF@c2?$AA@
CONST	SEGMENT
??_C@_02KHFPAHOF@c2?$AA@ DB 'c2', 00H			; `string'
CONST	ENDS
;	COMDAT ??_C@_02LMHAAMEJ@w2?$AA@
CONST	SEGMENT
??_C@_02LMHAAMEJ@w2?$AA@ DB 'w2', 00H			; `string'
CONST	ENDS
;	COMDAT ??_C@_02IMHCFECG@c1?$AA@
CONST	SEGMENT
??_C@_02IMHCFECG@c1?$AA@ DB 'c1', 00H			; `string'
CONST	ENDS
;	COMDAT ??_C@_02JHFNFPIK@w1?$AA@
CONST	SEGMENT
??_C@_02JHFNFPIK@w1?$AA@ DB 'w1', 00H			; `string'
CONST	ENDS
;	COMDAT ??_C@_02JFGJGFGH@c0?$AA@
CONST	SEGMENT
??_C@_02JFGJGFGH@c0?$AA@ DB 'c0', 00H			; `string'
CONST	ENDS
;	COMDAT ??_C@_02IOEGGOML@w0?$AA@
CONST	SEGMENT
??_C@_02IOEGGOML@w0?$AA@ DB 'w0', 00H			; `string'
CONST	ENDS
;	COMDAT ??_C@_08KINPOOEP@specific?$AA@
CONST	SEGMENT
??_C@_08KINPOOEP@specific?$AA@ DB 'specific', 00H	; `string'
CONST	ENDS
;	COMDAT ??_C@_07BFHALJJD@subtype?$AA@
CONST	SEGMENT
??_C@_07BFHALJJD@subtype?$AA@ DB 'subtype', 00H		; `string'
CONST	ENDS
;	COMDAT ??_C@_04GPMDFGEJ@type?$AA@
CONST	SEGMENT
??_C@_04GPMDFGEJ@type?$AA@ DB 'type', 00H		; `string'
CONST	ENDS
;	COMDAT ??_C@_08OFMENCFB@?$CFs?2?$CFc?4ia?$AA@
CONST	SEGMENT
??_C@_08OFMENCFB@?$CFs?2?$CFc?4ia?$AA@ DB '%s\%c.ia', 00H ; `string'
CONST	ENDS
;	COMDAT ??_C@_0BE@KEEAPDJC@Unknown?5Command?5?$CFs?6?$AA@
CONST	SEGMENT
??_C@_0BE@KEEAPDJC@Unknown?5Command?5?$CFs?6?$AA@ DB 'Unknown Command %s', 0aH
	DB	00H						; `string'
CONST	ENDS
;	COMDAT ??_C@_03PDKFKBO@ace?$AA@
CONST	SEGMENT
??_C@_03PDKFKBO@ace?$AA@ DB 'ace', 00H			; `string'
CONST	ENDS
;	COMDAT ??_C@_07JLFAODAA@veteran?$AA@
CONST	SEGMENT
??_C@_07JLFAODAA@veteran?$AA@ DB 'veteran', 00H		; `string'
CONST	ENDS
;	COMDAT ??_C@_06EIAPKDNP@rookie?$AA@
CONST	SEGMENT
??_C@_06EIAPKDNP@rookie?$AA@ DB 'rookie', 00H		; `string'
CONST	ENDS
;	COMDAT ??_C@_05NFAEKIDI@cadet?$AA@
CONST	SEGMENT
??_C@_05NFAEKIDI@cadet?$AA@ DB 'cadet', 00H		; `string'
CONST	ENDS
;	COMDAT ??_C@_07PAOAAHJB@recruit?$AA@
CONST	SEGMENT
??_C@_07PAOAAHJB@recruit?$AA@ DB 'recruit', 00H		; `string'
CONST	ENDS
;	COMDAT ??_C@_04BOEKNIJH@dumb?$AA@
CONST	SEGMENT
??_C@_04BOEKNIJH@dumb?$AA@ DB 'dumb', 00H		; `string'
CONST	ENDS
;	COMDAT ??_C@_04PLMLMMEO@full?$AA@
CONST	SEGMENT
??_C@_04PLMLMMEO@full?$AA@ DB 'full', 00H		; `string'
CONST	ENDS
;	COMDAT ??_C@_09DAPOABIO@noweapons?$AA@
CONST	SEGMENT
??_C@_09DAPOABIO@noweapons?$AA@ DB 'noweapons', 00H	; `string'
CONST	ENDS
;	COMDAT ??_C@_06GODDAGJL@ground?$AA@
CONST	SEGMENT
??_C@_06GODDAGJL@ground?$AA@ DB 'ground', 00H		; `string'
CONST	ENDS
;	COMDAT ??_C@_04JOCBCOLK@heat?$AA@
CONST	SEGMENT
??_C@_04JOCBCOLK@heat?$AA@ DB 'heat', 00H		; `string'
CONST	ENDS
;	COMDAT ??_C@_05EMNNHGFM@radar?$AA@
CONST	SEGMENT
??_C@_05EMNNHGFM@radar?$AA@ DB 'radar', 00H		; `string'
CONST	ENDS
;	COMDAT ??_C@_04IHFDPAO@guns?$AA@
CONST	SEGMENT
??_C@_04IHFDPAO@guns?$AA@ DB 'guns', 00H		; `string'
CONST	ENDS
;	COMDAT ??_C@_08IKJAOFHB@killthis?$AA@
CONST	SEGMENT
??_C@_08IKJAOFHB@killthis?$AA@ DB 'killthis', 00H	; `string'
CONST	ENDS
;	COMDAT ??_C@_07JAOEMGIL@neutral?$AA@
CONST	SEGMENT
??_C@_07JAOEMGIL@neutral?$AA@ DB 'neutral', 00H		; `string'
CONST	ENDS
;	COMDAT ??_C@_05ICAMJEGE@enemy?$AA@
CONST	SEGMENT
??_C@_05ICAMJEGE@enemy?$AA@ DB 'enemy', 00H		; `string'
CONST	ENDS
;	COMDAT ??_C@_06GFAFCNFM@allied?$AA@
CONST	SEGMENT
??_C@_06GFAFCNFM@allied?$AA@ DB 'allied', 00H		; `string'
CONST	ENDS
;	COMDAT ??_C@_0P@JOIGPIED@Unknown?5?$CFd?3?$CFs?6?$AA@
CONST	SEGMENT
??_C@_0P@JOIGPIED@Unknown?5?$CFd?3?$CFs?6?$AA@ DB 'Unknown %d:%s', 0aH, 00H ; `string'
CONST	ENDS
;	COMDAT ??_C@_06NBFPPGEG@vector?$AA@
CONST	SEGMENT
??_C@_06NBFPPGEG@vector?$AA@ DB 'vector', 00H		; `string'
CONST	ENDS
;	COMDAT ??_C@_04CGBIDIAH@feet?$AA@
CONST	SEGMENT
??_C@_04CGBIDIAH@feet?$AA@ DB 'feet', 00H		; `string'
CONST	ENDS
;	COMDAT ??_C@_03GFHGLKFI@kts?$AA@
CONST	SEGMENT
??_C@_03GFHGLKFI@kts?$AA@ DB 'kts', 00H			; `string'
CONST	ENDS
;	COMDAT ??_C@_03OFPLEBM@deg?$AA@
CONST	SEGMENT
??_C@_03OFPLEBM@deg?$AA@ DB 'deg', 00H			; `string'
CONST	ENDS
;	COMDAT ??_C@_02JEGPBHMG@km?$AA@
CONST	SEGMENT
??_C@_02JEGPBHMG@km?$AA@ DB 'km', 00H			; `string'
CONST	ENDS
;	COMDAT ??_C@_07GCICIJGK@minutes?$AA@
CONST	SEGMENT
??_C@_07GCICIJGK@minutes?$AA@ DB 'minutes', 00H		; `string'
CONST	ENDS
;	COMDAT ??_C@_01KDCPPGHE@r?$AA@
CONST	SEGMENT
??_C@_01KDCPPGHE@r?$AA@ DB 'r', 00H			; `string'
CONST	ENDS
;	COMDAT ??_C@_0L@KBLNOMHJ@?$CFs?2?$CFc?$CFd?4ia?$AA@
CONST	SEGMENT
??_C@_0L@KBLNOMHJ@?$CFs?2?$CFc?$CFd?4ia?$AA@ DB '%s\%c%d.ia', 00H ; `string'
CONST	ENDS
;	COMDAT ??_C@_06FHFOAHML@system?$AA@
CONST	SEGMENT
??_C@_06FHFOAHML@system?$AA@ DB 'system', 00H		; `string'
CONST	ENDS
;	COMDAT ??_7_System_error_category@std@@6B@
CONST	SEGMENT
??_7_System_error_category@std@@6B@ DD FLAT:??_R4_System_error_category@std@@6B@ ; std::_System_error_category::`vftable'
	DD	FLAT:??_E_System_error_category@std@@UAEPAXI@Z
	DD	FLAT:?name@_System_error_category@std@@UBEPBDXZ
	DD	FLAT:?message@_System_error_category@std@@UBE?AV?$basic_string@DU?$char_traits@D@std@@V?$allocator@D@2@@2@H@Z
	DD	FLAT:?default_error_condition@_System_error_category@std@@UBE?AVerror_condition@2@H@Z
	DD	FLAT:?equivalent@error_category@std@@UBE_NABVerror_code@2@H@Z
	DD	FLAT:?equivalent@error_category@std@@UBE_NHABVerror_condition@2@@Z
CONST	ENDS
;	COMDAT ??_C@_0BG@PADBLCHM@iostream?5stream?5error?$AA@
CONST	SEGMENT
??_C@_0BG@PADBLCHM@iostream?5stream?5error?$AA@ DB 'iostream stream error'
	DB	00H						; `string'
CONST	ENDS
;	COMDAT ??_C@_08LLGCOLLL@iostream?$AA@
CONST	SEGMENT
??_C@_08LLGCOLLL@iostream?$AA@ DB 'iostream', 00H	; `string'
CONST	ENDS
;	COMDAT ??_7_Iostream_error_category@std@@6B@
CONST	SEGMENT
??_7_Iostream_error_category@std@@6B@ DD FLAT:??_R4_Iostream_error_category@std@@6B@ ; std::_Iostream_error_category::`vftable'
	DD	FLAT:??_E_Iostream_error_category@std@@UAEPAXI@Z
	DD	FLAT:?name@_Iostream_error_category@std@@UBEPBDXZ
	DD	FLAT:?message@_Iostream_error_category@std@@UBE?AV?$basic_string@DU?$char_traits@D@std@@V?$allocator@D@2@@2@H@Z
	DD	FLAT:?default_error_condition@error_category@std@@UBE?AVerror_condition@2@H@Z
	DD	FLAT:?equivalent@error_category@std@@UBE_NABVerror_code@2@H@Z
	DD	FLAT:?equivalent@error_category@std@@UBE_NHABVerror_condition@2@@Z
CONST	ENDS
;	COMDAT ??_C@_0O@BFJCFAAK@unknown?5error?$AA@
CONST	SEGMENT
??_C@_0O@BFJCFAAK@unknown?5error?$AA@ DB 'unknown error', 00H ; `string'
CONST	ENDS
;	COMDAT ??_C@_07DCLBNMLN@generic?$AA@
CONST	SEGMENT
??_C@_07DCLBNMLN@generic?$AA@ DB 'generic', 00H		; `string'
CONST	ENDS
;	COMDAT ??_7_Generic_error_category@std@@6B@
CONST	SEGMENT
??_7_Generic_error_category@std@@6B@ DD FLAT:??_R4_Generic_error_category@std@@6B@ ; std::_Generic_error_category::`vftable'
	DD	FLAT:??_E_Generic_error_category@std@@UAEPAXI@Z
	DD	FLAT:?name@_Generic_error_category@std@@UBEPBDXZ
	DD	FLAT:?message@_Generic_error_category@std@@UBE?AV?$basic_string@DU?$char_traits@D@std@@V?$allocator@D@2@@2@H@Z
	DD	FLAT:?default_error_condition@error_category@std@@UBE?AVerror_condition@2@H@Z
	DD	FLAT:?equivalent@error_category@std@@UBE_NABVerror_code@2@H@Z
	DD	FLAT:?equivalent@error_category@std@@UBE_NHABVerror_condition@2@@Z
CONST	ENDS
;	COMDAT ??_7error_category@std@@6B@
CONST	SEGMENT
??_7error_category@std@@6B@ DD FLAT:??_R4error_category@std@@6B@ ; std::error_category::`vftable'
	DD	FLAT:??_Eerror_category@std@@UAEPAXI@Z
	DD	FLAT:__purecall
	DD	FLAT:__purecall
	DD	FLAT:?default_error_condition@error_category@std@@UBE?AVerror_condition@2@H@Z
	DD	FLAT:?equivalent@error_category@std@@UBE_NABVerror_code@2@H@Z
	DD	FLAT:?equivalent@error_category@std@@UBE_NHABVerror_condition@2@@Z
CONST	ENDS
;	COMDAT xdata$x
xdata$x	SEGMENT
__unwindtable$??$construct@PADAAPAD@?$allocator@D@std@@QAEXPAPADAAPAD@Z DD 0ffffffffH
	DD	FLAT:__unwindfunclet$??$construct@PADAAPAD@?$allocator@D@std@@QAEXPAPADAAPAD@Z$0
__ehfuncinfo$??$construct@PADAAPAD@?$allocator@D@std@@QAEXPAPADAAPAD@Z DD 019930522H
	DD	01H
	DD	FLAT:__unwindtable$??$construct@PADAAPAD@?$allocator@D@std@@QAEXPAPADAAPAD@Z
	DD	2 DUP(00H)
	DD	2 DUP(00H)
	DD	00H
	DD	01H
xdata$x	ENDS
xdata$x	SEGMENT
__unwindtable$?check_next_wave@instant_action@@SAXXZ DD 0ffffffffH
	DD	FLAT:__unwindfunclet$?check_next_wave@instant_action@@SAXXZ$0
__unwindtable$?create_player_flight@instant_action@@SAXXZ DD 0ffffffffH
	DD	FLAT:__unwindfunclet$?create_player_flight@instant_action@@SAXXZ$0
__unwindtable$?move_player_flight@instant_action@@SAXXZ DD 0ffffffffH
	DD	FLAT:__unwindfunclet$?move_player_flight@instant_action@@SAXXZ$0
	DD	0ffffffffH
	DD	FLAT:__unwindfunclet$?move_player_flight@instant_action@@SAXXZ$1
	DD	0ffffffffH
	DD	FLAT:__unwindfunclet$?move_player_flight@instant_action@@SAXXZ$2
__unwindtable$?create_flight@instant_action@@KAXAAUia_data@@@Z DD 0ffffffffH
	DD	FLAT:__unwindfunclet$?create_flight@instant_action@@KAXAAUia_data@@@Z$0
	DD	0ffffffffH
	DD	FLAT:__unwindfunclet$?create_flight@instant_action@@KAXAAUia_data@@@Z$1
	DD	0ffffffffH
	DD	FLAT:__unwindfunclet$?create_flight@instant_action@@KAXAAUia_data@@@Z$2
	DD	0ffffffffH
	DD	FLAT:__unwindfunclet$?create_flight@instant_action@@KAXAAUia_data@@@Z$3
__ehfuncinfo$?check_next_wave@instant_action@@SAXXZ DD 019930522H
	DD	01H
	DD	FLAT:__unwindtable$?check_next_wave@instant_action@@SAXXZ
	DD	2 DUP(00H)
	DD	2 DUP(00H)
	DD	00H
	DD	01H
__ehfuncinfo$?move_player_flight@instant_action@@SAXXZ DD 019930522H
	DD	03H
	DD	FLAT:__unwindtable$?move_player_flight@instant_action@@SAXXZ
	DD	2 DUP(00H)
	DD	2 DUP(00H)
	DD	00H
	DD	01H
__ehfuncinfo$?create_player_flight@instant_action@@SAXXZ DD 019930522H
	DD	01H
	DD	FLAT:__unwindtable$?create_player_flight@instant_action@@SAXXZ
	DD	2 DUP(00H)
	DD	2 DUP(00H)
	DD	00H
	DD	01H
__ehfuncinfo$?create_flight@instant_action@@KAXAAUia_data@@@Z DD 019930522H
	DD	04H
	DD	FLAT:__unwindtable$?create_flight@instant_action@@KAXAAUia_data@@@Z
	DD	2 DUP(00H)
	DD	2 DUP(00H)
	DD	00H
	DD	01H
xdata$x	ENDS
;	COMDAT xdata$x
xdata$x	SEGMENT
__catchsym$?_Copy@?$basic_string@DU?$char_traits@D@std@@V?$allocator@D@2@@std@@QAEXII@Z$5 DD 040H
	DD	00H
	DD	00H
	DD	FLAT:__catch$?_Copy@?$basic_string@DU?$char_traits@D@std@@V?$allocator@D@2@@std@@QAEXII@Z$0
__catchsym$?_Copy@?$basic_string@DU?$char_traits@D@std@@V?$allocator@D@2@@std@@QAEXII@Z$4 DD 040H
	DD	00H
	DD	00H
	DD	FLAT:__catch$?_Copy@?$basic_string@DU?$char_traits@D@std@@V?$allocator@D@2@@std@@QAEXII@Z$1
__unwindtable$?_Copy@?$basic_string@DU?$char_traits@D@std@@V?$allocator@D@2@@std@@QAEXII@Z DD 0ffffffffH
	DD	00H
	DD	0ffffffffH
	DD	00H
	DD	01H
	DD	00H
	DD	01H
	DD	00H
__ehfuncinfo$?_Copy@?$basic_string@DU?$char_traits@D@std@@V?$allocator@D@2@@std@@QAEXII@Z DD 019930522H
	DD	04H
	DD	FLAT:__unwindtable$?_Copy@?$basic_string@DU?$char_traits@D@std@@V?$allocator@D@2@@std@@QAEXII@Z
	DD	02H
	DD	FLAT:__tryblocktable$?_Copy@?$basic_string@DU?$char_traits@D@std@@V?$allocator@D@2@@std@@QAEXII@Z
	DD	2 DUP(00H)
	DD	00H
	DD	01H
__tryblocktable$?_Copy@?$basic_string@DU?$char_traits@D@std@@V?$allocator@D@2@@std@@QAEXII@Z DD 02H
	DD	02H
	DD	03H
	DD	01H
	DD	FLAT:__catchsym$?_Copy@?$basic_string@DU?$char_traits@D@std@@V?$allocator@D@2@@std@@QAEXII@Z$4
	DD	00H
	DD	00H
	DD	03H
	DD	01H
	DD	FLAT:__catchsym$?_Copy@?$basic_string@DU?$char_traits@D@std@@V?$allocator@D@2@@std@@QAEXII@Z$5
xdata$x	ENDS
CRT$XCU	SEGMENT
_allocator_arg$initializer$ DD FLAT:??__Eallocator_arg@std@@YAXXZ
CRT$XCU	ENDS
;	COMDAT CRT$XCU
CRT$XCU	SEGMENT
?_Generic_object$initializer$@?$_Error_objects@H@std@@2P6AXXZA DD FLAT:??__E?_Generic_object@?$_Error_objects@H@std@@2V_Generic_error_category@2@A@@YAXXZ ; std::_Error_objects<int>::_Generic_object$initializer$
CRT$XCU	ENDS
;	COMDAT CRT$XCU
CRT$XCU	SEGMENT
?_Iostream_object$initializer$@?$_Error_objects@H@std@@2P6AXXZA DD FLAT:??__E?_Iostream_object@?$_Error_objects@H@std@@2V_Iostream_error_category@2@A@@YAXXZ ; std::_Error_objects<int>::_Iostream_object$initializer$
CRT$XCU	ENDS
;	COMDAT CRT$XCU
CRT$XCU	SEGMENT
?_System_object$initializer$@?$_Error_objects@H@std@@2P6AXXZA DD FLAT:??__E?_System_object@?$_Error_objects@H@std@@2V_System_error_category@2@A@@YAXXZ ; std::_Error_objects<int>::_System_object$initializer$
CRT$XCU	ENDS
;	COMDAT CRT$XCU
CRT$XCU	SEGMENT
?id$initializer$@?$num_put@DV?$back_insert_iterator@V?$basic_string@DU?$char_traits@D@std@@V?$allocator@D@2@@std@@@std@@@std@@2P6AXXZA DD FLAT:??__E?id@?$num_put@DV?$back_insert_iterator@V?$basic_string@DU?$char_traits@D@std@@V?$allocator@D@2@@std@@@std@@@std@@2V0locale@2@A@@YAXXZ ; std::num_put<char,std::back_insert_iterator<std::basic_string<char,std::char_traits<char>,std::allocator<char> > > >::id$initializer$
CRT$XCU	ENDS
;	COMDAT CRT$XCU
CRT$XCU	SEGMENT
?id$initializer$@?$num_put@_WV?$back_insert_iterator@V?$basic_string@_WU?$char_traits@_W@std@@V?$allocator@_W@2@@std@@@std@@@std@@2P6AXXZA DD FLAT:??__E?id@?$num_put@_WV?$back_insert_iterator@V?$basic_string@_WU?$char_traits@_W@std@@V?$allocator@_W@2@@std@@@std@@@std@@2V0locale@2@A@@YAXXZ ; std::num_put<wchar_t,std::back_insert_iterator<std::basic_string<wchar_t,std::char_traits<wchar_t>,std::allocator<wchar_t> > > >::id$initializer$
CRT$XCU	ENDS
;	COMDAT CRT$XCU
CRT$XCU	SEGMENT
?id$initializer$@?$numpunct@D@std@@2P6AXXZA DD FLAT:??__E?id@?$numpunct@D@std@@2V0locale@2@A@@YAXXZ ; std::numpunct<char>::id$initializer$
CRT$XCU	ENDS
;	COMDAT CRT$XCU
CRT$XCU	SEGMENT
?id$initializer$@?$numpunct@_W@std@@2P6AXXZA DD FLAT:??__E?id@?$numpunct@_W@std@@2V0locale@2@A@@YAXXZ ; std::numpunct<wchar_t>::id$initializer$
CRT$XCU	ENDS
; Function compile flags: /Odtp
; File c:\program files (x86)\microsoft visual studio 11.0\vc\include\xmemory0
;	COMDAT ??$destroy@PAD@?$allocator@D@std@@QAEXPAPAD@Z
_TEXT	SEGMENT
_this$ = -4						; size = 4
__Ptr$ = 8						; size = 4
??$destroy@PAD@?$allocator@D@std@@QAEXPAPAD@Z PROC	; std::allocator<char>::destroy<char *>, COMDAT
; _this$ = ecx

; 621  : 		void destroy(_Uty *_Ptr)

	push	ebp
	mov	ebp, esp
	push	ecx
	mov	DWORD PTR _this$[ebp], ecx

; 622  : 		{	// destroy object at _Ptr
; 623  : 		_Ptr->~_Uty();
; 624  : 		}

	mov	esp, ebp
	pop	ebp
	ret	4
??$destroy@PAD@?$allocator@D@std@@QAEXPAPAD@Z ENDP	; std::allocator<char>::destroy<char *>
_TEXT	ENDS
; Function compile flags: /Odtp
; File c:\program files (x86)\microsoft visual studio 11.0\vc\include\xmemory0
;	COMDAT ??$construct@PADAAPAD@?$allocator@D@std@@QAEXPAPADAAPAD@Z
_TEXT	SEGMENT
$T2 = -28						; size = 4
_this$ = -24						; size = 4
tv73 = -20						; size = 4
$T3 = -16						; size = 4
__$EHRec$ = -12						; size = 12
__Ptr$ = 8						; size = 4
__V0$ = 12						; size = 4
??$construct@PADAAPAD@?$allocator@D@std@@QAEXPAPADAAPAD@Z PROC ; std::allocator<char>::construct<char *,char * &>, COMDAT
; _this$ = ecx

; 617  : _VARIADIC_EXPAND_0X(_ALLOC_MEMBER_CONSTRUCT, , , , )

	push	ebp
	mov	ebp, esp
	push	-1
	push	__ehhandler$??$construct@PADAAPAD@?$allocator@D@std@@QAEXPAPADAAPAD@Z
	mov	eax, DWORD PTR fs:0
	push	eax
	sub	esp, 16					; 00000010H
	mov	eax, DWORD PTR ___security_cookie
	xor	eax, ebp
	push	eax
	lea	eax, DWORD PTR __$EHRec$[ebp]
	mov	DWORD PTR fs:0, eax
	mov	DWORD PTR _this$[ebp], ecx
	mov	eax, DWORD PTR __Ptr$[ebp]
	push	eax
	push	4
	call	??2@YAPAXIPAX@Z				; operator new
	add	esp, 8
	mov	DWORD PTR $T3[ebp], eax
	mov	DWORD PTR __$EHRec$[ebp+8], 0
	cmp	DWORD PTR $T3[ebp], 0
	je	SHORT $LN3@construct
	mov	ecx, DWORD PTR __V0$[ebp]
	push	ecx
	call	??$forward@AAPAD@std@@YAAAPADAAPAD@Z	; std::forward<char * &>
	add	esp, 4
	mov	edx, DWORD PTR $T3[ebp]
	mov	eax, DWORD PTR [eax]
	mov	DWORD PTR [edx], eax
	mov	ecx, DWORD PTR $T3[ebp]
	mov	DWORD PTR tv73[ebp], ecx
	jmp	SHORT $LN4@construct
$LN3@construct:
	mov	DWORD PTR tv73[ebp], 0
$LN4@construct:
	mov	edx, DWORD PTR tv73[ebp]
	mov	DWORD PTR $T2[ebp], edx
	mov	DWORD PTR __$EHRec$[ebp+8], -1
	mov	ecx, DWORD PTR __$EHRec$[ebp]
	mov	DWORD PTR fs:0, ecx
	pop	ecx
	mov	esp, ebp
	pop	ebp
	ret	8
_TEXT	ENDS
;	COMDAT text$x
text$x	SEGMENT
__unwindfunclet$??$construct@PADAAPAD@?$allocator@D@std@@QAEXPAPADAAPAD@Z$0:
	mov	eax, DWORD PTR __Ptr$[ebp]
	push	eax
	mov	eax, DWORD PTR $T3[ebp]
	push	eax
	call	??3@YAXPAX0@Z				; operator delete
	add	esp, 8
	ret	0
__ehhandler$??$construct@PADAAPAD@?$allocator@D@std@@QAEXPAPADAAPAD@Z:
	mov	edx, DWORD PTR [esp+8]
	lea	eax, DWORD PTR [edx+12]
	mov	ecx, DWORD PTR [edx-20]
	xor	ecx, eax
	call	@__security_check_cookie@4
	mov	eax, OFFSET __ehfuncinfo$??$construct@PADAAPAD@?$allocator@D@std@@QAEXPAPADAAPAD@Z
	jmp	___CxxFrameHandler3
text$x	ENDS
??$construct@PADAAPAD@?$allocator@D@std@@QAEXPAPADAAPAD@Z ENDP ; std::allocator<char>::construct<char *,char * &>
; Function compile flags: /Odtp
; File c:\program files (x86)\microsoft visual studio 11.0\vc\include\xlocnum
;	COMDAT ??__E?id@?$numpunct@_W@std@@2V0locale@2@A@@YAXXZ
text$yc	SEGMENT
??__E?id@?$numpunct@_W@std@@2V0locale@2@A@@YAXXZ PROC	; `dynamic initializer for 'std::numpunct<wchar_t>::id'', COMDAT

; 155  : 		void _Getvals(wchar_t, const lconv *_Ptr, _Locinfo::_Cvtvec)

	push	ebp
	mov	ebp, esp
	push	0
	mov	ecx, OFFSET ?id@?$numpunct@_W@std@@2V0locale@2@A ; std::numpunct<wchar_t>::id
	call	??0id@locale@std@@QAE@I@Z		; std::locale::id::id
	pop	ebp
	ret	0
??__E?id@?$numpunct@_W@std@@2V0locale@2@A@@YAXXZ ENDP	; `dynamic initializer for 'std::numpunct<wchar_t>::id''
text$yc	ENDS
; Function compile flags: /Odtp
; File c:\program files (x86)\microsoft visual studio 11.0\vc\include\xlocnum
;	COMDAT ??__E?id@?$numpunct@D@std@@2V0locale@2@A@@YAXXZ
text$yc	SEGMENT
??__E?id@?$numpunct@D@std@@2V0locale@2@A@@YAXXZ PROC	; `dynamic initializer for 'std::numpunct<char>::id'', COMDAT

; 155  : 		void _Getvals(wchar_t, const lconv *_Ptr, _Locinfo::_Cvtvec)

	push	ebp
	mov	ebp, esp
	push	0
	mov	ecx, OFFSET ?id@?$numpunct@D@std@@2V0locale@2@A ; std::numpunct<char>::id
	call	??0id@locale@std@@QAE@I@Z		; std::locale::id::id
	pop	ebp
	ret	0
??__E?id@?$numpunct@D@std@@2V0locale@2@A@@YAXXZ ENDP	; `dynamic initializer for 'std::numpunct<char>::id''
text$yc	ENDS
; Function compile flags: /Odtp
; File c:\program files (x86)\microsoft visual studio 11.0\vc\include\xlocnum
;	COMDAT ??__E?id@?$num_put@_WV?$back_insert_iterator@V?$basic_string@_WU?$char_traits@_W@std@@V?$allocator@_W@2@@std@@@std@@@std@@2V0locale@2@A@@YAXXZ
text$yc	SEGMENT
??__E?id@?$num_put@_WV?$back_insert_iterator@V?$basic_string@_WU?$char_traits@_W@std@@V?$allocator@_W@2@@std@@@std@@@std@@2V0locale@2@A@@YAXXZ PROC ; `dynamic initializer for 'std::num_put<wchar_t,std::back_insert_iterator<std::basic_string<wchar_t,std::char_traits<wchar_t>,std::allocator<wchar_t> > > >::id'', COMDAT

; 155  : 		void _Getvals(wchar_t, const lconv *_Ptr, _Locinfo::_Cvtvec)

	push	ebp
	mov	ebp, esp
	push	0
	mov	ecx, OFFSET ?id@?$num_put@_WV?$back_insert_iterator@V?$basic_string@_WU?$char_traits@_W@std@@V?$allocator@_W@2@@std@@@std@@@std@@2V0locale@2@A ; std::num_put<wchar_t,std::back_insert_iterator<std::basic_string<wchar_t,std::char_traits<wchar_t>,std::allocator<wchar_t> > > >::id
	call	??0id@locale@std@@QAE@I@Z		; std::locale::id::id
	pop	ebp
	ret	0
??__E?id@?$num_put@_WV?$back_insert_iterator@V?$basic_string@_WU?$char_traits@_W@std@@V?$allocator@_W@2@@std@@@std@@@std@@2V0locale@2@A@@YAXXZ ENDP ; `dynamic initializer for 'std::num_put<wchar_t,std::back_insert_iterator<std::basic_string<wchar_t,std::char_traits<wchar_t>,std::allocator<wchar_t> > > >::id''
text$yc	ENDS
; Function compile flags: /Odtp
; File c:\program files (x86)\microsoft visual studio 11.0\vc\include\xlocnum
;	COMDAT ??__E?id@?$num_put@DV?$back_insert_iterator@V?$basic_string@DU?$char_traits@D@std@@V?$allocator@D@2@@std@@@std@@@std@@2V0locale@2@A@@YAXXZ
text$yc	SEGMENT
??__E?id@?$num_put@DV?$back_insert_iterator@V?$basic_string@DU?$char_traits@D@std@@V?$allocator@D@2@@std@@@std@@@std@@2V0locale@2@A@@YAXXZ PROC ; `dynamic initializer for 'std::num_put<char,std::back_insert_iterator<std::basic_string<char,std::char_traits<char>,std::allocator<char> > > >::id'', COMDAT

; 155  : 		void _Getvals(wchar_t, const lconv *_Ptr, _Locinfo::_Cvtvec)

	push	ebp
	mov	ebp, esp
	push	0
	mov	ecx, OFFSET ?id@?$num_put@DV?$back_insert_iterator@V?$basic_string@DU?$char_traits@D@std@@V?$allocator@D@2@@std@@@std@@@std@@2V0locale@2@A ; std::num_put<char,std::back_insert_iterator<std::basic_string<char,std::char_traits<char>,std::allocator<char> > > >::id
	call	??0id@locale@std@@QAE@I@Z		; std::locale::id::id
	pop	ebp
	ret	0
??__E?id@?$num_put@DV?$back_insert_iterator@V?$basic_string@DU?$char_traits@D@std@@V?$allocator@D@2@@std@@@std@@@std@@2V0locale@2@A@@YAXXZ ENDP ; `dynamic initializer for 'std::num_put<char,std::back_insert_iterator<std::basic_string<char,std::char_traits<char>,std::allocator<char> > > >::id''
text$yc	ENDS
; Function compile flags: /Odtp
; File c:\program files (x86)\microsoft visual studio 11.0\vc\include\xmemory0
;	COMDAT ??$destroy@PAD@?$allocator_traits@V?$allocator@D@std@@@std@@SAXAAV?$allocator@D@1@PAPAD@Z
_TEXT	SEGMENT
__Al$ = 8						; size = 4
__Ptr$ = 12						; size = 4
??$destroy@PAD@?$allocator_traits@V?$allocator@D@std@@@std@@SAXAAV?$allocator@D@1@PAPAD@Z PROC ; std::allocator_traits<std::allocator<char> >::destroy<char *>, COMDAT

; 755  : 		static void destroy(_Alloc& _Al, _Uty *_Ptr)

	push	ebp
	mov	ebp, esp

; 756  : 		{	// destroy object at _Ptr
; 757  : 		_Al.destroy(_Ptr);

	mov	eax, DWORD PTR __Ptr$[ebp]
	push	eax
	mov	ecx, DWORD PTR __Al$[ebp]
	call	??$destroy@PAD@?$allocator@D@std@@QAEXPAPAD@Z ; std::allocator<char>::destroy<char *>

; 758  : 		}

	pop	ebp
	ret	0
??$destroy@PAD@?$allocator_traits@V?$allocator@D@std@@@std@@SAXAAV?$allocator@D@1@PAPAD@Z ENDP ; std::allocator_traits<std::allocator<char> >::destroy<char *>
_TEXT	ENDS
; Function compile flags: /Odtp
; File c:\program files (x86)\microsoft visual studio 11.0\vc\include\xmemory0
;	COMDAT ??$construct@PADAAPAD@?$allocator_traits@V?$allocator@D@std@@@std@@SAXAAV?$allocator@D@1@PAPADAAPAD@Z
_TEXT	SEGMENT
__Al$ = 8						; size = 4
__Ptr$ = 12						; size = 4
__V0$ = 16						; size = 4
??$construct@PADAAPAD@?$allocator_traits@V?$allocator@D@std@@@std@@SAXAAV?$allocator@D@1@PAPADAAPAD@Z PROC ; std::allocator_traits<std::allocator<char> >::construct<char *,char * &>, COMDAT

; 751  : _VARIADIC_EXPAND_0X(_ALLOC_TRAITS_SPECIAL_CONSTRUCT, , , , )

	push	ebp
	mov	ebp, esp
	mov	eax, DWORD PTR __V0$[ebp]
	push	eax
	call	??$forward@AAPAD@std@@YAAAPADAAPAD@Z	; std::forward<char * &>
	add	esp, 4
	push	eax
	mov	ecx, DWORD PTR __Ptr$[ebp]
	push	ecx
	mov	ecx, DWORD PTR __Al$[ebp]
	call	??$construct@PADAAPAD@?$allocator@D@std@@QAEXPAPADAAPAD@Z ; std::allocator<char>::construct<char *,char * &>
	pop	ebp
	ret	0
??$construct@PADAAPAD@?$allocator_traits@V?$allocator@D@std@@@std@@SAXAAV?$allocator@D@1@PAPADAAPAD@Z ENDP ; std::allocator_traits<std::allocator<char> >::construct<char *,char * &>
_TEXT	ENDS
; Function compile flags: /Odtp
; File c:\program files (x86)\microsoft visual studio 11.0\vc\include\type_traits
;	COMDAT ??$forward@AAPAD@std@@YAAAPADAAPAD@Z
_TEXT	SEGMENT
__Arg$ = 8						; size = 4
??$forward@AAPAD@std@@YAAAPADAAPAD@Z PROC		; std::forward<char * &>, COMDAT

; 1775 : 	{	// forward an lvalue

	push	ebp
	mov	ebp, esp

; 1776 : 	return (static_cast<_Ty&&>(_Arg));

	mov	eax, DWORD PTR __Arg$[ebp]

; 1777 : 	}

	pop	ebp
	ret	0
??$forward@AAPAD@std@@YAAAPADAAPAD@Z ENDP		; std::forward<char * &>
_TEXT	ENDS
; Function compile flags: /Odtp
;	COMDAT ??__F?_System_object@?$_Error_objects@H@std@@2V_System_error_category@2@A@@YAXXZ
text$yd	SEGMENT
??__F?_System_object@?$_Error_objects@H@std@@2V_System_error_category@2@A@@YAXXZ PROC ; `dynamic atexit destructor for 'std::_Error_objects<int>::_System_object'', COMDAT
	push	ebp
	mov	ebp, esp
	mov	ecx, OFFSET ?_System_object@?$_Error_objects@H@std@@2V_System_error_category@2@A ; std::_Error_objects<int>::_System_object
	call	??1_System_error_category@std@@UAE@XZ
	pop	ebp
	ret	0
??__F?_System_object@?$_Error_objects@H@std@@2V_System_error_category@2@A@@YAXXZ ENDP ; `dynamic atexit destructor for 'std::_Error_objects<int>::_System_object''
text$yd	ENDS
; Function compile flags: /Odtp
; File c:\program files (x86)\microsoft visual studio 11.0\vc\include\xmemory0
;	COMDAT ??__E?_System_object@?$_Error_objects@H@std@@2V_System_error_category@2@A@@YAXXZ
text$yc	SEGMENT
??__E?_System_object@?$_Error_objects@H@std@@2V_System_error_category@2@A@@YAXXZ PROC ; `dynamic initializer for 'std::_Error_objects<int>::_System_object'', COMDAT

; 627  : 		{	// estimate maximum array size

	push	ebp
	mov	ebp, esp
	mov	ecx, OFFSET ?_System_object@?$_Error_objects@H@std@@2V_System_error_category@2@A ; std::_Error_objects<int>::_System_object
	call	??0_System_error_category@std@@QAE@XZ	; std::_System_error_category::_System_error_category
	push	OFFSET ??__F?_System_object@?$_Error_objects@H@std@@2V_System_error_category@2@A@@YAXXZ ; `dynamic atexit destructor for 'std::_Error_objects<int>::_System_object''
	call	_atexit
	add	esp, 4
	pop	ebp
	ret	0
??__E?_System_object@?$_Error_objects@H@std@@2V_System_error_category@2@A@@YAXXZ ENDP ; `dynamic initializer for 'std::_Error_objects<int>::_System_object''
text$yc	ENDS
; Function compile flags: /Odtp
;	COMDAT ??__F?_Iostream_object@?$_Error_objects@H@std@@2V_Iostream_error_category@2@A@@YAXXZ
text$yd	SEGMENT
??__F?_Iostream_object@?$_Error_objects@H@std@@2V_Iostream_error_category@2@A@@YAXXZ PROC ; `dynamic atexit destructor for 'std::_Error_objects<int>::_Iostream_object'', COMDAT
	push	ebp
	mov	ebp, esp
	mov	ecx, OFFSET ?_Iostream_object@?$_Error_objects@H@std@@2V_Iostream_error_category@2@A ; std::_Error_objects<int>::_Iostream_object
	call	??1_Iostream_error_category@std@@UAE@XZ
	pop	ebp
	ret	0
??__F?_Iostream_object@?$_Error_objects@H@std@@2V_Iostream_error_category@2@A@@YAXXZ ENDP ; `dynamic atexit destructor for 'std::_Error_objects<int>::_Iostream_object''
text$yd	ENDS
; Function compile flags: /Odtp
; File c:\program files (x86)\microsoft visual studio 11.0\vc\include\xmemory0
;	COMDAT ??__E?_Iostream_object@?$_Error_objects@H@std@@2V_Iostream_error_category@2@A@@YAXXZ
text$yc	SEGMENT
??__E?_Iostream_object@?$_Error_objects@H@std@@2V_Iostream_error_category@2@A@@YAXXZ PROC ; `dynamic initializer for 'std::_Error_objects<int>::_Iostream_object'', COMDAT

; 627  : 		{	// estimate maximum array size

	push	ebp
	mov	ebp, esp
	mov	ecx, OFFSET ?_Iostream_object@?$_Error_objects@H@std@@2V_Iostream_error_category@2@A ; std::_Error_objects<int>::_Iostream_object
	call	??0_Iostream_error_category@std@@QAE@XZ	; std::_Iostream_error_category::_Iostream_error_category
	push	OFFSET ??__F?_Iostream_object@?$_Error_objects@H@std@@2V_Iostream_error_category@2@A@@YAXXZ ; `dynamic atexit destructor for 'std::_Error_objects<int>::_Iostream_object''
	call	_atexit
	add	esp, 4
	pop	ebp
	ret	0
??__E?_Iostream_object@?$_Error_objects@H@std@@2V_Iostream_error_category@2@A@@YAXXZ ENDP ; `dynamic initializer for 'std::_Error_objects<int>::_Iostream_object''
text$yc	ENDS
; Function compile flags: /Odtp
;	COMDAT ??__F?_Generic_object@?$_Error_objects@H@std@@2V_Generic_error_category@2@A@@YAXXZ
text$yd	SEGMENT
??__F?_Generic_object@?$_Error_objects@H@std@@2V_Generic_error_category@2@A@@YAXXZ PROC ; `dynamic atexit destructor for 'std::_Error_objects<int>::_Generic_object'', COMDAT
	push	ebp
	mov	ebp, esp
	mov	ecx, OFFSET ?_Generic_object@?$_Error_objects@H@std@@2V_Generic_error_category@2@A ; std::_Error_objects<int>::_Generic_object
	call	??1_Generic_error_category@std@@UAE@XZ
	pop	ebp
	ret	0
??__F?_Generic_object@?$_Error_objects@H@std@@2V_Generic_error_category@2@A@@YAXXZ ENDP ; `dynamic atexit destructor for 'std::_Error_objects<int>::_Generic_object''
text$yd	ENDS
; Function compile flags: /Odtp
; File c:\program files (x86)\microsoft visual studio 11.0\vc\include\xmemory0
;	COMDAT ??__E?_Generic_object@?$_Error_objects@H@std@@2V_Generic_error_category@2@A@@YAXXZ
text$yc	SEGMENT
??__E?_Generic_object@?$_Error_objects@H@std@@2V_Generic_error_category@2@A@@YAXXZ PROC ; `dynamic initializer for 'std::_Error_objects<int>::_Generic_object'', COMDAT

; 627  : 		{	// estimate maximum array size

	push	ebp
	mov	ebp, esp
	mov	ecx, OFFSET ?_Generic_object@?$_Error_objects@H@std@@2V_Generic_error_category@2@A ; std::_Error_objects<int>::_Generic_object
	call	??0_Generic_error_category@std@@QAE@XZ	; std::_Generic_error_category::_Generic_error_category
	push	OFFSET ??__F?_Generic_object@?$_Error_objects@H@std@@2V_Generic_error_category@2@A@@YAXXZ ; `dynamic atexit destructor for 'std::_Error_objects<int>::_Generic_object''
	call	_atexit
	add	esp, 4
	pop	ebp
	ret	0
??__E?_Generic_object@?$_Error_objects@H@std@@2V_Generic_error_category@2@A@@YAXXZ ENDP ; `dynamic initializer for 'std::_Error_objects<int>::_Generic_object''
text$yc	ENDS
; Function compile flags: /Odtp
; File c:\program files (x86)\microsoft visual studio 11.0\vc\include\xmemory0
;	COMDAT ??$_Allocate@D@std@@YAPADIPAD@Z
_TEXT	SEGMENT
__Ptr$ = -4						; size = 4
__Count$ = 8						; size = 4
___formal$ = 12						; size = 4
??$_Allocate@D@std@@YAPADIPAD@Z PROC			; std::_Allocate<char>, COMDAT

; 22   : 	{	// allocate storage for _Count elements of type _Ty

	push	ebp
	mov	ebp, esp
	push	ecx

; 23   : 	void *_Ptr = 0;

	mov	DWORD PTR __Ptr$[ebp], 0

; 24   : 
; 25   : 	if (_Count == 0)

	cmp	DWORD PTR __Count$[ebp], 0
	jne	SHORT $LN4@Allocate

; 26   : 		;
; 27   : 	else if (((size_t)(-1) / sizeof (_Ty) < _Count)

	jmp	SHORT $LN3@Allocate
$LN4@Allocate:

; 28   : 		|| (_Ptr = ::operator new(_Count * sizeof (_Ty))) == 0)

	cmp	DWORD PTR __Count$[ebp], -1
	ja	SHORT $LN1@Allocate
	mov	eax, DWORD PTR __Count$[ebp]
	push	eax
	call	??2@YAPAXI@Z				; operator new
	add	esp, 4
	mov	DWORD PTR __Ptr$[ebp], eax
	cmp	DWORD PTR __Ptr$[ebp], 0
	jne	SHORT $LN3@Allocate
$LN1@Allocate:

; 29   : 		_Xbad_alloc();	// report no memory

	call	?_Xbad_alloc@std@@YAXXZ			; std::_Xbad_alloc
$LN3@Allocate:

; 30   : 
; 31   : 	return ((_Ty *)_Ptr);

	mov	eax, DWORD PTR __Ptr$[ebp]
$LN6@Allocate:

; 32   : 	}

	mov	esp, ebp
	pop	ebp
	ret	0
??$_Allocate@D@std@@YAPADIPAD@Z ENDP			; std::_Allocate<char>
_TEXT	ENDS
; Function compile flags: /Odtp
; File c:\program files (x86)\microsoft visual studio 11.0\vc\include\xstddef
;	COMDAT ??$addressof@D@std@@YAPADAAD@Z
_TEXT	SEGMENT
__Val$ = 8						; size = 4
??$addressof@D@std@@YAPADAAD@Z PROC			; std::addressof<char>, COMDAT

; 85   : 	{	// return address of _Val

	push	ebp
	mov	ebp, esp

; 86   : 	return (reinterpret_cast<_Ty *>(
; 87   : 		(&const_cast<char&>(
; 88   : 		reinterpret_cast<const volatile char&>(_Val)))));

	mov	eax, DWORD PTR __Val$[ebp]

; 89   : 	}

	pop	ebp
	ret	0
??$addressof@D@std@@YAPADAAD@Z ENDP			; std::addressof<char>
_TEXT	ENDS
; Function compile flags: /Odtp
; File c:\program files (x86)\microsoft visual studio 11.0\vc\include\xmemory0
;	COMDAT ??$destroy@PAD@?$_Wrap_alloc@V?$allocator@D@std@@@std@@QAEXPAPAD@Z
_TEXT	SEGMENT
_this$ = -4						; size = 4
__Ptr$ = 8						; size = 4
??$destroy@PAD@?$_Wrap_alloc@V?$allocator@D@std@@@std@@QAEXPAPAD@Z PROC ; std::_Wrap_alloc<std::allocator<char> >::destroy<char *>, COMDAT
; _this$ = ecx

; 907  : 		void destroy(_Ty *_Ptr)

	push	ebp
	mov	ebp, esp
	push	ecx
	mov	DWORD PTR _this$[ebp], ecx

; 908  : 		{	// destroy object at _Ptr
; 909  : 		_Mytraits::destroy(*this, _Ptr);

	mov	eax, DWORD PTR __Ptr$[ebp]
	push	eax
	mov	ecx, DWORD PTR _this$[ebp]
	push	ecx
	call	??$destroy@PAD@?$allocator_traits@V?$allocator@D@std@@@std@@SAXAAV?$allocator@D@1@PAPAD@Z ; std::allocator_traits<std::allocator<char> >::destroy<char *>
	add	esp, 8

; 910  : 		}

	mov	esp, ebp
	pop	ebp
	ret	4
??$destroy@PAD@?$_Wrap_alloc@V?$allocator@D@std@@@std@@QAEXPAPAD@Z ENDP ; std::_Wrap_alloc<std::allocator<char> >::destroy<char *>
_TEXT	ENDS
; Function compile flags: /Odtp
; File c:\program files (x86)\microsoft visual studio 11.0\vc\include\xmemory0
;	COMDAT ??$construct@PADAAPAD@?$_Wrap_alloc@V?$allocator@D@std@@@std@@QAEXPAPADAAPAD@Z
_TEXT	SEGMENT
_this$ = -4						; size = 4
__Ptr$ = 8						; size = 4
__V0$ = 12						; size = 4
??$construct@PADAAPAD@?$_Wrap_alloc@V?$allocator@D@std@@@std@@QAEXPAPADAAPAD@Z PROC ; std::_Wrap_alloc<std::allocator<char> >::construct<char *,char * &>, COMDAT
; _this$ = ecx

; 903  : _VARIADIC_EXPAND_0X(_WRAP_ALLOC_CONSTRUCT, , , , )

	push	ebp
	mov	ebp, esp
	push	ecx
	mov	DWORD PTR _this$[ebp], ecx
	mov	eax, DWORD PTR __V0$[ebp]
	push	eax
	call	??$forward@AAPAD@std@@YAAAPADAAPAD@Z	; std::forward<char * &>
	add	esp, 4
	push	eax
	mov	ecx, DWORD PTR __Ptr$[ebp]
	push	ecx
	mov	edx, DWORD PTR _this$[ebp]
	push	edx
	call	??$construct@PADAAPAD@?$allocator_traits@V?$allocator@D@std@@@std@@SAXAAV?$allocator@D@1@PAPADAAPAD@Z ; std::allocator_traits<std::allocator<char> >::construct<char *,char * &>
	add	esp, 12					; 0000000cH
	mov	esp, ebp
	pop	ebp
	ret	8
??$construct@PADAAPAD@?$_Wrap_alloc@V?$allocator@D@std@@@std@@QAEXPAPADAAPAD@Z ENDP ; std::_Wrap_alloc<std::allocator<char> >::construct<char *,char * &>
_TEXT	ENDS
; Function compile flags: /Odtp
; File c:\users\zhitao li\documents\visual studio 2012\projects\freefalcon\campaign\campupd\iaction.cpp
_TEXT	SEGMENT
?set_campaign_time@instant_action@@SAXXZ PROC		; instant_action::set_campaign_time

; 236  : {

	push	ebp
	mov	ebp, esp

; 237  : 	SetTime (start_time * 1000);

	mov	eax, DWORD PTR ?start_time@instant_action@@1JA ; instant_action::start_time
	imul	eax, 1000				; 000003e8H
	push	eax
	call	?SetTime@@YAXK@Z			; SetTime
	add	esp, 4

; 238  : }

	pop	ebp
	ret	0
?set_campaign_time@instant_action@@SAXXZ ENDP		; instant_action::set_campaign_time
_TEXT	ENDS
; Function compile flags: /Odtp
; File c:\users\zhitao li\documents\visual studio 2012\projects\freefalcon\campaign\campupd\iaction.cpp
_TEXT	SEGMENT
?get_start_time@instant_action@@SAJXZ PROC		; instant_action::get_start_time

; 227  : {

	push	ebp
	mov	ebp, esp

; 228  : 	return start_time;

	mov	eax, DWORD PTR ?start_time@instant_action@@1JA ; instant_action::start_time

; 229  : }

	pop	ebp
	ret	0
?get_start_time@instant_action@@SAJXZ ENDP		; instant_action::get_start_time
_TEXT	ENDS
; Function compile flags: /Odtp
; File c:\users\zhitao li\documents\visual studio 2012\projects\freefalcon\campaign\campupd\iaction.cpp
_TEXT	SEGMENT
_t$ = 8							; size = 4
?set_start_time@instant_action@@SAXJ@Z PROC		; instant_action::set_start_time

; 218  : {

	push	ebp
	mov	ebp, esp

; 219  : 	start_time = t;

	mov	eax, DWORD PTR _t$[ebp]
	mov	DWORD PTR ?start_time@instant_action@@1JA, eax ; instant_action::start_time

; 220  : }

	pop	ebp
	ret	0
?set_start_time@instant_action@@SAXJ@Z ENDP		; instant_action::set_start_time
_TEXT	ENDS
; Function compile flags: /Odtp
; File c:\users\zhitao li\documents\visual studio 2012\projects\freefalcon\campaign\campupd\iaction.cpp
_TEXT	SEGMENT
_x$ = 8							; size = 4
_y$ = 12						; size = 4
?get_start_position@instant_action@@SAXAAM0@Z PROC	; instant_action::get_start_position

; 255  : {

	push	ebp
	mov	ebp, esp

; 256  : 	x = start_x;

	mov	eax, DWORD PTR _x$[ebp]
	movss	xmm0, DWORD PTR ?start_x@instant_action@@1MA
	movss	DWORD PTR [eax], xmm0

; 257  : 	y = start_y;

	mov	ecx, DWORD PTR _y$[ebp]
	movss	xmm0, DWORD PTR ?start_y@instant_action@@1MA
	movss	DWORD PTR [ecx], xmm0

; 258  : }

	pop	ebp
	ret	0
?get_start_position@instant_action@@SAXAAM0@Z ENDP	; instant_action::get_start_position
_TEXT	ENDS
; Function compile flags: /Odtp
; File c:\users\zhitao li\documents\visual studio 2012\projects\freefalcon\campaign\campupd\iaction.cpp
_TEXT	SEGMENT
_x$ = 8							; size = 4
_y$ = 12						; size = 4
?set_start_position@instant_action@@SAXMM@Z PROC	; instant_action::set_start_position

; 245  : {

	push	ebp
	mov	ebp, esp

; 246  : 	start_x = x;

	movss	xmm0, DWORD PTR _x$[ebp]
	movss	DWORD PTR ?start_x@instant_action@@1MA, xmm0

; 247  : 	start_y = y;

	movss	xmm0, DWORD PTR _y$[ebp]
	movss	DWORD PTR ?start_y@instant_action@@1MA, xmm0

; 248  : }

	pop	ebp
	ret	0
?set_start_position@instant_action@@SAXMM@Z ENDP	; instant_action::set_start_position
_TEXT	ENDS
; Function compile flags: /Odtp
; File c:\users\zhitao li\documents\visual studio 2012\projects\freefalcon\campaign\campupd\iaction.cpp
_TEXT	SEGMENT
_ch$ = 8						; size = 1
?set_start_mode@instant_action@@SAXD@Z PROC		; instant_action::set_start_mode

; 374  : {

	push	ebp
	mov	ebp, esp

; 375  : 	current_mode = ch;

	mov	al, BYTE PTR _ch$[ebp]
	mov	BYTE PTR ?current_mode@instant_action@@1DA, al ; instant_action::current_mode

; 376  : }

	pop	ebp
	ret	0
?set_start_mode@instant_action@@SAXD@Z ENDP		; instant_action::set_start_mode
_TEXT	ENDS
; Function compile flags: /Odtp
; File c:\users\zhitao li\documents\visual studio 2012\projects\freefalcon\campaign\campupd\iaction.cpp
_TEXT	SEGMENT
_wave$ = 8						; size = 4
?set_start_wave@instant_action@@SAXH@Z PROC		; instant_action::set_start_wave

; 353  : {

	push	ebp
	mov	ebp, esp

; 354  : 	ShiAssert( wave >= 0 && wave <=4 );	// Since its used as sim skill it had better be this way...
; 355  : 
; 356  : 	current_wave = wave;

	mov	eax, DWORD PTR _wave$[ebp]
	mov	DWORD PTR ?current_wave@instant_action@@1HA, eax ; instant_action::current_wave

; 357  : 	generic_skill = wave;

	mov	ecx, DWORD PTR _wave$[ebp]
	mov	DWORD PTR ?generic_skill@instant_action@@1HA, ecx ; instant_action::generic_skill

; 358  : 
; 359  : 	// SCR 11/30/98
; 360  : 	// It would be nice to do this here (as well as the team color hammering)
; 361  : 	// but that would require the Campaign to be loaded sooner.  It almost worked
; 362  : 	// when it was changed to the top of InstantActionFlyCB(), but it asserted and
; 363  : 	// I didn't want to figure out if the assert was necessary or not.
; 364  : 	// SO, I hacked this into the Team load from file.
; 365  : //	TeamInfo[2]->airExperience			= 60 + 10 * wave;
; 366  : //	TeamInfo[2]->airDefenseExperience	= 60 + 10 * wave;
; 367  : }

	pop	ebp
	ret	0
?set_start_wave@instant_action@@SAXH@Z ENDP		; instant_action::set_start_wave
_TEXT	ENDS
; Function compile flags: /Odtp
; File c:\users\zhitao li\documents\visual studio 2012\projects\freefalcon\campaign\campupd\iaction.cpp
_TEXT	SEGMENT
tv66 = -4						; size = 4
?is_moving_mud@instant_action@@SAHXZ PROC		; instant_action::is_moving_mud

; 2126 : {

	push	ebp
	mov	ebp, esp
	push	ecx

; 2127 : 	return (current_mode == 'm');

	movsx	eax, BYTE PTR ?current_mode@instant_action@@1DA ; instant_action::current_mode
	cmp	eax, 109				; 0000006dH
	jne	SHORT $LN3@is_moving_
	mov	DWORD PTR tv66[ebp], 1
	jmp	SHORT $LN4@is_moving_
$LN3@is_moving_:
	mov	DWORD PTR tv66[ebp], 0
$LN4@is_moving_:
	mov	eax, DWORD PTR tv66[ebp]

; 2128 : }

	mov	esp, ebp
	pop	ebp
	ret	0
?is_moving_mud@instant_action@@SAHXZ ENDP		; instant_action::is_moving_mud
_TEXT	ENDS
; Function compile flags: /Odtp
; File c:\users\zhitao li\documents\visual studio 2012\projects\freefalcon\campaign\campupd\iaction.cpp
_TEXT	SEGMENT
tv66 = -4						; size = 4
?is_fighter_sweep@instant_action@@SAHXZ PROC		; instant_action::is_fighter_sweep

; 2117 : {

	push	ebp
	mov	ebp, esp
	push	ecx

; 2118 : 	return (current_mode == 'f');

	movsx	eax, BYTE PTR ?current_mode@instant_action@@1DA ; instant_action::current_mode
	cmp	eax, 102				; 00000066H
	jne	SHORT $LN3@is_fighter
	mov	DWORD PTR tv66[ebp], 1
	jmp	SHORT $LN4@is_fighter
$LN3@is_fighter:
	mov	DWORD PTR tv66[ebp], 0
$LN4@is_fighter:
	mov	eax, DWORD PTR tv66[ebp]

; 2119 : }

	mov	esp, ebp
	pop	ebp
	ret	0
?is_fighter_sweep@instant_action@@SAHXZ ENDP		; instant_action::is_fighter_sweep
_TEXT	ENDS
; Function compile flags: /Odtp
; File c:\users\zhitao li\documents\visual studio 2012\projects\freefalcon\campaign\campupd\iaction.cpp
_TEXT	SEGMENT
_thing$ = -548						; size = 4
_time$ = -544						; size = 4
_level$ = -540						; size = 4
_data$ = -536						; size = 532
__$ArrayPad$ = -4					; size = 4
?create_more_stuff@instant_action@@SAXXZ PROC		; instant_action::create_more_stuff

; 2073 : {

	push	ebp
	mov	ebp, esp
	sub	esp, 548				; 00000224H
	mov	eax, DWORD PTR ___security_cookie
	xor	eax, ebp
	mov	DWORD PTR __$ArrayPad$[ebp], eax

; 2074 : 	int
; 2075 : 		thing,
; 2076 : 		level,
; 2077 : 		time;
; 2078 : 
; 2079 : 	ia_data
; 2080 : 		data;
; 2081 : 
; 2082 : 	time = TheCampaign.CurrentTime - start_time * 1000;

	mov	eax, DWORD PTR ?start_time@instant_action@@1JA ; instant_action::start_time
	imul	eax, 1000				; 000003e8H
	mov	ecx, DWORD PTR ?TheCampaign@@3VCampaignClass@@A
	sub	ecx, eax
	mov	DWORD PTR _time$[ebp], ecx

; 2083 : 
; 2084 : 	if (current_mode == 'm')

	movsx	edx, BYTE PTR ?current_mode@instant_action@@1DA ; instant_action::current_mode
	cmp	edx, 109				; 0000006dH
	jne	SHORT $LN3@create_mor

; 2085 : 	{
; 2086 : 		level = (current_wave+2)*4;		// Pick our starting level

	mov	eax, DWORD PTR ?current_wave@instant_action@@1HA ; instant_action::current_wave
	lea	ecx, DWORD PTR [eax*4+8]
	mov	DWORD PTR _level$[ebp], ecx

; 2087 : 		level += time / 30000;			// One new vehicle type every 30 seconds

	mov	eax, DWORD PTR _time$[ebp]
	cdq
	mov	ecx, 30000				; 00007530H
	idiv	ecx
	add	eax, DWORD PTR _level$[ebp]
	mov	DWORD PTR _level$[ebp], eax

; 2088 : 	}
; 2089 : 	else

	jmp	SHORT $LN2@create_mor
$LN3@create_mor:

; 2090 : 	{
; 2091 : 		level = (current_wave+1)*4;		// In fighter sweep, we bias down one level for ground things

	mov	edx, DWORD PTR ?current_wave@instant_action@@1HA ; instant_action::current_wave
	lea	eax, DWORD PTR [edx*4+4]
	mov	DWORD PTR _level$[ebp], eax

; 2092 : 		level += time / 120000;			// One new vehicle type very 2 minutes

	mov	eax, DWORD PTR _time$[ebp]
	cdq
	mov	ecx, 120000				; 0001d4c0H
	idiv	ecx
	add	eax, DWORD PTR _level$[ebp]
	mov	DWORD PTR _level$[ebp], eax
$LN2@create_mor:

; 2093 : 	}
; 2094 : 
; 2095 : 	if (level > groundStuffLen)

	cmp	DWORD PTR _level$[ebp], 24		; 00000018H
	jle	SHORT $LN1@create_mor

; 2096 : 	{
; 2097 : 		level = groundStuffLen;

	mov	DWORD PTR _level$[ebp], 24		; 00000018H
$LN1@create_mor:

; 2098 : 	}
; 2099 : 
; 2100 : 	// MonoPrint ("Moving Mud Level %d\n", level);
; 2101 : 
; 2102 : 	thing = rand () % level;

	call	_rand
	cdq
	idiv	DWORD PTR _level$[ebp]
	mov	DWORD PTR _thing$[ebp], edx

; 2103 : 
; 2104 : 	data.type		= groundStuff[thing].type;

	mov	edx, DWORD PTR _thing$[ebp]
	mov	eax, DWORD PTR _groundStuff[edx*8]
	mov	DWORD PTR _data$[ebp+12], eax

; 2105 : 	data.distance	= groundStuff[thing].range * (0.75f + 0.5f*rand()/(float)RAND_MAX);

	call	_rand
	cvtsi2ss xmm0, eax
	mulss	xmm0, DWORD PTR __real@3f000000
	divss	xmm0, DWORD PTR __real@46fffe00
	addss	xmm0, DWORD PTR __real@3f400000
	mov	ecx, DWORD PTR _thing$[ebp]
	mulss	xmm0, DWORD PTR _groundStuff[ecx*8+4]
	movss	DWORD PTR _data$[ebp], xmm0

; 2106 : 	data.aspect		= (float)(rand() % 120 - 60);

	call	_rand
	cdq
	mov	ecx, 120				; 00000078H
	idiv	ecx
	sub	edx, 60					; 0000003cH
	cvtsi2ss xmm0, edx
	movss	DWORD PTR _data$[ebp+4], xmm0

; 2107 : 	data.side		= 2;

	mov	edx, DWORD PTR _data$[ebp+16]
	and	edx, -4081				; fffff00fH
	or	edx, 32					; 00000020H
	mov	DWORD PTR _data$[ebp+16], edx

; 2108 : 
; 2109 : 	create_battalion (data);

	lea	eax, DWORD PTR _data$[ebp]
	push	eax
	call	?create_battalion@instant_action@@KAXAAUia_data@@@Z ; instant_action::create_battalion
	add	esp, 4

; 2110 : }

	mov	ecx, DWORD PTR __$ArrayPad$[ebp]
	xor	ecx, ebp
	call	@__security_check_cookie@4
	mov	esp, ebp
	pop	ebp
	ret	0
?create_more_stuff@instant_action@@SAXXZ ENDP		; instant_action::create_more_stuff
_TEXT	ENDS
; Function compile flags: /Odtp
; File c:\users\zhitao li\documents\visual studio 2012\projects\freefalcon\campaign\campupd\iaction.cpp
_TEXT	SEGMENT
_iter$2 = -56						; size = 12
_aircraft_left$ = -44					; size = 4
_count_battalions$ = -40				; size = 4
_count_flights$ = -36					; size = 4
_unit$ = -32						; size = 4
_px$ = -28						; size = 2
_py$ = -24						; size = 2
_ux$ = -20						; size = 2
_uy$ = -16						; size = 2
__$EHRec$ = -12						; size = 12
?check_next_wave@instant_action@@SAXXZ PROC		; instant_action::check_next_wave

; 264  : void instant_action::check_next_wave (void){

	push	ebp
	mov	ebp, esp
	push	-1
	push	__ehhandler$?check_next_wave@instant_action@@SAXXZ
	mov	eax, DWORD PTR fs:0
	push	eax
	sub	esp, 44					; 0000002cH
	mov	eax, DWORD PTR ___security_cookie
	xor	eax, ebp
	push	eax
	lea	eax, DWORD PTR __$EHRec$[ebp]
	mov	DWORD PTR fs:0, eax

; 265  : 	int aircraft_left, count_battalions, count_flights;
; 266  : 	Unit unit;
; 267  : 	GridIndex px, py, ux, uy;
; 268  : 
; 269  : 	if (wave_created){

	cmp	DWORD PTR ?wave_created@instant_action@@1HA, 0 ; instant_action::wave_created
	je	$LN20@check_next

; 270  : 		count_flights = 0;

	mov	DWORD PTR _count_flights$[ebp], 0

; 271  : 		count_battalions = 0;

	mov	DWORD PTR _count_battalions$[ebp], 0

; 272  : 		aircraft_left = 0;

	mov	DWORD PTR _aircraft_left$[ebp], 0

; 273  : 
; 274  : 		if (FalconLocalSession->GetPlayerEntity ()){

	mov	ecx, OFFSET ?vuLocalSessionEntity@@3V?$VuBin@VVuSessionEntity@@@@A ; vuLocalSessionEntity
	call	?get@?$VuBin@VVuSessionEntity@@@@QBEPAVVuSessionEntity@@XZ ; VuBin<VuSessionEntity>::get
	mov	ecx, eax
	call	?GetPlayerEntity@FalconSessionEntity@@QBEPAVFalconEntity@@XZ ; FalconSessionEntity::GetPlayerEntity
	test	eax, eax
	je	$LN20@check_next

; 275  : 			player_flight->GetLocation (&px, &py);

	lea	eax, DWORD PTR _py$[ebp]
	push	eax
	lea	ecx, DWORD PTR _px$[ebp]
	push	ecx
	mov	ecx, DWORD PTR ?player_flight@instant_action@@1PAVFlightClass@@A ; instant_action::player_flight
	call	?GetLocation@FalconEntity@@QBEXPAF0@Z	; FalconEntity::GetLocation

; 276  : 			{
; 277  : 				VuListIterator iter (AllRealList);			

	mov	edx, DWORD PTR ?AllRealList@@3PAVVuLinkedList@@A ; AllRealList
	push	edx
	lea	ecx, DWORD PTR _iter$2[ebp]
	call	??0VuListIterator@@QAE@PAVVuLinkedList@@@Z ; VuListIterator::VuListIterator
	mov	DWORD PTR __$EHRec$[ebp+8], 0

; 278  : 				unit = GetFirstUnit (&iter);

	lea	eax, DWORD PTR _iter$2[ebp]
	push	eax
	call	?GetFirstUnit@@YAPAVUnitClass@@PAVVuListIterator@@@Z ; GetFirstUnit
	add	esp, 4
	mov	DWORD PTR _unit$[ebp], eax
$LN17@check_next:

; 279  : 				while (unit)

	cmp	DWORD PTR _unit$[ebp], 0
	je	$LN16@check_next

; 280  : 				{
; 281  : 					if ((unit->GetDomain () == DOMAIN_AIR) || (unit->GetDomain () == DOMAIN_LAND))

	mov	ecx, DWORD PTR _unit$[ebp]
	call	?GetDomain@CampBaseClass@@QBEEXZ	; CampBaseClass::GetDomain
	movzx	ecx, al
	cmp	ecx, 2
	je	SHORT $LN14@check_next
	mov	ecx, DWORD PTR _unit$[ebp]
	call	?GetDomain@CampBaseClass@@QBEEXZ	; CampBaseClass::GetDomain
	movzx	edx, al
	cmp	edx, 3
	jne	$LN15@check_next
$LN14@check_next:

; 282  : 					{
; 283  : 						if ((!unit->IsDead()) && (unit->IsBattalion()))

	mov	eax, DWORD PTR _unit$[ebp]
	mov	edx, DWORD PTR [eax]
	mov	ecx, DWORD PTR _unit$[ebp]
	mov	eax, DWORD PTR [edx+552]
	call	eax
	test	eax, eax
	jne	SHORT $LN13@check_next
	mov	ecx, DWORD PTR _unit$[ebp]
	mov	edx, DWORD PTR [ecx]
	mov	ecx, DWORD PTR _unit$[ebp]
	mov	eax, DWORD PTR [edx+240]
	call	eax
	test	eax, eax
	je	SHORT $LN13@check_next

; 284  : 						{
; 285  : 							unit->GetLocation (&ux, &uy);

	lea	ecx, DWORD PTR _uy$[ebp]
	push	ecx
	lea	edx, DWORD PTR _ux$[ebp]
	push	edx
	mov	ecx, DWORD PTR _unit$[ebp]
	call	?GetLocation@FalconEntity@@QBEXPAF0@Z	; FalconEntity::GetLocation

; 286  : 							
; 287  : 							if (DistSqu(px, py, ux, uy) > 60*60)

	movzx	eax, WORD PTR _uy$[ebp]
	push	eax
	movzx	ecx, WORD PTR _ux$[ebp]
	push	ecx
	movzx	edx, WORD PTR _py$[ebp]
	push	edx
	movzx	eax, WORD PTR _px$[ebp]
	push	eax
	call	?DistSqu@@YAHFFFF@Z			; DistSqu
	add	esp, 16					; 00000010H
	cmp	eax, 3600				; 00000e10H
	jle	SHORT $LN12@check_next

; 288  : 							{
; 289  : 								// MonoPrint ("IA Killing Unit %08x @%d\n", unit, distance);
; 290  : 								
; 291  : 								unit->KillUnit ();

	mov	ecx, DWORD PTR _unit$[ebp]
	call	?KillUnit@UnitClass@@QAEXXZ		; UnitClass::KillUnit

; 292  : 							}
; 293  : 							else

	jmp	SHORT $LN13@check_next
$LN12@check_next:

; 294  : 							{
; 295  : 								count_battalions ++;

	mov	ecx, DWORD PTR _count_battalions$[ebp]
	add	ecx, 1
	mov	DWORD PTR _count_battalions$[ebp], ecx
$LN13@check_next:

; 296  : 							}
; 297  : 						}
; 298  : 						
; 299  : 						if ((!unit->IsDead()) && (unit->IsFlight()))

	mov	edx, DWORD PTR _unit$[ebp]
	mov	eax, DWORD PTR [edx]
	mov	ecx, DWORD PTR _unit$[ebp]
	mov	edx, DWORD PTR [eax+552]
	call	edx
	test	eax, eax
	jne	SHORT $LN15@check_next
	mov	eax, DWORD PTR _unit$[ebp]
	mov	edx, DWORD PTR [eax]
	mov	ecx, DWORD PTR _unit$[ebp]
	mov	eax, DWORD PTR [edx+248]
	call	eax
	test	eax, eax
	je	SHORT $LN15@check_next

; 300  : 						{
; 301  : 							aircraft_left += unit->GetTotalVehicles ();

	mov	ecx, DWORD PTR _unit$[ebp]
	call	?GetTotalVehicles@UnitClass@@QAEHXZ	; UnitClass::GetTotalVehicles
	add	eax, DWORD PTR _aircraft_left$[ebp]
	mov	DWORD PTR _aircraft_left$[ebp], eax

; 302  : 							
; 303  : 							unit->GetLocation (&ux, &uy);

	lea	ecx, DWORD PTR _uy$[ebp]
	push	ecx
	lea	edx, DWORD PTR _ux$[ebp]
	push	edx
	mov	ecx, DWORD PTR _unit$[ebp]
	call	?GetLocation@FalconEntity@@QBEXPAF0@Z	; FalconEntity::GetLocation

; 304  : 							
; 305  : 							if (DistSqu(px, py, ux, uy) > 60*60)

	movzx	eax, WORD PTR _uy$[ebp]
	push	eax
	movzx	ecx, WORD PTR _ux$[ebp]
	push	ecx
	movzx	edx, WORD PTR _py$[ebp]
	push	edx
	movzx	eax, WORD PTR _px$[ebp]
	push	eax
	call	?DistSqu@@YAHFFFF@Z			; DistSqu
	add	esp, 16					; 00000010H
	cmp	eax, 3600				; 00000e10H
	jle	SHORT $LN9@check_next

; 306  : 							{
; 307  : 								// MonoPrint ("IA Killing Unit %08x @%d\n", unit, distance);
; 308  : 								
; 309  : 								unit->KillUnit ();

	mov	ecx, DWORD PTR _unit$[ebp]
	call	?KillUnit@UnitClass@@QAEXXZ		; UnitClass::KillUnit

; 310  : 								count_flights ++;

	mov	ecx, DWORD PTR _count_flights$[ebp]
	add	ecx, 1
	mov	DWORD PTR _count_flights$[ebp], ecx
	jmp	SHORT $LN15@check_next
$LN9@check_next:

; 311  : 							}
; 312  : 							else if (unit->IAKill ())

	mov	ecx, DWORD PTR _unit$[ebp]
	call	?IAKill@UnitClass@@QAEHXZ		; UnitClass::IAKill
	test	eax, eax
	je	SHORT $LN15@check_next

; 313  : 							{
; 314  : 								count_flights ++;

	mov	edx, DWORD PTR _count_flights$[ebp]
	add	edx, 1
	mov	DWORD PTR _count_flights$[ebp], edx
$LN15@check_next:

; 315  : 							}
; 316  : 						}
; 317  : 					}
; 318  : 					unit = GetNextUnit (&iter);

	lea	eax, DWORD PTR _iter$2[ebp]
	push	eax
	call	?GetNextUnit@@YAPAVUnitClass@@PAVVuListIterator@@@Z ; GetNextUnit
	add	esp, 4
	mov	DWORD PTR _unit$[ebp], eax

; 319  : 				}

	jmp	$LN17@check_next
$LN16@check_next:

; 320  : 			}

	mov	DWORD PTR __$EHRec$[ebp+8], -1
	lea	ecx, DWORD PTR _iter$2[ebp]
	call	??1VuListIterator@@UAE@XZ		; VuListIterator::~VuListIterator

; 321  : 			if (current_mode == 'm')

	movsx	ecx, BYTE PTR ?current_mode@instant_action@@1DA ; instant_action::current_mode
	cmp	ecx, 109				; 0000006dH
	jne	SHORT $LN6@check_next

; 322  : 			{
; 323  : 				if (count_battalions < 12)

	cmp	DWORD PTR _count_battalions$[ebp], 12	; 0000000cH
	jge	SHORT $LN5@check_next

; 324  : 				{
; 325  : 					create_more_stuff ();

	call	?create_more_stuff@instant_action@@SAXXZ ; instant_action::create_more_stuff
$LN5@check_next:

; 326  : 				}
; 327  : 			}
; 328  : 			else

	jmp	SHORT $LN20@check_next
$LN6@check_next:

; 329  : 			{
; 330  : 				if (count_battalions < 4)

	cmp	DWORD PTR _count_battalions$[ebp], 4
	jge	SHORT $LN3@check_next

; 331  : 				{
; 332  : 					create_more_stuff ();

	call	?create_more_stuff@instant_action@@SAXXZ ; instant_action::create_more_stuff
$LN3@check_next:

; 333  : 				}
; 334  : 
; 335  : //				MonoPrint ("Flights %d\n", count_flights);
; 336  : 
; 337  : 				if (((count_flights == 0) || ((wave_time) && (TheCampaign.CurrentTime > wave_time))) && (aircraft_left < 4))

	cmp	DWORD PTR _count_flights$[ebp], 0
	je	SHORT $LN1@check_next
	cmp	DWORD PTR ?wave_time@instant_action@@1KA, 0 ; instant_action::wave_time
	je	SHORT $LN20@check_next
	mov	edx, DWORD PTR ?TheCampaign@@3VCampaignClass@@A
	cmp	edx, DWORD PTR ?wave_time@instant_action@@1KA ; instant_action::wave_time
	jbe	SHORT $LN20@check_next
$LN1@check_next:
	cmp	DWORD PTR _aircraft_left$[ebp], 4
	jge	SHORT $LN20@check_next

; 338  : 				{
; 339  : 					current_wave ++;

	mov	eax, DWORD PTR ?current_wave@instant_action@@1HA ; instant_action::current_wave
	add	eax, 1
	mov	DWORD PTR ?current_wave@instant_action@@1HA, eax ; instant_action::current_wave

; 340  : 					
; 341  : 					create_wave ();

	call	?create_wave@instant_action@@SAXXZ	; instant_action::create_wave
$LN20@check_next:

; 342  : 				}
; 343  : 			}
; 344  : 		}
; 345  : 	}
; 346  : }

	mov	ecx, DWORD PTR __$EHRec$[ebp]
	mov	DWORD PTR fs:0, ecx
	pop	ecx
	mov	esp, ebp
	pop	ebp
	ret	0
_TEXT	ENDS
text$x	SEGMENT
__unwindfunclet$?check_next_wave@instant_action@@SAXXZ$0:
	lea	ecx, DWORD PTR _iter$2[ebp]
	jmp	??1VuListIterator@@UAE@XZ		; VuListIterator::~VuListIterator
__ehhandler$?check_next_wave@instant_action@@SAXXZ:
	mov	edx, DWORD PTR [esp+8]
	lea	eax, DWORD PTR [edx+12]
	mov	ecx, DWORD PTR [edx-48]
	xor	ecx, eax
	call	@__security_check_cookie@4
	mov	eax, OFFSET __ehfuncinfo$?check_next_wave@instant_action@@SAXXZ
	jmp	___CxxFrameHandler3
text$x	ENDS
?check_next_wave@instant_action@@SAXXZ ENDP		; instant_action::check_next_wave
; Function compile flags: /Odtp
; File c:\users\zhitao li\documents\visual studio 2012\projects\freefalcon\campaign\campupd\iaction.cpp
_TEXT	SEGMENT
_fp$ = -824						; size = 4
_valid_data$ = -820					; size = 4
_ia$ = -816						; size = 4
_value$ = -812						; size = 4
_loop$ = -808						; size = 4
_ptr$ = -804						; size = 4
_str$ = -800						; size = 4
_data$ = -796						; size = 532
_buffer$ = -264						; size = 260
__$ArrayPad$ = -4					; size = 4
?create_wave@instant_action@@SAXXZ PROC			; instant_action::create_wave

; 383  : {

	push	ebp
	mov	ebp, esp
	sub	esp, 824				; 00000338H
	mov	eax, DWORD PTR ___security_cookie
	xor	eax, ebp
	mov	DWORD PTR __$ArrayPad$[ebp], eax

; 384  : 	ia_data
; 385  : 		data;
; 386  : 
; 387  : 	int
; 388  : 		loop=0,

	mov	DWORD PTR _loop$[ebp], 0

; 389  : 		valid_data=0,

	mov	DWORD PTR _valid_data$[ebp], 0

; 390  : 		value=0;

	mov	DWORD PTR _value$[ebp], 0

; 391  : 
; 392  : 	char
; 393  : 		*ptr=NULL,

	mov	DWORD PTR _ptr$[ebp], 0

; 394  : 		*str=NULL,

	mov	DWORD PTR _str$[ebp], 0

; 395  : 		buffer[MAX_PATH]={0};

	mov	BYTE PTR _buffer$[ebp], 0
	push	259					; 00000103H
	push	0
	lea	eax, DWORD PTR _buffer$[ebp+1]
	push	eax
	call	_memset
	add	esp, 12					; 0000000cH

; 396  : 
; 397  : 	FILE
; 398  : 		*fp=NULL;

	mov	DWORD PTR _fp$[ebp], 0

; 399  : 
; 400  : 	ia_type
; 401  : 		*ia=NULL;

	mov	DWORD PTR _ia$[ebp], 0

; 402  : 
; 403  : 	wave_created = 0;

	mov	DWORD PTR ?wave_created@instant_action@@1HA, 0 ; instant_action::wave_created

; 404  : 	wave_time = 0;

	mov	DWORD PTR ?wave_time@instant_action@@1KA, 0 ; instant_action::wave_time

; 405  : 
; 406  : 	sprintf (buffer, "%s\\%c%d.ia", FalconCampUserSaveDirectory, current_mode, current_wave);

	mov	ecx, DWORD PTR ?current_wave@instant_action@@1HA ; instant_action::current_wave
	push	ecx
	movsx	edx, BYTE PTR ?current_mode@instant_action@@1DA ; instant_action::current_mode
	push	edx
	push	OFFSET ?FalconCampUserSaveDirectory@@3PADA ; FalconCampUserSaveDirectory
	push	OFFSET ??_C@_0L@KBLNOMHJ@?$CFs?2?$CFc?$CFd?4ia?$AA@
	lea	eax, DWORD PTR _buffer$[ebp]
	push	eax
	call	_sprintf
	add	esp, 20					; 00000014H

; 407  : 
; 408  : 	fp = fopen (buffer, "r");

	push	OFFSET ??_C@_01KDCPPGHE@r?$AA@
	lea	ecx, DWORD PTR _buffer$[ebp]
	push	ecx
	call	_fopen
	add	esp, 8
	mov	DWORD PTR _fp$[ebp], eax

; 409  : 
; 410  : 	if (!fp)

	cmp	DWORD PTR _fp$[ebp], 0
	jne	SHORT $LN87@create_wav

; 411  : 	{
; 412  : 		current_wave --;

	mov	edx, DWORD PTR ?current_wave@instant_action@@1HA ; instant_action::current_wave
	sub	edx, 1
	mov	DWORD PTR ?current_wave@instant_action@@1HA, edx ; instant_action::current_wave

; 413  : 		sprintf (buffer, "%s\\%c%d.ia", FalconCampUserSaveDirectory, current_mode, current_wave);

	mov	eax, DWORD PTR ?current_wave@instant_action@@1HA ; instant_action::current_wave
	push	eax
	movsx	ecx, BYTE PTR ?current_mode@instant_action@@1DA ; instant_action::current_mode
	push	ecx
	push	OFFSET ?FalconCampUserSaveDirectory@@3PADA ; FalconCampUserSaveDirectory
	push	OFFSET ??_C@_0L@KBLNOMHJ@?$CFs?2?$CFc?$CFd?4ia?$AA@
	lea	edx, DWORD PTR _buffer$[ebp]
	push	edx
	call	_sprintf
	add	esp, 20					; 00000014H

; 414  : 
; 415  : 		fp = fopen (buffer, "r");

	push	OFFSET ??_C@_01KDCPPGHE@r?$AA@
	lea	eax, DWORD PTR _buffer$[ebp]
	push	eax
	call	_fopen
	add	esp, 8
	mov	DWORD PTR _fp$[ebp], eax

; 416  : 
; 417  : 		if (!fp)

	cmp	DWORD PTR _fp$[ebp], 0
	jne	SHORT $LN86@create_wav

; 418  : 		{
; 419  : 			// MonoPrint ("Cannot open %s for Instant Action Wave File", buffer);
; 420  : 			current_wave ++;

	mov	ecx, DWORD PTR ?current_wave@instant_action@@1HA ; instant_action::current_wave
	add	ecx, 1
	mov	DWORD PTR ?current_wave@instant_action@@1HA, ecx ; instant_action::current_wave

; 421  : 			return;

	jmp	$LN88@create_wav
$LN86@create_wav:
$LN87@create_wav:

; 422  : 		}
; 423  : 
; 424  : 		// MonoPrint ("Repeating %s for Instant Action Wave File", buffer);
; 425  : 	}
; 426  : 	else
; 427  : 	{
; 428  : 		// MonoPrint ("Loading %s for Instant Action Wave File", buffer);
; 429  : 	}
; 430  : 
; 431  : 	data.distance = 0;

	movss	xmm0, DWORD PTR __real@00000000
	movss	DWORD PTR _data$[ebp], xmm0

; 432  : 	data.aspect = 0;

	movss	xmm0, DWORD PTR __real@00000000
	movss	DWORD PTR _data$[ebp+4], xmm0

; 433  : 	data.altitude = 0;

	movss	xmm0, DWORD PTR __real@00000000
	movss	DWORD PTR _data$[ebp+8], xmm0

; 434  : 	data.type = ia_unknown;

	mov	DWORD PTR _data$[ebp+12], 0

; 435  : 	data.size = 0;

	mov	edx, DWORD PTR _data$[ebp+16]
	and	edx, -16				; fffffff0H
	mov	DWORD PTR _data$[ebp+16], edx

; 436  : 	data.side = 0;

	mov	eax, DWORD PTR _data$[ebp+16]
	and	eax, -4081				; fffff00fH
	mov	DWORD PTR _data$[ebp+16], eax

; 437  : 	data.dumb = 0;

	mov	ecx, DWORD PTR _data$[ebp+16]
	and	ecx, -8193				; ffffdfffH
	mov	DWORD PTR _data$[ebp+16], ecx

; 438  : 	data.skill = generic_skill;

	mov	edx, DWORD PTR ?generic_skill@instant_action@@1HA ; instant_action::generic_skill
	and	edx, 15					; 0000000fH
	shl	edx, 14					; 0000000eH
	mov	eax, DWORD PTR _data$[ebp+16]
	and	eax, -245761				; fffc3fffH
	or	eax, edx
	mov	DWORD PTR _data$[ebp+16], eax

; 439  : 	data.guns = 1;

	mov	ecx, DWORD PTR _data$[ebp+16]
	or	ecx, 262144				; 00040000H
	mov	DWORD PTR _data$[ebp+16], ecx

; 440  : 	data.radar = 1;

	mov	edx, DWORD PTR _data$[ebp+16]
	or	edx, 524288				; 00080000H
	mov	DWORD PTR _data$[ebp+16], edx

; 441  : 	data.heat = 1;

	mov	eax, DWORD PTR _data$[ebp+16]
	or	eax, 1048576				; 00100000H
	mov	DWORD PTR _data$[ebp+16], eax

; 442  : 	data.ground = 1;

	mov	ecx, DWORD PTR _data$[ebp+16]
	or	ecx, 2097152				; 00200000H
	mov	DWORD PTR _data$[ebp+16], ecx

; 443  : 	data.num_vector = 0;

	mov	edx, DWORD PTR _data$[ebp+16]
	and	edx, -1069547521			; c03fffffH
	mov	DWORD PTR _data$[ebp+16], edx

; 444  : 
; 445  : 	valid_data = 0;

	mov	DWORD PTR _valid_data$[ebp], 0
$LN84@create_wav:

; 446  : 
; 447  : 	while (fgets (buffer, 100, fp))

	mov	eax, DWORD PTR _fp$[ebp]
	push	eax
	push	100					; 00000064H
	lea	ecx, DWORD PTR _buffer$[ebp]
	push	ecx
	call	_fgets
	add	esp, 12					; 0000000cH
	test	eax, eax
	je	$LN83@create_wav

; 448  : 	{
; 449  : 		str = buffer;

	lea	edx, DWORD PTR _buffer$[ebp]
	mov	DWORD PTR _str$[ebp], edx
$LN82@create_wav:

; 450  : 
; 451  : 		while (*str)

	mov	eax, DWORD PTR _str$[ebp]
	movsx	ecx, BYTE PTR [eax]
	test	ecx, ecx
	je	SHORT $LN81@create_wav

; 452  : 		{
; 453  : 			if ((*str != ' ') && (*str != '\t'))

	mov	edx, DWORD PTR _str$[ebp]
	movsx	eax, BYTE PTR [edx]
	cmp	eax, 32					; 00000020H
	je	SHORT $LN80@create_wav
	mov	ecx, DWORD PTR _str$[ebp]
	movsx	edx, BYTE PTR [ecx]
	cmp	edx, 9
	je	SHORT $LN80@create_wav

; 454  : 			{
; 455  : 				break;

	jmp	SHORT $LN81@create_wav
$LN80@create_wav:

; 456  : 			}
; 457  : 
; 458  : 			str ++;

	mov	eax, DWORD PTR _str$[ebp]
	add	eax, 1
	mov	DWORD PTR _str$[ebp], eax

; 459  : 		}

	jmp	SHORT $LN82@create_wav
$LN81@create_wav:

; 460  : 
; 461  : 		if ((*str >= '0') && (*str <= '9'))

	mov	ecx, DWORD PTR _str$[ebp]
	movsx	edx, BYTE PTR [ecx]
	cmp	edx, 48					; 00000030H
	jl	$LN79@create_wav
	mov	eax, DWORD PTR _str$[ebp]
	movsx	ecx, BYTE PTR [eax]
	cmp	ecx, 57					; 00000039H
	jg	$LN79@create_wav

; 462  : 		{
; 463  : 			value = atoi (str);

	mov	edx, DWORD PTR _str$[ebp]
	push	edx
	call	_atoi
	add	esp, 4
	mov	DWORD PTR _value$[ebp], eax
$LN78@create_wav:

; 464  : 
; 465  : 			while (*str)

	mov	eax, DWORD PTR _str$[ebp]
	movsx	ecx, BYTE PTR [eax]
	test	ecx, ecx
	je	SHORT $LN77@create_wav

; 466  : 			{
; 467  : 				if (*str == ' ')

	mov	edx, DWORD PTR _str$[ebp]
	movsx	eax, BYTE PTR [edx]
	cmp	eax, 32					; 00000020H
	jne	SHORT $LN76@create_wav

; 468  : 				{
; 469  : 					str ++;

	mov	ecx, DWORD PTR _str$[ebp]
	add	ecx, 1
	mov	DWORD PTR _str$[ebp], ecx

; 470  : 					break;

	jmp	SHORT $LN77@create_wav
$LN76@create_wav:

; 471  : 				}
; 472  : 
; 473  : 				str ++;

	mov	edx, DWORD PTR _str$[ebp]
	add	edx, 1
	mov	DWORD PTR _str$[ebp], edx

; 474  : 			}

	jmp	SHORT $LN78@create_wav
$LN77@create_wav:

; 475  : 
; 476  : 			ptr = str;

	mov	eax, DWORD PTR _str$[ebp]
	mov	DWORD PTR _ptr$[ebp], eax
$LN75@create_wav:

; 477  : 
; 478  : 			while (*ptr)

	mov	ecx, DWORD PTR _ptr$[ebp]
	movsx	edx, BYTE PTR [ecx]
	test	edx, edx
	je	SHORT $LN74@create_wav

; 479  : 			{
; 480  : 				if ((*ptr == '\n') || (*ptr == '\r') || (*ptr == ' ') || (*ptr == '\t'))

	mov	eax, DWORD PTR _ptr$[ebp]
	movsx	ecx, BYTE PTR [eax]
	cmp	ecx, 10					; 0000000aH
	je	SHORT $LN72@create_wav
	mov	edx, DWORD PTR _ptr$[ebp]
	movsx	eax, BYTE PTR [edx]
	cmp	eax, 13					; 0000000dH
	je	SHORT $LN72@create_wav
	mov	ecx, DWORD PTR _ptr$[ebp]
	movsx	edx, BYTE PTR [ecx]
	cmp	edx, 32					; 00000020H
	je	SHORT $LN72@create_wav
	mov	eax, DWORD PTR _ptr$[ebp]
	movsx	ecx, BYTE PTR [eax]
	cmp	ecx, 9
	jne	SHORT $LN73@create_wav
$LN72@create_wav:

; 481  : 				{
; 482  : 					*ptr = '\0';

	mov	edx, DWORD PTR _ptr$[ebp]
	mov	BYTE PTR [edx], 0

; 483  : 					break;

	jmp	SHORT $LN74@create_wav
$LN73@create_wav:

; 484  : 				}
; 485  : 
; 486  : 				ptr ++;

	mov	eax, DWORD PTR _ptr$[ebp]
	add	eax, 1
	mov	DWORD PTR _ptr$[ebp], eax

; 487  : 			}

	jmp	SHORT $LN75@create_wav
$LN74@create_wav:

; 488  : 
; 489  : 			if (stricmp (str, "minutes") == 0)

	push	OFFSET ??_C@_07GCICIJGK@minutes?$AA@
	mov	ecx, DWORD PTR _str$[ebp]
	push	ecx
	call	_stricmp
	add	esp, 8
	test	eax, eax
	jne	SHORT $LN71@create_wav

; 490  : 			{
; 491  : 				wave_time = TheCampaign.CurrentTime + value * 60 * 1000;

	mov	edx, DWORD PTR _value$[ebp]
	imul	edx, 60					; 0000003cH
	imul	edx, 1000				; 000003e8H
	add	edx, DWORD PTR ?TheCampaign@@3VCampaignClass@@A
	mov	DWORD PTR ?wave_time@instant_action@@1KA, edx ; instant_action::wave_time
	jmp	$LN48@create_wav
$LN71@create_wav:

; 492  : 			}
; 493  : 			else if (stricmp (str, "km") == 0)

	push	OFFSET ??_C@_02JEGPBHMG@km?$AA@
	mov	eax, DWORD PTR _str$[ebp]
	push	eax
	call	_stricmp
	add	esp, 8
	test	eax, eax
	jne	SHORT $LN69@create_wav

; 494  : 			{
; 495  : 				if (data.num_vector)

	mov	ecx, DWORD PTR _data$[ebp+16]
	shl	ecx, 2
	sar	ecx, 24					; 00000018H
	test	ecx, ecx
	je	SHORT $LN68@create_wav

; 496  : 				{
; 497  : 					data.v_dist[data.num_vector - 1] = (float)value;

	cvtsi2ss xmm0, DWORD PTR _value$[ebp]
	mov	edx, DWORD PTR _data$[ebp+16]
	shl	edx, 2
	sar	edx, 24					; 00000018H
	movss	DWORD PTR _data$[ebp+edx*4+144], xmm0

; 498  : 				}
; 499  : 				else

	jmp	SHORT $LN67@create_wav
$LN68@create_wav:

; 500  : 				{
; 501  : 					data.distance = (float)value;

	cvtsi2ss xmm0, DWORD PTR _value$[ebp]
	movss	DWORD PTR _data$[ebp], xmm0
$LN67@create_wav:

; 502  : 				}

	jmp	$LN48@create_wav
$LN69@create_wav:

; 503  : 			}
; 504  : 			else if (stricmp (str, "deg") == 0)

	push	OFFSET ??_C@_03OFPLEBM@deg?$AA@
	mov	eax, DWORD PTR _str$[ebp]
	push	eax
	call	_stricmp
	add	esp, 8
	test	eax, eax
	jne	SHORT $LN65@create_wav

; 505  : 			{
; 506  : 				data.aspect = (float)value;

	cvtsi2ss xmm0, DWORD PTR _value$[ebp]
	movss	DWORD PTR _data$[ebp+4], xmm0
	jmp	$LN48@create_wav
$LN65@create_wav:

; 507  : 			}
; 508  : 			else if (stricmp (str, "kts") == 0)

	push	OFFSET ??_C@_03GFHGLKFI@kts?$AA@
	mov	ecx, DWORD PTR _str$[ebp]
	push	ecx
	call	_stricmp
	add	esp, 8
	test	eax, eax
	jne	SHORT $LN63@create_wav

; 509  : 			{
; 510  : 				if (data.num_vector)

	mov	edx, DWORD PTR _data$[ebp+16]
	shl	edx, 2
	sar	edx, 24					; 00000018H
	test	edx, edx
	je	SHORT $LN62@create_wav

; 511  : 				{
; 512  : 					data.v_kts[data.num_vector - 1] = (float)value;

	cvtsi2ss xmm0, DWORD PTR _value$[ebp]
	mov	eax, DWORD PTR _data$[ebp+16]
	shl	eax, 2
	sar	eax, 24					; 00000018H
	movss	DWORD PTR _data$[ebp+eax*4+400], xmm0
$LN62@create_wav:

; 513  : 				}
; 514  : 			}

	jmp	$LN48@create_wav
$LN63@create_wav:

; 515  : 			else if (stricmp (str, "feet") == 0)

	push	OFFSET ??_C@_04CGBIDIAH@feet?$AA@
	mov	ecx, DWORD PTR _str$[ebp]
	push	ecx
	call	_stricmp
	add	esp, 8
	test	eax, eax
	jne	SHORT $LN60@create_wav

; 516  : 			{
; 517  : 				if (data.num_vector)

	mov	edx, DWORD PTR _data$[ebp+16]
	shl	edx, 2
	sar	edx, 24					; 00000018H
	test	edx, edx
	je	SHORT $LN59@create_wav

; 518  : 				{
; 519  : 					data.v_alt[data.num_vector - 1] = (float)value;

	cvtsi2ss xmm0, DWORD PTR _value$[ebp]
	mov	eax, DWORD PTR _data$[ebp+16]
	shl	eax, 2
	sar	eax, 24					; 00000018H
	movss	DWORD PTR _data$[ebp+eax*4+272], xmm0

; 520  : 				}
; 521  : 				else

	jmp	SHORT $LN58@create_wav
$LN59@create_wav:

; 522  : 				{
; 523  : 					data.altitude = (float)value;

	cvtsi2ss xmm0, DWORD PTR _value$[ebp]
	movss	DWORD PTR _data$[ebp+8], xmm0
$LN58@create_wav:

; 524  : 				}

	jmp	$LN48@create_wav
$LN60@create_wav:

; 525  : 			}
; 526  : 			else if (stricmp (str, "vector") == 0)

	push	OFFSET ??_C@_06NBFPPGEG@vector?$AA@
	mov	ecx, DWORD PTR _str$[ebp]
	push	ecx
	call	_stricmp
	add	esp, 8
	test	eax, eax
	jne	SHORT $LN56@create_wav

; 527  : 			{
; 528  : 				if (data.num_vector < 10)

	mov	edx, DWORD PTR _data$[ebp+16]
	shl	edx, 2
	sar	edx, 24					; 00000018H
	cmp	edx, 10					; 0000000aH
	jge	SHORT $LN55@create_wav

; 529  : 				{
; 530  : 					data.num_vector ++;

	mov	eax, DWORD PTR _data$[ebp+16]
	shl	eax, 2
	sar	eax, 24					; 00000018H
	add	eax, 1
	and	eax, 255				; 000000ffH
	shl	eax, 22					; 00000016H
	mov	ecx, DWORD PTR _data$[ebp+16]
	and	ecx, -1069547521			; c03fffffH
	or	ecx, eax
	mov	DWORD PTR _data$[ebp+16], ecx

; 531  : 					data.vector[data.num_vector - 1] = (float)value;

	cvtsi2ss xmm0, DWORD PTR _value$[ebp]
	mov	edx, DWORD PTR _data$[ebp+16]
	shl	edx, 2
	sar	edx, 24					; 00000018H
	movss	DWORD PTR _data$[ebp+edx*4+16], xmm0
$LN55@create_wav:

; 532  : 				}
; 533  : 			}
; 534  : 			else

	jmp	$LN48@create_wav
$LN56@create_wav:

; 535  : 			{
; 536  : 				ia = 0;

	mov	DWORD PTR _ia$[ebp], 0

; 537  : 
; 538  : 				for (loop = 0; ia_air_objects[loop].name; loop ++)

	mov	DWORD PTR _loop$[ebp], 0
	jmp	SHORT $LN53@create_wav
$LN52@create_wav:
	mov	eax, DWORD PTR _loop$[ebp]
	add	eax, 1
	mov	DWORD PTR _loop$[ebp], eax
$LN53@create_wav:
	mov	ecx, DWORD PTR _loop$[ebp]
	imul	ecx, 12					; 0000000cH
	cmp	DWORD PTR _ia_air_objects[ecx], 0
	je	$LN51@create_wav

; 539  : 				{
; 540  : 					if (stricmp (str, ia_air_objects[loop].name) == 0)

	mov	edx, DWORD PTR _loop$[ebp]
	imul	edx, 12					; 0000000cH
	mov	eax, DWORD PTR _ia_air_objects[edx]
	push	eax
	mov	ecx, DWORD PTR _str$[ebp]
	push	ecx
	call	_stricmp
	add	esp, 8
	test	eax, eax
	jne	$LN50@create_wav

; 541  : 					{
; 542  : 						ia = &ia_air_objects[loop];

	mov	edx, DWORD PTR _loop$[ebp]
	imul	edx, 12					; 0000000cH
	add	edx, OFFSET _ia_air_objects
	mov	DWORD PTR _ia$[ebp], edx

; 543  : 
; 544  : 						if (valid_data)

	cmp	DWORD PTR _valid_data$[ebp], 0
	je	SHORT $LN49@create_wav

; 545  : 						{
; 546  : 							create_unit (data);

	lea	eax, DWORD PTR _data$[ebp]
	push	eax
	call	?create_unit@instant_action@@KAXAAUia_data@@@Z ; instant_action::create_unit
	add	esp, 4
$LN49@create_wav:

; 547  : 						}
; 548  : 
; 549  : 						valid_data = 1;

	mov	DWORD PTR _valid_data$[ebp], 1

; 550  : 
; 551  : 						data.size = value;

	mov	ecx, DWORD PTR _value$[ebp]
	and	ecx, 15					; 0000000fH
	mov	edx, DWORD PTR _data$[ebp+16]
	and	edx, -16				; fffffff0H
	or	edx, ecx
	mov	DWORD PTR _data$[ebp+16], edx

; 552  : 						data.type = ia->type;

	mov	eax, DWORD PTR _ia$[ebp]
	mov	ecx, DWORD PTR [eax+4]
	mov	DWORD PTR _data$[ebp+12], ecx

; 553  : 						data.distance = 0;

	movss	xmm0, DWORD PTR __real@00000000
	movss	DWORD PTR _data$[ebp], xmm0

; 554  : 						data.aspect = 0;

	movss	xmm0, DWORD PTR __real@00000000
	movss	DWORD PTR _data$[ebp+4], xmm0

; 555  : 						data.altitude = 0;

	movss	xmm0, DWORD PTR __real@00000000
	movss	DWORD PTR _data$[ebp+8], xmm0

; 556  : 						data.side = 0;

	mov	edx, DWORD PTR _data$[ebp+16]
	and	edx, -4081				; fffff00fH
	mov	DWORD PTR _data$[ebp+16], edx

; 557  : 						data.dumb = 0;

	mov	eax, DWORD PTR _data$[ebp+16]
	and	eax, -8193				; ffffdfffH
	mov	DWORD PTR _data$[ebp+16], eax

; 558  : 						data.skill = generic_skill;

	mov	ecx, DWORD PTR ?generic_skill@instant_action@@1HA ; instant_action::generic_skill
	and	ecx, 15					; 0000000fH
	shl	ecx, 14					; 0000000eH
	mov	edx, DWORD PTR _data$[ebp+16]
	and	edx, -245761				; fffc3fffH
	or	edx, ecx
	mov	DWORD PTR _data$[ebp+16], edx

; 559  : 						data.guns = 1;

	mov	eax, DWORD PTR _data$[ebp+16]
	or	eax, 262144				; 00040000H
	mov	DWORD PTR _data$[ebp+16], eax

; 560  : 						data.radar = 1;

	mov	ecx, DWORD PTR _data$[ebp+16]
	or	ecx, 524288				; 00080000H
	mov	DWORD PTR _data$[ebp+16], ecx

; 561  : 						data.heat = 1;

	mov	edx, DWORD PTR _data$[ebp+16]
	or	edx, 1048576				; 00100000H
	mov	DWORD PTR _data$[ebp+16], edx

; 562  : 						data.ground = 1;

	mov	eax, DWORD PTR _data$[ebp+16]
	or	eax, 2097152				; 00200000H
	mov	DWORD PTR _data$[ebp+16], eax

; 563  : 						data.num_vector = 0;

	mov	ecx, DWORD PTR _data$[ebp+16]
	and	ecx, -1069547521			; c03fffffH
	mov	DWORD PTR _data$[ebp+16], ecx

; 564  : 						break;

	jmp	SHORT $LN51@create_wav
$LN50@create_wav:

; 565  : 					}
; 566  : 				}

	jmp	$LN52@create_wav
$LN51@create_wav:

; 567  : 
; 568  : 				if (!ia)

	cmp	DWORD PTR _ia$[ebp], 0
	jne	SHORT $LN48@create_wav

; 569  : 				{
; 570  : 					valid_data = 0;

	mov	DWORD PTR _valid_data$[ebp], 0

; 571  : 					MonoPrint ("Unknown %d:%s\n", value, str);

	mov	edx, DWORD PTR _str$[ebp]
	push	edx
	mov	eax, DWORD PTR _value$[ebp]
	push	eax
	push	OFFSET ??_C@_0P@JOIGPIED@Unknown?5?$CFd?3?$CFs?6?$AA@
	call	_MonoPrint
	add	esp, 12					; 0000000cH
$LN48@create_wav:

; 572  : 				}
; 573  : 			}
; 574  : 		}
; 575  : 		else

	jmp	$LN2@create_wav
$LN79@create_wav:

; 576  : 		{
; 577  : 			ptr = str;

	mov	ecx, DWORD PTR _str$[ebp]
	mov	DWORD PTR _ptr$[ebp], ecx
$LN46@create_wav:

; 578  : 
; 579  : 			while (*ptr)

	mov	edx, DWORD PTR _ptr$[ebp]
	movsx	eax, BYTE PTR [edx]
	test	eax, eax
	je	SHORT $LN45@create_wav

; 580  : 			{
; 581  : 				if ((*ptr == '\n') || (*ptr == '\r') || (*ptr == ' ') || (*ptr == '\t'))

	mov	ecx, DWORD PTR _ptr$[ebp]
	movsx	edx, BYTE PTR [ecx]
	cmp	edx, 10					; 0000000aH
	je	SHORT $LN43@create_wav
	mov	eax, DWORD PTR _ptr$[ebp]
	movsx	ecx, BYTE PTR [eax]
	cmp	ecx, 13					; 0000000dH
	je	SHORT $LN43@create_wav
	mov	edx, DWORD PTR _ptr$[ebp]
	movsx	eax, BYTE PTR [edx]
	cmp	eax, 32					; 00000020H
	je	SHORT $LN43@create_wav
	mov	ecx, DWORD PTR _ptr$[ebp]
	movsx	edx, BYTE PTR [ecx]
	cmp	edx, 9
	jne	SHORT $LN44@create_wav
$LN43@create_wav:

; 582  : 				{
; 583  : 					*ptr = '\0';

	mov	eax, DWORD PTR _ptr$[ebp]
	mov	BYTE PTR [eax], 0

; 584  : 					break;

	jmp	SHORT $LN45@create_wav
$LN44@create_wav:

; 585  : 				}
; 586  : 
; 587  : 				ptr ++;

	mov	ecx, DWORD PTR _ptr$[ebp]
	add	ecx, 1
	mov	DWORD PTR _ptr$[ebp], ecx

; 588  : 			}

	jmp	SHORT $LN46@create_wav
$LN45@create_wav:

; 589  : 
; 590  : 			if ((*str == '#') || (*str == '\0'))

	mov	edx, DWORD PTR _str$[ebp]
	movsx	eax, BYTE PTR [edx]
	cmp	eax, 35					; 00000023H
	je	SHORT $LN41@create_wav
	mov	ecx, DWORD PTR _str$[ebp]
	movsx	edx, BYTE PTR [ecx]
	test	edx, edx
	jne	SHORT $LN42@create_wav
$LN41@create_wav:

; 591  : 			{
; 592  : 				// Comment or blank line
; 593  : 			}
; 594  : 			else

	jmp	$LN2@create_wav
$LN42@create_wav:

; 595  : 			{
; 596  : 				if (stricmp (str, "allied") == 0)

	push	OFFSET ??_C@_06GFAFCNFM@allied?$AA@
	mov	eax, DWORD PTR _str$[ebp]
	push	eax
	call	_stricmp
	add	esp, 8
	test	eax, eax
	jne	SHORT $LN39@create_wav

; 597  : 				{
; 598  : 					data.side = 1;

	mov	ecx, DWORD PTR _data$[ebp+16]
	and	ecx, -4081				; fffff00fH
	or	ecx, 16					; 00000010H
	mov	DWORD PTR _data$[ebp+16], ecx
	jmp	$LN2@create_wav
$LN39@create_wav:

; 599  : 				}
; 600  : 				else if (stricmp (str, "enemy") == 0)

	push	OFFSET ??_C@_05ICAMJEGE@enemy?$AA@
	mov	edx, DWORD PTR _str$[ebp]
	push	edx
	call	_stricmp
	add	esp, 8
	test	eax, eax
	jne	SHORT $LN37@create_wav

; 601  : 				{
; 602  : 					data.side = 2;

	mov	eax, DWORD PTR _data$[ebp+16]
	and	eax, -4081				; fffff00fH
	or	eax, 32					; 00000020H
	mov	DWORD PTR _data$[ebp+16], eax
	jmp	$LN2@create_wav
$LN37@create_wav:

; 603  : 				}
; 604  : 				else if (stricmp (str, "neutral") == 0)

	push	OFFSET ??_C@_07JAOEMGIL@neutral?$AA@
	mov	ecx, DWORD PTR _str$[ebp]
	push	ecx
	call	_stricmp
	add	esp, 8
	test	eax, eax
	jne	SHORT $LN35@create_wav

; 605  : 				{
; 606  : 					data.side = 0;

	mov	edx, DWORD PTR _data$[ebp+16]
	and	edx, -4081				; fffff00fH
	mov	DWORD PTR _data$[ebp+16], edx
	jmp	$LN2@create_wav
$LN35@create_wav:

; 607  : 				}
; 608  : 				else if (stricmp (str, "killthis") == 0)

	push	OFFSET ??_C@_08IKJAOFHB@killthis?$AA@
	mov	eax, DWORD PTR _str$[ebp]
	push	eax
	call	_stricmp
	add	esp, 8
	test	eax, eax
	jne	SHORT $LN33@create_wav

; 609  : 				{
; 610  : 					data.kill = 1;

	mov	ecx, DWORD PTR _data$[ebp+16]
	or	ecx, 4096				; 00001000H
	mov	DWORD PTR _data$[ebp+16], ecx
	jmp	$LN2@create_wav
$LN33@create_wav:

; 611  : 				}
; 612  : 				else if (stricmp (str, "guns") == 0)

	push	OFFSET ??_C@_04IHFDPAO@guns?$AA@
	mov	edx, DWORD PTR _str$[ebp]
	push	edx
	call	_stricmp
	add	esp, 8
	test	eax, eax
	jne	SHORT $LN31@create_wav

; 613  : 				{
; 614  : 					data.guns = 1;

	mov	eax, DWORD PTR _data$[ebp+16]
	or	eax, 262144				; 00040000H
	mov	DWORD PTR _data$[ebp+16], eax
	jmp	$LN2@create_wav
$LN31@create_wav:

; 615  : 				}
; 616  : 				else if (stricmp (str, "radar") == 0)

	push	OFFSET ??_C@_05EMNNHGFM@radar?$AA@
	mov	ecx, DWORD PTR _str$[ebp]
	push	ecx
	call	_stricmp
	add	esp, 8
	test	eax, eax
	jne	SHORT $LN29@create_wav

; 617  : 				{
; 618  : 					data.radar = 1;

	mov	edx, DWORD PTR _data$[ebp+16]
	or	edx, 524288				; 00080000H
	mov	DWORD PTR _data$[ebp+16], edx
	jmp	$LN2@create_wav
$LN29@create_wav:

; 619  : 				}
; 620  : 				else if (stricmp (str, "heat") == 0)

	push	OFFSET ??_C@_04JOCBCOLK@heat?$AA@
	mov	eax, DWORD PTR _str$[ebp]
	push	eax
	call	_stricmp
	add	esp, 8
	test	eax, eax
	jne	SHORT $LN27@create_wav

; 621  : 				{
; 622  : 					data.heat = 1;

	mov	ecx, DWORD PTR _data$[ebp+16]
	or	ecx, 1048576				; 00100000H
	mov	DWORD PTR _data$[ebp+16], ecx
	jmp	$LN2@create_wav
$LN27@create_wav:

; 623  : 				}
; 624  : 				else if (stricmp (str, "ground") == 0)

	push	OFFSET ??_C@_06GODDAGJL@ground?$AA@
	mov	edx, DWORD PTR _str$[ebp]
	push	edx
	call	_stricmp
	add	esp, 8
	test	eax, eax
	jne	SHORT $LN25@create_wav

; 625  : 				{
; 626  : 					data.ground = 1;

	mov	eax, DWORD PTR _data$[ebp+16]
	or	eax, 2097152				; 00200000H
	mov	DWORD PTR _data$[ebp+16], eax
	jmp	$LN2@create_wav
$LN25@create_wav:

; 627  : 				}
; 628  : 				else if (stricmp (str, "noweapons") == 0)

	push	OFFSET ??_C@_09DAPOABIO@noweapons?$AA@
	mov	ecx, DWORD PTR _str$[ebp]
	push	ecx
	call	_stricmp
	add	esp, 8
	test	eax, eax
	jne	SHORT $LN23@create_wav

; 629  : 				{
; 630  : 					data.guns = 0;

	mov	edx, DWORD PTR _data$[ebp+16]
	and	edx, -262145				; fffbffffH
	mov	DWORD PTR _data$[ebp+16], edx

; 631  : 					data.radar = 0;

	mov	eax, DWORD PTR _data$[ebp+16]
	and	eax, -524289				; fff7ffffH
	mov	DWORD PTR _data$[ebp+16], eax

; 632  : 					data.heat = 0;

	mov	ecx, DWORD PTR _data$[ebp+16]
	and	ecx, -1048577				; ffefffffH
	mov	DWORD PTR _data$[ebp+16], ecx
	jmp	$LN2@create_wav
$LN23@create_wav:

; 633  : 				}
; 634  : 				else if (stricmp (str, "full") == 0)

	push	OFFSET ??_C@_04PLMLMMEO@full?$AA@
	mov	edx, DWORD PTR _str$[ebp]
	push	edx
	call	_stricmp
	add	esp, 8
	test	eax, eax
	jne	SHORT $LN21@create_wav

; 635  : 				{
; 636  : 					data.guns = 1;

	mov	eax, DWORD PTR _data$[ebp+16]
	or	eax, 262144				; 00040000H
	mov	DWORD PTR _data$[ebp+16], eax

; 637  : 					data.radar = 1;

	mov	ecx, DWORD PTR _data$[ebp+16]
	or	ecx, 524288				; 00080000H
	mov	DWORD PTR _data$[ebp+16], ecx

; 638  : 					data.heat = 1;

	mov	edx, DWORD PTR _data$[ebp+16]
	or	edx, 1048576				; 00100000H
	mov	DWORD PTR _data$[ebp+16], edx
	jmp	$LN2@create_wav
$LN21@create_wav:

; 639  : 				}
; 640  : 				else if (stricmp (str, "dumb") == 0)

	push	OFFSET ??_C@_04BOEKNIJH@dumb?$AA@
	mov	eax, DWORD PTR _str$[ebp]
	push	eax
	call	_stricmp
	add	esp, 8
	test	eax, eax
	jne	SHORT $LN19@create_wav

; 641  : 				{
; 642  : 					data.dumb = 1;

	mov	ecx, DWORD PTR _data$[ebp+16]
	or	ecx, 8192				; 00002000H
	mov	DWORD PTR _data$[ebp+16], ecx

; 643  : 					data.skill = 0;

	mov	edx, DWORD PTR _data$[ebp+16]
	and	edx, -245761				; fffc3fffH
	mov	DWORD PTR _data$[ebp+16], edx
	jmp	$LN2@create_wav
$LN19@create_wav:

; 644  : 				}
; 645  : 				else if (stricmp (str, "recruit") == 0)

	push	OFFSET ??_C@_07PAOAAHJB@recruit?$AA@
	mov	eax, DWORD PTR _str$[ebp]
	push	eax
	call	_stricmp
	add	esp, 8
	test	eax, eax
	jne	SHORT $LN17@create_wav

; 646  : 				{
; 647  : 					data.skill = 0;

	mov	ecx, DWORD PTR _data$[ebp+16]
	and	ecx, -245761				; fffc3fffH
	mov	DWORD PTR _data$[ebp+16], ecx
	jmp	$LN2@create_wav
$LN17@create_wav:

; 648  : 				}
; 649  : 				else if (stricmp (str, "cadet") == 0)

	push	OFFSET ??_C@_05NFAEKIDI@cadet?$AA@
	mov	edx, DWORD PTR _str$[ebp]
	push	edx
	call	_stricmp
	add	esp, 8
	test	eax, eax
	jne	SHORT $LN15@create_wav

; 650  : 				{
; 651  : 					data.skill = 1;

	mov	eax, DWORD PTR _data$[ebp+16]
	and	eax, -245761				; fffc3fffH
	or	eax, 16384				; 00004000H
	mov	DWORD PTR _data$[ebp+16], eax
	jmp	$LN2@create_wav
$LN15@create_wav:

; 652  : 				}
; 653  : 				else if (stricmp (str, "rookie") == 0)

	push	OFFSET ??_C@_06EIAPKDNP@rookie?$AA@
	mov	ecx, DWORD PTR _str$[ebp]
	push	ecx
	call	_stricmp
	add	esp, 8
	test	eax, eax
	jne	SHORT $LN13@create_wav

; 654  : 				{
; 655  : 					data.skill = 2;

	mov	edx, DWORD PTR _data$[ebp+16]
	and	edx, -245761				; fffc3fffH
	or	edx, 32768				; 00008000H
	mov	DWORD PTR _data$[ebp+16], edx
	jmp	$LN2@create_wav
$LN13@create_wav:

; 656  : 				}
; 657  : 				else if (stricmp (str, "veteran") == 0)

	push	OFFSET ??_C@_07JLFAODAA@veteran?$AA@
	mov	eax, DWORD PTR _str$[ebp]
	push	eax
	call	_stricmp
	add	esp, 8
	test	eax, eax
	jne	SHORT $LN11@create_wav

; 658  : 				{
; 659  : 					data.skill = 3;

	mov	ecx, DWORD PTR _data$[ebp+16]
	and	ecx, -245761				; fffc3fffH
	or	ecx, 49152				; 0000c000H
	mov	DWORD PTR _data$[ebp+16], ecx
	jmp	$LN2@create_wav
$LN11@create_wav:

; 660  : 				}
; 661  : 				else if (stricmp (str, "ace") == 0)

	push	OFFSET ??_C@_03PDKFKBO@ace?$AA@
	mov	edx, DWORD PTR _str$[ebp]
	push	edx
	call	_stricmp
	add	esp, 8
	test	eax, eax
	jne	SHORT $LN9@create_wav

; 662  : 				{
; 663  : 					data.skill = 4;

	mov	eax, DWORD PTR _data$[ebp+16]
	and	eax, -245761				; fffc3fffH
	or	eax, 65536				; 00010000H
	mov	DWORD PTR _data$[ebp+16], eax

; 664  : 				}
; 665  : 				else

	jmp	$LN2@create_wav
$LN9@create_wav:

; 666  : 				{
; 667  : 					ia = 0;

	mov	DWORD PTR _ia$[ebp], 0

; 668  : 
; 669  : 					for (loop = 0; ia_grnd_objects[loop].name; loop ++)

	mov	DWORD PTR _loop$[ebp], 0
	jmp	SHORT $LN7@create_wav
$LN6@create_wav:
	mov	ecx, DWORD PTR _loop$[ebp]
	add	ecx, 1
	mov	DWORD PTR _loop$[ebp], ecx
$LN7@create_wav:
	mov	edx, DWORD PTR _loop$[ebp]
	imul	edx, 12					; 0000000cH
	cmp	DWORD PTR _ia_grnd_objects[edx], 0
	je	$LN5@create_wav

; 670  : 					{
; 671  : 						if (stricmp (str, ia_grnd_objects[loop].name) == 0)

	mov	eax, DWORD PTR _loop$[ebp]
	imul	eax, 12					; 0000000cH
	mov	ecx, DWORD PTR _ia_grnd_objects[eax]
	push	ecx
	mov	edx, DWORD PTR _str$[ebp]
	push	edx
	call	_stricmp
	add	esp, 8
	test	eax, eax
	jne	$LN4@create_wav

; 672  : 						{
; 673  : 							ia = &ia_grnd_objects[loop];

	mov	eax, DWORD PTR _loop$[ebp]
	imul	eax, 12					; 0000000cH
	add	eax, OFFSET _ia_grnd_objects
	mov	DWORD PTR _ia$[ebp], eax

; 674  : 
; 675  : 							if (valid_data)

	cmp	DWORD PTR _valid_data$[ebp], 0
	je	SHORT $LN3@create_wav

; 676  : 							{
; 677  : 								create_unit (data);

	lea	ecx, DWORD PTR _data$[ebp]
	push	ecx
	call	?create_unit@instant_action@@KAXAAUia_data@@@Z ; instant_action::create_unit
	add	esp, 4
$LN3@create_wav:

; 678  : 							}
; 679  : 
; 680  : 							valid_data = 1;

	mov	DWORD PTR _valid_data$[ebp], 1

; 681  : 
; 682  : 							data.size = value;

	mov	edx, DWORD PTR _value$[ebp]
	and	edx, 15					; 0000000fH
	mov	eax, DWORD PTR _data$[ebp+16]
	and	eax, -16				; fffffff0H
	or	eax, edx
	mov	DWORD PTR _data$[ebp+16], eax

; 683  : 							data.type = ia->type;

	mov	ecx, DWORD PTR _ia$[ebp]
	mov	edx, DWORD PTR [ecx+4]
	mov	DWORD PTR _data$[ebp+12], edx

; 684  : 							data.distance = 0;

	movss	xmm0, DWORD PTR __real@00000000
	movss	DWORD PTR _data$[ebp], xmm0

; 685  : 							data.aspect = 0;

	movss	xmm0, DWORD PTR __real@00000000
	movss	DWORD PTR _data$[ebp+4], xmm0

; 686  : 							data.altitude = 0;

	movss	xmm0, DWORD PTR __real@00000000
	movss	DWORD PTR _data$[ebp+8], xmm0

; 687  : 							data.side = 0;

	mov	eax, DWORD PTR _data$[ebp+16]
	and	eax, -4081				; fffff00fH
	mov	DWORD PTR _data$[ebp+16], eax

; 688  : 							data.kill = 0;

	mov	ecx, DWORD PTR _data$[ebp+16]
	and	ecx, -4097				; ffffefffH
	mov	DWORD PTR _data$[ebp+16], ecx

; 689  : 							data.dumb = 0;

	mov	edx, DWORD PTR _data$[ebp+16]
	and	edx, -8193				; ffffdfffH
	mov	DWORD PTR _data$[ebp+16], edx

; 690  : 							data.skill = generic_skill;

	mov	eax, DWORD PTR ?generic_skill@instant_action@@1HA ; instant_action::generic_skill
	and	eax, 15					; 0000000fH
	shl	eax, 14					; 0000000eH
	mov	ecx, DWORD PTR _data$[ebp+16]
	and	ecx, -245761				; fffc3fffH
	or	ecx, eax
	mov	DWORD PTR _data$[ebp+16], ecx

; 691  : 							data.guns = 1;

	mov	edx, DWORD PTR _data$[ebp+16]
	or	edx, 262144				; 00040000H
	mov	DWORD PTR _data$[ebp+16], edx

; 692  : 							data.radar = 1;

	mov	eax, DWORD PTR _data$[ebp+16]
	or	eax, 524288				; 00080000H
	mov	DWORD PTR _data$[ebp+16], eax

; 693  : 							data.heat = 1;

	mov	ecx, DWORD PTR _data$[ebp+16]
	or	ecx, 1048576				; 00100000H
	mov	DWORD PTR _data$[ebp+16], ecx

; 694  : 							data.ground = 1;

	mov	edx, DWORD PTR _data$[ebp+16]
	or	edx, 2097152				; 00200000H
	mov	DWORD PTR _data$[ebp+16], edx

; 695  : 							data.num_vector = 0;

	mov	eax, DWORD PTR _data$[ebp+16]
	and	eax, -1069547521			; c03fffffH
	mov	DWORD PTR _data$[ebp+16], eax

; 696  : 							break;

	jmp	SHORT $LN5@create_wav
$LN4@create_wav:

; 697  : 						}
; 698  : 					}

	jmp	$LN6@create_wav
$LN5@create_wav:

; 699  : 
; 700  : 					if (!ia)

	cmp	DWORD PTR _ia$[ebp], 0
	jne	SHORT $LN2@create_wav

; 701  : 					{
; 702  : 						valid_data = 0;

	mov	DWORD PTR _valid_data$[ebp], 0

; 703  : 						MonoPrint ("Unknown Command %s\n", str);

	mov	ecx, DWORD PTR _str$[ebp]
	push	ecx
	push	OFFSET ??_C@_0BE@KEEAPDJC@Unknown?5Command?5?$CFs?6?$AA@
	call	_MonoPrint
	add	esp, 8
$LN2@create_wav:

; 704  : 					}
; 705  : 				}
; 706  : 			}
; 707  : 		}
; 708  : 	}

	jmp	$LN84@create_wav
$LN83@create_wav:

; 709  : 
; 710  : 	if (valid_data)

	cmp	DWORD PTR _valid_data$[ebp], 0
	je	SHORT $LN1@create_wav

; 711  : 	{
; 712  : 		create_unit (data);

	lea	edx, DWORD PTR _data$[ebp]
	push	edx
	call	?create_unit@instant_action@@KAXAAUia_data@@@Z ; instant_action::create_unit
	add	esp, 4
$LN1@create_wav:

; 713  : 	}
; 714  : 
; 715  : 	fclose (fp);

	mov	eax, DWORD PTR _fp$[ebp]
	push	eax
	call	_fclose
	add	esp, 4

; 716  : 
; 717  : 	wave_created = 1;

	mov	DWORD PTR ?wave_created@instant_action@@1HA, 1 ; instant_action::wave_created
$LN88@create_wav:

; 718  : 
; 719  : 	return;
; 720  : }

	mov	ecx, DWORD PTR __$ArrayPad$[ebp]
	xor	ecx, ebp
	call	@__security_check_cookie@4
	mov	esp, ebp
	pop	ebp
	ret	0
?create_wave@instant_action@@SAXXZ ENDP			; instant_action::create_wave
_TEXT	ENDS
; Function compile flags: /Odtp
; File c:\users\zhitao li\documents\visual studio 2012\projects\freefalcon\campaign\campupd\iaction.cpp
_TEXT	SEGMENT
_lit$2 = -172						; size = 12
tv524 = -160						; size = 4
$T3 = -156						; size = 4
tv531 = -152						; size = 4
$T4 = -148						; size = 4
tv687 = -144						; size = 4
$T5 = -140						; size = 4
_last_waypoint$ = -136					; size = 4
$T6 = -132						; size = 4
_ly$ = -128						; size = 4
tv350 = -124						; size = 4
_lx$ = -120						; size = 4
tv389 = -116						; size = 4
_y$ = -112						; size = 2
_x$ = -108						; size = 2
_time$ = -104						; size = 4
_i$ = -100						; size = 4
_ny$ = -96						; size = 4
_o$ = -92						; size = 4
_waypoint$ = -88					; size = 4
_numWaypoints$ = -84					; size = 4
_nx$ = -80						; size = 4
_pos$ = -76						; size = 12
_wx$ = -64						; size = 16
_wy$ = -48						; size = 16
_d$ = -32						; size = 16
__$ArrayPad$ = -16					; size = 4
__$EHRec$ = -12						; size = 12
?move_player_flight@instant_action@@SAXXZ PROC		; instant_action::move_player_flight

; 1334 : {

	push	ebp
	mov	ebp, esp
	push	-1
	push	__ehhandler$?move_player_flight@instant_action@@SAXXZ
	mov	eax, DWORD PTR fs:0
	push	eax
	sub	esp, 160				; 000000a0H
	mov	eax, DWORD PTR ___security_cookie
	xor	eax, ebp
	mov	DWORD PTR __$ArrayPad$[ebp], eax
	push	eax
	lea	eax, DWORD PTR __$EHRec$[ebp]
	mov	DWORD PTR fs:0, eax

; 1335 : 	static const float FLIGHT_PLAN_SPEED = 350.0f * KNOTS_TO_FTPSEC;
; 1336 : 
; 1337 : 	float
; 1338 : 		nx,
; 1339 : 		ny,
; 1340 : 		lx,
; 1341 : 		ly;
; 1342 : 
; 1343 : 	short
; 1344 : 		x,
; 1345 : 		y;
; 1346 : 
; 1347 : 	WayPointClass
; 1348 : 		*waypoint,
; 1349 : 		*last_waypoint;
; 1350 : 
; 1351 : 	int
; 1352 : 		time;
; 1353 : 
; 1354 : 
; 1355 : 	if (!player_flight)

	cmp	DWORD PTR ?player_flight@instant_action@@1PAVFlightClass@@A, 0 ; instant_action::player_flight
	jne	SHORT $LN24@move_playe

; 1356 : 	{
; 1357 : 		create_player_flight ();

	call	?create_player_flight@instant_action@@SAXXZ ; instant_action::create_player_flight
$LN24@move_playe:

; 1358 : 	}
; 1359 : 
; 1360 : 	//edg: this next bit o stuff looks for nearest airbases and sets
; 1361 : 	// the players waypoints to them
; 1362 : 	Objective			o;
; 1363 : 	int					numWaypoints, i;
; 1364 : 	float				wx[MAX_IA_WAYPOINTS], wy[MAX_IA_WAYPOINTS];
; 1365 : 	float				d[MAX_IA_WAYPOINTS];
; 1366 : 
; 1367 : 	numWaypoints     = 0;

	mov	DWORD PTR _numWaypoints$[ebp], 0

; 1368 : 	d[0] = 1000.0f * NM_TO_FT;

	mov	eax, 4
	imul	eax, 0
	movss	xmm0, DWORD PTR __real@4ab96e66
	movss	DWORD PTR _d$[ebp+eax], xmm0

; 1369 : 	d[1] = 1000.0f * NM_TO_FT;

	mov	ecx, 4
	shl	ecx, 0
	movss	xmm0, DWORD PTR __real@4ab96e66
	movss	DWORD PTR _d$[ebp+ecx], xmm0

; 1370 : 	d[2] = 1000.0f * NM_TO_FT;

	mov	edx, 4
	shl	edx, 1
	movss	xmm0, DWORD PTR __real@4ab96e66
	movss	DWORD PTR _d$[ebp+edx], xmm0

; 1371 : 	d[3] = 1000.0f * NM_TO_FT;

	mov	eax, 4
	imul	eax, 3
	movss	xmm0, DWORD PTR __real@4ab96e66
	movss	DWORD PTR _d$[ebp+eax], xmm0

; 1372 : 
; 1373 : 	// CLF
; 1374 : 	memset(wx,0,MAX_IA_WAYPOINTS*sizeof(float));

	push	16					; 00000010H
	push	0
	lea	ecx, DWORD PTR _wx$[ebp]
	push	ecx
	call	_memset
	add	esp, 12					; 0000000cH

; 1375 : 	memset(wy,0,MAX_IA_WAYPOINTS*sizeof(float));

	push	16					; 00000010H
	push	0
	lea	edx, DWORD PTR _wy$[ebp]
	push	edx
	call	_memset
	add	esp, 12					; 0000000cH

; 1376 : 
; 1377 : 	{
; 1378 : 		VuListIterator lit(AllCampList);

	mov	eax, DWORD PTR ?AllCampList@@3PAVVuLinkedList@@A ; AllCampList
	push	eax
	lea	ecx, DWORD PTR _lit$2[ebp]
	call	??0VuListIterator@@QAE@PAVVuLinkedList@@@Z ; VuListIterator::VuListIterator
	mov	DWORD PTR __$EHRec$[ebp+8], 0

; 1379 : 		o = (Objective)lit.GetFirst();

	lea	ecx, DWORD PTR _lit$2[ebp]
	call	?GetFirst@VuListIterator@@QAEPAVVuEntity@@XZ ; VuListIterator::GetFirst
	mov	DWORD PTR _o$[ebp], eax
$LN23@move_playe:

; 1380 : 		while (o){

	cmp	DWORD PTR _o$[ebp], 0
	je	$LN22@move_playe

; 1381 : 			if (o->GetType() == TYPE_AIRBASE)

	mov	ecx, DWORD PTR _o$[ebp]
	call	?GetType@CampBaseClass@@QBEEXZ		; CampBaseClass::GetType
	movzx	ecx, al
	cmp	ecx, 1
	jne	$LN8@move_playe

; 1382 : 			{
; 1383 : 				// manhatten dist
; 1384 : 				nx = (float)fabs( o->XPos() - start_x );

	mov	ecx, DWORD PTR _o$[ebp]
	call	?XPos@VuEntity@@QBEMXZ			; VuEntity::XPos
	fstp	DWORD PTR tv524[ebp]
	movss	xmm0, DWORD PTR tv524[ebp]
	subss	xmm0, DWORD PTR ?start_x@instant_action@@1MA
	push	ecx
	movss	DWORD PTR [esp], xmm0
	call	?fabs@@YAMM@Z				; fabs
	add	esp, 4
	fstp	DWORD PTR _nx$[ebp]

; 1385 : 				ny = (float)fabs( o->YPos() - start_y );

	mov	ecx, DWORD PTR _o$[ebp]
	call	?YPos@VuEntity@@QBEMXZ			; VuEntity::YPos
	fstp	DWORD PTR tv531[ebp]
	movss	xmm0, DWORD PTR tv531[ebp]
	subss	xmm0, DWORD PTR ?start_y@instant_action@@1MA
	push	ecx
	movss	DWORD PTR [esp], xmm0
	call	?fabs@@YAMM@Z				; fabs
	add	esp, 4
	fstp	DWORD PTR _ny$[ebp]

; 1386 : 				if ( nx > ny )

	movss	xmm0, DWORD PTR _nx$[ebp]
	comiss	xmm0, DWORD PTR _ny$[ebp]
	jbe	SHORT $LN20@move_playe

; 1387 : 					nx = nx + ny * 0.5f;

	movss	xmm0, DWORD PTR _ny$[ebp]
	mulss	xmm0, DWORD PTR __real@3f000000
	addss	xmm0, DWORD PTR _nx$[ebp]
	movss	DWORD PTR _nx$[ebp], xmm0

; 1388 : 				else

	jmp	SHORT $LN19@move_playe
$LN20@move_playe:

; 1389 : 					nx = ny + nx * 0.5f;

	movss	xmm0, DWORD PTR _nx$[ebp]
	mulss	xmm0, DWORD PTR __real@3f000000
	addss	xmm0, DWORD PTR _ny$[ebp]
	movss	DWORD PTR _nx$[ebp], xmm0
$LN19@move_playe:

; 1390 : 
; 1391 : 				// find closest
; 1392 : 				if ( nx < d[0] )

	mov	edx, 4
	imul	edx, 0
	movss	xmm0, DWORD PTR _d$[ebp+edx]
	comiss	xmm0, DWORD PTR _nx$[ebp]
	jbe	$LN18@move_playe

; 1393 : 				{
; 1394 : 					d[3] = d[2];

	mov	eax, 4
	shl	eax, 1
	mov	ecx, 4
	imul	ecx, 3
	mov	edx, DWORD PTR _d$[ebp+eax]
	mov	DWORD PTR _d$[ebp+ecx], edx

; 1395 : 					wx[3] = wx[2];

	mov	eax, 4
	shl	eax, 1
	mov	ecx, 4
	imul	ecx, 3
	mov	edx, DWORD PTR _wx$[ebp+eax]
	mov	DWORD PTR _wx$[ebp+ecx], edx

; 1396 : 					wy[3] = wy[2];

	mov	eax, 4
	shl	eax, 1
	mov	ecx, 4
	imul	ecx, 3
	mov	edx, DWORD PTR _wy$[ebp+eax]
	mov	DWORD PTR _wy$[ebp+ecx], edx

; 1397 : 					d[2] = d[1];

	mov	eax, 4
	shl	eax, 0
	mov	ecx, 4
	shl	ecx, 1
	mov	edx, DWORD PTR _d$[ebp+eax]
	mov	DWORD PTR _d$[ebp+ecx], edx

; 1398 : 					wx[2] = wx[1];

	mov	eax, 4
	shl	eax, 0
	mov	ecx, 4
	shl	ecx, 1
	mov	edx, DWORD PTR _wx$[ebp+eax]
	mov	DWORD PTR _wx$[ebp+ecx], edx

; 1399 : 					wy[2] = wy[1];

	mov	eax, 4
	shl	eax, 0
	mov	ecx, 4
	shl	ecx, 1
	mov	edx, DWORD PTR _wy$[ebp+eax]
	mov	DWORD PTR _wy$[ebp+ecx], edx

; 1400 : 					d[1] = d[0];

	mov	eax, 4
	imul	eax, 0
	mov	ecx, 4
	shl	ecx, 0
	mov	edx, DWORD PTR _d$[ebp+eax]
	mov	DWORD PTR _d$[ebp+ecx], edx

; 1401 : 					wx[1] = wx[0];

	mov	eax, 4
	imul	eax, 0
	mov	ecx, 4
	shl	ecx, 0
	mov	edx, DWORD PTR _wx$[ebp+eax]
	mov	DWORD PTR _wx$[ebp+ecx], edx

; 1402 : 					wy[1] = wy[0];

	mov	eax, 4
	imul	eax, 0
	mov	ecx, 4
	shl	ecx, 0
	mov	edx, DWORD PTR _wy$[ebp+eax]
	mov	DWORD PTR _wy$[ebp+ecx], edx

; 1403 : 					d[0] = nx;

	mov	eax, 4
	imul	eax, 0
	movss	xmm0, DWORD PTR _nx$[ebp]
	movss	DWORD PTR _d$[ebp+eax], xmm0

; 1404 : 					wx[0] = o->XPos();

	mov	ecx, DWORD PTR _o$[ebp]
	call	?XPos@VuEntity@@QBEMXZ			; VuEntity::XPos
	mov	ecx, 4
	imul	ecx, 0
	fstp	DWORD PTR _wx$[ebp+ecx]

; 1405 : 					wy[0] = o->YPos();

	mov	ecx, DWORD PTR _o$[ebp]
	call	?YPos@VuEntity@@QBEMXZ			; VuEntity::YPos
	mov	edx, 4
	imul	edx, 0
	fstp	DWORD PTR _wy$[ebp+edx]

; 1406 : 					if ( numWaypoints < MAX_IA_WAYPOINTS )

	cmp	DWORD PTR _numWaypoints$[ebp], 4
	jge	SHORT $LN17@move_playe

; 1407 : 						numWaypoints++;

	mov	eax, DWORD PTR _numWaypoints$[ebp]
	add	eax, 1
	mov	DWORD PTR _numWaypoints$[ebp], eax
$LN17@move_playe:

; 1408 : 
; 1409 : 				}

	jmp	$LN8@move_playe
$LN18@move_playe:

; 1410 : 				else if ( nx < d[1] )

	mov	ecx, 4
	shl	ecx, 0
	movss	xmm0, DWORD PTR _d$[ebp+ecx]
	comiss	xmm0, DWORD PTR _nx$[ebp]
	jbe	$LN15@move_playe

; 1411 : 				{
; 1412 : 					d[3] = d[2];

	mov	edx, 4
	shl	edx, 1
	mov	eax, 4
	imul	eax, 3
	mov	ecx, DWORD PTR _d$[ebp+edx]
	mov	DWORD PTR _d$[ebp+eax], ecx

; 1413 : 					wx[3] = wx[2];

	mov	edx, 4
	shl	edx, 1
	mov	eax, 4
	imul	eax, 3
	mov	ecx, DWORD PTR _wx$[ebp+edx]
	mov	DWORD PTR _wx$[ebp+eax], ecx

; 1414 : 					wy[3] = wy[2];

	mov	edx, 4
	shl	edx, 1
	mov	eax, 4
	imul	eax, 3
	mov	ecx, DWORD PTR _wy$[ebp+edx]
	mov	DWORD PTR _wy$[ebp+eax], ecx

; 1415 : 					d[2] = d[1];

	mov	edx, 4
	shl	edx, 0
	mov	eax, 4
	shl	eax, 1
	mov	ecx, DWORD PTR _d$[ebp+edx]
	mov	DWORD PTR _d$[ebp+eax], ecx

; 1416 : 					wx[2] = wx[1];

	mov	edx, 4
	shl	edx, 0
	mov	eax, 4
	shl	eax, 1
	mov	ecx, DWORD PTR _wx$[ebp+edx]
	mov	DWORD PTR _wx$[ebp+eax], ecx

; 1417 : 					wy[2] = wy[1];

	mov	edx, 4
	shl	edx, 0
	mov	eax, 4
	shl	eax, 1
	mov	ecx, DWORD PTR _wy$[ebp+edx]
	mov	DWORD PTR _wy$[ebp+eax], ecx

; 1418 : 					d[1] = nx;

	mov	edx, 4
	shl	edx, 0
	movss	xmm0, DWORD PTR _nx$[ebp]
	movss	DWORD PTR _d$[ebp+edx], xmm0

; 1419 : 					wx[1] = o->XPos();

	mov	ecx, DWORD PTR _o$[ebp]
	call	?XPos@VuEntity@@QBEMXZ			; VuEntity::XPos
	mov	eax, 4
	shl	eax, 0
	fstp	DWORD PTR _wx$[ebp+eax]

; 1420 : 					wy[1] = o->YPos();

	mov	ecx, DWORD PTR _o$[ebp]
	call	?YPos@VuEntity@@QBEMXZ			; VuEntity::YPos
	mov	ecx, 4
	shl	ecx, 0
	fstp	DWORD PTR _wy$[ebp+ecx]

; 1421 : 					if ( numWaypoints < MAX_IA_WAYPOINTS )

	cmp	DWORD PTR _numWaypoints$[ebp], 4
	jge	SHORT $LN14@move_playe

; 1422 : 						numWaypoints++;

	mov	edx, DWORD PTR _numWaypoints$[ebp]
	add	edx, 1
	mov	DWORD PTR _numWaypoints$[ebp], edx
$LN14@move_playe:

; 1423 : 
; 1424 : 				}

	jmp	$LN8@move_playe
$LN15@move_playe:

; 1425 : 				else if ( nx < d[2] )

	mov	eax, 4
	shl	eax, 1
	movss	xmm0, DWORD PTR _d$[ebp+eax]
	comiss	xmm0, DWORD PTR _nx$[ebp]
	jbe	$LN12@move_playe

; 1426 : 				{
; 1427 : 					d[3] = d[2];

	mov	ecx, 4
	shl	ecx, 1
	mov	edx, 4
	imul	edx, 3
	mov	eax, DWORD PTR _d$[ebp+ecx]
	mov	DWORD PTR _d$[ebp+edx], eax

; 1428 : 					wx[3] = wx[2];

	mov	ecx, 4
	shl	ecx, 1
	mov	edx, 4
	imul	edx, 3
	mov	eax, DWORD PTR _wx$[ebp+ecx]
	mov	DWORD PTR _wx$[ebp+edx], eax

; 1429 : 					wy[3] = wy[2];

	mov	ecx, 4
	shl	ecx, 1
	mov	edx, 4
	imul	edx, 3
	mov	eax, DWORD PTR _wy$[ebp+ecx]
	mov	DWORD PTR _wy$[ebp+edx], eax

; 1430 : 					d[2] = nx;

	mov	ecx, 4
	shl	ecx, 1
	movss	xmm0, DWORD PTR _nx$[ebp]
	movss	DWORD PTR _d$[ebp+ecx], xmm0

; 1431 : 					wx[2] = o->XPos();

	mov	ecx, DWORD PTR _o$[ebp]
	call	?XPos@VuEntity@@QBEMXZ			; VuEntity::XPos
	mov	edx, 4
	shl	edx, 1
	fstp	DWORD PTR _wx$[ebp+edx]

; 1432 : 					wy[2] = o->YPos();

	mov	ecx, DWORD PTR _o$[ebp]
	call	?YPos@VuEntity@@QBEMXZ			; VuEntity::YPos
	mov	eax, 4
	shl	eax, 1
	fstp	DWORD PTR _wy$[ebp+eax]

; 1433 : 					if ( numWaypoints < MAX_IA_WAYPOINTS )

	cmp	DWORD PTR _numWaypoints$[ebp], 4
	jge	SHORT $LN11@move_playe

; 1434 : 						numWaypoints++;

	mov	ecx, DWORD PTR _numWaypoints$[ebp]
	add	ecx, 1
	mov	DWORD PTR _numWaypoints$[ebp], ecx
$LN11@move_playe:

; 1435 : 
; 1436 : 				}

	jmp	SHORT $LN8@move_playe
$LN12@move_playe:

; 1437 : 				else if ( nx < d[3] )

	mov	edx, 4
	imul	edx, 3
	movss	xmm0, DWORD PTR _d$[ebp+edx]
	comiss	xmm0, DWORD PTR _nx$[ebp]
	jbe	SHORT $LN8@move_playe

; 1438 : 				{
; 1439 : 					d[3] = nx;

	mov	eax, 4
	imul	eax, 3
	movss	xmm0, DWORD PTR _nx$[ebp]
	movss	DWORD PTR _d$[ebp+eax], xmm0

; 1440 : 					wx[3] = o->XPos();

	mov	ecx, DWORD PTR _o$[ebp]
	call	?XPos@VuEntity@@QBEMXZ			; VuEntity::XPos
	mov	ecx, 4
	imul	ecx, 3
	fstp	DWORD PTR _wx$[ebp+ecx]

; 1441 : 					wy[3] = o->YPos();

	mov	ecx, DWORD PTR _o$[ebp]
	call	?YPos@VuEntity@@QBEMXZ			; VuEntity::YPos
	mov	edx, 4
	imul	edx, 3
	fstp	DWORD PTR _wy$[ebp+edx]

; 1442 : 					if ( numWaypoints < MAX_IA_WAYPOINTS )

	cmp	DWORD PTR _numWaypoints$[ebp], 4
	jge	SHORT $LN8@move_playe

; 1443 : 						numWaypoints++;

	mov	eax, DWORD PTR _numWaypoints$[ebp]
	add	eax, 1
	mov	DWORD PTR _numWaypoints$[ebp], eax
$LN8@move_playe:

; 1444 : 
; 1445 : 				}
; 1446 : 			}
; 1447 : 			o = (Objective) lit.GetNext();

	lea	ecx, DWORD PTR _lit$2[ebp]
	call	?GetNext@VuListIterator@@QAEPAVVuEntity@@XZ ; VuListIterator::GetNext
	mov	DWORD PTR _o$[ebp], eax

; 1448 : 		}

	jmp	$LN23@move_playe
$LN22@move_playe:

; 1449 : 	}

	mov	DWORD PTR __$EHRec$[ebp+8], -1
	lea	ecx, DWORD PTR _lit$2[ebp]
	call	??1VuListIterator@@UAE@XZ		; VuListIterator::~VuListIterator

; 1450 : 
; 1451 : 	// sfr: xy order
; 1452 : 	::vector pos = { start_x, start_y };

	movss	xmm0, DWORD PTR ?start_x@instant_action@@1MA
	movss	DWORD PTR _pos$[ebp], xmm0
	movss	xmm0, DWORD PTR ?start_y@instant_action@@1MA
	movss	DWORD PTR _pos$[ebp+4], xmm0
	xor	ecx, ecx
	mov	DWORD PTR _pos$[ebp+8], ecx

; 1453 : 	ConvertSimToGrid(&pos, &x, &y);

	lea	edx, DWORD PTR _y$[ebp]
	push	edx
	lea	eax, DWORD PTR _x$[ebp]
	push	eax
	lea	ecx, DWORD PTR _pos$[ebp]
	push	ecx
	call	?ConvertSimToGrid@@YAXPAUvector@@PAF1@Z	; ConvertSimToGrid
	add	esp, 12					; 0000000cH

; 1454 : 	//x = SimToGrid (start_y);
; 1455 : 	//y = SimToGrid (start_x);
; 1456 : 
; 1457 : 	player_flight->SetLocation (x, y);

	movzx	edx, WORD PTR _y$[ebp]
	push	edx
	movzx	eax, WORD PTR _x$[ebp]
	push	eax
	mov	ecx, DWORD PTR ?player_flight@instant_action@@1PAVFlightClass@@A ; instant_action::player_flight
	call	?SetLocation@CampBaseClass@@QAEXFF@Z	; CampBaseClass::SetLocation

; 1458 : 	player_flight->SetAltitude (10000);

	push	10000					; 00002710H
	mov	ecx, DWORD PTR ?player_flight@instant_action@@1PAVFlightClass@@A ; instant_action::player_flight
	call	?SetAltitude@CampBaseClass@@QAEXH@Z	; CampBaseClass::SetAltitude

; 1459 : 
; 1460 : 	// Create Waypoints
; 1461 : 
; 1462 : 	// first one is at player's start location.....
; 1463 : 	time = start_time * 1000;

	mov	ecx, DWORD PTR ?start_time@instant_action@@1JA ; instant_action::start_time
	imul	ecx, 1000				; 000003e8H
	mov	DWORD PTR _time$[ebp], ecx

; 1464 : 
; 1465 : 	nx = start_x;

	movss	xmm0, DWORD PTR ?start_x@instant_action@@1MA
	movss	DWORD PTR _nx$[ebp], xmm0

; 1466 : 	ny = start_y;

	movss	xmm0, DWORD PTR ?start_y@instant_action@@1MA
	movss	DWORD PTR _ny$[ebp], xmm0

; 1467 : 
; 1468 : 	waypoint = new WayPointClass;

	push	60					; 0000003cH
	call	??2@YAPAXI@Z				; operator new
	add	esp, 4
	mov	DWORD PTR $T5[ebp], eax
	mov	DWORD PTR __$EHRec$[ebp+8], 1
	cmp	DWORD PTR $T5[ebp], 0
	je	SHORT $LN27@move_playe
	mov	ecx, DWORD PTR $T5[ebp]
	call	??0WayPointClass@@QAE@XZ		; WayPointClass::WayPointClass
	mov	DWORD PTR tv350[ebp], eax
	jmp	SHORT $LN28@move_playe
$LN27@move_playe:
	mov	DWORD PTR tv350[ebp], 0
$LN28@move_playe:
	mov	edx, DWORD PTR tv350[ebp]
	mov	DWORD PTR $T4[ebp], edx
	mov	DWORD PTR __$EHRec$[ebp+8], -1
	mov	eax, DWORD PTR $T4[ebp]
	mov	DWORD PTR _waypoint$[ebp], eax

; 1469 : 	waypoint->SetLocation (nx, ny, -10000);

	push	ecx
	movss	xmm0, DWORD PTR __real@c61c4000
	movss	DWORD PTR [esp], xmm0
	push	ecx
	movss	xmm0, DWORD PTR _ny$[ebp]
	movss	DWORD PTR [esp], xmm0
	push	ecx
	movss	xmm0, DWORD PTR _nx$[ebp]
	movss	DWORD PTR [esp], xmm0
	mov	ecx, DWORD PTR _waypoint$[ebp]
	call	?SetLocation@WayPointClass@@QAEXMMM@Z	; WayPointClass::SetLocation

; 1470 : 	waypoint->SetWPArrive (time);

	mov	ecx, DWORD PTR _time$[ebp]
	push	ecx
	mov	ecx, DWORD PTR _waypoint$[ebp]
	call	?SetWPArrive@WayPointClass@@QAEXK@Z	; WayPointClass::SetWPArrive

; 1471 : 	waypoint->SetWPDepartTime (time);

	mov	edx, DWORD PTR _time$[ebp]
	push	edx
	mov	ecx, DWORD PTR _waypoint$[ebp]
	call	?SetWPDepartTime@WayPointClass@@QAEXK@Z	; WayPointClass::SetWPDepartTime

; 1472 : 	waypoint->SetWPAction (WP_CA);

	push	11					; 0000000bH
	mov	ecx, DWORD PTR _waypoint$[ebp]
	call	?SetWPAction@WayPointClass@@QAEXH@Z	; WayPointClass::SetWPAction

; 1473 : 
; 1474 : 	player_flight->wp_list = waypoint;

	mov	eax, DWORD PTR ?player_flight@instant_action@@1PAVFlightClass@@A ; instant_action::player_flight
	mov	ecx, DWORD PTR _waypoint$[ebp]
	mov	DWORD PTR [eax+244], ecx

; 1475 : 
; 1476 : 	last_waypoint = waypoint;

	mov	edx, DWORD PTR _waypoint$[ebp]
	mov	DWORD PTR _last_waypoint$[ebp], edx

; 1477 : 	lx = nx;

	movss	xmm0, DWORD PTR _nx$[ebp]
	movss	DWORD PTR _lx$[ebp], xmm0

; 1478 : 	ly = ny;

	movss	xmm0, DWORD PTR _ny$[ebp]
	movss	DWORD PTR _ly$[ebp], xmm0

; 1479 : 
; 1480 : 	// now loop thru the number of located airbases we found....
; 1481 : 	for ( i = 0; i < numWaypoints; i++ )

	mov	DWORD PTR _i$[ebp], 0
	jmp	SHORT $LN7@move_playe
$LN6@move_playe:
	mov	eax, DWORD PTR _i$[ebp]
	add	eax, 1
	mov	DWORD PTR _i$[ebp], eax
$LN7@move_playe:
	mov	ecx, DWORD PTR _i$[ebp]
	cmp	ecx, DWORD PTR _numWaypoints$[ebp]
	jge	$LN5@move_playe

; 1482 : 	{
; 1483 : 		nx = wx[i];

	mov	edx, DWORD PTR _i$[ebp]
	movss	xmm0, DWORD PTR _wx$[ebp+edx*4]
	movss	DWORD PTR _nx$[ebp], xmm0

; 1484 : 		ny = wy[i];

	mov	eax, DWORD PTR _i$[ebp]
	movss	xmm0, DWORD PTR _wy$[ebp+eax*4]
	movss	DWORD PTR _ny$[ebp], xmm0

; 1485 : 
; 1486 : 		time += FloatToInt32((Distance(lx, ly, nx, ny)) / FLIGHT_PLAN_SPEED) * 1000;

	push	ecx
	movss	xmm0, DWORD PTR _ny$[ebp]
	movss	DWORD PTR [esp], xmm0
	push	ecx
	movss	xmm0, DWORD PTR _nx$[ebp]
	movss	DWORD PTR [esp], xmm0
	push	ecx
	movss	xmm0, DWORD PTR _ly$[ebp]
	movss	DWORD PTR [esp], xmm0
	push	ecx
	movss	xmm0, DWORD PTR _lx$[ebp]
	movss	DWORD PTR [esp], xmm0
	call	?Distance@@YAMMMMM@Z			; Distance
	add	esp, 16					; 00000010H
	fstp	DWORD PTR tv687[ebp]
	movss	xmm0, DWORD PTR tv687[ebp]
	divss	xmm0, DWORD PTR ?FLIGHT_PLAN_SPEED@?1??move_player_flight@instant_action@@SAXXZ@4MB
	push	ecx
	movss	DWORD PTR [esp], xmm0
	call	?FloatToInt32@@YAHM@Z			; FloatToInt32
	add	esp, 4
	imul	eax, 1000				; 000003e8H
	add	eax, DWORD PTR _time$[ebp]
	mov	DWORD PTR _time$[ebp], eax

; 1487 : 
; 1488 : 		waypoint = new WayPointClass;

	push	60					; 0000003cH
	call	??2@YAPAXI@Z				; operator new
	add	esp, 4
	mov	DWORD PTR $T6[ebp], eax
	mov	DWORD PTR __$EHRec$[ebp+8], 2
	cmp	DWORD PTR $T6[ebp], 0
	je	SHORT $LN29@move_playe
	mov	ecx, DWORD PTR $T6[ebp]
	call	??0WayPointClass@@QAE@XZ		; WayPointClass::WayPointClass
	mov	DWORD PTR tv389[ebp], eax
	jmp	SHORT $LN30@move_playe
$LN29@move_playe:
	mov	DWORD PTR tv389[ebp], 0
$LN30@move_playe:
	mov	ecx, DWORD PTR tv389[ebp]
	mov	DWORD PTR $T3[ebp], ecx
	mov	DWORD PTR __$EHRec$[ebp+8], -1
	mov	edx, DWORD PTR $T3[ebp]
	mov	DWORD PTR _waypoint$[ebp], edx

; 1489 : 		waypoint->SetLocation (nx, ny, -10000);

	push	ecx
	movss	xmm0, DWORD PTR __real@c61c4000
	movss	DWORD PTR [esp], xmm0
	push	ecx
	movss	xmm0, DWORD PTR _ny$[ebp]
	movss	DWORD PTR [esp], xmm0
	push	ecx
	movss	xmm0, DWORD PTR _nx$[ebp]
	movss	DWORD PTR [esp], xmm0
	mov	ecx, DWORD PTR _waypoint$[ebp]
	call	?SetLocation@WayPointClass@@QAEXMMM@Z	; WayPointClass::SetLocation

; 1490 : 		waypoint->SetWPArrive (time);

	mov	eax, DWORD PTR _time$[ebp]
	push	eax
	mov	ecx, DWORD PTR _waypoint$[ebp]
	call	?SetWPArrive@WayPointClass@@QAEXK@Z	; WayPointClass::SetWPArrive

; 1491 : 		waypoint->SetWPDepartTime (time);

	mov	ecx, DWORD PTR _time$[ebp]
	push	ecx
	mov	ecx, DWORD PTR _waypoint$[ebp]
	call	?SetWPDepartTime@WayPointClass@@QAEXK@Z	; WayPointClass::SetWPDepartTime

; 1492 : 		waypoint->SetWPAction (WP_CA);

	push	11					; 0000000bH
	mov	ecx, DWORD PTR _waypoint$[ebp]
	call	?SetWPAction@WayPointClass@@QAEXH@Z	; WayPointClass::SetWPAction

; 1493 : 
; 1494 :       if (i == numWaypoints - 1)

	mov	edx, DWORD PTR _numWaypoints$[ebp]
	sub	edx, 1
	cmp	DWORD PTR _i$[ebp], edx
	jne	SHORT $LN4@move_playe

; 1495 :       {
; 1496 :          waypoint->SetWPFlags (WPF_REPEAT_CONTINUOUS | WPF_REPEAT);

	push	4160					; 00001040H
	mov	ecx, DWORD PTR _waypoint$[ebp]
	call	?SetWPFlags@WayPointClass@@QAEXK@Z	; WayPointClass::SetWPFlags
$LN4@move_playe:

; 1497 :       }
; 1498 : 	
; 1499 : 		last_waypoint->SetNextWP (waypoint);

	mov	eax, DWORD PTR _waypoint$[ebp]
	push	eax
	mov	ecx, DWORD PTR _last_waypoint$[ebp]
	call	?SetNextWP@WayPointClass@@QAEXPAV1@@Z	; WayPointClass::SetNextWP

; 1500 : 	
; 1501 : 		last_waypoint = waypoint;

	mov	ecx, DWORD PTR _waypoint$[ebp]
	mov	DWORD PTR _last_waypoint$[ebp], ecx

; 1502 : 		lx = nx;

	movss	xmm0, DWORD PTR _nx$[ebp]
	movss	DWORD PTR _lx$[ebp], xmm0

; 1503 : 		ly = ny;

	movss	xmm0, DWORD PTR _ny$[ebp]
	movss	DWORD PTR _ly$[ebp], xmm0

; 1504 : 	}

	jmp	$LN6@move_playe
$LN5@move_playe:

; 1505 : 
; 1506 : 	if ( numWaypoints >= 2 )

	cmp	DWORD PTR _numWaypoints$[ebp], 2
	jl	SHORT $LN3@move_playe

; 1507 : 		player_flight->SetCurrentWaypoint (2);

	push	2
	mov	ecx, DWORD PTR ?player_flight@instant_action@@1PAVFlightClass@@A ; instant_action::player_flight
	call	?SetCurrentWaypoint@UnitClass@@QAEXG@Z	; UnitClass::SetCurrentWaypoint
	jmp	SHORT $LN1@move_playe
$LN3@move_playe:

; 1508 : 	else if ( numWaypoints > 0 )

	cmp	DWORD PTR _numWaypoints$[ebp], 0
	jle	SHORT $LN1@move_playe

; 1509 : 		player_flight->SetCurrentWaypoint (1);

	push	1
	mov	ecx, DWORD PTR ?player_flight@instant_action@@1PAVFlightClass@@A ; instant_action::player_flight
	call	?SetCurrentWaypoint@UnitClass@@QAEXG@Z	; UnitClass::SetCurrentWaypoint
$LN1@move_playe:

; 1510 : 
; 1511 : 	player_flight->SetLastDirection (0);

	push	0
	mov	ecx, DWORD PTR ?player_flight@instant_action@@1PAVFlightClass@@A ; instant_action::player_flight
	call	?SetLastDirection@FlightClass@@QAEXE@Z	; FlightClass::SetLastDirection

; 1512 : 
; 1513 : 	player_flight->SetUnitLastMove (start_time * 1000);

	mov	edx, DWORD PTR ?start_time@instant_action@@1JA ; instant_action::start_time
	imul	edx, 1000				; 000003e8H
	push	edx
	mov	eax, DWORD PTR ?player_flight@instant_action@@1PAVFlightClass@@A ; instant_action::player_flight
	mov	edx, DWORD PTR [eax]
	mov	ecx, DWORD PTR ?player_flight@instant_action@@1PAVFlightClass@@A ; instant_action::player_flight
	mov	eax, DWORD PTR [edx+592]
	call	eax

; 1514 : 	player_flight->SetFinal (1);

	push	1
	mov	ecx, DWORD PTR ?player_flight@instant_action@@1PAVFlightClass@@A ; instant_action::player_flight
	call	?SetFinal@UnitClass@@QAEXH@Z		; UnitClass::SetFinal

; 1515 : 
; 1516 : 	FalconLocalSession->SetPlayerFlight (player_flight);

	mov	ecx, DWORD PTR ?player_flight@instant_action@@1PAVFlightClass@@A ; instant_action::player_flight
	push	ecx
	mov	ecx, OFFSET ?vuLocalSessionEntity@@3V?$VuBin@VVuSessionEntity@@@@A ; vuLocalSessionEntity
	call	?get@?$VuBin@VVuSessionEntity@@@@QBEPAVVuSessionEntity@@XZ ; VuBin<VuSessionEntity>::get
	mov	ecx, eax
	call	?SetPlayerFlight@FalconSessionEntity@@QAEXPAVFlightClass@@@Z ; FalconSessionEntity::SetPlayerFlight

; 1517 : 	FalconLocalSession->SetAircraftNum (0);

	push	0
	mov	ecx, OFFSET ?vuLocalSessionEntity@@3V?$VuBin@VVuSessionEntity@@@@A ; vuLocalSessionEntity
	call	?get@?$VuBin@VVuSessionEntity@@@@QBEPAVVuSessionEntity@@XZ ; VuBin<VuSessionEntity>::get
	mov	ecx, eax
	call	?SetAircraftNum@FalconSessionEntity@@QAEXE@Z ; FalconSessionEntity::SetAircraftNum

; 1518 : 	FalconLocalSession->SetPilotSlot (PILOTS_PER_FLIGHT);

	push	4
	mov	ecx, OFFSET ?vuLocalSessionEntity@@3V?$VuBin@VVuSessionEntity@@@@A ; vuLocalSessionEntity
	call	?get@?$VuBin@VVuSessionEntity@@@@QBEPAVVuSessionEntity@@XZ ; VuBin<VuSessionEntity>::get
	mov	ecx, eax
	call	?SetPilotSlot@FalconSessionEntity@@QAEXE@Z ; FalconSessionEntity::SetPilotSlot

; 1519 : 	FalconLocalSession->DoFullUpdate ();

	mov	ecx, OFFSET ?vuLocalSessionEntity@@3V?$VuBin@VVuSessionEntity@@@@A ; vuLocalSessionEntity
	call	?get@?$VuBin@VVuSessionEntity@@@@QBEPAVVuSessionEntity@@XZ ; VuBin<VuSessionEntity>::get
	mov	ecx, eax
	call	?DoFullUpdate@FalconSessionEntity@@QAEXXZ ; FalconSessionEntity::DoFullUpdate

; 1520 : }

	mov	ecx, DWORD PTR __$EHRec$[ebp]
	mov	DWORD PTR fs:0, ecx
	pop	ecx
	mov	ecx, DWORD PTR __$ArrayPad$[ebp]
	xor	ecx, ebp
	call	@__security_check_cookie@4
	mov	esp, ebp
	pop	ebp
	ret	0
_TEXT	ENDS
text$x	SEGMENT
__unwindfunclet$?move_player_flight@instant_action@@SAXXZ$0:
	lea	ecx, DWORD PTR _lit$2[ebp]
	jmp	??1VuListIterator@@UAE@XZ		; VuListIterator::~VuListIterator
__unwindfunclet$?move_player_flight@instant_action@@SAXXZ$1:
	mov	eax, DWORD PTR $T5[ebp]
	push	eax
	call	??3@YAXPAX@Z				; operator delete
	pop	ecx
	ret	0
__unwindfunclet$?move_player_flight@instant_action@@SAXXZ$2:
	mov	eax, DWORD PTR $T6[ebp]
	push	eax
	call	??3@YAXPAX@Z				; operator delete
	pop	ecx
	ret	0
__ehhandler$?move_player_flight@instant_action@@SAXXZ:
	mov	edx, DWORD PTR [esp+8]
	lea	eax, DWORD PTR [edx+12]
	mov	ecx, DWORD PTR [edx-164]
	xor	ecx, eax
	call	@__security_check_cookie@4
	mov	ecx, DWORD PTR [edx-4]
	xor	ecx, eax
	call	@__security_check_cookie@4
	mov	eax, OFFSET __ehfuncinfo$?move_player_flight@instant_action@@SAXXZ
	jmp	___CxxFrameHandler3
text$x	ENDS
?move_player_flight@instant_action@@SAXXZ ENDP		; instant_action::move_player_flight
; Function compile flags: /Odtp
; File c:\users\zhitao li\documents\visual studio 2012\projects\freefalcon\campaign\campupd\iaction.cpp
_TEXT	SEGMENT
$T2 = -380						; size = 8
_ia$ = -372						; size = 4
_valid_data$ = -368					; size = 4
_loop$ = -364						; size = 4
$T3 = -360						; size = 4
_type$ = -356						; size = 4
_specific$ = -352					; size = 4
_subtype$ = -348					; size = 4
_vc$ = -344						; size = 4
$T4 = -340						; size = 4
_num_vehicles$ = -336					; size = 4
tv74 = -332						; size = 4
_x$ = -328						; size = 2
_y$ = -324						; size = 2
tv478 = -320						; size = 4
_fp$ = -316						; size = 4
_tid$ = -312						; size = 4
_i$ = -308						; size = 4
_ptr$ = -304						; size = 4
_value$ = -300						; size = 4
_str$ = -296						; size = 4
_loadout$ = -292					; size = 4
_pos$ = -288						; size = 12
_buffer$ = -276						; size = 260
__$ArrayPad$ = -16					; size = 4
__$EHRec$ = -12						; size = 12
?create_player_flight@instant_action@@SAXXZ PROC	; instant_action::create_player_flight

; 727  : {

	push	ebp
	mov	ebp, esp
	push	-1
	push	__ehhandler$?create_player_flight@instant_action@@SAXXZ
	mov	eax, DWORD PTR fs:0
	push	eax
	sub	esp, 368				; 00000170H
	mov	eax, DWORD PTR ___security_cookie
	xor	eax, ebp
	mov	DWORD PTR __$ArrayPad$[ebp], eax
	push	eax
	lea	eax, DWORD PTR __$EHRec$[ebp]
	mov	DWORD PTR fs:0, eax

; 728  : 	//Modified by TW, 2003-10-17
; 729  : 	//You can now configure your plane type and loadout using the files m.ia and f.ia
; 730  : 	int
; 731  : 		loop=0,

	mov	DWORD PTR _loop$[ebp], 0

; 732  : 		valid_data=0,

	mov	DWORD PTR _valid_data$[ebp], 0

; 733  : 		value=0,

	mov	DWORD PTR _value$[ebp], 0

; 734  : 		tid,
; 735  : 		i,
; 736  : 		type,
; 737  : 		subtype,
; 738  : 		specific,
; 739  : 		num_vehicles;
; 740  : 
; 741  : 	char
; 742  : 		*ptr=NULL,

	mov	DWORD PTR _ptr$[ebp], 0

; 743  : 		*str=NULL,

	mov	DWORD PTR _str$[ebp], 0

; 744  : 		buffer[MAX_PATH]={0};

	mov	BYTE PTR _buffer$[ebp], 0
	push	259					; 00000103H
	push	0
	lea	eax, DWORD PTR _buffer$[ebp+1]
	push	eax
	call	_memset
	add	esp, 12					; 0000000cH

; 745  : 
; 746  : 	FILE
; 747  : 		*fp=NULL;

	mov	DWORD PTR _fp$[ebp], 0

; 748  : 
; 749  : 	ia_type
; 750  : 		*ia=NULL;

	mov	DWORD PTR _ia$[ebp], 0

; 751  : 
; 752  : 	short
; 753  : 		x,
; 754  : 		y;
; 755  : 
; 756  : 
; 757  : 	VehicleClassDataType
; 758  : 		*vc;
; 759  : 
; 760  : 	LoadoutStruct
; 761  : 		*loadout;
; 762  : 
; 763  : 
; 764  : 	loadout = new LoadoutStruct;

	push	48					; 00000030H
	call	??2@YAPAXI@Z				; operator new
	add	esp, 4
	mov	DWORD PTR $T4[ebp], eax
	mov	DWORD PTR __$EHRec$[ebp+8], 0
	cmp	DWORD PTR $T4[ebp], 0
	je	SHORT $LN79@create_pla
	mov	ecx, DWORD PTR $T4[ebp]
	call	??0LoadoutStruct@@QAE@XZ		; LoadoutStruct::LoadoutStruct
	mov	DWORD PTR tv74[ebp], eax
	jmp	SHORT $LN80@create_pla
$LN79@create_pla:
	mov	DWORD PTR tv74[ebp], 0
$LN80@create_pla:
	mov	ecx, DWORD PTR tv74[ebp]
	mov	DWORD PTR $T3[ebp], ecx
	mov	DWORD PTR __$EHRec$[ebp+8], -1
	mov	edx, DWORD PTR $T3[ebp]
	mov	DWORD PTR _loadout$[ebp], edx

; 765  : 
; 766  : 	sprintf (buffer, "%s\\%c.ia", FalconCampUserSaveDirectory, current_mode);

	movsx	eax, BYTE PTR ?current_mode@instant_action@@1DA ; instant_action::current_mode
	push	eax
	push	OFFSET ?FalconCampUserSaveDirectory@@3PADA ; FalconCampUserSaveDirectory
	push	OFFSET ??_C@_08OFMENCFB@?$CFs?2?$CFc?4ia?$AA@
	lea	ecx, DWORD PTR _buffer$[ebp]
	push	ecx
	call	_sprintf
	add	esp, 16					; 00000010H

; 767  : 	fp = fopen (buffer, "r");

	push	OFFSET ??_C@_01KDCPPGHE@r?$AA@
	lea	edx, DWORD PTR _buffer$[ebp]
	push	edx
	call	_fopen
	add	esp, 8
	mov	DWORD PTR _fp$[ebp], eax

; 768  : 	if (fp)

	cmp	DWORD PTR _fp$[ebp], 0
	je	$LN76@create_pla
$LN75@create_pla:

; 769  : 	{
; 770  : 		// MonoPrint ("Loading %s for Instant Action player plane File", buffer);
; 771  : 		// We have the file - read plane and loadout
; 772  : 		while (fgets (buffer, 100, fp))

	mov	eax, DWORD PTR _fp$[ebp]
	push	eax
	push	100					; 00000064H
	lea	ecx, DWORD PTR _buffer$[ebp]
	push	ecx
	call	_fgets
	add	esp, 12					; 0000000cH
	test	eax, eax
	je	$LN74@create_pla

; 773  : 		{
; 774  : 			str = buffer;

	lea	edx, DWORD PTR _buffer$[ebp]
	mov	DWORD PTR _str$[ebp], edx
$LN73@create_pla:

; 775  : 			while (*str)

	mov	eax, DWORD PTR _str$[ebp]
	movsx	ecx, BYTE PTR [eax]
	test	ecx, ecx
	je	SHORT $LN72@create_pla

; 776  : 			{
; 777  : 				if ((*str != ' ') && (*str != '\t'))

	mov	edx, DWORD PTR _str$[ebp]
	movsx	eax, BYTE PTR [edx]
	cmp	eax, 32					; 00000020H
	je	SHORT $LN71@create_pla
	mov	ecx, DWORD PTR _str$[ebp]
	movsx	edx, BYTE PTR [ecx]
	cmp	edx, 9
	je	SHORT $LN71@create_pla

; 778  : 				{
; 779  : 					break;

	jmp	SHORT $LN72@create_pla
$LN71@create_pla:

; 780  : 				}
; 781  : 				str ++;

	mov	eax, DWORD PTR _str$[ebp]
	add	eax, 1
	mov	DWORD PTR _str$[ebp], eax

; 782  : 			}

	jmp	SHORT $LN73@create_pla
$LN72@create_pla:

; 783  : 
; 784  : 			if ((*str >= '0') && (*str <= '9'))

	mov	ecx, DWORD PTR _str$[ebp]
	movsx	edx, BYTE PTR [ecx]
	cmp	edx, 48					; 00000030H
	jl	$LN18@create_pla
	mov	eax, DWORD PTR _str$[ebp]
	movsx	ecx, BYTE PTR [eax]
	cmp	ecx, 57					; 00000039H
	jg	$LN18@create_pla

; 785  : 			{
; 786  : 				value = atoi (str);

	mov	edx, DWORD PTR _str$[ebp]
	push	edx
	call	_atoi
	add	esp, 4
	mov	DWORD PTR _value$[ebp], eax
$LN69@create_pla:

; 787  : 
; 788  : 				while (*str)

	mov	eax, DWORD PTR _str$[ebp]
	movsx	ecx, BYTE PTR [eax]
	test	ecx, ecx
	je	SHORT $LN68@create_pla

; 789  : 				{
; 790  : 					if (*str == ' ')

	mov	edx, DWORD PTR _str$[ebp]
	movsx	eax, BYTE PTR [edx]
	cmp	eax, 32					; 00000020H
	jne	SHORT $LN67@create_pla

; 791  : 					{
; 792  : 						str ++;

	mov	ecx, DWORD PTR _str$[ebp]
	add	ecx, 1
	mov	DWORD PTR _str$[ebp], ecx

; 793  : 						break;

	jmp	SHORT $LN68@create_pla
$LN67@create_pla:

; 794  : 					}
; 795  : 
; 796  : 					str ++;

	mov	edx, DWORD PTR _str$[ebp]
	add	edx, 1
	mov	DWORD PTR _str$[ebp], edx

; 797  : 				}

	jmp	SHORT $LN69@create_pla
$LN68@create_pla:

; 798  : 
; 799  : 				ptr = str;

	mov	eax, DWORD PTR _str$[ebp]
	mov	DWORD PTR _ptr$[ebp], eax
$LN66@create_pla:

; 800  : 
; 801  : 				while (*ptr)

	mov	ecx, DWORD PTR _ptr$[ebp]
	movsx	edx, BYTE PTR [ecx]
	test	edx, edx
	je	SHORT $LN65@create_pla

; 802  : 				{
; 803  : 					if ((*ptr == '\n') || (*ptr == '\r') || (*ptr == ' ') || (*ptr == '\t'))

	mov	eax, DWORD PTR _ptr$[ebp]
	movsx	ecx, BYTE PTR [eax]
	cmp	ecx, 10					; 0000000aH
	je	SHORT $LN63@create_pla
	mov	edx, DWORD PTR _ptr$[ebp]
	movsx	eax, BYTE PTR [edx]
	cmp	eax, 13					; 0000000dH
	je	SHORT $LN63@create_pla
	mov	ecx, DWORD PTR _ptr$[ebp]
	movsx	edx, BYTE PTR [ecx]
	cmp	edx, 32					; 00000020H
	je	SHORT $LN63@create_pla
	mov	eax, DWORD PTR _ptr$[ebp]
	movsx	ecx, BYTE PTR [eax]
	cmp	ecx, 9
	jne	SHORT $LN64@create_pla
$LN63@create_pla:

; 804  : 					{
; 805  : 						*ptr = '\0';

	mov	edx, DWORD PTR _ptr$[ebp]
	mov	BYTE PTR [edx], 0

; 806  : 						break;

	jmp	SHORT $LN65@create_pla
$LN64@create_pla:

; 807  : 					}
; 808  : 
; 809  : 					ptr ++;

	mov	eax, DWORD PTR _ptr$[ebp]
	add	eax, 1
	mov	DWORD PTR _ptr$[ebp], eax

; 810  : 				}

	jmp	SHORT $LN66@create_pla
$LN65@create_pla:

; 811  : 
; 812  : 				//Setup plane
; 813  : 				if (stricmp (str, "type") == 0)

	push	OFFSET ??_C@_04GPMDFGEJ@type?$AA@
	mov	ecx, DWORD PTR _str$[ebp]
	push	ecx
	call	_stricmp
	add	esp, 8
	test	eax, eax
	jne	SHORT $LN62@create_pla

; 814  : 				{
; 815  : 					type = (unsigned char) value;

	movzx	edx, BYTE PTR _value$[ebp]
	mov	DWORD PTR _type$[ebp], edx
	jmp	$LN18@create_pla
$LN62@create_pla:

; 816  : 				}
; 817  : 				else if (stricmp (str, "subtype") == 0)

	push	OFFSET ??_C@_07BFHALJJD@subtype?$AA@
	mov	eax, DWORD PTR _str$[ebp]
	push	eax
	call	_stricmp
	add	esp, 8
	test	eax, eax
	jne	SHORT $LN60@create_pla

; 818  : 				{
; 819  : 					subtype = (unsigned char) value;

	movzx	ecx, BYTE PTR _value$[ebp]
	mov	DWORD PTR _subtype$[ebp], ecx
	jmp	$LN18@create_pla
$LN60@create_pla:

; 820  : 				}
; 821  : 				else if (stricmp (str, "specific") == 0)

	push	OFFSET ??_C@_08KINPOOEP@specific?$AA@
	mov	edx, DWORD PTR _str$[ebp]
	push	edx
	call	_stricmp
	add	esp, 8
	test	eax, eax
	jne	SHORT $LN58@create_pla

; 822  : 				{
; 823  : 					specific = (unsigned char) value;

	movzx	eax, BYTE PTR _value$[ebp]
	mov	DWORD PTR _specific$[ebp], eax
	jmp	$LN18@create_pla
$LN58@create_pla:

; 824  : 				}
; 825  : 
; 826  : 				//Setup loadout
; 827  : 				else if (stricmp (str, "w0") == 0)

	push	OFFSET ??_C@_02IOEGGOML@w0?$AA@
	mov	ecx, DWORD PTR _str$[ebp]
	push	ecx
	call	_stricmp
	add	esp, 8
	test	eax, eax
	jne	SHORT $LN56@create_pla

; 828  : 				{
; 829  : 					loadout->WeaponID[0] = (short) value;

	mov	edx, 2
	imul	edx, 0
	mov	eax, DWORD PTR _loadout$[ebp]
	mov	cx, WORD PTR _value$[ebp]
	mov	WORD PTR [eax+edx], cx
	jmp	$LN18@create_pla
$LN56@create_pla:

; 830  : 				}
; 831  : 				else if (stricmp (str, "c0") == 0)

	push	OFFSET ??_C@_02JFGJGFGH@c0?$AA@
	mov	edx, DWORD PTR _str$[ebp]
	push	edx
	call	_stricmp
	add	esp, 8
	test	eax, eax
	jne	SHORT $LN54@create_pla

; 832  : 				{
; 833  : 					loadout->WeaponCount[0] = (unsigned char) value;

	mov	eax, 1
	imul	eax, 0
	mov	ecx, DWORD PTR _loadout$[ebp]
	mov	dl, BYTE PTR _value$[ebp]
	mov	BYTE PTR [ecx+eax+32], dl
	jmp	$LN18@create_pla
$LN54@create_pla:

; 834  : 				}
; 835  : 
; 836  : 				else if (stricmp (str, "w1") == 0)

	push	OFFSET ??_C@_02JHFNFPIK@w1?$AA@
	mov	eax, DWORD PTR _str$[ebp]
	push	eax
	call	_stricmp
	add	esp, 8
	test	eax, eax
	jne	SHORT $LN52@create_pla

; 837  : 				{
; 838  : 					loadout->WeaponID[1] = (short) value;

	mov	ecx, 2
	shl	ecx, 0
	mov	edx, DWORD PTR _loadout$[ebp]
	mov	ax, WORD PTR _value$[ebp]
	mov	WORD PTR [edx+ecx], ax
	jmp	$LN18@create_pla
$LN52@create_pla:

; 839  : 				}
; 840  : 				else if (stricmp (str, "c1") == 0)

	push	OFFSET ??_C@_02IMHCFECG@c1?$AA@
	mov	ecx, DWORD PTR _str$[ebp]
	push	ecx
	call	_stricmp
	add	esp, 8
	test	eax, eax
	jne	SHORT $LN50@create_pla

; 841  : 				{
; 842  : 					loadout->WeaponCount[1] = (unsigned char) value;

	mov	edx, 1
	shl	edx, 0
	mov	eax, DWORD PTR _loadout$[ebp]
	mov	cl, BYTE PTR _value$[ebp]
	mov	BYTE PTR [eax+edx+32], cl
	jmp	$LN18@create_pla
$LN50@create_pla:

; 843  : 				}
; 844  : 
; 845  : 				else if (stricmp (str, "w2") == 0)

	push	OFFSET ??_C@_02LMHAAMEJ@w2?$AA@
	mov	edx, DWORD PTR _str$[ebp]
	push	edx
	call	_stricmp
	add	esp, 8
	test	eax, eax
	jne	SHORT $LN48@create_pla

; 846  : 				{
; 847  : 					loadout->WeaponID[2] = (short) value;

	mov	eax, 2
	shl	eax, 1
	mov	ecx, DWORD PTR _loadout$[ebp]
	mov	dx, WORD PTR _value$[ebp]
	mov	WORD PTR [ecx+eax], dx
	jmp	$LN18@create_pla
$LN48@create_pla:

; 848  : 				}
; 849  : 				else if (stricmp (str, "c2") == 0)

	push	OFFSET ??_C@_02KHFPAHOF@c2?$AA@
	mov	eax, DWORD PTR _str$[ebp]
	push	eax
	call	_stricmp
	add	esp, 8
	test	eax, eax
	jne	SHORT $LN46@create_pla

; 850  : 				{
; 851  : 					loadout->WeaponCount[2] = (unsigned char) value;

	mov	ecx, 1
	shl	ecx, 1
	mov	edx, DWORD PTR _loadout$[ebp]
	mov	al, BYTE PTR _value$[ebp]
	mov	BYTE PTR [edx+ecx+32], al
	jmp	$LN18@create_pla
$LN46@create_pla:

; 852  : 				}
; 853  : 
; 854  : 				else if (stricmp (str, "w3") == 0)

	push	OFFSET ??_C@_02KFGLDNAI@w3?$AA@
	mov	ecx, DWORD PTR _str$[ebp]
	push	ecx
	call	_stricmp
	add	esp, 8
	test	eax, eax
	jne	SHORT $LN44@create_pla

; 855  : 				{
; 856  : 					loadout->WeaponID[3] = (short) value;

	mov	edx, 2
	imul	edx, 3
	mov	eax, DWORD PTR _loadout$[ebp]
	mov	cx, WORD PTR _value$[ebp]
	mov	WORD PTR [eax+edx], cx
	jmp	$LN18@create_pla
$LN44@create_pla:

; 857  : 				}
; 858  : 				else if (stricmp (str, "c3") == 0)

	push	OFFSET ??_C@_02LOEEDGKE@c3?$AA@
	mov	edx, DWORD PTR _str$[ebp]
	push	edx
	call	_stricmp
	add	esp, 8
	test	eax, eax
	jne	SHORT $LN42@create_pla

; 859  : 				{
; 860  : 					loadout->WeaponCount[3] = (unsigned char) value;

	mov	eax, 1
	imul	eax, 3
	mov	ecx, DWORD PTR _loadout$[ebp]
	mov	dl, BYTE PTR _value$[ebp]
	mov	BYTE PTR [ecx+eax+32], dl
	jmp	$LN18@create_pla
$LN42@create_pla:

; 861  : 				}
; 862  : 
; 863  : 				else if (stricmp (str, "w4") == 0)

	push	OFFSET ??_C@_02OKCKKLMP@w4?$AA@
	mov	eax, DWORD PTR _str$[ebp]
	push	eax
	call	_stricmp
	add	esp, 8
	test	eax, eax
	jne	SHORT $LN40@create_pla

; 864  : 				{
; 865  : 					loadout->WeaponID[4] = (short) value;

	mov	ecx, 2
	shl	ecx, 2
	mov	edx, DWORD PTR _loadout$[ebp]
	mov	ax, WORD PTR _value$[ebp]
	mov	WORD PTR [edx+ecx], ax
	jmp	$LN18@create_pla
$LN40@create_pla:

; 866  : 				}
; 867  : 				else if (stricmp (str, "c4") == 0)

	push	OFFSET ??_C@_02PBAFKAGD@c4?$AA@
	mov	ecx, DWORD PTR _str$[ebp]
	push	ecx
	call	_stricmp
	add	esp, 8
	test	eax, eax
	jne	SHORT $LN38@create_pla

; 868  : 				{
; 869  : 					loadout->WeaponCount[4] = (unsigned char) value;

	mov	edx, 1
	shl	edx, 2
	mov	eax, DWORD PTR _loadout$[ebp]
	mov	cl, BYTE PTR _value$[ebp]
	mov	BYTE PTR [eax+edx+32], cl
	jmp	$LN18@create_pla
$LN38@create_pla:

; 870  : 				}
; 871  : 
; 872  : 				else if (stricmp (str, "w5") == 0)

	push	OFFSET ??_C@_02PDDBJKIO@w5?$AA@
	mov	edx, DWORD PTR _str$[ebp]
	push	edx
	call	_stricmp
	add	esp, 8
	test	eax, eax
	jne	SHORT $LN36@create_pla

; 873  : 				{
; 874  : 					loadout->WeaponID[5] = (short) value;

	mov	eax, 2
	imul	eax, 5
	mov	ecx, DWORD PTR _loadout$[ebp]
	mov	dx, WORD PTR _value$[ebp]
	mov	WORD PTR [ecx+eax], dx
	jmp	$LN18@create_pla
$LN36@create_pla:

; 875  : 				}
; 876  : 				else if (stricmp (str, "c5") == 0)

	push	OFFSET ??_C@_02OIBOJBCC@c5?$AA@
	mov	eax, DWORD PTR _str$[ebp]
	push	eax
	call	_stricmp
	add	esp, 8
	test	eax, eax
	jne	SHORT $LN34@create_pla

; 877  : 				{
; 878  : 					loadout->WeaponCount[5] = (unsigned char) value;

	mov	ecx, 1
	imul	ecx, 5
	mov	edx, DWORD PTR _loadout$[ebp]
	mov	al, BYTE PTR _value$[ebp]
	mov	BYTE PTR [edx+ecx+32], al
	jmp	$LN18@create_pla
$LN34@create_pla:

; 879  : 				}
; 880  : 
; 881  : 				else if (stricmp (str, "w6") == 0)

	push	OFFSET ??_C@_02NIBMMJEN@w6?$AA@
	mov	ecx, DWORD PTR _str$[ebp]
	push	ecx
	call	_stricmp
	add	esp, 8
	test	eax, eax
	jne	SHORT $LN32@create_pla

; 882  : 				{
; 883  : 					loadout->WeaponID[6] = (short) value;

	mov	edx, 2
	imul	edx, 6
	mov	eax, DWORD PTR _loadout$[ebp]
	mov	cx, WORD PTR _value$[ebp]
	mov	WORD PTR [eax+edx], cx
	jmp	$LN18@create_pla
$LN32@create_pla:

; 884  : 				}
; 885  : 				else if (stricmp (str, "c6") == 0)

	push	OFFSET ??_C@_02MDDDMCOB@c6?$AA@
	mov	edx, DWORD PTR _str$[ebp]
	push	edx
	call	_stricmp
	add	esp, 8
	test	eax, eax
	jne	SHORT $LN30@create_pla

; 886  : 				{
; 887  : 					loadout->WeaponCount[6] = (unsigned char) value;

	mov	eax, 1
	imul	eax, 6
	mov	ecx, DWORD PTR _loadout$[ebp]
	mov	dl, BYTE PTR _value$[ebp]
	mov	BYTE PTR [ecx+eax+32], dl
	jmp	$LN18@create_pla
$LN30@create_pla:

; 888  : 				}
; 889  : 
; 890  : 				else if (stricmp (str, "w7") == 0)

	push	OFFSET ??_C@_02MBAHPIAM@w7?$AA@
	mov	eax, DWORD PTR _str$[ebp]
	push	eax
	call	_stricmp
	add	esp, 8
	test	eax, eax
	jne	SHORT $LN28@create_pla

; 891  : 				{
; 892  : 					loadout->WeaponID[7] = (short) value;

	mov	ecx, 2
	imul	ecx, 7
	mov	edx, DWORD PTR _loadout$[ebp]
	mov	ax, WORD PTR _value$[ebp]
	mov	WORD PTR [edx+ecx], ax
	jmp	$LN18@create_pla
$LN28@create_pla:

; 893  : 				}
; 894  : 				else if (stricmp (str, "c7") == 0)

	push	OFFSET ??_C@_02NKCIPDKA@c7?$AA@
	mov	ecx, DWORD PTR _str$[ebp]
	push	ecx
	call	_stricmp
	add	esp, 8
	test	eax, eax
	jne	SHORT $LN26@create_pla

; 895  : 				{
; 896  : 					loadout->WeaponCount[7] = (unsigned char) value;

	mov	edx, 1
	imul	edx, 7
	mov	eax, DWORD PTR _loadout$[ebp]
	mov	cl, BYTE PTR _value$[ebp]
	mov	BYTE PTR [eax+edx+32], cl
	jmp	$LN18@create_pla
$LN26@create_pla:

; 897  : 				}
; 898  : 
; 899  : 				else if (stricmp (str, "w8") == 0)

	push	OFFSET ??_C@_02EGJPOEMD@w8?$AA@
	mov	edx, DWORD PTR _str$[ebp]
	push	edx
	call	_stricmp
	add	esp, 8
	test	eax, eax
	jne	SHORT $LN24@create_pla

; 900  : 				{
; 901  : 					loadout->WeaponID[8] = (short) value;

	mov	eax, 2
	shl	eax, 3
	mov	ecx, DWORD PTR _loadout$[ebp]
	mov	dx, WORD PTR _value$[ebp]
	mov	WORD PTR [ecx+eax], dx
	jmp	$LN18@create_pla
$LN24@create_pla:

; 902  : 				}
; 903  : 				else if (stricmp (str, "c8") == 0)

	push	OFFSET ??_C@_02FNLAOPGP@c8?$AA@
	mov	eax, DWORD PTR _str$[ebp]
	push	eax
	call	_stricmp
	add	esp, 8
	test	eax, eax
	jne	SHORT $LN22@create_pla

; 904  : 				{
; 905  : 					loadout->WeaponCount[8] = (unsigned char) value;

	mov	ecx, 1
	shl	ecx, 3
	mov	edx, DWORD PTR _loadout$[ebp]
	mov	al, BYTE PTR _value$[ebp]
	mov	BYTE PTR [edx+ecx+32], al
	jmp	SHORT $LN18@create_pla
$LN22@create_pla:

; 906  : 				}
; 907  : 
; 908  : 				else if (stricmp (str, "w9") == 0)

	push	OFFSET ??_C@_02FPIENFIC@w9?$AA@
	mov	ecx, DWORD PTR _str$[ebp]
	push	ecx
	call	_stricmp
	add	esp, 8
	test	eax, eax
	jne	SHORT $LN20@create_pla

; 909  : 				{
; 910  : 					loadout->WeaponID[9] = (short) value;

	mov	edx, 2
	imul	edx, 9
	mov	eax, DWORD PTR _loadout$[ebp]
	mov	cx, WORD PTR _value$[ebp]
	mov	WORD PTR [eax+edx], cx
	jmp	SHORT $LN18@create_pla
$LN20@create_pla:

; 911  : 				}
; 912  : 				else if (stricmp (str, "c9") == 0)

	push	OFFSET ??_C@_02EEKLNOCO@c9?$AA@
	mov	edx, DWORD PTR _str$[ebp]
	push	edx
	call	_stricmp
	add	esp, 8
	test	eax, eax
	jne	SHORT $LN18@create_pla

; 913  : 				{
; 914  : 					loadout->WeaponCount[9] = (unsigned char) value;

	mov	eax, 1
	imul	eax, 9
	mov	ecx, DWORD PTR _loadout$[ebp]
	mov	dl, BYTE PTR _value$[ebp]
	mov	BYTE PTR [ecx+eax+32], dl
$LN18@create_pla:

; 915  : 				}
; 916  : 			}
; 917  : 		}

	jmp	$LN75@create_pla
$LN74@create_pla:

; 918  : 		fclose (fp);

	mov	eax, DWORD PTR _fp$[ebp]
	push	eax
	call	_fclose
	add	esp, 4

; 919  : 		tid = GetClassID
; 920  : 		(
; 921  : 			DOMAIN_AIR,
; 922  : 			CLASS_UNIT,
; 923  : 			type,
; 924  : 			subtype,
; 925  : 			specific,
; 926  : 			0,
; 927  : 			0,
; 928  : 			0
; 929  : 		);

	push	0
	push	0
	push	0
	movzx	ecx, BYTE PTR _specific$[ebp]
	push	ecx
	movzx	edx, BYTE PTR _subtype$[ebp]
	push	edx
	movzx	eax, BYTE PTR _type$[ebp]
	push	eax
	push	6
	push	2
	call	?GetClassID@@YAHEEEEEEEE@Z		; GetClassID
	add	esp, 32					; 00000020H
	mov	DWORD PTR _tid$[ebp], eax

; 930  : 
; 931  : 	}
; 932  : 	else

	jmp	$LN15@create_pla
$LN76@create_pla:

; 933  : 	{
; 934  : 		// MonoPrint ("Cannot open %s for Instant Action player plane File", buffer);
; 935  : 		//We don't have the file - use default plane and loadout
; 936  : 
; 937  : 		tid = GetClassID
; 938  : 		(
; 939  : 			DOMAIN_AIR,
; 940  : 			CLASS_UNIT,
; 941  : 			TYPE_FLIGHT,
; 942  : 			STYPE_UNIT_FIGHTER_BOMBER,
; 943  : 			SPTYPE_F16C,
; 944  : 			0,
; 945  : 			0,
; 946  : 			0
; 947  : 		);

	push	0
	push	0
	push	0
	push	3
	push	9
	push	1
	push	6
	push	2
	call	?GetClassID@@YAHEEEEEEEE@Z		; GetClassID
	add	esp, 32					; 00000020H
	mov	DWORD PTR _tid$[ebp], eax

; 948  : 
; 949  : 
; 950  : 		if (current_mode == 'm')

	movsx	ecx, BYTE PTR ?current_mode@instant_action@@1DA ; instant_action::current_mode
	cmp	ecx, 109				; 0000006dH
	jne	$LN16@create_pla

; 951  : 		{
; 952  : 			// Moving Mud Loadout
; 953  : 
; 954  : 			loadout->WeaponID[0] = 60;	// Guns

	mov	edx, 2
	imul	edx, 0
	mov	eax, 60					; 0000003cH
	mov	ecx, DWORD PTR _loadout$[ebp]
	mov	WORD PTR [ecx+edx], ax

; 955  : 			loadout->WeaponCount[0] = 51;

	mov	edx, 1
	imul	edx, 0
	mov	eax, DWORD PTR _loadout$[ebp]
	mov	BYTE PTR [eax+edx+32], 51		; 00000033H

; 956  : 
; 957  : 			loadout->WeaponID[1] = 12; // AIM-9M

	mov	ecx, 2
	shl	ecx, 0
	mov	edx, 12					; 0000000cH
	mov	eax, DWORD PTR _loadout$[ebp]
	mov	WORD PTR [eax+ecx], dx

; 958  : 			loadout->WeaponCount[1] = 1;

	mov	ecx, 1
	shl	ecx, 0
	mov	edx, DWORD PTR _loadout$[ebp]
	mov	BYTE PTR [edx+ecx+32], 1

; 959  : 
; 960  : 			loadout->WeaponID[2] = 71; // LAU-3/A /HE

	mov	eax, 2
	shl	eax, 1
	mov	ecx, 71					; 00000047H
	mov	edx, DWORD PTR _loadout$[ebp]
	mov	WORD PTR [edx+eax], cx

; 961  : 			loadout->WeaponCount[2] = 19;

	mov	eax, 1
	shl	eax, 1
	mov	ecx, DWORD PTR _loadout$[ebp]
	mov	BYTE PTR [ecx+eax+32], 19		; 00000013H

; 962  : 
; 963  : 			loadout->WeaponID[3] = 20; // AGM-65G

	mov	edx, 2
	imul	edx, 3
	mov	eax, 20					; 00000014H
	mov	ecx, DWORD PTR _loadout$[ebp]
	mov	WORD PTR [ecx+edx], ax

; 964  : 			loadout->WeaponCount[3] = 3;

	mov	edx, 1
	imul	edx, 3
	mov	eax, DWORD PTR _loadout$[ebp]
	mov	BYTE PTR [eax+edx+32], 3

; 965  : 
; 966  : 			loadout->WeaponID[4] = 81; // CBU-52B/B

	mov	ecx, 2
	shl	ecx, 2
	mov	edx, 81					; 00000051H
	mov	eax, DWORD PTR _loadout$[ebp]
	mov	WORD PTR [eax+ecx], dx

; 967  : 			loadout->WeaponCount[4] = 3;

	mov	ecx, 1
	shl	ecx, 2
	mov	edx, DWORD PTR _loadout$[ebp]
	mov	BYTE PTR [edx+ecx+32], 3

; 968  : 
; 969  : 			loadout->WeaponID[5] = 70; // ALQ-131

	mov	eax, 2
	imul	eax, 5
	mov	ecx, 70					; 00000046H
	mov	edx, DWORD PTR _loadout$[ebp]
	mov	WORD PTR [edx+eax], cx

; 970  : 			loadout->WeaponCount[5] = 1;

	mov	eax, 1
	imul	eax, 5
	mov	ecx, DWORD PTR _loadout$[ebp]
	mov	BYTE PTR [ecx+eax+32], 1

; 971  : 
; 972  : 			loadout->WeaponID[6] = 64; // GBU-10C/B

	mov	edx, 2
	imul	edx, 6
	mov	eax, 64					; 00000040H
	mov	ecx, DWORD PTR _loadout$[ebp]
	mov	WORD PTR [ecx+edx], ax

; 973  : 			loadout->WeaponCount[6] = 1;

	mov	edx, 1
	imul	edx, 6
	mov	eax, DWORD PTR _loadout$[ebp]
	mov	BYTE PTR [eax+edx+32], 1

; 974  : 
; 975  : 			loadout->WeaponID[7] = 65; // BLU-107/B

	mov	ecx, 2
	imul	ecx, 7
	mov	edx, 65					; 00000041H
	mov	eax, DWORD PTR _loadout$[ebp]
	mov	WORD PTR [eax+ecx], dx

; 976  : 			loadout->WeaponCount[7] = 1;

	mov	ecx, 1
	imul	ecx, 7
	mov	edx, DWORD PTR _loadout$[ebp]
	mov	BYTE PTR [edx+ecx+32], 1

; 977  : 
; 978  : 			loadout->WeaponID[8] = 5; // Mk-82

	mov	eax, 2
	shl	eax, 3
	mov	ecx, 5
	mov	edx, DWORD PTR _loadout$[ebp]
	mov	WORD PTR [edx+eax], cx

; 979  : 			loadout->WeaponCount[8] = 3;

	mov	eax, 1
	shl	eax, 3
	mov	ecx, DWORD PTR _loadout$[ebp]
	mov	BYTE PTR [ecx+eax+32], 3

; 980  : 
; 981  : 			loadout->WeaponID[9] = 23; // AGM-88

	mov	edx, 2
	imul	edx, 9
	mov	eax, 23					; 00000017H
	mov	ecx, DWORD PTR _loadout$[ebp]
	mov	WORD PTR [ecx+edx], ax

; 982  : 			loadout->WeaponCount[9] = 1;

	mov	edx, 1
	imul	edx, 9
	mov	eax, DWORD PTR _loadout$[ebp]
	mov	BYTE PTR [eax+edx+32], 1

; 983  : 		}
; 984  : 		else

	jmp	$LN15@create_pla
$LN16@create_pla:

; 985  : 		{
; 986  : 			// Fighter Sweep Loadout
; 987  : 
; 988  : 			loadout->WeaponID[0] = 60;	// Guns

	mov	ecx, 2
	imul	ecx, 0
	mov	edx, 60					; 0000003cH
	mov	eax, DWORD PTR _loadout$[ebp]
	mov	WORD PTR [eax+ecx], dx

; 989  : 			loadout->WeaponCount[0] = 51;

	mov	ecx, 1
	imul	ecx, 0
	mov	edx, DWORD PTR _loadout$[ebp]
	mov	BYTE PTR [edx+ecx+32], 51		; 00000033H

; 990  : 
; 991  : 			loadout->WeaponID[1] = 56;	//AIM120

	mov	eax, 2
	shl	eax, 0
	mov	ecx, 56					; 00000038H
	mov	edx, DWORD PTR _loadout$[ebp]
	mov	WORD PTR [edx+eax], cx

; 992  : 			loadout->WeaponID[9] = 56;

	mov	eax, 2
	imul	eax, 9
	mov	ecx, 56					; 00000038H
	mov	edx, DWORD PTR _loadout$[ebp]
	mov	WORD PTR [edx+eax], cx

; 993  : 			loadout->WeaponCount[1] = 1;

	mov	eax, 1
	shl	eax, 0
	mov	ecx, DWORD PTR _loadout$[ebp]
	mov	BYTE PTR [ecx+eax+32], 1

; 994  : 			loadout->WeaponCount[9] = 1;

	mov	edx, 1
	imul	edx, 9
	mov	eax, DWORD PTR _loadout$[ebp]
	mov	BYTE PTR [eax+edx+32], 1

; 995  : 
; 996  : 			loadout->WeaponID[2] = 12;	//AIM9-M

	mov	ecx, 2
	shl	ecx, 1
	mov	edx, 12					; 0000000cH
	mov	eax, DWORD PTR _loadout$[ebp]
	mov	WORD PTR [eax+ecx], dx

; 997  : 			loadout->WeaponID[8] = 12;

	mov	ecx, 2
	shl	ecx, 3
	mov	edx, 12					; 0000000cH
	mov	eax, DWORD PTR _loadout$[ebp]
	mov	WORD PTR [eax+ecx], dx

; 998  : 			loadout->WeaponCount[2] = 1;

	mov	ecx, 1
	shl	ecx, 1
	mov	edx, DWORD PTR _loadout$[ebp]
	mov	BYTE PTR [edx+ecx+32], 1

; 999  : 			loadout->WeaponCount[8] = 1;

	mov	eax, 1
	shl	eax, 3
	mov	ecx, DWORD PTR _loadout$[ebp]
	mov	BYTE PTR [ecx+eax+32], 1

; 1000 : 
; 1001 : 			loadout->WeaponID[3] = 150;	//TW: AIM-9X

	mov	edx, 2
	imul	edx, 3
	mov	eax, 150				; 00000096H
	mov	ecx, DWORD PTR _loadout$[ebp]
	mov	WORD PTR [ecx+edx], ax

; 1002 : 			loadout->WeaponCount[3] = 1;

	mov	edx, 1
	imul	edx, 3
	mov	eax, DWORD PTR _loadout$[ebp]
	mov	BYTE PTR [eax+edx+32], 1

; 1003 : 			loadout->WeaponID[7] = 150;

	mov	ecx, 2
	imul	ecx, 7
	mov	edx, 150				; 00000096H
	mov	eax, DWORD PTR _loadout$[ebp]
	mov	WORD PTR [eax+ecx], dx

; 1004 : 			loadout->WeaponCount[7] = 1;

	mov	ecx, 1
	imul	ecx, 7
	mov	edx, DWORD PTR _loadout$[ebp]
	mov	BYTE PTR [edx+ecx+32], 1

; 1005 : 
; 1006 : 			loadout->WeaponID[5] = 70;	//Jammer Pod

	mov	eax, 2
	imul	eax, 5
	mov	ecx, 70					; 00000046H
	mov	edx, DWORD PTR _loadout$[ebp]
	mov	WORD PTR [edx+eax], cx

; 1007 : 			loadout->WeaponCount[5] = 1;

	mov	eax, 1
	imul	eax, 5
	mov	ecx, DWORD PTR _loadout$[ebp]
	mov	BYTE PTR [ecx+eax+32], 1
$LN15@create_pla:

; 1008 : 
; 1009 : 		}
; 1010 : 
; 1011 : 	}
; 1012 : 
; 1013 : 	if (!tid){

	cmp	DWORD PTR _tid$[ebp], 0
	jne	SHORT $LN14@create_pla

; 1014 : 		MonoPrint ("Cannot create F16C Flight\n");

	push	OFFSET ??_C@_0BL@GGMJKOGP@Cannot?5create?5F16C?5Flight?6?$AA@
	call	_MonoPrint
	add	esp, 4

; 1015 : 		return;

	jmp	$LN77@create_pla
$LN14@create_pla:

; 1016 : 	}
; 1017 : 	tid += VU_LAST_ENTITY_TYPE;

	mov	edx, DWORD PTR _tid$[ebp]
	add	edx, 100				; 00000064H
	mov	DWORD PTR _tid$[ebp], edx

; 1018 : 
; 1019 : 	player_flight = NewFlight(tid, 0, 0);

	push	0
	push	0
	mov	eax, DWORD PTR _tid$[ebp]
	push	eax
	call	?NewFlight@@YAPAVFlightClass@@HPAVUnitClass@@0@Z ; NewFlight
	add	esp, 12					; 0000000cH
	mov	DWORD PTR ?player_flight@instant_action@@1PAVFlightClass@@A, eax ; instant_action::player_flight

; 1020 : 	if (!player_flight){

	cmp	DWORD PTR ?player_flight@instant_action@@1PAVFlightClass@@A, 0 ; instant_action::player_flight
	jne	SHORT $LN13@create_pla

; 1021 : 		MonoPrint ("Cannot create FlightClass object\n");

	push	OFFSET ??_C@_0CC@LHJKAMAN@Cannot?5create?5FlightClass?5object@
	call	_MonoPrint
	add	esp, 4

; 1022 : 		return;

	jmp	$LN77@create_pla
$LN13@create_pla:

; 1023 : 	}
; 1024 : 
; 1025 : 	num_vehicles = 1;

	mov	DWORD PTR _num_vehicles$[ebp], 1

; 1026 : 
; 1027 : 	// sfr: xy order
; 1028 : 	::vector pos = { start_x, start_y };

	movss	xmm0, DWORD PTR ?start_x@instant_action@@1MA
	movss	DWORD PTR _pos$[ebp], xmm0
	movss	xmm0, DWORD PTR ?start_y@instant_action@@1MA
	movss	DWORD PTR _pos$[ebp+4], xmm0
	xor	ecx, ecx
	mov	DWORD PTR _pos$[ebp+8], ecx

; 1029 : 	ConvertSimToGrid(&pos, &x, &y);

	lea	edx, DWORD PTR _y$[ebp]
	push	edx
	lea	eax, DWORD PTR _x$[ebp]
	push	eax
	lea	ecx, DWORD PTR _pos$[ebp]
	push	ecx
	call	?ConvertSimToGrid@@YAXPAUvector@@PAF1@Z	; ConvertSimToGrid
	add	esp, 12					; 0000000cH

; 1030 : 	//x = SimToGrid (start_y);
; 1031 : 	//y = SimToGrid (start_x);
; 1032 : 
; 1033 : 	player_flight->SetOwner (1);

	push	1
	mov	edx, DWORD PTR ?player_flight@instant_action@@1PAVFlightClass@@A ; instant_action::player_flight
	mov	eax, DWORD PTR [edx]
	mov	ecx, DWORD PTR ?player_flight@instant_action@@1PAVFlightClass@@A ; instant_action::player_flight
	mov	edx, DWORD PTR [eax+320]
	call	edx

; 1034 : 	player_flight->SetLocation (x, y);

	movzx	eax, WORD PTR _y$[ebp]
	push	eax
	movzx	ecx, WORD PTR _x$[ebp]
	push	ecx
	mov	ecx, DWORD PTR ?player_flight@instant_action@@1PAVFlightClass@@A ; instant_action::player_flight
	call	?SetLocation@CampBaseClass@@QAEXFF@Z	; CampBaseClass::SetLocation

; 1035 : 	player_flight->SetAltitude (10000);

	push	10000					; 00002710H
	mov	ecx, DWORD PTR ?player_flight@instant_action@@1PAVFlightClass@@A ; instant_action::player_flight
	call	?SetAltitude@CampBaseClass@@QAEXH@Z	; CampBaseClass::SetAltitude

; 1036 : 	player_flight->SetUnitMission (AMIS_SWEEP);

	push	7
	mov	edx, DWORD PTR ?player_flight@instant_action@@1PAVFlightClass@@A ; instant_action::player_flight
	mov	eax, DWORD PTR [edx]
	mov	ecx, DWORD PTR ?player_flight@instant_action@@1PAVFlightClass@@A ; instant_action::player_flight
	mov	edx, DWORD PTR [eax+604]
	call	edx

; 1037 : 
; 1038 : 	switch (num_vehicles){

	mov	eax, DWORD PTR _num_vehicles$[ebp]
	mov	DWORD PTR tv478[ebp], eax
	mov	ecx, DWORD PTR tv478[ebp]
	sub	ecx, 1
	mov	DWORD PTR tv478[ebp], ecx
	cmp	DWORD PTR tv478[ebp], 3
	ja	SHORT $LN11@create_pla
	mov	edx, DWORD PTR tv478[ebp]
	jmp	DWORD PTR $LN83@create_pla[edx*4]
$LN10@create_pla:

; 1039 : 		case 1:
; 1040 : 		{
; 1041 : 			player_flight->SetNumVehicles (0, 1);

	push	1
	push	0
	mov	ecx, DWORD PTR ?player_flight@instant_action@@1PAVFlightClass@@A ; instant_action::player_flight
	call	?SetNumVehicles@UnitClass@@QAEXHH@Z	; UnitClass::SetNumVehicles

; 1042 : 			break;

	jmp	SHORT $LN11@create_pla
$LN9@create_pla:

; 1043 : 		}
; 1044 : 
; 1045 : 		case 2:
; 1046 : 		{
; 1047 : 			player_flight->SetNumVehicles (0, 2);

	push	2
	push	0
	mov	ecx, DWORD PTR ?player_flight@instant_action@@1PAVFlightClass@@A ; instant_action::player_flight
	call	?SetNumVehicles@UnitClass@@QAEXHH@Z	; UnitClass::SetNumVehicles

; 1048 : 			break;

	jmp	SHORT $LN11@create_pla
$LN8@create_pla:

; 1049 : 		}
; 1050 : 
; 1051 : 		case 3:
; 1052 : 		{
; 1053 : 			player_flight->SetNumVehicles (0, 2);

	push	2
	push	0
	mov	ecx, DWORD PTR ?player_flight@instant_action@@1PAVFlightClass@@A ; instant_action::player_flight
	call	?SetNumVehicles@UnitClass@@QAEXHH@Z	; UnitClass::SetNumVehicles

; 1054 : 			player_flight->SetNumVehicles (1, 1);

	push	1
	push	1
	mov	ecx, DWORD PTR ?player_flight@instant_action@@1PAVFlightClass@@A ; instant_action::player_flight
	call	?SetNumVehicles@UnitClass@@QAEXHH@Z	; UnitClass::SetNumVehicles

; 1055 : 			break;

	jmp	SHORT $LN11@create_pla
$LN7@create_pla:

; 1056 : 		}
; 1057 : 
; 1058 : 		case 4:
; 1059 : 		{
; 1060 : 			player_flight->SetNumVehicles (0, 2);

	push	2
	push	0
	mov	ecx, DWORD PTR ?player_flight@instant_action@@1PAVFlightClass@@A ; instant_action::player_flight
	call	?SetNumVehicles@UnitClass@@QAEXHH@Z	; UnitClass::SetNumVehicles

; 1061 : 			player_flight->SetNumVehicles (1, 2);

	push	2
	push	1
	mov	ecx, DWORD PTR ?player_flight@instant_action@@1PAVFlightClass@@A ; instant_action::player_flight
	call	?SetNumVehicles@UnitClass@@QAEXHH@Z	; UnitClass::SetNumVehicles
$LN11@create_pla:

; 1062 : 			break;
; 1063 : 		}
; 1064 : 	}
; 1065 : 
; 1066 : 	for (i = 0; i < PILOTS_PER_FLIGHT; i ++)

	mov	DWORD PTR _i$[ebp], 0
	jmp	SHORT $LN6@create_pla
$LN5@create_pla:
	mov	eax, DWORD PTR _i$[ebp]
	add	eax, 1
	mov	DWORD PTR _i$[ebp], eax
$LN6@create_pla:
	cmp	DWORD PTR _i$[ebp], 4
	jge	$LN4@create_pla

; 1067 : 	{
; 1068 : 		if (i < num_vehicles)

	mov	ecx, DWORD PTR _i$[ebp]
	cmp	ecx, DWORD PTR _num_vehicles$[ebp]
	jge	SHORT $LN3@create_pla

; 1069 : 		{
; 1070 : 			player_flight->plane_stats[i] = AIRCRAFT_AVAILABLE;

	mov	edx, DWORD PTR ?player_flight@instant_action@@1PAVFlightClass@@A ; instant_action::player_flight
	add	edx, DWORD PTR _i$[ebp]
	mov	BYTE PTR [edx+416], 4

; 1071 : 			player_flight->pilots[i] = 0;

	mov	eax, DWORD PTR ?player_flight@instant_action@@1PAVFlightClass@@A ; instant_action::player_flight
	add	eax, DWORD PTR _i$[ebp]
