; Listing generated by Microsoft (R) Optimizing Compiler Version 17.00.51106.1 

	TITLE	C:\Users\Zhitao Li\Documents\Visual Studio 2012\Projects\Freefalcon\SIM\eject\simeject.cpp
	.686P
	.XMM
	include listing.inc
	.model	flat

INCLUDELIB LIBCMT
INCLUDELIB OLDNAMES

PUBLIC	?is_signed@?$numeric_limits@C@std@@2_NB		; std::numeric_limits<signed char>::is_signed
PUBLIC	?digits@?$numeric_limits@C@std@@2HB		; std::numeric_limits<signed char>::digits
PUBLIC	?digits10@?$numeric_limits@C@std@@2HB		; std::numeric_limits<signed char>::digits10
PUBLIC	?is_signed@?$numeric_limits@E@std@@2_NB		; std::numeric_limits<unsigned char>::is_signed
PUBLIC	?digits@?$numeric_limits@E@std@@2HB		; std::numeric_limits<unsigned char>::digits
PUBLIC	?digits10@?$numeric_limits@E@std@@2HB		; std::numeric_limits<unsigned char>::digits10
PUBLIC	?collate@?$_Locbase@H@std@@2HB			; std::_Locbase<int>::collate
PUBLIC	?ctype@?$_Locbase@H@std@@2HB			; std::_Locbase<int>::ctype
PUBLIC	?monetary@?$_Locbase@H@std@@2HB			; std::_Locbase<int>::monetary
PUBLIC	?numeric@?$_Locbase@H@std@@2HB			; std::_Locbase<int>::numeric
PUBLIC	?time@?$_Locbase@H@std@@2HB			; std::_Locbase<int>::time
PUBLIC	?messages@?$_Locbase@H@std@@2HB			; std::_Locbase<int>::messages
PUBLIC	?all@?$_Locbase@H@std@@2HB			; std::_Locbase<int>::all
PUBLIC	?is_signed@?$numeric_limits@F@std@@2_NB		; std::numeric_limits<short>::is_signed
PUBLIC	?none@?$_Locbase@H@std@@2HB			; std::_Locbase<int>::none
PUBLIC	?digits@?$numeric_limits@F@std@@2HB		; std::numeric_limits<short>::digits
PUBLIC	?digits10@?$numeric_limits@F@std@@2HB		; std::numeric_limits<short>::digits10
PUBLIC	?is_signed@?$numeric_limits@G@std@@2_NB		; std::numeric_limits<unsigned short>::is_signed
PUBLIC	?digits@?$numeric_limits@G@std@@2HB		; std::numeric_limits<unsigned short>::digits
PUBLIC	?digits10@?$numeric_limits@G@std@@2HB		; std::numeric_limits<unsigned short>::digits10
PUBLIC	?is_signed@?$numeric_limits@H@std@@2_NB		; std::numeric_limits<int>::is_signed
PUBLIC	?value@?$_Sizeof@HU_Nil@std@@U12@U12@U12@U12@U12@U12@@std@@2IB ; std::_Sizeof<int,std::_Nil,std::_Nil,std::_Nil,std::_Nil,std::_Nil,std::_Nil,std::_Nil>::value
PUBLIC	?digits@?$numeric_limits@H@std@@2HB		; std::numeric_limits<int>::digits
PUBLIC	?digits10@?$numeric_limits@H@std@@2HB		; std::numeric_limits<int>::digits10
PUBLIC	?table_size@?$ctype@D@std@@2IB			; std::ctype<char>::table_size
PUBLIC	?is_signed@?$numeric_limits@I@std@@2_NB		; std::numeric_limits<unsigned int>::is_signed
PUBLIC	?digits@?$numeric_limits@I@std@@2HB		; std::numeric_limits<unsigned int>::digits
PUBLIC	?digits10@?$numeric_limits@I@std@@2HB		; std::numeric_limits<unsigned int>::digits10
PUBLIC	?is_signed@?$numeric_limits@J@std@@2_NB		; std::numeric_limits<long>::is_signed
PUBLIC	?F16Mode1PhysicalData@@3UEP_PHYS_DATA@@A	; F16Mode1PhysicalData
PUBLIC	?digits@?$numeric_limits@J@std@@2HB		; std::numeric_limits<long>::digits
PUBLIC	?digits10@?$numeric_limits@J@std@@2HB		; std::numeric_limits<long>::digits10
PUBLIC	?is_signed@?$numeric_limits@K@std@@2_NB		; std::numeric_limits<unsigned long>::is_signed
PUBLIC	?digits@?$numeric_limits@K@std@@2HB		; std::numeric_limits<unsigned long>::digits
PUBLIC	?digits10@?$numeric_limits@K@std@@2HB		; std::numeric_limits<unsigned long>::digits10
PUBLIC	?is_signed@?$numeric_limits@_J@std@@2_NB	; std::numeric_limits<__int64>::is_signed
PUBLIC	?digits@?$numeric_limits@_J@std@@2HB		; std::numeric_limits<__int64>::digits
PUBLIC	?digits10@?$numeric_limits@_J@std@@2HB		; std::numeric_limits<__int64>::digits10
PUBLIC	?is_signed@?$numeric_limits@_K@std@@2_NB	; std::numeric_limits<unsigned __int64>::is_signed
PUBLIC	?digits@?$numeric_limits@_K@std@@2HB		; std::numeric_limits<unsigned __int64>::digits
PUBLIC	?digits10@?$numeric_limits@_K@std@@2HB		; std::numeric_limits<unsigned __int64>::digits10
PUBLIC	?digits@?$numeric_limits@M@std@@2HB		; std::numeric_limits<float>::digits
PUBLIC	?digits10@?$numeric_limits@M@std@@2HB		; std::numeric_limits<float>::digits10
PUBLIC	?max_digits10@?$numeric_limits@M@std@@2HB	; std::numeric_limits<float>::max_digits10
PUBLIC	?max_exponent@?$numeric_limits@M@std@@2HB	; std::numeric_limits<float>::max_exponent
PUBLIC	?max_exponent10@?$numeric_limits@M@std@@2HB	; std::numeric_limits<float>::max_exponent10
PUBLIC	?min_exponent@?$numeric_limits@M@std@@2HB	; std::numeric_limits<float>::min_exponent
PUBLIC	?min_exponent10@?$numeric_limits@M@std@@2HB	; std::numeric_limits<float>::min_exponent10
PUBLIC	?value@?$integral_constant@I$0A@@std@@2IB	; std::integral_constant<unsigned int,0>::value
PUBLIC	?digits@?$numeric_limits@N@std@@2HB		; std::numeric_limits<double>::digits
PUBLIC	?digits10@?$numeric_limits@N@std@@2HB		; std::numeric_limits<double>::digits10
PUBLIC	?max_digits10@?$numeric_limits@N@std@@2HB	; std::numeric_limits<double>::max_digits10
PUBLIC	?max_exponent@?$numeric_limits@N@std@@2HB	; std::numeric_limits<double>::max_exponent
PUBLIC	?max_exponent10@?$numeric_limits@N@std@@2HB	; std::numeric_limits<double>::max_exponent10
PUBLIC	?min_exponent@?$numeric_limits@N@std@@2HB	; std::numeric_limits<double>::min_exponent
PUBLIC	?min_exponent10@?$numeric_limits@N@std@@2HB	; std::numeric_limits<double>::min_exponent10
PUBLIC	?digits@?$numeric_limits@O@std@@2HB		; std::numeric_limits<long double>::digits
PUBLIC	?digits10@?$numeric_limits@O@std@@2HB		; std::numeric_limits<long double>::digits10
PUBLIC	?max_digits10@?$numeric_limits@O@std@@2HB	; std::numeric_limits<long double>::max_digits10
PUBLIC	?max_exponent@?$numeric_limits@O@std@@2HB	; std::numeric_limits<long double>::max_exponent
PUBLIC	?max_exponent10@?$numeric_limits@O@std@@2HB	; std::numeric_limits<long double>::max_exponent10
PUBLIC	?min_exponent@?$numeric_limits@O@std@@2HB	; std::numeric_limits<long double>::min_exponent
PUBLIC	?min_exponent10@?$numeric_limits@O@std@@2HB	; std::numeric_limits<long double>::min_exponent10
PUBLIC	?SIMDIRTYDATA_INTERVAL@FalconEntity@@2KB	; FalconEntity::SIMDIRTYDATA_INTERVAL
PUBLIC	?CMPDIRTYDATA_INTERVAL@FalconEntity@@2KB	; FalconEntity::CMPDIRTYDATA_INTERVAL
PUBLIC	?value@?$_Sizeof@U_Nil@std@@U12@U12@U12@U12@U12@U12@U12@@std@@2IB ; std::_Sizeof<std::_Nil,std::_Nil,std::_Nil,std::_Nil,std::_Nil,std::_Nil,std::_Nil,std::_Nil>::value
PUBLIC	?skipws@?$_Iosb@H@std@@2W4_Fmtflags@12@B	; std::_Iosb<int>::skipws
PUBLIC	?unitbuf@?$_Iosb@H@std@@2W4_Fmtflags@12@B	; std::_Iosb<int>::unitbuf
PUBLIC	?uppercase@?$_Iosb@H@std@@2W4_Fmtflags@12@B	; std::_Iosb<int>::uppercase
PUBLIC	?showbase@?$_Iosb@H@std@@2W4_Fmtflags@12@B	; std::_Iosb<int>::showbase
PUBLIC	?showpoint@?$_Iosb@H@std@@2W4_Fmtflags@12@B	; std::_Iosb<int>::showpoint
PUBLIC	?showpos@?$_Iosb@H@std@@2W4_Fmtflags@12@B	; std::_Iosb<int>::showpos
PUBLIC	?left@?$_Iosb@H@std@@2W4_Fmtflags@12@B		; std::_Iosb<int>::left
PUBLIC	?right@?$_Iosb@H@std@@2W4_Fmtflags@12@B		; std::_Iosb<int>::right
PUBLIC	?internal@?$_Iosb@H@std@@2W4_Fmtflags@12@B	; std::_Iosb<int>::internal
PUBLIC	?dec@?$_Iosb@H@std@@2W4_Fmtflags@12@B		; std::_Iosb<int>::dec
PUBLIC	?oct@?$_Iosb@H@std@@2W4_Fmtflags@12@B		; std::_Iosb<int>::oct
PUBLIC	?hex@?$_Iosb@H@std@@2W4_Fmtflags@12@B		; std::_Iosb<int>::hex
PUBLIC	?scientific@?$_Iosb@H@std@@2W4_Fmtflags@12@B	; std::_Iosb<int>::scientific
PUBLIC	?fixed@?$_Iosb@H@std@@2W4_Fmtflags@12@B		; std::_Iosb<int>::fixed
PUBLIC	?hexfloat@?$_Iosb@H@std@@2W4_Fmtflags@12@B	; std::_Iosb<int>::hexfloat
PUBLIC	?boolalpha@?$_Iosb@H@std@@2W4_Fmtflags@12@B	; std::_Iosb<int>::boolalpha
PUBLIC	?_Stdio@?$_Iosb@H@std@@2W4_Fmtflags@12@B	; std::_Iosb<int>::_Stdio
PUBLIC	?adjustfield@?$_Iosb@H@std@@2W4_Fmtflags@12@B	; std::_Iosb<int>::adjustfield
PUBLIC	?basefield@?$_Iosb@H@std@@2W4_Fmtflags@12@B	; std::_Iosb<int>::basefield
PUBLIC	?floatfield@?$_Iosb@H@std@@2W4_Fmtflags@12@B	; std::_Iosb<int>::floatfield
PUBLIC	?goodbit@?$_Iosb@H@std@@2W4_Iostate@12@B	; std::_Iosb<int>::goodbit
PUBLIC	?eofbit@?$_Iosb@H@std@@2W4_Iostate@12@B		; std::_Iosb<int>::eofbit
PUBLIC	?failbit@?$_Iosb@H@std@@2W4_Iostate@12@B	; std::_Iosb<int>::failbit
PUBLIC	?has_denorm@_Num_base@std@@2W4float_denorm_style@2@B ; std::_Num_base::has_denorm
PUBLIC	?badbit@?$_Iosb@H@std@@2W4_Iostate@12@B		; std::_Iosb<int>::badbit
PUBLIC	?has_denorm_loss@_Num_base@std@@2_NB		; std::_Num_base::has_denorm_loss
PUBLIC	?_Hardfail@?$_Iosb@H@std@@2W4_Iostate@12@B	; std::_Iosb<int>::_Hardfail
PUBLIC	?has_infinity@_Num_base@std@@2_NB		; std::_Num_base::has_infinity
PUBLIC	?has_quiet_NaN@_Num_base@std@@2_NB		; std::_Num_base::has_quiet_NaN
PUBLIC	?in@?$_Iosb@H@std@@2W4_Openmode@12@B		; std::_Iosb<int>::in
PUBLIC	?out@?$_Iosb@H@std@@2W4_Openmode@12@B		; std::_Iosb<int>::out
PUBLIC	?has_signaling_NaN@_Num_base@std@@2_NB		; std::_Num_base::has_signaling_NaN
PUBLIC	?ate@?$_Iosb@H@std@@2W4_Openmode@12@B		; std::_Iosb<int>::ate
PUBLIC	?is_bounded@_Num_base@std@@2_NB			; std::_Num_base::is_bounded
PUBLIC	?is_exact@_Num_base@std@@2_NB			; std::_Num_base::is_exact
PUBLIC	?app@?$_Iosb@H@std@@2W4_Openmode@12@B		; std::_Iosb<int>::app
PUBLIC	?is_iec559@_Num_base@std@@2_NB			; std::_Num_base::is_iec559
PUBLIC	?trunc@?$_Iosb@H@std@@2W4_Openmode@12@B		; std::_Iosb<int>::trunc
PUBLIC	?_Nocreate@?$_Iosb@H@std@@2W4_Openmode@12@B	; std::_Iosb<int>::_Nocreate
PUBLIC	?is_integer@_Num_base@std@@2_NB			; std::_Num_base::is_integer
PUBLIC	?_Noreplace@?$_Iosb@H@std@@2W4_Openmode@12@B	; std::_Iosb<int>::_Noreplace
PUBLIC	?is_modulo@_Num_base@std@@2_NB			; std::_Num_base::is_modulo
PUBLIC	?is_signed@_Num_base@std@@2_NB			; std::_Num_base::is_signed
PUBLIC	?binary@?$_Iosb@H@std@@2W4_Openmode@12@B	; std::_Iosb<int>::binary
PUBLIC	?is_specialized@_Num_base@std@@2_NB		; std::_Num_base::is_specialized
PUBLIC	?beg@?$_Iosb@H@std@@2W4_Seekdir@12@B		; std::_Iosb<int>::beg
PUBLIC	?tinyness_before@_Num_base@std@@2_NB		; std::_Num_base::tinyness_before
PUBLIC	?cur@?$_Iosb@H@std@@2W4_Seekdir@12@B		; std::_Iosb<int>::cur
PUBLIC	?traps@_Num_base@std@@2_NB			; std::_Num_base::traps
PUBLIC	?end@?$_Iosb@H@std@@2W4_Seekdir@12@B		; std::_Iosb<int>::end
PUBLIC	?round_style@_Num_base@std@@2W4float_round_style@2@B ; std::_Num_base::round_style
PUBLIC	?digits@_Num_base@std@@2HB			; std::_Num_base::digits
PUBLIC	?digits10@_Num_base@std@@2HB			; std::_Num_base::digits10
PUBLIC	?max_digits10@_Num_base@std@@2HB		; std::_Num_base::max_digits10
PUBLIC	?max_exponent@_Num_base@std@@2HB		; std::_Num_base::max_exponent
PUBLIC	?max_exponent10@_Num_base@std@@2HB		; std::_Num_base::max_exponent10
PUBLIC	?min_exponent@_Num_base@std@@2HB		; std::_Num_base::min_exponent
PUBLIC	?min_exponent10@_Num_base@std@@2HB		; std::_Num_base::min_exponent10
PUBLIC	?radix@_Num_base@std@@2HB			; std::_Num_base::radix
PUBLIC	?_Stream_err@failure@ios_base@std@@0W4io_errc@43@B ; std::ios_base::failure::_Stream_err
PUBLIC	?is_bounded@_Num_int_base@std@@2_NB		; std::_Num_int_base::is_bounded
PUBLIC	?is_exact@_Num_int_base@std@@2_NB		; std::_Num_int_base::is_exact
PUBLIC	?is_integer@_Num_int_base@std@@2_NB		; std::_Num_int_base::is_integer
PUBLIC	?is_modulo@_Num_int_base@std@@2_NB		; std::_Num_int_base::is_modulo
PUBLIC	?is_specialized@_Num_int_base@std@@2_NB		; std::_Num_int_base::is_specialized
PUBLIC	?radix@_Num_int_base@std@@2HB			; std::_Num_int_base::radix
PUBLIC	?has_denorm@_Num_float_base@std@@2W4float_denorm_style@2@B ; std::_Num_float_base::has_denorm
PUBLIC	?has_denorm_loss@_Num_float_base@std@@2_NB	; std::_Num_float_base::has_denorm_loss
PUBLIC	?has_infinity@_Num_float_base@std@@2_NB		; std::_Num_float_base::has_infinity
PUBLIC	?has_quiet_NaN@_Num_float_base@std@@2_NB	; std::_Num_float_base::has_quiet_NaN
PUBLIC	?has_signaling_NaN@_Num_float_base@std@@2_NB	; std::_Num_float_base::has_signaling_NaN
PUBLIC	?is_bounded@_Num_float_base@std@@2_NB		; std::_Num_float_base::is_bounded
PUBLIC	?is_exact@_Num_float_base@std@@2_NB		; std::_Num_float_base::is_exact
PUBLIC	?is_iec559@_Num_float_base@std@@2_NB		; std::_Num_float_base::is_iec559
PUBLIC	?is_integer@_Num_float_base@std@@2_NB		; std::_Num_float_base::is_integer
PUBLIC	?is_modulo@_Num_float_base@std@@2_NB		; std::_Num_float_base::is_modulo
PUBLIC	?is_signed@_Num_float_base@std@@2_NB		; std::_Num_float_base::is_signed
PUBLIC	?is_specialized@_Num_float_base@std@@2_NB	; std::_Num_float_base::is_specialized
PUBLIC	?tinyness_before@_Num_float_base@std@@2_NB	; std::_Num_float_base::tinyness_before
PUBLIC	?traps@_Num_float_base@std@@2_NB		; std::_Num_float_base::traps
PUBLIC	?round_style@_Num_float_base@std@@2W4float_round_style@2@B ; std::_Num_float_base::round_style
PUBLIC	?radix@_Num_float_base@std@@2HB			; std::_Num_float_base::radix
PUBLIC	?is_signed@?$numeric_limits@D@std@@2_NB		; std::numeric_limits<char>::is_signed
PUBLIC	?digits@?$numeric_limits@D@std@@2HB		; std::numeric_limits<char>::digits
PUBLIC	?digits10@?$numeric_limits@D@std@@2HB		; std::numeric_limits<char>::digits10
PUBLIC	?value@?$integral_constant@_N$0A@@std@@2_NB	; std::integral_constant<bool,0>::value
PUBLIC	?_classType@EjectedPilotClass@@0HA		; EjectedPilotClass::_classType
PUBLIC	?_classTypeFound@EjectedPilotClass@@0HA		; EjectedPilotClass::_classTypeFound
PUBLIC	?is_signed@?$numeric_limits@_W@std@@2_NB	; std::numeric_limits<wchar_t>::is_signed
PUBLIC	?digits@?$numeric_limits@_W@std@@2HB		; std::numeric_limits<wchar_t>::digits
PUBLIC	?digits10@?$numeric_limits@_W@std@@2HB		; std::numeric_limits<wchar_t>::digits10
PUBLIC	?value@?$integral_constant@_N$00@std@@2_NB	; std::integral_constant<bool,1>::value
PUBLIC	?is_modulo@?$numeric_limits@_N@std@@2_NB	; std::numeric_limits<bool>::is_modulo
PUBLIC	?is_signed@?$numeric_limits@_N@std@@2_NB	; std::numeric_limits<bool>::is_signed
PUBLIC	?digits@?$numeric_limits@_N@std@@2HB		; std::numeric_limits<bool>::digits
PUBLIC	?digits10@?$numeric_limits@_N@std@@2HB		; std::numeric_limits<bool>::digits10
_BSS	SEGMENT
?_classType@EjectedPilotClass@@0HA DD 01H DUP (?)	; EjectedPilotClass::_classType
?_classTypeFound@EjectedPilotClass@@0HA DD 01H DUP (?)	; EjectedPilotClass::_classTypeFound
_BSS	ENDS
;	COMDAT ?digits10@?$numeric_limits@_N@std@@2HB
CONST	SEGMENT
?digits10@?$numeric_limits@_N@std@@2HB DD 00H		; std::numeric_limits<bool>::digits10
CONST	ENDS
;	COMDAT ?digits@?$numeric_limits@_N@std@@2HB
CONST	SEGMENT
?digits@?$numeric_limits@_N@std@@2HB DD 01H		; std::numeric_limits<bool>::digits
CONST	ENDS
;	COMDAT ?is_signed@?$numeric_limits@_N@std@@2_NB
CONST	SEGMENT
?is_signed@?$numeric_limits@_N@std@@2_NB DB 00H		; std::numeric_limits<bool>::is_signed
CONST	ENDS
;	COMDAT ?is_modulo@?$numeric_limits@_N@std@@2_NB
CONST	SEGMENT
?is_modulo@?$numeric_limits@_N@std@@2_NB DB 00H		; std::numeric_limits<bool>::is_modulo
CONST	ENDS
;	COMDAT ?value@?$integral_constant@_N$00@std@@2_NB
CONST	SEGMENT
?value@?$integral_constant@_N$00@std@@2_NB DB 01H	; std::integral_constant<bool,1>::value
CONST	ENDS
;	COMDAT ?digits10@?$numeric_limits@_W@std@@2HB
CONST	SEGMENT
?digits10@?$numeric_limits@_W@std@@2HB DD 04H		; std::numeric_limits<wchar_t>::digits10
CONST	ENDS
;	COMDAT ?digits@?$numeric_limits@_W@std@@2HB
CONST	SEGMENT
?digits@?$numeric_limits@_W@std@@2HB DD 010H		; std::numeric_limits<wchar_t>::digits
CONST	ENDS
;	COMDAT ?is_signed@?$numeric_limits@_W@std@@2_NB
CONST	SEGMENT
?is_signed@?$numeric_limits@_W@std@@2_NB DB 00H		; std::numeric_limits<wchar_t>::is_signed
CONST	ENDS
;	COMDAT ?value@?$integral_constant@_N$0A@@std@@2_NB
CONST	SEGMENT
?value@?$integral_constant@_N$0A@@std@@2_NB DB 00H	; std::integral_constant<bool,0>::value
CONST	ENDS
;	COMDAT ?digits10@?$numeric_limits@D@std@@2HB
CONST	SEGMENT
?digits10@?$numeric_limits@D@std@@2HB DD 02H		; std::numeric_limits<char>::digits10
CONST	ENDS
;	COMDAT ?digits@?$numeric_limits@D@std@@2HB
CONST	SEGMENT
?digits@?$numeric_limits@D@std@@2HB DD 07H		; std::numeric_limits<char>::digits
CONST	ENDS
;	COMDAT ?is_signed@?$numeric_limits@D@std@@2_NB
CONST	SEGMENT
?is_signed@?$numeric_limits@D@std@@2_NB DB 01H		; std::numeric_limits<char>::is_signed
CONST	ENDS
;	COMDAT ?radix@_Num_float_base@std@@2HB
CONST	SEGMENT
?radix@_Num_float_base@std@@2HB DD 02H			; std::_Num_float_base::radix
CONST	ENDS
;	COMDAT ?round_style@_Num_float_base@std@@2W4float_round_style@2@B
CONST	SEGMENT
?round_style@_Num_float_base@std@@2W4float_round_style@2@B DD 01H ; std::_Num_float_base::round_style
CONST	ENDS
;	COMDAT ?traps@_Num_float_base@std@@2_NB
CONST	SEGMENT
?traps@_Num_float_base@std@@2_NB DB 00H			; std::_Num_float_base::traps
CONST	ENDS
;	COMDAT ?tinyness_before@_Num_float_base@std@@2_NB
CONST	SEGMENT
?tinyness_before@_Num_float_base@std@@2_NB DB 01H	; std::_Num_float_base::tinyness_before
CONST	ENDS
;	COMDAT ?is_specialized@_Num_float_base@std@@2_NB
CONST	SEGMENT
?is_specialized@_Num_float_base@std@@2_NB DB 01H	; std::_Num_float_base::is_specialized
CONST	ENDS
;	COMDAT ?is_signed@_Num_float_base@std@@2_NB
CONST	SEGMENT
?is_signed@_Num_float_base@std@@2_NB DB 01H		; std::_Num_float_base::is_signed
CONST	ENDS
;	COMDAT ?is_modulo@_Num_float_base@std@@2_NB
CONST	SEGMENT
?is_modulo@_Num_float_base@std@@2_NB DB 00H		; std::_Num_float_base::is_modulo
CONST	ENDS
;	COMDAT ?is_integer@_Num_float_base@std@@2_NB
CONST	SEGMENT
?is_integer@_Num_float_base@std@@2_NB DB 00H		; std::_Num_float_base::is_integer
CONST	ENDS
;	COMDAT ?is_iec559@_Num_float_base@std@@2_NB
CONST	SEGMENT
?is_iec559@_Num_float_base@std@@2_NB DB 01H		; std::_Num_float_base::is_iec559
CONST	ENDS
;	COMDAT ?is_exact@_Num_float_base@std@@2_NB
CONST	SEGMENT
?is_exact@_Num_float_base@std@@2_NB DB 00H		; std::_Num_float_base::is_exact
CONST	ENDS
;	COMDAT ?is_bounded@_Num_float_base@std@@2_NB
CONST	SEGMENT
?is_bounded@_Num_float_base@std@@2_NB DB 01H		; std::_Num_float_base::is_bounded
CONST	ENDS
;	COMDAT ?has_signaling_NaN@_Num_float_base@std@@2_NB
CONST	SEGMENT
?has_signaling_NaN@_Num_float_base@std@@2_NB DB 01H	; std::_Num_float_base::has_signaling_NaN
CONST	ENDS
;	COMDAT ?has_quiet_NaN@_Num_float_base@std@@2_NB
CONST	SEGMENT
?has_quiet_NaN@_Num_float_base@std@@2_NB DB 01H		; std::_Num_float_base::has_quiet_NaN
CONST	ENDS
;	COMDAT ?has_infinity@_Num_float_base@std@@2_NB
CONST	SEGMENT
?has_infinity@_Num_float_base@std@@2_NB DB 01H		; std::_Num_float_base::has_infinity
CONST	ENDS
;	COMDAT ?has_denorm_loss@_Num_float_base@std@@2_NB
CONST	SEGMENT
?has_denorm_loss@_Num_float_base@std@@2_NB DB 01H	; std::_Num_float_base::has_denorm_loss
CONST	ENDS
;	COMDAT ?has_denorm@_Num_float_base@std@@2W4float_denorm_style@2@B
CONST	SEGMENT
?has_denorm@_Num_float_base@std@@2W4float_denorm_style@2@B DD 01H ; std::_Num_float_base::has_denorm
CONST	ENDS
;	COMDAT ?radix@_Num_int_base@std@@2HB
CONST	SEGMENT
?radix@_Num_int_base@std@@2HB DD 02H			; std::_Num_int_base::radix
CONST	ENDS
;	COMDAT ?is_specialized@_Num_int_base@std@@2_NB
CONST	SEGMENT
?is_specialized@_Num_int_base@std@@2_NB DB 01H		; std::_Num_int_base::is_specialized
CONST	ENDS
;	COMDAT ?is_modulo@_Num_int_base@std@@2_NB
CONST	SEGMENT
?is_modulo@_Num_int_base@std@@2_NB DB 01H		; std::_Num_int_base::is_modulo
CONST	ENDS
;	COMDAT ?is_integer@_Num_int_base@std@@2_NB
CONST	SEGMENT
?is_integer@_Num_int_base@std@@2_NB DB 01H		; std::_Num_int_base::is_integer
CONST	ENDS
;	COMDAT ?is_exact@_Num_int_base@std@@2_NB
CONST	SEGMENT
?is_exact@_Num_int_base@std@@2_NB DB 01H		; std::_Num_int_base::is_exact
CONST	ENDS
;	COMDAT ?is_bounded@_Num_int_base@std@@2_NB
CONST	SEGMENT
?is_bounded@_Num_int_base@std@@2_NB DB 01H		; std::_Num_int_base::is_bounded
CONST	ENDS
;	COMDAT ?_Stream_err@failure@ios_base@std@@0W4io_errc@43@B
CONST	SEGMENT
?_Stream_err@failure@ios_base@std@@0W4io_errc@43@B DD 01H ; std::ios_base::failure::_Stream_err
CONST	ENDS
;	COMDAT ?radix@_Num_base@std@@2HB
CONST	SEGMENT
?radix@_Num_base@std@@2HB DD 00H			; std::_Num_base::radix
CONST	ENDS
;	COMDAT ?min_exponent10@_Num_base@std@@2HB
CONST	SEGMENT
?min_exponent10@_Num_base@std@@2HB DD 00H		; std::_Num_base::min_exponent10
CONST	ENDS
;	COMDAT ?min_exponent@_Num_base@std@@2HB
CONST	SEGMENT
?min_exponent@_Num_base@std@@2HB DD 00H			; std::_Num_base::min_exponent
CONST	ENDS
;	COMDAT ?max_exponent10@_Num_base@std@@2HB
CONST	SEGMENT
?max_exponent10@_Num_base@std@@2HB DD 00H		; std::_Num_base::max_exponent10
CONST	ENDS
;	COMDAT ?max_exponent@_Num_base@std@@2HB
CONST	SEGMENT
?max_exponent@_Num_base@std@@2HB DD 00H			; std::_Num_base::max_exponent
CONST	ENDS
;	COMDAT ?max_digits10@_Num_base@std@@2HB
CONST	SEGMENT
?max_digits10@_Num_base@std@@2HB DD 00H			; std::_Num_base::max_digits10
CONST	ENDS
;	COMDAT ?digits10@_Num_base@std@@2HB
CONST	SEGMENT
?digits10@_Num_base@std@@2HB DD 00H			; std::_Num_base::digits10
CONST	ENDS
;	COMDAT ?digits@_Num_base@std@@2HB
CONST	SEGMENT
?digits@_Num_base@std@@2HB DD 00H			; std::_Num_base::digits
CONST	ENDS
;	COMDAT ?round_style@_Num_base@std@@2W4float_round_style@2@B
CONST	SEGMENT
?round_style@_Num_base@std@@2W4float_round_style@2@B DD 00H ; std::_Num_base::round_style
CONST	ENDS
;	COMDAT ?end@?$_Iosb@H@std@@2W4_Seekdir@12@B
CONST	SEGMENT
?end@?$_Iosb@H@std@@2W4_Seekdir@12@B DD 02H		; std::_Iosb<int>::end
CONST	ENDS
;	COMDAT ?traps@_Num_base@std@@2_NB
CONST	SEGMENT
?traps@_Num_base@std@@2_NB DB 00H			; std::_Num_base::traps
CONST	ENDS
;	COMDAT ?cur@?$_Iosb@H@std@@2W4_Seekdir@12@B
CONST	SEGMENT
?cur@?$_Iosb@H@std@@2W4_Seekdir@12@B DD 01H		; std::_Iosb<int>::cur
CONST	ENDS
;	COMDAT ?tinyness_before@_Num_base@std@@2_NB
CONST	SEGMENT
?tinyness_before@_Num_base@std@@2_NB DB 00H		; std::_Num_base::tinyness_before
CONST	ENDS
;	COMDAT ?beg@?$_Iosb@H@std@@2W4_Seekdir@12@B
CONST	SEGMENT
?beg@?$_Iosb@H@std@@2W4_Seekdir@12@B DD 00H		; std::_Iosb<int>::beg
CONST	ENDS
;	COMDAT ?is_specialized@_Num_base@std@@2_NB
CONST	SEGMENT
?is_specialized@_Num_base@std@@2_NB DB 00H		; std::_Num_base::is_specialized
CONST	ENDS
;	COMDAT ?binary@?$_Iosb@H@std@@2W4_Openmode@12@B
CONST	SEGMENT
?binary@?$_Iosb@H@std@@2W4_Openmode@12@B DD 020H	; std::_Iosb<int>::binary
CONST	ENDS
;	COMDAT ?is_signed@_Num_base@std@@2_NB
CONST	SEGMENT
?is_signed@_Num_base@std@@2_NB DB 00H			; std::_Num_base::is_signed
CONST	ENDS
;	COMDAT ?is_modulo@_Num_base@std@@2_NB
CONST	SEGMENT
?is_modulo@_Num_base@std@@2_NB DB 00H			; std::_Num_base::is_modulo
CONST	ENDS
;	COMDAT ?_Noreplace@?$_Iosb@H@std@@2W4_Openmode@12@B
CONST	SEGMENT
?_Noreplace@?$_Iosb@H@std@@2W4_Openmode@12@B DD 080H	; std::_Iosb<int>::_Noreplace
CONST	ENDS
;	COMDAT ?is_integer@_Num_base@std@@2_NB
CONST	SEGMENT
?is_integer@_Num_base@std@@2_NB DB 00H			; std::_Num_base::is_integer
CONST	ENDS
;	COMDAT ?_Nocreate@?$_Iosb@H@std@@2W4_Openmode@12@B
CONST	SEGMENT
?_Nocreate@?$_Iosb@H@std@@2W4_Openmode@12@B DD 040H	; std::_Iosb<int>::_Nocreate
CONST	ENDS
;	COMDAT ?trunc@?$_Iosb@H@std@@2W4_Openmode@12@B
CONST	SEGMENT
?trunc@?$_Iosb@H@std@@2W4_Openmode@12@B DD 010H		; std::_Iosb<int>::trunc
CONST	ENDS
;	COMDAT ?is_iec559@_Num_base@std@@2_NB
CONST	SEGMENT
?is_iec559@_Num_base@std@@2_NB DB 00H			; std::_Num_base::is_iec559
CONST	ENDS
;	COMDAT ?app@?$_Iosb@H@std@@2W4_Openmode@12@B
CONST	SEGMENT
?app@?$_Iosb@H@std@@2W4_Openmode@12@B DD 08H		; std::_Iosb<int>::app
CONST	ENDS
;	COMDAT ?is_exact@_Num_base@std@@2_NB
CONST	SEGMENT
?is_exact@_Num_base@std@@2_NB DB 00H			; std::_Num_base::is_exact
CONST	ENDS
;	COMDAT ?is_bounded@_Num_base@std@@2_NB
CONST	SEGMENT
?is_bounded@_Num_base@std@@2_NB DB 00H			; std::_Num_base::is_bounded
CONST	ENDS
;	COMDAT ?ate@?$_Iosb@H@std@@2W4_Openmode@12@B
CONST	SEGMENT
?ate@?$_Iosb@H@std@@2W4_Openmode@12@B DD 04H		; std::_Iosb<int>::ate
CONST	ENDS
;	COMDAT ?has_signaling_NaN@_Num_base@std@@2_NB
CONST	SEGMENT
?has_signaling_NaN@_Num_base@std@@2_NB DB 00H		; std::_Num_base::has_signaling_NaN
CONST	ENDS
;	COMDAT ?out@?$_Iosb@H@std@@2W4_Openmode@12@B
CONST	SEGMENT
?out@?$_Iosb@H@std@@2W4_Openmode@12@B DD 02H		; std::_Iosb<int>::out
CONST	ENDS
;	COMDAT ?in@?$_Iosb@H@std@@2W4_Openmode@12@B
CONST	SEGMENT
?in@?$_Iosb@H@std@@2W4_Openmode@12@B DD 01H		; std::_Iosb<int>::in
CONST	ENDS
;	COMDAT ?has_quiet_NaN@_Num_base@std@@2_NB
CONST	SEGMENT
?has_quiet_NaN@_Num_base@std@@2_NB DB 00H		; std::_Num_base::has_quiet_NaN
CONST	ENDS
;	COMDAT ?has_infinity@_Num_base@std@@2_NB
CONST	SEGMENT
?has_infinity@_Num_base@std@@2_NB DB 00H		; std::_Num_base::has_infinity
CONST	ENDS
;	COMDAT ?_Hardfail@?$_Iosb@H@std@@2W4_Iostate@12@B
CONST	SEGMENT
?_Hardfail@?$_Iosb@H@std@@2W4_Iostate@12@B DD 010H	; std::_Iosb<int>::_Hardfail
CONST	ENDS
;	COMDAT ?has_denorm_loss@_Num_base@std@@2_NB
CONST	SEGMENT
?has_denorm_loss@_Num_base@std@@2_NB DB 00H		; std::_Num_base::has_denorm_loss
CONST	ENDS
;	COMDAT ?badbit@?$_Iosb@H@std@@2W4_Iostate@12@B
CONST	SEGMENT
?badbit@?$_Iosb@H@std@@2W4_Iostate@12@B DD 04H		; std::_Iosb<int>::badbit
CONST	ENDS
;	COMDAT ?has_denorm@_Num_base@std@@2W4float_denorm_style@2@B
CONST	SEGMENT
?has_denorm@_Num_base@std@@2W4float_denorm_style@2@B DD 00H ; std::_Num_base::has_denorm
CONST	ENDS
;	COMDAT ?failbit@?$_Iosb@H@std@@2W4_Iostate@12@B
CONST	SEGMENT
?failbit@?$_Iosb@H@std@@2W4_Iostate@12@B DD 02H		; std::_Iosb<int>::failbit
CONST	ENDS
;	COMDAT ?eofbit@?$_Iosb@H@std@@2W4_Iostate@12@B
CONST	SEGMENT
?eofbit@?$_Iosb@H@std@@2W4_Iostate@12@B DD 01H		; std::_Iosb<int>::eofbit
CONST	ENDS
;	COMDAT ?goodbit@?$_Iosb@H@std@@2W4_Iostate@12@B
CONST	SEGMENT
?goodbit@?$_Iosb@H@std@@2W4_Iostate@12@B DD 00H		; std::_Iosb<int>::goodbit
CONST	ENDS
;	COMDAT ?floatfield@?$_Iosb@H@std@@2W4_Fmtflags@12@B
CONST	SEGMENT
?floatfield@?$_Iosb@H@std@@2W4_Fmtflags@12@B DD 03000H	; std::_Iosb<int>::floatfield
CONST	ENDS
;	COMDAT ?basefield@?$_Iosb@H@std@@2W4_Fmtflags@12@B
CONST	SEGMENT
?basefield@?$_Iosb@H@std@@2W4_Fmtflags@12@B DD 0e00H	; std::_Iosb<int>::basefield
CONST	ENDS
;	COMDAT ?adjustfield@?$_Iosb@H@std@@2W4_Fmtflags@12@B
CONST	SEGMENT
?adjustfield@?$_Iosb@H@std@@2W4_Fmtflags@12@B DD 01c0H	; std::_Iosb<int>::adjustfield
CONST	ENDS
;	COMDAT ?_Stdio@?$_Iosb@H@std@@2W4_Fmtflags@12@B
CONST	SEGMENT
?_Stdio@?$_Iosb@H@std@@2W4_Fmtflags@12@B DD 08000H	; std::_Iosb<int>::_Stdio
CONST	ENDS
;	COMDAT ?boolalpha@?$_Iosb@H@std@@2W4_Fmtflags@12@B
CONST	SEGMENT
?boolalpha@?$_Iosb@H@std@@2W4_Fmtflags@12@B DD 04000H	; std::_Iosb<int>::boolalpha
CONST	ENDS
;	COMDAT ?hexfloat@?$_Iosb@H@std@@2W4_Fmtflags@12@B
CONST	SEGMENT
?hexfloat@?$_Iosb@H@std@@2W4_Fmtflags@12@B DD 03000H	; std::_Iosb<int>::hexfloat
CONST	ENDS
;	COMDAT ?fixed@?$_Iosb@H@std@@2W4_Fmtflags@12@B
CONST	SEGMENT
?fixed@?$_Iosb@H@std@@2W4_Fmtflags@12@B DD 02000H	; std::_Iosb<int>::fixed
CONST	ENDS
;	COMDAT ?scientific@?$_Iosb@H@std@@2W4_Fmtflags@12@B
CONST	SEGMENT
?scientific@?$_Iosb@H@std@@2W4_Fmtflags@12@B DD 01000H	; std::_Iosb<int>::scientific
CONST	ENDS
;	COMDAT ?hex@?$_Iosb@H@std@@2W4_Fmtflags@12@B
CONST	SEGMENT
?hex@?$_Iosb@H@std@@2W4_Fmtflags@12@B DD 0800H		; std::_Iosb<int>::hex
CONST	ENDS
;	COMDAT ?oct@?$_Iosb@H@std@@2W4_Fmtflags@12@B
CONST	SEGMENT
?oct@?$_Iosb@H@std@@2W4_Fmtflags@12@B DD 0400H		; std::_Iosb<int>::oct
CONST	ENDS
;	COMDAT ?dec@?$_Iosb@H@std@@2W4_Fmtflags@12@B
CONST	SEGMENT
?dec@?$_Iosb@H@std@@2W4_Fmtflags@12@B DD 0200H		; std::_Iosb<int>::dec
CONST	ENDS
;	COMDAT ?internal@?$_Iosb@H@std@@2W4_Fmtflags@12@B
CONST	SEGMENT
?internal@?$_Iosb@H@std@@2W4_Fmtflags@12@B DD 0100H	; std::_Iosb<int>::internal
CONST	ENDS
;	COMDAT ?right@?$_Iosb@H@std@@2W4_Fmtflags@12@B
CONST	SEGMENT
?right@?$_Iosb@H@std@@2W4_Fmtflags@12@B DD 080H		; std::_Iosb<int>::right
CONST	ENDS
;	COMDAT ?left@?$_Iosb@H@std@@2W4_Fmtflags@12@B
CONST	SEGMENT
?left@?$_Iosb@H@std@@2W4_Fmtflags@12@B DD 040H		; std::_Iosb<int>::left
CONST	ENDS
;	COMDAT ?showpos@?$_Iosb@H@std@@2W4_Fmtflags@12@B
CONST	SEGMENT
?showpos@?$_Iosb@H@std@@2W4_Fmtflags@12@B DD 020H	; std::_Iosb<int>::showpos
CONST	ENDS
;	COMDAT ?showpoint@?$_Iosb@H@std@@2W4_Fmtflags@12@B
CONST	SEGMENT
?showpoint@?$_Iosb@H@std@@2W4_Fmtflags@12@B DD 010H	; std::_Iosb<int>::showpoint
CONST	ENDS
;	COMDAT ?showbase@?$_Iosb@H@std@@2W4_Fmtflags@12@B
CONST	SEGMENT
?showbase@?$_Iosb@H@std@@2W4_Fmtflags@12@B DD 08H	; std::_Iosb<int>::showbase
CONST	ENDS
;	COMDAT ?uppercase@?$_Iosb@H@std@@2W4_Fmtflags@12@B
CONST	SEGMENT
?uppercase@?$_Iosb@H@std@@2W4_Fmtflags@12@B DD 04H	; std::_Iosb<int>::uppercase
CONST	ENDS
;	COMDAT ?unitbuf@?$_Iosb@H@std@@2W4_Fmtflags@12@B
CONST	SEGMENT
?unitbuf@?$_Iosb@H@std@@2W4_Fmtflags@12@B DD 02H	; std::_Iosb<int>::unitbuf
CONST	ENDS
;	COMDAT ?skipws@?$_Iosb@H@std@@2W4_Fmtflags@12@B
CONST	SEGMENT
?skipws@?$_Iosb@H@std@@2W4_Fmtflags@12@B DD 01H		; std::_Iosb<int>::skipws
CONST	ENDS
;	COMDAT ?value@?$_Sizeof@U_Nil@std@@U12@U12@U12@U12@U12@U12@U12@@std@@2IB
CONST	SEGMENT
?value@?$_Sizeof@U_Nil@std@@U12@U12@U12@U12@U12@U12@U12@@std@@2IB DD 00H ; std::_Sizeof<std::_Nil,std::_Nil,std::_Nil,std::_Nil,std::_Nil,std::_Nil,std::_Nil,std::_Nil>::value
CONST	ENDS
;	COMDAT ?CMPDIRTYDATA_INTERVAL@FalconEntity@@2KB
CONST	SEGMENT
?CMPDIRTYDATA_INTERVAL@FalconEntity@@2KB DD 0c8H	; FalconEntity::CMPDIRTYDATA_INTERVAL
CONST	ENDS
;	COMDAT ?SIMDIRTYDATA_INTERVAL@FalconEntity@@2KB
CONST	SEGMENT
?SIMDIRTYDATA_INTERVAL@FalconEntity@@2KB DD 0c8H	; FalconEntity::SIMDIRTYDATA_INTERVAL
CONST	ENDS
;	COMDAT ?min_exponent10@?$numeric_limits@O@std@@2HB
CONST	SEGMENT
?min_exponent10@?$numeric_limits@O@std@@2HB DD 0fffffecdH ; std::numeric_limits<long double>::min_exponent10
CONST	ENDS
;	COMDAT ?min_exponent@?$numeric_limits@O@std@@2HB
CONST	SEGMENT
?min_exponent@?$numeric_limits@O@std@@2HB DD 0fffffc03H	; std::numeric_limits<long double>::min_exponent
CONST	ENDS
;	COMDAT ?max_exponent10@?$numeric_limits@O@std@@2HB
CONST	SEGMENT
?max_exponent10@?$numeric_limits@O@std@@2HB DD 0134H	; std::numeric_limits<long double>::max_exponent10
CONST	ENDS
;	COMDAT ?max_exponent@?$numeric_limits@O@std@@2HB
CONST	SEGMENT
?max_exponent@?$numeric_limits@O@std@@2HB DD 0400H	; std::numeric_limits<long double>::max_exponent
CONST	ENDS
;	COMDAT ?max_digits10@?$numeric_limits@O@std@@2HB
CONST	SEGMENT
?max_digits10@?$numeric_limits@O@std@@2HB DD 011H	; std::numeric_limits<long double>::max_digits10
CONST	ENDS
;	COMDAT ?digits10@?$numeric_limits@O@std@@2HB
CONST	SEGMENT
?digits10@?$numeric_limits@O@std@@2HB DD 0fH		; std::numeric_limits<long double>::digits10
CONST	ENDS
;	COMDAT ?digits@?$numeric_limits@O@std@@2HB
CONST	SEGMENT
?digits@?$numeric_limits@O@std@@2HB DD 035H		; std::numeric_limits<long double>::digits
CONST	ENDS
;	COMDAT ?min_exponent10@?$numeric_limits@N@std@@2HB
CONST	SEGMENT
?min_exponent10@?$numeric_limits@N@std@@2HB DD 0fffffecdH ; std::numeric_limits<double>::min_exponent10
CONST	ENDS
;	COMDAT ?min_exponent@?$numeric_limits@N@std@@2HB
CONST	SEGMENT
?min_exponent@?$numeric_limits@N@std@@2HB DD 0fffffc03H	; std::numeric_limits<double>::min_exponent
CONST	ENDS
;	COMDAT ?max_exponent10@?$numeric_limits@N@std@@2HB
CONST	SEGMENT
?max_exponent10@?$numeric_limits@N@std@@2HB DD 0134H	; std::numeric_limits<double>::max_exponent10
CONST	ENDS
;	COMDAT ?max_exponent@?$numeric_limits@N@std@@2HB
CONST	SEGMENT
?max_exponent@?$numeric_limits@N@std@@2HB DD 0400H	; std::numeric_limits<double>::max_exponent
CONST	ENDS
;	COMDAT ?max_digits10@?$numeric_limits@N@std@@2HB
CONST	SEGMENT
?max_digits10@?$numeric_limits@N@std@@2HB DD 011H	; std::numeric_limits<double>::max_digits10
CONST	ENDS
;	COMDAT ?digits10@?$numeric_limits@N@std@@2HB
CONST	SEGMENT
?digits10@?$numeric_limits@N@std@@2HB DD 0fH		; std::numeric_limits<double>::digits10
CONST	ENDS
;	COMDAT ?digits@?$numeric_limits@N@std@@2HB
CONST	SEGMENT
?digits@?$numeric_limits@N@std@@2HB DD 035H		; std::numeric_limits<double>::digits
CONST	ENDS
;	COMDAT ?value@?$integral_constant@I$0A@@std@@2IB
CONST	SEGMENT
?value@?$integral_constant@I$0A@@std@@2IB DD 00H	; std::integral_constant<unsigned int,0>::value
CONST	ENDS
;	COMDAT ?min_exponent10@?$numeric_limits@M@std@@2HB
CONST	SEGMENT
?min_exponent10@?$numeric_limits@M@std@@2HB DD 0ffffffdbH ; std::numeric_limits<float>::min_exponent10
CONST	ENDS
;	COMDAT ?min_exponent@?$numeric_limits@M@std@@2HB
CONST	SEGMENT
?min_exponent@?$numeric_limits@M@std@@2HB DD 0ffffff83H	; std::numeric_limits<float>::min_exponent
CONST	ENDS
;	COMDAT ?max_exponent10@?$numeric_limits@M@std@@2HB
CONST	SEGMENT
?max_exponent10@?$numeric_limits@M@std@@2HB DD 026H	; std::numeric_limits<float>::max_exponent10
CONST	ENDS
;	COMDAT ?max_exponent@?$numeric_limits@M@std@@2HB
CONST	SEGMENT
?max_exponent@?$numeric_limits@M@std@@2HB DD 080H	; std::numeric_limits<float>::max_exponent
CONST	ENDS
;	COMDAT ?max_digits10@?$numeric_limits@M@std@@2HB
CONST	SEGMENT
?max_digits10@?$numeric_limits@M@std@@2HB DD 09H	; std::numeric_limits<float>::max_digits10
CONST	ENDS
;	COMDAT ?digits10@?$numeric_limits@M@std@@2HB
CONST	SEGMENT
?digits10@?$numeric_limits@M@std@@2HB DD 06H		; std::numeric_limits<float>::digits10
CONST	ENDS
;	COMDAT ?digits@?$numeric_limits@M@std@@2HB
CONST	SEGMENT
?digits@?$numeric_limits@M@std@@2HB DD 018H		; std::numeric_limits<float>::digits
CONST	ENDS
CONST	SEGMENT
_NEAR_CLIP DD	03f800000r			; 1
_L_2	DD	03f317218r			; 0.693147
CONST	ENDS
;	COMDAT ?digits10@?$numeric_limits@_K@std@@2HB
CONST	SEGMENT
?digits10@?$numeric_limits@_K@std@@2HB DD 013H		; std::numeric_limits<unsigned __int64>::digits10
CONST	ENDS
;	COMDAT ?digits@?$numeric_limits@_K@std@@2HB
CONST	SEGMENT
?digits@?$numeric_limits@_K@std@@2HB DD 040H		; std::numeric_limits<unsigned __int64>::digits
CONST	ENDS
;	COMDAT ?is_signed@?$numeric_limits@_K@std@@2_NB
CONST	SEGMENT
?is_signed@?$numeric_limits@_K@std@@2_NB DB 00H		; std::numeric_limits<unsigned __int64>::is_signed
CONST	ENDS
;	COMDAT ?digits10@?$numeric_limits@_J@std@@2HB
CONST	SEGMENT
?digits10@?$numeric_limits@_J@std@@2HB DD 012H		; std::numeric_limits<__int64>::digits10
CONST	ENDS
;	COMDAT ?digits@?$numeric_limits@_J@std@@2HB
CONST	SEGMENT
?digits@?$numeric_limits@_J@std@@2HB DD 03fH		; std::numeric_limits<__int64>::digits
CONST	ENDS
;	COMDAT ?is_signed@?$numeric_limits@_J@std@@2_NB
CONST	SEGMENT
?is_signed@?$numeric_limits@_J@std@@2_NB DB 01H		; std::numeric_limits<__int64>::is_signed
CONST	ENDS
;	COMDAT ?digits10@?$numeric_limits@K@std@@2HB
CONST	SEGMENT
?digits10@?$numeric_limits@K@std@@2HB DD 09H		; std::numeric_limits<unsigned long>::digits10
CONST	ENDS
;	COMDAT ?digits@?$numeric_limits@K@std@@2HB
CONST	SEGMENT
?digits@?$numeric_limits@K@std@@2HB DD 020H		; std::numeric_limits<unsigned long>::digits
CONST	ENDS
;	COMDAT ?is_signed@?$numeric_limits@K@std@@2_NB
CONST	SEGMENT
?is_signed@?$numeric_limits@K@std@@2_NB DB 00H		; std::numeric_limits<unsigned long>::is_signed
CONST	ENDS
;	COMDAT ?digits10@?$numeric_limits@J@std@@2HB
CONST	SEGMENT
?digits10@?$numeric_limits@J@std@@2HB DD 09H		; std::numeric_limits<long>::digits10
CONST	ENDS
;	COMDAT ?digits@?$numeric_limits@J@std@@2HB
CONST	SEGMENT
?digits@?$numeric_limits@J@std@@2HB DD 01fH		; std::numeric_limits<long>::digits
CONST	ENDS
_DATA	SEGMENT
?F16Mode1PhysicalData@@3UEP_PHYS_DATA@@A DD 000000000r ; 0 ; F16Mode1PhysicalData
	DD	03ca402a9r			; 0.0200208
	DD	041a472b0r			; 20.556
	DD	03fc00000r			; 1.5
	DD	03ca402a9r			; 0.0200208
	DD	041a472b0r			; 20.556
	DD	03fc00000r			; 1.5
	DD	03ca402a9r			; 0.0200208
	DD	041a472b0r			; 20.556
	DD	040f00000r			; 7.5
	DD	03e57437fr			; 0.210218
	DD	040db4396r			; 6.852
	DD	0461c4000r			; 10000
	DD	04196c1b2r			; 18.8446
	DD	040db4396r			; 6.852
	DD	0461c4000r			; 10000
	DD	03c033554r			; 0.00800832
	DD	040db4396r			; 6.852
	ORG $+24
	DD	041a00000r			; 20
	DD	043616667r			; 225.4
	DD	03fc90fdbr			; 1.5708
	DD	000000000r			; 0
	DD	000000000r			; 0
	DD	03c8efa34r			; 0.0174533
	DD	041180000r			; 9.5
	DD	000000000r			; 0
	DD	000000000r			; 0
	DD	03f000000r			; 0.5
_cloudPntList DD 0c5bcc000r			; -6040
	DD	0c4070000r			; -540
	DD	0c694ac00r			; -19030
	DD	0c6de1c00r			; -28430
	DD	0c4dfc000r			; -1790
	DD	046dcc800r			; 28260
	DD	047104200r			; 36930
	DD	045732000r			; 3890
	DD	04744ea00r			; 50410
	DD	045336000r			; 2870
	DD	0c4d48000r			; -1700
	DD	04736da00r			; 46810
	DD	0c763ee00r			; -58350
	DD	0c4d48000r			; -1700
	DD	0c64c1000r			; -13060
	DD	046f2bc00r			; 31070
	DD	045480000r			; 3200
	DD	0c7293800r			; -43320
	DD	0c7bdc400r			; -97160
	DD	0c4d48000r			; -1700
	DD	04576e000r			; 3950
	DD	0c792e000r			; -75200
	DD	0c4bb8000r			; -1500
	DD	047957400r			; 76520
	DD	04759ee00r			; 55790
	DD	0c5a1e000r			; -5180
	DD	0c7a24e00r			; -83100
	DD	0c7473800r			; -51000
	DD	0c3a00000r			; -320
	DD	0c7829100r			; -66850
	DD	047733400r			; 62260
	DD	0c3a00000r			; -320
	DD	047708200r			; 61570
	DD	0c7710e00r			; -61710
	DD	0c550c000r			; -3340
	DD	046fb7c00r			; 32190
	DD	0c7719a00r			; -61850
	DD	0c7483200r			; -51250
	DD	047543a00r			; 54330
	DD	0c5bcc000r			; -6040
	DD	0c7495400r			; -51540
	DD	0c694ac00r			; -19030
	DD	0c6a7a800r			; -21460
	DD	0c74b0200r			; -51970
	DD	0468e8000r			; 18240
	DD	047298800r			; 43400
	DD	0c74bf200r			; -52210
	DD	046bc7000r			; 24120
	DD	0c749f400r			; -51700
	DD	0c74bc000r			; -52160
	DD	046948400r			; 19010
	DD	0c605e800r			; -8570
	DD	0c7488200r			; -51330
	DD	0c74ca600r			; -52390
	DD	04731bc00r			; 45500
	DD	0c7509800r			; -53400
	DD	0c6725800r			; -15510
	DD	0c7719a00r			; -61850
	DD	0c7483200r			; -51250
	DD	047543a00r			; 54330
	DD	047553400r			; 54580
	DD	0c74ddc00r			; -52700
	DD	0479a5600r			; 79020
	DD	047a7e400r			; 85960
	DD	0c74c5600r			; -52310
	DD	0477d4800r			; 64840
	DD	0c7c44500r			; -100490
	DD	0c74d1400r			; -52500
	DD	047ac2600r			; 88140
	DD	0c7a1ae00r			; -82780
	DD	0c749ea00r			; -51690
	DD	0c7bce300r			; -96710
	DD	0c6126800r			; -9370
	DD	0c7495400r			; -51540
	DD	043cd0000r			; 410
	DD	0c6a7a800r			; -21460
	DD	0c74a8a00r			; -51850
	DD	0473fae00r			; 49070
	DD	0457c8000r			; 4040
	DD	0c74e4a00r			; -52810
	DD	047871e00r			; 69180
	DD	0c6cbc000r			; -26080
	DD	0c74bc000r			; -52160
	DD	046984400r			; 19490
	DD	0452fa000r			; 2810
	DD	0c7488200r			; -51330
	DD	0c7081800r			; -34840
	DD	0c7719a00r			; -61850
	DD	0c749d600r			; -51670
	DD	047b17600r			; 90860
	DD	047553400r			; 54580
	DD	0c74ddc00r			; -52700
	DD	0479a5600r			; 79020
	DD	047a7e400r			; 85960
	DD	0c74c5600r			; -52310
	DD	0477d4800r			; 64840
	DD	0c7c44500r			; -100490
	DD	0c74d1400r			; -52500
	DD	047ac2600r			; 88140
	DD	047c04e00r			; 98460
	DD	0c74d1400r			; -52500
	DD	0c732a200r			; -45730
	DD	0467b9000r			; 16100
	DD	0c7487800r			; -51320
	DD	0c749a400r			; -51620
	DD	047636c00r			; 58220
	DD	0c74e0400r			; -52740
	DD	0c760b000r			; -57520
	DD	0c6126800r			; -9370
	DD	0c4070000r			; -540
	DD	043cd0000r			; 410
	DD	0c4e60000r			; -1840
	DD	0c6a30c00r			; -20870
	DD	0470a6600r			; 35430
	DD	0c7230c00r			; -41740
	DD	046924000r			; 18720
	DD	04797d600r			; 77740
	DD	0460d9000r			; 9060
	DD	0c616c800r			; -9650
	DD	0c7921300r			; -74790
_lightningPosList DD 041300000r			; 11
	DD	000000000r			; 0
	DD	040e00000r			; 7
	DD	040a00000r			; 5
	DD	041100000r			; 9
	DD	041000000r			; 8
	DD	041000000r			; 8
	DD	041600000r			; 14
	DD	041800000r			; 16
	DD	041a00000r			; 20
	DD	041200000r			; 10
	DD	041c00000r			; 24
	DD	041300000r			; 11
	DD	041d80000r			; 27
	DD	040c00000r			; 6
	DD	041f00000r			; 30
	DD	040e00000r			; 7
	DD	042040000r			; 33
	DD	03f800000r			; 1
	DD	042180000r			; 38
	DD	040a00000r			; 5
	DD	042280000r			; 42
	DD	040a00000r			; 5
	DD	042340000r			; 45
	DD	041400000r			; 12
	DD	042400000r			; 48
	DD	041a00000r			; 20
	DD	042500000r			; 52
	DD	041a00000r			; 20
	DD	042680000r			; 58
	DD	041b80000r			; 23
	DD	042740000r			; 61
	DD	041b00000r			; 22
	DD	0427c0000r			; 63
	DD	041b00000r			; 22
	DD	042840000r			; 66
	DD	041c80000r			; 25
	DD	042880000r			; 68
	DD	041a00000r			; 20
	DD	0428c0000r			; 70
	DD	041c00000r			; 24
	DD	042960000r			; 75
	DD	041c00000r			; 24
	DD	0429a0000r			; 77
	DD	041f80000r			; 31
	DD	042a00000r			; 80
	DD	041f80000r			; 31
	DD	042a60000r			; 83
	DD	042040000r			; 33
	DD	042b00000r			; 88
	DD	041f80000r			; 31
	DD	042b80000r			; 92
	DD	0423c0000r			; 47
	DD	042ce0000r			; 103
	DD	042380000r			; 46
	DD	042d20000r			; 105
	DD	0423c0000r			; 47
	DD	042d60000r			; 107
	DD	042340000r			; 45
	DD	042e00000r			; 112
	DD	042400000r			; 48
	DD	042e40000r			; 114
	DD	042380000r			; 46
	DD	042ea0000r			; 117
	DD	0422c0000r			; 43
	DD	043000000r			; 128
_DATA	ENDS
;	COMDAT ?is_signed@?$numeric_limits@J@std@@2_NB
CONST	SEGMENT
?is_signed@?$numeric_limits@J@std@@2_NB DB 01H		; std::numeric_limits<long>::is_signed
CONST	ENDS
;	COMDAT ?digits10@?$numeric_limits@I@std@@2HB
CONST	SEGMENT
?digits10@?$numeric_limits@I@std@@2HB DD 09H		; std::numeric_limits<unsigned int>::digits10
CONST	ENDS
;	COMDAT ?digits@?$numeric_limits@I@std@@2HB
CONST	SEGMENT
?digits@?$numeric_limits@I@std@@2HB DD 020H		; std::numeric_limits<unsigned int>::digits
CONST	ENDS
;	COMDAT ?is_signed@?$numeric_limits@I@std@@2_NB
CONST	SEGMENT
?is_signed@?$numeric_limits@I@std@@2_NB DB 00H		; std::numeric_limits<unsigned int>::is_signed
CONST	ENDS
;	COMDAT ?table_size@?$ctype@D@std@@2IB
CONST	SEGMENT
?table_size@?$ctype@D@std@@2IB DD 0100H			; std::ctype<char>::table_size
CONST	ENDS
;	COMDAT ?digits10@?$numeric_limits@H@std@@2HB
CONST	SEGMENT
?digits10@?$numeric_limits@H@std@@2HB DD 09H		; std::numeric_limits<int>::digits10
CONST	ENDS
;	COMDAT ?digits@?$numeric_limits@H@std@@2HB
CONST	SEGMENT
?digits@?$numeric_limits@H@std@@2HB DD 01fH		; std::numeric_limits<int>::digits
CONST	ENDS
;	COMDAT ?value@?$_Sizeof@HU_Nil@std@@U12@U12@U12@U12@U12@U12@@std@@2IB
CONST	SEGMENT
?value@?$_Sizeof@HU_Nil@std@@U12@U12@U12@U12@U12@U12@@std@@2IB DD 01H ; std::_Sizeof<int,std::_Nil,std::_Nil,std::_Nil,std::_Nil,std::_Nil,std::_Nil,std::_Nil>::value
CONST	ENDS
;	COMDAT ?is_signed@?$numeric_limits@H@std@@2_NB
CONST	SEGMENT
?is_signed@?$numeric_limits@H@std@@2_NB DB 01H		; std::numeric_limits<int>::is_signed
CONST	ENDS
;	COMDAT ?digits10@?$numeric_limits@G@std@@2HB
CONST	SEGMENT
?digits10@?$numeric_limits@G@std@@2HB DD 04H		; std::numeric_limits<unsigned short>::digits10
CONST	ENDS
;	COMDAT ?digits@?$numeric_limits@G@std@@2HB
CONST	SEGMENT
?digits@?$numeric_limits@G@std@@2HB DD 010H		; std::numeric_limits<unsigned short>::digits
CONST	ENDS
;	COMDAT ?is_signed@?$numeric_limits@G@std@@2_NB
CONST	SEGMENT
?is_signed@?$numeric_limits@G@std@@2_NB DB 00H		; std::numeric_limits<unsigned short>::is_signed
CONST	ENDS
;	COMDAT ?digits10@?$numeric_limits@F@std@@2HB
CONST	SEGMENT
?digits10@?$numeric_limits@F@std@@2HB DD 04H		; std::numeric_limits<short>::digits10
CONST	ENDS
;	COMDAT ?digits@?$numeric_limits@F@std@@2HB
CONST	SEGMENT
?digits@?$numeric_limits@F@std@@2HB DD 0fH		; std::numeric_limits<short>::digits
CONST	ENDS
;	COMDAT ?none@?$_Locbase@H@std@@2HB
CONST	SEGMENT
?none@?$_Locbase@H@std@@2HB DD 00H			; std::_Locbase<int>::none
CONST	ENDS
;	COMDAT ?is_signed@?$numeric_limits@F@std@@2_NB
CONST	SEGMENT
?is_signed@?$numeric_limits@F@std@@2_NB DB 01H		; std::numeric_limits<short>::is_signed
CONST	ENDS
;	COMDAT ?all@?$_Locbase@H@std@@2HB
CONST	SEGMENT
?all@?$_Locbase@H@std@@2HB DD 03fH			; std::_Locbase<int>::all
CONST	ENDS
;	COMDAT ?messages@?$_Locbase@H@std@@2HB
CONST	SEGMENT
?messages@?$_Locbase@H@std@@2HB DD 020H			; std::_Locbase<int>::messages
CONST	ENDS
;	COMDAT ?time@?$_Locbase@H@std@@2HB
CONST	SEGMENT
?time@?$_Locbase@H@std@@2HB DD 010H			; std::_Locbase<int>::time
CONST	ENDS
;	COMDAT ?numeric@?$_Locbase@H@std@@2HB
CONST	SEGMENT
?numeric@?$_Locbase@H@std@@2HB DD 08H			; std::_Locbase<int>::numeric
CONST	ENDS
;	COMDAT ?monetary@?$_Locbase@H@std@@2HB
CONST	SEGMENT
?monetary@?$_Locbase@H@std@@2HB DD 04H			; std::_Locbase<int>::monetary
CONST	ENDS
;	COMDAT ?ctype@?$_Locbase@H@std@@2HB
CONST	SEGMENT
?ctype@?$_Locbase@H@std@@2HB DD 02H			; std::_Locbase<int>::ctype
CONST	ENDS
;	COMDAT ?collate@?$_Locbase@H@std@@2HB
CONST	SEGMENT
?collate@?$_Locbase@H@std@@2HB DD 01H			; std::_Locbase<int>::collate
CONST	ENDS
;	COMDAT ?digits10@?$numeric_limits@E@std@@2HB
CONST	SEGMENT
?digits10@?$numeric_limits@E@std@@2HB DD 02H		; std::numeric_limits<unsigned char>::digits10
CONST	ENDS
;	COMDAT ?digits@?$numeric_limits@E@std@@2HB
CONST	SEGMENT
?digits@?$numeric_limits@E@std@@2HB DD 08H		; std::numeric_limits<unsigned char>::digits
CONST	ENDS
;	COMDAT ?is_signed@?$numeric_limits@E@std@@2_NB
CONST	SEGMENT
?is_signed@?$numeric_limits@E@std@@2_NB DB 00H		; std::numeric_limits<unsigned char>::is_signed
CONST	ENDS
;	COMDAT ?digits10@?$numeric_limits@C@std@@2HB
CONST	SEGMENT
?digits10@?$numeric_limits@C@std@@2HB DD 02H		; std::numeric_limits<signed char>::digits10
CONST	ENDS
;	COMDAT ?digits@?$numeric_limits@C@std@@2HB
CONST	SEGMENT
?digits@?$numeric_limits@C@std@@2HB DD 07H		; std::numeric_limits<signed char>::digits
CONST	ENDS
;	COMDAT ?is_signed@?$numeric_limits@C@std@@2_NB
CONST	SEGMENT
?is_signed@?$numeric_limits@C@std@@2_NB DB 01H		; std::numeric_limits<signed char>::is_signed
CONST	ENDS
PUBLIC	_cosf
PUBLIC	_sinf
PUBLIC	?cos@@YAMM@Z					; cos
PUBLIC	?sin@@YAMM@Z					; sin
PUBLIC	??2@YAPAXIPAX@Z					; operator new
PUBLIC	??3@YAXPAX0@Z					; operator delete
PUBLIC	?length@?$char_traits@D@std@@SAIPBD@Z		; std::char_traits<char>::length
PUBLIC	?copy@?$char_traits@D@std@@SAPADPADPBDI@Z	; std::char_traits<char>::copy
PUBLIC	?move@?$char_traits@D@std@@SAPADPADPBDI@Z	; std::char_traits<char>::move
PUBLIC	?assign@?$char_traits@D@std@@SAXAADABD@Z	; std::char_traits<char>::assign
PUBLIC	??0logic_error@std@@QAE@PBD@Z			; std::logic_error::logic_error
PUBLIC	??1logic_error@std@@UAE@XZ			; std::logic_error::~logic_error
PUBLIC	??0logic_error@std@@QAE@ABV01@@Z		; std::logic_error::logic_error
PUBLIC	??_Glogic_error@std@@UAEPAXI@Z			; std::logic_error::`scalar deleting destructor'
PUBLIC	??0?$allocator@D@std@@QAE@XZ			; std::allocator<char>::allocator<char>
PUBLIC	?deallocate@?$allocator@D@std@@QAEXPADI@Z	; std::allocator<char>::deallocate
PUBLIC	?allocate@?$allocator@D@std@@QAEPADI@Z		; std::allocator<char>::allocate
PUBLIC	?max_size@?$allocator@D@std@@QBEIXZ		; std::allocator<char>::max_size
PUBLIC	?max_size@?$allocator_traits@V?$allocator@D@std@@@std@@SAIABV?$allocator@D@2@@Z ; std::allocator_traits<std::allocator<char> >::max_size
PUBLIC	??0?$_Wrap_alloc@V?$allocator@D@std@@@std@@QAE@XZ ; std::_Wrap_alloc<std::allocator<char> >::_Wrap_alloc<std::allocator<char> >
PUBLIC	?allocate@?$_Wrap_alloc@V?$allocator@D@std@@@std@@QAEPADI@Z ; std::_Wrap_alloc<std::allocator<char> >::allocate
PUBLIC	?deallocate@?$_Wrap_alloc@V?$allocator@D@std@@@std@@QAEXPADI@Z ; std::_Wrap_alloc<std::allocator<char> >::deallocate
PUBLIC	?max_size@?$_Wrap_alloc@V?$allocator@D@std@@@std@@QBEIXZ ; std::_Wrap_alloc<std::allocator<char> >::max_size
PUBLIC	??0?$_String_val@U?$_Simple_types@D@std@@@std@@QAE@XZ ; std::_String_val<std::_Simple_types<char> >::_String_val<std::_Simple_types<char> >
PUBLIC	?_Myptr@?$_String_val@U?$_Simple_types@D@std@@@std@@QAEPADXZ ; std::_String_val<std::_Simple_types<char> >::_Myptr
PUBLIC	?_Myptr@?$_String_val@U?$_Simple_types@D@std@@@std@@QBEPBDXZ ; std::_String_val<std::_Simple_types<char> >::_Myptr
PUBLIC	??0?$_String_alloc@$0A@U?$_String_base_types@DV?$allocator@D@std@@@std@@@std@@QAE@ABV?$allocator@D@1@@Z ; std::_String_alloc<0,std::_String_base_types<char,std::allocator<char> > >::_String_alloc<0,std::_String_base_types<char,std::allocator<char> > >
PUBLIC	?_Getal@?$_String_alloc@$0A@U?$_String_base_types@DV?$allocator@D@std@@@std@@@std@@QBE?AU?$_Wrap_alloc@V?$allocator@D@std@@@2@XZ ; std::_String_alloc<0,std::_String_base_types<char,std::allocator<char> > >::_Getal
PUBLIC	??0?$basic_string@DU?$char_traits@D@std@@V?$allocator@D@2@@std@@QAE@PBD@Z ; std::basic_string<char,std::char_traits<char>,std::allocator<char> >::basic_string<char,std::char_traits<char>,std::allocator<char> >
PUBLIC	??1?$basic_string@DU?$char_traits@D@std@@V?$allocator@D@2@@std@@QAE@XZ ; std::basic_string<char,std::char_traits<char>,std::allocator<char> >::~basic_string<char,std::char_traits<char>,std::allocator<char> >
PUBLIC	?assign@?$basic_string@DU?$char_traits@D@std@@V?$allocator@D@2@@std@@QAEAAV12@ABV12@II@Z ; std::basic_string<char,std::char_traits<char>,std::allocator<char> >::assign
PUBLIC	?assign@?$basic_string@DU?$char_traits@D@std@@V?$allocator@D@2@@std@@QAEAAV12@PBDI@Z ; std::basic_string<char,std::char_traits<char>,std::allocator<char> >::assign
PUBLIC	?assign@?$basic_string@DU?$char_traits@D@std@@V?$allocator@D@2@@std@@QAEAAV12@PBD@Z ; std::basic_string<char,std::char_traits<char>,std::allocator<char> >::assign
PUBLIC	?erase@?$basic_string@DU?$char_traits@D@std@@V?$allocator@D@2@@std@@QAEAAV12@I@Z ; std::basic_string<char,std::char_traits<char>,std::allocator<char> >::erase
PUBLIC	?erase@?$basic_string@DU?$char_traits@D@std@@V?$allocator@D@2@@std@@QAEAAV12@II@Z ; std::basic_string<char,std::char_traits<char>,std::allocator<char> >::erase
PUBLIC	?c_str@?$basic_string@DU?$char_traits@D@std@@V?$allocator@D@2@@std@@QBEPBDXZ ; std::basic_string<char,std::char_traits<char>,std::allocator<char> >::c_str
PUBLIC	?size@?$basic_string@DU?$char_traits@D@std@@V?$allocator@D@2@@std@@QBEIXZ ; std::basic_string<char,std::char_traits<char>,std::allocator<char> >::size
PUBLIC	?max_size@?$basic_string@DU?$char_traits@D@std@@V?$allocator@D@2@@std@@QBEIXZ ; std::basic_string<char,std::char_traits<char>,std::allocator<char> >::max_size
PUBLIC	?_Copy@?$basic_string@DU?$char_traits@D@std@@V?$allocator@D@2@@std@@QAEXII@Z ; std::basic_string<char,std::char_traits<char>,std::allocator<char> >::_Copy
PUBLIC	?_Eos@?$basic_string@DU?$char_traits@D@std@@V?$allocator@D@2@@std@@QAEXI@Z ; std::basic_string<char,std::char_traits<char>,std::allocator<char> >::_Eos
PUBLIC	?_Grow@?$basic_string@DU?$char_traits@D@std@@V?$allocator@D@2@@std@@QAE_NI_N@Z ; std::basic_string<char,std::char_traits<char>,std::allocator<char> >::_Grow
PUBLIC	?_Inside@?$basic_string@DU?$char_traits@D@std@@V?$allocator@D@2@@std@@QAE_NPBD@Z ; std::basic_string<char,std::char_traits<char>,std::allocator<char> >::_Inside
PUBLIC	?_Tidy@?$basic_string@DU?$char_traits@D@std@@V?$allocator@D@2@@std@@QAEX_NI@Z ; std::basic_string<char,std::char_traits<char>,std::allocator<char> >::_Tidy
PUBLIC	?_Xlen@?$basic_string@DU?$char_traits@D@std@@V?$allocator@D@2@@std@@QBEXXZ ; std::basic_string<char,std::char_traits<char>,std::allocator<char> >::_Xlen
PUBLIC	?_Xran@?$basic_string@DU?$char_traits@D@std@@V?$allocator@D@2@@std@@QBEXXZ ; std::basic_string<char,std::char_traits<char>,std::allocator<char> >::_Xran
PUBLIC	??0out_of_range@std@@QAE@ABV?$basic_string@DU?$char_traits@D@std@@V?$allocator@D@2@@1@@Z ; std::out_of_range::out_of_range
PUBLIC	??1out_of_range@std@@UAE@XZ			; std::out_of_range::~out_of_range
PUBLIC	??0out_of_range@std@@QAE@ABV01@@Z		; std::out_of_range::out_of_range
PUBLIC	??_Gout_of_range@std@@UAEPAXI@Z			; std::out_of_range::`scalar deleting destructor'
PUBLIC	??0id@locale@std@@QAE@I@Z			; std::locale::id::id
PUBLIC	?generic_category@std@@YAABVerror_category@1@XZ	; std::generic_category
PUBLIC	?system_category@std@@YAABVerror_category@1@XZ	; std::system_category
PUBLIC	??0error_category@std@@QAE@XZ			; std::error_category::error_category
PUBLIC	??1error_category@std@@UAE@XZ			; std::error_category::~error_category
PUBLIC	?default_error_condition@error_category@std@@UBE?AVerror_condition@2@H@Z ; std::error_category::default_error_condition
PUBLIC	?equivalent@error_category@std@@UBE_NHABVerror_condition@2@@Z ; std::error_category::equivalent
PUBLIC	?equivalent@error_category@std@@UBE_NABVerror_code@2@H@Z ; std::error_category::equivalent
PUBLIC	??8error_category@std@@QBE_NABV01@@Z		; std::error_category::operator==
PUBLIC	??_Gerror_category@std@@UAEPAXI@Z		; std::error_category::`scalar deleting destructor'
PUBLIC	?value@error_code@std@@QBEHXZ			; std::error_code::value
PUBLIC	?category@error_code@std@@QBEABVerror_category@2@XZ ; std::error_code::category
PUBLIC	??0error_condition@std@@QAE@HABVerror_category@1@@Z ; std::error_condition::error_condition
PUBLIC	?value@error_condition@std@@QBEHXZ		; std::error_condition::value
PUBLIC	?category@error_condition@std@@QBEABVerror_category@2@XZ ; std::error_condition::category
PUBLIC	??8error_condition@std@@QBE_NABV01@@Z		; std::error_condition::operator==
PUBLIC	??0_Generic_error_category@std@@QAE@XZ		; std::_Generic_error_category::_Generic_error_category
PUBLIC	?name@_Generic_error_category@std@@UBEPBDXZ	; std::_Generic_error_category::name
PUBLIC	?message@_Generic_error_category@std@@UBE?AV?$basic_string@DU?$char_traits@D@std@@V?$allocator@D@2@@2@H@Z ; std::_Generic_error_category::message
PUBLIC	??1_Generic_error_category@std@@UAE@XZ		; std::_Generic_error_category::~_Generic_error_category
PUBLIC	??_G_Generic_error_category@std@@UAEPAXI@Z	; std::_Generic_error_category::`scalar deleting destructor'
PUBLIC	??0_Iostream_error_category@std@@QAE@XZ		; std::_Iostream_error_category::_Iostream_error_category
PUBLIC	?name@_Iostream_error_category@std@@UBEPBDXZ	; std::_Iostream_error_category::name
PUBLIC	?message@_Iostream_error_category@std@@UBE?AV?$basic_string@DU?$char_traits@D@std@@V?$allocator@D@2@@2@H@Z ; std::_Iostream_error_category::message
PUBLIC	??1_Iostream_error_category@std@@UAE@XZ		; std::_Iostream_error_category::~_Iostream_error_category
PUBLIC	??_G_Iostream_error_category@std@@UAEPAXI@Z	; std::_Iostream_error_category::`scalar deleting destructor'
PUBLIC	??0_System_error_category@std@@QAE@XZ		; std::_System_error_category::_System_error_category
PUBLIC	?name@_System_error_category@std@@UBEPBDXZ	; std::_System_error_category::name
PUBLIC	?message@_System_error_category@std@@UBE?AV?$basic_string@DU?$char_traits@D@std@@V?$allocator@D@2@@2@H@Z ; std::_System_error_category::message
PUBLIC	?default_error_condition@_System_error_category@std@@UBE?AVerror_condition@2@H@Z ; std::_System_error_category::default_error_condition
PUBLIC	??1_System_error_category@std@@UAE@XZ		; std::_System_error_category::~_System_error_category
PUBLIC	??_G_System_error_category@std@@UAEPAXI@Z	; std::_System_error_category::`scalar deleting destructor'
PUBLIC	?Radius@DrawableObject@@QBEMXZ			; DrawableObject::Radius
PUBLIC	?GetPosition@DrawableObject@@QAEXPAUTpoint@@@Z	; DrawableObject::GetPosition
PUBLIC	?Label@DrawableBSP@@QAEPADXZ			; DrawableBSP::Label
PUBLIC	?LabelColor@DrawableBSP@@QAEKXZ			; DrawableBSP::LabelColor
PUBLIC	??0VU_SESSION_ID@@QAE@K@Z			; VU_SESSION_ID::VU_SESSION_ID
PUBLIC	??0VU_ID@@QAE@XZ				; VU_ID::VU_ID
PUBLIC	?SetYPR@VuEntity@@QAEXMMM@Z			; VuEntity::SetYPR
PUBLIC	?SetYPRDelta@VuEntity@@QAEXMMM@Z		; VuEntity::SetYPRDelta
PUBLIC	?Id@VuEntity@@QBE?AVVU_ID@@XZ			; VuEntity::Id
PUBLIC	?OwnerId@VuEntity@@QBE?AVVU_ID@@XZ		; VuEntity::OwnerId
PUBLIC	?Type@VuEntity@@QBEGXZ				; VuEntity::Type
PUBLIC	?XPos@VuEntity@@QBEMXZ				; VuEntity::XPos
PUBLIC	?YPos@VuEntity@@QBEMXZ				; VuEntity::YPos
PUBLIC	?ZPos@VuEntity@@QBEMXZ				; VuEntity::ZPos
PUBLIC	?XDelta@VuEntity@@QBEMXZ			; VuEntity::XDelta
PUBLIC	?YDelta@VuEntity@@QBEMXZ			; VuEntity::YDelta
PUBLIC	?ZDelta@VuEntity@@QBEMXZ			; VuEntity::ZDelta
PUBLIC	?Yaw@VuEntity@@QBEMXZ				; VuEntity::Yaw
PUBLIC	?Pitch@VuEntity@@QBEMXZ				; VuEntity::Pitch
PUBLIC	?Roll@VuEntity@@QBEMXZ				; VuEntity::Roll
PUBLIC	?YawDelta@VuEntity@@QBEMXZ			; VuEntity::YawDelta
PUBLIC	?PitchDelta@VuEntity@@QBEMXZ			; VuEntity::PitchDelta
PUBLIC	?RollDelta@VuEntity@@QBEMXZ			; VuEntity::RollDelta
PUBLIC	??B?$VuBin@VVuSessionEntity@@@@QBE_NXZ		; VuBin<VuSessionEntity>::operator bool
PUBLIC	?get@?$VuBin@VVuSessionEntity@@@@QBEPAVVuSessionEntity@@XZ ; VuBin<VuSessionEntity>::get
PUBLIC	?NoExec@VuMaster@@UAEXK@Z			; VuMaster::NoExec
PUBLIC	?Handle@VuMaster@@UAEHPAVVuEvent@@@Z		; VuMaster::Handle
PUBLIC	?Handle@VuMaster@@UAEHPAVVuFullUpdateEvent@@@Z	; VuMaster::Handle
PUBLIC	?Handle@VuMaster@@UAEHPAVVuPositionUpdateEvent@@@Z ; VuMaster::Handle
PUBLIC	?IsCampBase@FalconEntity@@UAE_NXZ		; FalconEntity::IsCampBase
PUBLIC	?SetTypeFlag@FalconEntity@@QAEXH@Z		; FalconEntity::SetTypeFlag
PUBLIC	?IsSetFalcFlag@FalconEntity@@QAEHH@Z		; FalconEntity::IsSetFalcFlag
PUBLIC	?IsPlayer@FalconEntity@@QAEHXZ			; FalconEntity::IsPlayer
PUBLIC	?GetRadarMode@FalconEntity@@UAEHXZ		; FalconEntity::GetRadarMode
PUBLIC	?SetRadarMode@FalconEntity@@UAEXE@Z		; FalconEntity::SetRadarMode
PUBLIC	?ReturnToSearch@FalconEntity@@UAEXXZ		; FalconEntity::ReturnToSearch
PUBLIC	?SetSearchMode@FalconEntity@@UAEXE@Z		; FalconEntity::SetSearchMode
PUBLIC	?CombatClass@FalconEntity@@UAEHXZ		; FalconEntity::CombatClass
PUBLIC	?HasEntity@FalconEntity@@UBEHPAVVuEntity@@@Z	; FalconEntity::HasEntity
PUBLIC	?IsMissile@FalconEntity@@UAEHXZ			; FalconEntity::IsMissile
PUBLIC	?IsLauncher@FalconEntity@@UAEHXZ		; FalconEntity::IsLauncher
PUBLIC	?IsBomb@FalconEntity@@UAEHXZ			; FalconEntity::IsBomb
PUBLIC	?IsGun@FalconEntity@@UAEHXZ			; FalconEntity::IsGun
PUBLIC	?IsVehicle@FalconEntity@@UAEHXZ			; FalconEntity::IsVehicle
PUBLIC	?IsStatic@FalconEntity@@UAEHXZ			; FalconEntity::IsStatic
PUBLIC	?IsHelicopter@FalconEntity@@UAEHXZ		; FalconEntity::IsHelicopter
PUBLIC	?IsAirplane@FalconEntity@@UAEHXZ		; FalconEntity::IsAirplane
PUBLIC	?IsGroundVehicle@FalconEntity@@UAEHXZ		; FalconEntity::IsGroundVehicle
PUBLIC	?IsShip@FalconEntity@@UAEHXZ			; FalconEntity::IsShip
PUBLIC	?IsWeapon@FalconEntity@@UAEHXZ			; FalconEntity::IsWeapon
PUBLIC	?IsDead@FalconEntity@@UAEHXZ			; FalconEntity::IsDead
PUBLIC	?IsEmitting@FalconEntity@@UAEHXZ		; FalconEntity::IsEmitting
PUBLIC	?IsUnit@FalconEntity@@UAEHXZ			; FalconEntity::IsUnit
PUBLIC	?IsObjective@FalconEntity@@UAEHXZ		; FalconEntity::IsObjective
PUBLIC	?IsBattalion@FalconEntity@@UAEHXZ		; FalconEntity::IsBattalion
PUBLIC	?IsBrigade@FalconEntity@@UAEHXZ			; FalconEntity::IsBrigade
PUBLIC	?IsFlight@FalconEntity@@UBEHXZ			; FalconEntity::IsFlight
PUBLIC	?IsSquadron@FalconEntity@@UAEHXZ		; FalconEntity::IsSquadron
PUBLIC	?IsPackage@FalconEntity@@UAEHXZ			; FalconEntity::IsPackage
PUBLIC	?IsTeam@FalconEntity@@UAEHXZ			; FalconEntity::IsTeam
PUBLIC	?IsTaskForce@FalconEntity@@UAEHXZ		; FalconEntity::IsTaskForce
PUBLIC	?GetRCSFactor@FalconEntity@@UAEMXZ		; FalconEntity::GetRCSFactor
PUBLIC	?GetIRFactor@FalconEntity@@UAEMXZ		; FalconEntity::GetIRFactor
PUBLIC	?SetAQUIREtimer@FalconEntity@@UAEXK@Z		; FalconEntity::SetAQUIREtimer
PUBLIC	?SetSEARCHtimer@FalconEntity@@UAEXK@Z		; FalconEntity::SetSEARCHtimer
PUBLIC	?SetStepSearchMode@FalconEntity@@UAEXE@Z	; FalconEntity::SetStepSearchMode
PUBLIC	?GetAQUIREtimer@FalconEntity@@UAEKXZ		; FalconEntity::GetAQUIREtimer
PUBLIC	?GetSEARCHtimer@FalconEntity@@UAEKXZ		; FalconEntity::GetSEARCHtimer
PUBLIC	?checked_atan2@@YANNN@Z				; checked_atan2
PUBLIC	?get@?$VuBin@VCampBaseClass@@@@QBEPAVCampBaseClass@@XZ ; VuBin<CampBaseClass>::get
PUBLIC	?JoinFlight@SimBaseClass@@UAEXXZ		; SimBaseClass::JoinFlight
PUBLIC	?IsSimBase@SimBaseClass@@UAE_NXZ		; SimBaseClass::IsSimBase
PUBLIC	?GetCountry@SimBaseClass@@UAEEXZ		; SimBaseClass::GetCountry
PUBLIC	?OnGround@SimBaseClass@@UAEHXZ			; SimBaseClass::OnGround
PUBLIC	?IsExploding@SimBaseClass@@UAEHXZ		; SimBaseClass::IsExploding
PUBLIC	?IsDead@SimBaseClass@@UBEHXZ			; SimBaseClass::IsDead
PUBLIC	?IsAwake@SimBaseClass@@QBEHXZ			; SimBaseClass::IsAwake
PUBLIC	?GetCampaignObject@SimBaseClass@@QAEPAVCampBaseClass@@XZ ; SimBaseClass::GetCampaignObject
PUBLIC	?MakePlayerVehicle@SimBaseClass@@UAEXXZ		; SimBaseClass::MakePlayerVehicle
PUBLIC	?MakeNonPlayerVehicle@SimBaseClass@@UAEXXZ	; SimBaseClass::MakeNonPlayerVehicle
PUBLIC	?ConfigurePlayerAvionics@SimBaseClass@@UAEXXZ	; SimBaseClass::ConfigurePlayerAvionics
PUBLIC	?SetVuPosition@SimBaseClass@@UAEXXZ		; SimBaseClass::SetVuPosition
PUBLIC	?Regenerate@SimBaseClass@@UAEXMMMM@Z		; SimBaseClass::Regenerate
PUBLIC	?GetGame@FalconSessionEntity@@QAEPAVFalconGameEntity@@XZ ; FalconSessionEntity::GetGame
PUBLIC	?SetLead@SimMoverClass@@UAEXH@Z			; SimMoverClass::SetLead
PUBLIC	?WeaponKeepAlive@SimMoverClass@@UAEXXZ		; SimMoverClass::WeaponKeepAlive
PUBLIC	?SetSwitch@SimMoverClass@@QAEXHH@Z		; SimMoverClass::SetSwitch
PUBLIC	?IsMover@SimMoverClass@@UAEHXZ			; SimMoverClass::IsMover
PUBLIC	?IsDigital@AircraftClass@@QAEHXZ		; AircraftClass::IsDigital
PUBLIC	??0InvalidBufferException@@QAE@ABV?$basic_string@DU?$char_traits@D@std@@V?$allocator@D@2@@std@@@Z ; InvalidBufferException::InvalidBufferException
PUBLIC	??1InvalidBufferException@@UAE@XZ		; InvalidBufferException::~InvalidBufferException
PUBLIC	??0InvalidBufferException@@QAE@ABV0@@Z		; InvalidBufferException::InvalidBufferException
PUBLIC	??_GInvalidBufferException@@UAEPAXI@Z		; InvalidBufferException::`scalar deleting destructor'
PUBLIC	?memcpychk@@YAXPAXPAPAEIPAJ@Z			; memcpychk
PUBLIC	?GetPlayerEntity@SimulationDriver@@QBEPAVSimMoverClass@@XZ ; SimulationDriver::GetPlayerEntity
PUBLIC	?MotionOn@SimulationDriver@@QAEHXZ		; SimulationDriver::MotionOn
PUBLIC	??0?$Vector_3D@M@@QAE@XZ			; Vector_3D<float>::Vector_3D<float>
PUBLIC	??0?$Vector_3D@M@@QAE@MMM@Z			; Vector_3D<float>::Vector_3D<float>
PUBLIC	??0?$Vector_3D@M@@QAE@ABUTpoint@@@Z		; Vector_3D<float>::Vector_3D<float>
PUBLIC	??1?$Vector_3D@M@@QAE@XZ			; Vector_3D<float>::~Vector_3D<float>
PUBLIC	??4?$Vector_3D@M@@QAEAAV0@ABV0@@Z		; Vector_3D<float>::operator=
PUBLIC	??A?$Vector_3D@M@@QAEAAMH@Z			; Vector_3D<float>::operator[]
PUBLIC	??A?$Vector_3D@M@@QBEABMH@Z			; Vector_3D<float>::operator[]
PUBLIC	??Y?$Vector_3D@M@@QAEXABV0@@Z			; Vector_3D<float>::operator+=
PUBLIC	??Z?$Vector_3D@M@@QAEXABV0@@Z			; Vector_3D<float>::operator-=
PUBLIC	??X?$Vector_3D@M@@QAEXM@Z			; Vector_3D<float>::operator*=
PUBLIC	??_0?$Vector_3D@M@@QAEXM@Z			; Vector_3D<float>::operator/=
PUBLIC	?MagnitudeSquared@?$Vector_3D@M@@QBEMXZ		; Vector_3D<float>::MagnitudeSquared
PUBLIC	?Magnitude@?$Vector_3D@M@@QBEMXZ		; Vector_3D<float>::Magnitude
PUBLIC	?OOMagnitude@?$Vector_3D@M@@QBEMXZ		; Vector_3D<float>::OOMagnitude
PUBLIC	?Normalize@?$Vector_3D@M@@QAEXXZ		; Vector_3D<float>::Normalize
PUBLIC	?Invert@?$Vector_3D@M@@QAEXXZ			; Vector_3D<float>::Invert
PUBLIC	?GetTpoint@?$Vector_3D@M@@QBEXAAUTpoint@@@Z	; Vector_3D<float>::GetTpoint
PUBLIC	?GetTrotation@?$Vector_3D@M@@QBEXAAUTrotation@@@Z ; Vector_3D<float>::GetTrotation
PUBLIC	?Heading@?$Vector_3D@M@@QBEMXZ			; Vector_3D<float>::Heading
PUBLIC	??0EP_MODEL_DATA@@QAE@HHHABV?$Vector_3D@M@@@Z	; EP_MODEL_DATA::EP_MODEL_DATA
PUBLIC	??1EP_MODEL_DATA@@QAE@XZ			; EP_MODEL_DATA::~EP_MODEL_DATA
PUBLIC	??0EjectedPilotClass@@QAE@PAVAircraftClass@@HH@Z ; EjectedPilotClass::EjectedPilotClass
PUBLIC	??0EjectedPilotClass@@QAE@PAPAEPAJ@Z		; EjectedPilotClass::EjectedPilotClass
PUBLIC	??1EjectedPilotClass@@UAE@XZ			; EjectedPilotClass::~EjectedPilotClass
PUBLIC	?InitData@EjectedPilotClass@@UAEXXZ		; EjectedPilotClass::InitData
PUBLIC	?CleanupData@EjectedPilotClass@@UAEXXZ		; EjectedPilotClass::CleanupData
PUBLIC	?InitLocalData@EjectedPilotClass@@AAEXPAVAircraftClass@@HH@Z ; EjectedPilotClass::InitLocalData
PUBLIC	?CleanupLocalData@EjectedPilotClass@@AAEXXZ	; EjectedPilotClass::CleanupLocalData
PUBLIC	?Init@EjectedPilotClass@@UAEXPAVSimInitDataClass@@@Z ; EjectedPilotClass::Init
PUBLIC	?Exec@EjectedPilotClass@@UAEHXZ			; EjectedPilotClass::Exec
PUBLIC	?ApplyDamage@EjectedPilotClass@@UAEXPAVFalconDamageMessage@@@Z ; EjectedPilotClass::ApplyDamage
PUBLIC	?SetDead@EjectedPilotClass@@UAEXH@Z		; EjectedPilotClass::SetDead
PUBLIC	?Wake@EjectedPilotClass@@UAEHXZ			; EjectedPilotClass::Wake
PUBLIC	?Sleep@EjectedPilotClass@@UAEHXZ		; EjectedPilotClass::Sleep
PUBLIC	?IsEject@EjectedPilotClass@@UAEHXZ		; EjectedPilotClass::IsEject
PUBLIC	?Mass@EjectedPilotClass@@UAEMXZ			; EjectedPilotClass::Mass
PUBLIC	?SaveSize@EjectedPilotClass@@UAEHXZ		; EjectedPilotClass::SaveSize
PUBLIC	?Save@EjectedPilotClass@@UAEHPAPAE@Z		; EjectedPilotClass::Save
PUBLIC	?GetTransform@EjectedPilotClass@@UAEXQAY02M@Z	; EjectedPilotClass::GetTransform
PUBLIC	?GetFocusPoint@EjectedPilotClass@@UAEXAAM00@Z	; EjectedPilotClass::GetFocusPoint
PUBLIC	?ClassType@EjectedPilotClass@@SAHXZ		; EjectedPilotClass::ClassType
PUBLIC	?GetParentAircraft@EjectedPilotClass@@QAEPAVAircraftClass@@XZ ; EjectedPilotClass::GetParentAircraft
PUBLIC	?IsPlayerPilot@EjectedPilotClass@@QBEHXZ	; EjectedPilotClass::IsPlayerPilot
PUBLIC	?IsDigiPilot@EjectedPilotClass@@QBEHXZ		; EjectedPilotClass::IsDigiPilot
PUBLIC	?StageEndTime@EjectedPilotClass@@ABEMH@Z	; EjectedPilotClass::StageEndTime
PUBLIC	?StageEndTime@EjectedPilotClass@@ABEMXZ		; EjectedPilotClass::StageEndTime
PUBLIC	?DragFactor@EjectedPilotClass@@ABEMXZ		; EjectedPilotClass::DragFactor
PUBLIC	?Mass@EjectedPilotClass@@ABEMXZ			; EjectedPilotClass::Mass
PUBLIC	?EjectSpeed@EjectedPilotClass@@ABEMXZ		; EjectedPilotClass::EjectSpeed
PUBLIC	?SeatThrust@EjectedPilotClass@@ABEMXZ		; EjectedPilotClass::SeatThrust
PUBLIC	?EjectAngle@EjectedPilotClass@@ABEMXZ		; EjectedPilotClass::EjectAngle
PUBLIC	?StartPitch@EjectedPilotClass@@ABEMXZ		; EjectedPilotClass::StartPitch
PUBLIC	?PitchDecay@EjectedPilotClass@@ABEMXZ		; EjectedPilotClass::PitchDecay
PUBLIC	?YawSpeed@EjectedPilotClass@@ABEMXZ		; EjectedPilotClass::YawSpeed
PUBLIC	?SeatOffset@EjectedPilotClass@@ABE?AV?$Vector_3D@M@@XZ ; EjectedPilotClass::SeatOffset
PUBLIC	?ModelCreateTime@EjectedPilotClass@@ABEMH@Z	; EjectedPilotClass::ModelCreateTime
PUBLIC	?SetMode@EjectedPilotClass@@AAEXH@Z		; EjectedPilotClass::SetMode
PUBLIC	?AdvanceTime@EjectedPilotClass@@AAEXXZ		; EjectedPilotClass::AdvanceTime
PUBLIC	?SetStage@EjectedPilotClass@@AAEXH@Z		; EjectedPilotClass::SetStage
PUBLIC	?AdvanceStage@EjectedPilotClass@@AAEHXZ		; EjectedPilotClass::AdvanceStage
PUBLIC	?SetModel@EjectedPilotClass@@AAEXH@Z		; EjectedPilotClass::SetModel
PUBLIC	?InitJettisonCanopy@EjectedPilotClass@@AAEXXZ	; EjectedPilotClass::InitJettisonCanopy
PUBLIC	?InitEjectSeat@EjectedPilotClass@@AAEXXZ	; EjectedPilotClass::InitEjectSeat
PUBLIC	?InitFreeFallWithSeat@EjectedPilotClass@@AAEXXZ	; EjectedPilotClass::InitFreeFallWithSeat
PUBLIC	?InitChuteOpening@EjectedPilotClass@@AAEXXZ	; EjectedPilotClass::InitChuteOpening
PUBLIC	?InitFreeFallWithOpenChute@EjectedPilotClass@@AAEXXZ ; EjectedPilotClass::InitFreeFallWithOpenChute
PUBLIC	?InitFreeFallWithCollapsedChute@EjectedPilotClass@@AAEXXZ ; EjectedPilotClass::InitFreeFallWithCollapsedChute
PUBLIC	?InitSafeLanding@EjectedPilotClass@@AAEXXZ	; EjectedPilotClass::InitSafeLanding
PUBLIC	?InitCrashLanding@EjectedPilotClass@@AAEXXZ	; EjectedPilotClass::InitCrashLanding
PUBLIC	?RunJettisonCanopy@EjectedPilotClass@@AAEXXZ	; EjectedPilotClass::RunJettisonCanopy
PUBLIC	?RunEjectSeat@EjectedPilotClass@@AAEXXZ		; EjectedPilotClass::RunEjectSeat
PUBLIC	?RunFreeFallWithOpenChute@EjectedPilotClass@@AAEXXZ ; EjectedPilotClass::RunFreeFallWithOpenChute
PUBLIC	?RunFreeFall@EjectedPilotClass@@AAEXXZ		; EjectedPilotClass::RunFreeFall
PUBLIC	?RunCrashLanding@EjectedPilotClass@@AAEXXZ	; EjectedPilotClass::RunCrashLanding
PUBLIC	?RunSafeLanding@EjectedPilotClass@@AAEXXZ	; EjectedPilotClass::RunSafeLanding
PUBLIC	?CalculateAndSetPositionAndOrientationInCockpit@EjectedPilotClass@@AAEXXZ ; EjectedPilotClass::CalculateAndSetPositionAndOrientationInCockpit
PUBLIC	?CalculateThrustVector@EjectedPilotClass@@ABEXAAV?$Vector_3D@M@@@Z ; EjectedPilotClass::CalculateThrustVector
PUBLIC	?CalculateDragVector@EjectedPilotClass@@ABEXAAV?$Vector_3D@M@@@Z ; EjectedPilotClass::CalculateDragVector
PUBLIC	?CalculateGravityVector@EjectedPilotClass@@ABEXAAV?$Vector_3D@M@@@Z ; EjectedPilotClass::CalculateGravityVector
PUBLIC	?CalculateEjectionVector@EjectedPilotClass@@ABEXAAV?$Vector_3D@M@@@Z ; EjectedPilotClass::CalculateEjectionVector
PUBLIC	?FixOrientationRange@EjectedPilotClass@@AAEXXZ	; EjectedPilotClass::FixOrientationRange
PUBLIC	?ZeroPitchAndRoll@EjectedPilotClass@@AAEXXZ	; EjectedPilotClass::ZeroPitchAndRoll
PUBLIC	?HasHitGround@EjectedPilotClass@@ABEHXZ		; EjectedPilotClass::HasHitGround
PUBLIC	?HitGround@EjectedPilotClass@@AAEXXZ		; EjectedPilotClass::HitGround
PUBLIC	?SpewDebugData@EjectedPilotClass@@AAEXXZ	; EjectedPilotClass::SpewDebugData
PUBLIC	??_GEjectedPilotClass@@UAEPAXI@Z		; EjectedPilotClass::`scalar deleting destructor'
PUBLIC	?IsRecording@ACMIRecorder@@QAEHXZ		; ACMIRecorder::IsRecording
PUBLIC	??0SimVuDriver@@QAE@PAVVuEntity@@@Z		; SimVuDriver::SimVuDriver
PUBLIC	??1SimVuDriver@@UAE@XZ				; SimVuDriver::~SimVuDriver
PUBLIC	??_GSimVuDriver@@UAEPAXI@Z			; SimVuDriver::`scalar deleting destructor'
PUBLIC	?GetColor@TeamClass@@QAEHXZ			; TeamClass::GetColor
PUBLIC	?GenerateFastRandom@@YAJXZ			; GenerateFastRandom
PUBLIC	?PRANDFloat@@YAMXZ				; PRANDFloat
PUBLIC	??$construct@PADAAPAD@?$_Wrap_alloc@V?$allocator@D@std@@@std@@QAEXPAPADAAPAD@Z ; std::_Wrap_alloc<std::allocator<char> >::construct<char *,char * &>
PUBLIC	??$destroy@PAD@?$_Wrap_alloc@V?$allocator@D@std@@@std@@QAEXPAPAD@Z ; std::_Wrap_alloc<std::allocator<char> >::destroy<char *>
PUBLIC	??$addressof@D@std@@YAPADAAD@Z			; std::addressof<char>
PUBLIC	??$_Allocate@D@std@@YAPADIPAD@Z			; std::_Allocate<char>
PUBLIC	??$forward@AAPAD@std@@YAAAPADAAPAD@Z		; std::forward<char * &>
PUBLIC	??$construct@PADAAPAD@?$allocator_traits@V?$allocator@D@std@@@std@@SAXAAV?$allocator@D@1@PAPADAAPAD@Z ; std::allocator_traits<std::allocator<char> >::construct<char *,char * &>
PUBLIC	??$destroy@PAD@?$allocator_traits@V?$allocator@D@std@@@std@@SAXAAV?$allocator@D@1@PAPAD@Z ; std::allocator_traits<std::allocator<char> >::destroy<char *>
PUBLIC	??$construct@PADAAPAD@?$allocator@D@std@@QAEXPAPADAAPAD@Z ; std::allocator<char>::construct<char *,char * &>
PUBLIC	??$destroy@PAD@?$allocator@D@std@@QAEXPAPAD@Z	; std::allocator<char>::destroy<char *>
PUBLIC	??_7logic_error@std@@6B@			; std::logic_error::`vftable'
PUBLIC	??_7out_of_range@std@@6B@			; std::out_of_range::`vftable'
PUBLIC	??_R0?AVexception@std@@@8			; std::exception `RTTI Type Descriptor'
PUBLIC	__CT??_R0?AVexception@std@@@8??0exception@std@@QAE@ABV01@@Z12
PUBLIC	??_7error_category@std@@6B@			; std::error_category::`vftable'
PUBLIC	??_7_Generic_error_category@std@@6B@		; std::_Generic_error_category::`vftable'
PUBLIC	??_C@_07DCLBNMLN@generic?$AA@			; `string'
PUBLIC	??_C@_0O@BFJCFAAK@unknown?5error?$AA@		; `string'
PUBLIC	??_7_Iostream_error_category@std@@6B@		; std::_Iostream_error_category::`vftable'
PUBLIC	??_C@_08LLGCOLLL@iostream?$AA@			; `string'
PUBLIC	??_C@_0BG@PADBLCHM@iostream?5stream?5error?$AA@	; `string'
PUBLIC	??_7_System_error_category@std@@6B@		; std::_System_error_category::`vftable'
PUBLIC	??_C@_06FHFOAHML@system?$AA@			; `string'
PUBLIC	?_Generic_object@?$_Error_objects@H@std@@2V_Generic_error_category@2@A ; std::_Error_objects<int>::_Generic_object
PUBLIC	?_Iostream_object@?$_Error_objects@H@std@@2V_Iostream_error_category@2@A ; std::_Error_objects<int>::_Iostream_object
PUBLIC	?_System_object@?$_Error_objects@H@std@@2V_System_error_category@2@A ; std::_Error_objects<int>::_System_object
PUBLIC	?id@?$num_put@DV?$back_insert_iterator@V?$basic_string@DU?$char_traits@D@std@@V?$allocator@D@2@@std@@@std@@@std@@2V0locale@2@A ; std::num_put<char,std::back_insert_iterator<std::basic_string<char,std::char_traits<char>,std::allocator<char> > > >::id
PUBLIC	?id@?$num_put@_WV?$back_insert_iterator@V?$basic_string@_WU?$char_traits@_W@std@@V?$allocator@_W@2@@std@@@std@@@std@@2V0locale@2@A ; std::num_put<wchar_t,std::back_insert_iterator<std::basic_string<wchar_t,std::char_traits<wchar_t>,std::allocator<wchar_t> > > >::id
PUBLIC	??_7InvalidBufferException@@6B@			; InvalidBufferException::`vftable'
PUBLIC	??_C@_0CI@MPKJAHJH@Trying?5to?5write?5?$CFlu?5bytes?5to?5?$CFld@ ; `string'
PUBLIC	__TI4?AVInvalidBufferException@@
PUBLIC	__CTA4?AVInvalidBufferException@@
PUBLIC	??_R0?AVInvalidBufferException@@@8		; InvalidBufferException `RTTI Type Descriptor'
PUBLIC	__CT??_R0?AVInvalidBufferException@@@8??0InvalidBufferException@@QAE@ABV0@@Z12
PUBLIC	??_R0?AVout_of_range@std@@@8			; std::out_of_range `RTTI Type Descriptor'
PUBLIC	__CT??_R0?AVout_of_range@std@@@8??0out_of_range@std@@QAE@ABV01@@Z12
PUBLIC	??_R0?AVlogic_error@std@@@8			; std::logic_error `RTTI Type Descriptor'
PUBLIC	__CT??_R0?AVlogic_error@std@@@8??0logic_error@std@@QAE@ABV01@@Z12
PUBLIC	??_7EjectedPilotClass@@6B@			; EjectedPilotClass::`vftable'
PUBLIC	??_7SimVuDriver@@6B@				; SimVuDriver::`vftable'
PUBLIC	?LastRandom@?1??GenerateFastRandom@@YAJXZ@4JA	; `GenerateFastRandom'::`2'::LastRandom
PUBLIC	?F16ModelData@@3PAUEP_MODEL_DATA@@A		; F16ModelData
PUBLIC	??_C@_06EMKKHMIC@?5Pilot?$AA@			; `string'
PUBLIC	??_C@_07MIIPMLFO@?5Crew?$CFd?$AA@		; `string'
PUBLIC	??_C@_05KPLJDLMD@Pilot?$AA@			; `string'
PUBLIC	?id@?$numpunct@D@std@@2V0locale@2@A		; std::numpunct<char>::id
PUBLIC	?id@?$numpunct@_W@std@@2V0locale@2@A		; std::numpunct<wchar_t>::id
PUBLIC	??_C@_0BI@CFPLBAOH@invalid?5string?5position?$AA@ ; `string'
PUBLIC	??_C@_0BA@JFNIOLAK@string?5too?5long?$AA@	; `string'
PUBLIC	??_R1A@?0A@EA@exception@std@@8			; std::exception::`RTTI Base Class Descriptor at (0,-1,0,64)'
PUBLIC	??_R3exception@std@@8				; std::exception::`RTTI Class Hierarchy Descriptor'
PUBLIC	??_R2exception@std@@8				; std::exception::`RTTI Base Class Array'
PUBLIC	??_R4logic_error@std@@6B@			; std::logic_error::`RTTI Complete Object Locator'
PUBLIC	??_R3logic_error@std@@8				; std::logic_error::`RTTI Class Hierarchy Descriptor'
PUBLIC	??_R2logic_error@std@@8				; std::logic_error::`RTTI Base Class Array'
PUBLIC	??_R1A@?0A@EA@logic_error@std@@8		; std::logic_error::`RTTI Base Class Descriptor at (0,-1,0,64)'
PUBLIC	??_R4out_of_range@std@@6B@			; std::out_of_range::`RTTI Complete Object Locator'
PUBLIC	??_R3out_of_range@std@@8			; std::out_of_range::`RTTI Class Hierarchy Descriptor'
PUBLIC	??_R2out_of_range@std@@8			; std::out_of_range::`RTTI Base Class Array'
PUBLIC	??_R1A@?0A@EA@out_of_range@std@@8		; std::out_of_range::`RTTI Base Class Descriptor at (0,-1,0,64)'
PUBLIC	??_R4error_category@std@@6B@			; std::error_category::`RTTI Complete Object Locator'
PUBLIC	??_R0?AVerror_category@std@@@8			; std::error_category `RTTI Type Descriptor'
PUBLIC	??_R3error_category@std@@8			; std::error_category::`RTTI Class Hierarchy Descriptor'
PUBLIC	??_R2error_category@std@@8			; std::error_category::`RTTI Base Class Array'
PUBLIC	??_R1A@?0A@EA@error_category@std@@8		; std::error_category::`RTTI Base Class Descriptor at (0,-1,0,64)'
PUBLIC	??_R4_Generic_error_category@std@@6B@		; std::_Generic_error_category::`RTTI Complete Object Locator'
PUBLIC	??_R0?AV_Generic_error_category@std@@@8		; std::_Generic_error_category `RTTI Type Descriptor'
PUBLIC	??_R3_Generic_error_category@std@@8		; std::_Generic_error_category::`RTTI Class Hierarchy Descriptor'
PUBLIC	??_R2_Generic_error_category@std@@8		; std::_Generic_error_category::`RTTI Base Class Array'
PUBLIC	??_R1A@?0A@EA@_Generic_error_category@std@@8	; std::_Generic_error_category::`RTTI Base Class Descriptor at (0,-1,0,64)'
PUBLIC	??_R4_Iostream_error_category@std@@6B@		; std::_Iostream_error_category::`RTTI Complete Object Locator'
PUBLIC	??_R0?AV_Iostream_error_category@std@@@8	; std::_Iostream_error_category `RTTI Type Descriptor'
PUBLIC	??_R3_Iostream_error_category@std@@8		; std::_Iostream_error_category::`RTTI Class Hierarchy Descriptor'
PUBLIC	??_R2_Iostream_error_category@std@@8		; std::_Iostream_error_category::`RTTI Base Class Array'
PUBLIC	??_R1A@?0A@EA@_Iostream_error_category@std@@8	; std::_Iostream_error_category::`RTTI Base Class Descriptor at (0,-1,0,64)'
PUBLIC	??_R4_System_error_category@std@@6B@		; std::_System_error_category::`RTTI Complete Object Locator'
PUBLIC	??_R0?AV_System_error_category@std@@@8		; std::_System_error_category `RTTI Type Descriptor'
PUBLIC	??_R3_System_error_category@std@@8		; std::_System_error_category::`RTTI Class Hierarchy Descriptor'
PUBLIC	??_R2_System_error_category@std@@8		; std::_System_error_category::`RTTI Base Class Array'
PUBLIC	??_R1A@?0A@EA@_System_error_category@std@@8	; std::_System_error_category::`RTTI Base Class Descriptor at (0,-1,0,64)'
PUBLIC	??_R1A@?0A@EA@VuDeadReckon@@8			; VuDeadReckon::`RTTI Base Class Descriptor at (0,-1,0,64)'
PUBLIC	??_R0?AVVuDeadReckon@@@8			; VuDeadReckon `RTTI Type Descriptor'
PUBLIC	??_R3VuDeadReckon@@8				; VuDeadReckon::`RTTI Class Hierarchy Descriptor'
PUBLIC	??_R2VuDeadReckon@@8				; VuDeadReckon::`RTTI Base Class Array'
PUBLIC	??_R1A@?0A@EA@VuDriver@@8			; VuDriver::`RTTI Base Class Descriptor at (0,-1,0,64)'
PUBLIC	??_R0?AVVuDriver@@@8				; VuDriver `RTTI Type Descriptor'
PUBLIC	??_R3VuDriver@@8				; VuDriver::`RTTI Class Hierarchy Descriptor'
PUBLIC	??_R2VuDriver@@8				; VuDriver::`RTTI Base Class Array'
PUBLIC	??_R4EjectedPilotClass@@6B@			; EjectedPilotClass::`RTTI Complete Object Locator'
PUBLIC	??_R0?AVEjectedPilotClass@@@8			; EjectedPilotClass `RTTI Type Descriptor'
PUBLIC	??_R3EjectedPilotClass@@8			; EjectedPilotClass::`RTTI Class Hierarchy Descriptor'
PUBLIC	??_R2EjectedPilotClass@@8			; EjectedPilotClass::`RTTI Base Class Array'
PUBLIC	??_R1A@?0A@EA@EjectedPilotClass@@8		; EjectedPilotClass::`RTTI Base Class Descriptor at (0,-1,0,64)'
PUBLIC	??_R1A@?0A@EA@SimMoverClass@@8			; SimMoverClass::`RTTI Base Class Descriptor at (0,-1,0,64)'
PUBLIC	??_R0?AVSimMoverClass@@@8			; SimMoverClass `RTTI Type Descriptor'
PUBLIC	??_R3SimMoverClass@@8				; SimMoverClass::`RTTI Class Hierarchy Descriptor'
PUBLIC	??_R2SimMoverClass@@8				; SimMoverClass::`RTTI Base Class Array'
PUBLIC	??_R1A@?0A@EA@SimBaseClass@@8			; SimBaseClass::`RTTI Base Class Descriptor at (0,-1,0,64)'
PUBLIC	??_R0?AVSimBaseClass@@@8			; SimBaseClass `RTTI Type Descriptor'
PUBLIC	??_R3SimBaseClass@@8				; SimBaseClass::`RTTI Class Hierarchy Descriptor'
PUBLIC	??_R2SimBaseClass@@8				; SimBaseClass::`RTTI Base Class Array'
PUBLIC	??_R1A@?0A@EA@FalconEntity@@8			; FalconEntity::`RTTI Base Class Descriptor at (0,-1,0,64)'
PUBLIC	??_R0?AVFalconEntity@@@8			; FalconEntity `RTTI Type Descriptor'
PUBLIC	??_R3FalconEntity@@8				; FalconEntity::`RTTI Class Hierarchy Descriptor'
PUBLIC	??_R2FalconEntity@@8				; FalconEntity::`RTTI Base Class Array'
PUBLIC	??_R1A@?0A@EA@VuEntity@@8			; VuEntity::`RTTI Base Class Descriptor at (0,-1,0,64)'
PUBLIC	??_R0?AVVuEntity@@@8				; VuEntity `RTTI Type Descriptor'
PUBLIC	??_R3VuEntity@@8				; VuEntity::`RTTI Class Hierarchy Descriptor'
PUBLIC	??_R2VuEntity@@8				; VuEntity::`RTTI Base Class Array'
PUBLIC	??_R4InvalidBufferException@@6B@		; InvalidBufferException::`RTTI Complete Object Locator'
PUBLIC	??_R3InvalidBufferException@@8			; InvalidBufferException::`RTTI Class Hierarchy Descriptor'
PUBLIC	??_R2InvalidBufferException@@8			; InvalidBufferException::`RTTI Base Class Array'
PUBLIC	??_R1A@?0A@EA@InvalidBufferException@@8		; InvalidBufferException::`RTTI Base Class Descriptor at (0,-1,0,64)'
PUBLIC	??_R4SimVuDriver@@6B@				; SimVuDriver::`RTTI Complete Object Locator'
PUBLIC	??_R0?AVSimVuDriver@@@8				; SimVuDriver `RTTI Type Descriptor'
PUBLIC	??_R3SimVuDriver@@8				; SimVuDriver::`RTTI Class Hierarchy Descriptor'
PUBLIC	??_R2SimVuDriver@@8				; SimVuDriver::`RTTI Base Class Array'
PUBLIC	??_R1A@?0A@EA@SimVuDriver@@8			; SimVuDriver::`RTTI Base Class Descriptor at (0,-1,0,64)'
PUBLIC	??_R1A@?0A@EA@VuMaster@@8			; VuMaster::`RTTI Base Class Descriptor at (0,-1,0,64)'
PUBLIC	??_R0?AVVuMaster@@@8				; VuMaster `RTTI Type Descriptor'
PUBLIC	??_R3VuMaster@@8				; VuMaster::`RTTI Class Hierarchy Descriptor'
PUBLIC	??_R2VuMaster@@8				; VuMaster::`RTTI Base Class Array'
PUBLIC	__real@00000000
PUBLIC	__real@0000000000000000
PUBLIC	__real@3a83126f
PUBLIC	__real@3c8efa34
PUBLIC	__real@3f000000
PUBLIC	__real@3f060a92
PUBLIC	__real@3f800000
PUBLIC	__real@3fc00000
PUBLIC	__real@3ff921fb54442d18
PUBLIC	__real@40000000
PUBLIC	__real@400921fb54442d18
PUBLIC	__real@40400000
PUBLIC	__real@40a00000
PUBLIC	__real@40c90fdb
PUBLIC	__real@41200000
PUBLIC	__real@41400000
PUBLIC	__real@41500000
PUBLIC	__real@41a00000
PUBLIC	__real@41f00000
PUBLIC	__real@41f40000
PUBLIC	__real@41f80000
PUBLIC	__real@4200b53f
PUBLIC	__real@4200cccd
PUBLIC	__real@428c0000
PUBLIC	__real@42c80000
PUBLIC	__real@461c4000
PUBLIC	__real@477fff00
PUBLIC	__real@49742400
PUBLIC	__real@8000000000000000
PUBLIC	__real@bf800000
PUBLIC	__real@bff921fb54442d18
PUBLIC	__real@c0c90fdb
PUBLIC	__real@c61c4000
PUBLIC	__xmm@41f00000000000000000000000000000
PUBLIC	__xmm@80000000800000008000000080000000
EXTRN	??_M@YGXPAXIHP6EX0@Z@Z:PROC			; `eh vector destructor iterator'
EXTRN	__purecall:PROC
EXTRN	??2@YAPAXI@Z:PROC				; operator new
EXTRN	??3@YAXPAX@Z:PROC				; operator delete
EXTRN	_atexit:PROC
EXTRN	_atan:PROC
EXTRN	_cos:PROC
EXTRN	_sin:PROC
EXTRN	_rand:PROC
EXTRN	_memcpy:PROC
EXTRN	_strcpy:PROC
EXTRN	_strlen:PROC
EXTRN	_memmove:PROC
EXTRN	_strncat:PROC
EXTRN	_strncpy:PROC
EXTRN	_sprintf:PROC
EXTRN	??0exception@std@@QAE@ABQBD@Z:PROC		; std::exception::exception
EXTRN	??0exception@std@@QAE@ABV01@@Z:PROC		; std::exception::exception
EXTRN	??1exception@std@@UAE@XZ:PROC			; std::exception::~exception
EXTRN	?what@exception@std@@UBEPBDXZ:PROC		; std::exception::what
EXTRN	?_Xbad_alloc@std@@YAXXZ:PROC			; std::_Xbad_alloc
EXTRN	?_Xlength_error@std@@YAXPBD@Z:PROC		; std::_Xlength_error
EXTRN	?_Xout_of_range@std@@YAXPBD@Z:PROC		; std::_Xout_of_range
EXTRN	??_Elogic_error@std@@UAEPAXI@Z:PROC		; std::logic_error::`vector deleting destructor'
EXTRN	??_Eout_of_range@std@@UAEPAXI@Z:PROC		; std::out_of_range::`vector deleting destructor'
EXTRN	??_Eerror_category@std@@UAEPAXI@Z:PROC		; std::error_category::`vector deleting destructor'
EXTRN	?_Syserror_map@std@@YAPBDH@Z:PROC		; std::_Syserror_map
EXTRN	?_Winerror_map@std@@YAPBDH@Z:PROC		; std::_Winerror_map
EXTRN	??_E_Generic_error_category@std@@UAEPAXI@Z:PROC	; std::_Generic_error_category::`vector deleting destructor'
EXTRN	??_E_Iostream_error_category@std@@UAEPAXI@Z:PROC ; std::_Iostream_error_category::`vector deleting destructor'
EXTRN	??_E_System_error_category@std@@UAEPAXI@Z:PROC	; std::_System_error_category::`vector deleting destructor'
EXTRN	??0DrawableBSP@@QAE@HPBUTpoint@@PBUTrotation@@M@Z:PROC ; DrawableBSP::DrawableBSP
EXTRN	?SetSwitchMask@DrawableBSP@@QAEXHK@Z:PROC	; DrawableBSP::SetSwitchMask
EXTRN	??0DrawableGuys@@QAE@HPAUTpoint@@MHM@Z:PROC	; DrawableGuys::DrawableGuys
EXTRN	?SetPosition@VuEntity@@QAEXMMM@Z:PROC		; VuEntity::SetPosition
EXTRN	?SetDelta@VuEntity@@QAEXMMM@Z:PROC		; VuEntity::SetDelta
EXTRN	?IsLocal@VuEntity@@QBEEXZ:PROC			; VuEntity::IsLocal
EXTRN	?SetDriver@VuEntity@@QAEPAVVuDriver@@PAV2@@Z:PROC ; VuEntity::SetDriver
EXTRN	?CustomCollisionCheck@VuEntity@@UAEEPAV1@M@Z:PROC ; VuEntity::CustomCollisionCheck
EXTRN	?TerrainCollisionCheck@VuEntity@@UAEEXZ:PROC	; VuEntity::TerrainCollisionCheck
EXTRN	?IsTarget@VuEntity@@UAEEXZ:PROC			; VuEntity::IsTarget
EXTRN	?IsSession@VuEntity@@UAEEXZ:PROC		; VuEntity::IsSession
EXTRN	?IsGroup@VuEntity@@UAEEXZ:PROC			; VuEntity::IsGroup
EXTRN	?IsGame@VuEntity@@UAEEXZ:PROC			; VuEntity::IsGame
EXTRN	?IsCamera@VuEntity@@UBEEXZ:PROC			; VuEntity::IsCamera
EXTRN	?Handle@VuEntity@@UAEHPAVVuErrorMessage@@@Z:PROC ; VuEntity::Handle
EXTRN	?Handle@VuEntity@@UAEHPAVVuPushRequest@@@Z:PROC	; VuEntity::Handle
EXTRN	?Handle@VuEntity@@UAEHPAVVuPullRequest@@@Z:PROC	; VuEntity::Handle
EXTRN	?Handle@VuEntity@@UAEHPAVVuEvent@@@Z:PROC	; VuEntity::Handle
EXTRN	?Handle@VuEntity@@UAEHPAVVuEntityCollisionEvent@@@Z:PROC ; VuEntity::Handle
EXTRN	?Handle@VuEntity@@UAEHPAVVuSessionEvent@@@Z:PROC ; VuEntity::Handle
EXTRN	?Find@VuDatabase@@QBEPAVVuEntity@@VVU_ID@@@Z:PROC ; VuDatabase::Find
EXTRN	?ResetLastUpdateTime@VuDriver@@UAEXK@Z:PROC	; VuDriver::ResetLastUpdateTime
EXTRN	?ExecDR@VuDeadReckon@@UAEXK@Z:PROC		; VuDeadReckon::ExecDR
EXTRN	??0VuMaster@@QAE@PAVVuEntity@@@Z:PROC		; VuMaster::VuMaster
EXTRN	??1VuMaster@@UAE@XZ:PROC			; VuMaster::~VuMaster
EXTRN	?Exec@VuMaster@@UAEXK@Z:PROC			; VuMaster::Exec
EXTRN	?Game@VuSessionEntity@@QAEPAVVuGameEntity@@XZ:PROC ; VuSessionEntity::Game
EXTRN	?GetDomain@FalconEntity@@UAEEXZ:PROC		; FalconEntity::GetDomain
EXTRN	?GetRadarType@FalconEntity@@UAEHXZ:PROC		; FalconEntity::GetRadarType
EXTRN	?GetDamageModifiers@FalconEntity@@UAEPAEXZ:PROC	; FalconEntity::GetDamageModifiers
EXTRN	?FalconSendMessage@@YAXPAVVuMessage@@H@Z:PROC	; FalconSendMessage
EXTRN	?MatrixMult@@YAXPBUTrotation@@PBUTpoint@@PAU2@@Z:PROC ; MatrixMult
EXTRN	?UpdatePos@F4SoundPos@@QAEXPAVSimBaseClass@@@Z:PROC ; F4SoundPos::UpdatePos
EXTRN	?Sfx@F4SoundPos@@QAEXHHMM@Z:PROC		; F4SoundPos::Sfx
EXTRN	?GetTeam@SimBaseClass@@UAEEXZ:PROC		; SimBaseClass::GetTeam
EXTRN	?GetCampID@SimBaseClass@@UAEFXZ:PROC		; SimBaseClass::GetCampID
EXTRN	?GetMovementType@SimBaseClass@@UAE?AW4MoveType@@XZ:PROC ; SimBaseClass::GetMovementType
EXTRN	?SetExploding@SimBaseClass@@QAEXH@Z:PROC	; SimBaseClass::SetExploding
EXTRN	?IsSPJamming@SimBaseClass@@UAEHXZ:PROC		; SimBaseClass::IsSPJamming
EXTRN	?IsAreaJamming@SimBaseClass@@UAEHXZ:PROC	; SimBaseClass::IsAreaJamming
EXTRN	?HasSPJamming@SimBaseClass@@UAEHXZ:PROC		; SimBaseClass::HasSPJamming
EXTRN	?HasAreaJamming@SimBaseClass@@UAEHXZ:PROC	; SimBaseClass::HasAreaJamming
EXTRN	?SetFlag@SimBaseClass@@QAEXH@Z:PROC		; SimBaseClass::SetFlag
EXTRN	?SetCountry@SimBaseClass@@QAEXH@Z:PROC		; SimBaseClass::SetCountry
EXTRN	?SetPowerOutput@SimBaseClass@@QAEXM@Z:PROC	; SimBaseClass::SetPowerOutput
EXTRN	?ApplyDamage@SimBaseClass@@UAEXPAVFalconDamageMessage@@@Z:PROC ; SimBaseClass::ApplyDamage
EXTRN	?ApplyDeathMessage@SimBaseClass@@UAEXPAVFalconDeathMessage@@@Z:PROC ; SimBaseClass::ApplyDeathMessage
EXTRN	?GetGroundLevel@OTWDriverClass@@QAEMMMPAUTpoint@@@Z:PROC ; OTWDriverClass::GetGroundLevel
EXTRN	?InsertObject@OTWDriverClass@@QAEXPAVDrawableObject@@@Z:PROC ; OTWDriverClass::InsertObject
EXTRN	?RemoveObject@OTWDriverClass@@QAEXPAVDrawableObject@@H@Z:PROC ; OTWDriverClass::RemoveObject
EXTRN	?EndFlight@OTWDriverClass@@QAEXXZ:PROC		; OTWDriverClass::EndFlight
EXTRN	?StartEjectCam@OTWDriverClass@@QAEXPAVEjectedPilotClass@@H@Z:PROC ; OTWDriverClass::StartEjectCam
EXTRN	?GetP@SimMoverClass@@UAEMXZ:PROC		; SimMoverClass::GetP
EXTRN	?GetQ@SimMoverClass@@UAEMXZ:PROC		; SimMoverClass::GetQ
EXTRN	?GetR@SimMoverClass@@UAEMXZ:PROC		; SimMoverClass::GetR
EXTRN	?GetAlpha@SimMoverClass@@UAEMXZ:PROC		; SimMoverClass::GetAlpha
EXTRN	?GetBeta@SimMoverClass@@UAEMXZ:PROC		; SimMoverClass::GetBeta
EXTRN	?GetNx@SimMoverClass@@UAEMXZ:PROC		; SimMoverClass::GetNx
EXTRN	?GetNy@SimMoverClass@@UAEMXZ:PROC		; SimMoverClass::GetNy
EXTRN	?GetNz@SimMoverClass@@UAEMXZ:PROC		; SimMoverClass::GetNz
EXTRN	?GetGamma@SimMoverClass@@UAEMXZ:PROC		; SimMoverClass::GetGamma
EXTRN	?GetSigma@SimMoverClass@@UAEMXZ:PROC		; SimMoverClass::GetSigma
EXTRN	?GetMu@SimMoverClass@@UAEMXZ:PROC		; SimMoverClass::GetMu
EXTRN	?GetVt@SimMoverClass@@UBEMXZ:PROC		; SimMoverClass::GetVt
EXTRN	?GetKias@SimMoverClass@@UBEMXZ:PROC		; SimMoverClass::GetKias
EXTRN	??0SimMoverClass@@QAE@H@Z:PROC			; SimMoverClass::SimMoverClass
EXTRN	??0SimMoverClass@@QAE@PAPAEPAJ@Z:PROC		; SimMoverClass::SimMoverClass
EXTRN	??1SimMoverClass@@UAE@XZ:PROC			; SimMoverClass::~SimMoverClass
EXTRN	?InitData@SimMoverClass@@UAEXXZ:PROC		; SimMoverClass::InitData
EXTRN	?CleanupData@SimMoverClass@@UAEXXZ:PROC		; SimMoverClass::CleanupData
EXTRN	?Init@SimMoverClass@@UAEXPAVSimInitDataClass@@@Z:PROC ; SimMoverClass::Init
EXTRN	?Exec@SimMoverClass@@UAEHXZ:PROC		; SimMoverClass::Exec
EXTRN	?SetDead@SimMoverClass@@UAEXH@Z:PROC		; SimMoverClass::SetDead
EXTRN	?Sleep@SimMoverClass@@UAEHXZ:PROC		; SimMoverClass::Sleep
EXTRN	?Wake@SimMoverClass@@UAEHXZ:PROC		; SimMoverClass::Wake
EXTRN	?MakeLocal@SimMoverClass@@UAEXXZ:PROC		; SimMoverClass::MakeLocal
EXTRN	?MakeRemote@SimMoverClass@@UAEXXZ:PROC		; SimMoverClass::MakeRemote
EXTRN	?ChangeOwner@SimMoverClass@@UAEXVVU_ID@@@Z:PROC	; SimMoverClass::ChangeOwner
EXTRN	?SaveSize@SimMoverClass@@UAEHXZ:PROC		; SimMoverClass::SaveSize
EXTRN	?Save@SimMoverClass@@UAEHPAPAE@Z:PROC		; SimMoverClass::Save
EXTRN	?Save@SimMoverClass@@UAEHPAU_iobuf@@@Z:PROC	; SimMoverClass::Save
EXTRN	?Handle@SimMoverClass@@UAEHPAVVuFullUpdateEvent@@@Z:PROC ; SimMoverClass::Handle
EXTRN	?Handle@SimMoverClass@@UAEHPAVVuPositionUpdateEvent@@@Z:PROC ; SimMoverClass::Handle
EXTRN	?Handle@SimMoverClass@@UAEHPAVVuTransferEvent@@@Z:PROC ; SimMoverClass::Handle
EXTRN	?FeatureCollision@SimMoverClass@@UAEPAVSimBaseClass@@M@Z:PROC ; SimMoverClass::FeatureCollision
EXTRN	?CheckLOS@SimMoverClass@@UAEHPAVSimObjectType@@@Z:PROC ; SimMoverClass::CheckLOS
EXTRN	?CheckCompositeLOS@SimMoverClass@@UAEHPAVSimObjectType@@@Z:PROC ; SimMoverClass::CheckCompositeLOS
EXTRN	?InsertionCallback@SimMoverClass@@UAEHXZ:PROC	; SimMoverClass::InsertionCallback
EXTRN	?RemovalCallback@SimMoverClass@@UAEHXZ:PROC	; SimMoverClass::RemovalCallback
EXTRN	?GetClassID@@YAHEEEEEEEE@Z:PROC			; GetClassID
EXTRN	??_EInvalidBufferException@@UAEPAXI@Z:PROC	; InvalidBufferException::`vector deleting destructor'
EXTRN	??0FalconDeathMessage@@QAE@VVU_ID@@PAVVuTargetEntity@@E@Z:PROC ; FalconDeathMessage::FalconDeathMessage
EXTRN	?WindSpeedInFeetPerSecond@WeatherClass@@QAEMPBUTpoint@@@Z:PROC ; WeatherClass::WindSpeedInFeetPerSecond
EXTRN	??_EEjectedPilotClass@@UAEPAXI@Z:PROC		; EjectedPilotClass::`vector deleting destructor'
EXTRN	?Add@ACMI_Hash@@QAEJVVU_ID@@PADJ@Z:PROC		; ACMI_Hash::Add
EXTRN	?GenPositionRecord@ACMIRecorder@@QAEXPAUACMIGenPositionRecord@@@Z:PROC ; ACMIRecorder::GenPositionRecord
EXTRN	?SwitchRecord@ACMIRecorder@@QAEXPAUACMISwitchRecord@@@Z:PROC ; ACMIRecorder::SwitchRecord
EXTRN	?ExecModel@SimVuDriver@@UAEEK@Z:PROC		; SimVuDriver::ExecModel
EXTRN	?SendScore@SimVuDriver@@UAE?AU?$pair@W4SCORE@VuMaster@@M@std@@PBVVuSessionEntity@@K@Z:PROC ; SimVuDriver::SendScore
EXTRN	??_ESimVuDriver@@UAEPAXI@Z:PROC			; SimVuDriver::`vector deleting destructor'
EXTRN	??0FalconRadioChatterMessage@@QAE@VVU_ID@@PAVVuTargetEntity@@E@Z:PROC ; FalconRadioChatterMessage::FalconRadioChatterMessage
EXTRN	?SimToGrid@@YAFM@Z:PROC				; SimToGrid
EXTRN	?GetFlightLeadCallNumber@FlightClass@@QAEHXZ:PROC ; FlightClass::GetFlightLeadCallNumber
EXTRN	?GetFlightLeadVoiceID@FlightClass@@QAEEXZ:PROC	; FlightClass::GetFlightLeadVoiceID
EXTRN	?AnnounceTransfer@GameManagerClass@@QAEXPAVSimBaseClass@@0@Z:PROC ; GameManagerClass::AnnounceTransfer
EXTRN	?CalcTransformMatrix@@YAXPAVSimBaseClass@@@Z:PROC ; CalcTransformMatrix
EXTRN	@__security_check_cookie@4:PROC
EXTRN	__CxxThrowException@8:PROC
EXTRN	___CxxFrameHandler3:PROC
EXTRN	??_7type_info@@6B@:QWORD			; type_info::`vftable'
EXTRN	?vuDatabase@@3PAVVuDatabase@@A:DWORD		; vuDatabase
EXTRN	?vuLocalSessionEntity@@3V?$VuBin@VVuSessionEntity@@@@A:DWORD ; vuLocalSessionEntity
EXTRN	?SimLibMajorFrameTime@@3MA:DWORD		; SimLibMajorFrameTime
EXTRN	?SimLibElapsedTime@@3KA:DWORD			; SimLibElapsedTime
EXTRN	?SimLibFrameCount@@3IA:DWORD			; SimLibFrameCount
EXTRN	?OTWDriver@@3VOTWDriverClass@@A:BYTE		; OTWDriver
EXTRN	?SimDriver@@3VSimulationDriver@@A:BYTE		; SimDriver
EXTRN	?realWeather@@3PAVRealWeather@@A:DWORD		; realWeather
EXTRN	?gACMIRec@@3VACMIRecorder@@A:BYTE		; gACMIRec
EXTRN	?ACMIIDTable@@3PAVACMI_Hash@@A:DWORD		; ACMIIDTable
EXTRN	?GameManager@@3VGameManagerClass@@A:BYTE	; GameManager
EXTRN	?TeamInfo@@3PAPAVTeamClass@@A:BYTE		; TeamInfo
EXTRN	___security_cookie:DWORD
EXTRN	__fltused:DWORD
_BSS	SEGMENT
_piecewise_construct DB 01H DUP (?)
	ALIGN	4

_allocator_arg DB 01H DUP (?)
_BSS	ENDS
;	COMDAT ?_Generic_object@?$_Error_objects@H@std@@2V_Generic_error_category@2@A
_BSS	SEGMENT
?_Generic_object@?$_Error_objects@H@std@@2V_Generic_error_category@2@A DD 01H DUP (?) ; std::_Error_objects<int>::_Generic_object
_BSS	ENDS
;	COMDAT ?_Iostream_object@?$_Error_objects@H@std@@2V_Iostream_error_category@2@A
_BSS	SEGMENT
?_Iostream_object@?$_Error_objects@H@std@@2V_Iostream_error_category@2@A DD 01H DUP (?) ; std::_Error_objects<int>::_Iostream_object
_BSS	ENDS
;	COMDAT ?_System_object@?$_Error_objects@H@std@@2V_System_error_category@2@A
_BSS	SEGMENT
?_System_object@?$_Error_objects@H@std@@2V_System_error_category@2@A DD 01H DUP (?) ; std::_Error_objects<int>::_System_object
_BSS	ENDS
;	COMDAT ?id@?$num_put@DV?$back_insert_iterator@V?$basic_string@DU?$char_traits@D@std@@V?$allocator@D@2@@std@@@std@@@std@@2V0locale@2@A
_BSS	SEGMENT
?id@?$num_put@DV?$back_insert_iterator@V?$basic_string@DU?$char_traits@D@std@@V?$allocator@D@2@@std@@@std@@@std@@2V0locale@2@A DD 01H DUP (?) ; std::num_put<char,std::back_insert_iterator<std::basic_string<char,std::char_traits<char>,std::allocator<char> > > >::id
_BSS	ENDS
;	COMDAT ?id@?$num_put@_WV?$back_insert_iterator@V?$basic_string@_WU?$char_traits@_W@std@@V?$allocator@_W@2@@std@@@std@@@std@@2V0locale@2@A
_BSS	SEGMENT
?id@?$num_put@_WV?$back_insert_iterator@V?$basic_string@_WU?$char_traits@_W@std@@V?$allocator@_W@2@@std@@@std@@@std@@2V0locale@2@A DD 01H DUP (?) ; std::num_put<wchar_t,std::back_insert_iterator<std::basic_string<wchar_t,std::char_traits<wchar_t>,std::allocator<wchar_t> > > >::id
_BSS	ENDS
;	COMDAT ?LastRandom@?1??GenerateFastRandom@@YAJXZ@4JA
_BSS	SEGMENT
?LastRandom@?1??GenerateFastRandom@@YAJXZ@4JA DD 01H DUP (?) ; `GenerateFastRandom'::`2'::LastRandom
_BSS	ENDS
_BSS	SEGMENT
	ALIGN	4

?F16ModelData@@3PAUEP_MODEL_DATA@@A DB 078H DUP (?)	; F16ModelData
_BSS	ENDS
;	COMDAT ?id@?$numpunct@D@std@@2V0locale@2@A
_BSS	SEGMENT
?id@?$numpunct@D@std@@2V0locale@2@A DD 01H DUP (?)	; std::numpunct<char>::id
_BSS	ENDS
;	COMDAT ?id@?$numpunct@_W@std@@2V0locale@2@A
_BSS	SEGMENT
?id@?$numpunct@_W@std@@2V0locale@2@A DD 01H DUP (?)	; std::numpunct<wchar_t>::id
_BSS	ENDS
CRT$XCU	SEGMENT
_piecewise_construct$initializer$ DD FLAT:??__Epiecewise_construct@std@@YAXXZ
CRT$XCU	ENDS
;	COMDAT __xmm@80000000800000008000000080000000
CONST	SEGMENT
__xmm@80000000800000008000000080000000 DB 00H, 00H, 00H, 080H, 00H, 00H, 00H
	DB	080H, 00H, 00H, 00H, 080H, 00H, 00H, 00H, 080H
CONST	ENDS
;	COMDAT __xmm@41f00000000000000000000000000000
CONST	SEGMENT
__xmm@41f00000000000000000000000000000 DB 00H, 00H, 00H, 00H, 00H, 00H, 00H
	DB	00H, 00H, 00H, 00H, 00H, 00H, 00H, 0f0H, 'A'
CONST	ENDS
;	COMDAT __real@c61c4000
CONST	SEGMENT
__real@c61c4000 DD 0c61c4000r			; -10000
CONST	ENDS
;	COMDAT __real@c0c90fdb
CONST	SEGMENT
__real@c0c90fdb DD 0c0c90fdbr			; -6.28319
CONST	ENDS
;	COMDAT __real@bff921fb54442d18
CONST	SEGMENT
__real@bff921fb54442d18 DQ 0bff921fb54442d18r	; -1.5708
CONST	ENDS
;	COMDAT __real@bf800000
CONST	SEGMENT
__real@bf800000 DD 0bf800000r			; -1
CONST	ENDS
;	COMDAT __real@8000000000000000
CONST	SEGMENT
__real@8000000000000000 DQ 08000000000000000r	; -0
CONST	ENDS
;	COMDAT __real@49742400
CONST	SEGMENT
__real@49742400 DD 049742400r			; 1e+006
CONST	ENDS
;	COMDAT __real@477fff00
CONST	SEGMENT
__real@477fff00 DD 0477fff00r			; 65535
CONST	ENDS
;	COMDAT __real@461c4000
CONST	SEGMENT
__real@461c4000 DD 0461c4000r			; 10000
CONST	ENDS
;	COMDAT __real@42c80000
CONST	SEGMENT
__real@42c80000 DD 042c80000r			; 100
CONST	ENDS
;	COMDAT __real@428c0000
CONST	SEGMENT
__real@428c0000 DD 0428c0000r			; 70
CONST	ENDS
;	COMDAT __real@4200cccd
CONST	SEGMENT
__real@4200cccd DD 04200cccdr			; 32.2
CONST	ENDS
;	COMDAT __real@4200b53f
CONST	SEGMENT
__real@4200b53f DD 04200b53fr			; 32.177
CONST	ENDS
;	COMDAT __real@41f80000
CONST	SEGMENT
__real@41f80000 DD 041f80000r			; 31
CONST	ENDS
;	COMDAT __real@41f40000
CONST	SEGMENT
__real@41f40000 DD 041f40000r			; 30.5
CONST	ENDS
;	COMDAT __real@41f00000
CONST	SEGMENT
__real@41f00000 DD 041f00000r			; 30
CONST	ENDS
;	COMDAT __real@41a00000
CONST	SEGMENT
__real@41a00000 DD 041a00000r			; 20
CONST	ENDS
;	COMDAT __real@41500000
CONST	SEGMENT
__real@41500000 DD 041500000r			; 13
CONST	ENDS
;	COMDAT __real@41400000
CONST	SEGMENT
__real@41400000 DD 041400000r			; 12
CONST	ENDS
;	COMDAT __real@41200000
CONST	SEGMENT
__real@41200000 DD 041200000r			; 10
CONST	ENDS
;	COMDAT __real@40c90fdb
CONST	SEGMENT
__real@40c90fdb DD 040c90fdbr			; 6.28319
CONST	ENDS
;	COMDAT __real@40a00000
CONST	SEGMENT
__real@40a00000 DD 040a00000r			; 5
CONST	ENDS
;	COMDAT __real@40400000
CONST	SEGMENT
__real@40400000 DD 040400000r			; 3
CONST	ENDS
;	COMDAT __real@400921fb54442d18
CONST	SEGMENT
__real@400921fb54442d18 DQ 0400921fb54442d18r	; 3.14159
CONST	ENDS
;	COMDAT __real@40000000
CONST	SEGMENT
__real@40000000 DD 040000000r			; 2
CONST	ENDS
;	COMDAT __real@3ff921fb54442d18
CONST	SEGMENT
__real@3ff921fb54442d18 DQ 03ff921fb54442d18r	; 1.5708
CONST	ENDS
;	COMDAT __real@3fc00000
CONST	SEGMENT
__real@3fc00000 DD 03fc00000r			; 1.5
CONST	ENDS
;	COMDAT __real@3f800000
CONST	SEGMENT
__real@3f800000 DD 03f800000r			; 1
CONST	ENDS
;	COMDAT __real@3f060a92
CONST	SEGMENT
__real@3f060a92 DD 03f060a92r			; 0.523599
CONST	ENDS
;	COMDAT __real@3f000000
CONST	SEGMENT
__real@3f000000 DD 03f000000r			; 0.5
CONST	ENDS
;	COMDAT __real@3c8efa34
CONST	SEGMENT
__real@3c8efa34 DD 03c8efa34r			; 0.0174533
CONST	ENDS
;	COMDAT __real@3a83126f
CONST	SEGMENT
__real@3a83126f DD 03a83126fr			; 0.001
CONST	ENDS
;	COMDAT __real@0000000000000000
CONST	SEGMENT
__real@0000000000000000 DQ 00000000000000000r	; 0
CONST	ENDS
;	COMDAT __real@00000000
CONST	SEGMENT
__real@00000000 DD 000000000r			; 0
CONST	ENDS
;	COMDAT ??_R2VuMaster@@8
rdata$r	SEGMENT
??_R2VuMaster@@8 DD FLAT:??_R1A@?0A@EA@VuMaster@@8	; VuMaster::`RTTI Base Class Array'
	DD	FLAT:??_R1A@?0A@EA@VuDeadReckon@@8
	DD	FLAT:??_R1A@?0A@EA@VuDriver@@8
rdata$r	ENDS
;	COMDAT ??_R3VuMaster@@8
rdata$r	SEGMENT
??_R3VuMaster@@8 DD 00H					; VuMaster::`RTTI Class Hierarchy Descriptor'
	DD	00H
	DD	03H
	DD	FLAT:??_R2VuMaster@@8
rdata$r	ENDS
;	COMDAT ??_R0?AVVuMaster@@@8
_DATA	SEGMENT
??_R0?AVVuMaster@@@8 DD FLAT:??_7type_info@@6B@		; VuMaster `RTTI Type Descriptor'
	DD	00H
	DB	'.?AVVuMaster@@', 00H
_DATA	ENDS
;	COMDAT ??_R1A@?0A@EA@VuMaster@@8
rdata$r	SEGMENT
??_R1A@?0A@EA@VuMaster@@8 DD FLAT:??_R0?AVVuMaster@@@8	; VuMaster::`RTTI Base Class Descriptor at (0,-1,0,64)'
	DD	02H
	DD	00H
	DD	0ffffffffH
	DD	00H
	DD	040H
	DD	FLAT:??_R3VuMaster@@8
rdata$r	ENDS
;	COMDAT ??_R1A@?0A@EA@SimVuDriver@@8
rdata$r	SEGMENT
??_R1A@?0A@EA@SimVuDriver@@8 DD FLAT:??_R0?AVSimVuDriver@@@8 ; SimVuDriver::`RTTI Base Class Descriptor at (0,-1,0,64)'
	DD	03H
	DD	00H
	DD	0ffffffffH
	DD	00H
	DD	040H
	DD	FLAT:??_R3SimVuDriver@@8
rdata$r	ENDS
;	COMDAT ??_R2SimVuDriver@@8
rdata$r	SEGMENT
??_R2SimVuDriver@@8 DD FLAT:??_R1A@?0A@EA@SimVuDriver@@8 ; SimVuDriver::`RTTI Base Class Array'
	DD	FLAT:??_R1A@?0A@EA@VuMaster@@8
	DD	FLAT:??_R1A@?0A@EA@VuDeadReckon@@8
	DD	FLAT:??_R1A@?0A@EA@VuDriver@@8
rdata$r	ENDS
;	COMDAT ??_R3SimVuDriver@@8
rdata$r	SEGMENT
??_R3SimVuDriver@@8 DD 00H				; SimVuDriver::`RTTI Class Hierarchy Descriptor'
	DD	00H
	DD	04H
	DD	FLAT:??_R2SimVuDriver@@8
rdata$r	ENDS
;	COMDAT ??_R0?AVSimVuDriver@@@8
_DATA	SEGMENT
??_R0?AVSimVuDriver@@@8 DD FLAT:??_7type_info@@6B@	; SimVuDriver `RTTI Type Descriptor'
	DD	00H
	DB	'.?AVSimVuDriver@@', 00H
_DATA	ENDS
;	COMDAT ??_R4SimVuDriver@@6B@
rdata$r	SEGMENT
??_R4SimVuDriver@@6B@ DD 00H				; SimVuDriver::`RTTI Complete Object Locator'
	DD	00H
	DD	00H
	DD	FLAT:??_R0?AVSimVuDriver@@@8
	DD	FLAT:??_R3SimVuDriver@@8
rdata$r	ENDS
;	COMDAT ??_R1A@?0A@EA@InvalidBufferException@@8
rdata$r	SEGMENT
??_R1A@?0A@EA@InvalidBufferException@@8 DD FLAT:??_R0?AVInvalidBufferException@@@8 ; InvalidBufferException::`RTTI Base Class Descriptor at (0,-1,0,64)'
	DD	03H
	DD	00H
	DD	0ffffffffH
	DD	00H
	DD	040H
	DD	FLAT:??_R3InvalidBufferException@@8
rdata$r	ENDS
;	COMDAT ??_R2InvalidBufferException@@8
rdata$r	SEGMENT
??_R2InvalidBufferException@@8 DD FLAT:??_R1A@?0A@EA@InvalidBufferException@@8 ; InvalidBufferException::`RTTI Base Class Array'
	DD	FLAT:??_R1A@?0A@EA@out_of_range@std@@8
	DD	FLAT:??_R1A@?0A@EA@logic_error@std@@8
	DD	FLAT:??_R1A@?0A@EA@exception@std@@8
rdata$r	ENDS
;	COMDAT ??_R3InvalidBufferException@@8
rdata$r	SEGMENT
??_R3InvalidBufferException@@8 DD 00H			; InvalidBufferException::`RTTI Class Hierarchy Descriptor'
	DD	00H
	DD	04H
	DD	FLAT:??_R2InvalidBufferException@@8
rdata$r	ENDS
;	COMDAT ??_R4InvalidBufferException@@6B@
rdata$r	SEGMENT
??_R4InvalidBufferException@@6B@ DD 00H			; InvalidBufferException::`RTTI Complete Object Locator'
	DD	00H
	DD	00H
	DD	FLAT:??_R0?AVInvalidBufferException@@@8
	DD	FLAT:??_R3InvalidBufferException@@8
rdata$r	ENDS
;	COMDAT ??_R2VuEntity@@8
rdata$r	SEGMENT
??_R2VuEntity@@8 DD FLAT:??_R1A@?0A@EA@VuEntity@@8	; VuEntity::`RTTI Base Class Array'
rdata$r	ENDS
;	COMDAT ??_R3VuEntity@@8
rdata$r	SEGMENT
??_R3VuEntity@@8 DD 00H					; VuEntity::`RTTI Class Hierarchy Descriptor'
	DD	00H
	DD	01H
	DD	FLAT:??_R2VuEntity@@8
rdata$r	ENDS
;	COMDAT ??_R0?AVVuEntity@@@8
_DATA	SEGMENT
??_R0?AVVuEntity@@@8 DD FLAT:??_7type_info@@6B@		; VuEntity `RTTI Type Descriptor'
	DD	00H
	DB	'.?AVVuEntity@@', 00H
_DATA	ENDS
;	COMDAT ??_R1A@?0A@EA@VuEntity@@8
rdata$r	SEGMENT
??_R1A@?0A@EA@VuEntity@@8 DD FLAT:??_R0?AVVuEntity@@@8	; VuEntity::`RTTI Base Class Descriptor at (0,-1,0,64)'
	DD	00H
	DD	00H
	DD	0ffffffffH
	DD	00H
	DD	040H
	DD	FLAT:??_R3VuEntity@@8
rdata$r	ENDS
;	COMDAT ??_R2FalconEntity@@8
rdata$r	SEGMENT
??_R2FalconEntity@@8 DD FLAT:??_R1A@?0A@EA@FalconEntity@@8 ; FalconEntity::`RTTI Base Class Array'
	DD	FLAT:??_R1A@?0A@EA@VuEntity@@8
rdata$r	ENDS
;	COMDAT ??_R3FalconEntity@@8
rdata$r	SEGMENT
??_R3FalconEntity@@8 DD 00H				; FalconEntity::`RTTI Class Hierarchy Descriptor'
	DD	00H
	DD	02H
	DD	FLAT:??_R2FalconEntity@@8
rdata$r	ENDS
;	COMDAT ??_R0?AVFalconEntity@@@8
_DATA	SEGMENT
??_R0?AVFalconEntity@@@8 DD FLAT:??_7type_info@@6B@	; FalconEntity `RTTI Type Descriptor'
	DD	00H
	DB	'.?AVFalconEntity@@', 00H
_DATA	ENDS
;	COMDAT ??_R1A@?0A@EA@FalconEntity@@8
rdata$r	SEGMENT
??_R1A@?0A@EA@FalconEntity@@8 DD FLAT:??_R0?AVFalconEntity@@@8 ; FalconEntity::`RTTI Base Class Descriptor at (0,-1,0,64)'
	DD	01H
	DD	00H
	DD	0ffffffffH
	DD	00H
	DD	040H
	DD	FLAT:??_R3FalconEntity@@8
rdata$r	ENDS
;	COMDAT ??_R2SimBaseClass@@8
rdata$r	SEGMENT
??_R2SimBaseClass@@8 DD FLAT:??_R1A@?0A@EA@SimBaseClass@@8 ; SimBaseClass::`RTTI Base Class Array'
	DD	FLAT:??_R1A@?0A@EA@FalconEntity@@8
	DD	FLAT:??_R1A@?0A@EA@VuEntity@@8
rdata$r	ENDS
;	COMDAT ??_R3SimBaseClass@@8
rdata$r	SEGMENT
??_R3SimBaseClass@@8 DD 00H				; SimBaseClass::`RTTI Class Hierarchy Descriptor'
	DD	00H
	DD	03H
	DD	FLAT:??_R2SimBaseClass@@8
rdata$r	ENDS
;	COMDAT ??_R0?AVSimBaseClass@@@8
_DATA	SEGMENT
??_R0?AVSimBaseClass@@@8 DD FLAT:??_7type_info@@6B@	; SimBaseClass `RTTI Type Descriptor'
	DD	00H
	DB	'.?AVSimBaseClass@@', 00H
_DATA	ENDS
;	COMDAT ??_R1A@?0A@EA@SimBaseClass@@8
rdata$r	SEGMENT
??_R1A@?0A@EA@SimBaseClass@@8 DD FLAT:??_R0?AVSimBaseClass@@@8 ; SimBaseClass::`RTTI Base Class Descriptor at (0,-1,0,64)'
	DD	02H
	DD	00H
	DD	0ffffffffH
	DD	00H
	DD	040H
	DD	FLAT:??_R3SimBaseClass@@8
rdata$r	ENDS
;	COMDAT ??_R2SimMoverClass@@8
rdata$r	SEGMENT
??_R2SimMoverClass@@8 DD FLAT:??_R1A@?0A@EA@SimMoverClass@@8 ; SimMoverClass::`RTTI Base Class Array'
	DD	FLAT:??_R1A@?0A@EA@SimBaseClass@@8
	DD	FLAT:??_R1A@?0A@EA@FalconEntity@@8
	DD	FLAT:??_R1A@?0A@EA@VuEntity@@8
rdata$r	ENDS
;	COMDAT ??_R3SimMoverClass@@8
rdata$r	SEGMENT
??_R3SimMoverClass@@8 DD 00H				; SimMoverClass::`RTTI Class Hierarchy Descriptor'
	DD	00H
	DD	04H
	DD	FLAT:??_R2SimMoverClass@@8
rdata$r	ENDS
;	COMDAT ??_R0?AVSimMoverClass@@@8
_DATA	SEGMENT
??_R0?AVSimMoverClass@@@8 DD FLAT:??_7type_info@@6B@	; SimMoverClass `RTTI Type Descriptor'
	DD	00H
	DB	'.?AVSimMoverClass@@', 00H
_DATA	ENDS
;	COMDAT ??_R1A@?0A@EA@SimMoverClass@@8
rdata$r	SEGMENT
??_R1A@?0A@EA@SimMoverClass@@8 DD FLAT:??_R0?AVSimMoverClass@@@8 ; SimMoverClass::`RTTI Base Class Descriptor at (0,-1,0,64)'
	DD	03H
	DD	00H
	DD	0ffffffffH
	DD	00H
	DD	040H
	DD	FLAT:??_R3SimMoverClass@@8
rdata$r	ENDS
;	COMDAT ??_R1A@?0A@EA@EjectedPilotClass@@8
rdata$r	SEGMENT
??_R1A@?0A@EA@EjectedPilotClass@@8 DD FLAT:??_R0?AVEjectedPilotClass@@@8 ; EjectedPilotClass::`RTTI Base Class Descriptor at (0,-1,0,64)'
	DD	04H
	DD	00H
	DD	0ffffffffH
	DD	00H
	DD	040H
	DD	FLAT:??_R3EjectedPilotClass@@8
rdata$r	ENDS
;	COMDAT ??_R2EjectedPilotClass@@8
rdata$r	SEGMENT
??_R2EjectedPilotClass@@8 DD FLAT:??_R1A@?0A@EA@EjectedPilotClass@@8 ; EjectedPilotClass::`RTTI Base Class Array'
	DD	FLAT:??_R1A@?0A@EA@SimMoverClass@@8
	DD	FLAT:??_R1A@?0A@EA@SimBaseClass@@8
	DD	FLAT:??_R1A@?0A@EA@FalconEntity@@8
	DD	FLAT:??_R1A@?0A@EA@VuEntity@@8
rdata$r	ENDS
;	COMDAT ??_R3EjectedPilotClass@@8
rdata$r	SEGMENT
??_R3EjectedPilotClass@@8 DD 00H			; EjectedPilotClass::`RTTI Class Hierarchy Descriptor'
	DD	00H
	DD	05H
	DD	FLAT:??_R2EjectedPilotClass@@8
rdata$r	ENDS
;	COMDAT ??_R0?AVEjectedPilotClass@@@8
_DATA	SEGMENT
??_R0?AVEjectedPilotClass@@@8 DD FLAT:??_7type_info@@6B@ ; EjectedPilotClass `RTTI Type Descriptor'
	DD	00H
	DB	'.?AVEjectedPilotClass@@', 00H
_DATA	ENDS
;	COMDAT ??_R4EjectedPilotClass@@6B@
rdata$r	SEGMENT
??_R4EjectedPilotClass@@6B@ DD 00H			; EjectedPilotClass::`RTTI Complete Object Locator'
	DD	00H
	DD	00H
	DD	FLAT:??_R0?AVEjectedPilotClass@@@8
	DD	FLAT:??_R3EjectedPilotClass@@8
rdata$r	ENDS
;	COMDAT ??_R2VuDriver@@8
rdata$r	SEGMENT
??_R2VuDriver@@8 DD FLAT:??_R1A@?0A@EA@VuDriver@@8	; VuDriver::`RTTI Base Class Array'
rdata$r	ENDS
;	COMDAT ??_R3VuDriver@@8
rdata$r	SEGMENT
??_R3VuDriver@@8 DD 00H					; VuDriver::`RTTI Class Hierarchy Descriptor'
	DD	00H
	DD	01H
	DD	FLAT:??_R2VuDriver@@8
rdata$r	ENDS
;	COMDAT ??_R0?AVVuDriver@@@8
_DATA	SEGMENT
??_R0?AVVuDriver@@@8 DD FLAT:??_7type_info@@6B@		; VuDriver `RTTI Type Descriptor'
	DD	00H
	DB	'.?AVVuDriver@@', 00H
_DATA	ENDS
;	COMDAT ??_R1A@?0A@EA@VuDriver@@8
rdata$r	SEGMENT
??_R1A@?0A@EA@VuDriver@@8 DD FLAT:??_R0?AVVuDriver@@@8	; VuDriver::`RTTI Base Class Descriptor at (0,-1,0,64)'
	DD	00H
	DD	00H
	DD	0ffffffffH
	DD	00H
	DD	040H
	DD	FLAT:??_R3VuDriver@@8
rdata$r	ENDS
;	COMDAT ??_R2VuDeadReckon@@8
rdata$r	SEGMENT
??_R2VuDeadReckon@@8 DD FLAT:??_R1A@?0A@EA@VuDeadReckon@@8 ; VuDeadReckon::`RTTI Base Class Array'
	DD	FLAT:??_R1A@?0A@EA@VuDriver@@8
rdata$r	ENDS
;	COMDAT ??_R3VuDeadReckon@@8
rdata$r	SEGMENT
??_R3VuDeadReckon@@8 DD 00H				; VuDeadReckon::`RTTI Class Hierarchy Descriptor'
	DD	00H
	DD	02H
	DD	FLAT:??_R2VuDeadReckon@@8
rdata$r	ENDS
;	COMDAT ??_R0?AVVuDeadReckon@@@8
_DATA	SEGMENT
??_R0?AVVuDeadReckon@@@8 DD FLAT:??_7type_info@@6B@	; VuDeadReckon `RTTI Type Descriptor'
	DD	00H
	DB	'.?AVVuDeadReckon@@', 00H
_DATA	ENDS
;	COMDAT ??_R1A@?0A@EA@VuDeadReckon@@8
rdata$r	SEGMENT
??_R1A@?0A@EA@VuDeadReckon@@8 DD FLAT:??_R0?AVVuDeadReckon@@@8 ; VuDeadReckon::`RTTI Base Class Descriptor at (0,-1,0,64)'
	DD	01H
	DD	00H
	DD	0ffffffffH
	DD	00H
	DD	040H
	DD	FLAT:??_R3VuDeadReckon@@8
rdata$r	ENDS
;	COMDAT ??_R1A@?0A@EA@_System_error_category@std@@8
rdata$r	SEGMENT
??_R1A@?0A@EA@_System_error_category@std@@8 DD FLAT:??_R0?AV_System_error_category@std@@@8 ; std::_System_error_category::`RTTI Base Class Descriptor at (0,-1,0,64)'
	DD	02H
	DD	00H
	DD	0ffffffffH
	DD	00H
	DD	040H
	DD	FLAT:??_R3_System_error_category@std@@8
rdata$r	ENDS
;	COMDAT ??_R2_System_error_category@std@@8
rdata$r	SEGMENT
??_R2_System_error_category@std@@8 DD FLAT:??_R1A@?0A@EA@_System_error_category@std@@8 ; std::_System_error_category::`RTTI Base Class Array'
	DD	FLAT:??_R1A@?0A@EA@_Generic_error_category@std@@8
	DD	FLAT:??_R1A@?0A@EA@error_category@std@@8
rdata$r	ENDS
;	COMDAT ??_R3_System_error_category@std@@8
rdata$r	SEGMENT
??_R3_System_error_category@std@@8 DD 00H		; std::_System_error_category::`RTTI Class Hierarchy Descriptor'
	DD	00H
	DD	03H
	DD	FLAT:??_R2_System_error_category@std@@8
rdata$r	ENDS
;	COMDAT ??_R0?AV_System_error_category@std@@@8
_DATA	SEGMENT
??_R0?AV_System_error_category@std@@@8 DD FLAT:??_7type_info@@6B@ ; std::_System_error_category `RTTI Type Descriptor'
	DD	00H
	DB	'.?AV_System_error_category@std@@', 00H
_DATA	ENDS
;	COMDAT ??_R4_System_error_category@std@@6B@
rdata$r	SEGMENT
??_R4_System_error_category@std@@6B@ DD 00H		; std::_System_error_category::`RTTI Complete Object Locator'
	DD	00H
	DD	00H
	DD	FLAT:??_R0?AV_System_error_category@std@@@8
	DD	FLAT:??_R3_System_error_category@std@@8
rdata$r	ENDS
;	COMDAT ??_R1A@?0A@EA@_Iostream_error_category@std@@8
rdata$r	SEGMENT
??_R1A@?0A@EA@_Iostream_error_category@std@@8 DD FLAT:??_R0?AV_Iostream_error_category@std@@@8 ; std::_Iostream_error_category::`RTTI Base Class Descriptor at (0,-1,0,64)'
	DD	02H
	DD	00H
	DD	0ffffffffH
	DD	00H
	DD	040H
	DD	FLAT:??_R3_Iostream_error_category@std@@8
rdata$r	ENDS
;	COMDAT ??_R2_Iostream_error_category@std@@8
rdata$r	SEGMENT
??_R2_Iostream_error_category@std@@8 DD FLAT:??_R1A@?0A@EA@_Iostream_error_category@std@@8 ; std::_Iostream_error_category::`RTTI Base Class Array'
	DD	FLAT:??_R1A@?0A@EA@_Generic_error_category@std@@8
	DD	FLAT:??_R1A@?0A@EA@error_category@std@@8
rdata$r	ENDS
;	COMDAT ??_R3_Iostream_error_category@std@@8
rdata$r	SEGMENT
??_R3_Iostream_error_category@std@@8 DD 00H		; std::_Iostream_error_category::`RTTI Class Hierarchy Descriptor'
	DD	00H
	DD	03H
	DD	FLAT:??_R2_Iostream_error_category@std@@8
rdata$r	ENDS
;	COMDAT ??_R0?AV_Iostream_error_category@std@@@8
_DATA	SEGMENT
??_R0?AV_Iostream_error_category@std@@@8 DD FLAT:??_7type_info@@6B@ ; std::_Iostream_error_category `RTTI Type Descriptor'
	DD	00H
	DB	'.?AV_Iostream_error_category@std@@', 00H
_DATA	ENDS
;	COMDAT ??_R4_Iostream_error_category@std@@6B@
rdata$r	SEGMENT
??_R4_Iostream_error_category@std@@6B@ DD 00H		; std::_Iostream_error_category::`RTTI Complete Object Locator'
	DD	00H
	DD	00H
	DD	FLAT:??_R0?AV_Iostream_error_category@std@@@8
	DD	FLAT:??_R3_Iostream_error_category@std@@8
rdata$r	ENDS
;	COMDAT ??_R1A@?0A@EA@_Generic_error_category@std@@8
rdata$r	SEGMENT
??_R1A@?0A@EA@_Generic_error_category@std@@8 DD FLAT:??_R0?AV_Generic_error_category@std@@@8 ; std::_Generic_error_category::`RTTI Base Class Descriptor at (0,-1,0,64)'
	DD	01H
	DD	00H
	DD	0ffffffffH
	DD	00H
	DD	040H
	DD	FLAT:??_R3_Generic_error_category@std@@8
rdata$r	ENDS
;	COMDAT ??_R2_Generic_error_category@std@@8
rdata$r	SEGMENT
??_R2_Generic_error_category@std@@8 DD FLAT:??_R1A@?0A@EA@_Generic_error_category@std@@8 ; std::_Generic_error_category::`RTTI Base Class Array'
	DD	FLAT:??_R1A@?0A@EA@error_category@std@@8
rdata$r	ENDS
;	COMDAT ??_R3_Generic_error_category@std@@8
rdata$r	SEGMENT
??_R3_Generic_error_category@std@@8 DD 00H		; std::_Generic_error_category::`RTTI Class Hierarchy Descriptor'
	DD	00H
	DD	02H
	DD	FLAT:??_R2_Generic_error_category@std@@8
rdata$r	ENDS
;	COMDAT ??_R0?AV_Generic_error_category@std@@@8
_DATA	SEGMENT
??_R0?AV_Generic_error_category@std@@@8 DD FLAT:??_7type_info@@6B@ ; std::_Generic_error_category `RTTI Type Descriptor'
	DD	00H
	DB	'.?AV_Generic_error_category@std@@', 00H
_DATA	ENDS
;	COMDAT ??_R4_Generic_error_category@std@@6B@
rdata$r	SEGMENT
??_R4_Generic_error_category@std@@6B@ DD 00H		; std::_Generic_error_category::`RTTI Complete Object Locator'
	DD	00H
	DD	00H
	DD	FLAT:??_R0?AV_Generic_error_category@std@@@8
	DD	FLAT:??_R3_Generic_error_category@std@@8
rdata$r	ENDS
;	COMDAT ??_R1A@?0A@EA@error_category@std@@8
rdata$r	SEGMENT
??_R1A@?0A@EA@error_category@std@@8 DD FLAT:??_R0?AVerror_category@std@@@8 ; std::error_category::`RTTI Base Class Descriptor at (0,-1,0,64)'
	DD	00H
	DD	00H
	DD	0ffffffffH
	DD	00H
	DD	040H
	DD	FLAT:??_R3error_category@std@@8
rdata$r	ENDS
;	COMDAT ??_R2error_category@std@@8
rdata$r	SEGMENT
??_R2error_category@std@@8 DD FLAT:??_R1A@?0A@EA@error_category@std@@8 ; std::error_category::`RTTI Base Class Array'
rdata$r	ENDS
;	COMDAT ??_R3error_category@std@@8
rdata$r	SEGMENT
??_R3error_category@std@@8 DD 00H			; std::error_category::`RTTI Class Hierarchy Descriptor'
	DD	00H
	DD	01H
	DD	FLAT:??_R2error_category@std@@8
rdata$r	ENDS
;	COMDAT ??_R0?AVerror_category@std@@@8
_DATA	SEGMENT
??_R0?AVerror_category@std@@@8 DD FLAT:??_7type_info@@6B@ ; std::error_category `RTTI Type Descriptor'
	DD	00H
	DB	'.?AVerror_category@std@@', 00H
_DATA	ENDS
;	COMDAT ??_R4error_category@std@@6B@
rdata$r	SEGMENT
??_R4error_category@std@@6B@ DD 00H			; std::error_category::`RTTI Complete Object Locator'
	DD	00H
	DD	00H
	DD	FLAT:??_R0?AVerror_category@std@@@8
	DD	FLAT:??_R3error_category@std@@8
rdata$r	ENDS
;	COMDAT ??_R1A@?0A@EA@out_of_range@std@@8
rdata$r	SEGMENT
??_R1A@?0A@EA@out_of_range@std@@8 DD FLAT:??_R0?AVout_of_range@std@@@8 ; std::out_of_range::`RTTI Base Class Descriptor at (0,-1,0,64)'
	DD	02H
	DD	00H
	DD	0ffffffffH
	DD	00H
	DD	040H
	DD	FLAT:??_R3out_of_range@std@@8
rdata$r	ENDS
;	COMDAT ??_R2out_of_range@std@@8
rdata$r	SEGMENT
??_R2out_of_range@std@@8 DD FLAT:??_R1A@?0A@EA@out_of_range@std@@8 ; std::out_of_range::`RTTI Base Class Array'
	DD	FLAT:??_R1A@?0A@EA@logic_error@std@@8
	DD	FLAT:??_R1A@?0A@EA@exception@std@@8
rdata$r	ENDS
;	COMDAT ??_R3out_of_range@std@@8
rdata$r	SEGMENT
??_R3out_of_range@std@@8 DD 00H				; std::out_of_range::`RTTI Class Hierarchy Descriptor'
	DD	00H
	DD	03H
	DD	FLAT:??_R2out_of_range@std@@8
rdata$r	ENDS
;	COMDAT ??_R4out_of_range@std@@6B@
rdata$r	SEGMENT
??_R4out_of_range@std@@6B@ DD 00H			; std::out_of_range::`RTTI Complete Object Locator'
	DD	00H
	DD	00H
	DD	FLAT:??_R0?AVout_of_range@std@@@8
	DD	FLAT:??_R3out_of_range@std@@8
rdata$r	ENDS
;	COMDAT ??_R1A@?0A@EA@logic_error@std@@8
rdata$r	SEGMENT
??_R1A@?0A@EA@logic_error@std@@8 DD FLAT:??_R0?AVlogic_error@std@@@8 ; std::logic_error::`RTTI Base Class Descriptor at (0,-1,0,64)'
	DD	01H
	DD	00H
	DD	0ffffffffH
	DD	00H
	DD	040H
	DD	FLAT:??_R3logic_error@std@@8
rdata$r	ENDS
;	COMDAT ??_R2logic_error@std@@8
rdata$r	SEGMENT
??_R2logic_error@std@@8 DD FLAT:??_R1A@?0A@EA@logic_error@std@@8 ; std::logic_error::`RTTI Base Class Array'
	DD	FLAT:??_R1A@?0A@EA@exception@std@@8
rdata$r	ENDS
;	COMDAT ??_R3logic_error@std@@8
rdata$r	SEGMENT
??_R3logic_error@std@@8 DD 00H				; std::logic_error::`RTTI Class Hierarchy Descriptor'
	DD	00H
	DD	02H
	DD	FLAT:??_R2logic_error@std@@8
rdata$r	ENDS
;	COMDAT ??_R4logic_error@std@@6B@
rdata$r	SEGMENT
??_R4logic_error@std@@6B@ DD 00H			; std::logic_error::`RTTI Complete Object Locator'
	DD	00H
	DD	00H
	DD	FLAT:??_R0?AVlogic_error@std@@@8
	DD	FLAT:??_R3logic_error@std@@8
rdata$r	ENDS
;	COMDAT ??_R2exception@std@@8
rdata$r	SEGMENT
??_R2exception@std@@8 DD FLAT:??_R1A@?0A@EA@exception@std@@8 ; std::exception::`RTTI Base Class Array'
rdata$r	ENDS
;	COMDAT ??_R3exception@std@@8
rdata$r	SEGMENT
??_R3exception@std@@8 DD 00H				; std::exception::`RTTI Class Hierarchy Descriptor'
	DD	00H
	DD	01H
	DD	FLAT:??_R2exception@std@@8
rdata$r	ENDS
;	COMDAT ??_R1A@?0A@EA@exception@std@@8
rdata$r	SEGMENT
??_R1A@?0A@EA@exception@std@@8 DD FLAT:??_R0?AVexception@std@@@8 ; std::exception::`RTTI Base Class Descriptor at (0,-1,0,64)'
	DD	00H
	DD	00H
	DD	0ffffffffH
	DD	00H
	DD	040H
	DD	FLAT:??_R3exception@std@@8
rdata$r	ENDS
;	COMDAT ??_C@_0BA@JFNIOLAK@string?5too?5long?$AA@
CONST	SEGMENT
??_C@_0BA@JFNIOLAK@string?5too?5long?$AA@ DB 'string too long', 00H ; `string'
CONST	ENDS
;	COMDAT ??_C@_0BI@CFPLBAOH@invalid?5string?5position?$AA@
CONST	SEGMENT
??_C@_0BI@CFPLBAOH@invalid?5string?5position?$AA@ DB 'invalid string posi'
	DB	'tion', 00H					; `string'
CONST	ENDS
;	COMDAT ??_C@_05KPLJDLMD@Pilot?$AA@
CONST	SEGMENT
??_C@_05KPLJDLMD@Pilot?$AA@ DB 'Pilot', 00H		; `string'
CONST	ENDS
;	COMDAT ??_C@_07MIIPMLFO@?5Crew?$CFd?$AA@
CONST	SEGMENT
??_C@_07MIIPMLFO@?5Crew?$CFd?$AA@ DB ' Crew%d', 00H	; `string'
CONST	ENDS
;	COMDAT ??_C@_06EMKKHMIC@?5Pilot?$AA@
CONST	SEGMENT
??_C@_06EMKKHMIC@?5Pilot?$AA@ DB ' Pilot', 00H		; `string'
CONST	ENDS
;	COMDAT ??_7SimVuDriver@@6B@
CONST	SEGMENT
??_7SimVuDriver@@6B@ DD FLAT:??_R4SimVuDriver@@6B@	; SimVuDriver::`vftable'
	DD	FLAT:??_ESimVuDriver@@UAEPAXI@Z
	DD	FLAT:?NoExec@VuMaster@@UAEXK@Z
	DD	FLAT:?Exec@VuMaster@@UAEXK@Z
	DD	FLAT:?Handle@VuMaster@@UAEHPAVVuPositionUpdateEvent@@@Z
	DD	FLAT:?Handle@VuMaster@@UAEHPAVVuFullUpdateEvent@@@Z
	DD	FLAT:?Handle@VuMaster@@UAEHPAVVuEvent@@@Z
	DD	FLAT:?ResetLastUpdateTime@VuDriver@@UAEXK@Z
	DD	FLAT:?ExecDR@VuDeadReckon@@UAEXK@Z
	DD	FLAT:?ExecModel@SimVuDriver@@UAEEK@Z
	DD	FLAT:?SendScore@SimVuDriver@@UAE?AU?$pair@W4SCORE@VuMaster@@M@std@@PBVVuSessionEntity@@K@Z
CONST	ENDS
;	COMDAT ??_7EjectedPilotClass@@6B@
CONST	SEGMENT
??_7EjectedPilotClass@@6B@ DD FLAT:??_R4EjectedPilotClass@@6B@ ; EjectedPilotClass::`vftable'
	DD	FLAT:?CustomCollisionCheck@VuEntity@@UAEEPAV1@M@Z
	DD	FLAT:?TerrainCollisionCheck@VuEntity@@UAEEXZ
	DD	FLAT:?IsTarget@VuEntity@@UAEEXZ
	DD	FLAT:?IsSession@VuEntity@@UAEEXZ
	DD	FLAT:?IsGroup@VuEntity@@UAEEXZ
	DD	FLAT:?IsGame@VuEntity@@UAEEXZ
	DD	FLAT:?IsCamera@VuEntity@@UBEEXZ
	DD	FLAT:?SaveSize@EjectedPilotClass@@UAEHXZ
	DD	FLAT:?Save@SimMoverClass@@UAEHPAU_iobuf@@@Z
	DD	FLAT:?Save@EjectedPilotClass@@UAEHPAPAE@Z
	DD	FLAT:?Handle@VuEntity@@UAEHPAVVuSessionEvent@@@Z
	DD	FLAT:?Handle@SimMoverClass@@UAEHPAVVuTransferEvent@@@Z
	DD	FLAT:?Handle@VuEntity@@UAEHPAVVuEntityCollisionEvent@@@Z
	DD	FLAT:?Handle@SimMoverClass@@UAEHPAVVuPositionUpdateEvent@@@Z
	DD	FLAT:?Handle@SimMoverClass@@UAEHPAVVuFullUpdateEvent@@@Z
	DD	FLAT:?Handle@VuEntity@@UAEHPAVVuEvent@@@Z
	DD	FLAT:?Handle@VuEntity@@UAEHPAVVuPullRequest@@@Z
	DD	FLAT:?Handle@VuEntity@@UAEHPAVVuPushRequest@@@Z
	DD	FLAT:?Handle@VuEntity@@UAEHPAVVuErrorMessage@@@Z
	DD	FLAT:??_EEjectedPilotClass@@UAEPAXI@Z
	DD	FLAT:?InsertionCallback@SimMoverClass@@UAEHXZ
	DD	FLAT:?RemovalCallback@SimMoverClass@@UAEHXZ
	DD	FLAT:?InitData@EjectedPilotClass@@UAEXXZ
	DD	FLAT:?CleanupData@EjectedPilotClass@@UAEXXZ
	DD	FLAT:?IsSimBase@SimBaseClass@@UAE_NXZ
	DD	FLAT:?IsCampBase@FalconEntity@@UAE_NXZ
	DD	FLAT:?Wake@EjectedPilotClass@@UAEHXZ
	DD	FLAT:?Sleep@EjectedPilotClass@@UAEHXZ
	DD	FLAT:?GetCampID@SimBaseClass@@UAEFXZ
	DD	FLAT:?GetTeam@SimBaseClass@@UAEEXZ
	DD	FLAT:?GetCountry@SimBaseClass@@UAEEXZ
	DD	FLAT:?GetDomain@FalconEntity@@UAEEXZ
	DD	FLAT:?GetRadarMode@FalconEntity@@UAEHXZ
	DD	FLAT:?SetRadarMode@FalconEntity@@UAEXE@Z
	DD	FLAT:?ReturnToSearch@FalconEntity@@UAEXXZ
	DD	FLAT:?SetSearchMode@FalconEntity@@UAEXE@Z
	DD	FLAT:?CombatClass@FalconEntity@@UAEHXZ
	DD	FLAT:?OnGround@SimBaseClass@@UAEHXZ
	DD	FLAT:?HasEntity@FalconEntity@@UBEHPAVVuEntity@@@Z
	DD	FLAT:?IsMissile@FalconEntity@@UAEHXZ
	DD	FLAT:?IsLauncher@FalconEntity@@UAEHXZ
	DD	FLAT:?IsBomb@FalconEntity@@UAEHXZ
	DD	FLAT:?IsGun@FalconEntity@@UAEHXZ
	DD	FLAT:?IsMover@SimMoverClass@@UAEHXZ
	DD	FLAT:?IsVehicle@FalconEntity@@UAEHXZ
	DD	FLAT:?IsStatic@FalconEntity@@UAEHXZ
	DD	FLAT:?IsHelicopter@FalconEntity@@UAEHXZ
	DD	FLAT:?IsEject@EjectedPilotClass@@UAEHXZ
	DD	FLAT:?IsAirplane@FalconEntity@@UAEHXZ
	DD	FLAT:?IsGroundVehicle@FalconEntity@@UAEHXZ
	DD	FLAT:?IsShip@FalconEntity@@UAEHXZ
	DD	FLAT:?IsWeapon@FalconEntity@@UAEHXZ
	DD	FLAT:?IsExploding@SimBaseClass@@UAEHXZ
	DD	FLAT:?IsDead@FalconEntity@@UAEHXZ
	DD	FLAT:?IsEmitting@FalconEntity@@UAEHXZ
	DD	FLAT:?GetVt@SimMoverClass@@UBEMXZ
	DD	FLAT:?GetKias@SimMoverClass@@UBEMXZ
	DD	FLAT:?GetMovementType@SimBaseClass@@UAE?AW4MoveType@@XZ
	DD	FLAT:?IsUnit@FalconEntity@@UAEHXZ
	DD	FLAT:?IsObjective@FalconEntity@@UAEHXZ
	DD	FLAT:?IsBattalion@FalconEntity@@UAEHXZ
	DD	FLAT:?IsBrigade@FalconEntity@@UAEHXZ
	DD	FLAT:?IsFlight@FalconEntity@@UBEHXZ
	DD	FLAT:?IsSquadron@FalconEntity@@UAEHXZ
	DD	FLAT:?IsPackage@FalconEntity@@UAEHXZ
	DD	FLAT:?IsTeam@FalconEntity@@UAEHXZ
	DD	FLAT:?IsTaskForce@FalconEntity@@UAEHXZ
	DD	FLAT:?IsSPJamming@SimBaseClass@@UAEHXZ
	DD	FLAT:?IsAreaJamming@SimBaseClass@@UAEHXZ
	DD	FLAT:?HasSPJamming@SimBaseClass@@UAEHXZ
	DD	FLAT:?HasAreaJamming@SimBaseClass@@UAEHXZ
	DD	FLAT:?GetRCSFactor@FalconEntity@@UAEMXZ
	DD	FLAT:?GetIRFactor@FalconEntity@@UAEMXZ
	DD	FLAT:?GetRadarType@FalconEntity@@UAEHXZ
	DD	FLAT:?GetDamageModifiers@FalconEntity@@UAEPAEXZ
	DD	FLAT:?SetAQUIREtimer@FalconEntity@@UAEXK@Z
	DD	FLAT:?SetSEARCHtimer@FalconEntity@@UAEXK@Z
	DD	FLAT:?SetStepSearchMode@FalconEntity@@UAEXE@Z
	DD	FLAT:?GetAQUIREtimer@FalconEntity@@UAEKXZ
	DD	FLAT:?GetSEARCHtimer@FalconEntity@@UAEKXZ
	DD	FLAT:?WeaponKeepAlive@SimMoverClass@@UAEXXZ
	DD	FLAT:?JoinFlight@SimBaseClass@@UAEXXZ
	DD	FLAT:?ChangeOwner@SimMoverClass@@UAEXVVU_ID@@@Z
	DD	FLAT:?MakeLocal@SimMoverClass@@UAEXXZ
	DD	FLAT:?MakeRemote@SimMoverClass@@UAEXXZ
	DD	FLAT:?IsDead@SimBaseClass@@UBEHXZ
	DD	FLAT:?Init@EjectedPilotClass@@UAEXPAVSimInitDataClass@@@Z
	DD	FLAT:?Exec@EjectedPilotClass@@UAEHXZ
	DD	FLAT:?GetTransform@EjectedPilotClass@@UAEXQAY02M@Z
	DD	FLAT:?ApplyDamage@EjectedPilotClass@@UAEXPAVFalconDamageMessage@@@Z
	DD	FLAT:?ApplyDeathMessage@SimBaseClass@@UAEXPAVFalconDeathMessage@@@Z
	DD	FLAT:?SetDead@EjectedPilotClass@@UAEXH@Z
	DD	FLAT:?MakePlayerVehicle@SimBaseClass@@UAEXXZ
	DD	FLAT:?MakeNonPlayerVehicle@SimBaseClass@@UAEXXZ
	DD	FLAT:?ConfigurePlayerAvionics@SimBaseClass@@UAEXXZ
	DD	FLAT:?SetVuPosition@SimBaseClass@@UAEXXZ
	DD	FLAT:?Regenerate@SimBaseClass@@UAEXMMMM@Z
	DD	FLAT:?Mass@EjectedPilotClass@@UAEMXZ
	DD	FLAT:?GetFocusPoint@EjectedPilotClass@@UAEXAAM00@Z
	DD	FLAT:?GetP@SimMoverClass@@UAEMXZ
	DD	FLAT:?GetQ@SimMoverClass@@UAEMXZ
	DD	FLAT:?GetR@SimMoverClass@@UAEMXZ
	DD	FLAT:?GetAlpha@SimMoverClass@@UAEMXZ
	DD	FLAT:?GetBeta@SimMoverClass@@UAEMXZ
	DD	FLAT:?GetNx@SimMoverClass@@UAEMXZ
	DD	FLAT:?GetNy@SimMoverClass@@UAEMXZ
	DD	FLAT:?GetNz@SimMoverClass@@UAEMXZ
	DD	FLAT:?GetGamma@SimMoverClass@@UAEMXZ
	DD	FLAT:?GetSigma@SimMoverClass@@UAEMXZ
	DD	FLAT:?GetMu@SimMoverClass@@UAEMXZ
	DD	FLAT:?SetLead@SimMoverClass@@UAEXH@Z
	DD	FLAT:?FeatureCollision@SimMoverClass@@UAEPAVSimBaseClass@@M@Z
	DD	FLAT:?CheckLOS@SimMoverClass@@UAEHPAVSimObjectType@@@Z
	DD	FLAT:?CheckCompositeLOS@SimMoverClass@@UAEHPAVSimObjectType@@@Z
CONST	ENDS
;	COMDAT __CT??_R0?AVlogic_error@std@@@8??0logic_error@std@@QAE@ABV01@@Z12
xdata$x	SEGMENT
__CT??_R0?AVlogic_error@std@@@8??0logic_error@std@@QAE@ABV01@@Z12 DD 00H
	DD	FLAT:??_R0?AVlogic_error@std@@@8
	DD	00H
	DD	0ffffffffH
	ORG $+4
	DD	0cH
	DD	FLAT:??0logic_error@std@@QAE@ABV01@@Z
xdata$x	ENDS
;	COMDAT ??_R0?AVlogic_error@std@@@8
_DATA	SEGMENT
??_R0?AVlogic_error@std@@@8 DD FLAT:??_7type_info@@6B@	; std::logic_error `RTTI Type Descriptor'
	DD	00H
	DB	'.?AVlogic_error@std@@', 00H
_DATA	ENDS
;	COMDAT __CT??_R0?AVout_of_range@std@@@8??0out_of_range@std@@QAE@ABV01@@Z12
xdata$x	SEGMENT
__CT??_R0?AVout_of_range@std@@@8??0out_of_range@std@@QAE@ABV01@@Z12 DD 00H
	DD	FLAT:??_R0?AVout_of_range@std@@@8
	DD	00H
	DD	0ffffffffH
	ORG $+4
	DD	0cH
	DD	FLAT:??0out_of_range@std@@QAE@ABV01@@Z
xdata$x	ENDS
;	COMDAT ??_R0?AVout_of_range@std@@@8
_DATA	SEGMENT
??_R0?AVout_of_range@std@@@8 DD FLAT:??_7type_info@@6B@	; std::out_of_range `RTTI Type Descriptor'
	DD	00H
	DB	'.?AVout_of_range@std@@', 00H
_DATA	ENDS
;	COMDAT __CT??_R0?AVInvalidBufferException@@@8??0InvalidBufferException@@QAE@ABV0@@Z12
xdata$x	SEGMENT
__CT??_R0?AVInvalidBufferException@@@8??0InvalidBufferException@@QAE@ABV0@@Z12 DD 00H
	DD	FLAT:??_R0?AVInvalidBufferException@@@8
	DD	00H
	DD	0ffffffffH
	ORG $+4
	DD	0cH
	DD	FLAT:??0InvalidBufferException@@QAE@ABV0@@Z
xdata$x	ENDS
;	COMDAT ??_R0?AVInvalidBufferException@@@8
_DATA	SEGMENT
??_R0?AVInvalidBufferException@@@8 DD FLAT:??_7type_info@@6B@ ; InvalidBufferException `RTTI Type Descriptor'
	DD	00H
	DB	'.?AVInvalidBufferException@@', 00H
_DATA	ENDS
;	COMDAT __CTA4?AVInvalidBufferException@@
xdata$x	SEGMENT
__CTA4?AVInvalidBufferException@@ DD 04H
	DD	FLAT:__CT??_R0?AVInvalidBufferException@@@8??0InvalidBufferException@@QAE@ABV0@@Z12
	DD	FLAT:__CT??_R0?AVout_of_range@std@@@8??0out_of_range@std@@QAE@ABV01@@Z12
	DD	FLAT:__CT??_R0?AVlogic_error@std@@@8??0logic_error@std@@QAE@ABV01@@Z12
	DD	FLAT:__CT??_R0?AVexception@std@@@8??0exception@std@@QAE@ABV01@@Z12
xdata$x	ENDS
;	COMDAT __TI4?AVInvalidBufferException@@
xdata$x	SEGMENT
__TI4?AVInvalidBufferException@@ DD 00H
	DD	FLAT:??1InvalidBufferException@@UAE@XZ
	DD	00H
	DD	FLAT:__CTA4?AVInvalidBufferException@@
xdata$x	ENDS
;	COMDAT ??_C@_0CI@MPKJAHJH@Trying?5to?5write?5?$CFlu?5bytes?5to?5?$CFld@
CONST	SEGMENT
??_C@_0CI@MPKJAHJH@Trying?5to?5write?5?$CFlu?5bytes?5to?5?$CFld@ DB 'Tryi'
	DB	'ng to write %lu bytes to %ld buffer', 00H	; `string'
CONST	ENDS
;	COMDAT ??_7InvalidBufferException@@6B@
CONST	SEGMENT
??_7InvalidBufferException@@6B@ DD FLAT:??_R4InvalidBufferException@@6B@ ; InvalidBufferException::`vftable'
	DD	FLAT:??_EInvalidBufferException@@UAEPAXI@Z
	DD	FLAT:?what@exception@std@@UBEPBDXZ
CONST	ENDS
;	COMDAT ??_C@_06FHFOAHML@system?$AA@
CONST	SEGMENT
??_C@_06FHFOAHML@system?$AA@ DB 'system', 00H		; `string'
CONST	ENDS
;	COMDAT ??_7_System_error_category@std@@6B@
CONST	SEGMENT
??_7_System_error_category@std@@6B@ DD FLAT:??_R4_System_error_category@std@@6B@ ; std::_System_error_category::`vftable'
	DD	FLAT:??_E_System_error_category@std@@UAEPAXI@Z
	DD	FLAT:?name@_System_error_category@std@@UBEPBDXZ
	DD	FLAT:?message@_System_error_category@std@@UBE?AV?$basic_string@DU?$char_traits@D@std@@V?$allocator@D@2@@2@H@Z
	DD	FLAT:?default_error_condition@_System_error_category@std@@UBE?AVerror_condition@2@H@Z
	DD	FLAT:?equivalent@error_category@std@@UBE_NABVerror_code@2@H@Z
	DD	FLAT:?equivalent@error_category@std@@UBE_NHABVerror_condition@2@@Z
CONST	ENDS
;	COMDAT ??_C@_0BG@PADBLCHM@iostream?5stream?5error?$AA@
CONST	SEGMENT
??_C@_0BG@PADBLCHM@iostream?5stream?5error?$AA@ DB 'iostream stream error'
	DB	00H						; `string'
CONST	ENDS
;	COMDAT ??_C@_08LLGCOLLL@iostream?$AA@
CONST	SEGMENT
??_C@_08LLGCOLLL@iostream?$AA@ DB 'iostream', 00H	; `string'
CONST	ENDS
;	COMDAT ??_7_Iostream_error_category@std@@6B@
CONST	SEGMENT
??_7_Iostream_error_category@std@@6B@ DD FLAT:??_R4_Iostream_error_category@std@@6B@ ; std::_Iostream_error_category::`vftable'
	DD	FLAT:??_E_Iostream_error_category@std@@UAEPAXI@Z
	DD	FLAT:?name@_Iostream_error_category@std@@UBEPBDXZ
	DD	FLAT:?message@_Iostream_error_category@std@@UBE?AV?$basic_string@DU?$char_traits@D@std@@V?$allocator@D@2@@2@H@Z
	DD	FLAT:?default_error_condition@error_category@std@@UBE?AVerror_condition@2@H@Z
	DD	FLAT:?equivalent@error_category@std@@UBE_NABVerror_code@2@H@Z
	DD	FLAT:?equivalent@error_category@std@@UBE_NHABVerror_condition@2@@Z
CONST	ENDS
;	COMDAT ??_C@_0O@BFJCFAAK@unknown?5error?$AA@
CONST	SEGMENT
??_C@_0O@BFJCFAAK@unknown?5error?$AA@ DB 'unknown error', 00H ; `string'
CONST	ENDS
;	COMDAT ??_C@_07DCLBNMLN@generic?$AA@
CONST	SEGMENT
??_C@_07DCLBNMLN@generic?$AA@ DB 'generic', 00H		; `string'
CONST	ENDS
;	COMDAT ??_7_Generic_error_category@std@@6B@
CONST	SEGMENT
??_7_Generic_error_category@std@@6B@ DD FLAT:??_R4_Generic_error_category@std@@6B@ ; std::_Generic_error_category::`vftable'
	DD	FLAT:??_E_Generic_error_category@std@@UAEPAXI@Z
	DD	FLAT:?name@_Generic_error_category@std@@UBEPBDXZ
	DD	FLAT:?message@_Generic_error_category@std@@UBE?AV?$basic_string@DU?$char_traits@D@std@@V?$allocator@D@2@@2@H@Z
	DD	FLAT:?default_error_condition@error_category@std@@UBE?AVerror_condition@2@H@Z
	DD	FLAT:?equivalent@error_category@std@@UBE_NABVerror_code@2@H@Z
	DD	FLAT:?equivalent@error_category@std@@UBE_NHABVerror_condition@2@@Z
CONST	ENDS
;	COMDAT ??_7error_category@std@@6B@
CONST	SEGMENT
??_7error_category@std@@6B@ DD FLAT:??_R4error_category@std@@6B@ ; std::error_category::`vftable'
	DD	FLAT:??_Eerror_category@std@@UAEPAXI@Z
	DD	FLAT:__purecall
	DD	FLAT:__purecall
	DD	FLAT:?default_error_condition@error_category@std@@UBE?AVerror_condition@2@H@Z
	DD	FLAT:?equivalent@error_category@std@@UBE_NABVerror_code@2@H@Z
	DD	FLAT:?equivalent@error_category@std@@UBE_NHABVerror_condition@2@@Z
CONST	ENDS
;	COMDAT __CT??_R0?AVexception@std@@@8??0exception@std@@QAE@ABV01@@Z12
xdata$x	SEGMENT
__CT??_R0?AVexception@std@@@8??0exception@std@@QAE@ABV01@@Z12 DD 00H
	DD	FLAT:??_R0?AVexception@std@@@8
	DD	00H
	DD	0ffffffffH
	ORG $+4
	DD	0cH
	DD	FLAT:??0exception@std@@QAE@ABV01@@Z
xdata$x	ENDS
;	COMDAT ??_R0?AVexception@std@@@8
_DATA	SEGMENT
??_R0?AVexception@std@@@8 DD FLAT:??_7type_info@@6B@	; std::exception `RTTI Type Descriptor'
	DD	00H
	DB	'.?AVexception@std@@', 00H
_DATA	ENDS
;	COMDAT ??_7out_of_range@std@@6B@
CONST	SEGMENT
??_7out_of_range@std@@6B@ DD FLAT:??_R4out_of_range@std@@6B@ ; std::out_of_range::`vftable'
	DD	FLAT:??_Eout_of_range@std@@UAEPAXI@Z
	DD	FLAT:?what@exception@std@@UBEPBDXZ
CONST	ENDS
;	COMDAT ??_7logic_error@std@@6B@
CONST	SEGMENT
??_7logic_error@std@@6B@ DD FLAT:??_R4logic_error@std@@6B@ ; std::logic_error::`vftable'
	DD	FLAT:??_Elogic_error@std@@UAEPAXI@Z
	DD	FLAT:?what@exception@std@@UBEPBDXZ
CONST	ENDS
;	COMDAT xdata$x
xdata$x	SEGMENT
__unwindtable$??$construct@PADAAPAD@?$allocator@D@std@@QAEXPAPADAAPAD@Z DD 0ffffffffH
	DD	FLAT:__unwindfunclet$??$construct@PADAAPAD@?$allocator@D@std@@QAEXPAPADAAPAD@Z$0
__ehfuncinfo$??$construct@PADAAPAD@?$allocator@D@std@@QAEXPAPADAAPAD@Z DD 019930522H
	DD	01H
	DD	FLAT:__unwindtable$??$construct@PADAAPAD@?$allocator@D@std@@QAEXPAPADAAPAD@Z
	DD	2 DUP(00H)
	DD	2 DUP(00H)
	DD	00H
	DD	01H
xdata$x	ENDS
;	COMDAT xdata$x
xdata$x	SEGMENT
__ehfuncinfo$??__EF16ModelData@@YAXXZ DD 019930522H
	DD	0fH
	DD	FLAT:__unwindtable$??__EF16ModelData@@YAXXZ
	DD	2 DUP(00H)
	DD	2 DUP(00H)
	DD	00H
	DD	01H
__unwindtable$??__EF16ModelData@@YAXXZ DD 0ffffffffH
	DD	FLAT:__unwindfunclet$??__EF16ModelData@@YAXXZ$0
	DD	00H
	DD	FLAT:__unwindfunclet$??__EF16ModelData@@YAXXZ$1
	DD	0ffffffffH
	DD	FLAT:__unwindfunclet$??__EF16ModelData@@YAXXZ$1
	DD	02H
	DD	FLAT:__unwindfunclet$??__EF16ModelData@@YAXXZ$2
	DD	03H
	DD	FLAT:__unwindfunclet$??__EF16ModelData@@YAXXZ$3
	DD	02H
	DD	FLAT:__unwindfunclet$??__EF16ModelData@@YAXXZ$3
	DD	05H
	DD	FLAT:__unwindfunclet$??__EF16ModelData@@YAXXZ$4
	DD	06H
	DD	FLAT:__unwindfunclet$??__EF16ModelData@@YAXXZ$5
	DD	05H
	DD	FLAT:__unwindfunclet$??__EF16ModelData@@YAXXZ$5
	DD	08H
	DD	FLAT:__unwindfunclet$??__EF16ModelData@@YAXXZ$6
	DD	09H
	DD	FLAT:__unwindfunclet$??__EF16ModelData@@YAXXZ$7
	DD	08H
	DD	FLAT:__unwindfunclet$??__EF16ModelData@@YAXXZ$7
	DD	0bH
	DD	FLAT:__unwindfunclet$??__EF16ModelData@@YAXXZ$8
	DD	0cH
	DD	FLAT:__unwindfunclet$??__EF16ModelData@@YAXXZ$9
	DD	0bH
	DD	FLAT:__unwindfunclet$??__EF16ModelData@@YAXXZ$9
xdata$x	ENDS
xdata$x	SEGMENT
__unwindtable$?CalculateThrustVector@EjectedPilotClass@@ABEXAAV?$Vector_3D@M@@@Z DD 0ffffffffH
	DD	FLAT:__unwindfunclet$?CalculateThrustVector@EjectedPilotClass@@ABEXAAV?$Vector_3D@M@@@Z$0
__unwindtable$?InitSafeLanding@EjectedPilotClass@@AAEXXZ DD 0ffffffffH
	DD	FLAT:__unwindfunclet$?InitSafeLanding@EjectedPilotClass@@AAEXXZ$0
__unwindtable$?InitFreeFallWithSeat@EjectedPilotClass@@AAEXXZ DD 0ffffffffH
	DD	FLAT:__unwindfunclet$?InitFreeFallWithSeat@EjectedPilotClass@@AAEXXZ$0
__unwindtable$?AdvanceTime@EjectedPilotClass@@AAEXXZ DD 0ffffffffH
	DD	FLAT:__unwindfunclet$?AdvanceTime@EjectedPilotClass@@AAEXXZ$0
__unwindtable$?ZeroPitchAndRoll@EjectedPilotClass@@AAEXXZ DD 0ffffffffH
	DD	FLAT:__unwindfunclet$?ZeroPitchAndRoll@EjectedPilotClass@@AAEXXZ$0
	DD	00H
	DD	FLAT:__unwindfunclet$?ZeroPitchAndRoll@EjectedPilotClass@@AAEXXZ$1
__unwindtable$?RunFreeFall@EjectedPilotClass@@AAEXXZ DD 0ffffffffH
	DD	FLAT:__unwindfunclet$?RunFreeFall@EjectedPilotClass@@AAEXXZ$0
	DD	00H
	DD	FLAT:__unwindfunclet$?RunFreeFall@EjectedPilotClass@@AAEXXZ$1
__unwindtable$?RunFreeFallWithOpenChute@EjectedPilotClass@@AAEXXZ DD 0ffffffffH
	DD	FLAT:__unwindfunclet$?RunFreeFallWithOpenChute@EjectedPilotClass@@AAEXXZ$0
	DD	00H
	DD	FLAT:__unwindfunclet$?RunFreeFallWithOpenChute@EjectedPilotClass@@AAEXXZ$1
__unwindtable$?InitEjectSeat@EjectedPilotClass@@AAEXXZ DD 0ffffffffH
	DD	FLAT:__unwindfunclet$?InitEjectSeat@EjectedPilotClass@@AAEXXZ$0
	DD	00H
	DD	FLAT:__unwindfunclet$?InitEjectSeat@EjectedPilotClass@@AAEXXZ$1
__unwindtable$?SetModel@EjectedPilotClass@@AAEXH@Z DD 0ffffffffH
	DD	FLAT:__unwindfunclet$?SetModel@EjectedPilotClass@@AAEXH@Z$0
	DD	0ffffffffH
	DD	FLAT:__unwindfunclet$?SetModel@EjectedPilotClass@@AAEXH@Z$1
__unwindtable$?ApplyDamage@EjectedPilotClass@@UAEXPAVFalconDamageMessage@@@Z DD 0ffffffffH
	DD	FLAT:__unwindfunclet$?ApplyDamage@EjectedPilotClass@@UAEXPAVFalconDamageMessage@@@Z$0
	DD	0ffffffffH
	DD	FLAT:__unwindfunclet$?ApplyDamage@EjectedPilotClass@@UAEXPAVFalconDamageMessage@@@Z$1
__unwindtable$?CalculateEjectionVector@EjectedPilotClass@@ABEXAAV?$Vector_3D@M@@@Z DD 0ffffffffH
	DD	FLAT:__unwindfunclet$?CalculateEjectionVector@EjectedPilotClass@@ABEXAAV?$Vector_3D@M@@@Z$0
	DD	00H
	DD	FLAT:__unwindfunclet$?CalculateEjectionVector@EjectedPilotClass@@ABEXAAV?$Vector_3D@M@@@Z$1
	DD	00H
	DD	FLAT:__unwindfunclet$?CalculateEjectionVector@EjectedPilotClass@@ABEXAAV?$Vector_3D@M@@@Z$2
__unwindtable$?CalculateDragVector@EjectedPilotClass@@ABEXAAV?$Vector_3D@M@@@Z DD 0ffffffffH
	DD	FLAT:__unwindfunclet$?CalculateDragVector@EjectedPilotClass@@ABEXAAV?$Vector_3D@M@@@Z$0
	DD	00H
	DD	FLAT:__unwindfunclet$?CalculateDragVector@EjectedPilotClass@@ABEXAAV?$Vector_3D@M@@@Z$1
	DD	00H
	DD	FLAT:__unwindfunclet$?CalculateDragVector@EjectedPilotClass@@ABEXAAV?$Vector_3D@M@@@Z$2
__unwindtable$?RunEjectSeat@EjectedPilotClass@@AAEXXZ DD 0ffffffffH
	DD	FLAT:__unwindfunclet$?RunEjectSeat@EjectedPilotClass@@AAEXXZ$0
	DD	00H
	DD	FLAT:__unwindfunclet$?RunEjectSeat@EjectedPilotClass@@AAEXXZ$1
	DD	01H
	DD	FLAT:__unwindfunclet$?RunEjectSeat@EjectedPilotClass@@AAEXXZ$2
__unwindtable$?CalculateAndSetPositionAndOrientationInCockpit@EjectedPilotClass@@AAEXXZ DD 0ffffffffH
	DD	FLAT:__unwindfunclet$?CalculateAndSetPositionAndOrientationInCockpit@EjectedPilotClass@@AAEXXZ$0
	DD	0ffffffffH
	DD	FLAT:__unwindfunclet$?CalculateAndSetPositionAndOrientationInCockpit@EjectedPilotClass@@AAEXXZ$1
	DD	0ffffffffH
	DD	FLAT:__unwindfunclet$?CalculateAndSetPositionAndOrientationInCockpit@EjectedPilotClass@@AAEXXZ$2
	DD	0ffffffffH
	DD	FLAT:__unwindfunclet$?CalculateAndSetPositionAndOrientationInCockpit@EjectedPilotClass@@AAEXXZ$3
__ehfuncinfo$?ZeroPitchAndRoll@EjectedPilotClass@@AAEXXZ DD 019930522H
	DD	02H
	DD	FLAT:__unwindtable$?ZeroPitchAndRoll@EjectedPilotClass@@AAEXXZ
	DD	2 DUP(00H)
	DD	2 DUP(00H)
	DD	00H
	DD	01H
__ehfuncinfo$?CalculateEjectionVector@EjectedPilotClass@@ABEXAAV?$Vector_3D@M@@@Z DD 019930522H
	DD	03H
	DD	FLAT:__unwindtable$?CalculateEjectionVector@EjectedPilotClass@@ABEXAAV?$Vector_3D@M@@@Z
	DD	2 DUP(00H)
	DD	2 DUP(00H)
	DD	00H
	DD	01H
__ehfuncinfo$?CalculateDragVector@EjectedPilotClass@@ABEXAAV?$Vector_3D@M@@@Z DD 019930522H
	DD	03H
	DD	FLAT:__unwindtable$?CalculateDragVector@EjectedPilotClass@@ABEXAAV?$Vector_3D@M@@@Z
	DD	2 DUP(00H)
	DD	2 DUP(00H)
	DD	00H
	DD	01H
__ehfuncinfo$?CalculateThrustVector@EjectedPilotClass@@ABEXAAV?$Vector_3D@M@@@Z DD 019930522H
	DD	01H
	DD	FLAT:__unwindtable$?CalculateThrustVector@EjectedPilotClass@@ABEXAAV?$Vector_3D@M@@@Z
	DD	2 DUP(00H)
	DD	2 DUP(00H)
	DD	00H
	DD	01H
__ehfuncinfo$?CalculateAndSetPositionAndOrientationInCockpit@EjectedPilotClass@@AAEXXZ DD 019930522H
	DD	04H
	DD	FLAT:__unwindtable$?CalculateAndSetPositionAndOrientationInCockpit@EjectedPilotClass@@AAEXXZ
	DD	2 DUP(00H)
	DD	2 DUP(00H)
	DD	00H
	DD	01H
__ehfuncinfo$?RunFreeFall@EjectedPilotClass@@AAEXXZ DD 019930522H
	DD	02H
	DD	FLAT:__unwindtable$?RunFreeFall@EjectedPilotClass@@AAEXXZ
	DD	2 DUP(00H)
	DD	2 DUP(00H)
	DD	00H
	DD	01H
__ehfuncinfo$?RunFreeFallWithOpenChute@EjectedPilotClass@@AAEXXZ DD 019930522H
	DD	02H
	DD	FLAT:__unwindtable$?RunFreeFallWithOpenChute@EjectedPilotClass@@AAEXXZ
	DD	2 DUP(00H)
	DD	2 DUP(00H)
	DD	00H
	DD	01H
__ehfuncinfo$?RunEjectSeat@EjectedPilotClass@@AAEXXZ DD 019930522H
	DD	03H
	DD	FLAT:__unwindtable$?RunEjectSeat@EjectedPilotClass@@AAEXXZ
	DD	2 DUP(00H)
	DD	2 DUP(00H)
	DD	00H
	DD	01H
__ehfuncinfo$?InitSafeLanding@EjectedPilotClass@@AAEXXZ DD 019930522H
	DD	01H
	DD	FLAT:__unwindtable$?InitSafeLanding@EjectedPilotClass@@AAEXXZ
	DD	2 DUP(00H)
	DD	2 DUP(00H)
	DD	00H
	DD	01H
__ehfuncinfo$?InitFreeFallWithSeat@EjectedPilotClass@@AAEXXZ DD 019930522H
	DD	01H
	DD	FLAT:__unwindtable$?InitFreeFallWithSeat@EjectedPilotClass@@AAEXXZ
	DD	2 DUP(00H)
	DD	2 DUP(00H)
	DD	00H
	DD	01H
__ehfuncinfo$?InitEjectSeat@EjectedPilotClass@@AAEXXZ DD 019930522H
	DD	02H
	DD	FLAT:__unwindtable$?InitEjectSeat@EjectedPilotClass@@AAEXXZ
	DD	2 DUP(00H)
	DD	2 DUP(00H)
	DD	00H
	DD	01H
__ehfuncinfo$?SetModel@EjectedPilotClass@@AAEXH@Z DD 019930522H
	DD	02H
	DD	FLAT:__unwindtable$?SetModel@EjectedPilotClass@@AAEXH@Z
	DD	2 DUP(00H)
	DD	2 DUP(00H)
	DD	00H
	DD	01H
__ehfuncinfo$?AdvanceTime@EjectedPilotClass@@AAEXXZ DD 019930522H
	DD	01H
	DD	FLAT:__unwindtable$?AdvanceTime@EjectedPilotClass@@AAEXXZ
	DD	2 DUP(00H)
	DD	2 DUP(00H)
	DD	00H
	DD	01H
__ehfuncinfo$?GetFocusPoint@EjectedPilotClass@@UAEXAAM00@Z DD 019930522H
	DD	05H
	DD	FLAT:__unwindtable$?GetFocusPoint@EjectedPilotClass@@UAEXAAM00@Z
	DD	2 DUP(00H)
	DD	2 DUP(00H)
	DD	00H
	DD	01H
__ehfuncinfo$?ApplyDamage@EjectedPilotClass@@UAEXPAVFalconDamageMessage@@@Z DD 019930522H
	DD	02H
	DD	FLAT:__unwindtable$?ApplyDamage@EjectedPilotClass@@UAEXPAVFalconDamageMessage@@@Z
	DD	2 DUP(00H)
	DD	2 DUP(00H)
	DD	00H
	DD	01H
__ehfuncinfo$?InitLocalData@EjectedPilotClass@@AAEXPAVAircraftClass@@HH@Z DD 019930522H
	DD	05H
	DD	FLAT:__unwindtable$?InitLocalData@EjectedPilotClass@@AAEXPAVAircraftClass@@HH@Z
	DD	2 DUP(00H)
	DD	2 DUP(00H)
	DD	00H
	DD	01H
__ehfuncinfo$??1EjectedPilotClass@@UAE@XZ DD 019930522H
	DD	06H
	DD	FLAT:__unwindtable$??1EjectedPilotClass@@UAE@XZ
	DD	2 DUP(00H)
	DD	2 DUP(00H)
	DD	00H
	DD	01H
__ehfuncinfo$??0EjectedPilotClass@@QAE@PAPAEPAJ@Z DD 019930522H
	DD	06H
	DD	FLAT:__unwindtable$??0EjectedPilotClass@@QAE@PAPAEPAJ@Z
	DD	2 DUP(00H)
	DD	2 DUP(00H)
	DD	00H
	DD	01H
__ehfuncinfo$??0EjectedPilotClass@@QAE@PAVAircraftClass@@HH@Z DD 019930522H
	DD	06H
	DD	FLAT:__unwindtable$??0EjectedPilotClass@@QAE@PAVAircraftClass@@HH@Z
	DD	2 DUP(00H)
	DD	2 DUP(00H)
	DD	00H
	DD	01H
__unwindtable$?GetFocusPoint@EjectedPilotClass@@UAEXAAM00@Z DD 0ffffffffH
	DD	FLAT:__unwindfunclet$?GetFocusPoint@EjectedPilotClass@@UAEXAAM00@Z$0
	DD	00H
	DD	FLAT:__unwindfunclet$?GetFocusPoint@EjectedPilotClass@@UAEXAAM00@Z$1
	DD	01H
	DD	FLAT:__unwindfunclet$?GetFocusPoint@EjectedPilotClass@@UAEXAAM00@Z$2
	DD	02H
	DD	FLAT:__unwindfunclet$?GetFocusPoint@EjectedPilotClass@@UAEXAAM00@Z$3
	DD	02H
	DD	FLAT:__unwindfunclet$?GetFocusPoint@EjectedPilotClass@@UAEXAAM00@Z$4
__unwindtable$?InitLocalData@EjectedPilotClass@@AAEXPAVAircraftClass@@HH@Z DD 0ffffffffH
	DD	FLAT:__unwindfunclet$?InitLocalData@EjectedPilotClass@@AAEXPAVAircraftClass@@HH@Z$0
	DD	0ffffffffH
	DD	FLAT:__unwindfunclet$?InitLocalData@EjectedPilotClass@@AAEXPAVAircraftClass@@HH@Z$1
	DD	0ffffffffH
	DD	FLAT:__unwindfunclet$?InitLocalData@EjectedPilotClass@@AAEXPAVAircraftClass@@HH@Z$2
	DD	0ffffffffH
	DD	FLAT:__unwindfunclet$?InitLocalData@EjectedPilotClass@@AAEXPAVAircraftClass@@HH@Z$3
	DD	0ffffffffH
	DD	FLAT:__unwindfunclet$?InitLocalData@EjectedPilotClass@@AAEXPAVAircraftClass@@HH@Z$4
__unwindtable$??1EjectedPilotClass@@UAE@XZ DD 0ffffffffH
	DD	FLAT:__unwindfunclet$??1EjectedPilotClass@@UAE@XZ$0
	DD	00H
	DD	FLAT:__unwindfunclet$??1EjectedPilotClass@@UAE@XZ$1
	DD	01H
	DD	FLAT:__unwindfunclet$??1EjectedPilotClass@@UAE@XZ$2
	DD	02H
	DD	FLAT:__unwindfunclet$??1EjectedPilotClass@@UAE@XZ$3
	DD	03H
	DD	FLAT:__unwindfunclet$??1EjectedPilotClass@@UAE@XZ$4
	DD	04H
	DD	FLAT:__unwindfunclet$??1EjectedPilotClass@@UAE@XZ$5
__unwindtable$??0EjectedPilotClass@@QAE@PAPAEPAJ@Z DD 0ffffffffH
	DD	FLAT:__unwindfunclet$??0EjectedPilotClass@@QAE@PAPAEPAJ@Z$0
	DD	00H
	DD	FLAT:__unwindfunclet$??0EjectedPilotClass@@QAE@PAPAEPAJ@Z$1
	DD	01H
	DD	FLAT:__unwindfunclet$??0EjectedPilotClass@@QAE@PAPAEPAJ@Z$2
	DD	02H
	DD	FLAT:__unwindfunclet$??0EjectedPilotClass@@QAE@PAPAEPAJ@Z$3
	DD	03H
	DD	FLAT:__unwindfunclet$??0EjectedPilotClass@@QAE@PAPAEPAJ@Z$4
	DD	04H
	DD	FLAT:__unwindfunclet$??0EjectedPilotClass@@QAE@PAPAEPAJ@Z$5
__unwindtable$??0EjectedPilotClass@@QAE@PAVAircraftClass@@HH@Z DD 0ffffffffH
	DD	FLAT:__unwindfunclet$??0EjectedPilotClass@@QAE@PAVAircraftClass@@HH@Z$0
	DD	00H
	DD	FLAT:__unwindfunclet$??0EjectedPilotClass@@QAE@PAVAircraftClass@@HH@Z$1
	DD	01H
	DD	FLAT:__unwindfunclet$??0EjectedPilotClass@@QAE@PAVAircraftClass@@HH@Z$2
	DD	02H
	DD	FLAT:__unwindfunclet$??0EjectedPilotClass@@QAE@PAVAircraftClass@@HH@Z$3
	DD	03H
	DD	FLAT:__unwindfunclet$??0EjectedPilotClass@@QAE@PAVAircraftClass@@HH@Z$4
	DD	04H
	DD	FLAT:__unwindfunclet$??0EjectedPilotClass@@QAE@PAVAircraftClass@@HH@Z$5
xdata$x	ENDS
;	COMDAT xdata$x
xdata$x	SEGMENT
__unwindtable$??0EP_MODEL_DATA@@QAE@HHHABV?$Vector_3D@M@@@Z DD 0ffffffffH
	DD	FLAT:__unwindfunclet$??0EP_MODEL_DATA@@QAE@HHHABV?$Vector_3D@M@@@Z$0
__ehfuncinfo$??0EP_MODEL_DATA@@QAE@HHHABV?$Vector_3D@M@@@Z DD 019930522H
	DD	01H
	DD	FLAT:__unwindtable$??0EP_MODEL_DATA@@QAE@HHHABV?$Vector_3D@M@@@Z
	DD	2 DUP(00H)
	DD	2 DUP(00H)
	DD	00H
	DD	01H
xdata$x	ENDS
;	COMDAT xdata$x
xdata$x	SEGMENT
__unwindtable$?Heading@?$Vector_3D@M@@QBEMXZ DD 0ffffffffH
	DD	FLAT:__unwindfunclet$?Heading@?$Vector_3D@M@@QBEMXZ$0
__ehfuncinfo$?Heading@?$Vector_3D@M@@QBEMXZ DD 019930522H
	DD	01H
	DD	FLAT:__unwindtable$?Heading@?$Vector_3D@M@@QBEMXZ
	DD	2 DUP(00H)
	DD	2 DUP(00H)
	DD	00H
	DD	01H
xdata$x	ENDS
;	COMDAT xdata$x
xdata$x	SEGMENT
__unwindtable$?memcpychk@@YAXPAXPAPAEIPAJ@Z DD 0ffffffffH
	DD	FLAT:__unwindfunclet$?memcpychk@@YAXPAXPAPAEIPAJ@Z$0
__ehfuncinfo$?memcpychk@@YAXPAXPAPAEIPAJ@Z DD 019930522H
	DD	01H
	DD	FLAT:__unwindtable$?memcpychk@@YAXPAXPAPAEIPAJ@Z
	DD	2 DUP(00H)
	DD	2 DUP(00H)
	DD	00H
	DD	01H
xdata$x	ENDS
;	COMDAT xdata$x
xdata$x	SEGMENT
__catchsym$?_Copy@?$basic_string@DU?$char_traits@D@std@@V?$allocator@D@2@@std@@QAEXII@Z$5 DD 040H
	DD	00H
	DD	00H
	DD	FLAT:__catch$?_Copy@?$basic_string@DU?$char_traits@D@std@@V?$allocator@D@2@@std@@QAEXII@Z$0
__catchsym$?_Copy@?$basic_string@DU?$char_traits@D@std@@V?$allocator@D@2@@std@@QAEXII@Z$4 DD 040H
	DD	00H
	DD	00H
	DD	FLAT:__catch$?_Copy@?$basic_string@DU?$char_traits@D@std@@V?$allocator@D@2@@std@@QAEXII@Z$1
__unwindtable$?_Copy@?$basic_string@DU?$char_traits@D@std@@V?$allocator@D@2@@std@@QAEXII@Z DD 0ffffffffH
	DD	00H
	DD	0ffffffffH
	DD	00H
	DD	01H
	DD	00H
	DD	01H
	DD	00H
__ehfuncinfo$?_Copy@?$basic_string@DU?$char_traits@D@std@@V?$allocator@D@2@@std@@QAEXII@Z DD 019930522H
	DD	04H
	DD	FLAT:__unwindtable$?_Copy@?$basic_string@DU?$char_traits@D@std@@V?$allocator@D@2@@std@@QAEXII@Z
	DD	02H
	DD	FLAT:__tryblocktable$?_Copy@?$basic_string@DU?$char_traits@D@std@@V?$allocator@D@2@@std@@QAEXII@Z
	DD	2 DUP(00H)
	DD	00H
	DD	01H
__tryblocktable$?_Copy@?$basic_string@DU?$char_traits@D@std@@V?$allocator@D@2@@std@@QAEXII@Z DD 02H
	DD	02H
	DD	03H
	DD	01H
	DD	FLAT:__catchsym$?_Copy@?$basic_string@DU?$char_traits@D@std@@V?$allocator@D@2@@std@@QAEXII@Z$4
	DD	00H
	DD	00H
	DD	03H
	DD	01H
	DD	FLAT:__catchsym$?_Copy@?$basic_string@DU?$char_traits@D@std@@V?$allocator@D@2@@std@@QAEXII@Z$5
xdata$x	ENDS
CRT$XCU	SEGMENT
_allocator_arg$initializer$ DD FLAT:??__Eallocator_arg@std@@YAXXZ
CRT$XCU	ENDS
CRT$XCU	SEGMENT
_F16ModelData$initializer$ DD FLAT:??__EF16ModelData@@YAXXZ
CRT$XCU	ENDS
;	COMDAT CRT$XCU
CRT$XCU	SEGMENT
?_Generic_object$initializer$@?$_Error_objects@H@std@@2P6AXXZA DD FLAT:??__E?_Generic_object@?$_Error_objects@H@std@@2V_Generic_error_category@2@A@@YAXXZ ; std::_Error_objects<int>::_Generic_object$initializer$
CRT$XCU	ENDS
;	COMDAT CRT$XCU
CRT$XCU	SEGMENT
?_Iostream_object$initializer$@?$_Error_objects@H@std@@2P6AXXZA DD FLAT:??__E?_Iostream_object@?$_Error_objects@H@std@@2V_Iostream_error_category@2@A@@YAXXZ ; std::_Error_objects<int>::_Iostream_object$initializer$
CRT$XCU	ENDS
;	COMDAT CRT$XCU
CRT$XCU	SEGMENT
?_System_object$initializer$@?$_Error_objects@H@std@@2P6AXXZA DD FLAT:??__E?_System_object@?$_Error_objects@H@std@@2V_System_error_category@2@A@@YAXXZ ; std::_Error_objects<int>::_System_object$initializer$
CRT$XCU	ENDS
;	COMDAT CRT$XCU
CRT$XCU	SEGMENT
?id$initializer$@?$num_put@DV?$back_insert_iterator@V?$basic_string@DU?$char_traits@D@std@@V?$allocator@D@2@@std@@@std@@@std@@2P6AXXZA DD FLAT:??__E?id@?$num_put@DV?$back_insert_iterator@V?$basic_string@DU?$char_traits@D@std@@V?$allocator@D@2@@std@@@std@@@std@@2V0locale@2@A@@YAXXZ ; std::num_put<char,std::back_insert_iterator<std::basic_string<char,std::char_traits<char>,std::allocator<char> > > >::id$initializer$
CRT$XCU	ENDS
;	COMDAT CRT$XCU
CRT$XCU	SEGMENT
?id$initializer$@?$num_put@_WV?$back_insert_iterator@V?$basic_string@_WU?$char_traits@_W@std@@V?$allocator@_W@2@@std@@@std@@@std@@2P6AXXZA DD FLAT:??__E?id@?$num_put@_WV?$back_insert_iterator@V?$basic_string@_WU?$char_traits@_W@std@@V?$allocator@_W@2@@std@@@std@@@std@@2V0locale@2@A@@YAXXZ ; std::num_put<wchar_t,std::back_insert_iterator<std::basic_string<wchar_t,std::char_traits<wchar_t>,std::allocator<wchar_t> > > >::id$initializer$
CRT$XCU	ENDS
;	COMDAT CRT$XCU
CRT$XCU	SEGMENT
?id$initializer$@?$numpunct@D@std@@2P6AXXZA DD FLAT:??__E?id@?$numpunct@D@std@@2V0locale@2@A@@YAXXZ ; std::numpunct<char>::id$initializer$
CRT$XCU	ENDS
;	COMDAT CRT$XCU
CRT$XCU	SEGMENT
?id$initializer$@?$numpunct@_W@std@@2P6AXXZA DD FLAT:??__E?id@?$numpunct@_W@std@@2V0locale@2@A@@YAXXZ ; std::numpunct<wchar_t>::id$initializer$
CRT$XCU	ENDS
; Function compile flags: /Odtp
; File c:\program files (x86)\microsoft visual studio 11.0\vc\include\xmemory0
;	COMDAT ??$destroy@PAD@?$allocator@D@std@@QAEXPAPAD@Z
_TEXT	SEGMENT
_this$ = -4						; size = 4
__Ptr$ = 8						; size = 4
??$destroy@PAD@?$allocator@D@std@@QAEXPAPAD@Z PROC	; std::allocator<char>::destroy<char *>, COMDAT
; _this$ = ecx

; 621  : 		void destroy(_Uty *_Ptr)

	push	ebp
	mov	ebp, esp
	push	ecx
	mov	DWORD PTR _this$[ebp], ecx

; 622  : 		{	// destroy object at _Ptr
; 623  : 		_Ptr->~_Uty();
; 624  : 		}

	mov	esp, ebp
	pop	ebp
	ret	4
??$destroy@PAD@?$allocator@D@std@@QAEXPAPAD@Z ENDP	; std::allocator<char>::destroy<char *>
_TEXT	ENDS
; Function compile flags: /Odtp
; File c:\program files (x86)\microsoft visual studio 11.0\vc\include\xmemory0
;	COMDAT ??$construct@PADAAPAD@?$allocator@D@std@@QAEXPAPADAAPAD@Z
_TEXT	SEGMENT
$T2 = -28						; size = 4
_this$ = -24						; size = 4
tv73 = -20						; size = 4
$T3 = -16						; size = 4
__$EHRec$ = -12						; size = 12
__Ptr$ = 8						; size = 4
__V0$ = 12						; size = 4
??$construct@PADAAPAD@?$allocator@D@std@@QAEXPAPADAAPAD@Z PROC ; std::allocator<char>::construct<char *,char * &>, COMDAT
; _this$ = ecx

; 617  : _VARIADIC_EXPAND_0X(_ALLOC_MEMBER_CONSTRUCT, , , , )

	push	ebp
	mov	ebp, esp
	push	-1
	push	__ehhandler$??$construct@PADAAPAD@?$allocator@D@std@@QAEXPAPADAAPAD@Z
	mov	eax, DWORD PTR fs:0
	push	eax
	sub	esp, 16					; 00000010H
	mov	eax, DWORD PTR ___security_cookie
	xor	eax, ebp
	push	eax
	lea	eax, DWORD PTR __$EHRec$[ebp]
	mov	DWORD PTR fs:0, eax
	mov	DWORD PTR _this$[ebp], ecx
	mov	eax, DWORD PTR __Ptr$[ebp]
	push	eax
	push	4
	call	??2@YAPAXIPAX@Z				; operator new
	add	esp, 8
	mov	DWORD PTR $T3[ebp], eax
	mov	DWORD PTR __$EHRec$[ebp+8], 0
	cmp	DWORD PTR $T3[ebp], 0
	je	SHORT $LN3@construct
	mov	ecx, DWORD PTR __V0$[ebp]
	push	ecx
	call	??$forward@AAPAD@std@@YAAAPADAAPAD@Z	; std::forward<char * &>
	add	esp, 4
	mov	edx, DWORD PTR $T3[ebp]
	mov	eax, DWORD PTR [eax]
	mov	DWORD PTR [edx], eax
	mov	ecx, DWORD PTR $T3[ebp]
	mov	DWORD PTR tv73[ebp], ecx
	jmp	SHORT $LN4@construct
$LN3@construct:
	mov	DWORD PTR tv73[ebp], 0
$LN4@construct:
	mov	edx, DWORD PTR tv73[ebp]
	mov	DWORD PTR $T2[ebp], edx
	mov	DWORD PTR __$EHRec$[ebp+8], -1
	mov	ecx, DWORD PTR __$EHRec$[ebp]
	mov	DWORD PTR fs:0, ecx
	pop	ecx
	mov	esp, ebp
	pop	ebp
	ret	8
_TEXT	ENDS
;	COMDAT text$x
text$x	SEGMENT
__unwindfunclet$??$construct@PADAAPAD@?$allocator@D@std@@QAEXPAPADAAPAD@Z$0:
	mov	eax, DWORD PTR __Ptr$[ebp]
	push	eax
	mov	eax, DWORD PTR $T3[ebp]
	push	eax
	call	??3@YAXPAX0@Z				; operator delete
	add	esp, 8
	ret	0
__ehhandler$??$construct@PADAAPAD@?$allocator@D@std@@QAEXPAPADAAPAD@Z:
	mov	edx, DWORD PTR [esp+8]
	lea	eax, DWORD PTR [edx+12]
	mov	ecx, DWORD PTR [edx-20]
	xor	ecx, eax
	call	@__security_check_cookie@4
	mov	eax, OFFSET __ehfuncinfo$??$construct@PADAAPAD@?$allocator@D@std@@QAEXPAPADAAPAD@Z
	jmp	___CxxFrameHandler3
text$x	ENDS
??$construct@PADAAPAD@?$allocator@D@std@@QAEXPAPADAAPAD@Z ENDP ; std::allocator<char>::construct<char *,char * &>
; Function compile flags: /Odtp
; File c:\program files (x86)\microsoft visual studio 11.0\vc\include\xlocnum
;	COMDAT ??__E?id@?$numpunct@_W@std@@2V0locale@2@A@@YAXXZ
text$yc	SEGMENT
??__E?id@?$numpunct@_W@std@@2V0locale@2@A@@YAXXZ PROC	; `dynamic initializer for 'std::numpunct<wchar_t>::id'', COMDAT

; 155  : 		void _Getvals(wchar_t, const lconv *_Ptr, _Locinfo::_Cvtvec)

	push	ebp
	mov	ebp, esp
	push	0
	mov	ecx, OFFSET ?id@?$numpunct@_W@std@@2V0locale@2@A ; std::numpunct<wchar_t>::id
	call	??0id@locale@std@@QAE@I@Z		; std::locale::id::id
	pop	ebp
	ret	0
??__E?id@?$numpunct@_W@std@@2V0locale@2@A@@YAXXZ ENDP	; `dynamic initializer for 'std::numpunct<wchar_t>::id''
text$yc	ENDS
; Function compile flags: /Odtp
; File c:\program files (x86)\microsoft visual studio 11.0\vc\include\xlocnum
;	COMDAT ??__E?id@?$numpunct@D@std@@2V0locale@2@A@@YAXXZ
text$yc	SEGMENT
??__E?id@?$numpunct@D@std@@2V0locale@2@A@@YAXXZ PROC	; `dynamic initializer for 'std::numpunct<char>::id'', COMDAT

; 155  : 		void _Getvals(wchar_t, const lconv *_Ptr, _Locinfo::_Cvtvec)

	push	ebp
	mov	ebp, esp
	push	0
	mov	ecx, OFFSET ?id@?$numpunct@D@std@@2V0locale@2@A ; std::numpunct<char>::id
	call	??0id@locale@std@@QAE@I@Z		; std::locale::id::id
	pop	ebp
	ret	0
??__E?id@?$numpunct@D@std@@2V0locale@2@A@@YAXXZ ENDP	; `dynamic initializer for 'std::numpunct<char>::id''
text$yc	ENDS
; Function compile flags: /Odtp
; File c:\program files (x86)\microsoft visual studio 11.0\vc\include\xlocnum
;	COMDAT ??__E?id@?$num_put@_WV?$back_insert_iterator@V?$basic_string@_WU?$char_traits@_W@std@@V?$allocator@_W@2@@std@@@std@@@std@@2V0locale@2@A@@YAXXZ
text$yc	SEGMENT
??__E?id@?$num_put@_WV?$back_insert_iterator@V?$basic_string@_WU?$char_traits@_W@std@@V?$allocator@_W@2@@std@@@std@@@std@@2V0locale@2@A@@YAXXZ PROC ; `dynamic initializer for 'std::num_put<wchar_t,std::back_insert_iterator<std::basic_string<wchar_t,std::char_traits<wchar_t>,std::allocator<wchar_t> > > >::id'', COMDAT

; 155  : 		void _Getvals(wchar_t, const lconv *_Ptr, _Locinfo::_Cvtvec)

	push	ebp
	mov	ebp, esp
	push	0
	mov	ecx, OFFSET ?id@?$num_put@_WV?$back_insert_iterator@V?$basic_string@_WU?$char_traits@_W@std@@V?$allocator@_W@2@@std@@@std@@@std@@2V0locale@2@A ; std::num_put<wchar_t,std::back_insert_iterator<std::basic_string<wchar_t,std::char_traits<wchar_t>,std::allocator<wchar_t> > > >::id
	call	??0id@locale@std@@QAE@I@Z		; std::locale::id::id
	pop	ebp
	ret	0
??__E?id@?$num_put@_WV?$back_insert_iterator@V?$basic_string@_WU?$char_traits@_W@std@@V?$allocator@_W@2@@std@@@std@@@std@@2V0locale@2@A@@YAXXZ ENDP ; `dynamic initializer for 'std::num_put<wchar_t,std::back_insert_iterator<std::basic_string<wchar_t,std::char_traits<wchar_t>,std::allocator<wchar_t> > > >::id''
text$yc	ENDS
; Function compile flags: /Odtp
; File c:\program files (x86)\microsoft visual studio 11.0\vc\include\xlocnum
;	COMDAT ??__E?id@?$num_put@DV?$back_insert_iterator@V?$basic_string@DU?$char_traits@D@std@@V?$allocator@D@2@@std@@@std@@@std@@2V0locale@2@A@@YAXXZ
text$yc	SEGMENT
??__E?id@?$num_put@DV?$back_insert_iterator@V?$basic_string@DU?$char_traits@D@std@@V?$allocator@D@2@@std@@@std@@@std@@2V0locale@2@A@@YAXXZ PROC ; `dynamic initializer for 'std::num_put<char,std::back_insert_iterator<std::basic_string<char,std::char_traits<char>,std::allocator<char> > > >::id'', COMDAT

; 155  : 		void _Getvals(wchar_t, const lconv *_Ptr, _Locinfo::_Cvtvec)

	push	ebp
	mov	ebp, esp
	push	0
	mov	ecx, OFFSET ?id@?$num_put@DV?$back_insert_iterator@V?$basic_string@DU?$char_traits@D@std@@V?$allocator@D@2@@std@@@std@@@std@@2V0locale@2@A ; std::num_put<char,std::back_insert_iterator<std::basic_string<char,std::char_traits<char>,std::allocator<char> > > >::id
	call	??0id@locale@std@@QAE@I@Z		; std::locale::id::id
	pop	ebp
	ret	0
??__E?id@?$num_put@DV?$back_insert_iterator@V?$basic_string@DU?$char_traits@D@std@@V?$allocator@D@2@@std@@@std@@@std@@2V0locale@2@A@@YAXXZ ENDP ; `dynamic initializer for 'std::num_put<char,std::back_insert_iterator<std::basic_string<char,std::char_traits<char>,std::allocator<char> > > >::id''
text$yc	ENDS
; Function compile flags: /Odtp
; File c:\program files (x86)\microsoft visual studio 11.0\vc\include\xmemory0
;	COMDAT ??$destroy@PAD@?$allocator_traits@V?$allocator@D@std@@@std@@SAXAAV?$allocator@D@1@PAPAD@Z
_TEXT	SEGMENT
__Al$ = 8						; size = 4
__Ptr$ = 12						; size = 4
??$destroy@PAD@?$allocator_traits@V?$allocator@D@std@@@std@@SAXAAV?$allocator@D@1@PAPAD@Z PROC ; std::allocator_traits<std::allocator<char> >::destroy<char *>, COMDAT

; 755  : 		static void destroy(_Alloc& _Al, _Uty *_Ptr)

	push	ebp
	mov	ebp, esp

; 756  : 		{	// destroy object at _Ptr
; 757  : 		_Al.destroy(_Ptr);

	mov	eax, DWORD PTR __Ptr$[ebp]
	push	eax
	mov	ecx, DWORD PTR __Al$[ebp]
	call	??$destroy@PAD@?$allocator@D@std@@QAEXPAPAD@Z ; std::allocator<char>::destroy<char *>

; 758  : 		}

	pop	ebp
	ret	0
??$destroy@PAD@?$allocator_traits@V?$allocator@D@std@@@std@@SAXAAV?$allocator@D@1@PAPAD@Z ENDP ; std::allocator_traits<std::allocator<char> >::destroy<char *>
_TEXT	ENDS
; Function compile flags: /Odtp
; File c:\program files (x86)\microsoft visual studio 11.0\vc\include\xmemory0
;	COMDAT ??$construct@PADAAPAD@?$allocator_traits@V?$allocator@D@std@@@std@@SAXAAV?$allocator@D@1@PAPADAAPAD@Z
_TEXT	SEGMENT
__Al$ = 8						; size = 4
__Ptr$ = 12						; size = 4
__V0$ = 16						; size = 4
??$construct@PADAAPAD@?$allocator_traits@V?$allocator@D@std@@@std@@SAXAAV?$allocator@D@1@PAPADAAPAD@Z PROC ; std::allocator_traits<std::allocator<char> >::construct<char *,char * &>, COMDAT

; 751  : _VARIADIC_EXPAND_0X(_ALLOC_TRAITS_SPECIAL_CONSTRUCT, , , , )

	push	ebp
	mov	ebp, esp
	mov	eax, DWORD PTR __V0$[ebp]
	push	eax
	call	??$forward@AAPAD@std@@YAAAPADAAPAD@Z	; std::forward<char * &>
	add	esp, 4
	push	eax
	mov	ecx, DWORD PTR __Ptr$[ebp]
	push	ecx
	mov	ecx, DWORD PTR __Al$[ebp]
	call	??$construct@PADAAPAD@?$allocator@D@std@@QAEXPAPADAAPAD@Z ; std::allocator<char>::construct<char *,char * &>
	pop	ebp
	ret	0
??$construct@PADAAPAD@?$allocator_traits@V?$allocator@D@std@@@std@@SAXAAV?$allocator@D@1@PAPADAAPAD@Z ENDP ; std::allocator_traits<std::allocator<char> >::construct<char *,char * &>
_TEXT	ENDS
; Function compile flags: /Odtp
; File c:\program files (x86)\microsoft visual studio 11.0\vc\include\type_traits
;	COMDAT ??$forward@AAPAD@std@@YAAAPADAAPAD@Z
_TEXT	SEGMENT
__Arg$ = 8						; size = 4
??$forward@AAPAD@std@@YAAAPADAAPAD@Z PROC		; std::forward<char * &>, COMDAT

; 1775 : 	{	// forward an lvalue

	push	ebp
	mov	ebp, esp

; 1776 : 	return (static_cast<_Ty&&>(_Arg));

	mov	eax, DWORD PTR __Arg$[ebp]

; 1777 : 	}

	pop	ebp
	ret	0
??$forward@AAPAD@std@@YAAAPADAAPAD@Z ENDP		; std::forward<char * &>
_TEXT	ENDS
; Function compile flags: /Odtp
;	COMDAT ??__F?_System_object@?$_Error_objects@H@std@@2V_System_error_category@2@A@@YAXXZ
text$yd	SEGMENT
??__F?_System_object@?$_Error_objects@H@std@@2V_System_error_category@2@A@@YAXXZ PROC ; `dynamic atexit destructor for 'std::_Error_objects<int>::_System_object'', COMDAT
	push	ebp
	mov	ebp, esp
	mov	ecx, OFFSET ?_System_object@?$_Error_objects@H@std@@2V_System_error_category@2@A ; std::_Error_objects<int>::_System_object
	call	??1_System_error_category@std@@UAE@XZ
	pop	ebp
	ret	0
??__F?_System_object@?$_Error_objects@H@std@@2V_System_error_category@2@A@@YAXXZ ENDP ; `dynamic atexit destructor for 'std::_Error_objects<int>::_System_object''
text$yd	ENDS
; Function compile flags: /Odtp
; File c:\program files (x86)\microsoft visual studio 11.0\vc\include\xmemory0
;	COMDAT ??__E?_System_object@?$_Error_objects@H@std@@2V_System_error_category@2@A@@YAXXZ
text$yc	SEGMENT
??__E?_System_object@?$_Error_objects@H@std@@2V_System_error_category@2@A@@YAXXZ PROC ; `dynamic initializer for 'std::_Error_objects<int>::_System_object'', COMDAT

; 627  : 		{	// estimate maximum array size

	push	ebp
	mov	ebp, esp
	mov	ecx, OFFSET ?_System_object@?$_Error_objects@H@std@@2V_System_error_category@2@A ; std::_Error_objects<int>::_System_object
	call	??0_System_error_category@std@@QAE@XZ	; std::_System_error_category::_System_error_category
	push	OFFSET ??__F?_System_object@?$_Error_objects@H@std@@2V_System_error_category@2@A@@YAXXZ ; `dynamic atexit destructor for 'std::_Error_objects<int>::_System_object''
	call	_atexit
	add	esp, 4
	pop	ebp
	ret	0
??__E?_System_object@?$_Error_objects@H@std@@2V_System_error_category@2@A@@YAXXZ ENDP ; `dynamic initializer for 'std::_Error_objects<int>::_System_object''
text$yc	ENDS
; Function compile flags: /Odtp
;	COMDAT ??__F?_Iostream_object@?$_Error_objects@H@std@@2V_Iostream_error_category@2@A@@YAXXZ
text$yd	SEGMENT
??__F?_Iostream_object@?$_Error_objects@H@std@@2V_Iostream_error_category@2@A@@YAXXZ PROC ; `dynamic atexit destructor for 'std::_Error_objects<int>::_Iostream_object'', COMDAT
	push	ebp
	mov	ebp, esp
	mov	ecx, OFFSET ?_Iostream_object@?$_Error_objects@H@std@@2V_Iostream_error_category@2@A ; std::_Error_objects<int>::_Iostream_object
	call	??1_Iostream_error_category@std@@UAE@XZ
	pop	ebp
	ret	0
??__F?_Iostream_object@?$_Error_objects@H@std@@2V_Iostream_error_category@2@A@@YAXXZ ENDP ; `dynamic atexit destructor for 'std::_Error_objects<int>::_Iostream_object''
text$yd	ENDS
; Function compile flags: /Odtp
; File c:\program files (x86)\microsoft visual studio 11.0\vc\include\xmemory0
;	COMDAT ??__E?_Iostream_object@?$_Error_objects@H@std@@2V_Iostream_error_category@2@A@@YAXXZ
text$yc	SEGMENT
??__E?_Iostream_object@?$_Error_objects@H@std@@2V_Iostream_error_category@2@A@@YAXXZ PROC ; `dynamic initializer for 'std::_Error_objects<int>::_Iostream_object'', COMDAT

; 627  : 		{	// estimate maximum array size

	push	ebp
	mov	ebp, esp
	mov	ecx, OFFSET ?_Iostream_object@?$_Error_objects@H@std@@2V_Iostream_error_category@2@A ; std::_Error_objects<int>::_Iostream_object
	call	??0_Iostream_error_category@std@@QAE@XZ	; std::_Iostream_error_category::_Iostream_error_category
	push	OFFSET ??__F?_Iostream_object@?$_Error_objects@H@std@@2V_Iostream_error_category@2@A@@YAXXZ ; `dynamic atexit destructor for 'std::_Error_objects<int>::_Iostream_object''
	call	_atexit
	add	esp, 4
	pop	ebp
	ret	0
??__E?_Iostream_object@?$_Error_objects@H@std@@2V_Iostream_error_category@2@A@@YAXXZ ENDP ; `dynamic initializer for 'std::_Error_objects<int>::_Iostream_object''
text$yc	ENDS
; Function compile flags: /Odtp
;	COMDAT ??__F?_Generic_object@?$_Error_objects@H@std@@2V_Generic_error_category@2@A@@YAXXZ
text$yd	SEGMENT
??__F?_Generic_object@?$_Error_objects@H@std@@2V_Generic_error_category@2@A@@YAXXZ PROC ; `dynamic atexit destructor for 'std::_Error_objects<int>::_Generic_object'', COMDAT
	push	ebp
	mov	ebp, esp
	mov	ecx, OFFSET ?_Generic_object@?$_Error_objects@H@std@@2V_Generic_error_category@2@A ; std::_Error_objects<int>::_Generic_object
	call	??1_Generic_error_category@std@@UAE@XZ
	pop	ebp
	ret	0
??__F?_Generic_object@?$_Error_objects@H@std@@2V_Generic_error_category@2@A@@YAXXZ ENDP ; `dynamic atexit destructor for 'std::_Error_objects<int>::_Generic_object''
text$yd	ENDS
; Function compile flags: /Odtp
; File c:\program files (x86)\microsoft visual studio 11.0\vc\include\xmemory0
;	COMDAT ??__E?_Generic_object@?$_Error_objects@H@std@@2V_Generic_error_category@2@A@@YAXXZ
text$yc	SEGMENT
??__E?_Generic_object@?$_Error_objects@H@std@@2V_Generic_error_category@2@A@@YAXXZ PROC ; `dynamic initializer for 'std::_Error_objects<int>::_Generic_object'', COMDAT

; 627  : 		{	// estimate maximum array size

	push	ebp
	mov	ebp, esp
	mov	ecx, OFFSET ?_Generic_object@?$_Error_objects@H@std@@2V_Generic_error_category@2@A ; std::_Error_objects<int>::_Generic_object
	call	??0_Generic_error_category@std@@QAE@XZ	; std::_Generic_error_category::_Generic_error_category
	push	OFFSET ??__F?_Generic_object@?$_Error_objects@H@std@@2V_Generic_error_category@2@A@@YAXXZ ; `dynamic atexit destructor for 'std::_Error_objects<int>::_Generic_object''
	call	_atexit
	add	esp, 4
	pop	ebp
	ret	0
??__E?_Generic_object@?$_Error_objects@H@std@@2V_Generic_error_category@2@A@@YAXXZ ENDP ; `dynamic initializer for 'std::_Error_objects<int>::_Generic_object''
text$yc	ENDS
; Function compile flags: /Odtp
; File c:\program files (x86)\microsoft visual studio 11.0\vc\include\xmemory0
;	COMDAT ??$_Allocate@D@std@@YAPADIPAD@Z
_TEXT	SEGMENT
__Ptr$ = -4						; size = 4
__Count$ = 8						; size = 4
___formal$ = 12						; size = 4
??$_Allocate@D@std@@YAPADIPAD@Z PROC			; std::_Allocate<char>, COMDAT

; 22   : 	{	// allocate storage for _Count elements of type _Ty

	push	ebp
	mov	ebp, esp
	push	ecx

; 23   : 	void *_Ptr = 0;

	mov	DWORD PTR __Ptr$[ebp], 0

; 24   : 
; 25   : 	if (_Count == 0)

	cmp	DWORD PTR __Count$[ebp], 0
	jne	SHORT $LN4@Allocate

; 26   : 		;
; 27   : 	else if (((size_t)(-1) / sizeof (_Ty) < _Count)

	jmp	SHORT $LN3@Allocate
$LN4@Allocate:

; 28   : 		|| (_Ptr = ::operator new(_Count * sizeof (_Ty))) == 0)

	cmp	DWORD PTR __Count$[ebp], -1
	ja	SHORT $LN1@Allocate
	mov	eax, DWORD PTR __Count$[ebp]
	push	eax
	call	??2@YAPAXI@Z				; operator new
	add	esp, 4
	mov	DWORD PTR __Ptr$[ebp], eax
	cmp	DWORD PTR __Ptr$[ebp], 0
	jne	SHORT $LN3@Allocate
$LN1@Allocate:

; 29   : 		_Xbad_alloc();	// report no memory

	call	?_Xbad_alloc@std@@YAXXZ			; std::_Xbad_alloc
$LN3@Allocate:

; 30   : 
; 31   : 	return ((_Ty *)_Ptr);

	mov	eax, DWORD PTR __Ptr$[ebp]
$LN6@Allocate:

; 32   : 	}

	mov	esp, ebp
	pop	ebp
	ret	0
??$_Allocate@D@std@@YAPADIPAD@Z ENDP			; std::_Allocate<char>
_TEXT	ENDS
; Function compile flags: /Odtp
; File c:\program files (x86)\microsoft visual studio 11.0\vc\include\xstddef
;	COMDAT ??$addressof@D@std@@YAPADAAD@Z
_TEXT	SEGMENT
__Val$ = 8						; size = 4
??$addressof@D@std@@YAPADAAD@Z PROC			; std::addressof<char>, COMDAT

; 85   : 	{	// return address of _Val

	push	ebp
	mov	ebp, esp

; 86   : 	return (reinterpret_cast<_Ty *>(
; 87   : 		(&const_cast<char&>(
; 88   : 		reinterpret_cast<const volatile char&>(_Val)))));

	mov	eax, DWORD PTR __Val$[ebp]

; 89   : 	}

	pop	ebp
	ret	0
??$addressof@D@std@@YAPADAAD@Z ENDP			; std::addressof<char>
_TEXT	ENDS
; Function compile flags: /Odtp
; File c:\program files (x86)\microsoft visual studio 11.0\vc\include\xmemory0
;	COMDAT ??$destroy@PAD@?$_Wrap_alloc@V?$allocator@D@std@@@std@@QAEXPAPAD@Z
_TEXT	SEGMENT
_this$ = -4						; size = 4
__Ptr$ = 8						; size = 4
??$destroy@PAD@?$_Wrap_alloc@V?$allocator@D@std@@@std@@QAEXPAPAD@Z PROC ; std::_Wrap_alloc<std::allocator<char> >::destroy<char *>, COMDAT
; _this$ = ecx

; 907  : 		void destroy(_Ty *_Ptr)

	push	ebp
	mov	ebp, esp
	push	ecx
	mov	DWORD PTR _this$[ebp], ecx

; 908  : 		{	// destroy object at _Ptr
; 909  : 		_Mytraits::destroy(*this, _Ptr);

	mov	eax, DWORD PTR __Ptr$[ebp]
	push	eax
	mov	ecx, DWORD PTR _this$[ebp]
	push	ecx
	call	??$destroy@PAD@?$allocator_traits@V?$allocator@D@std@@@std@@SAXAAV?$allocator@D@1@PAPAD@Z ; std::allocator_traits<std::allocator<char> >::destroy<char *>
	add	esp, 8

; 910  : 		}

	mov	esp, ebp
	pop	ebp
	ret	4
??$destroy@PAD@?$_Wrap_alloc@V?$allocator@D@std@@@std@@QAEXPAPAD@Z ENDP ; std::_Wrap_alloc<std::allocator<char> >::destroy<char *>
_TEXT	ENDS
; Function compile flags: /Odtp
; File c:\program files (x86)\microsoft visual studio 11.0\vc\include\xmemory0
;	COMDAT ??$construct@PADAAPAD@?$_Wrap_alloc@V?$allocator@D@std@@@std@@QAEXPAPADAAPAD@Z
_TEXT	SEGMENT
_this$ = -4						; size = 4
__Ptr$ = 8						; size = 4
__V0$ = 12						; size = 4
??$construct@PADAAPAD@?$_Wrap_alloc@V?$allocator@D@std@@@std@@QAEXPAPADAAPAD@Z PROC ; std::_Wrap_alloc<std::allocator<char> >::construct<char *,char * &>, COMDAT
; _this$ = ecx

; 903  : _VARIADIC_EXPAND_0X(_WRAP_ALLOC_CONSTRUCT, , , , )

	push	ebp
	mov	ebp, esp
	push	ecx
	mov	DWORD PTR _this$[ebp], ecx
	mov	eax, DWORD PTR __V0$[ebp]
	push	eax
	call	??$forward@AAPAD@std@@YAAAPADAAPAD@Z	; std::forward<char * &>
	add	esp, 4
	push	eax
	mov	ecx, DWORD PTR __Ptr$[ebp]
	push	ecx
	mov	edx, DWORD PTR _this$[ebp]
	push	edx
	call	??$construct@PADAAPAD@?$allocator_traits@V?$allocator@D@std@@@std@@SAXAAV?$allocator@D@1@PAPADAAPAD@Z ; std::allocator_traits<std::allocator<char> >::construct<char *,char * &>
	add	esp, 12					; 0000000cH
	mov	esp, ebp
	pop	ebp
	ret	8
??$construct@PADAAPAD@?$_Wrap_alloc@V?$allocator@D@std@@@std@@QAEXPAPADAAPAD@Z ENDP ; std::_Wrap_alloc<std::allocator<char> >::construct<char *,char * &>
_TEXT	ENDS
; Function compile flags: /Odtp
;	COMDAT ??__FF16ModelData@@YAXXZ
text$yd	SEGMENT
??__FF16ModelData@@YAXXZ PROC				; `dynamic atexit destructor for 'F16ModelData'', COMDAT
	push	ebp
	mov	ebp, esp
	push	OFFSET ??1EP_MODEL_DATA@@QAE@XZ		; EP_MODEL_DATA::~EP_MODEL_DATA
	push	5
	push	24					; 00000018H
	push	OFFSET ?F16ModelData@@3PAUEP_MODEL_DATA@@A ; F16ModelData
	call	??_M@YGXPAXIHP6EX0@Z@Z
	pop	ebp
	ret	0
??__FF16ModelData@@YAXXZ ENDP				; `dynamic atexit destructor for 'F16ModelData''
text$yd	ENDS
; Function compile flags: /Odtp
; File c:\users\zhitao li\documents\visual studio 2012\projects\freefalcon\sim\eject\simeject.cpp
;	COMDAT ??__EF16ModelData@@YAXXZ
text$yc	SEGMENT
tv174 = -116						; size = 4
tv180 = -112						; size = 4
tv79 = -108						; size = 4
tv182 = -104						; size = 4
tv171 = -100						; size = 4
tv139 = -96						; size = 4
tv65 = -92						; size = 4
tv93 = -88						; size = 4
tv168 = -84						; size = 4
tv177 = -80						; size = 4
$T2 = -76						; size = 12
$T3 = -64						; size = 12
$T4 = -52						; size = 12
$T5 = -40						; size = 12
$T6 = -28						; size = 12
__$ArrayPad$ = -16					; size = 4
__$EHRec$ = -12						; size = 12
??__EF16ModelData@@YAXXZ PROC				; `dynamic initializer for 'F16ModelData'', COMDAT

; 153  : {

	push	ebp
	mov	ebp, esp
	push	-1
	push	__ehhandler$??__EF16ModelData@@YAXXZ
	mov	eax, DWORD PTR fs:0
	push	eax
	sub	esp, 104				; 00000068H
	mov	eax, DWORD PTR ___security_cookie
	xor	eax, ebp
	mov	DWORD PTR __$ArrayPad$[ebp], eax
	push	eax
	lea	eax, DWORD PTR __$EHRec$[ebp]
	mov	DWORD PTR fs:0, eax

; 154  : 	// pilot and seat.
; 155  : 	EP_MODEL_DATA
; 156  : 	(
; 157  : 		// bsp model id.
; 158  : 		VIS_EJECT2,
; 159  : 		// physical stage that this model is created in.
; 160  : 		PD_EJECT_SEAT,
; 161  : 		// camera mode.
; 162  : 		1,
; 163  : 		// focus point offset in model space.
; 164  : 		EP_VECTOR
; 165  : 		(
; 166  : 			0.0,
; 167  : 			0.0,
; 168  : 			0.0
; 169  : 		)
; 170  : 	),

	push	ecx
	movss	xmm0, DWORD PTR __real@00000000
	movss	DWORD PTR [esp], xmm0
	push	ecx
	movss	xmm0, DWORD PTR __real@00000000
	movss	DWORD PTR [esp], xmm0
	push	ecx
	movss	xmm0, DWORD PTR __real@00000000
	movss	DWORD PTR [esp], xmm0
	lea	ecx, DWORD PTR $T3[ebp]
	call	??0?$Vector_3D@M@@QAE@MMM@Z		; Vector_3D<float>::Vector_3D<float>
	mov	DWORD PTR tv182[ebp], eax
	mov	eax, DWORD PTR tv182[ebp]
	mov	DWORD PTR tv168[ebp], eax
	mov	DWORD PTR __$EHRec$[ebp+8], 0
	mov	ecx, DWORD PTR tv168[ebp]
	push	ecx
	push	1
	push	1
	push	65					; 00000041H
	mov	ecx, OFFSET ?F16ModelData@@3PAUEP_MODEL_DATA@@A ; F16ModelData
	call	??0EP_MODEL_DATA@@QAE@HHHABV?$Vector_3D@M@@@Z ; EP_MODEL_DATA::EP_MODEL_DATA
	mov	BYTE PTR __$EHRec$[ebp+8], 2
	lea	ecx, DWORD PTR $T3[ebp]
	call	??1?$Vector_3D@M@@QAE@XZ		; Vector_3D<float>::~Vector_3D<float>

; 171  : 	// pilot and open chute.
; 172  : 	EP_MODEL_DATA
; 173  : 	(
; 174  : 		// bsp model id.
; 175  : 		VIS_EJECT1,
; 176  : 		// physical stage that this model is created in.
; 177  : 		PD_CHUTE_OPENING,
; 178  : 		// camera mode.
; 179  : 		1,
; 180  : 		// focus point offset in model space.
; 181  : 		EP_VECTOR
; 182  : 		(
; 183  : 			0.0,
; 184  : 			0.0,
; 185  : 			70.0
; 186  : 		)
; 187  : 	),

	push	ecx
	movss	xmm0, DWORD PTR __real@428c0000
	movss	DWORD PTR [esp], xmm0
	push	ecx
	movss	xmm0, DWORD PTR __real@00000000
	movss	DWORD PTR [esp], xmm0
	push	ecx
	movss	xmm0, DWORD PTR __real@00000000
	movss	DWORD PTR [esp], xmm0
	lea	ecx, DWORD PTR $T6[ebp]
	call	??0?$Vector_3D@M@@QAE@MMM@Z		; Vector_3D<float>::Vector_3D<float>
	mov	DWORD PTR tv65[ebp], eax
	mov	edx, DWORD PTR tv65[ebp]
	mov	DWORD PTR tv171[ebp], edx
	mov	BYTE PTR __$EHRec$[ebp+8], 3
	mov	eax, DWORD PTR tv171[ebp]
	push	eax
	push	1
	push	3
	push	64					; 00000040H
	mov	ecx, OFFSET ?F16ModelData@@3PAUEP_MODEL_DATA@@A+24
	call	??0EP_MODEL_DATA@@QAE@HHHABV?$Vector_3D@M@@@Z ; EP_MODEL_DATA::EP_MODEL_DATA
	mov	BYTE PTR __$EHRec$[ebp+8], 5
	lea	ecx, DWORD PTR $T6[ebp]
	call	??1?$Vector_3D@M@@QAE@XZ		; Vector_3D<float>::~Vector_3D<float>

; 188  : 	// pilot and collapsed chute.
; 189  : 	EP_MODEL_DATA
; 190  : 	(
; 191  : 		// bsp model id.
; 192  : 		VIS_EJECT3,
; 193  : 		// physical stage that this model is created in.
; 194  : 		PD_FREE_FALL_WITH_COLLAPSED_CHUTE,
; 195  : 		// camera mode.
; 196  : 		1,
; 197  : 		// focus point offset in model space.
; 198  : 		EP_VECTOR
; 199  : 		(
; 200  : 			0.0,
; 201  : 			0.0,
; 202  : 			70.0
; 203  : 		)
; 204  : 	),

	push	ecx
	movss	xmm0, DWORD PTR __real@428c0000
	movss	DWORD PTR [esp], xmm0
	push	ecx
	movss	xmm0, DWORD PTR __real@00000000
	movss	DWORD PTR [esp], xmm0
	push	ecx
	movss	xmm0, DWORD PTR __real@00000000
	movss	DWORD PTR [esp], xmm0
	lea	ecx, DWORD PTR $T4[ebp]
	call	??0?$Vector_3D@M@@QAE@MMM@Z		; Vector_3D<float>::Vector_3D<float>
	mov	DWORD PTR tv79[ebp], eax
	mov	ecx, DWORD PTR tv79[ebp]
	mov	DWORD PTR tv174[ebp], ecx
	mov	BYTE PTR __$EHRec$[ebp+8], 6
	mov	edx, DWORD PTR tv174[ebp]
	push	edx
	push	1
	push	5
	push	265					; 00000109H
	mov	ecx, OFFSET ?F16ModelData@@3PAUEP_MODEL_DATA@@A+48
	call	??0EP_MODEL_DATA@@QAE@HHHABV?$Vector_3D@M@@@Z ; EP_MODEL_DATA::EP_MODEL_DATA
	mov	BYTE PTR __$EHRec$[ebp+8], 8
	lea	ecx, DWORD PTR $T4[ebp]
	call	??1?$Vector_3D@M@@QAE@XZ		; Vector_3D<float>::~Vector_3D<float>

; 205  : 	// Safe Landing
; 206  : 	EP_MODEL_DATA
; 207  : 	(
; 208  : 		// bsp model id.
; 209  : 		VIS_EJECT4,
; 210  : 		// physical stage that this model is created in.
; 211  : 		PD_SAFE_LANDING,
; 212  : 		// camera mode.
; 213  : 		2,
; 214  : 		// focus point offset in model space.
; 215  : 		EP_VECTOR
; 216  : 		(
; 217  : 			0.0,
; 218  : 			0.0,
; 219  : 			70.0
; 220  : 		)
; 221  : 	),

	push	ecx
	movss	xmm0, DWORD PTR __real@428c0000
	movss	DWORD PTR [esp], xmm0
	push	ecx
	movss	xmm0, DWORD PTR __real@00000000
	movss	DWORD PTR [esp], xmm0
	push	ecx
	movss	xmm0, DWORD PTR __real@00000000
	movss	DWORD PTR [esp], xmm0
	lea	ecx, DWORD PTR $T2[ebp]
	call	??0?$Vector_3D@M@@QAE@MMM@Z		; Vector_3D<float>::Vector_3D<float>
	mov	DWORD PTR tv93[ebp], eax
	mov	eax, DWORD PTR tv93[ebp]
	mov	DWORD PTR tv177[ebp], eax
	mov	BYTE PTR __$EHRec$[ebp+8], 9
	mov	ecx, DWORD PTR tv177[ebp]
	push	ecx
	push	2
	push	6
	push	267					; 0000010bH
	mov	ecx, OFFSET ?F16ModelData@@3PAUEP_MODEL_DATA@@A+72
	call	??0EP_MODEL_DATA@@QAE@HHHABV?$Vector_3D@M@@@Z ; EP_MODEL_DATA::EP_MODEL_DATA
	mov	BYTE PTR __$EHRec$[ebp+8], 11		; 0000000bH
	lea	ecx, DWORD PTR $T2[ebp]
	call	??1?$Vector_3D@M@@QAE@XZ		; Vector_3D<float>::~Vector_3D<float>

; 222  : 	// Crash Landing
; 223  : 	EP_MODEL_DATA
; 224  : 	(
; 225  : 		// bsp model id.
; 226  : 		VIS_EJECT5,
; 227  : 		// physical stage that this model is created in.
; 228  : 		PD_CRASH_LANDING,
; 229  : 		// camera mode.
; 230  : 		2,
; 231  : 		// focus point offset in model space.
; 232  : 		EP_VECTOR
; 233  : 		(
; 234  : 			0.0,
; 235  : 			0.0,
; 236  : 			70.0
; 237  : 		)
; 238  : 	)
; 239  : };

	push	ecx
	movss	xmm0, DWORD PTR __real@428c0000
	movss	DWORD PTR [esp], xmm0
	push	ecx
	movss	xmm0, DWORD PTR __real@00000000
	movss	DWORD PTR [esp], xmm0
	push	ecx
	movss	xmm0, DWORD PTR __real@00000000
	movss	DWORD PTR [esp], xmm0
	lea	ecx, DWORD PTR $T5[ebp]
	call	??0?$Vector_3D@M@@QAE@MMM@Z		; Vector_3D<float>::Vector_3D<float>
	mov	DWORD PTR tv139[ebp], eax
	mov	edx, DWORD PTR tv139[ebp]
	mov	DWORD PTR tv180[ebp], edx
	mov	BYTE PTR __$EHRec$[ebp+8], 12		; 0000000cH
	mov	eax, DWORD PTR tv180[ebp]
	push	eax
	push	2
	push	7
	push	299					; 0000012bH
	mov	ecx, OFFSET ?F16ModelData@@3PAUEP_MODEL_DATA@@A+96
	call	??0EP_MODEL_DATA@@QAE@HHHABV?$Vector_3D@M@@@Z ; EP_MODEL_DATA::EP_MODEL_DATA
	mov	BYTE PTR __$EHRec$[ebp+8], 14		; 0000000eH
	lea	ecx, DWORD PTR $T5[ebp]
	call	??1?$Vector_3D@M@@QAE@XZ		; Vector_3D<float>::~Vector_3D<float>
	mov	DWORD PTR __$EHRec$[ebp+8], -1
	push	OFFSET ??__FF16ModelData@@YAXXZ		; `dynamic atexit destructor for 'F16ModelData''
	call	_atexit
	add	esp, 4
	mov	ecx, DWORD PTR __$EHRec$[ebp]
	mov	DWORD PTR fs:0, ecx
	pop	ecx
	mov	ecx, DWORD PTR __$ArrayPad$[ebp]
	xor	ecx, ebp
	call	@__security_check_cookie@4
	mov	esp, ebp
	pop	ebp
	ret	0
text$yc	ENDS
;	COMDAT text$x
text$x	SEGMENT
__unwindfunclet$??__EF16ModelData@@YAXXZ$0:
	lea	ecx, DWORD PTR $T3[ebp]
	jmp	??1?$Vector_3D@M@@QAE@XZ		; Vector_3D<float>::~Vector_3D<float>
__unwindfunclet$??__EF16ModelData@@YAXXZ$1:
	mov	ecx, OFFSET ?F16ModelData@@3PAUEP_MODEL_DATA@@A ; F16ModelData
	jmp	??1EP_MODEL_DATA@@QAE@XZ		; EP_MODEL_DATA::~EP_MODEL_DATA
__unwindfunclet$??__EF16ModelData@@YAXXZ$2:
	lea	ecx, DWORD PTR $T6[ebp]
	jmp	??1?$Vector_3D@M@@QAE@XZ		; Vector_3D<float>::~Vector_3D<float>
__unwindfunclet$??__EF16ModelData@@YAXXZ$3:
	mov	ecx, OFFSET ?F16ModelData@@3PAUEP_MODEL_DATA@@A+24
	jmp	??1EP_MODEL_DATA@@QAE@XZ		; EP_MODEL_DATA::~EP_MODEL_DATA
__unwindfunclet$??__EF16ModelData@@YAXXZ$4:
	lea	ecx, DWORD PTR $T4[ebp]
	jmp	??1?$Vector_3D@M@@QAE@XZ		; Vector_3D<float>::~Vector_3D<float>
__unwindfunclet$??__EF16ModelData@@YAXXZ$5:
	mov	ecx, OFFSET ?F16ModelData@@3PAUEP_MODEL_DATA@@A+48
	jmp	??1EP_MODEL_DATA@@QAE@XZ		; EP_MODEL_DATA::~EP_MODEL_DATA
__unwindfunclet$??__EF16ModelData@@YAXXZ$6:
	lea	ecx, DWORD PTR $T2[ebp]
	jmp	??1?$Vector_3D@M@@QAE@XZ		; Vector_3D<float>::~Vector_3D<float>
__unwindfunclet$??__EF16ModelData@@YAXXZ$7:
	mov	ecx, OFFSET ?F16ModelData@@3PAUEP_MODEL_DATA@@A+72
	jmp	??1EP_MODEL_DATA@@QAE@XZ		; EP_MODEL_DATA::~EP_MODEL_DATA
__unwindfunclet$??__EF16ModelData@@YAXXZ$8:
	lea	ecx, DWORD PTR $T5[ebp]
	jmp	??1?$Vector_3D@M@@QAE@XZ		; Vector_3D<float>::~Vector_3D<float>
__unwindfunclet$??__EF16ModelData@@YAXXZ$9:
	mov	ecx, OFFSET ?F16ModelData@@3PAUEP_MODEL_DATA@@A+96
	jmp	??1EP_MODEL_DATA@@QAE@XZ		; EP_MODEL_DATA::~EP_MODEL_DATA
__ehhandler$??__EF16ModelData@@YAXXZ:
	mov	edx, DWORD PTR [esp+8]
	lea	eax, DWORD PTR [edx+12]
	mov	ecx, DWORD PTR [edx-108]
	xor	ecx, eax
	call	@__security_check_cookie@4
	mov	ecx, DWORD PTR [edx-4]
	xor	ecx, eax
	call	@__security_check_cookie@4
	mov	eax, OFFSET __ehfuncinfo$??__EF16ModelData@@YAXXZ
	jmp	___CxxFrameHandler3
text$x	ENDS
??__EF16ModelData@@YAXXZ ENDP				; `dynamic initializer for 'F16ModelData''
; Function compile flags: /Odtp
; File c:\users\zhitao li\documents\visual studio 2012\projects\freefalcon\falclib\include\fakerand.h
;	COMDAT ?PRANDFloat@@YAMXZ
_TEXT	SEGMENT
tv75 = -8						; size = 4
_x$ = -4						; size = 4
?PRANDFloat@@YAMXZ PROC					; PRANDFloat, COMDAT

; 143  : {

	push	ebp
	mov	ebp, esp
	sub	esp, 8

; 144  : //	return NRAND;
; 145  : 	float	x=	(float)(GenerateFastRandom()&0xffff);

	call	?GenerateFastRandom@@YAJXZ		; GenerateFastRandom
	and	eax, 65535				; 0000ffffH
	cvtsi2ss xmm0, eax
	movss	DWORD PTR _x$[ebp], xmm0

; 146  : 	return( 1 - 2 * x / 65535.0f);

	movss	xmm0, DWORD PTR __real@40000000
	mulss	xmm0, DWORD PTR _x$[ebp]
	divss	xmm0, DWORD PTR __real@477fff00
	movss	xmm1, DWORD PTR __real@3f800000
	subss	xmm1, xmm0
	movss	DWORD PTR tv75[ebp], xmm1
	fld	DWORD PTR tv75[ebp]

; 147  : }

	mov	esp, ebp
	pop	ebp
	ret	0
?PRANDFloat@@YAMXZ ENDP					; PRANDFloat
_TEXT	ENDS
; Function compile flags: /Odtp
; File c:\users\zhitao li\documents\visual studio 2012\projects\freefalcon\falclib\include\fakerand.h
;	COMDAT ?GenerateFastRandom@@YAJXZ
_TEXT	SEGMENT
_FastRandom$ = -4					; size = 4
?GenerateFastRandom@@YAJXZ PROC				; GenerateFastRandom, COMDAT

; 108  : {

	push	ebp
	mov	ebp, esp
	push	ecx

; 109  : 	static long LastRandom;
; 110  : 	long	FastRandom;														// The Random Variable
; 111  : 	_asm {	
; 112  : 			push	edx

	push	edx

; 113  : 			push	eax

	push	eax

; 114  : 			RDTSC

	rdtsc

; 115  : 			add	DWORD PTR FastRandom,edx

	add	DWORD PTR _FastRandom$[ebp], edx

; 116  : 			xor	DWORD PTR FastRandom,eax

	xor	DWORD PTR _FastRandom$[ebp], eax

; 117  : 			mov	eax, DWORD PTR LastRandom

	mov	eax, DWORD PTR ?LastRandom@?1??GenerateFastRandom@@YAJXZ@4JA ; `GenerateFastRandom'::`2'::LastRandom

; 118  : 			add	DWORD PTR FastRandom,eax

	add	DWORD PTR _FastRandom$[ebp], eax

; 119  : 			add	DWORD PTR LastRandom,edx

	add	DWORD PTR ?LastRandom@?1??GenerateFastRandom@@YAJXZ@4JA, edx ; `GenerateFastRandom'::`2'::LastRandom

; 120  : 			pop	eax

	pop	eax

; 121  : 			pop	edx

	pop	edx

; 122  : 	}
; 123  : 	return(FastRandom);

	mov	eax, DWORD PTR _FastRandom$[ebp]

; 124  : }

	mov	esp, ebp
	pop	ebp
	ret	0
?GenerateFastRandom@@YAJXZ ENDP				; GenerateFastRandom
_TEXT	ENDS
; Function compile flags: /Odtp
; File c:\users\zhitao li\documents\visual studio 2012\projects\freefalcon\campaign\include\team.h
;	COMDAT ?GetColor@TeamClass@@QAEHXZ
_TEXT	SEGMENT
_this$ = -4						; size = 4
?GetColor@TeamClass@@QAEHXZ PROC			; TeamClass::GetColor, COMDAT
; _this$ = ecx

; 329  : 	int GetColor (void)							{ return (int) teamColor; }

	push	ebp
	mov	ebp, esp
	push	ecx
	mov	DWORD PTR _this$[ebp], ecx
	mov	eax, DWORD PTR _this$[ebp]
	movzx	eax, BYTE PTR [eax+889]
	mov	esp, ebp
	pop	ebp
	ret	0
?GetColor@TeamClass@@QAEHXZ ENDP			; TeamClass::GetColor
_TEXT	ENDS
; Function compile flags: /Odtp
;	COMDAT ??_GSimVuDriver@@UAEPAXI@Z
_TEXT	SEGMENT
_this$ = -4						; size = 4
___flags$ = 8						; size = 4
??_GSimVuDriver@@UAEPAXI@Z PROC				; SimVuDriver::`scalar deleting destructor', COMDAT
; _this$ = ecx
	push	ebp
	mov	ebp, esp
	push	ecx
	mov	DWORD PTR _this$[ebp], ecx
	mov	ecx, DWORD PTR _this$[ebp]
	call	??1SimVuDriver@@UAE@XZ			; SimVuDriver::~SimVuDriver
	mov	eax, DWORD PTR ___flags$[ebp]
	and	eax, 1
	je	SHORT $LN1@scalar
	mov	ecx, DWORD PTR _this$[ebp]
	push	ecx
	call	??3@YAXPAX@Z				; operator delete
	add	esp, 4
$LN1@scalar:
	mov	eax, DWORD PTR _this$[ebp]
	mov	esp, ebp
	pop	ebp
	ret	4
??_GSimVuDriver@@UAEPAXI@Z ENDP				; SimVuDriver::`scalar deleting destructor'
_TEXT	ENDS
; Function compile flags: /Odtp
; File c:\users\zhitao li\documents\visual studio 2012\projects\freefalcon\sim\include\simvudrv.h
;	COMDAT ??1SimVuDriver@@UAE@XZ
_TEXT	SEGMENT
_this$ = -4						; size = 4
??1SimVuDriver@@UAE@XZ PROC				; SimVuDriver::~SimVuDriver, COMDAT
; _this$ = ecx

; 45   : 	~SimVuDriver (void) {};

	push	ebp
	mov	ebp, esp
	push	ecx
	mov	DWORD PTR _this$[ebp], ecx
	mov	eax, DWORD PTR _this$[ebp]
	mov	DWORD PTR [eax], OFFSET ??_7SimVuDriver@@6B@
	mov	ecx, DWORD PTR _this$[ebp]
	call	??1VuMaster@@UAE@XZ			; VuMaster::~VuMaster
	mov	esp, ebp
	pop	ebp
	ret	0
??1SimVuDriver@@UAE@XZ ENDP				; SimVuDriver::~SimVuDriver
_TEXT	ENDS
; Function compile flags: /Odtp
; File c:\users\zhitao li\documents\visual studio 2012\projects\freefalcon\sim\include\simvudrv.h
;	COMDAT ??0SimVuDriver@@QAE@PAVVuEntity@@@Z
_TEXT	SEGMENT
_this$ = -4						; size = 4
_theEnt$ = 8						; size = 4
??0SimVuDriver@@QAE@PAVVuEntity@@@Z PROC		; SimVuDriver::SimVuDriver, COMDAT
; _this$ = ecx

; 44   : 	SimVuDriver (VuEntity* theEnt) : VuMaster (theEnt) {};

	push	ebp
	mov	ebp, esp
	push	ecx
	mov	DWORD PTR _this$[ebp], ecx
	mov	eax, DWORD PTR _theEnt$[ebp]
	push	eax
	mov	ecx, DWORD PTR _this$[ebp]
	call	??0VuMaster@@QAE@PAVVuEntity@@@Z	; VuMaster::VuMaster
	mov	ecx, DWORD PTR _this$[ebp]
	mov	DWORD PTR [ecx], OFFSET ??_7SimVuDriver@@6B@
	mov	eax, DWORD PTR _this$[ebp]
	mov	esp, ebp
	pop	ebp
	ret	4
??0SimVuDriver@@QAE@PAVVuEntity@@@Z ENDP		; SimVuDriver::SimVuDriver
_TEXT	ENDS
; Function compile flags: /Odtp
; File c:\users\zhitao li\documents\visual studio 2012\projects\freefalcon\acmi\src\include\acmirec.h
;	COMDAT ?IsRecording@ACMIRecorder@@QAEHXZ
_TEXT	SEGMENT
_this$ = -4						; size = 4
?IsRecording@ACMIRecorder@@QAEHXZ PROC			; ACMIRecorder::IsRecording, COMDAT
; _this$ = ecx

; 319  : 	{

	push	ebp
	mov	ebp, esp
	push	ecx
	mov	DWORD PTR _this$[ebp], ecx

; 320  : 		return _recording;

	mov	eax, DWORD PTR _this$[ebp]
	mov	eax, DWORD PTR [eax+8]

; 321  : 	};

	mov	esp, ebp
	pop	ebp
	ret	0
?IsRecording@ACMIRecorder@@QAEHXZ ENDP			; ACMIRecorder::IsRecording
_TEXT	ENDS
; Function compile flags: /Odtp
;	COMDAT ??_GEjectedPilotClass@@UAEPAXI@Z
_TEXT	SEGMENT
_this$ = -4						; size = 4
___flags$ = 8						; size = 4
??_GEjectedPilotClass@@UAEPAXI@Z PROC			; EjectedPilotClass::`scalar deleting destructor', COMDAT
; _this$ = ecx
	push	ebp
	mov	ebp, esp
	push	ecx
	mov	DWORD PTR _this$[ebp], ecx
	mov	ecx, DWORD PTR _this$[ebp]
	call	??1EjectedPilotClass@@UAE@XZ		; EjectedPilotClass::~EjectedPilotClass
	mov	eax, DWORD PTR ___flags$[ebp]
	and	eax, 1
	je	SHORT $LN1@scalar
	mov	ecx, DWORD PTR _this$[ebp]
	push	ecx
	call	??3@YAXPAX@Z				; operator delete
	add	esp, 4
$LN1@scalar:
	mov	eax, DWORD PTR _this$[ebp]
	mov	esp, ebp
	pop	ebp
	ret	4
??_GEjectedPilotClass@@UAEPAXI@Z ENDP			; EjectedPilotClass::`scalar deleting destructor'
_TEXT	ENDS
; Function compile flags: /Odtp
; File c:\users\zhitao li\documents\visual studio 2012\projects\freefalcon\sim\eject\simeject.cpp
_TEXT	SEGMENT
_this$ = -4						; size = 4
?SpewDebugData@EjectedPilotClass@@AAEXXZ PROC		; EjectedPilotClass::SpewDebugData
; _this$ = ecx

; 1828 : {

	push	ebp
	mov	ebp, esp
	push	ecx
	mov	DWORD PTR _this$[ebp], ecx

; 1829 : 	return;
; 1830 : /*
; 1831 : 	unsigned char
; 1832 : 		monoX,
; 1833 : 		monoY;
; 1834 : 
; 1835 : 	if(_isDigital)
; 1836 : 	{
; 1837 : 		return;
; 1838 : 	}
; 1839 : 
; 1840 : 	monoX = 0;
; 1841 : 	monoY = 0;
; 1842 : 
; 1843 : 	// Output miscellaneous data for aircraft.
; 1844 : 	MonoLocate(monoX, monoY++);
; 1845 : 	MonoPrint("Ejection Stage: ");
; 1846 : 	switch(_stage)
; 1847 : 	{
; 1848 : 		case PD_JETTISON_CANOPY :
; 1849 : 		{
; 1850 : 			MonoPrint("Jettison Canopy                                           \n");
; 1851 : 
; 1852 : 			break;
; 1853 : 		}
; 1854 : 		case PD_EJECT_SEAT :
; 1855 : 		{
; 1856 : 			MonoPrint("Eject Seat                                                \n");
; 1857 : 	
; 1858 : 			break;
; 1859 : 		}
; 1860 : 		case PD_FREE_FALL_WITH_SEAT :
; 1861 : 		{
; 1862 : 			MonoPrint("Free Fall 1                                               \n");
; 1863 : 			
; 1864 : 			break;
; 1865 : 		}
; 1866 : 		case PD_CHUTE_OPENING :
; 1867 : 		{
; 1868 : 			MonoPrint("Chute Opening                                             \n");
; 1869 : 			
; 1870 : 			break;
; 1871 : 		}
; 1872 : 		case PD_FREE_FALL_WITH_OPEN_CHUTE :
; 1873 : 		{
; 1874 : 			MonoPrint("Free Fall 2                                               \n");
; 1875 : 			
; 1876 : 			break;
; 1877 : 		}
; 1878 : 		default :
; 1879 : 		{
; 1880 : 			MonoPrint("Unknown Stage                                             \n");
; 1881 : 		}
; 1882 : 	}
; 1883 : 
; 1884 : 	MonoLocate(monoX, monoY++);
; 1885 : 	MonoPrint
; 1886 : 	(
; 1887 : 		"Run Time: %14.4f Delta Time : %14.4f                          \n",
; 1888 : 		_runTime,
; 1889 : 		_deltaTime
; 1890 : 	);
; 1891 : 	MonoLocate(monoX, monoY++);
; 1892 : 	MonoPrint
; 1893 : 	(
; 1894 : 		"Mass    : %14.4f Drag Factor: %14.4f                          \n",
; 1895 : 		Mass(),
; 1896 : 		DragFactor()
; 1897 : 	);
; 1898 : 	
; 1899 : 	// Output motion data for aircraft.
; 1900 : 	if(_aircraft != NULL)
; 1901 : 	{
; 1902 : 		MonoLocate(monoX, monoY++);
; 1903 : 		MonoPrint("Aircraft                                                    \n");
; 1904 : 		MonoLocate(monoX, monoY++);
; 1905 : 		MonoPrint
; 1906 : 		(
; 1907 : 			"    location        : x:%14.4f  y:%14.4f  z:%14.4f\n",
; 1908 : 			_aircraft->XPos(),
; 1909 : 			_aircraft->YPos(),
; 1910 : 			_aircraft->ZPos()
; 1911 : 		);
; 1912 : 		MonoLocate(monoX, monoY++);
; 1913 : 		MonoPrint
; 1914 : 		(
; 1915 : 			"    velocity        : x:%14.4f  y:%14.4f  z:%14.4f\n",
; 1916 : 			_aircraft->XDelta(),
; 1917 : 			_aircraft->YDelta(),
; 1918 : 			_aircraft->ZDelta()
; 1919 : 		);
; 1920 : 		MonoLocate(monoX, monoY++);
; 1921 : 		MonoPrint
; 1922 : 		(
; 1923 : 			"    angle           : y:%14.10f  p:%14.10f  r:%14.10f\n",
; 1924 : 			_aircraft->Roll(),
; 1925 : 			_aircraft->Pitch(),
; 1926 : 			_aircraft->Yaw()
; 1927 : 		);
; 1928 : 		MonoLocate(monoX, monoY++);
; 1929 : 		MonoPrint
; 1930 : 		(
; 1931 : 			"    angular velocity: y:%14.10f  p:%14.10f  r:%14.10f\n",
; 1932 : 			_aircraft->RollDelta(),
; 1933 : 			_aircraft->PitchDelta(),
; 1934 : 			_aircraft->YawDelta()
; 1935 : 		);
; 1936 : 	}
; 1937 : 
; 1938 : 	// Output motion data for pilot.
; 1939 : 	MonoLocate(monoX, monoY++);
; 1940 : 	MonoPrint("Pilot                                                       \n");
; 1941 : 	MonoLocate(monoX, monoY++);
; 1942 : 	MonoPrint
; 1943 : 	(
; 1944 : 		"    location        : x:%14.4f  y:%14.4f  z:%14.4f\n",
; 1945 : 		XPos(),
; 1946 : 		YPos(),
; 1947 : 		ZPos()
; 1948 : 	);
; 1949 : 	MonoLocate(monoX, monoY++);
; 1950 : 	MonoPrint
; 1951 : 	(
; 1952 : 		"    velocity        : x:%14.4f  y:%14.4f  z:%14.4f\n",
; 1953 : 		XDelta(),
; 1954 : 		YDelta(),
; 1955 : 		ZDelta()
; 1956 : 	);
; 1957 : 	MonoLocate(monoX, monoY++);
; 1958 : 	MonoPrint
; 1959 : 	(
; 1960 : 		"    angle           : y:%14.10f  p:%14.10f  r:%14.10f\n",
; 1961 : 		Roll(),
; 1962 : 		Pitch(),
; 1963 : 		Yaw()
; 1964 : 	);
; 1965 : 	MonoLocate(monoX, monoY++);
; 1966 : 	MonoPrint
; 1967 : 	(
; 1968 : 		"    angular velocity: y:%14.10f  p:%14.10f  r:%14.10f\n",
; 1969 : 		RollDelta(),
; 1970 : 		PitchDelta(),
; 1971 : 		YawDelta()
; 1972 : 	);
; 1973 : 	MonoLocate(monoX, monoY);
; 1974 : */
; 1975 : }

	mov	esp, ebp
	pop	ebp
	ret	0
?SpewDebugData@EjectedPilotClass@@AAEXXZ ENDP		; EjectedPilotClass::SpewDebugData
_TEXT	ENDS
; Function compile flags: /Odtp
; File c:\users\zhitao li\documents\visual studio 2012\projects\freefalcon\sim\eject\simeject.cpp
_TEXT	SEGMENT
_this$ = -4						; size = 4
?HitGround@EjectedPilotClass@@AAEXXZ PROC		; EjectedPilotClass::HitGround
; _this$ = ecx

; 803  : {

	push	ebp
	mov	ebp, esp
	push	ecx
	mov	DWORD PTR _this$[ebp], ecx

; 804  : 	if(drawPointer){

	mov	eax, DWORD PTR _this$[ebp]
	cmp	DWORD PTR [eax+332], 0
	je	SHORT $LN3@HitGround

; 805  : 		OTWDriver.RemoveObject(drawPointer, TRUE);

	push	1
	mov	ecx, DWORD PTR _this$[ebp]
	mov	edx, DWORD PTR [ecx+332]
	push	edx
	mov	ecx, OFFSET ?OTWDriver@@3VOTWDriverClass@@A ; OTWDriver
	call	?RemoveObject@OTWDriverClass@@QAEXPAVDrawableObject@@H@Z ; OTWDriverClass::RemoveObject

; 806  : 		drawPointer = NULL;

	mov	eax, DWORD PTR _this$[ebp]
	mov	DWORD PTR [eax+332], 0
$LN3@HitGround:

; 807  : 	}
; 808  : 
; 809  : 	if (_stage != PD_SAFE_LANDING ){

	mov	ecx, DWORD PTR _this$[ebp]
	cmp	DWORD PTR [ecx+692], 6
	je	SHORT $LN2@HitGround

; 810  : 		// No strength left.
; 811  : 		strength = 0.0;

	mov	edx, DWORD PTR _this$[ebp]
	movss	xmm0, DWORD PTR __real@00000000
	movss	DWORD PTR [edx+240], xmm0

; 812  : 		pctStrength = 0.0;

	mov	eax, DWORD PTR _this$[ebp]
	movss	xmm0, DWORD PTR __real@00000000
	movss	DWORD PTR [eax+292], xmm0

; 813  : 
; 814  : 		// Send the death message
; 815  : 		if(_deathMsg != NULL)

	mov	ecx, DWORD PTR _this$[ebp]
	cmp	DWORD PTR [ecx+808], 0
	je	SHORT $LN1@HitGround

; 816  : 		{
; 817  : 			FalconSendMessage (_deathMsg,FALSE);

	push	0
	mov	edx, DWORD PTR _this$[ebp]
	mov	eax, DWORD PTR [edx+808]
	push	eax
	call	?FalconSendMessage@@YAXPAVVuMessage@@H@Z ; FalconSendMessage
	add	esp, 8

; 818  : 			_deathMsg = NULL;

	mov	ecx, DWORD PTR _this$[ebp]
	mov	DWORD PTR [ecx+808], 0
$LN1@HitGround:

; 819  : 		}
; 820  : 
; 821  : 		// Dead.  No countdown.  Just dead.
; 822  : 		dyingTimer = 0.0f;

	mov	edx, DWORD PTR _this$[ebp]
	movss	xmm0, DWORD PTR __real@00000000
	movss	DWORD PTR [edx+248], xmm0
$LN2@HitGround:

; 823  : 	}
; 824  : 
; 825  : 	// Right now, handle the same way whether dead or alive, just destroy
; 826  : 	// the object.
; 827  : 	SetDead(TRUE);

	push	1
	mov	eax, DWORD PTR _this$[ebp]
	mov	edx, DWORD PTR [eax]
	mov	ecx, DWORD PTR _this$[ebp]
	mov	eax, DWORD PTR [edx+364]
	call	eax

; 828  :     SetExploding(TRUE);

	push	1
	mov	ecx, DWORD PTR _this$[ebp]
	call	?SetExploding@SimBaseClass@@QAEXH@Z	; SimBaseClass::SetExploding

; 829  : }

	mov	esp, ebp
	pop	ebp
	ret	0
?HitGround@EjectedPilotClass@@AAEXXZ ENDP		; EjectedPilotClass::HitGround
_TEXT	ENDS
; Function compile flags: /Odtp
; File c:\users\zhitao li\documents\visual studio 2012\projects\freefalcon\sim\eject\simeject.cpp
_TEXT	SEGMENT
tv155 = -16						; size = 4
tv141 = -12						; size = 4
_testHeight$ = -8					; size = 4
_this$ = -4						; size = 4
?HasHitGround@EjectedPilotClass@@ABEHXZ PROC		; EjectedPilotClass::HasHitGround
; _this$ = ecx

; 774  : {

	push	ebp
	mov	ebp, esp
	sub	esp, 16					; 00000010H
	mov	DWORD PTR _this$[ebp], ecx

; 775  : 	float testHeight;
; 776  : 
; 777  : 	// We could linearly extrapolate based on the current frame time
; 778  : 	// and velocity to keep the pilot from going underground.
; 779  : 
; 780  :    testHeight = _pos[I_Z];

	push	2
	mov	ecx, DWORD PTR _this$[ebp]
	add	ecx, 724				; 000002d4H
	call	??A?$Vector_3D@M@@QBEABMH@Z		; Vector_3D<float>::operator[]
	movss	xmm0, DWORD PTR [eax]
	movss	DWORD PTR _testHeight$[ebp], xmm0

; 781  : 
; 782  :    if (_stage > PD_CHUTE_OPENING)

	mov	eax, DWORD PTR _this$[ebp]
	cmp	DWORD PTR [eax+692], 3
	jle	SHORT $LN3@HasHitGrou

; 783  :    {
; 784  : 	  if (drawPointer)

	mov	ecx, DWORD PTR _this$[ebp]
	cmp	DWORD PTR [ecx+332], 0
	je	SHORT $LN4@HasHitGrou

; 785  : 	  {
; 786  : 		testHeight += drawPointer->Radius() * 0.5f;

	mov	edx, DWORD PTR _this$[ebp]
	mov	ecx, DWORD PTR [edx+332]
	call	?Radius@DrawableObject@@QBEMXZ		; DrawableObject::Radius
	fstp	DWORD PTR tv141[ebp]
	movss	xmm0, DWORD PTR tv141[ebp]
	mulss	xmm0, DWORD PTR __real@3f000000
	addss	xmm0, DWORD PTR _testHeight$[ebp]
	movss	DWORD PTR _testHeight$[ebp], xmm0

; 787  : 	  }
; 788  : 	  else

	jmp	SHORT $LN3@HasHitGrou
$LN4@HasHitGrou:

; 789  : 	  {
; 790  : 		  testHeight = 100.0f;

	movss	xmm0, DWORD PTR __real@42c80000
	movss	DWORD PTR _testHeight$[ebp], xmm0
$LN3@HasHitGrou:

; 791  : 	  }
; 792  :    }
; 793  :    
; 794  : 	// TODO: do a cheaper ground height check 1st
; 795  : 	if (testHeight  >= OTWDriver.GetGroundLevel(_pos[I_X], _pos[I_Y])) {

	push	0
	push	1
	mov	ecx, DWORD PTR _this$[ebp]
	add	ecx, 724				; 000002d4H
	call	??A?$Vector_3D@M@@QBEABMH@Z		; Vector_3D<float>::operator[]
	push	ecx
	movss	xmm0, DWORD PTR [eax]
	movss	DWORD PTR [esp], xmm0
	push	0
	mov	ecx, DWORD PTR _this$[ebp]
	add	ecx, 724				; 000002d4H
	call	??A?$Vector_3D@M@@QBEABMH@Z		; Vector_3D<float>::operator[]
	push	ecx
	movss	xmm0, DWORD PTR [eax]
	movss	DWORD PTR [esp], xmm0
	mov	ecx, OFFSET ?OTWDriver@@3VOTWDriverClass@@A ; OTWDriver
	call	?GetGroundLevel@OTWDriverClass@@QAEMMMPAUTpoint@@@Z ; OTWDriverClass::GetGroundLevel
	fstp	DWORD PTR tv155[ebp]
	movss	xmm0, DWORD PTR _testHeight$[ebp]
	comiss	xmm0, DWORD PTR tv155[ebp]
	jb	SHORT $LN2@HasHitGrou

; 796  : 		return TRUE;

	mov	eax, 1
	jmp	SHORT $LN1@HasHitGrou

; 797  : 	} else {

	jmp	SHORT $LN1@HasHitGrou
$LN2@HasHitGrou:

; 798  : 		return FALSE;

	xor	eax, eax
$LN1@HasHitGrou:

; 799  : 	}
; 800  : }

	mov	esp, ebp
	pop	ebp
	ret	0
?HasHitGround@EjectedPilotClass@@ABEHXZ ENDP		; EjectedPilotClass::HasHitGround
_TEXT	ENDS
; Function compile flags: /Odtp
; File c:\users\zhitao li\documents\visual studio 2012\projects\freefalcon\sim\eject\simeject.cpp
_TEXT	SEGMENT
tv178 = -96						; size = 4
tv144 = -92						; size = 4
tv65 = -88						; size = 4
tv174 = -84						; size = 4
_this$ = -80						; size = 4
_rot$ = -76						; size = 36
$T2 = -40						; size = 12
_hdg$ = -28						; size = 12
__$ArrayPad$ = -16					; size = 4
__$EHRec$ = -12						; size = 12
?ZeroPitchAndRoll@EjectedPilotClass@@AAEXXZ PROC	; EjectedPilotClass::ZeroPitchAndRoll
; _this$ = ecx

; 1759 : {

	push	ebp
	mov	ebp, esp
	push	-1
	push	__ehhandler$?ZeroPitchAndRoll@EjectedPilotClass@@AAEXXZ
	mov	eax, DWORD PTR fs:0
	push	eax
	sub	esp, 84					; 00000054H
	mov	eax, DWORD PTR ___security_cookie
	xor	eax, ebp
	mov	DWORD PTR __$ArrayPad$[ebp], eax
	push	eax
	lea	eax, DWORD PTR __$EHRec$[ebp]
	mov	DWORD PTR fs:0, eax
	mov	DWORD PTR _this$[ebp], ecx

; 1760 : 	Trotation
; 1761 : 		rot;
; 1762 : 
; 1763 : 	EP_VECTOR
; 1764 : 		hdg;

	lea	ecx, DWORD PTR _hdg$[ebp]
	call	??0?$Vector_3D@M@@QAE@XZ		; Vector_3D<float>::Vector_3D<float>
	mov	DWORD PTR __$EHRec$[ebp+8], 0

; 1765 : 
; 1766 : 	_rot.GetTrotation(rot);

	lea	eax, DWORD PTR _rot$[ebp]
	push	eax
	mov	ecx, DWORD PTR _this$[ebp]
	add	ecx, 736				; 000002e0H
	call	?GetTrotation@?$Vector_3D@M@@QBEXAAUTrotation@@@Z ; Vector_3D<float>::GetTrotation

; 1767 : 
; 1768 : 	_rot[I_ROLL] = 0.0;

	push	0
	mov	ecx, DWORD PTR _this$[ebp]
	add	ecx, 736				; 000002e0H
	call	??A?$Vector_3D@M@@QAEAAMH@Z		; Vector_3D<float>::operator[]
	movss	xmm0, DWORD PTR __real@00000000
	movss	DWORD PTR [eax], xmm0

; 1769 : 	_rot[I_PITCH] = 0.0;

	push	1
	mov	ecx, DWORD PTR _this$[ebp]
	add	ecx, 736				; 000002e0H
	call	??A?$Vector_3D@M@@QAEAAMH@Z		; Vector_3D<float>::operator[]
	movss	xmm0, DWORD PTR __real@00000000
	movss	DWORD PTR [eax], xmm0

; 1770 : 
; 1771 : 	// Find heading and set yaw to current heading.
; 1772 : 	if(rot.M21 == 0.0)

	cvtss2sd xmm0, DWORD PTR _rot$[ebp+12]
	ucomisd	xmm0, QWORD PTR __real@0000000000000000
	lahf
	test	ah, 68					; 00000044H
	jp	SHORT $LN2@ZeroPitchA

; 1773 : 	{
; 1774 : 		_rot[I_YAW] = 0.0;

	push	2
	mov	ecx, DWORD PTR _this$[ebp]
	add	ecx, 736				; 000002e0H
	call	??A?$Vector_3D@M@@QAEAAMH@Z		; Vector_3D<float>::operator[]
	movss	xmm0, DWORD PTR __real@00000000
	movss	DWORD PTR [eax], xmm0

; 1775 : 	}
; 1776 : 	else

	jmp	$LN1@ZeroPitchA
$LN2@ZeroPitchA:

; 1777 : 	{
; 1778 : 		hdg = EP_VECTOR
; 1779 : 		(
; 1780 : 			rot.M11,
; 1781 : 			rot.M21,
; 1782 : 			0
; 1783 : 		);

	push	ecx
	movss	xmm0, DWORD PTR __real@00000000
	movss	DWORD PTR [esp], xmm0
	push	ecx
	movss	xmm0, DWORD PTR _rot$[ebp+12]
	movss	DWORD PTR [esp], xmm0
	push	ecx
	movss	xmm0, DWORD PTR _rot$[ebp]
	movss	DWORD PTR [esp], xmm0
	lea	ecx, DWORD PTR $T2[ebp]
	call	??0?$Vector_3D@M@@QAE@MMM@Z		; Vector_3D<float>::Vector_3D<float>
	mov	DWORD PTR tv65[ebp], eax
	mov	ecx, DWORD PTR tv65[ebp]
	mov	DWORD PTR tv144[ebp], ecx
	mov	BYTE PTR __$EHRec$[ebp+8], 1
	mov	edx, DWORD PTR tv144[ebp]
	push	edx
	lea	ecx, DWORD PTR _hdg$[ebp]
	call	??4?$Vector_3D@M@@QAEAAV0@ABV0@@Z	; Vector_3D<float>::operator=
	mov	BYTE PTR __$EHRec$[ebp+8], 0
	lea	ecx, DWORD PTR $T2[ebp]
	call	??1?$Vector_3D@M@@QAE@XZ		; Vector_3D<float>::~Vector_3D<float>

; 1784 : 		hdg.Normalize();

	lea	ecx, DWORD PTR _hdg$[ebp]
	call	?Normalize@?$Vector_3D@M@@QAEXXZ	; Vector_3D<float>::Normalize

; 1785 : 
; 1786 : 		_rot[I_YAW] = (float)atan2(hdg[I_Y], hdg[I_X]);

	push	0
	lea	ecx, DWORD PTR _hdg$[ebp]
	call	??A?$Vector_3D@M@@QAEAAMH@Z		; Vector_3D<float>::operator[]
	cvtss2sd xmm0, DWORD PTR [eax]
	sub	esp, 8
	movsd	QWORD PTR [esp], xmm0
	push	1
	lea	ecx, DWORD PTR _hdg$[ebp]
	call	??A?$Vector_3D@M@@QAEAAMH@Z		; Vector_3D<float>::operator[]
	cvtss2sd xmm0, DWORD PTR [eax]
	sub	esp, 8
	movsd	QWORD PTR [esp], xmm0
	call	?checked_atan2@@YANNN@Z			; checked_atan2
	add	esp, 16					; 00000010H
	fstp	DWORD PTR tv174[ebp]
	fld	DWORD PTR tv174[ebp]
	push	2
	mov	ecx, DWORD PTR _this$[ebp]
	add	ecx, 736				; 000002e0H
	fstp	DWORD PTR tv178[ebp]
	call	??A?$Vector_3D@M@@QAEAAMH@Z		; Vector_3D<float>::operator[]
	fld	DWORD PTR tv178[ebp]
	fstp	DWORD PTR [eax]
$LN1@ZeroPitchA:

; 1787 : 	}
; 1788 : }

	mov	DWORD PTR __$EHRec$[ebp+8], -1
	lea	ecx, DWORD PTR _hdg$[ebp]
	call	??1?$Vector_3D@M@@QAE@XZ		; Vector_3D<float>::~Vector_3D<float>
	mov	ecx, DWORD PTR __$EHRec$[ebp]
	mov	DWORD PTR fs:0, ecx
	pop	ecx
	mov	ecx, DWORD PTR __$ArrayPad$[ebp]
	xor	ecx, ebp
	call	@__security_check_cookie@4
	mov	esp, ebp
	pop	ebp
	ret	0
_TEXT	ENDS
text$x	SEGMENT
__unwindfunclet$?ZeroPitchAndRoll@EjectedPilotClass@@AAEXXZ$0:
	lea	ecx, DWORD PTR _hdg$[ebp]
	jmp	??1?$Vector_3D@M@@QAE@XZ		; Vector_3D<float>::~Vector_3D<float>
__unwindfunclet$?ZeroPitchAndRoll@EjectedPilotClass@@AAEXXZ$1:
	lea	ecx, DWORD PTR $T2[ebp]
	jmp	??1?$Vector_3D@M@@QAE@XZ		; Vector_3D<float>::~Vector_3D<float>
__ehhandler$?ZeroPitchAndRoll@EjectedPilotClass@@AAEXXZ:
	mov	edx, DWORD PTR [esp+8]
	lea	eax, DWORD PTR [edx+12]
	mov	ecx, DWORD PTR [edx-88]
	xor	ecx, eax
	call	@__security_check_cookie@4
	mov	ecx, DWORD PTR [edx-4]
	xor	ecx, eax
	call	@__security_check_cookie@4
	mov	eax, OFFSET __ehfuncinfo$?ZeroPitchAndRoll@EjectedPilotClass@@AAEXXZ
	jmp	___CxxFrameHandler3
text$x	ENDS
?ZeroPitchAndRoll@EjectedPilotClass@@AAEXXZ ENDP	; EjectedPilotClass::ZeroPitchAndRoll
; Function compile flags: /Odtp
; File c:\users\zhitao li\documents\visual studio 2012\projects\freefalcon\sim\eject\simeject.cpp
_TEXT	SEGMENT
tv160 = -28						; size = 4
tv149 = -24						; size = 4
tv138 = -20						; size = 4
tv95 = -16						; size = 4
tv84 = -12						; size = 4
tv73 = -8						; size = 4
_this$ = -4						; size = 4
?FixOrientationRange@EjectedPilotClass@@AAEXXZ PROC	; EjectedPilotClass::FixOrientationRange
; _this$ = ecx

; 1795 : {

	push	ebp
	mov	ebp, esp
	sub	esp, 28					; 0000001cH
	mov	DWORD PTR _this$[ebp], ecx
$LN12@FixOrienta:

; 1796 : 	// This can be done with math instead of iteratively.
; 1797 : 	while(_rot[I_YAW] > TWO_PI)

	push	2
	mov	ecx, DWORD PTR _this$[ebp]
	add	ecx, 736				; 000002e0H
	call	??A?$Vector_3D@M@@QAEAAMH@Z		; Vector_3D<float>::operator[]
	movss	xmm0, DWORD PTR [eax]
	comiss	xmm0, DWORD PTR __real@40c90fdb
	jbe	SHORT $LN11@FixOrienta

; 1798 : 	{
; 1799 : 		_rot[I_YAW] -= TWO_PI;

	push	2
	mov	ecx, DWORD PTR _this$[ebp]
	add	ecx, 736				; 000002e0H
	call	??A?$Vector_3D@M@@QAEAAMH@Z		; Vector_3D<float>::operator[]
	mov	DWORD PTR tv73[ebp], eax
	mov	eax, DWORD PTR tv73[ebp]
	movss	xmm0, DWORD PTR [eax]
	subss	xmm0, DWORD PTR __real@40c90fdb
	mov	ecx, DWORD PTR tv73[ebp]
	movss	DWORD PTR [ecx], xmm0

; 1800 : 	}

	jmp	SHORT $LN12@FixOrienta
$LN11@FixOrienta:

; 1801 : 	while(_rot[I_YAW] < -TWO_PI)

	push	2
	mov	ecx, DWORD PTR _this$[ebp]
	add	ecx, 736				; 000002e0H
	call	??A?$Vector_3D@M@@QAEAAMH@Z		; Vector_3D<float>::operator[]
	movss	xmm0, DWORD PTR __real@c0c90fdb
	comiss	xmm0, DWORD PTR [eax]
	jbe	SHORT $LN9@FixOrienta

; 1802 : 	{
; 1803 : 		_rot[I_YAW] += TWO_PI;

	push	2
	mov	ecx, DWORD PTR _this$[ebp]
	add	ecx, 736				; 000002e0H
	call	??A?$Vector_3D@M@@QAEAAMH@Z		; Vector_3D<float>::operator[]
	mov	DWORD PTR tv84[ebp], eax
	mov	edx, DWORD PTR tv84[ebp]
	movss	xmm0, DWORD PTR [edx]
	addss	xmm0, DWORD PTR __real@40c90fdb
	mov	eax, DWORD PTR tv84[ebp]
	movss	DWORD PTR [eax], xmm0

; 1804 : 	}

	jmp	SHORT $LN11@FixOrienta
$LN9@FixOrienta:

; 1805 : 	while(_rot[I_PITCH] > TWO_PI)

	push	1
	mov	ecx, DWORD PTR _this$[ebp]
	add	ecx, 736				; 000002e0H
	call	??A?$Vector_3D@M@@QAEAAMH@Z		; Vector_3D<float>::operator[]
	movss	xmm0, DWORD PTR [eax]
	comiss	xmm0, DWORD PTR __real@40c90fdb
	jbe	SHORT $LN7@FixOrienta

; 1806 : 	{
; 1807 : 		_rot[I_PITCH] -= TWO_PI;

	push	1
	mov	ecx, DWORD PTR _this$[ebp]
	add	ecx, 736				; 000002e0H
	call	??A?$Vector_3D@M@@QAEAAMH@Z		; Vector_3D<float>::operator[]
	mov	DWORD PTR tv95[ebp], eax
	mov	ecx, DWORD PTR tv95[ebp]
	movss	xmm0, DWORD PTR [ecx]
	subss	xmm0, DWORD PTR __real@40c90fdb
	mov	edx, DWORD PTR tv95[ebp]
	movss	DWORD PTR [edx], xmm0

; 1808 : 	}

	jmp	SHORT $LN9@FixOrienta
$LN7@FixOrienta:

; 1809 : 	while(_rot[I_PITCH] < -TWO_PI)

	push	1
	mov	ecx, DWORD PTR _this$[ebp]
	add	ecx, 736				; 000002e0H
	call	??A?$Vector_3D@M@@QAEAAMH@Z		; Vector_3D<float>::operator[]
	movss	xmm0, DWORD PTR __real@c0c90fdb
	comiss	xmm0, DWORD PTR [eax]
	jbe	SHORT $LN5@FixOrienta

; 1810 : 	{
; 1811 : 		_rot[I_PITCH] += TWO_PI;

	push	1
	mov	ecx, DWORD PTR _this$[ebp]
	add	ecx, 736				; 000002e0H
	call	??A?$Vector_3D@M@@QAEAAMH@Z		; Vector_3D<float>::operator[]
	mov	DWORD PTR tv138[ebp], eax
	mov	eax, DWORD PTR tv138[ebp]
	movss	xmm0, DWORD PTR [eax]
	addss	xmm0, DWORD PTR __real@40c90fdb
	mov	ecx, DWORD PTR tv138[ebp]
	movss	DWORD PTR [ecx], xmm0

; 1812 : 	}

	jmp	SHORT $LN7@FixOrienta
$LN5@FixOrienta:

; 1813 : 	while(_rot[I_ROLL] > TWO_PI)

	push	0
	mov	ecx, DWORD PTR _this$[ebp]
	add	ecx, 736				; 000002e0H
	call	??A?$Vector_3D@M@@QAEAAMH@Z		; Vector_3D<float>::operator[]
	movss	xmm0, DWORD PTR [eax]
	comiss	xmm0, DWORD PTR __real@40c90fdb
	jbe	SHORT $LN3@FixOrienta

; 1814 : 	{
; 1815 : 		_rot[I_ROLL] -= TWO_PI;

	push	0
	mov	ecx, DWORD PTR _this$[ebp]
	add	ecx, 736				; 000002e0H
	call	??A?$Vector_3D@M@@QAEAAMH@Z		; Vector_3D<float>::operator[]
	mov	DWORD PTR tv149[ebp], eax
	mov	edx, DWORD PTR tv149[ebp]
	movss	xmm0, DWORD PTR [edx]
	subss	xmm0, DWORD PTR __real@40c90fdb
	mov	eax, DWORD PTR tv149[ebp]
	movss	DWORD PTR [eax], xmm0

; 1816 : 	}

	jmp	SHORT $LN5@FixOrienta
$LN3@FixOrienta:

; 1817 : 	while(_rot[I_ROLL] < -TWO_PI)

	push	0
	mov	ecx, DWORD PTR _this$[ebp]
	add	ecx, 736				; 000002e0H
	call	??A?$Vector_3D@M@@QAEAAMH@Z		; Vector_3D<float>::operator[]
	movss	xmm0, DWORD PTR __real@c0c90fdb
	comiss	xmm0, DWORD PTR [eax]
	jbe	SHORT $LN1@FixOrienta

; 1818 : 	{
; 1819 : 		_rot[I_ROLL] += TWO_PI;

	push	0
	mov	ecx, DWORD PTR _this$[ebp]
	add	ecx, 736				; 000002e0H
	call	??A?$Vector_3D@M@@QAEAAMH@Z		; Vector_3D<float>::operator[]
	mov	DWORD PTR tv160[ebp], eax
	mov	ecx, DWORD PTR tv160[ebp]
	movss	xmm0, DWORD PTR [ecx]
	addss	xmm0, DWORD PTR __real@40c90fdb
	mov	edx, DWORD PTR tv160[ebp]
	movss	DWORD PTR [edx], xmm0

; 1820 : 	}

	jmp	SHORT $LN3@FixOrienta
$LN1@FixOrienta:

; 1821 : }

	mov	esp, ebp
	pop	ebp
	ret	0
?FixOrientationRange@EjectedPilotClass@@AAEXXZ ENDP	; EjectedPilotClass::FixOrientationRange
_TEXT	ENDS
; Function compile flags: /Odtp
; File c:\users\zhitao li\documents\visual studio 2012\projects\freefalcon\sim\eject\simeject.cpp
_TEXT	SEGMENT
tv142 = -152						; size = 4
tv154 = -148						; size = 4
tv149 = -144						; size = 4
tv159 = -140						; size = 4
tv65 = -136						; size = 4
tv141 = -132						; size = 4
tv163 = -128						; size = 4
tv139 = -124						; size = 4
_fudge$ = -120						; size = 4
_this$ = -116						; size = 4
_rot$ = -112						; size = 36
$T2 = -76						; size = 12
_modelEject$ = -64					; size = 12
_worldEject$ = -52					; size = 12
$T3 = -40						; size = 12
_dir$ = -28						; size = 12
__$ArrayPad$ = -16					; size = 4
__$EHRec$ = -12						; size = 12
_result$ = 8						; size = 4
?CalculateEjectionVector@EjectedPilotClass@@ABEXAAV?$Vector_3D@M@@@Z PROC ; EjectedPilotClass::CalculateEjectionVector
; _this$ = ecx

; 1727 : {

	push	ebp
	mov	ebp, esp
	push	-1
	push	__ehhandler$?CalculateEjectionVector@EjectedPilotClass@@ABEXAAV?$Vector_3D@M@@@Z
	mov	eax, DWORD PTR fs:0
	push	eax
	sub	esp, 140				; 0000008cH
	mov	eax, DWORD PTR ___security_cookie
	xor	eax, ebp
	mov	DWORD PTR __$ArrayPad$[ebp], eax
	push	eax
	lea	eax, DWORD PTR __$EHRec$[ebp]
	mov	DWORD PTR fs:0, eax
	mov	DWORD PTR _this$[ebp], ecx

; 1728 : 	Trotation
; 1729 : 		rot;
; 1730 : 
; 1731 : 	Tpoint
; 1732 : 		modelEject,
; 1733 : 		worldEject;
; 1734 : 
; 1735 : 	EP_VECTOR
; 1736 : 		dir;

	lea	ecx, DWORD PTR _dir$[ebp]
	call	??0?$Vector_3D@M@@QAE@XZ		; Vector_3D<float>::Vector_3D<float>
	mov	DWORD PTR __$EHRec$[ebp+8], 0

; 1737 : 
; 1738 : 	float fudge = 30 * PRANDFloat() * DTR;

	call	?PRANDFloat@@YAMXZ			; PRANDFloat
	fstp	DWORD PTR tv149[ebp]
	movss	xmm0, DWORD PTR tv149[ebp]
	mulss	xmm0, DWORD PTR __real@41f00000
	mulss	xmm0, DWORD PTR __real@3c8efa34
	movss	DWORD PTR _fudge$[ebp], xmm0

; 1739 : 	dir = 
; 1740 : 	EP_VECTOR
; 1741 : 	(
; 1742 : 		(float)cos(EjectAngle()+fudge),
; 1743 : 		0,
; 1744 : 		-(float)sin(EjectAngle()+fudge)
; 1745 : 	);

	mov	ecx, DWORD PTR _this$[ebp]
	call	?EjectAngle@EjectedPilotClass@@ABEMXZ	; EjectedPilotClass::EjectAngle
	fstp	DWORD PTR tv154[ebp]
	movss	xmm0, DWORD PTR tv154[ebp]
	addss	xmm0, DWORD PTR _fudge$[ebp]
	push	ecx
	movss	DWORD PTR [esp], xmm0
	call	?sin@@YAMM@Z				; sin
	add	esp, 4
	fstp	DWORD PTR tv159[ebp]
	movss	xmm0, DWORD PTR tv159[ebp]
	xorps	xmm0, DWORD PTR __xmm@80000000800000008000000080000000
	push	ecx
	movss	DWORD PTR [esp], xmm0
	push	ecx
	movss	xmm0, DWORD PTR __real@00000000
	movss	DWORD PTR [esp], xmm0
	mov	ecx, DWORD PTR _this$[ebp]
	call	?EjectAngle@EjectedPilotClass@@ABEMXZ	; EjectedPilotClass::EjectAngle
	fstp	DWORD PTR tv163[ebp]
	movss	xmm0, DWORD PTR tv163[ebp]
	addss	xmm0, DWORD PTR _fudge$[ebp]
	push	ecx
	movss	DWORD PTR [esp], xmm0
	call	?cos@@YAMM@Z				; cos
	fstp	DWORD PTR [esp]
	lea	ecx, DWORD PTR $T3[ebp]
	call	??0?$Vector_3D@M@@QAE@MMM@Z		; Vector_3D<float>::Vector_3D<float>
	mov	DWORD PTR tv65[ebp], eax
	mov	eax, DWORD PTR tv65[ebp]
	mov	DWORD PTR tv139[ebp], eax
	mov	BYTE PTR __$EHRec$[ebp+8], 1
	mov	ecx, DWORD PTR tv139[ebp]
	push	ecx
	lea	ecx, DWORD PTR _dir$[ebp]
	call	??4?$Vector_3D@M@@QAEAAV0@ABV0@@Z	; Vector_3D<float>::operator=
	mov	BYTE PTR __$EHRec$[ebp+8], 0
	lea	ecx, DWORD PTR $T3[ebp]
	call	??1?$Vector_3D@M@@QAE@XZ		; Vector_3D<float>::~Vector_3D<float>

; 1746 : 
; 1747 : 	_rot.GetTrotation(rot);

	lea	edx, DWORD PTR _rot$[ebp]
	push	edx
	mov	ecx, DWORD PTR _this$[ebp]
	add	ecx, 736				; 000002e0H
	call	?GetTrotation@?$Vector_3D@M@@QBEXAAUTrotation@@@Z ; Vector_3D<float>::GetTrotation

; 1748 : 	dir.GetTpoint(modelEject);

	lea	eax, DWORD PTR _modelEject$[ebp]
	push	eax
	lea	ecx, DWORD PTR _dir$[ebp]
	call	?GetTpoint@?$Vector_3D@M@@QBEXAAUTpoint@@@Z ; Vector_3D<float>::GetTpoint

; 1749 : 	MatrixMult(&rot, &modelEject, &worldEject);

	lea	ecx, DWORD PTR _worldEject$[ebp]
	push	ecx
	lea	edx, DWORD PTR _modelEject$[ebp]
	push	edx
	lea	eax, DWORD PTR _rot$[ebp]
	push	eax
	call	?MatrixMult@@YAXPBUTrotation@@PBUTpoint@@PAU2@@Z ; MatrixMult
	add	esp, 12					; 0000000cH

; 1750 : 
; 1751 : 	result = EP_VECTOR(worldEject);

	lea	ecx, DWORD PTR _worldEject$[ebp]
	push	ecx
	lea	ecx, DWORD PTR $T2[ebp]
	call	??0?$Vector_3D@M@@QAE@ABUTpoint@@@Z	; Vector_3D<float>::Vector_3D<float>
	mov	DWORD PTR tv142[ebp], eax
	mov	edx, DWORD PTR tv142[ebp]
	mov	DWORD PTR tv141[ebp], edx
	mov	BYTE PTR __$EHRec$[ebp+8], 2
	mov	eax, DWORD PTR tv141[ebp]
	push	eax
	mov	ecx, DWORD PTR _result$[ebp]
	call	??4?$Vector_3D@M@@QAEAAV0@ABV0@@Z	; Vector_3D<float>::operator=
	mov	BYTE PTR __$EHRec$[ebp+8], 0
	lea	ecx, DWORD PTR $T2[ebp]
	call	??1?$Vector_3D@M@@QAE@XZ		; Vector_3D<float>::~Vector_3D<float>

; 1752 : }

	mov	DWORD PTR __$EHRec$[ebp+8], -1
	lea	ecx, DWORD PTR _dir$[ebp]
	call	??1?$Vector_3D@M@@QAE@XZ		; Vector_3D<float>::~Vector_3D<float>
	mov	ecx, DWORD PTR __$EHRec$[ebp]
	mov	DWORD PTR fs:0, ecx
	pop	ecx
	mov	ecx, DWORD PTR __$ArrayPad$[ebp]
	xor	ecx, ebp
	call	@__security_check_cookie@4
	mov	esp, ebp
	pop	ebp
	ret	4
_TEXT	ENDS
text$x	SEGMENT
__unwindfunclet$?CalculateEjectionVector@EjectedPilotClass@@ABEXAAV?$Vector_3D@M@@@Z$0:
	lea	ecx, DWORD PTR _dir$[ebp]
	jmp	??1?$Vector_3D@M@@QAE@XZ		; Vector_3D<float>::~Vector_3D<float>
__unwindfunclet$?CalculateEjectionVector@EjectedPilotClass@@ABEXAAV?$Vector_3D@M@@@Z$1:
	lea	ecx, DWORD PTR $T3[ebp]
	jmp	??1?$Vector_3D@M@@QAE@XZ		; Vector_3D<float>::~Vector_3D<float>
__unwindfunclet$?CalculateEjectionVector@EjectedPilotClass@@ABEXAAV?$Vector_3D@M@@@Z$2:
	lea	ecx, DWORD PTR $T2[ebp]
	jmp	??1?$Vector_3D@M@@QAE@XZ		; Vector_3D<float>::~Vector_3D<float>
__ehhandler$?CalculateEjectionVector@EjectedPilotClass@@ABEXAAV?$Vector_3D@M@@@Z:
	mov	edx, DWORD PTR [esp+8]
	lea	eax, DWORD PTR [edx+12]
	mov	ecx, DWORD PTR [edx-144]
	xor	ecx, eax
	call	@__security_check_cookie@4
	mov	ecx, DWORD PTR [edx-4]
	xor	ecx, eax
	call	@__security_check_cookie@4
	mov	eax, OFFSET __ehfuncinfo$?CalculateEjectionVector@EjectedPilotClass@@ABEXAAV?$Vector_3D@M@@@Z
	jmp	___CxxFrameHandler3
text$x	ENDS
?CalculateEjectionVector@EjectedPilotClass@@ABEXAAV?$Vector_3D@M@@@Z ENDP ; EjectedPilotClass::CalculateEjectionVector
; Function compile flags: /Odtp
; File c:\users\zhitao li\documents\visual studio 2012\projects\freefalcon\sim\eject\simeject.cpp
_TEXT	SEGMENT
tv88 = -12						; size = 4
tv83 = -8						; size = 4
_this$ = -4						; size = 4
_result$ = 8						; size = 4
?CalculateGravityVector@EjectedPilotClass@@ABEXAAV?$Vector_3D@M@@@Z PROC ; EjectedPilotClass::CalculateGravityVector
; _this$ = ecx

; 1715 : {

	push	ebp
	mov	ebp, esp
	sub	esp, 12					; 0000000cH
	mov	DWORD PTR _this$[ebp], ecx

; 1716 : 	// This one's easy.
; 1717 : 	result[I_X] = 0;

	push	0
	mov	ecx, DWORD PTR _result$[ebp]
	call	??A?$Vector_3D@M@@QAEAAMH@Z		; Vector_3D<float>::operator[]
	movss	xmm0, DWORD PTR __real@00000000
	movss	DWORD PTR [eax], xmm0

; 1718 : 	result[I_Y] = 0;

	push	1
	mov	ecx, DWORD PTR _result$[ebp]
	call	??A?$Vector_3D@M@@QAEAAMH@Z		; Vector_3D<float>::operator[]
	movss	xmm0, DWORD PTR __real@00000000
	movss	DWORD PTR [eax], xmm0

; 1719 : 	result[I_Z] = GRAVITY_ACCEL * Mass();

	mov	ecx, DWORD PTR _this$[ebp]
	call	?Mass@EjectedPilotClass@@ABEMXZ		; EjectedPilotClass::Mass
	fstp	DWORD PTR tv83[ebp]
	movss	xmm0, DWORD PTR tv83[ebp]
	mulss	xmm0, DWORD PTR __real@4200cccd
	push	2
	mov	ecx, DWORD PTR _result$[ebp]
	movss	DWORD PTR tv88[ebp], xmm0
	call	??A?$Vector_3D@M@@QAEAAMH@Z		; Vector_3D<float>::operator[]
	movss	xmm0, DWORD PTR tv88[ebp]
	movss	DWORD PTR [eax], xmm0

; 1720 : }

	mov	esp, ebp
	pop	ebp
	ret	4
?CalculateGravityVector@EjectedPilotClass@@ABEXAAV?$Vector_3D@M@@@Z ENDP ; EjectedPilotClass::CalculateGravityVector
_TEXT	ENDS
; Function compile flags: /Odtp
; File c:\users\zhitao li\documents\visual studio 2012\projects\freefalcon\sim\eject\simeject.cpp
_TEXT	SEGMENT
tv237 = -100						; size = 4
tv173 = -96						; size = 4
tv65 = -92						; size = 4
tv233 = -88						; size = 4
tv176 = -84						; size = 4
tv175 = -80						; size = 4
_windHdg$ = -76						; size = 4
_relSpeed$ = -72					; size = 4
_this$ = -68						; size = 4
$T2 = -64						; size = 12
$T3 = -52						; size = 12
_pos$ = -40						; size = 12
_windVelocity$ = -28					; size = 12
__$ArrayPad$ = -16					; size = 4
__$EHRec$ = -12						; size = 12
_result$ = 8						; size = 4
?CalculateDragVector@EjectedPilotClass@@ABEXAAV?$Vector_3D@M@@@Z PROC ; EjectedPilotClass::CalculateDragVector
; _this$ = ecx

; 1665 : {

	push	ebp
	mov	ebp, esp
	push	-1
	push	__ehhandler$?CalculateDragVector@EjectedPilotClass@@ABEXAAV?$Vector_3D@M@@@Z
	mov	eax, DWORD PTR fs:0
	push	eax
	sub	esp, 88					; 00000058H
	mov	eax, DWORD PTR ___security_cookie
	xor	eax, ebp
	mov	DWORD PTR __$ArrayPad$[ebp], eax
	push	eax
	lea	eax, DWORD PTR __$EHRec$[ebp]
	mov	DWORD PTR fs:0, eax
	mov	DWORD PTR _this$[ebp], ecx

; 1666 : 	SIM_FLOAT
; 1667 : 		windHdg,
; 1668 : 		relSpeed;
; 1669 : 
; 1670 : 	EP_VECTOR
; 1671 : 		windVelocity;

	lea	ecx, DWORD PTR _windVelocity$[ebp]
	call	??0?$Vector_3D@M@@QAE@XZ		; Vector_3D<float>::Vector_3D<float>
	mov	DWORD PTR __$EHRec$[ebp+8], 0

; 1672 : 	
; 1673 : 	 Tpoint			pos;
; 1674 : 		  pos.x = _pos[I_X];

	push	0
	mov	ecx, DWORD PTR _this$[ebp]
	add	ecx, 724				; 000002d4H
	call	??A?$Vector_3D@M@@QBEABMH@Z		; Vector_3D<float>::operator[]
	movss	xmm0, DWORD PTR [eax]
	movss	DWORD PTR _pos$[ebp], xmm0

; 1675 : 		  pos.y = _pos[I_Y];

	push	1
	mov	ecx, DWORD PTR _this$[ebp]
	add	ecx, 724				; 000002d4H
	call	??A?$Vector_3D@M@@QBEABMH@Z		; Vector_3D<float>::operator[]
	movss	xmm0, DWORD PTR [eax]
	movss	DWORD PTR _pos$[ebp+4], xmm0

; 1676 : 		  pos.z = _pos[I_Z];

	push	2
	mov	ecx, DWORD PTR _this$[ebp]
	add	ecx, 724				; 000002d4H
	call	??A?$Vector_3D@M@@QBEABMH@Z		; Vector_3D<float>::operator[]
	movss	xmm0, DWORD PTR [eax]
	movss	DWORD PTR _pos$[ebp+8], xmm0

; 1677 : 		 
; 1678 : 
; 1679 : 	// Find the velocity vector for the wind.
; 1680 : 	//JAM 24Nov03
; 1681 : 	windHdg = ((WeatherClass*)realWeather)->windHeading;

	mov	eax, DWORD PTR ?realWeather@@3PAVRealWeather@@A ; realWeather
	movss	xmm0, DWORD PTR [eax+15728]
	movss	DWORD PTR _windHdg$[ebp], xmm0

; 1682 : 	
; 1683 : 	windVelocity = EP_VECTOR((float)cos(windHdg), (float)sin(windHdg), 0);

	push	ecx
	movss	xmm0, DWORD PTR __real@00000000
	movss	DWORD PTR [esp], xmm0
	push	ecx
	movss	xmm0, DWORD PTR _windHdg$[ebp]
	movss	DWORD PTR [esp], xmm0
	call	?sin@@YAMM@Z				; sin
	fstp	DWORD PTR [esp]
	push	ecx
	movss	xmm0, DWORD PTR _windHdg$[ebp]
	movss	DWORD PTR [esp], xmm0
	call	?cos@@YAMM@Z				; cos
	fstp	DWORD PTR [esp]
	lea	ecx, DWORD PTR $T2[ebp]
	call	??0?$Vector_3D@M@@QAE@MMM@Z		; Vector_3D<float>::Vector_3D<float>
	mov	DWORD PTR tv65[ebp], eax
	mov	ecx, DWORD PTR tv65[ebp]
	mov	DWORD PTR tv173[ebp], ecx
	mov	BYTE PTR __$EHRec$[ebp+8], 1
	mov	edx, DWORD PTR tv173[ebp]
	push	edx
	lea	ecx, DWORD PTR _windVelocity$[ebp]
	call	??4?$Vector_3D@M@@QAEAAV0@ABV0@@Z	; Vector_3D<float>::operator=
	mov	BYTE PTR __$EHRec$[ebp+8], 0
	lea	ecx, DWORD PTR $T2[ebp]
	call	??1?$Vector_3D@M@@QAE@XZ		; Vector_3D<float>::~Vector_3D<float>

; 1684 : 	windVelocity *= ((WeatherClass*)realWeather)->WindSpeedInFeetPerSecond(&pos);

	lea	eax, DWORD PTR _pos$[ebp]
	push	eax
	mov	ecx, DWORD PTR ?realWeather@@3PAVRealWeather@@A ; realWeather
	call	?WindSpeedInFeetPerSecond@WeatherClass@@QAEMPBUTpoint@@@Z ; WeatherClass::WindSpeedInFeetPerSecond
	push	ecx
	fstp	DWORD PTR [esp]
	lea	ecx, DWORD PTR _windVelocity$[ebp]
	call	??X?$Vector_3D@M@@QAEXM@Z		; Vector_3D<float>::operator*=

; 1685 : 
; 1686 : 	// Subtract the velocity of the wind from the velocity of the seat before computing drag.
; 1687 : 	result = _vel;

	mov	ecx, DWORD PTR _this$[ebp]
	add	ecx, 748				; 000002ecH
	push	ecx
	mov	ecx, DWORD PTR _result$[ebp]
	call	??4?$Vector_3D@M@@QAEAAV0@ABV0@@Z	; Vector_3D<float>::operator=

; 1688 : 	result -= windVelocity;

	lea	edx, DWORD PTR _windVelocity$[ebp]
	push	edx
	mov	ecx, DWORD PTR _result$[ebp]
	call	??Z?$Vector_3D@M@@QAEXABV0@@Z		; Vector_3D<float>::operator-=

; 1689 : 
; 1690 : 	// Get the relative speed.
; 1691 : 	relSpeed = result.Magnitude();

	mov	ecx, DWORD PTR _result$[ebp]
	call	?Magnitude@?$Vector_3D@M@@QBEMXZ	; Vector_3D<float>::Magnitude
	fstp	DWORD PTR _relSpeed$[ebp]

; 1692 : 
; 1693 : 	// Normalize.
; 1694 : 	if(relSpeed != 0.0)

	cvtss2sd xmm0, DWORD PTR _relSpeed$[ebp]
	ucomisd	xmm0, QWORD PTR __real@0000000000000000
	lahf
	test	ah, 68					; 00000044H
	jnp	SHORT $LN2@CalculateD

; 1695 : 	{
; 1696 : 		result /= relSpeed;

	push	ecx
	movss	xmm0, DWORD PTR _relSpeed$[ebp]
	movss	DWORD PTR [esp], xmm0
	mov	ecx, DWORD PTR _result$[ebp]
	call	??_0?$Vector_3D@M@@QAEXM@Z		; Vector_3D<float>::operator/=

; 1697 : 	}
; 1698 : 	else

	jmp	SHORT $LN1@CalculateD
$LN2@CalculateD:

; 1699 : 	{
; 1700 : 		result = EP_VECTOR(0.0, 0.0, 0.0);

	push	ecx
	movss	xmm0, DWORD PTR __real@00000000
	movss	DWORD PTR [esp], xmm0
	push	ecx
	movss	xmm0, DWORD PTR __real@00000000
	movss	DWORD PTR [esp], xmm0
	push	ecx
	movss	xmm0, DWORD PTR __real@00000000
	movss	DWORD PTR [esp], xmm0
	lea	ecx, DWORD PTR $T3[ebp]
	call	??0?$Vector_3D@M@@QAE@MMM@Z		; Vector_3D<float>::Vector_3D<float>
	mov	DWORD PTR tv176[ebp], eax
	mov	eax, DWORD PTR tv176[ebp]
	mov	DWORD PTR tv175[ebp], eax
	mov	BYTE PTR __$EHRec$[ebp+8], 2
	mov	ecx, DWORD PTR tv175[ebp]
	push	ecx
	mov	ecx, DWORD PTR _result$[ebp]
	call	??4?$Vector_3D@M@@QAEAAV0@ABV0@@Z	; Vector_3D<float>::operator=
	mov	BYTE PTR __$EHRec$[ebp+8], 0
	lea	ecx, DWORD PTR $T3[ebp]
	call	??1?$Vector_3D@M@@QAE@XZ		; Vector_3D<float>::~Vector_3D<float>
$LN1@CalculateD:

; 1701 : 	}
; 1702 : 
; 1703 : 	// Invert the relative velocity.  Drag opposes the velocity vector.
; 1704 : 	result.Invert();

	mov	ecx, DWORD PTR _result$[ebp]
	call	?Invert@?$Vector_3D@M@@QAEXXZ		; Vector_3D<float>::Invert

; 1705 : 
; 1706 : 	// Multiply it by the squared relative speed and drag factor.
; 1707 : 	result *= (relSpeed * relSpeed) * DragFactor() / GRAVITY;

	movss	xmm0, DWORD PTR _relSpeed$[ebp]
	mulss	xmm0, DWORD PTR _relSpeed$[ebp]
	mov	ecx, DWORD PTR _this$[ebp]
	movss	DWORD PTR tv237[ebp], xmm0
	call	?DragFactor@EjectedPilotClass@@ABEMXZ	; EjectedPilotClass::DragFactor
	fstp	DWORD PTR tv233[ebp]
	movss	xmm0, DWORD PTR tv237[ebp]
	mulss	xmm0, DWORD PTR tv233[ebp]
	divss	xmm0, DWORD PTR __real@4200b53f
	push	ecx
	movss	DWORD PTR [esp], xmm0
	mov	ecx, DWORD PTR _result$[ebp]
	call	??X?$Vector_3D@M@@QAEXM@Z		; Vector_3D<float>::operator*=

; 1708 : }

	mov	DWORD PTR __$EHRec$[ebp+8], -1
	lea	ecx, DWORD PTR _windVelocity$[ebp]
	call	??1?$Vector_3D@M@@QAE@XZ		; Vector_3D<float>::~Vector_3D<float>
	mov	ecx, DWORD PTR __$EHRec$[ebp]
	mov	DWORD PTR fs:0, ecx
	pop	ecx
	mov	ecx, DWORD PTR __$ArrayPad$[ebp]
	xor	ecx, ebp
	call	@__security_check_cookie@4
	mov	esp, ebp
	pop	ebp
	ret	4
_TEXT	ENDS
text$x	SEGMENT
__unwindfunclet$?CalculateDragVector@EjectedPilotClass@@ABEXAAV?$Vector_3D@M@@@Z$0:
	lea	ecx, DWORD PTR _windVelocity$[ebp]
	jmp	??1?$Vector_3D@M@@QAE@XZ		; Vector_3D<float>::~Vector_3D<float>
__unwindfunclet$?CalculateDragVector@EjectedPilotClass@@ABEXAAV?$Vector_3D@M@@@Z$1:
	lea	ecx, DWORD PTR $T2[ebp]
	jmp	??1?$Vector_3D@M@@QAE@XZ		; Vector_3D<float>::~Vector_3D<float>
__unwindfunclet$?CalculateDragVector@EjectedPilotClass@@ABEXAAV?$Vector_3D@M@@@Z$2:
	lea	ecx, DWORD PTR $T3[ebp]
	jmp	??1?$Vector_3D@M@@QAE@XZ		; Vector_3D<float>::~Vector_3D<float>
__ehhandler$?CalculateDragVector@EjectedPilotClass@@ABEXAAV?$Vector_3D@M@@@Z:
	mov	edx, DWORD PTR [esp+8]
	lea	eax, DWORD PTR [edx+12]
	mov	ecx, DWORD PTR [edx-92]
	xor	ecx, eax
	call	@__security_check_cookie@4
	mov	ecx, DWORD PTR [edx-4]
	xor	ecx, eax
	call	@__security_check_cookie@4
	mov	eax, OFFSET __ehfuncinfo$?CalculateDragVector@EjectedPilotClass@@ABEXAAV?$Vector_3D@M@@@Z
	jmp	___CxxFrameHandler3
text$x	ENDS
?CalculateDragVector@EjectedPilotClass@@ABEXAAV?$Vector_3D@M@@@Z ENDP ; EjectedPilotClass::CalculateDragVector
; Function compile flags: /Odtp
; File c:\users\zhitao li\documents\visual studio 2012\projects\freefalcon\sim\eject\simeject.cpp
_TEXT	SEGMENT
tv140 = -112						; size = 4
tv85 = -108						; size = 4
tv86 = -104						; size = 4
tv136 = -100						; size = 4
tv144 = -96						; size = 4
_this$ = -92						; size = 4
_rot$ = -88						; size = 36
_worldThrust$ = -52					; size = 12
$T2 = -40						; size = 12
_modelThrust$ = -28					; size = 12
__$ArrayPad$ = -16					; size = 4
__$EHRec$ = -12						; size = 12
_result$ = 8						; size = 4
?CalculateThrustVector@EjectedPilotClass@@ABEXAAV?$Vector_3D@M@@@Z PROC ; EjectedPilotClass::CalculateThrustVector
; _this$ = ecx

; 1641 : {

	push	ebp
	mov	ebp, esp
	push	-1
	push	__ehhandler$?CalculateThrustVector@EjectedPilotClass@@ABEXAAV?$Vector_3D@M@@@Z
	mov	eax, DWORD PTR fs:0
	push	eax
	sub	esp, 100				; 00000064H
	mov	eax, DWORD PTR ___security_cookie
	xor	eax, ebp
	mov	DWORD PTR __$ArrayPad$[ebp], eax
	push	eax
	lea	eax, DWORD PTR __$EHRec$[ebp]
	mov	DWORD PTR fs:0, eax
	mov	DWORD PTR _this$[ebp], ecx

; 1642 : 	Trotation rot;
; 1643 : 
; 1644 : 	Tpoint modelThrust, worldThrust;
; 1645 : 
; 1646 : 	// Thrust is up.
; 1647 : 	modelThrust.x = 0.0;

	movss	xmm0, DWORD PTR __real@00000000
	movss	DWORD PTR _modelThrust$[ebp], xmm0

; 1648 : 	modelThrust.y = 0.0;

	movss	xmm0, DWORD PTR __real@00000000
	movss	DWORD PTR _modelThrust$[ebp+4], xmm0

; 1649 : 	modelThrust.z = -1.0;

	movss	xmm0, DWORD PTR __real@bf800000
	movss	DWORD PTR _modelThrust$[ebp+8], xmm0

; 1650 : 
; 1651 : 	// Transform to world space.
; 1652 : 	_rot.GetTrotation(rot);

	lea	eax, DWORD PTR _rot$[ebp]
	push	eax
	mov	ecx, DWORD PTR _this$[ebp]
	add	ecx, 736				; 000002e0H
	call	?GetTrotation@?$Vector_3D@M@@QBEXAAUTrotation@@@Z ; Vector_3D<float>::GetTrotation

; 1653 : 	MatrixMult(&rot, &modelThrust, &worldThrust);

	lea	ecx, DWORD PTR _worldThrust$[ebp]
	push	ecx
	lea	edx, DWORD PTR _modelThrust$[ebp]
	push	edx
	lea	eax, DWORD PTR _rot$[ebp]
	push	eax
	call	?MatrixMult@@YAXPBUTrotation@@PBUTpoint@@PAU2@@Z ; MatrixMult
	add	esp, 12					; 0000000cH

; 1654 : 	
; 1655 : 	// Multiply it by the magnitude
; 1656 : 	result = EP_VECTOR(worldThrust);

	lea	ecx, DWORD PTR _worldThrust$[ebp]
	push	ecx
	lea	ecx, DWORD PTR $T2[ebp]
	call	??0?$Vector_3D@M@@QAE@ABUTpoint@@@Z	; Vector_3D<float>::Vector_3D<float>
	mov	DWORD PTR tv86[ebp], eax
	mov	edx, DWORD PTR tv86[ebp]
	mov	DWORD PTR tv85[ebp], edx
	mov	DWORD PTR __$EHRec$[ebp+8], 0
	mov	eax, DWORD PTR tv85[ebp]
	push	eax
	mov	ecx, DWORD PTR _result$[ebp]
	call	??4?$Vector_3D@M@@QAEAAV0@ABV0@@Z	; Vector_3D<float>::operator=
	mov	DWORD PTR __$EHRec$[ebp+8], -1
	lea	ecx, DWORD PTR $T2[ebp]
	call	??1?$Vector_3D@M@@QAE@XZ		; Vector_3D<float>::~Vector_3D<float>

; 1657 : 	result *= Mass() * SeatThrust();

	mov	ecx, DWORD PTR _this$[ebp]
	call	?Mass@EjectedPilotClass@@ABEMXZ		; EjectedPilotClass::Mass
	fstp	DWORD PTR tv136[ebp]
	movss	xmm0, DWORD PTR tv136[ebp]
	mov	ecx, DWORD PTR _this$[ebp]
	movss	DWORD PTR tv144[ebp], xmm0
	call	?SeatThrust@EjectedPilotClass@@ABEMXZ	; EjectedPilotClass::SeatThrust
	fstp	DWORD PTR tv140[ebp]
	movss	xmm0, DWORD PTR tv144[ebp]
	mulss	xmm0, DWORD PTR tv140[ebp]
	push	ecx
	movss	DWORD PTR [esp], xmm0
	mov	ecx, DWORD PTR _result$[ebp]
	call	??X?$Vector_3D@M@@QAEXM@Z		; Vector_3D<float>::operator*=

; 1658 : }

	mov	ecx, DWORD PTR __$EHRec$[ebp]
	mov	DWORD PTR fs:0, ecx
	pop	ecx
	mov	ecx, DWORD PTR __$ArrayPad$[ebp]
	xor	ecx, ebp
	call	@__security_check_cookie@4
	mov	esp, ebp
	pop	ebp
	ret	4
_TEXT	ENDS
text$x	SEGMENT
__unwindfunclet$?CalculateThrustVector@EjectedPilotClass@@ABEXAAV?$Vector_3D@M@@@Z$0:
	lea	ecx, DWORD PTR $T2[ebp]
	jmp	??1?$Vector_3D@M@@QAE@XZ		; Vector_3D<float>::~Vector_3D<float>
__ehhandler$?CalculateThrustVector@EjectedPilotClass@@ABEXAAV?$Vector_3D@M@@@Z:
	mov	edx, DWORD PTR [esp+8]
	lea	eax, DWORD PTR [edx+12]
	mov	ecx, DWORD PTR [edx-104]
	xor	ecx, eax
	call	@__security_check_cookie@4
	mov	ecx, DWORD PTR [edx-4]
	xor	ecx, eax
	call	@__security_check_cookie@4
	mov	eax, OFFSET __ehfuncinfo$?CalculateThrustVector@EjectedPilotClass@@ABEXAAV?$Vector_3D@M@@@Z
	jmp	___CxxFrameHandler3
text$x	ENDS
?CalculateThrustVector@EjectedPilotClass@@ABEXAAV?$Vector_3D@M@@@Z ENDP ; EjectedPilotClass::CalculateThrustVector
; Function compile flags: /Odtp
; File c:\users\zhitao li\documents\visual studio 2012\projects\freefalcon\sim\eject\simeject.cpp
_TEXT	SEGMENT
tv179 = -180						; size = 4
tv335 = -176						; size = 4
tv244 = -172						; size = 4
tv339 = -168						; size = 4
tv249 = -164						; size = 4
tv331 = -160						; size = 4
tv242 = -156						; size = 4
tv337 = -152						; size = 4
tv248 = -148						; size = 4
tv329 = -144						; size = 4
tv333 = -140						; size = 4
tv247 = -136						; size = 4
_this$ = -132						; size = 4
_aircraft$ = -128					; size = 4
_rot$ = -124						; size = 36
$T2 = -88						; size = 12
_worldOffset$ = -76					; size = 12
$T3 = -64						; size = 12
_modelOffset$ = -52					; size = 12
$T4 = -40						; size = 12
$T5 = -28						; size = 12
__$ArrayPad$ = -16					; size = 4
__$EHRec$ = -12						; size = 12
?CalculateAndSetPositionAndOrientationInCockpit@EjectedPilotClass@@AAEXXZ PROC ; EjectedPilotClass::CalculateAndSetPositionAndOrientationInCockpit
; _this$ = ecx

; 1588 : {

	push	ebp
	mov	ebp, esp
	push	-1
	push	__ehhandler$?CalculateAndSetPositionAndOrientationInCockpit@EjectedPilotClass@@AAEXXZ
	mov	eax, DWORD PTR fs:0
	push	eax
	sub	esp, 168				; 000000a8H
	mov	eax, DWORD PTR ___security_cookie
	xor	eax, ebp
	mov	DWORD PTR __$ArrayPad$[ebp], eax
	push	eax
	lea	eax, DWORD PTR __$EHRec$[ebp]
	mov	DWORD PTR fs:0, eax
	mov	DWORD PTR _this$[ebp], ecx

; 1589 : 	Trotation
; 1590 : 		rot;
; 1591 : 
; 1592 : 	Tpoint
; 1593 : 		modelOffset,
; 1594 : 		worldOffset;
; 1595 : 
; 1596 : 	AircraftClass	*aircraft = (AircraftClass*) vuDatabase->Find(_aircraftId);

	mov	eax, DWORD PTR _this$[ebp]
	mov	ecx, DWORD PTR [eax+676]
	push	ecx
	mov	edx, DWORD PTR [eax+672]
	push	edx
	mov	ecx, DWORD PTR ?vuDatabase@@3PAVVuDatabase@@A ; vuDatabase
	call	?Find@VuDatabase@@QBEPAVVuEntity@@VVU_ID@@@Z ; VuDatabase::Find
	mov	DWORD PTR _aircraft$[ebp], eax

; 1597 : 
; 1598 : 	if (!aircraft)

	cmp	DWORD PTR _aircraft$[ebp], 0
	jne	SHORT $LN1@CalculateA

; 1599 : 		return;

	jmp	$LN2@CalculateA
$LN1@CalculateA:

; 1600 : 
; 1601 : 	// Orient the seat the same way as the plane.
; 1602 : 	_rot[I_ROLL] = aircraft->Roll();

	mov	ecx, DWORD PTR _aircraft$[ebp]
	call	?Roll@VuEntity@@QBEMXZ			; VuEntity::Roll
	push	0
	mov	ecx, DWORD PTR _this$[ebp]
	add	ecx, 736				; 000002e0H
	fstp	DWORD PTR tv329[ebp]
	call	??A?$Vector_3D@M@@QAEAAMH@Z		; Vector_3D<float>::operator[]
	fld	DWORD PTR tv329[ebp]
	fstp	DWORD PTR [eax]

; 1603 : 	_rot[I_PITCH] = aircraft->Pitch();

	mov	ecx, DWORD PTR _aircraft$[ebp]
	call	?Pitch@VuEntity@@QBEMXZ			; VuEntity::Pitch
	push	1
	mov	ecx, DWORD PTR _this$[ebp]
	add	ecx, 736				; 000002e0H
	fstp	DWORD PTR tv331[ebp]
	call	??A?$Vector_3D@M@@QAEAAMH@Z		; Vector_3D<float>::operator[]
	fld	DWORD PTR tv331[ebp]
	fstp	DWORD PTR [eax]

; 1604 : 	_rot[I_YAW] = aircraft->Yaw();

	mov	ecx, DWORD PTR _aircraft$[ebp]
	call	?Yaw@VuEntity@@QBEMXZ			; VuEntity::Yaw
	push	2
	mov	ecx, DWORD PTR _this$[ebp]
	add	ecx, 736				; 000002e0H
	fstp	DWORD PTR tv333[ebp]
	call	??A?$Vector_3D@M@@QAEAAMH@Z		; Vector_3D<float>::operator[]
	fld	DWORD PTR tv333[ebp]
	fstp	DWORD PTR [eax]

; 1605 : 
; 1606 : 	// Get the seat offset in model space.
; 1607 : 	SeatOffset().GetTpoint(modelOffset);

	lea	eax, DWORD PTR _modelOffset$[ebp]
	push	eax
	lea	ecx, DWORD PTR $T4[ebp]
	push	ecx
	mov	ecx, DWORD PTR _this$[ebp]
	call	?SeatOffset@EjectedPilotClass@@ABE?AV?$Vector_3D@M@@XZ ; EjectedPilotClass::SeatOffset
	mov	DWORD PTR tv248[ebp], eax
	mov	edx, DWORD PTR tv248[ebp]
	mov	DWORD PTR tv242[ebp], edx
	mov	DWORD PTR __$EHRec$[ebp+8], 0
	mov	ecx, DWORD PTR tv242[ebp]
	call	?GetTpoint@?$Vector_3D@M@@QBEXAAUTpoint@@@Z ; Vector_3D<float>::GetTpoint
	mov	DWORD PTR __$EHRec$[ebp+8], -1
	lea	ecx, DWORD PTR $T4[ebp]
	call	??1?$Vector_3D@M@@QAE@XZ		; Vector_3D<float>::~Vector_3D<float>

; 1608 : 
; 1609 : 	// Transform to world space.
; 1610 : 	_rot.GetTrotation(rot);

	lea	eax, DWORD PTR _rot$[ebp]
	push	eax
	mov	ecx, DWORD PTR _this$[ebp]
	add	ecx, 736				; 000002e0H
	call	?GetTrotation@?$Vector_3D@M@@QBEXAAUTrotation@@@Z ; Vector_3D<float>::GetTrotation

; 1611 : 	MatrixMult(&rot, &modelOffset, &worldOffset);

	lea	ecx, DWORD PTR _worldOffset$[ebp]
	push	ecx
	lea	edx, DWORD PTR _modelOffset$[ebp]
	push	edx
	lea	eax, DWORD PTR _rot$[ebp]
	push	eax
	call	?MatrixMult@@YAXPBUTrotation@@PBUTpoint@@PAU2@@Z ; MatrixMult
	add	esp, 12					; 0000000cH

; 1612 : 
; 1613 : 	// Get position of aircraft + model space offset.
; 1614 : 	_pos = EP_VECTOR
; 1615 : 	(
; 1616 : 		aircraft->XPos(),
; 1617 : 		aircraft->YPos(),
; 1618 : 		aircraft->ZPos()
; 1619 : 	);

	mov	ecx, DWORD PTR _aircraft$[ebp]
	call	?ZPos@VuEntity@@QBEMXZ			; VuEntity::ZPos
	push	ecx
	fstp	DWORD PTR [esp]
	mov	ecx, DWORD PTR _aircraft$[ebp]
	call	?YPos@VuEntity@@QBEMXZ			; VuEntity::YPos
	push	ecx
	fstp	DWORD PTR [esp]
	mov	ecx, DWORD PTR _aircraft$[ebp]
	call	?XPos@VuEntity@@QBEMXZ			; VuEntity::XPos
	push	ecx
	fstp	DWORD PTR [esp]
	lea	ecx, DWORD PTR $T2[ebp]
	call	??0?$Vector_3D@M@@QAE@MMM@Z		; Vector_3D<float>::Vector_3D<float>
	mov	DWORD PTR tv249[ebp], eax
	mov	ecx, DWORD PTR tv249[ebp]
	mov	DWORD PTR tv244[ebp], ecx
	mov	DWORD PTR __$EHRec$[ebp+8], 1
	mov	edx, DWORD PTR tv244[ebp]
	push	edx
	mov	ecx, DWORD PTR _this$[ebp]
	add	ecx, 724				; 000002d4H
	call	??4?$Vector_3D@M@@QAEAAV0@ABV0@@Z	; Vector_3D<float>::operator=
	mov	DWORD PTR __$EHRec$[ebp+8], -1
	lea	ecx, DWORD PTR $T2[ebp]
	call	??1?$Vector_3D@M@@QAE@XZ		; Vector_3D<float>::~Vector_3D<float>

; 1620 : 	_pos += worldOffset;

	lea	eax, DWORD PTR _worldOffset$[ebp]
	push	eax
	lea	ecx, DWORD PTR $T5[ebp]
	call	??0?$Vector_3D@M@@QAE@ABUTpoint@@@Z	; Vector_3D<float>::Vector_3D<float>
	mov	DWORD PTR __$EHRec$[ebp+8], 2
	lea	ecx, DWORD PTR $T5[ebp]
	push	ecx
	mov	ecx, DWORD PTR _this$[ebp]
	add	ecx, 724				; 000002d4H
	call	??Y?$Vector_3D@M@@QAEXABV0@@Z		; Vector_3D<float>::operator+=
	mov	DWORD PTR __$EHRec$[ebp+8], -1
	lea	ecx, DWORD PTR $T5[ebp]
	call	??1?$Vector_3D@M@@QAE@XZ		; Vector_3D<float>::~Vector_3D<float>

; 1621 : 
; 1622 : 	// Velocity is the velocity of the plane.
; 1623 : 	_vel = EP_VECTOR
; 1624 : 	(
; 1625 : 		aircraft->XDelta(),
; 1626 : 		aircraft->YDelta(),
; 1627 : 		aircraft->ZDelta()
; 1628 : 	);

	mov	ecx, DWORD PTR _aircraft$[ebp]
	call	?ZDelta@VuEntity@@QBEMXZ		; VuEntity::ZDelta
	push	ecx
	fstp	DWORD PTR [esp]
	mov	ecx, DWORD PTR _aircraft$[ebp]
	call	?YDelta@VuEntity@@QBEMXZ		; VuEntity::YDelta
	push	ecx
	fstp	DWORD PTR [esp]
	mov	ecx, DWORD PTR _aircraft$[ebp]
	call	?XDelta@VuEntity@@QBEMXZ		; VuEntity::XDelta
	push	ecx
	fstp	DWORD PTR [esp]
	lea	ecx, DWORD PTR $T3[ebp]
	call	??0?$Vector_3D@M@@QAE@MMM@Z		; Vector_3D<float>::Vector_3D<float>
	mov	DWORD PTR tv179[ebp], eax
	mov	edx, DWORD PTR tv179[ebp]
	mov	DWORD PTR tv247[ebp], edx
	mov	DWORD PTR __$EHRec$[ebp+8], 3
	mov	eax, DWORD PTR tv247[ebp]
	push	eax
	mov	ecx, DWORD PTR _this$[ebp]
	add	ecx, 748				; 000002ecH
	call	??4?$Vector_3D@M@@QAEAAV0@ABV0@@Z	; Vector_3D<float>::operator=
	mov	DWORD PTR __$EHRec$[ebp+8], -1
	lea	ecx, DWORD PTR $T3[ebp]
	call	??1?$Vector_3D@M@@QAE@XZ		; Vector_3D<float>::~Vector_3D<float>

; 1629 : 
; 1630 : 	// Angular velocity is the same as the plane.
; 1631 : 	_aVel[I_ROLL] = aircraft->RollDelta();

	mov	ecx, DWORD PTR _aircraft$[ebp]
	call	?RollDelta@VuEntity@@QBEMXZ		; VuEntity::RollDelta
	push	0
	mov	ecx, DWORD PTR _this$[ebp]
	add	ecx, 760				; 000002f8H
	fstp	DWORD PTR tv335[ebp]
	call	??A?$Vector_3D@M@@QAEAAMH@Z		; Vector_3D<float>::operator[]
	fld	DWORD PTR tv335[ebp]
	fstp	DWORD PTR [eax]

; 1632 : 	_aVel[I_PITCH] = aircraft->PitchDelta();

	mov	ecx, DWORD PTR _aircraft$[ebp]
	call	?PitchDelta@VuEntity@@QBEMXZ		; VuEntity::PitchDelta
	push	1
	mov	ecx, DWORD PTR _this$[ebp]
	add	ecx, 760				; 000002f8H
	fstp	DWORD PTR tv337[ebp]
	call	??A?$Vector_3D@M@@QAEAAMH@Z		; Vector_3D<float>::operator[]
	fld	DWORD PTR tv337[ebp]
	fstp	DWORD PTR [eax]

; 1633 : 	_aVel[I_YAW] = aircraft->YawDelta();

	mov	ecx, DWORD PTR _aircraft$[ebp]
	call	?YawDelta@VuEntity@@QBEMXZ		; VuEntity::YawDelta
	push	2
	mov	ecx, DWORD PTR _this$[ebp]
	add	ecx, 760				; 000002f8H
	fstp	DWORD PTR tv339[ebp]
	call	??A?$Vector_3D@M@@QAEAAMH@Z		; Vector_3D<float>::operator[]
	fld	DWORD PTR tv339[ebp]
	fstp	DWORD PTR [eax]
$LN2@CalculateA:

; 1634 : }

	mov	ecx, DWORD PTR __$EHRec$[ebp]
	mov	DWORD PTR fs:0, ecx
	pop	ecx
	mov	ecx, DWORD PTR __$ArrayPad$[ebp]
	xor	ecx, ebp
	call	@__security_check_cookie@4
	mov	esp, ebp
	pop	ebp
	ret	0
_TEXT	ENDS
text$x	SEGMENT
__unwindfunclet$?CalculateAndSetPositionAndOrientationInCockpit@EjectedPilotClass@@AAEXXZ$0:
	lea	ecx, DWORD PTR $T4[ebp]
	jmp	??1?$Vector_3D@M@@QAE@XZ		; Vector_3D<float>::~Vector_3D<float>
__unwindfunclet$?CalculateAndSetPositionAndOrientationInCockpit@EjectedPilotClass@@AAEXXZ$1:
	lea	ecx, DWORD PTR $T2[ebp]
	jmp	??1?$Vector_3D@M@@QAE@XZ		; Vector_3D<float>::~Vector_3D<float>
__unwindfunclet$?CalculateAndSetPositionAndOrientationInCockpit@EjectedPilotClass@@AAEXXZ$2:
	lea	ecx, DWORD PTR $T5[ebp]
	jmp	??1?$Vector_3D@M@@QAE@XZ		; Vector_3D<float>::~Vector_3D<float>
__unwindfunclet$?CalculateAndSetPositionAndOrientationInCockpit@EjectedPilotClass@@AAEXXZ$3:
	lea	ecx, DWORD PTR $T3[ebp]
	jmp	??1?$Vector_3D@M@@QAE@XZ		; Vector_3D<float>::~Vector_3D<float>
__ehhandler$?CalculateAndSetPositionAndOrientationInCockpit@EjectedPilotClass@@AAEXXZ:
	mov	edx, DWORD PTR [esp+8]
	lea	eax, DWORD PTR [edx+12]
	mov	ecx, DWORD PTR [edx-172]
	xor	ecx, eax
	call	@__security_check_cookie@4
	mov	ecx, DWORD PTR [edx-4]
	xor	ecx, eax
	call	@__security_check_cookie@4
	mov	eax, OFFSET __ehfuncinfo$?CalculateAndSetPositionAndOrientationInCockpit@EjectedPilotClass@@AAEXXZ
	jmp	___CxxFrameHandler3
text$x	ENDS
?CalculateAndSetPositionAndOrientationInCockpit@EjectedPilotClass@@AAEXXZ ENDP ; EjectedPilotClass::CalculateAndSetPositionAndOrientationInCockpit
; Function compile flags: /Odtp
; File c:\users\zhitao li\documents\visual studio 2012\projects\freefalcon\sim\eject\simeject.cpp
_TEXT	SEGMENT
_this$ = -4						; size = 4
?RunSafeLanding@EjectedPilotClass@@AAEXXZ PROC		; EjectedPilotClass::RunSafeLanding
; _this$ = ecx

; 1438 : {

	push	ebp
	mov	ebp, esp
	push	ecx
	mov	DWORD PTR _this$[ebp], ecx

; 1439 : 	// all we do (thus far) is just time how long we stay around
; 1440 : 	// after hitting the ground ( 5 secs )
; 1441 : 	// once HitGround() is called we're finished
; 1442 : 	if ( _runTime - _hitGroundTime > 10.0f )

	mov	eax, DWORD PTR _this$[ebp]
	mov	ecx, DWORD PTR _this$[ebp]
	movss	xmm0, DWORD PTR [eax+704]
	subss	xmm0, DWORD PTR [ecx+784]
	comiss	xmm0, DWORD PTR __real@41200000
	jbe	SHORT $LN1@RunSafeLan

; 1443 : 		HitGround();

	mov	ecx, DWORD PTR _this$[ebp]
	call	?HitGround@EjectedPilotClass@@AAEXXZ	; EjectedPilotClass::HitGround
$LN1@RunSafeLan:

; 1444 : }

	mov	esp, ebp
	pop	ebp
	ret	0
?RunSafeLanding@EjectedPilotClass@@AAEXXZ ENDP		; EjectedPilotClass::RunSafeLanding
_TEXT	ENDS
; Function compile flags: /Odtp
; File c:\users\zhitao li\documents\visual studio 2012\projects\freefalcon\sim\eject\simeject.cpp
_TEXT	SEGMENT
_this$ = -4						; size = 4
?RunCrashLanding@EjectedPilotClass@@AAEXXZ PROC		; EjectedPilotClass::RunCrashLanding
; _this$ = ecx

; 1451 : {

	push	ebp
	mov	ebp, esp
	push	ecx
	mov	DWORD PTR _this$[ebp], ecx

; 1452 : 	// all we do (thus far) is just time how long we stay around
; 1453 : 	// after hitting the ground ( 5 secs )
; 1454 : 	// once HitGround() is called we're finished
; 1455 : 	if ( _runTime - _hitGroundTime > 10.0f )

	mov	eax, DWORD PTR _this$[ebp]
	mov	ecx, DWORD PTR _this$[ebp]
	movss	xmm0, DWORD PTR [eax+704]
	subss	xmm0, DWORD PTR [ecx+784]
	comiss	xmm0, DWORD PTR __real@41200000
	jbe	SHORT $LN1@RunCrashLa

; 1456 : 		HitGround();

	mov	ecx, DWORD PTR _this$[ebp]
	call	?HitGround@EjectedPilotClass@@AAEXXZ	; EjectedPilotClass::HitGround
$LN1@RunCrashLa:

; 1457 : }

	mov	esp, ebp
	pop	ebp
	ret	0
?RunCrashLanding@EjectedPilotClass@@AAEXXZ ENDP		; EjectedPilotClass::RunCrashLanding
_TEXT	ENDS
; Function compile flags: /Odtp
; File c:\users\zhitao li\documents\visual studio 2012\projects\freefalcon\sim\eject\simeject.cpp
_TEXT	SEGMENT
tv295 = -64						; size = 4
tv399 = -60						; size = 4
tv304 = -56						; size = 4
tv401 = -52						; size = 4
tv397 = -48						; size = 4
_this$ = -44						; size = 4
_accelVector$ = -40					; size = 12
_dragVector$ = -28					; size = 12
__$ArrayPad$ = -16					; size = 4
__$EHRec$ = -12						; size = 12
?RunFreeFall@EjectedPilotClass@@AAEXXZ PROC		; EjectedPilotClass::RunFreeFall
; _this$ = ecx

; 1518 : {

	push	ebp
	mov	ebp, esp
	push	-1
	push	__ehhandler$?RunFreeFall@EjectedPilotClass@@AAEXXZ
	mov	eax, DWORD PTR fs:0
	push	eax
	sub	esp, 52					; 00000034H
	mov	eax, DWORD PTR ___security_cookie
	xor	eax, ebp
	mov	DWORD PTR __$ArrayPad$[ebp], eax
	push	esi
	push	eax
	lea	eax, DWORD PTR __$EHRec$[ebp]
	mov	DWORD PTR fs:0, eax
	mov	DWORD PTR _this$[ebp], ecx

; 1519 : 	EP_VECTOR
; 1520 : 		dragVector,

	lea	ecx, DWORD PTR _dragVector$[ebp]
	call	??0?$Vector_3D@M@@QAE@XZ		; Vector_3D<float>::Vector_3D<float>
	mov	DWORD PTR __$EHRec$[ebp+8], 0

; 1521 : 		accelVector;

	lea	ecx, DWORD PTR _accelVector$[ebp]
	call	??0?$Vector_3D@M@@QAE@XZ		; Vector_3D<float>::Vector_3D<float>
	mov	BYTE PTR __$EHRec$[ebp+8], 1

; 1522 : 	
; 1523 : 	// Calculate all forces acting on the seat.
; 1524 : 	CalculateGravityVector(accelVector);

	lea	eax, DWORD PTR _accelVector$[ebp]
	push	eax
	mov	ecx, DWORD PTR _this$[ebp]
	call	?CalculateGravityVector@EjectedPilotClass@@ABEXAAV?$Vector_3D@M@@@Z ; EjectedPilotClass::CalculateGravityVector

; 1525 : 	CalculateDragVector(dragVector);

	lea	ecx, DWORD PTR _dragVector$[ebp]
	push	ecx
	mov	ecx, DWORD PTR _this$[ebp]
	call	?CalculateDragVector@EjectedPilotClass@@ABEXAAV?$Vector_3D@M@@@Z ; EjectedPilotClass::CalculateDragVector

; 1526 : 
; 1527 : 	// Calculate the resultant acceleration on the seat.
; 1528 : 	F4Assert(Mass() != 0.0);
; 1529 :    dragVector *= _deltaTime/Mass();

	mov	edx, DWORD PTR _this$[ebp]
	mov	eax, DWORD PTR [edx]
	mov	ecx, DWORD PTR _this$[ebp]
	mov	edx, DWORD PTR [eax+388]
	call	edx
	fstp	DWORD PTR tv295[ebp]
	mov	eax, DWORD PTR _this$[ebp]
	movss	xmm0, DWORD PTR [eax+708]
	divss	xmm0, DWORD PTR tv295[ebp]
	push	ecx
	movss	DWORD PTR [esp], xmm0
	lea	ecx, DWORD PTR _dragVector$[ebp]
	call	??X?$Vector_3D@M@@QAEXM@Z		; Vector_3D<float>::operator*=

; 1530 : 	accelVector *= _deltaTime/Mass();

	mov	ecx, DWORD PTR _this$[ebp]
	mov	edx, DWORD PTR [ecx]
	mov	ecx, DWORD PTR _this$[ebp]
	mov	eax, DWORD PTR [edx+388]
	call	eax
	fstp	DWORD PTR tv304[ebp]
	mov	ecx, DWORD PTR _this$[ebp]
	movss	xmm0, DWORD PTR [ecx+708]
	divss	xmm0, DWORD PTR tv304[ebp]
	push	ecx
	movss	DWORD PTR [esp], xmm0
	lea	ecx, DWORD PTR _accelVector$[ebp]
	call	??X?$Vector_3D@M@@QAEXM@Z		; Vector_3D<float>::operator*=

; 1531 : 
; 1532 :    // Don't cross the zero line
; 1533 :    if (dragVector[I_X] < - _vel[I_X])

	push	0
	lea	ecx, DWORD PTR _dragVector$[ebp]
	call	??A?$Vector_3D@M@@QAEAAMH@Z		; Vector_3D<float>::operator[]
	mov	esi, eax
	push	0
	mov	ecx, DWORD PTR _this$[ebp]
	add	ecx, 748				; 000002ecH
	call	??A?$Vector_3D@M@@QAEAAMH@Z		; Vector_3D<float>::operator[]
	movss	xmm0, DWORD PTR [eax]
	xorps	xmm0, DWORD PTR __xmm@80000000800000008000000080000000
	comiss	xmm0, DWORD PTR [esi]
	jbe	SHORT $LN18@RunFreeFal

; 1534 :       dragVector[I_X] = - _vel[I_X];

	push	0
	mov	ecx, DWORD PTR _this$[ebp]
	add	ecx, 748				; 000002ecH
	call	??A?$Vector_3D@M@@QAEAAMH@Z		; Vector_3D<float>::operator[]
	movss	xmm0, DWORD PTR [eax]
	xorps	xmm0, DWORD PTR __xmm@80000000800000008000000080000000
	push	0
	lea	ecx, DWORD PTR _dragVector$[ebp]
	movss	DWORD PTR tv397[ebp], xmm0
	call	??A?$Vector_3D@M@@QAEAAMH@Z		; Vector_3D<float>::operator[]
	movss	xmm0, DWORD PTR tv397[ebp]
	movss	DWORD PTR [eax], xmm0
	jmp	SHORT $LN16@RunFreeFal
$LN18@RunFreeFal:

; 1535 :    else if (dragVector[I_X] > _vel[I_X])

	push	0
	lea	ecx, DWORD PTR _dragVector$[ebp]
	call	??A?$Vector_3D@M@@QAEAAMH@Z		; Vector_3D<float>::operator[]
	mov	esi, eax
	push	0
	mov	ecx, DWORD PTR _this$[ebp]
	add	ecx, 748				; 000002ecH
	call	??A?$Vector_3D@M@@QAEAAMH@Z		; Vector_3D<float>::operator[]
	movss	xmm0, DWORD PTR [esi]
	comiss	xmm0, DWORD PTR [eax]
	jbe	SHORT $LN16@RunFreeFal

; 1536 :       dragVector[I_X] = _vel[I_X];

	push	0
	mov	ecx, DWORD PTR _this$[ebp]
	add	ecx, 748				; 000002ecH
	call	??A?$Vector_3D@M@@QAEAAMH@Z		; Vector_3D<float>::operator[]
	mov	esi, eax
	push	0
	lea	ecx, DWORD PTR _dragVector$[ebp]
	call	??A?$Vector_3D@M@@QAEAAMH@Z		; Vector_3D<float>::operator[]
	mov	edx, DWORD PTR [esi]
	mov	DWORD PTR [eax], edx
$LN16@RunFreeFal:

; 1537 : 
; 1538 :    if (dragVector[I_Y] < - _vel[I_Y])

	push	1
	lea	ecx, DWORD PTR _dragVector$[ebp]
	call	??A?$Vector_3D@M@@QAEAAMH@Z		; Vector_3D<float>::operator[]
	mov	esi, eax
	push	1
	mov	ecx, DWORD PTR _this$[ebp]
	add	ecx, 748				; 000002ecH
	call	??A?$Vector_3D@M@@QAEAAMH@Z		; Vector_3D<float>::operator[]
	movss	xmm0, DWORD PTR [eax]
	xorps	xmm0, DWORD PTR __xmm@80000000800000008000000080000000
	comiss	xmm0, DWORD PTR [esi]
	jbe	SHORT $LN15@RunFreeFal

; 1539 :       dragVector[I_Y] = - _vel[I_Y];

	push	1
	mov	ecx, DWORD PTR _this$[ebp]
	add	ecx, 748				; 000002ecH
	call	??A?$Vector_3D@M@@QAEAAMH@Z		; Vector_3D<float>::operator[]
	movss	xmm0, DWORD PTR [eax]
	xorps	xmm0, DWORD PTR __xmm@80000000800000008000000080000000
	push	1
	lea	ecx, DWORD PTR _dragVector$[ebp]
	movss	DWORD PTR tv399[ebp], xmm0
	call	??A?$Vector_3D@M@@QAEAAMH@Z		; Vector_3D<float>::operator[]
	movss	xmm0, DWORD PTR tv399[ebp]
	movss	DWORD PTR [eax], xmm0
	jmp	SHORT $LN13@RunFreeFal
$LN15@RunFreeFal:

; 1540 :    else if (dragVector[I_Y] > _vel[I_Y])

	push	1
	lea	ecx, DWORD PTR _dragVector$[ebp]
	call	??A?$Vector_3D@M@@QAEAAMH@Z		; Vector_3D<float>::operator[]
	mov	esi, eax
	push	1
	mov	ecx, DWORD PTR _this$[ebp]
	add	ecx, 748				; 000002ecH
	call	??A?$Vector_3D@M@@QAEAAMH@Z		; Vector_3D<float>::operator[]
	movss	xmm0, DWORD PTR [esi]
	comiss	xmm0, DWORD PTR [eax]
	jbe	SHORT $LN13@RunFreeFal

; 1541 :       dragVector[I_Y] = _vel[I_Y];

	push	1
	mov	ecx, DWORD PTR _this$[ebp]
	add	ecx, 748				; 000002ecH
	call	??A?$Vector_3D@M@@QAEAAMH@Z		; Vector_3D<float>::operator[]
	mov	esi, eax
	push	1
	lea	ecx, DWORD PTR _dragVector$[ebp]
	call	??A?$Vector_3D@M@@QAEAAMH@Z		; Vector_3D<float>::operator[]
	mov	ecx, DWORD PTR [esi]
	mov	DWORD PTR [eax], ecx
$LN13@RunFreeFal:

; 1542 : 
; 1543 :    if (dragVector[I_Z] < - _vel[I_Z])

	push	2
	lea	ecx, DWORD PTR _dragVector$[ebp]
	call	??A?$Vector_3D@M@@QAEAAMH@Z		; Vector_3D<float>::operator[]
	mov	esi, eax
	push	2
	mov	ecx, DWORD PTR _this$[ebp]
	add	ecx, 748				; 000002ecH
	call	??A?$Vector_3D@M@@QAEAAMH@Z		; Vector_3D<float>::operator[]
	movss	xmm0, DWORD PTR [eax]
	xorps	xmm0, DWORD PTR __xmm@80000000800000008000000080000000
	comiss	xmm0, DWORD PTR [esi]
	jbe	SHORT $LN12@RunFreeFal

; 1544 :       dragVector[I_Z] = - _vel[I_Z];

	push	2
	mov	ecx, DWORD PTR _this$[ebp]
	add	ecx, 748				; 000002ecH
	call	??A?$Vector_3D@M@@QAEAAMH@Z		; Vector_3D<float>::operator[]
	movss	xmm0, DWORD PTR [eax]
	xorps	xmm0, DWORD PTR __xmm@80000000800000008000000080000000
	push	2
	lea	ecx, DWORD PTR _dragVector$[ebp]
	movss	DWORD PTR tv401[ebp], xmm0
	call	??A?$Vector_3D@M@@QAEAAMH@Z		; Vector_3D<float>::operator[]
	movss	xmm0, DWORD PTR tv401[ebp]
	movss	DWORD PTR [eax], xmm0
	jmp	SHORT $LN10@RunFreeFal
$LN12@RunFreeFal:

; 1545 :    else if (dragVector[I_Z] > _vel[I_Z])

	push	2
	lea	ecx, DWORD PTR _dragVector$[ebp]
	call	??A?$Vector_3D@M@@QAEAAMH@Z		; Vector_3D<float>::operator[]
	mov	esi, eax
	push	2
	mov	ecx, DWORD PTR _this$[ebp]
	add	ecx, 748				; 000002ecH
	call	??A?$Vector_3D@M@@QAEAAMH@Z		; Vector_3D<float>::operator[]
	movss	xmm0, DWORD PTR [esi]
	comiss	xmm0, DWORD PTR [eax]
	jbe	SHORT $LN10@RunFreeFal

; 1546 :       dragVector[I_Z] = _vel[I_Z];

	push	2
	mov	ecx, DWORD PTR _this$[ebp]
	add	ecx, 748				; 000002ecH
	call	??A?$Vector_3D@M@@QAEAAMH@Z		; Vector_3D<float>::operator[]
	mov	esi, eax
	push	2
	lea	ecx, DWORD PTR _dragVector$[ebp]
	call	??A?$Vector_3D@M@@QAEAAMH@Z		; Vector_3D<float>::operator[]
	mov	edx, DWORD PTR [esi]
	mov	DWORD PTR [eax], edx
$LN10@RunFreeFal:

; 1547 : 
; 1548 : 	accelVector += dragVector;

	lea	eax, DWORD PTR _dragVector$[ebp]
	push	eax
	lea	ecx, DWORD PTR _accelVector$[ebp]
	call	??Y?$Vector_3D@M@@QAEXABV0@@Z		; Vector_3D<float>::operator+=

; 1549 : 	
; 1550 : 	// Ajust the velocity by the acceleration.
; 1551 : 	_vel += accelVector;

	lea	ecx, DWORD PTR _accelVector$[ebp]
	push	ecx
	mov	ecx, DWORD PTR _this$[ebp]
	add	ecx, 748				; 000002ecH
	call	??Y?$Vector_3D@M@@QAEXABV0@@Z		; Vector_3D<float>::operator+=

; 1552 :    F4Assert (_vel[I_X] <  10000.0F);
; 1553 :    F4Assert (_vel[I_X] > -10000.0F);
; 1554 :    F4Assert (_vel[I_Y] <  10000.0F);
; 1555 :    F4Assert (_vel[I_Y] > -10000.0F);
; 1556 :    F4Assert (_vel[I_Z] <  10000.0F);
; 1557 :    F4Assert (_vel[I_Z] > -10000.0F);
; 1558 : 
; 1559 :    if (_vel[I_X] > 10000.0F)

	push	0
	mov	ecx, DWORD PTR _this$[ebp]
	add	ecx, 748				; 000002ecH
	call	??A?$Vector_3D@M@@QAEAAMH@Z		; Vector_3D<float>::operator[]
	movss	xmm0, DWORD PTR [eax]
	comiss	xmm0, DWORD PTR __real@461c4000
	jbe	SHORT $LN9@RunFreeFal

; 1560 :       _vel[I_X] = 10000.0F;

	push	0
	mov	ecx, DWORD PTR _this$[ebp]
	add	ecx, 748				; 000002ecH
	call	??A?$Vector_3D@M@@QAEAAMH@Z		; Vector_3D<float>::operator[]
	movss	xmm0, DWORD PTR __real@461c4000
	movss	DWORD PTR [eax], xmm0
	jmp	SHORT $LN7@RunFreeFal
$LN9@RunFreeFal:

; 1561 :    else if (_vel[I_X] < -10000.0F)

	push	0
	mov	ecx, DWORD PTR _this$[ebp]
	add	ecx, 748				; 000002ecH
	call	??A?$Vector_3D@M@@QAEAAMH@Z		; Vector_3D<float>::operator[]
	movss	xmm0, DWORD PTR __real@c61c4000
	comiss	xmm0, DWORD PTR [eax]
	jbe	SHORT $LN7@RunFreeFal

; 1562 :       _vel[I_X] = -10000.0F;

	push	0
	mov	ecx, DWORD PTR _this$[ebp]
	add	ecx, 748				; 000002ecH
	call	??A?$Vector_3D@M@@QAEAAMH@Z		; Vector_3D<float>::operator[]
	movss	xmm0, DWORD PTR __real@c61c4000
	movss	DWORD PTR [eax], xmm0
$LN7@RunFreeFal:

; 1563 : 
; 1564 :    if (_vel[I_Y] > 10000.0F)

	push	1
	mov	ecx, DWORD PTR _this$[ebp]
	add	ecx, 748				; 000002ecH
	call	??A?$Vector_3D@M@@QAEAAMH@Z		; Vector_3D<float>::operator[]
	movss	xmm0, DWORD PTR [eax]
	comiss	xmm0, DWORD PTR __real@461c4000
	jbe	SHORT $LN6@RunFreeFal

; 1565 :       _vel[I_Y] = 10000.0F;

	push	1
	mov	ecx, DWORD PTR _this$[ebp]
	add	ecx, 748				; 000002ecH
	call	??A?$Vector_3D@M@@QAEAAMH@Z		; Vector_3D<float>::operator[]
	movss	xmm0, DWORD PTR __real@461c4000
	movss	DWORD PTR [eax], xmm0
	jmp	SHORT $LN4@RunFreeFal
$LN6@RunFreeFal:

; 1566 :    else if (_vel[I_Y] < -10000.0F)

	push	1
	mov	ecx, DWORD PTR _this$[ebp]
	add	ecx, 748				; 000002ecH
	call	??A?$Vector_3D@M@@QAEAAMH@Z		; Vector_3D<float>::operator[]
	movss	xmm0, DWORD PTR __real@c61c4000
	comiss	xmm0, DWORD PTR [eax]
	jbe	SHORT $LN4@RunFreeFal

; 1567 :       _vel[I_Y] = -10000.0F;

	push	1
	mov	ecx, DWORD PTR _this$[ebp]
	add	ecx, 748				; 000002ecH
	call	??A?$Vector_3D@M@@QAEAAMH@Z		; Vector_3D<float>::operator[]
	movss	xmm0, DWORD PTR __real@c61c4000
	movss	DWORD PTR [eax], xmm0
$LN4@RunFreeFal:

; 1568 : 
; 1569 :    if (_vel[I_Z] > 10000.0F)

	push	2
	mov	ecx, DWORD PTR _this$[ebp]
	add	ecx, 748				; 000002ecH
	call	??A?$Vector_3D@M@@QAEAAMH@Z		; Vector_3D<float>::operator[]
	movss	xmm0, DWORD PTR [eax]
	comiss	xmm0, DWORD PTR __real@461c4000
	jbe	SHORT $LN3@RunFreeFal

; 1570 :       _vel[I_Z] = 10000.0F;

	push	2
	mov	ecx, DWORD PTR _this$[ebp]
	add	ecx, 748				; 000002ecH
	call	??A?$Vector_3D@M@@QAEAAMH@Z		; Vector_3D<float>::operator[]
	movss	xmm0, DWORD PTR __real@461c4000
	movss	DWORD PTR [eax], xmm0
	jmp	SHORT $LN1@RunFreeFal
$LN3@RunFreeFal:

; 1571 :    else if (_vel[I_Z] < -10000.0F)

	push	2
	mov	ecx, DWORD PTR _this$[ebp]
	add	ecx, 748				; 000002ecH
	call	??A?$Vector_3D@M@@QAEAAMH@Z		; Vector_3D<float>::operator[]
	movss	xmm0, DWORD PTR __real@c61c4000
	comiss	xmm0, DWORD PTR [eax]
	jbe	SHORT $LN1@RunFreeFal

; 1572 :       _vel[I_Z] = -10000.0F;

	push	2
	mov	ecx, DWORD PTR _this$[ebp]
	add	ecx, 748				; 000002ecH
	call	??A?$Vector_3D@M@@QAEAAMH@Z		; Vector_3D<float>::operator[]
	movss	xmm0, DWORD PTR __real@c61c4000
	movss	DWORD PTR [eax], xmm0
$LN1@RunFreeFal:

; 1573 : }

	mov	BYTE PTR __$EHRec$[ebp+8], 0
	lea	ecx, DWORD PTR _accelVector$[ebp]
	call	??1?$Vector_3D@M@@QAE@XZ		; Vector_3D<float>::~Vector_3D<float>
	mov	DWORD PTR __$EHRec$[ebp+8], -1
	lea	ecx, DWORD PTR _dragVector$[ebp]
	call	??1?$Vector_3D@M@@QAE@XZ		; Vector_3D<float>::~Vector_3D<float>
	mov	ecx, DWORD PTR __$EHRec$[ebp]
	mov	DWORD PTR fs:0, ecx
	pop	ecx
	pop	esi
	mov	ecx, DWORD PTR __$ArrayPad$[ebp]
	xor	ecx, ebp
	call	@__security_check_cookie@4
	mov	esp, ebp
	pop	ebp
	ret	0
_TEXT	ENDS
text$x	SEGMENT
__unwindfunclet$?RunFreeFall@EjectedPilotClass@@AAEXXZ$0:
	lea	ecx, DWORD PTR _dragVector$[ebp]
	jmp	??1?$Vector_3D@M@@QAE@XZ		; Vector_3D<float>::~Vector_3D<float>
__unwindfunclet$?RunFreeFall@EjectedPilotClass@@AAEXXZ$1:
	lea	ecx, DWORD PTR _accelVector$[ebp]
	jmp	??1?$Vector_3D@M@@QAE@XZ		; Vector_3D<float>::~Vector_3D<float>
__ehhandler$?RunFreeFall@EjectedPilotClass@@AAEXXZ:
	mov	edx, DWORD PTR [esp+8]
	lea	eax, DWORD PTR [edx+12]
	mov	ecx, DWORD PTR [edx-60]
	xor	ecx, eax
	call	@__security_check_cookie@4
	mov	ecx, DWORD PTR [edx-4]
	xor	ecx, eax
	call	@__security_check_cookie@4
	mov	eax, OFFSET __ehfuncinfo$?RunFreeFall@EjectedPilotClass@@AAEXXZ
	jmp	___CxxFrameHandler3
text$x	ENDS
?RunFreeFall@EjectedPilotClass@@AAEXXZ ENDP		; EjectedPilotClass::RunFreeFall
; Function compile flags: /Odtp
; File c:\users\zhitao li\documents\visual studio 2012\projects\freefalcon\sim\eject\simeject.cpp
_TEXT	SEGMENT
tv255 = -64						; size = 4
tv331 = -60						; size = 4
tv264 = -56						; size = 4
tv333 = -52						; size = 4
tv329 = -48						; size = 4
_this$ = -44						; size = 4
_accelVector$ = -40					; size = 12
_dragVector$ = -28					; size = 12
__$ArrayPad$ = -16					; size = 4
__$EHRec$ = -12						; size = 12
?RunFreeFallWithOpenChute@EjectedPilotClass@@AAEXXZ PROC ; EjectedPilotClass::RunFreeFallWithOpenChute
; _this$ = ecx

; 1464 : {

	push	ebp
	mov	ebp, esp
	push	-1
	push	__ehhandler$?RunFreeFallWithOpenChute@EjectedPilotClass@@AAEXXZ
	mov	eax, DWORD PTR fs:0
	push	eax
	sub	esp, 52					; 00000034H
	mov	eax, DWORD PTR ___security_cookie
	xor	eax, ebp
	mov	DWORD PTR __$ArrayPad$[ebp], eax
	push	esi
	push	eax
	lea	eax, DWORD PTR __$EHRec$[ebp]
	mov	DWORD PTR fs:0, eax
	mov	DWORD PTR _this$[ebp], ecx

; 1465 : 	EP_VECTOR
; 1466 : 		dragVector,

	lea	ecx, DWORD PTR _dragVector$[ebp]
	call	??0?$Vector_3D@M@@QAE@XZ		; Vector_3D<float>::Vector_3D<float>
	mov	DWORD PTR __$EHRec$[ebp+8], 0

; 1467 : 		accelVector;

	lea	ecx, DWORD PTR _accelVector$[ebp]
	call	??0?$Vector_3D@M@@QAE@XZ		; Vector_3D<float>::Vector_3D<float>
	mov	BYTE PTR __$EHRec$[ebp+8], 1

; 1468 : 	
; 1469 : 	// Calculate all forces acting on the seat.
; 1470 : 	CalculateGravityVector(accelVector);

	lea	eax, DWORD PTR _accelVector$[ebp]
	push	eax
	mov	ecx, DWORD PTR _this$[ebp]
	call	?CalculateGravityVector@EjectedPilotClass@@ABEXAAV?$Vector_3D@M@@@Z ; EjectedPilotClass::CalculateGravityVector

; 1471 : 	CalculateDragVector(dragVector);

	lea	ecx, DWORD PTR _dragVector$[ebp]
	push	ecx
	mov	ecx, DWORD PTR _this$[ebp]
	call	?CalculateDragVector@EjectedPilotClass@@ABEXAAV?$Vector_3D@M@@@Z ; EjectedPilotClass::CalculateDragVector

; 1472 : 
; 1473 : 	// Calculate the resultant acceleration on the seat.
; 1474 : 	F4Assert(Mass() != 0.0);
; 1475 :    dragVector *= _deltaTime/Mass();

	mov	edx, DWORD PTR _this$[ebp]
	mov	eax, DWORD PTR [edx]
	mov	ecx, DWORD PTR _this$[ebp]
	mov	edx, DWORD PTR [eax+388]
	call	edx
	fstp	DWORD PTR tv255[ebp]
	mov	eax, DWORD PTR _this$[ebp]
	movss	xmm0, DWORD PTR [eax+708]
	divss	xmm0, DWORD PTR tv255[ebp]
	push	ecx
	movss	DWORD PTR [esp], xmm0
	lea	ecx, DWORD PTR _dragVector$[ebp]
	call	??X?$Vector_3D@M@@QAEXM@Z		; Vector_3D<float>::operator*=

; 1476 : 	accelVector *= _deltaTime/Mass();

	mov	ecx, DWORD PTR _this$[ebp]
	mov	edx, DWORD PTR [ecx]
	mov	ecx, DWORD PTR _this$[ebp]
	mov	eax, DWORD PTR [edx+388]
	call	eax
	fstp	DWORD PTR tv264[ebp]
	mov	ecx, DWORD PTR _this$[ebp]
	movss	xmm0, DWORD PTR [ecx+708]
	divss	xmm0, DWORD PTR tv264[ebp]
	push	ecx
	movss	DWORD PTR [esp], xmm0
	lea	ecx, DWORD PTR _accelVector$[ebp]
	call	??X?$Vector_3D@M@@QAEXM@Z		; Vector_3D<float>::operator*=

; 1477 : 
; 1478 :    // Don't cross the zero line
; 1479 :    if (dragVector[I_X] < - _vel[I_X])

	push	0
	lea	ecx, DWORD PTR _dragVector$[ebp]
	call	??A?$Vector_3D@M@@QAEAAMH@Z		; Vector_3D<float>::operator[]
	mov	esi, eax
	push	0
	mov	ecx, DWORD PTR _this$[ebp]
	add	ecx, 748				; 000002ecH
	call	??A?$Vector_3D@M@@QAEAAMH@Z		; Vector_3D<float>::operator[]
	movss	xmm0, DWORD PTR [eax]
	xorps	xmm0, DWORD PTR __xmm@80000000800000008000000080000000
	comiss	xmm0, DWORD PTR [esi]
	jbe	SHORT $LN10@RunFreeFal

; 1480 :       dragVector[I_X] = - _vel[I_X];

	push	0
	mov	ecx, DWORD PTR _this$[ebp]
	add	ecx, 748				; 000002ecH
	call	??A?$Vector_3D@M@@QAEAAMH@Z		; Vector_3D<float>::operator[]
	movss	xmm0, DWORD PTR [eax]
	xorps	xmm0, DWORD PTR __xmm@80000000800000008000000080000000
	push	0
	lea	ecx, DWORD PTR _dragVector$[ebp]
	movss	DWORD PTR tv329[ebp], xmm0
	call	??A?$Vector_3D@M@@QAEAAMH@Z		; Vector_3D<float>::operator[]
	movss	xmm0, DWORD PTR tv329[ebp]
	movss	DWORD PTR [eax], xmm0
	jmp	SHORT $LN8@RunFreeFal
$LN10@RunFreeFal:

; 1481 :    else if (dragVector[I_X] > _vel[I_X])

	push	0
	lea	ecx, DWORD PTR _dragVector$[ebp]
	call	??A?$Vector_3D@M@@QAEAAMH@Z		; Vector_3D<float>::operator[]
	mov	esi, eax
	push	0
	mov	ecx, DWORD PTR _this$[ebp]
	add	ecx, 748				; 000002ecH
	call	??A?$Vector_3D@M@@QAEAAMH@Z		; Vector_3D<float>::operator[]
	movss	xmm0, DWORD PTR [esi]
	comiss	xmm0, DWORD PTR [eax]
	jbe	SHORT $LN8@RunFreeFal

; 1482 :       dragVector[I_X] = _vel[I_X];

	push	0
	mov	ecx, DWORD PTR _this$[ebp]
	add	ecx, 748				; 000002ecH
	call	??A?$Vector_3D@M@@QAEAAMH@Z		; Vector_3D<float>::operator[]
	mov	esi, eax
	push	0
	lea	ecx, DWORD PTR _dragVector$[ebp]
	call	??A?$Vector_3D@M@@QAEAAMH@Z		; Vector_3D<float>::operator[]
	mov	edx, DWORD PTR [esi]
	mov	DWORD PTR [eax], edx
$LN8@RunFreeFal:

; 1483 : 
; 1484 :    if (dragVector[I_Y] < - _vel[I_Y])

	push	1
	lea	ecx, DWORD PTR _dragVector$[ebp]
	call	??A?$Vector_3D@M@@QAEAAMH@Z		; Vector_3D<float>::operator[]
	mov	esi, eax
	push	1
	mov	ecx, DWORD PTR _this$[ebp]
	add	ecx, 748				; 000002ecH
	call	??A?$Vector_3D@M@@QAEAAMH@Z		; Vector_3D<float>::operator[]
	movss	xmm0, DWORD PTR [eax]
	xorps	xmm0, DWORD PTR __xmm@80000000800000008000000080000000
	comiss	xmm0, DWORD PTR [esi]
	jbe	SHORT $LN7@RunFreeFal

; 1485 :       dragVector[I_Y] = - _vel[I_Y];

	push	1
	mov	ecx, DWORD PTR _this$[ebp]
	add	ecx, 748				; 000002ecH
	call	??A?$Vector_3D@M@@QAEAAMH@Z		; Vector_3D<float>::operator[]
