; Listing generated by Microsoft (R) Optimizing Compiler Version 17.00.51106.1 

	TITLE	C:\Users\Zhitao Li\Documents\Visual Studio 2012\Projects\Freefalcon\CAMPAIGN\CAMPLIB\AIInput.cpp
	.686P
	.XMM
	include listing.inc
	.model	flat

INCLUDELIB LIBCMT
INCLUDELIB OLDNAMES

PUBLIC	?traps@_Num_base@std@@2_NB			; std::_Num_base::traps
PUBLIC	?round_style@_Num_base@std@@2W4float_round_style@2@B ; std::_Num_base::round_style
PUBLIC	?digits@_Num_base@std@@2HB			; std::_Num_base::digits
PUBLIC	?digits10@_Num_base@std@@2HB			; std::_Num_base::digits10
PUBLIC	?max_digits10@_Num_base@std@@2HB		; std::_Num_base::max_digits10
PUBLIC	?max_exponent@_Num_base@std@@2HB		; std::_Num_base::max_exponent
PUBLIC	?max_exponent10@_Num_base@std@@2HB		; std::_Num_base::max_exponent10
PUBLIC	?min_exponent@_Num_base@std@@2HB		; std::_Num_base::min_exponent
PUBLIC	?min_exponent10@_Num_base@std@@2HB		; std::_Num_base::min_exponent10
PUBLIC	?radix@_Num_base@std@@2HB			; std::_Num_base::radix
PUBLIC	?is_bounded@_Num_int_base@std@@2_NB		; std::_Num_int_base::is_bounded
PUBLIC	?is_exact@_Num_int_base@std@@2_NB		; std::_Num_int_base::is_exact
PUBLIC	?is_integer@_Num_int_base@std@@2_NB		; std::_Num_int_base::is_integer
PUBLIC	?is_modulo@_Num_int_base@std@@2_NB		; std::_Num_int_base::is_modulo
PUBLIC	?is_specialized@_Num_int_base@std@@2_NB		; std::_Num_int_base::is_specialized
PUBLIC	?radix@_Num_int_base@std@@2HB			; std::_Num_int_base::radix
PUBLIC	?has_denorm@_Num_float_base@std@@2W4float_denorm_style@2@B ; std::_Num_float_base::has_denorm
PUBLIC	?has_denorm_loss@_Num_float_base@std@@2_NB	; std::_Num_float_base::has_denorm_loss
PUBLIC	?SIMDIRTYDATA_INTERVAL@FalconEntity@@2KB	; FalconEntity::SIMDIRTYDATA_INTERVAL
PUBLIC	?CMPDIRTYDATA_INTERVAL@FalconEntity@@2KB	; FalconEntity::CMPDIRTYDATA_INTERVAL
PUBLIC	?has_infinity@_Num_float_base@std@@2_NB		; std::_Num_float_base::has_infinity
PUBLIC	?has_quiet_NaN@_Num_float_base@std@@2_NB	; std::_Num_float_base::has_quiet_NaN
PUBLIC	?has_signaling_NaN@_Num_float_base@std@@2_NB	; std::_Num_float_base::has_signaling_NaN
PUBLIC	?is_bounded@_Num_float_base@std@@2_NB		; std::_Num_float_base::is_bounded
PUBLIC	?is_exact@_Num_float_base@std@@2_NB		; std::_Num_float_base::is_exact
PUBLIC	?is_iec559@_Num_float_base@std@@2_NB		; std::_Num_float_base::is_iec559
PUBLIC	?is_integer@_Num_float_base@std@@2_NB		; std::_Num_float_base::is_integer
PUBLIC	?is_modulo@_Num_float_base@std@@2_NB		; std::_Num_float_base::is_modulo
PUBLIC	?is_signed@_Num_float_base@std@@2_NB		; std::_Num_float_base::is_signed
PUBLIC	?is_specialized@_Num_float_base@std@@2_NB	; std::_Num_float_base::is_specialized
PUBLIC	?tinyness_before@_Num_float_base@std@@2_NB	; std::_Num_float_base::tinyness_before
PUBLIC	?traps@_Num_float_base@std@@2_NB		; std::_Num_float_base::traps
PUBLIC	?round_style@_Num_float_base@std@@2W4float_round_style@2@B ; std::_Num_float_base::round_style
PUBLIC	?radix@_Num_float_base@std@@2HB			; std::_Num_float_base::radix
PUBLIC	?is_signed@?$numeric_limits@D@std@@2_NB		; std::numeric_limits<char>::is_signed
PUBLIC	?digits@?$numeric_limits@D@std@@2HB		; std::numeric_limits<char>::digits
PUBLIC	?digits10@?$numeric_limits@D@std@@2HB		; std::numeric_limits<char>::digits10
PUBLIC	?is_signed@?$numeric_limits@_W@std@@2_NB	; std::numeric_limits<wchar_t>::is_signed
PUBLIC	?digits@?$numeric_limits@_W@std@@2HB		; std::numeric_limits<wchar_t>::digits
PUBLIC	?digits10@?$numeric_limits@_W@std@@2HB		; std::numeric_limits<wchar_t>::digits10
PUBLIC	?is_modulo@?$numeric_limits@_N@std@@2_NB	; std::numeric_limits<bool>::is_modulo
PUBLIC	?is_signed@?$numeric_limits@_N@std@@2_NB	; std::numeric_limits<bool>::is_signed
PUBLIC	?digits@?$numeric_limits@_N@std@@2HB		; std::numeric_limits<bool>::digits
PUBLIC	?digits10@?$numeric_limits@_N@std@@2HB		; std::numeric_limits<bool>::digits10
PUBLIC	?is_signed@?$numeric_limits@C@std@@2_NB		; std::numeric_limits<signed char>::is_signed
PUBLIC	?digits@?$numeric_limits@C@std@@2HB		; std::numeric_limits<signed char>::digits
PUBLIC	?digits10@?$numeric_limits@C@std@@2HB		; std::numeric_limits<signed char>::digits10
PUBLIC	?is_signed@?$numeric_limits@E@std@@2_NB		; std::numeric_limits<unsigned char>::is_signed
PUBLIC	?value@?$integral_constant@_N$0A@@std@@2_NB	; std::integral_constant<bool,0>::value
PUBLIC	?digits@?$numeric_limits@E@std@@2HB		; std::numeric_limits<unsigned char>::digits
PUBLIC	?digits10@?$numeric_limits@E@std@@2HB		; std::numeric_limits<unsigned char>::digits10
PUBLIC	?value@?$integral_constant@_N$00@std@@2_NB	; std::integral_constant<bool,1>::value
PUBLIC	?is_signed@?$numeric_limits@F@std@@2_NB		; std::numeric_limits<short>::is_signed
PUBLIC	?digits@?$numeric_limits@F@std@@2HB		; std::numeric_limits<short>::digits
PUBLIC	?digits10@?$numeric_limits@F@std@@2HB		; std::numeric_limits<short>::digits10
PUBLIC	?is_signed@?$numeric_limits@G@std@@2_NB		; std::numeric_limits<unsigned short>::is_signed
PUBLIC	?digits@?$numeric_limits@G@std@@2HB		; std::numeric_limits<unsigned short>::digits
PUBLIC	?digits10@?$numeric_limits@G@std@@2HB		; std::numeric_limits<unsigned short>::digits10
PUBLIC	?is_signed@?$numeric_limits@H@std@@2_NB		; std::numeric_limits<int>::is_signed
PUBLIC	?value@?$_Sizeof@HU_Nil@std@@U12@U12@U12@U12@U12@U12@@std@@2IB ; std::_Sizeof<int,std::_Nil,std::_Nil,std::_Nil,std::_Nil,std::_Nil,std::_Nil,std::_Nil>::value
PUBLIC	?digits@?$numeric_limits@H@std@@2HB		; std::numeric_limits<int>::digits
PUBLIC	?digits10@?$numeric_limits@H@std@@2HB		; std::numeric_limits<int>::digits10
PUBLIC	?is_signed@?$numeric_limits@I@std@@2_NB		; std::numeric_limits<unsigned int>::is_signed
PUBLIC	?digits@?$numeric_limits@I@std@@2HB		; std::numeric_limits<unsigned int>::digits
PUBLIC	?digits10@?$numeric_limits@I@std@@2HB		; std::numeric_limits<unsigned int>::digits10
PUBLIC	?is_signed@?$numeric_limits@J@std@@2_NB		; std::numeric_limits<long>::is_signed
PUBLIC	?digits@?$numeric_limits@J@std@@2HB		; std::numeric_limits<long>::digits
PUBLIC	?digits10@?$numeric_limits@J@std@@2HB		; std::numeric_limits<long>::digits10
PUBLIC	?is_signed@?$numeric_limits@K@std@@2_NB		; std::numeric_limits<unsigned long>::is_signed
PUBLIC	?digits@?$numeric_limits@K@std@@2HB		; std::numeric_limits<unsigned long>::digits
PUBLIC	?digits10@?$numeric_limits@K@std@@2HB		; std::numeric_limits<unsigned long>::digits10
PUBLIC	?is_signed@?$numeric_limits@_J@std@@2_NB	; std::numeric_limits<__int64>::is_signed
PUBLIC	?digits@?$numeric_limits@_J@std@@2HB		; std::numeric_limits<__int64>::digits
PUBLIC	?digits10@?$numeric_limits@_J@std@@2HB		; std::numeric_limits<__int64>::digits10
PUBLIC	?is_signed@?$numeric_limits@_K@std@@2_NB	; std::numeric_limits<unsigned __int64>::is_signed
PUBLIC	?digits@?$numeric_limits@_K@std@@2HB		; std::numeric_limits<unsigned __int64>::digits
PUBLIC	?digits10@?$numeric_limits@_K@std@@2HB		; std::numeric_limits<unsigned __int64>::digits10
PUBLIC	?digits@?$numeric_limits@M@std@@2HB		; std::numeric_limits<float>::digits
PUBLIC	?digits10@?$numeric_limits@M@std@@2HB		; std::numeric_limits<float>::digits10
PUBLIC	?max_digits10@?$numeric_limits@M@std@@2HB	; std::numeric_limits<float>::max_digits10
PUBLIC	?max_exponent@?$numeric_limits@M@std@@2HB	; std::numeric_limits<float>::max_exponent
PUBLIC	?max_exponent10@?$numeric_limits@M@std@@2HB	; std::numeric_limits<float>::max_exponent10
PUBLIC	?min_exponent@?$numeric_limits@M@std@@2HB	; std::numeric_limits<float>::min_exponent
PUBLIC	?min_exponent10@?$numeric_limits@M@std@@2HB	; std::numeric_limits<float>::min_exponent10
PUBLIC	?value@?$integral_constant@I$0A@@std@@2IB	; std::integral_constant<unsigned int,0>::value
PUBLIC	?digits@?$numeric_limits@N@std@@2HB		; std::numeric_limits<double>::digits
PUBLIC	?digits10@?$numeric_limits@N@std@@2HB		; std::numeric_limits<double>::digits10
PUBLIC	?max_digits10@?$numeric_limits@N@std@@2HB	; std::numeric_limits<double>::max_digits10
PUBLIC	?max_exponent@?$numeric_limits@N@std@@2HB	; std::numeric_limits<double>::max_exponent
PUBLIC	?max_exponent10@?$numeric_limits@N@std@@2HB	; std::numeric_limits<double>::max_exponent10
PUBLIC	?min_exponent@?$numeric_limits@N@std@@2HB	; std::numeric_limits<double>::min_exponent
PUBLIC	?min_exponent10@?$numeric_limits@N@std@@2HB	; std::numeric_limits<double>::min_exponent10
PUBLIC	?digits@?$numeric_limits@O@std@@2HB		; std::numeric_limits<long double>::digits
PUBLIC	?digits10@?$numeric_limits@O@std@@2HB		; std::numeric_limits<long double>::digits10
PUBLIC	?max_digits10@?$numeric_limits@O@std@@2HB	; std::numeric_limits<long double>::max_digits10
PUBLIC	?max_exponent@?$numeric_limits@O@std@@2HB	; std::numeric_limits<long double>::max_exponent
PUBLIC	?max_exponent10@?$numeric_limits@O@std@@2HB	; std::numeric_limits<long double>::max_exponent10
PUBLIC	?min_exponent@?$numeric_limits@O@std@@2HB	; std::numeric_limits<long double>::min_exponent
PUBLIC	?min_exponent10@?$numeric_limits@O@std@@2HB	; std::numeric_limits<long double>::min_exponent10
PUBLIC	?IMMEDIATE_MIN_TIME@@3FA			; IMMEDIATE_MIN_TIME
PUBLIC	?IMMEDIATE_MAX_TIME@@3FA			; IMMEDIATE_MAX_TIME
PUBLIC	?LONGRANGE_MIN_TIME@@3FA			; LONGRANGE_MIN_TIME
PUBLIC	?LONGRANGE_MAX_TIME@@3FA			; LONGRANGE_MAX_TIME
PUBLIC	?ATM_ASSIGN_RATIO@@3FA				; ATM_ASSIGN_RATIO
PUBLIC	?MAX_FLYMISSION_THREAT@@3FA			; MAX_FLYMISSION_THREAT
PUBLIC	?MAX_FLYMISSION_HIGHTHREAT@@3FA			; MAX_FLYMISSION_HIGHTHREAT
PUBLIC	?MAX_FLYMISSION_NOTHREAT@@3FA			; MAX_FLYMISSION_NOTHREAT
PUBLIC	?MIN_SEADESCORT_THREAT@@3FA			; MIN_SEADESCORT_THREAT
PUBLIC	?MIN_AVOID_THREAT@@3FA				; MIN_AVOID_THREAT
PUBLIC	?MIN_AP_DISTANCE@@3FA				; MIN_AP_DISTANCE
PUBLIC	?BREAKPOINT_DISTANCE@@3FA			; BREAKPOINT_DISTANCE
PUBLIC	?ATM_TARGET_CLEAR_RADIUS@@3FA			; ATM_TARGET_CLEAR_RADIUS
PUBLIC	?LOITER_DIST@@3FA				; LOITER_DIST
PUBLIC	?SWEEP_DISTANCE@@3FA				; SWEEP_DISTANCE
PUBLIC	?MINIMUM_BDA_PRIORITY@@3FA			; MINIMUM_BDA_PRIORITY
PUBLIC	?MINIMUM_AWACS_DISTANCE@@3FA			; MINIMUM_AWACS_DISTANCE
PUBLIC	?MAXIMUM_AWACS_DISTANCE@@3FA			; MAXIMUM_AWACS_DISTANCE
PUBLIC	?MINIMUM_JSTAR_DISTANCE@@3FA			; MINIMUM_JSTAR_DISTANCE
PUBLIC	?MAXIMUM_JSTAR_DISTANCE@@3FA			; MAXIMUM_JSTAR_DISTANCE
PUBLIC	?MINIMUM_TANKER_DISTANCE@@3FA			; MINIMUM_TANKER_DISTANCE
PUBLIC	?MAXIMUM_TANKER_DISTANCE@@3FA			; MAXIMUM_TANKER_DISTANCE
PUBLIC	?MINIMUM_ECM_DISTANCE@@3FA			; MINIMUM_ECM_DISTANCE
PUBLIC	?MAXIMUM_ECM_DISTANCE@@3FA			; MAXIMUM_ECM_DISTANCE
PUBLIC	?FIRST_COLONEL@@3FA				; FIRST_COLONEL
PUBLIC	?FIRST_COMMANDER@@3FA				; FIRST_COMMANDER
PUBLIC	?FIRST_WINGMAN@@3FA				; FIRST_WINGMAN
PUBLIC	?LAST_WINGMAN@@3FA				; LAST_WINGMAN
PUBLIC	?MAX_AA_STR_FOR_ESCORT@@3FA			; MAX_AA_STR_FOR_ESCORT
PUBLIC	?BARCAP_REQUEST_INTERVAL@@3FA			; BARCAP_REQUEST_INTERVAL
PUBLIC	?ONCALL_CAS_FLIGHTS_PER_REQUEST@@3FA		; ONCALL_CAS_FLIGHTS_PER_REQUEST
PUBLIC	?MIN_TASK_AIR@@3FA				; MIN_TASK_AIR
PUBLIC	?MIN_PLAN_AIR@@3FA				; MIN_PLAN_AIR
PUBLIC	?VICTORY_CHECK_TIME@@3FA			; VICTORY_CHECK_TIME
PUBLIC	?FLIGHT_MOVE_CHECK_INTERVAL@@3FA		; FLIGHT_MOVE_CHECK_INTERVAL
PUBLIC	?FLIGHT_COMBAT_CHECK_INTERVAL@@3FA		; FLIGHT_COMBAT_CHECK_INTERVAL
PUBLIC	?AIR_UPDATE_CHECK_INTERVAL@@3FA			; AIR_UPDATE_CHECK_INTERVAL
PUBLIC	?FLIGHT_COMBAT_RATE@@3FA			; FLIGHT_COMBAT_RATE
PUBLIC	?PACKAGE_CYCLES_TO_WAIT@@3FA			; PACKAGE_CYCLES_TO_WAIT
PUBLIC	?AIR_PATH_MAX@@3FA				; AIR_PATH_MAX
PUBLIC	?MIN_IGNORE_RANGE@@3MA				; MIN_IGNORE_RANGE
PUBLIC	?MAX_SAR_DIST@@3FA				; MAX_SAR_DIST
PUBLIC	?value@?$_Sizeof@U_Nil@std@@U12@U12@U12@U12@U12@U12@U12@@std@@2IB ; std::_Sizeof<std::_Nil,std::_Nil,std::_Nil,std::_Nil,std::_Nil,std::_Nil,std::_Nil,std::_Nil>::value
PUBLIC	?MAX_BAI_DIST@@3FA				; MAX_BAI_DIST
PUBLIC	?PILOT_ASSIGN_TIME@@3JA				; PILOT_ASSIGN_TIME
PUBLIC	?AIRCRAFT_TURNAROUND_TIME_MINUTES@@3FA		; AIRCRAFT_TURNAROUND_TIME_MINUTES
PUBLIC	?PRIMARY_OBJ_PRIORITY@@3FA			; PRIMARY_OBJ_PRIORITY
PUBLIC	?SECONDARY_OBJ_PRIORITY@@3FA			; SECONDARY_OBJ_PRIORITY
PUBLIC	?MAX_OFFENSES@@3FA				; MAX_OFFENSES
PUBLIC	?MIN_OFFENSIVE_UNITS@@3FA			; MIN_OFFENSIVE_UNITS
PUBLIC	?MINIMUM_ADJUSTED_LEVEL@@3FA			; MINIMUM_ADJUSTED_LEVEL
PUBLIC	?MINIMUM_VIABLE_LEVEL@@3FA			; MINIMUM_VIABLE_LEVEL
PUBLIC	?MAX_ASSIGNMENT_DIST@@3FA			; MAX_ASSIGNMENT_DIST
PUBLIC	?MAXLINKS_FROM_SO_OFFENSIVE@@3FA		; MAXLINKS_FROM_SO_OFFENSIVE
PUBLIC	?MAXLINKS_FROM_SO_DEFENSIVE@@3FA		; MAXLINKS_FROM_SO_DEFENSIVE
PUBLIC	?BRIGADE_BREAK_BASE@@3FA			; BRIGADE_BREAK_BASE
PUBLIC	?ROLE_SCORE_MODIFIER@@3FA			; ROLE_SCORE_MODIFIER
PUBLIC	?MIN_TASK_GROUND@@3FA				; MIN_TASK_GROUND
PUBLIC	?MIN_PLAN_GROUND@@3FA				; MIN_PLAN_GROUND
PUBLIC	?MIN_REPAIR_OBJECTIVES@@3FA			; MIN_REPAIR_OBJECTIVES
PUBLIC	?MIN_RESUPPLY@@3FA				; MIN_RESUPPLY
PUBLIC	?MORALE_REGAIN_RATE@@3FA			; MORALE_REGAIN_RATE
PUBLIC	?REGAIN_RATE_MULTIPLIER_FOR_TE@@3FA		; REGAIN_RATE_MULTIPLIER_FOR_TE
PUBLIC	?FOOT_MOVE_CHECK_INTERVAL@@3FA			; FOOT_MOVE_CHECK_INTERVAL
PUBLIC	?TRACKED_MOVE_CHECK_INTERVAL@@3FA		; TRACKED_MOVE_CHECK_INTERVAL
PUBLIC	?GROUND_COMBAT_CHECK_INTERVAL@@3FA		; GROUND_COMBAT_CHECK_INTERVAL
PUBLIC	?GROUND_UPDATE_CHECK_INTERVAL@@3FA		; GROUND_UPDATE_CHECK_INTERVAL
PUBLIC	?GROUND_COMBAT_RATE@@3FA			; GROUND_COMBAT_RATE
PUBLIC	?GROUND_PATH_MAX@@3FA				; GROUND_PATH_MAX
PUBLIC	?OBJ_GROUND_PATH_MAX_SEARCH@@3FA		; OBJ_GROUND_PATH_MAX_SEARCH
PUBLIC	?OBJ_GROUND_PATH_MAX_COST@@3FA			; OBJ_GROUND_PATH_MAX_COST
PUBLIC	?MIN_FULL_OFFENSIVE_INITIATIVE@@3FA		; MIN_FULL_OFFENSIVE_INITIATIVE
PUBLIC	?MIN_COUNTER_ATTACK_INITIATIVE@@3FA		; MIN_COUNTER_ATTACK_INITIATIVE
PUBLIC	?MIN_SECURE_INITIATIVE@@3FA			; MIN_SECURE_INITIATIVE
PUBLIC	?MINIMUM_EXP_TO_FIRE_PREGUIDE@@3FA		; MINIMUM_EXP_TO_FIRE_PREGUIDE
PUBLIC	?OFFENSIVE_REINFORCEMENT_TIME@@3JA		; OFFENSIVE_REINFORCEMENT_TIME
PUBLIC	?DEFENSIVE_REINFORCEMENT_TIME@@3JA		; DEFENSIVE_REINFORCEMENT_TIME
PUBLIC	?CONSOLIDATE_REINFORCEMENT_TIME@@3JA		; CONSOLIDATE_REINFORCEMENT_TIME
PUBLIC	?ACTION_PREP_TIME@@3JA				; ACTION_PREP_TIME
PUBLIC	?MIN_TASK_NAVAL@@3FA				; MIN_TASK_NAVAL
PUBLIC	?MIN_PLAN_NAVAL@@3FA				; MIN_PLAN_NAVAL
PUBLIC	?NAVAL_MOVE_CHECK_INTERVAL@@3FA			; NAVAL_MOVE_CHECK_INTERVAL
PUBLIC	?NAVAL_COMBAT_CHECK_INTERVAL@@3FA		; NAVAL_COMBAT_CHECK_INTERVAL
PUBLIC	?NAVAL_COMBAT_RATE@@3FA				; NAVAL_COMBAT_RATE
PUBLIC	?LOW_ALTITUDE_CUTOFF@@3FA			; LOW_ALTITUDE_CUTOFF
PUBLIC	?MAX_GROUND_SEARCH@@3FA				; MAX_GROUND_SEARCH
PUBLIC	?MAX_AIR_SEARCH@@3FA				; MAX_AIR_SEARCH
PUBLIC	?NEW_CLOUD_CHANCE@@3FA				; NEW_CLOUD_CHANCE
PUBLIC	?DEL_CLOUD_CHANCE@@3FA				; DEL_CLOUD_CHANCE
PUBLIC	?PLAYER_BUBBLE_MOVERS@@3FA			; PLAYER_BUBBLE_MOVERS
PUBLIC	?FALCON_PLAYER_TEAM@@3FA			; FALCON_PLAYER_TEAM
PUBLIC	?CAMP_RESYNC_TIME@@3FA				; CAMP_RESYNC_TIME
PUBLIC	?BUBBLE_REBUILD_TIME@@3GA			; BUBBLE_REBUILD_TIME
PUBLIC	?STANDARD_EVENT_LENGTH@@3FA			; STANDARD_EVENT_LENGTH
PUBLIC	?PRIORITY_EVENT_LENGTH@@3FA			; PRIORITY_EVENT_LENGTH
PUBLIC	?MIN_RECALCULATE_STATISTICS@@3FA		; MIN_RECALCULATE_STATISTICS
PUBLIC	?LOWAIR_RANGE_MODIFIER@@3MA			; LOWAIR_RANGE_MODIFIER
PUBLIC	?MINIMUM_STRENGTH@@3FA				; MINIMUM_STRENGTH
PUBLIC	?MAX_DAMAGE_TRIES@@3FA				; MAX_DAMAGE_TRIES
PUBLIC	?REAGREGATION_RATIO@@3MA			; REAGREGATION_RATIO
PUBLIC	?MIN_REINFORCE_TIME@@3FA			; MIN_REINFORCE_TIME
PUBLIC	?SIM_BUBBLE_SIZE@@3MA				; SIM_BUBBLE_SIZE
PUBLIC	?INITIATIVE_LEAK_PER_HOUR@@3FA			; INITIATIVE_LEAK_PER_HOUR
PUBLIC	?F4_GENERIC_US_TRUCK_TYPE_SMALL@@3HA		; F4_GENERIC_US_TRUCK_TYPE_SMALL
PUBLIC	?F4_GENERIC_US_TRUCK_TYPE_LARGE@@3HA		; F4_GENERIC_US_TRUCK_TYPE_LARGE
PUBLIC	?F4_GENERIC_US_TRUCK_TYPE_TRAILER@@3HA		; F4_GENERIC_US_TRUCK_TYPE_TRAILER
PUBLIC	?F4_GENERIC_OPFOR_TRUCK_TYPE_SMALL@@3HA		; F4_GENERIC_OPFOR_TRUCK_TYPE_SMALL
PUBLIC	?F4_GENERIC_OPFOR_TRUCK_TYPE_LARGE@@3HA		; F4_GENERIC_OPFOR_TRUCK_TYPE_LARGE
PUBLIC	?F4_GENERIC_OPFOR_TRUCK_TYPE_TRAILER@@3HA	; F4_GENERIC_OPFOR_TRUCK_TYPE_TRAILER
PUBLIC	?SWITCH_TRACTORS_IN_TE@@3HA			; SWITCH_TRACTORS_IN_TE
PUBLIC	?StartOffBonusRepl@@3HA				; StartOffBonusRepl
PUBLIC	?StartOffBonusSup@@3HA				; StartOffBonusSup
PUBLIC	?StartOffBonusFuel@@3HA				; StartOffBonusFuel
PUBLIC	?ActionRate@@3HA				; ActionRate
PUBLIC	?ActionTimeOut@@3HA				; ActionTimeOut
PUBLIC	?DataRateModRepl@@3MA				; DataRateModRepl
PUBLIC	?DataRateModSup@@3MA				; DataRateModSup
PUBLIC	?RelSquadBonus@@3MA				; RelSquadBonus
PUBLIC	?NoActionBonusProd@@3HA				; NoActionBonusProd
PUBLIC	?NoTypeBonusRepl@@3HA				; NoTypeBonusRepl
PUBLIC	?NewInitiativePoints@@3HA			; NewInitiativePoints
PUBLIC	?CampBugFixes@@3HA				; CampBugFixes
PUBLIC	?HitChanceAir@@3MA				; HitChanceAir
PUBLIC	?HitChanceGround@@3MA				; HitChanceGround
PUBLIC	?MIN_DEAD_PCT@@3MA				; MIN_DEAD_PCT
PUBLIC	?FLOTDrawDistance@@3MA				; FLOTDrawDistance
PUBLIC	?FLOTSortDirection@@3HA				; FLOTSortDirection
PUBLIC	?TheaterXPosition@@3HA				; TheaterXPosition
PUBLIC	?TheaterYPosition@@3HA				; TheaterYPosition
PUBLIC	?has_denorm@_Num_base@std@@2W4float_denorm_style@2@B ; std::_Num_base::has_denorm
PUBLIC	?has_denorm_loss@_Num_base@std@@2_NB		; std::_Num_base::has_denorm_loss
PUBLIC	?has_infinity@_Num_base@std@@2_NB		; std::_Num_base::has_infinity
PUBLIC	?has_quiet_NaN@_Num_base@std@@2_NB		; std::_Num_base::has_quiet_NaN
PUBLIC	?has_signaling_NaN@_Num_base@std@@2_NB		; std::_Num_base::has_signaling_NaN
PUBLIC	?is_bounded@_Num_base@std@@2_NB			; std::_Num_base::is_bounded
PUBLIC	?is_exact@_Num_base@std@@2_NB			; std::_Num_base::is_exact
PUBLIC	?is_iec559@_Num_base@std@@2_NB			; std::_Num_base::is_iec559
PUBLIC	?is_integer@_Num_base@std@@2_NB			; std::_Num_base::is_integer
PUBLIC	?is_modulo@_Num_base@std@@2_NB			; std::_Num_base::is_modulo
PUBLIC	?is_signed@_Num_base@std@@2_NB			; std::_Num_base::is_signed
PUBLIC	?is_specialized@_Num_base@std@@2_NB		; std::_Num_base::is_specialized
PUBLIC	?tinyness_before@_Num_base@std@@2_NB		; std::_Num_base::tinyness_before
_BSS	SEGMENT
?IMMEDIATE_MIN_TIME@@3FA DW 01H DUP (?)			; IMMEDIATE_MIN_TIME
	ALIGN	4

?IMMEDIATE_MAX_TIME@@3FA DW 01H DUP (?)			; IMMEDIATE_MAX_TIME
	ALIGN	4

?LONGRANGE_MIN_TIME@@3FA DW 01H DUP (?)			; LONGRANGE_MIN_TIME
	ALIGN	4

?LONGRANGE_MAX_TIME@@3FA DW 01H DUP (?)			; LONGRANGE_MAX_TIME
	ALIGN	4

?ATM_ASSIGN_RATIO@@3FA DW 01H DUP (?)			; ATM_ASSIGN_RATIO
	ALIGN	4

?MAX_FLYMISSION_THREAT@@3FA DW 01H DUP (?)		; MAX_FLYMISSION_THREAT
	ALIGN	4

?MAX_FLYMISSION_HIGHTHREAT@@3FA DW 01H DUP (?)		; MAX_FLYMISSION_HIGHTHREAT
	ALIGN	4

?MAX_FLYMISSION_NOTHREAT@@3FA DW 01H DUP (?)		; MAX_FLYMISSION_NOTHREAT
	ALIGN	4

?MIN_SEADESCORT_THREAT@@3FA DW 01H DUP (?)		; MIN_SEADESCORT_THREAT
	ALIGN	4

?MIN_AVOID_THREAT@@3FA DW 01H DUP (?)			; MIN_AVOID_THREAT
	ALIGN	4

?MIN_AP_DISTANCE@@3FA DW 01H DUP (?)			; MIN_AP_DISTANCE
	ALIGN	4

?BREAKPOINT_DISTANCE@@3FA DW 01H DUP (?)		; BREAKPOINT_DISTANCE
	ALIGN	4

?ATM_TARGET_CLEAR_RADIUS@@3FA DW 01H DUP (?)		; ATM_TARGET_CLEAR_RADIUS
	ALIGN	4

?LOITER_DIST@@3FA DW 01H DUP (?)			; LOITER_DIST
	ALIGN	4

?SWEEP_DISTANCE@@3FA DW 01H DUP (?)			; SWEEP_DISTANCE
	ALIGN	4

?MINIMUM_BDA_PRIORITY@@3FA DW 01H DUP (?)		; MINIMUM_BDA_PRIORITY
	ALIGN	4

?MINIMUM_AWACS_DISTANCE@@3FA DW 01H DUP (?)		; MINIMUM_AWACS_DISTANCE
	ALIGN	4

?MAXIMUM_AWACS_DISTANCE@@3FA DW 01H DUP (?)		; MAXIMUM_AWACS_DISTANCE
	ALIGN	4

?MINIMUM_JSTAR_DISTANCE@@3FA DW 01H DUP (?)		; MINIMUM_JSTAR_DISTANCE
	ALIGN	4

?MAXIMUM_JSTAR_DISTANCE@@3FA DW 01H DUP (?)		; MAXIMUM_JSTAR_DISTANCE
	ALIGN	4

?MINIMUM_TANKER_DISTANCE@@3FA DW 01H DUP (?)		; MINIMUM_TANKER_DISTANCE
	ALIGN	4

?MAXIMUM_TANKER_DISTANCE@@3FA DW 01H DUP (?)		; MAXIMUM_TANKER_DISTANCE
	ALIGN	4

?MINIMUM_ECM_DISTANCE@@3FA DW 01H DUP (?)		; MINIMUM_ECM_DISTANCE
	ALIGN	4

?MAXIMUM_ECM_DISTANCE@@3FA DW 01H DUP (?)		; MAXIMUM_ECM_DISTANCE
	ALIGN	4

?FIRST_COLONEL@@3FA DW 01H DUP (?)			; FIRST_COLONEL
	ALIGN	4

?FIRST_COMMANDER@@3FA DW 01H DUP (?)			; FIRST_COMMANDER
	ALIGN	4

?FIRST_WINGMAN@@3FA DW 01H DUP (?)			; FIRST_WINGMAN
	ALIGN	4

?LAST_WINGMAN@@3FA DW 01H DUP (?)			; LAST_WINGMAN
	ALIGN	4

?MAX_AA_STR_FOR_ESCORT@@3FA DW 01H DUP (?)		; MAX_AA_STR_FOR_ESCORT
	ALIGN	4

?BARCAP_REQUEST_INTERVAL@@3FA DW 01H DUP (?)		; BARCAP_REQUEST_INTERVAL
	ALIGN	4

?ONCALL_CAS_FLIGHTS_PER_REQUEST@@3FA DW 01H DUP (?)	; ONCALL_CAS_FLIGHTS_PER_REQUEST
	ALIGN	4

?MIN_TASK_AIR@@3FA DW 01H DUP (?)			; MIN_TASK_AIR
	ALIGN	4

?MIN_PLAN_AIR@@3FA DW 01H DUP (?)			; MIN_PLAN_AIR
	ALIGN	4

?VICTORY_CHECK_TIME@@3FA DW 01H DUP (?)			; VICTORY_CHECK_TIME
	ALIGN	4

?FLIGHT_MOVE_CHECK_INTERVAL@@3FA DW 01H DUP (?)		; FLIGHT_MOVE_CHECK_INTERVAL
	ALIGN	4

?FLIGHT_COMBAT_CHECK_INTERVAL@@3FA DW 01H DUP (?)	; FLIGHT_COMBAT_CHECK_INTERVAL
	ALIGN	4

?AIR_UPDATE_CHECK_INTERVAL@@3FA DW 01H DUP (?)		; AIR_UPDATE_CHECK_INTERVAL
	ALIGN	4

?FLIGHT_COMBAT_RATE@@3FA DW 01H DUP (?)			; FLIGHT_COMBAT_RATE
	ALIGN	4

?PACKAGE_CYCLES_TO_WAIT@@3FA DW 01H DUP (?)		; PACKAGE_CYCLES_TO_WAIT
	ALIGN	4

?AIR_PATH_MAX@@3FA DW 01H DUP (?)			; AIR_PATH_MAX
	ALIGN	4

?MIN_IGNORE_RANGE@@3MA DD 01H DUP (?)			; MIN_IGNORE_RANGE
?MAX_SAR_DIST@@3FA DW 01H DUP (?)			; MAX_SAR_DIST
	ALIGN	4

?MAX_BAI_DIST@@3FA DW 01H DUP (?)			; MAX_BAI_DIST
	ALIGN	4

?PILOT_ASSIGN_TIME@@3JA DD 01H DUP (?)			; PILOT_ASSIGN_TIME
?AIRCRAFT_TURNAROUND_TIME_MINUTES@@3FA DW 01H DUP (?)	; AIRCRAFT_TURNAROUND_TIME_MINUTES
	ALIGN	4

?PRIMARY_OBJ_PRIORITY@@3FA DW 01H DUP (?)		; PRIMARY_OBJ_PRIORITY
	ALIGN	4

?SECONDARY_OBJ_PRIORITY@@3FA DW 01H DUP (?)		; SECONDARY_OBJ_PRIORITY
	ALIGN	4

?MAX_OFFENSES@@3FA DW 01H DUP (?)			; MAX_OFFENSES
	ALIGN	4

?MIN_OFFENSIVE_UNITS@@3FA DW 01H DUP (?)		; MIN_OFFENSIVE_UNITS
	ALIGN	4

?MINIMUM_ADJUSTED_LEVEL@@3FA DW 01H DUP (?)		; MINIMUM_ADJUSTED_LEVEL
	ALIGN	4

?MINIMUM_VIABLE_LEVEL@@3FA DW 01H DUP (?)		; MINIMUM_VIABLE_LEVEL
	ALIGN	4

?MAX_ASSIGNMENT_DIST@@3FA DW 01H DUP (?)		; MAX_ASSIGNMENT_DIST
	ALIGN	4

?MAXLINKS_FROM_SO_OFFENSIVE@@3FA DW 01H DUP (?)		; MAXLINKS_FROM_SO_OFFENSIVE
	ALIGN	4

?MAXLINKS_FROM_SO_DEFENSIVE@@3FA DW 01H DUP (?)		; MAXLINKS_FROM_SO_DEFENSIVE
	ALIGN	4

?BRIGADE_BREAK_BASE@@3FA DW 01H DUP (?)			; BRIGADE_BREAK_BASE
	ALIGN	4

?ROLE_SCORE_MODIFIER@@3FA DW 01H DUP (?)		; ROLE_SCORE_MODIFIER
	ALIGN	4

?MIN_TASK_GROUND@@3FA DW 01H DUP (?)			; MIN_TASK_GROUND
	ALIGN	4

?MIN_PLAN_GROUND@@3FA DW 01H DUP (?)			; MIN_PLAN_GROUND
	ALIGN	4

?MIN_REPAIR_OBJECTIVES@@3FA DW 01H DUP (?)		; MIN_REPAIR_OBJECTIVES
	ALIGN	4

?MIN_RESUPPLY@@3FA DW 01H DUP (?)			; MIN_RESUPPLY
	ALIGN	4

?MORALE_REGAIN_RATE@@3FA DW 01H DUP (?)			; MORALE_REGAIN_RATE
	ALIGN	4

?REGAIN_RATE_MULTIPLIER_FOR_TE@@3FA DW 01H DUP (?)	; REGAIN_RATE_MULTIPLIER_FOR_TE
	ALIGN	4

?FOOT_MOVE_CHECK_INTERVAL@@3FA DW 01H DUP (?)		; FOOT_MOVE_CHECK_INTERVAL
	ALIGN	4

?TRACKED_MOVE_CHECK_INTERVAL@@3FA DW 01H DUP (?)	; TRACKED_MOVE_CHECK_INTERVAL
	ALIGN	4

?GROUND_COMBAT_CHECK_INTERVAL@@3FA DW 01H DUP (?)	; GROUND_COMBAT_CHECK_INTERVAL
	ALIGN	4

?GROUND_UPDATE_CHECK_INTERVAL@@3FA DW 01H DUP (?)	; GROUND_UPDATE_CHECK_INTERVAL
	ALIGN	4

?GROUND_COMBAT_RATE@@3FA DW 01H DUP (?)			; GROUND_COMBAT_RATE
	ALIGN	4

?GROUND_PATH_MAX@@3FA DW 01H DUP (?)			; GROUND_PATH_MAX
	ALIGN	4

?OBJ_GROUND_PATH_MAX_SEARCH@@3FA DW 01H DUP (?)		; OBJ_GROUND_PATH_MAX_SEARCH
	ALIGN	4

?OBJ_GROUND_PATH_MAX_COST@@3FA DW 01H DUP (?)		; OBJ_GROUND_PATH_MAX_COST
	ALIGN	4

?MIN_FULL_OFFENSIVE_INITIATIVE@@3FA DW 01H DUP (?)	; MIN_FULL_OFFENSIVE_INITIATIVE
	ALIGN	4

?MIN_COUNTER_ATTACK_INITIATIVE@@3FA DW 01H DUP (?)	; MIN_COUNTER_ATTACK_INITIATIVE
	ALIGN	4

?MIN_SECURE_INITIATIVE@@3FA DW 01H DUP (?)		; MIN_SECURE_INITIATIVE
	ALIGN	4

?MINIMUM_EXP_TO_FIRE_PREGUIDE@@3FA DW 01H DUP (?)	; MINIMUM_EXP_TO_FIRE_PREGUIDE
	ALIGN	4

?OFFENSIVE_REINFORCEMENT_TIME@@3JA DD 01H DUP (?)	; OFFENSIVE_REINFORCEMENT_TIME
?DEFENSIVE_REINFORCEMENT_TIME@@3JA DD 01H DUP (?)	; DEFENSIVE_REINFORCEMENT_TIME
?CONSOLIDATE_REINFORCEMENT_TIME@@3JA DD 01H DUP (?)	; CONSOLIDATE_REINFORCEMENT_TIME
?ACTION_PREP_TIME@@3JA DD 01H DUP (?)			; ACTION_PREP_TIME
?MIN_TASK_NAVAL@@3FA DW 01H DUP (?)			; MIN_TASK_NAVAL
	ALIGN	4

?MIN_PLAN_NAVAL@@3FA DW 01H DUP (?)			; MIN_PLAN_NAVAL
	ALIGN	4

?NAVAL_MOVE_CHECK_INTERVAL@@3FA DW 01H DUP (?)		; NAVAL_MOVE_CHECK_INTERVAL
	ALIGN	4

?NAVAL_COMBAT_CHECK_INTERVAL@@3FA DW 01H DUP (?)	; NAVAL_COMBAT_CHECK_INTERVAL
	ALIGN	4

?NAVAL_COMBAT_RATE@@3FA DW 01H DUP (?)			; NAVAL_COMBAT_RATE
	ALIGN	4

?LOW_ALTITUDE_CUTOFF@@3FA DW 01H DUP (?)		; LOW_ALTITUDE_CUTOFF
	ALIGN	4

?MAX_GROUND_SEARCH@@3FA DW 01H DUP (?)			; MAX_GROUND_SEARCH
	ALIGN	4

?MAX_AIR_SEARCH@@3FA DW 01H DUP (?)			; MAX_AIR_SEARCH
	ALIGN	4

?NEW_CLOUD_CHANCE@@3FA DW 01H DUP (?)			; NEW_CLOUD_CHANCE
	ALIGN	4

?DEL_CLOUD_CHANCE@@3FA DW 01H DUP (?)			; DEL_CLOUD_CHANCE
	ALIGN	4

?PLAYER_BUBBLE_MOVERS@@3FA DW 01H DUP (?)		; PLAYER_BUBBLE_MOVERS
	ALIGN	4

?FALCON_PLAYER_TEAM@@3FA DW 01H DUP (?)			; FALCON_PLAYER_TEAM
	ALIGN	4

?CAMP_RESYNC_TIME@@3FA DW 01H DUP (?)			; CAMP_RESYNC_TIME
	ALIGN	4

?BUBBLE_REBUILD_TIME@@3GA DW 01H DUP (?)		; BUBBLE_REBUILD_TIME
	ALIGN	4

?STANDARD_EVENT_LENGTH@@3FA DW 01H DUP (?)		; STANDARD_EVENT_LENGTH
	ALIGN	4

?PRIORITY_EVENT_LENGTH@@3FA DW 01H DUP (?)		; PRIORITY_EVENT_LENGTH
	ALIGN	4

?MIN_RECALCULATE_STATISTICS@@3FA DW 01H DUP (?)		; MIN_RECALCULATE_STATISTICS
	ALIGN	4

?LOWAIR_RANGE_MODIFIER@@3MA DD 01H DUP (?)		; LOWAIR_RANGE_MODIFIER
?MINIMUM_STRENGTH@@3FA DW 01H DUP (?)			; MINIMUM_STRENGTH
	ALIGN	4

?MAX_DAMAGE_TRIES@@3FA DW 01H DUP (?)			; MAX_DAMAGE_TRIES
	ALIGN	4

?REAGREGATION_RATIO@@3MA DD 01H DUP (?)			; REAGREGATION_RATIO
?MIN_REINFORCE_TIME@@3FA DW 01H DUP (?)			; MIN_REINFORCE_TIME
	ALIGN	4

?SIM_BUBBLE_SIZE@@3MA DD 01H DUP (?)			; SIM_BUBBLE_SIZE
?INITIATIVE_LEAK_PER_HOUR@@3FA DW 01H DUP (?)		; INITIATIVE_LEAK_PER_HOUR
	ALIGN	4

?F4_GENERIC_US_TRUCK_TYPE_SMALL@@3HA DD 01H DUP (?)	; F4_GENERIC_US_TRUCK_TYPE_SMALL
?F4_GENERIC_US_TRUCK_TYPE_LARGE@@3HA DD 01H DUP (?)	; F4_GENERIC_US_TRUCK_TYPE_LARGE
?F4_GENERIC_US_TRUCK_TYPE_TRAILER@@3HA DD 01H DUP (?)	; F4_GENERIC_US_TRUCK_TYPE_TRAILER
?F4_GENERIC_OPFOR_TRUCK_TYPE_SMALL@@3HA DD 01H DUP (?)	; F4_GENERIC_OPFOR_TRUCK_TYPE_SMALL
?F4_GENERIC_OPFOR_TRUCK_TYPE_LARGE@@3HA DD 01H DUP (?)	; F4_GENERIC_OPFOR_TRUCK_TYPE_LARGE
?F4_GENERIC_OPFOR_TRUCK_TYPE_TRAILER@@3HA DD 01H DUP (?) ; F4_GENERIC_OPFOR_TRUCK_TYPE_TRAILER
?SWITCH_TRACTORS_IN_TE@@3HA DD 01H DUP (?)		; SWITCH_TRACTORS_IN_TE
?StartOffBonusRepl@@3HA DD 01H DUP (?)			; StartOffBonusRepl
?StartOffBonusSup@@3HA DD 01H DUP (?)			; StartOffBonusSup
?StartOffBonusFuel@@3HA DD 01H DUP (?)			; StartOffBonusFuel
?ActionRate@@3HA DD 01H DUP (?)				; ActionRate
?ActionTimeOut@@3HA DD 01H DUP (?)			; ActionTimeOut
?DataRateModRepl@@3MA DD 01H DUP (?)			; DataRateModRepl
?DataRateModSup@@3MA DD 01H DUP (?)			; DataRateModSup
?RelSquadBonus@@3MA DD 01H DUP (?)			; RelSquadBonus
?NoActionBonusProd@@3HA DD 01H DUP (?)			; NoActionBonusProd
?NoTypeBonusRepl@@3HA DD 01H DUP (?)			; NoTypeBonusRepl
?NewInitiativePoints@@3HA DD 01H DUP (?)		; NewInitiativePoints
?CampBugFixes@@3HA DD 01H DUP (?)			; CampBugFixes
?HitChanceAir@@3MA DD 01H DUP (?)			; HitChanceAir
?HitChanceGround@@3MA DD 01H DUP (?)			; HitChanceGround
?MIN_DEAD_PCT@@3MA DD 01H DUP (?)			; MIN_DEAD_PCT
?FLOTDrawDistance@@3MA DD 01H DUP (?)			; FLOTDrawDistance
?FLOTSortDirection@@3HA DD 01H DUP (?)			; FLOTSortDirection
?TheaterXPosition@@3HA DD 01H DUP (?)			; TheaterXPosition
?TheaterYPosition@@3HA DD 01H DUP (?)			; TheaterYPosition
_BSS	ENDS
;	COMDAT ?tinyness_before@_Num_base@std@@2_NB
CONST	SEGMENT
?tinyness_before@_Num_base@std@@2_NB DB 00H		; std::_Num_base::tinyness_before
CONST	ENDS
;	COMDAT ?is_specialized@_Num_base@std@@2_NB
CONST	SEGMENT
?is_specialized@_Num_base@std@@2_NB DB 00H		; std::_Num_base::is_specialized
CONST	ENDS
;	COMDAT ?is_signed@_Num_base@std@@2_NB
CONST	SEGMENT
?is_signed@_Num_base@std@@2_NB DB 00H			; std::_Num_base::is_signed
CONST	ENDS
;	COMDAT ?is_modulo@_Num_base@std@@2_NB
CONST	SEGMENT
?is_modulo@_Num_base@std@@2_NB DB 00H			; std::_Num_base::is_modulo
CONST	ENDS
;	COMDAT ?is_integer@_Num_base@std@@2_NB
CONST	SEGMENT
?is_integer@_Num_base@std@@2_NB DB 00H			; std::_Num_base::is_integer
CONST	ENDS
;	COMDAT ?is_iec559@_Num_base@std@@2_NB
CONST	SEGMENT
?is_iec559@_Num_base@std@@2_NB DB 00H			; std::_Num_base::is_iec559
CONST	ENDS
;	COMDAT ?is_exact@_Num_base@std@@2_NB
CONST	SEGMENT
?is_exact@_Num_base@std@@2_NB DB 00H			; std::_Num_base::is_exact
CONST	ENDS
;	COMDAT ?is_bounded@_Num_base@std@@2_NB
CONST	SEGMENT
?is_bounded@_Num_base@std@@2_NB DB 00H			; std::_Num_base::is_bounded
CONST	ENDS
;	COMDAT ?has_signaling_NaN@_Num_base@std@@2_NB
CONST	SEGMENT
?has_signaling_NaN@_Num_base@std@@2_NB DB 00H		; std::_Num_base::has_signaling_NaN
CONST	ENDS
;	COMDAT ?has_quiet_NaN@_Num_base@std@@2_NB
CONST	SEGMENT
?has_quiet_NaN@_Num_base@std@@2_NB DB 00H		; std::_Num_base::has_quiet_NaN
CONST	ENDS
;	COMDAT ?has_infinity@_Num_base@std@@2_NB
CONST	SEGMENT
?has_infinity@_Num_base@std@@2_NB DB 00H		; std::_Num_base::has_infinity
CONST	ENDS
;	COMDAT ?has_denorm_loss@_Num_base@std@@2_NB
CONST	SEGMENT
?has_denorm_loss@_Num_base@std@@2_NB DB 00H		; std::_Num_base::has_denorm_loss
CONST	ENDS
;	COMDAT ?has_denorm@_Num_base@std@@2W4float_denorm_style@2@B
CONST	SEGMENT
?has_denorm@_Num_base@std@@2W4float_denorm_style@2@B DD 00H ; std::_Num_base::has_denorm
CONST	ENDS
;	COMDAT ?value@?$_Sizeof@U_Nil@std@@U12@U12@U12@U12@U12@U12@U12@@std@@2IB
CONST	SEGMENT
?value@?$_Sizeof@U_Nil@std@@U12@U12@U12@U12@U12@U12@U12@@std@@2IB DD 00H ; std::_Sizeof<std::_Nil,std::_Nil,std::_Nil,std::_Nil,std::_Nil,std::_Nil,std::_Nil,std::_Nil>::value
CONST	ENDS
;	COMDAT ?min_exponent10@?$numeric_limits@O@std@@2HB
CONST	SEGMENT
?min_exponent10@?$numeric_limits@O@std@@2HB DD 0fffffecdH ; std::numeric_limits<long double>::min_exponent10
CONST	ENDS
;	COMDAT ?min_exponent@?$numeric_limits@O@std@@2HB
CONST	SEGMENT
?min_exponent@?$numeric_limits@O@std@@2HB DD 0fffffc03H	; std::numeric_limits<long double>::min_exponent
CONST	ENDS
;	COMDAT ?max_exponent10@?$numeric_limits@O@std@@2HB
CONST	SEGMENT
?max_exponent10@?$numeric_limits@O@std@@2HB DD 0134H	; std::numeric_limits<long double>::max_exponent10
CONST	ENDS
;	COMDAT ?max_exponent@?$numeric_limits@O@std@@2HB
CONST	SEGMENT
?max_exponent@?$numeric_limits@O@std@@2HB DD 0400H	; std::numeric_limits<long double>::max_exponent
CONST	ENDS
;	COMDAT ?max_digits10@?$numeric_limits@O@std@@2HB
CONST	SEGMENT
?max_digits10@?$numeric_limits@O@std@@2HB DD 011H	; std::numeric_limits<long double>::max_digits10
CONST	ENDS
;	COMDAT ?digits10@?$numeric_limits@O@std@@2HB
CONST	SEGMENT
?digits10@?$numeric_limits@O@std@@2HB DD 0fH		; std::numeric_limits<long double>::digits10
CONST	ENDS
;	COMDAT ?digits@?$numeric_limits@O@std@@2HB
CONST	SEGMENT
?digits@?$numeric_limits@O@std@@2HB DD 035H		; std::numeric_limits<long double>::digits
CONST	ENDS
;	COMDAT ?min_exponent10@?$numeric_limits@N@std@@2HB
CONST	SEGMENT
?min_exponent10@?$numeric_limits@N@std@@2HB DD 0fffffecdH ; std::numeric_limits<double>::min_exponent10
CONST	ENDS
;	COMDAT ?min_exponent@?$numeric_limits@N@std@@2HB
CONST	SEGMENT
?min_exponent@?$numeric_limits@N@std@@2HB DD 0fffffc03H	; std::numeric_limits<double>::min_exponent
CONST	ENDS
;	COMDAT ?max_exponent10@?$numeric_limits@N@std@@2HB
CONST	SEGMENT
?max_exponent10@?$numeric_limits@N@std@@2HB DD 0134H	; std::numeric_limits<double>::max_exponent10
CONST	ENDS
;	COMDAT ?max_exponent@?$numeric_limits@N@std@@2HB
CONST	SEGMENT
?max_exponent@?$numeric_limits@N@std@@2HB DD 0400H	; std::numeric_limits<double>::max_exponent
CONST	ENDS
;	COMDAT ?max_digits10@?$numeric_limits@N@std@@2HB
CONST	SEGMENT
?max_digits10@?$numeric_limits@N@std@@2HB DD 011H	; std::numeric_limits<double>::max_digits10
CONST	ENDS
;	COMDAT ?digits10@?$numeric_limits@N@std@@2HB
CONST	SEGMENT
?digits10@?$numeric_limits@N@std@@2HB DD 0fH		; std::numeric_limits<double>::digits10
CONST	ENDS
;	COMDAT ?digits@?$numeric_limits@N@std@@2HB
CONST	SEGMENT
?digits@?$numeric_limits@N@std@@2HB DD 035H		; std::numeric_limits<double>::digits
CONST	ENDS
;	COMDAT ?value@?$integral_constant@I$0A@@std@@2IB
CONST	SEGMENT
?value@?$integral_constant@I$0A@@std@@2IB DD 00H	; std::integral_constant<unsigned int,0>::value
CONST	ENDS
;	COMDAT ?min_exponent10@?$numeric_limits@M@std@@2HB
CONST	SEGMENT
?min_exponent10@?$numeric_limits@M@std@@2HB DD 0ffffffdbH ; std::numeric_limits<float>::min_exponent10
CONST	ENDS
;	COMDAT ?min_exponent@?$numeric_limits@M@std@@2HB
CONST	SEGMENT
?min_exponent@?$numeric_limits@M@std@@2HB DD 0ffffff83H	; std::numeric_limits<float>::min_exponent
CONST	ENDS
;	COMDAT ?max_exponent10@?$numeric_limits@M@std@@2HB
CONST	SEGMENT
?max_exponent10@?$numeric_limits@M@std@@2HB DD 026H	; std::numeric_limits<float>::max_exponent10
CONST	ENDS
;	COMDAT ?max_exponent@?$numeric_limits@M@std@@2HB
CONST	SEGMENT
?max_exponent@?$numeric_limits@M@std@@2HB DD 080H	; std::numeric_limits<float>::max_exponent
CONST	ENDS
;	COMDAT ?max_digits10@?$numeric_limits@M@std@@2HB
CONST	SEGMENT
?max_digits10@?$numeric_limits@M@std@@2HB DD 09H	; std::numeric_limits<float>::max_digits10
CONST	ENDS
;	COMDAT ?digits10@?$numeric_limits@M@std@@2HB
CONST	SEGMENT
?digits10@?$numeric_limits@M@std@@2HB DD 06H		; std::numeric_limits<float>::digits10
CONST	ENDS
;	COMDAT ?digits@?$numeric_limits@M@std@@2HB
CONST	SEGMENT
?digits@?$numeric_limits@M@std@@2HB DD 018H		; std::numeric_limits<float>::digits
CONST	ENDS
;	COMDAT ?digits10@?$numeric_limits@_K@std@@2HB
CONST	SEGMENT
?digits10@?$numeric_limits@_K@std@@2HB DD 013H		; std::numeric_limits<unsigned __int64>::digits10
CONST	ENDS
;	COMDAT ?digits@?$numeric_limits@_K@std@@2HB
CONST	SEGMENT
?digits@?$numeric_limits@_K@std@@2HB DD 040H		; std::numeric_limits<unsigned __int64>::digits
CONST	ENDS
;	COMDAT ?is_signed@?$numeric_limits@_K@std@@2_NB
CONST	SEGMENT
?is_signed@?$numeric_limits@_K@std@@2_NB DB 00H		; std::numeric_limits<unsigned __int64>::is_signed
CONST	ENDS
;	COMDAT ?digits10@?$numeric_limits@_J@std@@2HB
CONST	SEGMENT
?digits10@?$numeric_limits@_J@std@@2HB DD 012H		; std::numeric_limits<__int64>::digits10
CONST	ENDS
;	COMDAT ?digits@?$numeric_limits@_J@std@@2HB
CONST	SEGMENT
?digits@?$numeric_limits@_J@std@@2HB DD 03fH		; std::numeric_limits<__int64>::digits
CONST	ENDS
;	COMDAT ?is_signed@?$numeric_limits@_J@std@@2_NB
CONST	SEGMENT
?is_signed@?$numeric_limits@_J@std@@2_NB DB 01H		; std::numeric_limits<__int64>::is_signed
CONST	ENDS
;	COMDAT ?digits10@?$numeric_limits@K@std@@2HB
CONST	SEGMENT
?digits10@?$numeric_limits@K@std@@2HB DD 09H		; std::numeric_limits<unsigned long>::digits10
CONST	ENDS
;	COMDAT ?digits@?$numeric_limits@K@std@@2HB
CONST	SEGMENT
?digits@?$numeric_limits@K@std@@2HB DD 020H		; std::numeric_limits<unsigned long>::digits
CONST	ENDS
;	COMDAT ?is_signed@?$numeric_limits@K@std@@2_NB
CONST	SEGMENT
?is_signed@?$numeric_limits@K@std@@2_NB DB 00H		; std::numeric_limits<unsigned long>::is_signed
CONST	ENDS
;	COMDAT ?digits10@?$numeric_limits@J@std@@2HB
CONST	SEGMENT
?digits10@?$numeric_limits@J@std@@2HB DD 09H		; std::numeric_limits<long>::digits10
CONST	ENDS
;	COMDAT ?digits@?$numeric_limits@J@std@@2HB
CONST	SEGMENT
?digits@?$numeric_limits@J@std@@2HB DD 01fH		; std::numeric_limits<long>::digits
CONST	ENDS
;	COMDAT ?is_signed@?$numeric_limits@J@std@@2_NB
CONST	SEGMENT
?is_signed@?$numeric_limits@J@std@@2_NB DB 01H		; std::numeric_limits<long>::is_signed
CONST	ENDS
;	COMDAT ?digits10@?$numeric_limits@I@std@@2HB
CONST	SEGMENT
?digits10@?$numeric_limits@I@std@@2HB DD 09H		; std::numeric_limits<unsigned int>::digits10
CONST	ENDS
;	COMDAT ?digits@?$numeric_limits@I@std@@2HB
CONST	SEGMENT
?digits@?$numeric_limits@I@std@@2HB DD 020H		; std::numeric_limits<unsigned int>::digits
CONST	ENDS
;	COMDAT ?is_signed@?$numeric_limits@I@std@@2_NB
CONST	SEGMENT
?is_signed@?$numeric_limits@I@std@@2_NB DB 00H		; std::numeric_limits<unsigned int>::is_signed
CONST	ENDS
;	COMDAT ?digits10@?$numeric_limits@H@std@@2HB
CONST	SEGMENT
?digits10@?$numeric_limits@H@std@@2HB DD 09H		; std::numeric_limits<int>::digits10
CONST	ENDS
;	COMDAT ?digits@?$numeric_limits@H@std@@2HB
CONST	SEGMENT
?digits@?$numeric_limits@H@std@@2HB DD 01fH		; std::numeric_limits<int>::digits
CONST	ENDS
;	COMDAT ?value@?$_Sizeof@HU_Nil@std@@U12@U12@U12@U12@U12@U12@@std@@2IB
CONST	SEGMENT
?value@?$_Sizeof@HU_Nil@std@@U12@U12@U12@U12@U12@U12@@std@@2IB DD 01H ; std::_Sizeof<int,std::_Nil,std::_Nil,std::_Nil,std::_Nil,std::_Nil,std::_Nil,std::_Nil>::value
CONST	ENDS
;	COMDAT ?is_signed@?$numeric_limits@H@std@@2_NB
CONST	SEGMENT
?is_signed@?$numeric_limits@H@std@@2_NB DB 01H		; std::numeric_limits<int>::is_signed
CONST	ENDS
;	COMDAT ?digits10@?$numeric_limits@G@std@@2HB
CONST	SEGMENT
?digits10@?$numeric_limits@G@std@@2HB DD 04H		; std::numeric_limits<unsigned short>::digits10
CONST	ENDS
;	COMDAT ?digits@?$numeric_limits@G@std@@2HB
CONST	SEGMENT
?digits@?$numeric_limits@G@std@@2HB DD 010H		; std::numeric_limits<unsigned short>::digits
CONST	ENDS
;	COMDAT ?is_signed@?$numeric_limits@G@std@@2_NB
CONST	SEGMENT
?is_signed@?$numeric_limits@G@std@@2_NB DB 00H		; std::numeric_limits<unsigned short>::is_signed
CONST	ENDS
;	COMDAT ?digits10@?$numeric_limits@F@std@@2HB
CONST	SEGMENT
?digits10@?$numeric_limits@F@std@@2HB DD 04H		; std::numeric_limits<short>::digits10
CONST	ENDS
;	COMDAT ?digits@?$numeric_limits@F@std@@2HB
CONST	SEGMENT
?digits@?$numeric_limits@F@std@@2HB DD 0fH		; std::numeric_limits<short>::digits
CONST	ENDS
;	COMDAT ?is_signed@?$numeric_limits@F@std@@2_NB
CONST	SEGMENT
?is_signed@?$numeric_limits@F@std@@2_NB DB 01H		; std::numeric_limits<short>::is_signed
CONST	ENDS
;	COMDAT ?value@?$integral_constant@_N$00@std@@2_NB
CONST	SEGMENT
?value@?$integral_constant@_N$00@std@@2_NB DB 01H	; std::integral_constant<bool,1>::value
CONST	ENDS
;	COMDAT ?digits10@?$numeric_limits@E@std@@2HB
CONST	SEGMENT
?digits10@?$numeric_limits@E@std@@2HB DD 02H		; std::numeric_limits<unsigned char>::digits10
CONST	ENDS
;	COMDAT ?digits@?$numeric_limits@E@std@@2HB
CONST	SEGMENT
?digits@?$numeric_limits@E@std@@2HB DD 08H		; std::numeric_limits<unsigned char>::digits
CONST	ENDS
;	COMDAT ?value@?$integral_constant@_N$0A@@std@@2_NB
CONST	SEGMENT
?value@?$integral_constant@_N$0A@@std@@2_NB DB 00H	; std::integral_constant<bool,0>::value
CONST	ENDS
;	COMDAT ?is_signed@?$numeric_limits@E@std@@2_NB
CONST	SEGMENT
?is_signed@?$numeric_limits@E@std@@2_NB DB 00H		; std::numeric_limits<unsigned char>::is_signed
CONST	ENDS
;	COMDAT ?digits10@?$numeric_limits@C@std@@2HB
CONST	SEGMENT
?digits10@?$numeric_limits@C@std@@2HB DD 02H		; std::numeric_limits<signed char>::digits10
CONST	ENDS
;	COMDAT ?digits@?$numeric_limits@C@std@@2HB
CONST	SEGMENT
?digits@?$numeric_limits@C@std@@2HB DD 07H		; std::numeric_limits<signed char>::digits
CONST	ENDS
;	COMDAT ?is_signed@?$numeric_limits@C@std@@2_NB
CONST	SEGMENT
?is_signed@?$numeric_limits@C@std@@2_NB DB 01H		; std::numeric_limits<signed char>::is_signed
CONST	ENDS
CONST	SEGMENT
_L_2	DD	03f317218r			; 0.693147
CONST	ENDS
;	COMDAT ?digits10@?$numeric_limits@_N@std@@2HB
CONST	SEGMENT
?digits10@?$numeric_limits@_N@std@@2HB DD 00H		; std::numeric_limits<bool>::digits10
CONST	ENDS
;	COMDAT ?digits@?$numeric_limits@_N@std@@2HB
CONST	SEGMENT
?digits@?$numeric_limits@_N@std@@2HB DD 01H		; std::numeric_limits<bool>::digits
CONST	ENDS
;	COMDAT ?is_signed@?$numeric_limits@_N@std@@2_NB
CONST	SEGMENT
?is_signed@?$numeric_limits@_N@std@@2_NB DB 00H		; std::numeric_limits<bool>::is_signed
CONST	ENDS
;	COMDAT ?is_modulo@?$numeric_limits@_N@std@@2_NB
CONST	SEGMENT
?is_modulo@?$numeric_limits@_N@std@@2_NB DB 00H		; std::numeric_limits<bool>::is_modulo
CONST	ENDS
;	COMDAT ?digits10@?$numeric_limits@_W@std@@2HB
CONST	SEGMENT
?digits10@?$numeric_limits@_W@std@@2HB DD 04H		; std::numeric_limits<wchar_t>::digits10
CONST	ENDS
;	COMDAT ?digits@?$numeric_limits@_W@std@@2HB
CONST	SEGMENT
?digits@?$numeric_limits@_W@std@@2HB DD 010H		; std::numeric_limits<wchar_t>::digits
CONST	ENDS
;	COMDAT ?is_signed@?$numeric_limits@_W@std@@2_NB
CONST	SEGMENT
?is_signed@?$numeric_limits@_W@std@@2_NB DB 00H		; std::numeric_limits<wchar_t>::is_signed
CONST	ENDS
;	COMDAT ?digits10@?$numeric_limits@D@std@@2HB
CONST	SEGMENT
?digits10@?$numeric_limits@D@std@@2HB DD 02H		; std::numeric_limits<char>::digits10
CONST	ENDS
;	COMDAT ?digits@?$numeric_limits@D@std@@2HB
CONST	SEGMENT
?digits@?$numeric_limits@D@std@@2HB DD 07H		; std::numeric_limits<char>::digits
CONST	ENDS
;	COMDAT ?is_signed@?$numeric_limits@D@std@@2_NB
CONST	SEGMENT
?is_signed@?$numeric_limits@D@std@@2_NB DB 01H		; std::numeric_limits<char>::is_signed
CONST	ENDS
;	COMDAT ?radix@_Num_float_base@std@@2HB
CONST	SEGMENT
?radix@_Num_float_base@std@@2HB DD 02H			; std::_Num_float_base::radix
CONST	ENDS
;	COMDAT ?round_style@_Num_float_base@std@@2W4float_round_style@2@B
CONST	SEGMENT
?round_style@_Num_float_base@std@@2W4float_round_style@2@B DD 01H ; std::_Num_float_base::round_style
CONST	ENDS
;	COMDAT ?traps@_Num_float_base@std@@2_NB
CONST	SEGMENT
?traps@_Num_float_base@std@@2_NB DB 00H			; std::_Num_float_base::traps
CONST	ENDS
;	COMDAT ?tinyness_before@_Num_float_base@std@@2_NB
CONST	SEGMENT
?tinyness_before@_Num_float_base@std@@2_NB DB 01H	; std::_Num_float_base::tinyness_before
CONST	ENDS
;	COMDAT ?is_specialized@_Num_float_base@std@@2_NB
CONST	SEGMENT
?is_specialized@_Num_float_base@std@@2_NB DB 01H	; std::_Num_float_base::is_specialized
CONST	ENDS
;	COMDAT ?is_signed@_Num_float_base@std@@2_NB
CONST	SEGMENT
?is_signed@_Num_float_base@std@@2_NB DB 01H		; std::_Num_float_base::is_signed
CONST	ENDS
;	COMDAT ?is_modulo@_Num_float_base@std@@2_NB
CONST	SEGMENT
?is_modulo@_Num_float_base@std@@2_NB DB 00H		; std::_Num_float_base::is_modulo
CONST	ENDS
;	COMDAT ?is_integer@_Num_float_base@std@@2_NB
CONST	SEGMENT
?is_integer@_Num_float_base@std@@2_NB DB 00H		; std::_Num_float_base::is_integer
CONST	ENDS
;	COMDAT ?is_iec559@_Num_float_base@std@@2_NB
CONST	SEGMENT
?is_iec559@_Num_float_base@std@@2_NB DB 01H		; std::_Num_float_base::is_iec559
CONST	ENDS
;	COMDAT ?is_exact@_Num_float_base@std@@2_NB
CONST	SEGMENT
?is_exact@_Num_float_base@std@@2_NB DB 00H		; std::_Num_float_base::is_exact
CONST	ENDS
;	COMDAT ?is_bounded@_Num_float_base@std@@2_NB
CONST	SEGMENT
?is_bounded@_Num_float_base@std@@2_NB DB 01H		; std::_Num_float_base::is_bounded
CONST	ENDS
;	COMDAT ?has_signaling_NaN@_Num_float_base@std@@2_NB
CONST	SEGMENT
?has_signaling_NaN@_Num_float_base@std@@2_NB DB 01H	; std::_Num_float_base::has_signaling_NaN
CONST	ENDS
;	COMDAT ?has_quiet_NaN@_Num_float_base@std@@2_NB
CONST	SEGMENT
?has_quiet_NaN@_Num_float_base@std@@2_NB DB 01H		; std::_Num_float_base::has_quiet_NaN
CONST	ENDS
;	COMDAT ?has_infinity@_Num_float_base@std@@2_NB
CONST	SEGMENT
?has_infinity@_Num_float_base@std@@2_NB DB 01H		; std::_Num_float_base::has_infinity
CONST	ENDS
;	COMDAT ?CMPDIRTYDATA_INTERVAL@FalconEntity@@2KB
CONST	SEGMENT
?CMPDIRTYDATA_INTERVAL@FalconEntity@@2KB DD 0c8H	; FalconEntity::CMPDIRTYDATA_INTERVAL
CONST	ENDS
;	COMDAT ?SIMDIRTYDATA_INTERVAL@FalconEntity@@2KB
CONST	SEGMENT
?SIMDIRTYDATA_INTERVAL@FalconEntity@@2KB DD 0c8H	; FalconEntity::SIMDIRTYDATA_INTERVAL
CONST	ENDS
;	COMDAT ?has_denorm_loss@_Num_float_base@std@@2_NB
CONST	SEGMENT
?has_denorm_loss@_Num_float_base@std@@2_NB DB 01H	; std::_Num_float_base::has_denorm_loss
CONST	ENDS
;	COMDAT ?has_denorm@_Num_float_base@std@@2W4float_denorm_style@2@B
CONST	SEGMENT
?has_denorm@_Num_float_base@std@@2W4float_denorm_style@2@B DD 01H ; std::_Num_float_base::has_denorm
CONST	ENDS
;	COMDAT ?radix@_Num_int_base@std@@2HB
CONST	SEGMENT
?radix@_Num_int_base@std@@2HB DD 02H			; std::_Num_int_base::radix
CONST	ENDS
;	COMDAT ?is_specialized@_Num_int_base@std@@2_NB
CONST	SEGMENT
?is_specialized@_Num_int_base@std@@2_NB DB 01H		; std::_Num_int_base::is_specialized
CONST	ENDS
;	COMDAT ?is_modulo@_Num_int_base@std@@2_NB
CONST	SEGMENT
?is_modulo@_Num_int_base@std@@2_NB DB 01H		; std::_Num_int_base::is_modulo
CONST	ENDS
;	COMDAT ?is_integer@_Num_int_base@std@@2_NB
CONST	SEGMENT
?is_integer@_Num_int_base@std@@2_NB DB 01H		; std::_Num_int_base::is_integer
CONST	ENDS
;	COMDAT ?is_exact@_Num_int_base@std@@2_NB
CONST	SEGMENT
?is_exact@_Num_int_base@std@@2_NB DB 01H		; std::_Num_int_base::is_exact
CONST	ENDS
;	COMDAT ?is_bounded@_Num_int_base@std@@2_NB
CONST	SEGMENT
?is_bounded@_Num_int_base@std@@2_NB DB 01H		; std::_Num_int_base::is_bounded
CONST	ENDS
;	COMDAT ?radix@_Num_base@std@@2HB
CONST	SEGMENT
?radix@_Num_base@std@@2HB DD 00H			; std::_Num_base::radix
CONST	ENDS
;	COMDAT ?min_exponent10@_Num_base@std@@2HB
CONST	SEGMENT
?min_exponent10@_Num_base@std@@2HB DD 00H		; std::_Num_base::min_exponent10
CONST	ENDS
;	COMDAT ?min_exponent@_Num_base@std@@2HB
CONST	SEGMENT
?min_exponent@_Num_base@std@@2HB DD 00H			; std::_Num_base::min_exponent
CONST	ENDS
;	COMDAT ?max_exponent10@_Num_base@std@@2HB
CONST	SEGMENT
?max_exponent10@_Num_base@std@@2HB DD 00H		; std::_Num_base::max_exponent10
CONST	ENDS
;	COMDAT ?max_exponent@_Num_base@std@@2HB
CONST	SEGMENT
?max_exponent@_Num_base@std@@2HB DD 00H			; std::_Num_base::max_exponent
CONST	ENDS
;	COMDAT ?max_digits10@_Num_base@std@@2HB
CONST	SEGMENT
?max_digits10@_Num_base@std@@2HB DD 00H			; std::_Num_base::max_digits10
CONST	ENDS
;	COMDAT ?digits10@_Num_base@std@@2HB
CONST	SEGMENT
?digits10@_Num_base@std@@2HB DD 00H			; std::_Num_base::digits10
CONST	ENDS
;	COMDAT ?digits@_Num_base@std@@2HB
CONST	SEGMENT
?digits@_Num_base@std@@2HB DD 00H			; std::_Num_base::digits
CONST	ENDS
;	COMDAT ?round_style@_Num_base@std@@2W4float_round_style@2@B
CONST	SEGMENT
?round_style@_Num_base@std@@2W4float_round_style@2@B DD 00H ; std::_Num_base::round_style
CONST	ENDS
;	COMDAT ?traps@_Num_base@std@@2_NB
CONST	SEGMENT
?traps@_Num_base@std@@2_NB DB 00H			; std::_Num_base::traps
CONST	ENDS
PUBLIC	?ReadCampAIInputs@@YAXPAD@Z			; ReadCampAIInputs
PUBLIC	??_C@_06HBAJKFOL@?$CFs?4AII?$AA@		; `string'
PUBLIC	??_C@_0BF@EILNFNFB@ImmediatePlanMinTime?$AA@	; `string'
PUBLIC	??_C@_03NDHBKIJP@ATM?$AA@			; `string'
PUBLIC	??_C@_0BF@KONNPCLA@ImmediatePlanMaxTime?$AA@	; `string'
PUBLIC	??_C@_0BF@CEPPCKMC@LongrangePlanMinTime?$AA@	; `string'
PUBLIC	??_C@_0BF@MCJPIFCD@LongrangePlanMaxTime?$AA@	; `string'
PUBLIC	??_C@_0BI@GALMIHBJ@AircraftAssignmentRatio?$AA@	; `string'
PUBLIC	??_C@_0BE@FGGGNBAF@MaxFlymissionThreat?$AA@	; `string'
PUBLIC	??_C@_0BI@DPKFFJGG@MaxFlymissionHighThreat?$AA@	; `string'
PUBLIC	??_C@_0BG@GCNIFOKC@MaxFlymissionNoThreat?$AA@	; `string'
PUBLIC	??_C@_0BE@ONIHHOAI@MinSeadescortThreat?$AA@	; `string'
PUBLIC	??_C@_0P@EPAKBPGK@MinAvoidThreat?$AA@		; `string'
PUBLIC	??_C@_0BC@IKFGGHHN@MinAssemblyPtDist?$AA@	; `string'
PUBLIC	??_C@_0P@JFDKDNKD@BreakpointDist?$AA@		; `string'
PUBLIC	??_C@_0BC@IECNBMHO@TargetClearRadius?$AA@	; `string'
PUBLIC	??_C@_0BD@MKNNCKHE@LoiterTurnDistance?$AA@	; `string'
PUBLIC	??_C@_0M@JOOKKBLI@SweepRadius?$AA@		; `string'
PUBLIC	??_C@_0BD@NHOHKDLH@MinimumBDAPriority?$AA@	; `string'
PUBLIC	??_C@_0BF@JNEHNDOM@MinimumAWACSDistance?$AA@	; `string'
PUBLIC	??_C@_0BF@IOACDFEH@MaximumAWACSDistance?$AA@	; `string'
PUBLIC	??_C@_0BF@DBNDMKIE@MinimumJSTARDistance?$AA@	; `string'
PUBLIC	??_C@_0BF@CCJGCMCP@MaximumJSTARDistance?$AA@	; `string'
PUBLIC	??_C@_0BG@MGJFMOEN@MinimumTankerDistance?$AA@	; `string'
PUBLIC	??_C@_0BG@IHICPBML@MaximumTankerDistance?$AA@	; `string'
PUBLIC	??_C@_0BD@KPLDINKO@MinimumECMDistance?$AA@	; `string'
PUBLIC	??_C@_0BD@IIHANNH@MaximumECMDistance?$AA@	; `string'
PUBLIC	??_C@_0N@KMHCJNAN@FirstColonel?$AA@		; `string'
PUBLIC	??_C@_0P@HAACJFOF@FirstCommander?$AA@		; `string'
PUBLIC	??_C@_0N@GNGBBIJM@FirstWingman?$AA@		; `string'
PUBLIC	??_C@_0M@LDCONICF@LastWingman?$AA@		; `string'
PUBLIC	??_C@_0BE@GCOGDLEN@MaxEscortAAStrength?$AA@	; `string'
PUBLIC	??_C@_0BG@EKKIGCJF@BARCAPRequestInterval?$AA@	; `string'
PUBLIC	??_C@_0BI@ENPFJOHC@OnCallFlightsPerRequest?$AA@	; `string'
PUBLIC	??_C@_0M@KJLNKMHE@AirTaskTime?$AA@		; `string'
PUBLIC	??_C@_0M@MPNIPEPN@AirPlanTime?$AA@		; `string'
PUBLIC	??_C@_0BF@FBPKNINE@VictoryConditionTime?$AA@	; `string'
PUBLIC	??_C@_0BI@IKKKGMME@FlightMoveCheckInterval?$AA@	; `string'
PUBLIC	??_C@_0BK@NFPPCHHB@FlightCombatCheckInterval?$AA@ ; `string'
PUBLIC	??_C@_0BH@FEFMDGDM@AirUpdateCheckInterval?$AA@	; `string'
PUBLIC	??_C@_0BB@JLAMPMCP@FlightCombatRate?$AA@	; `string'
PUBLIC	??_C@_0BE@LAJGCLDM@PackageCyclesToWait?$AA@	; `string'
PUBLIC	??_C@_0L@PGICFJBA@AirPathMax?$AA@		; `string'
PUBLIC	??_C@_0BD@MLBBFCKJ@MinimumIgnoreRange?$AA@	; `string'
PUBLIC	??_C@_0P@CCGHHENF@MaxSARDistance?$AA@		; `string'
PUBLIC	??_C@_0P@GKJEKPFJ@MaxBAIDistance?$AA@		; `string'
PUBLIC	??_C@_0BA@OEFDDDMA@PilotAssignTime?$AA@		; `string'
PUBLIC	??_C@_0BK@NEJFECBH@AircraftTurnaroundMinutes?$AA@ ; `string'
PUBLIC	??_C@_0BD@MHOEGEAN@PrimaryObjPriority?$AA@	; `string'
PUBLIC	??_C@_03PGBKPHED@GTM?$AA@			; `string'
PUBLIC	??_C@_0BF@CKAMLPME@SecondaryObjPriority?$AA@	; `string'
PUBLIC	??_C@_0BA@DAACJICM@MaximumOffenses?$AA@		; `string'
PUBLIC	??_C@_0BG@ECLCCHGL@MinimumOffensiveUnits?$AA@	; `string'
PUBLIC	??_C@_0BF@EHHJEDCC@MinimumAdjustedLevel?$AA@	; `string'
PUBLIC	??_C@_0BD@FCJEBJN@MinimumViableLevel?$AA@	; `string'
PUBLIC	??_C@_0BG@KJKIGMEG@MaximumAssignmentDist?$AA@	; `string'
PUBLIC	??_C@_0BG@BPPBELFK@MaximumOffensiveLinks?$AA@	; `string'
PUBLIC	??_C@_0BG@LNGEMIHP@MaximumDefensiveLinks?$AA@	; `string'
PUBLIC	??_C@_0BB@JPDFIMMF@BrigadeBreakBase?$AA@	; `string'
PUBLIC	??_C@_0BC@FOLHBOE@RoleScoreModifier?$AA@	; `string'
PUBLIC	??_C@_0P@JCJECPPF@TaskGroundTime?$AA@		; `string'
PUBLIC	??_C@_0P@ODOKFOEM@PlanGroundTime?$AA@		; `string'
PUBLIC	??_C@_0BI@ICMPOKHF@ObjectiveRepairInterval?$AA@	; `string'
PUBLIC	??_C@_0BB@OGLHKMOK@ResupplyInterval?$AA@	; `string'
PUBLIC	??_C@_0BB@MAEHIMOA@MoraleRegainRate?$AA@	; `string'
PUBLIC	??_C@_0BH@ELPNHNJN@TERegainRateMultiplier?$AA@	; `string'
PUBLIC	??_C@_0BG@IANKGNJK@FootMoveCheckInterval?$AA@	; `string'
PUBLIC	??_C@_0BJ@KOAFJGJE@TrackedMoveCheckInterval?$AA@ ; `string'
PUBLIC	??_C@_0BK@EIOJBGAA@GroundCombatCheckInterval?$AA@ ; `string'
PUBLIC	??_C@_0BK@LGKPGJHC@GroundUpdateCheckInterval?$AA@ ; `string'
PUBLIC	??_C@_0BB@NDNEOBEL@GroundCombatRate?$AA@	; `string'
PUBLIC	??_C@_0O@ENBBOOKA@GroundPathMax?$AA@		; `string'
PUBLIC	??_C@_0BH@BGOLOMBB@ObjGroundPathMaxSearch?$AA@	; `string'
PUBLIC	??_C@_0BF@LJOJJKGF@ObjGroundPathMaxCost?$AA@	; `string'
PUBLIC	??_C@_0BL@PFLMFBBB@MinFullOffensiveInitiative?$AA@ ; `string'
PUBLIC	??_C@_0BL@PLPBJOIL@MinCounterAttackInitiative?$AA@ ; `string'
PUBLIC	??_C@_0BE@FABENDHL@MinSecureInitiative?$AA@	; `string'
PUBLIC	??_C@_0BF@FJDEGIKE@MinExpToFirePreGuide?$AA@	; `string'
PUBLIC	??_C@_0BL@BHEDPEGN@OffensiveReinforcementTime?$AA@ ; `string'
PUBLIC	??_C@_0BL@JEACOCNM@DefensiveReinforcementTime?$AA@ ; `string'
PUBLIC	??_C@_0BN@LNAPCGLH@ConsolidateReinforcementTime?$AA@ ; `string'
PUBLIC	??_C@_0P@PFJHEPMC@ActionPrepTime?$AA@		; `string'
PUBLIC	??_C@_0O@MDDMCHJN@TaskNavalTime?$AA@		; `string'
PUBLIC	??_C@_03ILBCLIMJ@NTM?$AA@			; `string'
PUBLIC	??_C@_0O@MMIBHNJ@PlanNavalTime?$AA@		; `string'
PUBLIC	??_C@_0BJ@MAOBEMKD@NavalCombatCheckInterval?$AA@ ; `string'
PUBLIC	??_C@_0BH@KNHLIJDN@NavalMoveCheckInterval?$AA@	; `string'
PUBLIC	??_C@_0BA@GNAAEKFC@NavalCombatRate?$AA@		; `string'
PUBLIC	??_C@_0BC@EKAPNANA@LowAltitudeCutoff?$AA@	; `string'
PUBLIC	??_C@_05BBOGGNLJ@Other?$AA@			; `string'
PUBLIC	??_C@_0BF@FHBANEAC@GroundSearchDistance?$AA@	; `string'
PUBLIC	??_C@_0BC@CMHPCMDE@AirSearchDistance?$AA@	; `string'
PUBLIC	??_C@_0BD@BDMFBNMM@NewCloudPercentage?$AA@	; `string'
PUBLIC	??_C@_0BG@GLNMPJAF@DeleteCloudPercentage?$AA@	; `string'
PUBLIC	??_C@_0BE@DCKKAAMB@PlayerBubbleObjects?$AA@	; `string'
PUBLIC	??_C@_0L@BIFDHNNK@PlayerTeam?$AA@		; `string'
PUBLIC	??_C@_0BD@PNFMGKPC@CampaignResyncTime?$AA@	; `string'
PUBLIC	??_C@_0BC@LAAEIBB@BubbleRebuildTime?$AA@	; `string'
PUBLIC	??_C@_0BJ@CJGOCFOF@StandardEventqueueLength?$AA@ ; `string'
PUBLIC	??_C@_0BJ@NLPJLPHI@PriorityEventqueueLength?$AA@ ; `string'
PUBLIC	??_C@_0CA@LNBBJHCP@StatisticsRecalculationInterval?$AA@ ; `string'
PUBLIC	??_C@_0BE@GJKOJKAI@LowAirRangeModifier?$AA@	; `string'
PUBLIC	??_C@_0BA@ONKJNOIK@MinimumStrength?$AA@		; `string'
PUBLIC	??_C@_0BD@HOEDBBOM@MaximumDamageTries?$AA@	; `string'
PUBLIC	??_C@_0BD@EJLLOPNH@ReaggregationRatio?$AA@	; `string'
PUBLIC	??_C@_0BC@DBCFPMG@ReinforcementTime?$AA@	; `string'
PUBLIC	??_C@_0O@FIPEPCLG@SimBubbleSize?$AA@		; `string'
PUBLIC	??_C@_0BG@GKKEEDIA@InitiativeLeakPerHour?$AA@	; `string'
PUBLIC	??_C@_0BE@BEBBIJLD@US_TRUCK_TYPE_SMALL?$AA@	; `string'
PUBLIC	??_C@_08FHHBCJKK@Campaign?$AA@			; `string'
PUBLIC	??_C@_0BE@LMFKHICF@US_TRUCK_TYPE_LARGE?$AA@	; `string'
PUBLIC	??_C@_0BG@PGODMIFN@US_TRUCK_TYPE_TRAILER?$AA@	; `string'
PUBLIC	??_C@_0BH@BLPKFODA@OPFOR_TRUCK_TYPE_SMALL?$AA@	; `string'
PUBLIC	??_C@_0BH@LDLBKPKG@OPFOR_TRUCK_TYPE_LARGE?$AA@	; `string'
PUBLIC	??_C@_0BJ@POPKELEJ@OPFOR_TRUCK_TYPE_TRAILER?$AA@ ; `string'
PUBLIC	??_C@_0BG@KGBMCGJD@SWITCH_TRACTORS_IN_TE?$AA@	; `string'
PUBLIC	??_C@_0BC@OCLDMOIP@StartOffBonusRepl?$AA@	; `string'
PUBLIC	??_C@_0BB@OLCKHCKP@StartOffBonusSup?$AA@	; `string'
PUBLIC	??_C@_0BC@DNCHMJMJ@StartOffBonusFuel?$AA@	; `string'
PUBLIC	??_C@_0L@BOLOBPID@ActionRate?$AA@		; `string'
PUBLIC	??_C@_0O@JLHHPED@ActionTimeOut?$AA@		; `string'
PUBLIC	??_C@_03HLLJOCDO@1?40?$AA@			; `string'
PUBLIC	??_C@_0BA@BFLFLCCG@DataRateModRepl?$AA@		; `string'
PUBLIC	??_C@_0P@IPABIGDL@DataRateModSup?$AA@		; `string'
PUBLIC	??_C@_03EMGHBCAM@4?40?$AA@			; `string'
PUBLIC	??_C@_0O@CDNNJBED@RelSquadBonus?$AA@		; `string'
PUBLIC	??_C@_0BC@CLJKPCDO@NoActionBonusProd?$AA@	; `string'
PUBLIC	??_C@_0BA@DBIBMHAC@NoTypeBonusRepl?$AA@		; `string'
PUBLIC	??_C@_0BE@MDLKDDGJ@NewInitiativePoints?$AA@	; `string'
PUBLIC	??_C@_0N@NNFBKLAG@CampBugFixes?$AA@		; `string'
PUBLIC	??_C@_03KMMHNOPA@3?45?$AA@			; `string'
PUBLIC	??_C@_0P@PLHNPIFE@2DHitChanceAir?$AA@		; `string'
PUBLIC	??_C@_03GMOBGHL@1?45?$AA@			; `string'
PUBLIC	??_C@_0BC@BEOMGMNF@2DHitChanceGround?$AA@	; `string'
PUBLIC	??_C@_03JFFPCCNN@0?46?$AA@			; `string'
PUBLIC	??_C@_0L@CBHLALHJ@MinDeadPct?$AA@		; `string'
PUBLIC	__real@42c80000
PUBLIC	__xmm@41f00000000000000000000000000000
EXTRN	__imp__GetPrivateProfileIntA@16:PROC
EXTRN	__imp__GetPrivateProfileStringA@24:PROC
EXTRN	_sprintf:PROC
EXTRN	_atof:PROC
EXTRN	_exit:PROC
EXTRN	?F4FindFile@@YAPADQADPADHPAH2@Z:PROC		; F4FindFile
EXTRN	@__security_check_cookie@4:PROC
EXTRN	___security_cookie:DWORD
EXTRN	__fltused:DWORD
_BSS	SEGMENT
_piecewise_construct DB 01H DUP (?)
	ALIGN	4

_allocator_arg DB 01H DUP (?)
_BSS	ENDS
CRT$XCU	SEGMENT
_piecewise_construct$initializer$ DD FLAT:??__Epiecewise_construct@std@@YAXXZ
CRT$XCU	ENDS
;	COMDAT __xmm@41f00000000000000000000000000000
CONST	SEGMENT
__xmm@41f00000000000000000000000000000 DB 00H, 00H, 00H, 00H, 00H, 00H, 00H
	DB	00H, 00H, 00H, 00H, 00H, 00H, 00H, 0f0H, 'A'
CONST	ENDS
;	COMDAT __real@42c80000
CONST	SEGMENT
__real@42c80000 DD 042c80000r			; 100
CONST	ENDS
;	COMDAT ??_C@_0L@CBHLALHJ@MinDeadPct?$AA@
CONST	SEGMENT
??_C@_0L@CBHLALHJ@MinDeadPct?$AA@ DB 'MinDeadPct', 00H	; `string'
CONST	ENDS
;	COMDAT ??_C@_03JFFPCCNN@0?46?$AA@
CONST	SEGMENT
??_C@_03JFFPCCNN@0?46?$AA@ DB '0.6', 00H		; `string'
CONST	ENDS
;	COMDAT ??_C@_0BC@BEOMGMNF@2DHitChanceGround?$AA@
CONST	SEGMENT
??_C@_0BC@BEOMGMNF@2DHitChanceGround?$AA@ DB '2DHitChanceGround', 00H ; `string'
CONST	ENDS
;	COMDAT ??_C@_03GMOBGHL@1?45?$AA@
CONST	SEGMENT
??_C@_03GMOBGHL@1?45?$AA@ DB '1.5', 00H			; `string'
CONST	ENDS
;	COMDAT ??_C@_0P@PLHNPIFE@2DHitChanceAir?$AA@
CONST	SEGMENT
??_C@_0P@PLHNPIFE@2DHitChanceAir?$AA@ DB '2DHitChanceAir', 00H ; `string'
CONST	ENDS
;	COMDAT ??_C@_03KMMHNOPA@3?45?$AA@
CONST	SEGMENT
??_C@_03KMMHNOPA@3?45?$AA@ DB '3.5', 00H		; `string'
CONST	ENDS
;	COMDAT ??_C@_0N@NNFBKLAG@CampBugFixes?$AA@
CONST	SEGMENT
??_C@_0N@NNFBKLAG@CampBugFixes?$AA@ DB 'CampBugFixes', 00H ; `string'
CONST	ENDS
;	COMDAT ??_C@_0BE@MDLKDDGJ@NewInitiativePoints?$AA@
CONST	SEGMENT
??_C@_0BE@MDLKDDGJ@NewInitiativePoints?$AA@ DB 'NewInitiativePoints', 00H ; `string'
CONST	ENDS
;	COMDAT ??_C@_0BA@DBIBMHAC@NoTypeBonusRepl?$AA@
CONST	SEGMENT
??_C@_0BA@DBIBMHAC@NoTypeBonusRepl?$AA@ DB 'NoTypeBonusRepl', 00H ; `string'
CONST	ENDS
;	COMDAT ??_C@_0BC@CLJKPCDO@NoActionBonusProd?$AA@
CONST	SEGMENT
??_C@_0BC@CLJKPCDO@NoActionBonusProd?$AA@ DB 'NoActionBonusProd', 00H ; `string'
CONST	ENDS
;	COMDAT ??_C@_0O@CDNNJBED@RelSquadBonus?$AA@
CONST	SEGMENT
??_C@_0O@CDNNJBED@RelSquadBonus?$AA@ DB 'RelSquadBonus', 00H ; `string'
CONST	ENDS
;	COMDAT ??_C@_03EMGHBCAM@4?40?$AA@
CONST	SEGMENT
??_C@_03EMGHBCAM@4?40?$AA@ DB '4.0', 00H		; `string'
CONST	ENDS
;	COMDAT ??_C@_0P@IPABIGDL@DataRateModSup?$AA@
CONST	SEGMENT
??_C@_0P@IPABIGDL@DataRateModSup?$AA@ DB 'DataRateModSup', 00H ; `string'
CONST	ENDS
;	COMDAT ??_C@_0BA@BFLFLCCG@DataRateModRepl?$AA@
CONST	SEGMENT
??_C@_0BA@BFLFLCCG@DataRateModRepl?$AA@ DB 'DataRateModRepl', 00H ; `string'
CONST	ENDS
;	COMDAT ??_C@_03HLLJOCDO@1?40?$AA@
CONST	SEGMENT
??_C@_03HLLJOCDO@1?40?$AA@ DB '1.0', 00H		; `string'
CONST	ENDS
;	COMDAT ??_C@_0O@JLHHPED@ActionTimeOut?$AA@
CONST	SEGMENT
??_C@_0O@JLHHPED@ActionTimeOut?$AA@ DB 'ActionTimeOut', 00H ; `string'
CONST	ENDS
;	COMDAT ??_C@_0L@BOLOBPID@ActionRate?$AA@
CONST	SEGMENT
??_C@_0L@BOLOBPID@ActionRate?$AA@ DB 'ActionRate', 00H	; `string'
CONST	ENDS
;	COMDAT ??_C@_0BC@DNCHMJMJ@StartOffBonusFuel?$AA@
CONST	SEGMENT
??_C@_0BC@DNCHMJMJ@StartOffBonusFuel?$AA@ DB 'StartOffBonusFuel', 00H ; `string'
CONST	ENDS
;	COMDAT ??_C@_0BB@OLCKHCKP@StartOffBonusSup?$AA@
CONST	SEGMENT
??_C@_0BB@OLCKHCKP@StartOffBonusSup?$AA@ DB 'StartOffBonusSup', 00H ; `string'
CONST	ENDS
;	COMDAT ??_C@_0BC@OCLDMOIP@StartOffBonusRepl?$AA@
CONST	SEGMENT
??_C@_0BC@OCLDMOIP@StartOffBonusRepl?$AA@ DB 'StartOffBonusRepl', 00H ; `string'
CONST	ENDS
;	COMDAT ??_C@_0BG@KGBMCGJD@SWITCH_TRACTORS_IN_TE?$AA@
CONST	SEGMENT
??_C@_0BG@KGBMCGJD@SWITCH_TRACTORS_IN_TE?$AA@ DB 'SWITCH_TRACTORS_IN_TE', 00H ; `string'
CONST	ENDS
;	COMDAT ??_C@_0BJ@POPKELEJ@OPFOR_TRUCK_TYPE_TRAILER?$AA@
CONST	SEGMENT
??_C@_0BJ@POPKELEJ@OPFOR_TRUCK_TYPE_TRAILER?$AA@ DB 'OPFOR_TRUCK_TYPE_TRA'
	DB	'ILER', 00H					; `string'
CONST	ENDS
;	COMDAT ??_C@_0BH@LDLBKPKG@OPFOR_TRUCK_TYPE_LARGE?$AA@
CONST	SEGMENT
??_C@_0BH@LDLBKPKG@OPFOR_TRUCK_TYPE_LARGE?$AA@ DB 'OPFOR_TRUCK_TYPE_LARGE'
	DB	00H						; `string'
CONST	ENDS
;	COMDAT ??_C@_0BH@BLPKFODA@OPFOR_TRUCK_TYPE_SMALL?$AA@
CONST	SEGMENT
??_C@_0BH@BLPKFODA@OPFOR_TRUCK_TYPE_SMALL?$AA@ DB 'OPFOR_TRUCK_TYPE_SMALL'
	DB	00H						; `string'
CONST	ENDS
;	COMDAT ??_C@_0BG@PGODMIFN@US_TRUCK_TYPE_TRAILER?$AA@
CONST	SEGMENT
??_C@_0BG@PGODMIFN@US_TRUCK_TYPE_TRAILER?$AA@ DB 'US_TRUCK_TYPE_TRAILER', 00H ; `string'
CONST	ENDS
;	COMDAT ??_C@_0BE@LMFKHICF@US_TRUCK_TYPE_LARGE?$AA@
CONST	SEGMENT
??_C@_0BE@LMFKHICF@US_TRUCK_TYPE_LARGE?$AA@ DB 'US_TRUCK_TYPE_LARGE', 00H ; `string'
CONST	ENDS
;	COMDAT ??_C@_08FHHBCJKK@Campaign?$AA@
CONST	SEGMENT
??_C@_08FHHBCJKK@Campaign?$AA@ DB 'Campaign', 00H	; `string'
CONST	ENDS
;	COMDAT ??_C@_0BE@BEBBIJLD@US_TRUCK_TYPE_SMALL?$AA@
CONST	SEGMENT
??_C@_0BE@BEBBIJLD@US_TRUCK_TYPE_SMALL?$AA@ DB 'US_TRUCK_TYPE_SMALL', 00H ; `string'
CONST	ENDS
;	COMDAT ??_C@_0BG@GKKEEDIA@InitiativeLeakPerHour?$AA@
CONST	SEGMENT
??_C@_0BG@GKKEEDIA@InitiativeLeakPerHour?$AA@ DB 'InitiativeLeakPerHour', 00H ; `string'
CONST	ENDS
;	COMDAT ??_C@_0O@FIPEPCLG@SimBubbleSize?$AA@
CONST	SEGMENT
??_C@_0O@FIPEPCLG@SimBubbleSize?$AA@ DB 'SimBubbleSize', 00H ; `string'
CONST	ENDS
;	COMDAT ??_C@_0BC@DBCFPMG@ReinforcementTime?$AA@
CONST	SEGMENT
??_C@_0BC@DBCFPMG@ReinforcementTime?$AA@ DB 'ReinforcementTime', 00H ; `string'
CONST	ENDS
;	COMDAT ??_C@_0BD@EJLLOPNH@ReaggregationRatio?$AA@
CONST	SEGMENT
??_C@_0BD@EJLLOPNH@ReaggregationRatio?$AA@ DB 'ReaggregationRatio', 00H ; `string'
CONST	ENDS
;	COMDAT ??_C@_0BD@HOEDBBOM@MaximumDamageTries?$AA@
CONST	SEGMENT
??_C@_0BD@HOEDBBOM@MaximumDamageTries?$AA@ DB 'MaximumDamageTries', 00H ; `string'
CONST	ENDS
;	COMDAT ??_C@_0BA@ONKJNOIK@MinimumStrength?$AA@
CONST	SEGMENT
??_C@_0BA@ONKJNOIK@MinimumStrength?$AA@ DB 'MinimumStrength', 00H ; `string'
CONST	ENDS
;	COMDAT ??_C@_0BE@GJKOJKAI@LowAirRangeModifier?$AA@
CONST	SEGMENT
??_C@_0BE@GJKOJKAI@LowAirRangeModifier?$AA@ DB 'LowAirRangeModifier', 00H ; `string'
CONST	ENDS
;	COMDAT ??_C@_0CA@LNBBJHCP@StatisticsRecalculationInterval?$AA@
CONST	SEGMENT
??_C@_0CA@LNBBJHCP@StatisticsRecalculationInterval?$AA@ DB 'StatisticsRec'
	DB	'alculationInterval', 00H			; `string'
CONST	ENDS
;	COMDAT ??_C@_0BJ@NLPJLPHI@PriorityEventqueueLength?$AA@
CONST	SEGMENT
??_C@_0BJ@NLPJLPHI@PriorityEventqueueLength?$AA@ DB 'PriorityEventqueueLe'
	DB	'ngth', 00H					; `string'
CONST	ENDS
;	COMDAT ??_C@_0BJ@CJGOCFOF@StandardEventqueueLength?$AA@
CONST	SEGMENT
??_C@_0BJ@CJGOCFOF@StandardEventqueueLength?$AA@ DB 'StandardEventqueueLe'
	DB	'ngth', 00H					; `string'
CONST	ENDS
;	COMDAT ??_C@_0BC@LAAEIBB@BubbleRebuildTime?$AA@
CONST	SEGMENT
??_C@_0BC@LAAEIBB@BubbleRebuildTime?$AA@ DB 'BubbleRebuildTime', 00H ; `string'
CONST	ENDS
;	COMDAT ??_C@_0BD@PNFMGKPC@CampaignResyncTime?$AA@
CONST	SEGMENT
??_C@_0BD@PNFMGKPC@CampaignResyncTime?$AA@ DB 'CampaignResyncTime', 00H ; `string'
CONST	ENDS
;	COMDAT ??_C@_0L@BIFDHNNK@PlayerTeam?$AA@
CONST	SEGMENT
??_C@_0L@BIFDHNNK@PlayerTeam?$AA@ DB 'PlayerTeam', 00H	; `string'
CONST	ENDS
;	COMDAT ??_C@_0BE@DCKKAAMB@PlayerBubbleObjects?$AA@
CONST	SEGMENT
??_C@_0BE@DCKKAAMB@PlayerBubbleObjects?$AA@ DB 'PlayerBubbleObjects', 00H ; `string'
CONST	ENDS
;	COMDAT ??_C@_0BG@GLNMPJAF@DeleteCloudPercentage?$AA@
CONST	SEGMENT
??_C@_0BG@GLNMPJAF@DeleteCloudPercentage?$AA@ DB 'DeleteCloudPercentage', 00H ; `string'
CONST	ENDS
;	COMDAT ??_C@_0BD@BDMFBNMM@NewCloudPercentage?$AA@
CONST	SEGMENT
??_C@_0BD@BDMFBNMM@NewCloudPercentage?$AA@ DB 'NewCloudPercentage', 00H ; `string'
CONST	ENDS
;	COMDAT ??_C@_0BC@CMHPCMDE@AirSearchDistance?$AA@
CONST	SEGMENT
??_C@_0BC@CMHPCMDE@AirSearchDistance?$AA@ DB 'AirSearchDistance', 00H ; `string'
CONST	ENDS
;	COMDAT ??_C@_0BF@FHBANEAC@GroundSearchDistance?$AA@
CONST	SEGMENT
??_C@_0BF@FHBANEAC@GroundSearchDistance?$AA@ DB 'GroundSearchDistance', 00H ; `string'
CONST	ENDS
;	COMDAT ??_C@_05BBOGGNLJ@Other?$AA@
CONST	SEGMENT
??_C@_05BBOGGNLJ@Other?$AA@ DB 'Other', 00H		; `string'
CONST	ENDS
;	COMDAT ??_C@_0BC@EKAPNANA@LowAltitudeCutoff?$AA@
CONST	SEGMENT
??_C@_0BC@EKAPNANA@LowAltitudeCutoff?$AA@ DB 'LowAltitudeCutoff', 00H ; `string'
CONST	ENDS
;	COMDAT ??_C@_0BA@GNAAEKFC@NavalCombatRate?$AA@
CONST	SEGMENT
??_C@_0BA@GNAAEKFC@NavalCombatRate?$AA@ DB 'NavalCombatRate', 00H ; `string'
CONST	ENDS
;	COMDAT ??_C@_0BH@KNHLIJDN@NavalMoveCheckInterval?$AA@
CONST	SEGMENT
??_C@_0BH@KNHLIJDN@NavalMoveCheckInterval?$AA@ DB 'NavalMoveCheckInterval'
	DB	00H						; `string'
CONST	ENDS
;	COMDAT ??_C@_0BJ@MAOBEMKD@NavalCombatCheckInterval?$AA@
CONST	SEGMENT
??_C@_0BJ@MAOBEMKD@NavalCombatCheckInterval?$AA@ DB 'NavalCombatCheckInte'
	DB	'rval', 00H					; `string'
CONST	ENDS
;	COMDAT ??_C@_0O@MMIBHNJ@PlanNavalTime?$AA@
CONST	SEGMENT
??_C@_0O@MMIBHNJ@PlanNavalTime?$AA@ DB 'PlanNavalTime', 00H ; `string'
CONST	ENDS
;	COMDAT ??_C@_03ILBCLIMJ@NTM?$AA@
CONST	SEGMENT
??_C@_03ILBCLIMJ@NTM?$AA@ DB 'NTM', 00H			; `string'
CONST	ENDS
;	COMDAT ??_C@_0O@MDDMCHJN@TaskNavalTime?$AA@
CONST	SEGMENT
??_C@_0O@MDDMCHJN@TaskNavalTime?$AA@ DB 'TaskNavalTime', 00H ; `string'
CONST	ENDS
;	COMDAT ??_C@_0P@PFJHEPMC@ActionPrepTime?$AA@
CONST	SEGMENT
??_C@_0P@PFJHEPMC@ActionPrepTime?$AA@ DB 'ActionPrepTime', 00H ; `string'
CONST	ENDS
;	COMDAT ??_C@_0BN@LNAPCGLH@ConsolidateReinforcementTime?$AA@
CONST	SEGMENT
??_C@_0BN@LNAPCGLH@ConsolidateReinforcementTime?$AA@ DB 'ConsolidateReinf'
	DB	'orcementTime', 00H				; `string'
CONST	ENDS
;	COMDAT ??_C@_0BL@JEACOCNM@DefensiveReinforcementTime?$AA@
CONST	SEGMENT
??_C@_0BL@JEACOCNM@DefensiveReinforcementTime?$AA@ DB 'DefensiveReinforce'
	DB	'mentTime', 00H				; `string'
CONST	ENDS
;	COMDAT ??_C@_0BL@BHEDPEGN@OffensiveReinforcementTime?$AA@
CONST	SEGMENT
??_C@_0BL@BHEDPEGN@OffensiveReinforcementTime?$AA@ DB 'OffensiveReinforce'
	DB	'mentTime', 00H				; `string'
CONST	ENDS
;	COMDAT ??_C@_0BF@FJDEGIKE@MinExpToFirePreGuide?$AA@
CONST	SEGMENT
??_C@_0BF@FJDEGIKE@MinExpToFirePreGuide?$AA@ DB 'MinExpToFirePreGuide', 00H ; `string'
CONST	ENDS
;	COMDAT ??_C@_0BE@FABENDHL@MinSecureInitiative?$AA@
CONST	SEGMENT
??_C@_0BE@FABENDHL@MinSecureInitiative?$AA@ DB 'MinSecureInitiative', 00H ; `string'
CONST	ENDS
;	COMDAT ??_C@_0BL@PLPBJOIL@MinCounterAttackInitiative?$AA@
CONST	SEGMENT
??_C@_0BL@PLPBJOIL@MinCounterAttackInitiative?$AA@ DB 'MinCounterAttackIn'
	DB	'itiative', 00H				; `string'
CONST	ENDS
;	COMDAT ??_C@_0BL@PFLMFBBB@MinFullOffensiveInitiative?$AA@
CONST	SEGMENT
??_C@_0BL@PFLMFBBB@MinFullOffensiveInitiative?$AA@ DB 'MinFullOffensiveIn'
	DB	'itiative', 00H				; `string'
CONST	ENDS
;	COMDAT ??_C@_0BF@LJOJJKGF@ObjGroundPathMaxCost?$AA@
CONST	SEGMENT
??_C@_0BF@LJOJJKGF@ObjGroundPathMaxCost?$AA@ DB 'ObjGroundPathMaxCost', 00H ; `string'
CONST	ENDS
;	COMDAT ??_C@_0BH@BGOLOMBB@ObjGroundPathMaxSearch?$AA@
CONST	SEGMENT
??_C@_0BH@BGOLOMBB@ObjGroundPathMaxSearch?$AA@ DB 'ObjGroundPathMaxSearch'
	DB	00H						; `string'
CONST	ENDS
;	COMDAT ??_C@_0O@ENBBOOKA@GroundPathMax?$AA@
CONST	SEGMENT
??_C@_0O@ENBBOOKA@GroundPathMax?$AA@ DB 'GroundPathMax', 00H ; `string'
CONST	ENDS
;	COMDAT ??_C@_0BB@NDNEOBEL@GroundCombatRate?$AA@
CONST	SEGMENT
??_C@_0BB@NDNEOBEL@GroundCombatRate?$AA@ DB 'GroundCombatRate', 00H ; `string'
CONST	ENDS
;	COMDAT ??_C@_0BK@LGKPGJHC@GroundUpdateCheckInterval?$AA@
CONST	SEGMENT
??_C@_0BK@LGKPGJHC@GroundUpdateCheckInterval?$AA@ DB 'GroundUpdateCheckIn'
	DB	'terval', 00H				; `string'
CONST	ENDS
;	COMDAT ??_C@_0BK@EIOJBGAA@GroundCombatCheckInterval?$AA@
CONST	SEGMENT
??_C@_0BK@EIOJBGAA@GroundCombatCheckInterval?$AA@ DB 'GroundCombatCheckIn'
	DB	'terval', 00H				; `string'
CONST	ENDS
;	COMDAT ??_C@_0BJ@KOAFJGJE@TrackedMoveCheckInterval?$AA@
CONST	SEGMENT
??_C@_0BJ@KOAFJGJE@TrackedMoveCheckInterval?$AA@ DB 'TrackedMoveCheckInte'
	DB	'rval', 00H					; `string'
CONST	ENDS
;	COMDAT ??_C@_0BG@IANKGNJK@FootMoveCheckInterval?$AA@
CONST	SEGMENT
??_C@_0BG@IANKGNJK@FootMoveCheckInterval?$AA@ DB 'FootMoveCheckInterval', 00H ; `string'
CONST	ENDS
;	COMDAT ??_C@_0BH@ELPNHNJN@TERegainRateMultiplier?$AA@
CONST	SEGMENT
??_C@_0BH@ELPNHNJN@TERegainRateMultiplier?$AA@ DB 'TERegainRateMultiplier'
	DB	00H						; `string'
CONST	ENDS
;	COMDAT ??_C@_0BB@MAEHIMOA@MoraleRegainRate?$AA@
CONST	SEGMENT
??_C@_0BB@MAEHIMOA@MoraleRegainRate?$AA@ DB 'MoraleRegainRate', 00H ; `string'
CONST	ENDS
;	COMDAT ??_C@_0BB@OGLHKMOK@ResupplyInterval?$AA@
CONST	SEGMENT
??_C@_0BB@OGLHKMOK@ResupplyInterval?$AA@ DB 'ResupplyInterval', 00H ; `string'
CONST	ENDS
;	COMDAT ??_C@_0BI@ICMPOKHF@ObjectiveRepairInterval?$AA@
CONST	SEGMENT
??_C@_0BI@ICMPOKHF@ObjectiveRepairInterval?$AA@ DB 'ObjectiveRepairInterv'
	DB	'al', 00H					; `string'
CONST	ENDS
;	COMDAT ??_C@_0P@ODOKFOEM@PlanGroundTime?$AA@
CONST	SEGMENT
??_C@_0P@ODOKFOEM@PlanGroundTime?$AA@ DB 'PlanGroundTime', 00H ; `string'
CONST	ENDS
;	COMDAT ??_C@_0P@JCJECPPF@TaskGroundTime?$AA@
CONST	SEGMENT
??_C@_0P@JCJECPPF@TaskGroundTime?$AA@ DB 'TaskGroundTime', 00H ; `string'
CONST	ENDS
;	COMDAT ??_C@_0BC@FOLHBOE@RoleScoreModifier?$AA@
CONST	SEGMENT
??_C@_0BC@FOLHBOE@RoleScoreModifier?$AA@ DB 'RoleScoreModifier', 00H ; `string'
CONST	ENDS
;	COMDAT ??_C@_0BB@JPDFIMMF@BrigadeBreakBase?$AA@
CONST	SEGMENT
??_C@_0BB@JPDFIMMF@BrigadeBreakBase?$AA@ DB 'BrigadeBreakBase', 00H ; `string'
CONST	ENDS
;	COMDAT ??_C@_0BG@LNGEMIHP@MaximumDefensiveLinks?$AA@
CONST	SEGMENT
??_C@_0BG@LNGEMIHP@MaximumDefensiveLinks?$AA@ DB 'MaximumDefensiveLinks', 00H ; `string'
CONST	ENDS
;	COMDAT ??_C@_0BG@BPPBELFK@MaximumOffensiveLinks?$AA@
CONST	SEGMENT
??_C@_0BG@BPPBELFK@MaximumOffensiveLinks?$AA@ DB 'MaximumOffensiveLinks', 00H ; `string'
CONST	ENDS
;	COMDAT ??_C@_0BG@KJKIGMEG@MaximumAssignmentDist?$AA@
CONST	SEGMENT
??_C@_0BG@KJKIGMEG@MaximumAssignmentDist?$AA@ DB 'MaximumAssignmentDist', 00H ; `string'
CONST	ENDS
;	COMDAT ??_C@_0BD@FCJEBJN@MinimumViableLevel?$AA@
CONST	SEGMENT
??_C@_0BD@FCJEBJN@MinimumViableLevel?$AA@ DB 'MinimumViableLevel', 00H ; `string'
CONST	ENDS
;	COMDAT ??_C@_0BF@EHHJEDCC@MinimumAdjustedLevel?$AA@
CONST	SEGMENT
??_C@_0BF@EHHJEDCC@MinimumAdjustedLevel?$AA@ DB 'MinimumAdjustedLevel', 00H ; `string'
CONST	ENDS
;	COMDAT ??_C@_0BG@ECLCCHGL@MinimumOffensiveUnits?$AA@
CONST	SEGMENT
??_C@_0BG@ECLCCHGL@MinimumOffensiveUnits?$AA@ DB 'MinimumOffensiveUnits', 00H ; `string'
CONST	ENDS
;	COMDAT ??_C@_0BA@DAACJICM@MaximumOffenses?$AA@
CONST	SEGMENT
??_C@_0BA@DAACJICM@MaximumOffenses?$AA@ DB 'MaximumOffenses', 00H ; `string'
CONST	ENDS
;	COMDAT ??_C@_0BF@CKAMLPME@SecondaryObjPriority?$AA@
CONST	SEGMENT
??_C@_0BF@CKAMLPME@SecondaryObjPriority?$AA@ DB 'SecondaryObjPriority', 00H ; `string'
CONST	ENDS
;	COMDAT ??_C@_03PGBKPHED@GTM?$AA@
CONST	SEGMENT
??_C@_03PGBKPHED@GTM?$AA@ DB 'GTM', 00H			; `string'
CONST	ENDS
;	COMDAT ??_C@_0BD@MHOEGEAN@PrimaryObjPriority?$AA@
CONST	SEGMENT
??_C@_0BD@MHOEGEAN@PrimaryObjPriority?$AA@ DB 'PrimaryObjPriority', 00H ; `string'
CONST	ENDS
;	COMDAT ??_C@_0BK@NEJFECBH@AircraftTurnaroundMinutes?$AA@
CONST	SEGMENT
??_C@_0BK@NEJFECBH@AircraftTurnaroundMinutes?$AA@ DB 'AircraftTurnaroundM'
	DB	'inutes', 00H				; `string'
CONST	ENDS
;	COMDAT ??_C@_0BA@OEFDDDMA@PilotAssignTime?$AA@
CONST	SEGMENT
??_C@_0BA@OEFDDDMA@PilotAssignTime?$AA@ DB 'PilotAssignTime', 00H ; `string'
CONST	ENDS
;	COMDAT ??_C@_0P@GKJEKPFJ@MaxBAIDistance?$AA@
CONST	SEGMENT
??_C@_0P@GKJEKPFJ@MaxBAIDistance?$AA@ DB 'MaxBAIDistance', 00H ; `string'
CONST	ENDS
;	COMDAT ??_C@_0P@CCGHHENF@MaxSARDistance?$AA@
CONST	SEGMENT
??_C@_0P@CCGHHENF@MaxSARDistance?$AA@ DB 'MaxSARDistance', 00H ; `string'
CONST	ENDS
;	COMDAT ??_C@_0BD@MLBBFCKJ@MinimumIgnoreRange?$AA@
CONST	SEGMENT
??_C@_0BD@MLBBFCKJ@MinimumIgnoreRange?$AA@ DB 'MinimumIgnoreRange', 00H ; `string'
CONST	ENDS
;	COMDAT ??_C@_0L@PGICFJBA@AirPathMax?$AA@
CONST	SEGMENT
??_C@_0L@PGICFJBA@AirPathMax?$AA@ DB 'AirPathMax', 00H	; `string'
CONST	ENDS
;	COMDAT ??_C@_0BE@LAJGCLDM@PackageCyclesToWait?$AA@
CONST	SEGMENT
??_C@_0BE@LAJGCLDM@PackageCyclesToWait?$AA@ DB 'PackageCyclesToWait', 00H ; `string'
CONST	ENDS
;	COMDAT ??_C@_0BB@JLAMPMCP@FlightCombatRate?$AA@
CONST	SEGMENT
??_C@_0BB@JLAMPMCP@FlightCombatRate?$AA@ DB 'FlightCombatRate', 00H ; `string'
CONST	ENDS
;	COMDAT ??_C@_0BH@FEFMDGDM@AirUpdateCheckInterval?$AA@
CONST	SEGMENT
??_C@_0BH@FEFMDGDM@AirUpdateCheckInterval?$AA@ DB 'AirUpdateCheckInterval'
	DB	00H						; `string'
CONST	ENDS
;	COMDAT ??_C@_0BK@NFPPCHHB@FlightCombatCheckInterval?$AA@
CONST	SEGMENT
??_C@_0BK@NFPPCHHB@FlightCombatCheckInterval?$AA@ DB 'FlightCombatCheckIn'
	DB	'terval', 00H				; `string'
CONST	ENDS
;	COMDAT ??_C@_0BI@IKKKGMME@FlightMoveCheckInterval?$AA@
CONST	SEGMENT
??_C@_0BI@IKKKGMME@FlightMoveCheckInterval?$AA@ DB 'FlightMoveCheckInterv'
	DB	'al', 00H					; `string'
CONST	ENDS
;	COMDAT ??_C@_0BF@FBPKNINE@VictoryConditionTime?$AA@
CONST	SEGMENT
??_C@_0BF@FBPKNINE@VictoryConditionTime?$AA@ DB 'VictoryConditionTime', 00H ; `string'
CONST	ENDS
;	COMDAT ??_C@_0M@MPNIPEPN@AirPlanTime?$AA@
CONST	SEGMENT
??_C@_0M@MPNIPEPN@AirPlanTime?$AA@ DB 'AirPlanTime', 00H ; `string'
CONST	ENDS
;	COMDAT ??_C@_0M@KJLNKMHE@AirTaskTime?$AA@
CONST	SEGMENT
??_C@_0M@KJLNKMHE@AirTaskTime?$AA@ DB 'AirTaskTime', 00H ; `string'
CONST	ENDS
;	COMDAT ??_C@_0BI@ENPFJOHC@OnCallFlightsPerRequest?$AA@
CONST	SEGMENT
??_C@_0BI@ENPFJOHC@OnCallFlightsPerRequest?$AA@ DB 'OnCallFlightsPerReque'
	DB	'st', 00H					; `string'
CONST	ENDS
;	COMDAT ??_C@_0BG@EKKIGCJF@BARCAPRequestInterval?$AA@
CONST	SEGMENT
??_C@_0BG@EKKIGCJF@BARCAPRequestInterval?$AA@ DB 'BARCAPRequestInterval', 00H ; `string'
CONST	ENDS
;	COMDAT ??_C@_0BE@GCOGDLEN@MaxEscortAAStrength?$AA@
CONST	SEGMENT
??_C@_0BE@GCOGDLEN@MaxEscortAAStrength?$AA@ DB 'MaxEscortAAStrength', 00H ; `string'
CONST	ENDS
;	COMDAT ??_C@_0M@LDCONICF@LastWingman?$AA@
CONST	SEGMENT
??_C@_0M@LDCONICF@LastWingman?$AA@ DB 'LastWingman', 00H ; `string'
CONST	ENDS
;	COMDAT ??_C@_0N@GNGBBIJM@FirstWingman?$AA@
CONST	SEGMENT
??_C@_0N@GNGBBIJM@FirstWingman?$AA@ DB 'FirstWingman', 00H ; `string'
CONST	ENDS
;	COMDAT ??_C@_0P@HAACJFOF@FirstCommander?$AA@
CONST	SEGMENT
??_C@_0P@HAACJFOF@FirstCommander?$AA@ DB 'FirstCommander', 00H ; `string'
CONST	ENDS
;	COMDAT ??_C@_0N@KMHCJNAN@FirstColonel?$AA@
CONST	SEGMENT
??_C@_0N@KMHCJNAN@FirstColonel?$AA@ DB 'FirstColonel', 00H ; `string'
CONST	ENDS
;	COMDAT ??_C@_0BD@IIHANNH@MaximumECMDistance?$AA@
CONST	SEGMENT
??_C@_0BD@IIHANNH@MaximumECMDistance?$AA@ DB 'MaximumECMDistance', 00H ; `string'
CONST	ENDS
;	COMDAT ??_C@_0BD@KPLDINKO@MinimumECMDistance?$AA@
CONST	SEGMENT
??_C@_0BD@KPLDINKO@MinimumECMDistance?$AA@ DB 'MinimumECMDistance', 00H ; `string'
CONST	ENDS
;	COMDAT ??_C@_0BG@IHICPBML@MaximumTankerDistance?$AA@
CONST	SEGMENT
??_C@_0BG@IHICPBML@MaximumTankerDistance?$AA@ DB 'MaximumTankerDistance', 00H ; `string'
CONST	ENDS
;	COMDAT ??_C@_0BG@MGJFMOEN@MinimumTankerDistance?$AA@
CONST	SEGMENT
??_C@_0BG@MGJFMOEN@MinimumTankerDistance?$AA@ DB 'MinimumTankerDistance', 00H ; `string'
CONST	ENDS
;	COMDAT ??_C@_0BF@CCJGCMCP@MaximumJSTARDistance?$AA@
CONST	SEGMENT
??_C@_0BF@CCJGCMCP@MaximumJSTARDistance?$AA@ DB 'MaximumJSTARDistance', 00H ; `string'
CONST	ENDS
;	COMDAT ??_C@_0BF@DBNDMKIE@MinimumJSTARDistance?$AA@
CONST	SEGMENT
??_C@_0BF@DBNDMKIE@MinimumJSTARDistance?$AA@ DB 'MinimumJSTARDistance', 00H ; `string'
CONST	ENDS
;	COMDAT ??_C@_0BF@IOACDFEH@MaximumAWACSDistance?$AA@
CONST	SEGMENT
??_C@_0BF@IOACDFEH@MaximumAWACSDistance?$AA@ DB 'MaximumAWACSDistance', 00H ; `string'
CONST	ENDS
;	COMDAT ??_C@_0BF@JNEHNDOM@MinimumAWACSDistance?$AA@
CONST	SEGMENT
??_C@_0BF@JNEHNDOM@MinimumAWACSDistance?$AA@ DB 'MinimumAWACSDistance', 00H ; `string'
CONST	ENDS
;	COMDAT ??_C@_0BD@NHOHKDLH@MinimumBDAPriority?$AA@
CONST	SEGMENT
??_C@_0BD@NHOHKDLH@MinimumBDAPriority?$AA@ DB 'MinimumBDAPriority', 00H ; `string'
CONST	ENDS
;	COMDAT ??_C@_0M@JOOKKBLI@SweepRadius?$AA@
CONST	SEGMENT
??_C@_0M@JOOKKBLI@SweepRadius?$AA@ DB 'SweepRadius', 00H ; `string'
CONST	ENDS
;	COMDAT ??_C@_0BD@MKNNCKHE@LoiterTurnDistance?$AA@
CONST	SEGMENT
??_C@_0BD@MKNNCKHE@LoiterTurnDistance?$AA@ DB 'LoiterTurnDistance', 00H ; `string'
CONST	ENDS
;	COMDAT ??_C@_0BC@IECNBMHO@TargetClearRadius?$AA@
CONST	SEGMENT
??_C@_0BC@IECNBMHO@TargetClearRadius?$AA@ DB 'TargetClearRadius', 00H ; `string'
CONST	ENDS
;	COMDAT ??_C@_0P@JFDKDNKD@BreakpointDist?$AA@
CONST	SEGMENT
??_C@_0P@JFDKDNKD@BreakpointDist?$AA@ DB 'BreakpointDist', 00H ; `string'
CONST	ENDS
;	COMDAT ??_C@_0BC@IKFGGHHN@MinAssemblyPtDist?$AA@
CONST	SEGMENT
??_C@_0BC@IKFGGHHN@MinAssemblyPtDist?$AA@ DB 'MinAssemblyPtDist', 00H ; `string'
CONST	ENDS
;	COMDAT ??_C@_0P@EPAKBPGK@MinAvoidThreat?$AA@
CONST	SEGMENT
??_C@_0P@EPAKBPGK@MinAvoidThreat?$AA@ DB 'MinAvoidThreat', 00H ; `string'
CONST	ENDS
;	COMDAT ??_C@_0BE@ONIHHOAI@MinSeadescortThreat?$AA@
CONST	SEGMENT
??_C@_0BE@ONIHHOAI@MinSeadescortThreat?$AA@ DB 'MinSeadescortThreat', 00H ; `string'
CONST	ENDS
;	COMDAT ??_C@_0BG@GCNIFOKC@MaxFlymissionNoThreat?$AA@
CONST	SEGMENT
??_C@_0BG@GCNIFOKC@MaxFlymissionNoThreat?$AA@ DB 'MaxFlymissionNoThreat', 00H ; `string'
CONST	ENDS
;	COMDAT ??_C@_0BI@DPKFFJGG@MaxFlymissionHighThreat?$AA@
CONST	SEGMENT
??_C@_0BI@DPKFFJGG@MaxFlymissionHighThreat?$AA@ DB 'MaxFlymissionHighThre'
	DB	'at', 00H					; `string'
CONST	ENDS
;	COMDAT ??_C@_0BE@FGGGNBAF@MaxFlymissionThreat?$AA@
CONST	SEGMENT
??_C@_0BE@FGGGNBAF@MaxFlymissionThreat?$AA@ DB 'MaxFlymissionThreat', 00H ; `string'
CONST	ENDS
;	COMDAT ??_C@_0BI@GALMIHBJ@AircraftAssignmentRatio?$AA@
CONST	SEGMENT
??_C@_0BI@GALMIHBJ@AircraftAssignmentRatio?$AA@ DB 'AircraftAssignmentRat'
	DB	'io', 00H					; `string'
CONST	ENDS
;	COMDAT ??_C@_0BF@MCJPIFCD@LongrangePlanMaxTime?$AA@
CONST	SEGMENT
??_C@_0BF@MCJPIFCD@LongrangePlanMaxTime?$AA@ DB 'LongrangePlanMaxTime', 00H ; `string'
CONST	ENDS
;	COMDAT ??_C@_0BF@CEPPCKMC@LongrangePlanMinTime?$AA@
CONST	SEGMENT
??_C@_0BF@CEPPCKMC@LongrangePlanMinTime?$AA@ DB 'LongrangePlanMinTime', 00H ; `string'
CONST	ENDS
;	COMDAT ??_C@_0BF@KONNPCLA@ImmediatePlanMaxTime?$AA@
CONST	SEGMENT
??_C@_0BF@KONNPCLA@ImmediatePlanMaxTime?$AA@ DB 'ImmediatePlanMaxTime', 00H ; `string'
CONST	ENDS
;	COMDAT ??_C@_03NDHBKIJP@ATM?$AA@
CONST	SEGMENT
??_C@_03NDHBKIJP@ATM?$AA@ DB 'ATM', 00H			; `string'
CONST	ENDS
;	COMDAT ??_C@_0BF@EILNFNFB@ImmediatePlanMinTime?$AA@
CONST	SEGMENT
??_C@_0BF@EILNFNFB@ImmediatePlanMinTime?$AA@ DB 'ImmediatePlanMinTime', 00H ; `string'
CONST	ENDS
;	COMDAT ??_C@_06HBAJKFOL@?$CFs?4AII?$AA@
CONST	SEGMENT
??_C@_06HBAJKFOL@?$CFs?4AII?$AA@ DB '%s.AII', 00H	; `string'
CONST	ENDS
CRT$XCU	SEGMENT
_allocator_arg$initializer$ DD FLAT:??__Eallocator_arg@std@@YAXXZ
CRT$XCU	ENDS
; Function compile flags: /Odtp
; File c:\users\zhitao li\documents\visual studio 2012\projects\freefalcon\campaign\camplib\aiinput.cpp
_TEXT	SEGMENT
tv1248 = -376						; size = 8
tv1430 = -368						; size = 8
_len$ = -360						; size = 4
_off$ = -356						; size = 4
tv1245 = -352						; size = 4
tv1427 = -348						; size = 4
_temp$ = -344						; size = 2
_tmpName$ = -340					; size = 80
_fileName$ = -260					; size = 256
__$ArrayPad$ = -4					; size = 4
_name$ = 8						; size = 4
?ReadCampAIInputs@@YAXPAD@Z PROC			; ReadCampAIInputs

; 150  : {

	push	ebp
	mov	ebp, esp
	sub	esp, 376				; 00000178H
	mov	eax, DWORD PTR ___security_cookie
	xor	eax, ebp
	mov	DWORD PTR __$ArrayPad$[ebp], eax

; 151  : 	char	fileName[256],tmpName[80];
; 152  : 	int		off,len;
; 153  : 	short	temp;
; 154  : 
; 155  : 	sprintf(tmpName,"%s.AII",name);

	mov	eax, DWORD PTR _name$[ebp]
	push	eax
	push	OFFSET ??_C@_06HBAJKFOL@?$CFs?4AII?$AA@
	lea	ecx, DWORD PTR _tmpName$[ebp]
	push	ecx
	call	_sprintf
	add	esp, 12					; 0000000cH

; 156  : 	if (!F4FindFile(tmpName,fileName,256,&off,&len))

	lea	edx, DWORD PTR _len$[ebp]
	push	edx
	lea	eax, DWORD PTR _off$[ebp]
	push	eax
	push	256					; 00000100H
	lea	ecx, DWORD PTR _fileName$[ebp]
	push	ecx
	lea	edx, DWORD PTR _tmpName$[ebp]
	push	edx
	call	?F4FindFile@@YAPADQADPADHPAH2@Z		; F4FindFile
	add	esp, 20					; 00000014H
	test	eax, eax
	jne	SHORT $LN1@ReadCampAI

; 157  : 	   exit(0);

	push	0
	call	_exit
$LN1@ReadCampAI:

; 158  : 
; 159  : 	/* ATM Inputs */
; 160  : 	IMMEDIATE_MIN_TIME = (short)GetPrivateProfileInt("ATM","ImmediatePlanMinTime", 0, fileName);

	lea	eax, DWORD PTR _fileName$[ebp]
	push	eax
	push	0
	push	OFFSET ??_C@_0BF@EILNFNFB@ImmediatePlanMinTime?$AA@
	push	OFFSET ??_C@_03NDHBKIJP@ATM?$AA@
	call	DWORD PTR __imp__GetPrivateProfileIntA@16
	mov	WORD PTR ?IMMEDIATE_MIN_TIME@@3FA, ax	; IMMEDIATE_MIN_TIME

; 161  : 	IMMEDIATE_MAX_TIME = (short)GetPrivateProfileInt("ATM","ImmediatePlanMaxTime", 0, fileName);

	lea	ecx, DWORD PTR _fileName$[ebp]
	push	ecx
	push	0
	push	OFFSET ??_C@_0BF@KONNPCLA@ImmediatePlanMaxTime?$AA@
	push	OFFSET ??_C@_03NDHBKIJP@ATM?$AA@
	call	DWORD PTR __imp__GetPrivateProfileIntA@16
	mov	WORD PTR ?IMMEDIATE_MAX_TIME@@3FA, ax	; IMMEDIATE_MAX_TIME

; 162  : 	LONGRANGE_MIN_TIME = (short)GetPrivateProfileInt("ATM","LongrangePlanMinTime", 0, fileName);

	lea	edx, DWORD PTR _fileName$[ebp]
	push	edx
	push	0
	push	OFFSET ??_C@_0BF@CEPPCKMC@LongrangePlanMinTime?$AA@
	push	OFFSET ??_C@_03NDHBKIJP@ATM?$AA@
	call	DWORD PTR __imp__GetPrivateProfileIntA@16
	mov	WORD PTR ?LONGRANGE_MIN_TIME@@3FA, ax	; LONGRANGE_MIN_TIME

; 163  : 	LONGRANGE_MAX_TIME = (short)GetPrivateProfileInt("ATM","LongrangePlanMaxTime", 0, fileName);

	lea	eax, DWORD PTR _fileName$[ebp]
	push	eax
	push	0
	push	OFFSET ??_C@_0BF@MCJPIFCD@LongrangePlanMaxTime?$AA@
	push	OFFSET ??_C@_03NDHBKIJP@ATM?$AA@
	call	DWORD PTR __imp__GetPrivateProfileIntA@16
	mov	WORD PTR ?LONGRANGE_MAX_TIME@@3FA, ax	; LONGRANGE_MAX_TIME

; 164  : 	ATM_ASSIGN_RATIO = (short)GetPrivateProfileInt("ATM","AircraftAssignmentRatio", 0, fileName);

	lea	ecx, DWORD PTR _fileName$[ebp]
	push	ecx
	push	0
	push	OFFSET ??_C@_0BI@GALMIHBJ@AircraftAssignmentRatio?$AA@
	push	OFFSET ??_C@_03NDHBKIJP@ATM?$AA@
	call	DWORD PTR __imp__GetPrivateProfileIntA@16
	mov	WORD PTR ?ATM_ASSIGN_RATIO@@3FA, ax	; ATM_ASSIGN_RATIO

; 165  : 	MAX_FLYMISSION_THREAT = (short)GetPrivateProfileInt("ATM","MaxFlymissionThreat", 0, fileName);

	lea	edx, DWORD PTR _fileName$[ebp]
	push	edx
	push	0
	push	OFFSET ??_C@_0BE@FGGGNBAF@MaxFlymissionThreat?$AA@
	push	OFFSET ??_C@_03NDHBKIJP@ATM?$AA@
	call	DWORD PTR __imp__GetPrivateProfileIntA@16
	mov	WORD PTR ?MAX_FLYMISSION_THREAT@@3FA, ax ; MAX_FLYMISSION_THREAT

; 166  : 	MAX_FLYMISSION_HIGHTHREAT = (short)GetPrivateProfileInt("ATM","MaxFlymissionHighThreat", 0, fileName);

	lea	eax, DWORD PTR _fileName$[ebp]
	push	eax
	push	0
	push	OFFSET ??_C@_0BI@DPKFFJGG@MaxFlymissionHighThreat?$AA@
	push	OFFSET ??_C@_03NDHBKIJP@ATM?$AA@
	call	DWORD PTR __imp__GetPrivateProfileIntA@16
	mov	WORD PTR ?MAX_FLYMISSION_HIGHTHREAT@@3FA, ax ; MAX_FLYMISSION_HIGHTHREAT

; 167  : 	MAX_FLYMISSION_NOTHREAT = (short)GetPrivateProfileInt("ATM","MaxFlymissionNoThreat", 0, fileName);

	lea	ecx, DWORD PTR _fileName$[ebp]
	push	ecx
	push	0
	push	OFFSET ??_C@_0BG@GCNIFOKC@MaxFlymissionNoThreat?$AA@
	push	OFFSET ??_C@_03NDHBKIJP@ATM?$AA@
	call	DWORD PTR __imp__GetPrivateProfileIntA@16
	mov	WORD PTR ?MAX_FLYMISSION_NOTHREAT@@3FA, ax ; MAX_FLYMISSION_NOTHREAT

; 168  : 	MIN_SEADESCORT_THREAT = (short)GetPrivateProfileInt("ATM","MinSeadescortThreat", 0, fileName);

	lea	edx, DWORD PTR _fileName$[ebp]
	push	edx
	push	0
	push	OFFSET ??_C@_0BE@ONIHHOAI@MinSeadescortThreat?$AA@
	push	OFFSET ??_C@_03NDHBKIJP@ATM?$AA@
	call	DWORD PTR __imp__GetPrivateProfileIntA@16
	mov	WORD PTR ?MIN_SEADESCORT_THREAT@@3FA, ax ; MIN_SEADESCORT_THREAT

; 169  : 	MIN_AVOID_THREAT = (short)GetPrivateProfileInt("ATM","MinAvoidThreat", 0, fileName);

	lea	eax, DWORD PTR _fileName$[ebp]
	push	eax
	push	0
	push	OFFSET ??_C@_0P@EPAKBPGK@MinAvoidThreat?$AA@
	push	OFFSET ??_C@_03NDHBKIJP@ATM?$AA@
	call	DWORD PTR __imp__GetPrivateProfileIntA@16
	mov	WORD PTR ?MIN_AVOID_THREAT@@3FA, ax	; MIN_AVOID_THREAT

; 170  : 	MIN_AP_DISTANCE = (short)GetPrivateProfileInt("ATM","MinAssemblyPtDist", 0, fileName);

	lea	ecx, DWORD PTR _fileName$[ebp]
	push	ecx
	push	0
	push	OFFSET ??_C@_0BC@IKFGGHHN@MinAssemblyPtDist?$AA@
	push	OFFSET ??_C@_03NDHBKIJP@ATM?$AA@
	call	DWORD PTR __imp__GetPrivateProfileIntA@16
	mov	WORD PTR ?MIN_AP_DISTANCE@@3FA, ax	; MIN_AP_DISTANCE

; 171  : 	BREAKPOINT_DISTANCE = (short)GetPrivateProfileInt("ATM","BreakpointDist", 0, fileName);

	lea	edx, DWORD PTR _fileName$[ebp]
	push	edx
	push	0
	push	OFFSET ??_C@_0P@JFDKDNKD@BreakpointDist?$AA@
	push	OFFSET ??_C@_03NDHBKIJP@ATM?$AA@
	call	DWORD PTR __imp__GetPrivateProfileIntA@16
	mov	WORD PTR ?BREAKPOINT_DISTANCE@@3FA, ax	; BREAKPOINT_DISTANCE

; 172  : 	ATM_TARGET_CLEAR_RADIUS = (short)GetPrivateProfileInt("ATM","TargetClearRadius", 0, fileName);

	lea	eax, DWORD PTR _fileName$[ebp]
	push	eax
	push	0
	push	OFFSET ??_C@_0BC@IECNBMHO@TargetClearRadius?$AA@
	push	OFFSET ??_C@_03NDHBKIJP@ATM?$AA@
	call	DWORD PTR __imp__GetPrivateProfileIntA@16
	mov	WORD PTR ?ATM_TARGET_CLEAR_RADIUS@@3FA, ax ; ATM_TARGET_CLEAR_RADIUS

; 173  : 	LOITER_DIST = (short)GetPrivateProfileInt("ATM","LoiterTurnDistance", 0, fileName);

	lea	ecx, DWORD PTR _fileName$[ebp]
	push	ecx
	push	0
	push	OFFSET ??_C@_0BD@MKNNCKHE@LoiterTurnDistance?$AA@
	push	OFFSET ??_C@_03NDHBKIJP@ATM?$AA@
	call	DWORD PTR __imp__GetPrivateProfileIntA@16
	mov	WORD PTR ?LOITER_DIST@@3FA, ax		; LOITER_DIST

; 174  : 	SWEEP_DISTANCE = (short)GetPrivateProfileInt("ATM","SweepRadius", 0, fileName);

	lea	edx, DWORD PTR _fileName$[ebp]
	push	edx
	push	0
	push	OFFSET ??_C@_0M@JOOKKBLI@SweepRadius?$AA@
	push	OFFSET ??_C@_03NDHBKIJP@ATM?$AA@
	call	DWORD PTR __imp__GetPrivateProfileIntA@16
	mov	WORD PTR ?SWEEP_DISTANCE@@3FA, ax	; SWEEP_DISTANCE

; 175  : 	MINIMUM_BDA_PRIORITY = (short)GetPrivateProfileInt("ATM","MinimumBDAPriority", 0, fileName);

	lea	eax, DWORD PTR _fileName$[ebp]
	push	eax
	push	0
	push	OFFSET ??_C@_0BD@NHOHKDLH@MinimumBDAPriority?$AA@
	push	OFFSET ??_C@_03NDHBKIJP@ATM?$AA@
	call	DWORD PTR __imp__GetPrivateProfileIntA@16
	mov	WORD PTR ?MINIMUM_BDA_PRIORITY@@3FA, ax	; MINIMUM_BDA_PRIORITY

; 176  : 	MINIMUM_AWACS_DISTANCE = (short)GetPrivateProfileInt("ATM","MinimumAWACSDistance", 0, fileName);

	lea	ecx, DWORD PTR _fileName$[ebp]
	push	ecx
	push	0
	push	OFFSET ??_C@_0BF@JNEHNDOM@MinimumAWACSDistance?$AA@
	push	OFFSET ??_C@_03NDHBKIJP@ATM?$AA@
	call	DWORD PTR __imp__GetPrivateProfileIntA@16
	mov	WORD PTR ?MINIMUM_AWACS_DISTANCE@@3FA, ax ; MINIMUM_AWACS_DISTANCE

; 177  : 	MAXIMUM_AWACS_DISTANCE = (short)GetPrivateProfileInt("ATM","MaximumAWACSDistance", 0, fileName);

	lea	edx, DWORD PTR _fileName$[ebp]
	push	edx
	push	0
	push	OFFSET ??_C@_0BF@IOACDFEH@MaximumAWACSDistance?$AA@
	push	OFFSET ??_C@_03NDHBKIJP@ATM?$AA@
	call	DWORD PTR __imp__GetPrivateProfileIntA@16
	mov	WORD PTR ?MAXIMUM_AWACS_DISTANCE@@3FA, ax ; MAXIMUM_AWACS_DISTANCE

; 178  : 	MINIMUM_JSTAR_DISTANCE = (short)GetPrivateProfileInt("ATM","MinimumJSTARDistance", 0, fileName);

	lea	eax, DWORD PTR _fileName$[ebp]
	push	eax
	push	0
	push	OFFSET ??_C@_0BF@DBNDMKIE@MinimumJSTARDistance?$AA@
	push	OFFSET ??_C@_03NDHBKIJP@ATM?$AA@
	call	DWORD PTR __imp__GetPrivateProfileIntA@16
	mov	WORD PTR ?MINIMUM_JSTAR_DISTANCE@@3FA, ax ; MINIMUM_JSTAR_DISTANCE

; 179  : 	MAXIMUM_JSTAR_DISTANCE = (short)GetPrivateProfileInt("ATM","MaximumJSTARDistance", 0, fileName);

	lea	ecx, DWORD PTR _fileName$[ebp]
	push	ecx
	push	0
	push	OFFSET ??_C@_0BF@CCJGCMCP@MaximumJSTARDistance?$AA@
	push	OFFSET ??_C@_03NDHBKIJP@ATM?$AA@
	call	DWORD PTR __imp__GetPrivateProfileIntA@16
	mov	WORD PTR ?MAXIMUM_JSTAR_DISTANCE@@3FA, ax ; MAXIMUM_JSTAR_DISTANCE

; 180  : 	MINIMUM_TANKER_DISTANCE = (short)GetPrivateProfileInt("ATM","MinimumTankerDistance", 0, fileName);

	lea	edx, DWORD PTR _fileName$[ebp]
	push	edx
	push	0
	push	OFFSET ??_C@_0BG@MGJFMOEN@MinimumTankerDistance?$AA@
	push	OFFSET ??_C@_03NDHBKIJP@ATM?$AA@
	call	DWORD PTR __imp__GetPrivateProfileIntA@16
	mov	WORD PTR ?MINIMUM_TANKER_DISTANCE@@3FA, ax ; MINIMUM_TANKER_DISTANCE

; 181  : 	MAXIMUM_TANKER_DISTANCE = (short)GetPrivateProfileInt("ATM","MaximumTankerDistance", 0, fileName);

	lea	eax, DWORD PTR _fileName$[ebp]
	push	eax
	push	0
	push	OFFSET ??_C@_0BG@IHICPBML@MaximumTankerDistance?$AA@
	push	OFFSET ??_C@_03NDHBKIJP@ATM?$AA@
	call	DWORD PTR __imp__GetPrivateProfileIntA@16
	mov	WORD PTR ?MAXIMUM_TANKER_DISTANCE@@3FA, ax ; MAXIMUM_TANKER_DISTANCE

; 182  : 	MINIMUM_ECM_DISTANCE = (short)GetPrivateProfileInt("ATM","MinimumECMDistance", 0, fileName);

	lea	ecx, DWORD PTR _fileName$[ebp]
	push	ecx
	push	0
	push	OFFSET ??_C@_0BD@KPLDINKO@MinimumECMDistance?$AA@
	push	OFFSET ??_C@_03NDHBKIJP@ATM?$AA@
	call	DWORD PTR __imp__GetPrivateProfileIntA@16
	mov	WORD PTR ?MINIMUM_ECM_DISTANCE@@3FA, ax	; MINIMUM_ECM_DISTANCE

; 183  : 	MAXIMUM_ECM_DISTANCE = (short)GetPrivateProfileInt("ATM","MaximumECMDistance", 0, fileName);

	lea	edx, DWORD PTR _fileName$[ebp]
	push	edx
	push	0
	push	OFFSET ??_C@_0BD@IIHANNH@MaximumECMDistance?$AA@
	push	OFFSET ??_C@_03NDHBKIJP@ATM?$AA@
	call	DWORD PTR __imp__GetPrivateProfileIntA@16
	mov	WORD PTR ?MAXIMUM_ECM_DISTANCE@@3FA, ax	; MAXIMUM_ECM_DISTANCE

; 184  : 	FIRST_COLONEL = (short)GetPrivateProfileInt("ATM","FirstColonel", 0, fileName);

	lea	eax, DWORD PTR _fileName$[ebp]
	push	eax
	push	0
	push	OFFSET ??_C@_0N@KMHCJNAN@FirstColonel?$AA@
	push	OFFSET ??_C@_03NDHBKIJP@ATM?$AA@
	call	DWORD PTR __imp__GetPrivateProfileIntA@16
	mov	WORD PTR ?FIRST_COLONEL@@3FA, ax	; FIRST_COLONEL

; 185  : 	FIRST_COMMANDER = (short)GetPrivateProfileInt("ATM","FirstCommander", 0, fileName);

	lea	ecx, DWORD PTR _fileName$[ebp]
	push	ecx
	push	0
	push	OFFSET ??_C@_0P@HAACJFOF@FirstCommander?$AA@
	push	OFFSET ??_C@_03NDHBKIJP@ATM?$AA@
	call	DWORD PTR __imp__GetPrivateProfileIntA@16
	mov	WORD PTR ?FIRST_COMMANDER@@3FA, ax	; FIRST_COMMANDER

; 186  : 	FIRST_WINGMAN = (short)GetPrivateProfileInt("ATM","FirstWingman", 0, fileName);

	lea	edx, DWORD PTR _fileName$[ebp]
	push	edx
	push	0
	push	OFFSET ??_C@_0N@GNGBBIJM@FirstWingman?$AA@
	push	OFFSET ??_C@_03NDHBKIJP@ATM?$AA@
	call	DWORD PTR __imp__GetPrivateProfileIntA@16
	mov	WORD PTR ?FIRST_WINGMAN@@3FA, ax	; FIRST_WINGMAN

; 187  : 	LAST_WINGMAN = (short)GetPrivateProfileInt("ATM","LastWingman", 0, fileName);

	lea	eax, DWORD PTR _fileName$[ebp]
	push	eax
	push	0
	push	OFFSET ??_C@_0M@LDCONICF@LastWingman?$AA@
	push	OFFSET ??_C@_03NDHBKIJP@ATM?$AA@
	call	DWORD PTR __imp__GetPrivateProfileIntA@16
	mov	WORD PTR ?LAST_WINGMAN@@3FA, ax		; LAST_WINGMAN

; 188  : 	MAX_AA_STR_FOR_ESCORT = (short)GetPrivateProfileInt("ATM","MaxEscortAAStrength", 0, fileName);

	lea	ecx, DWORD PTR _fileName$[ebp]
	push	ecx
	push	0
	push	OFFSET ??_C@_0BE@GCOGDLEN@MaxEscortAAStrength?$AA@
	push	OFFSET ??_C@_03NDHBKIJP@ATM?$AA@
	call	DWORD PTR __imp__GetPrivateProfileIntA@16
	mov	WORD PTR ?MAX_AA_STR_FOR_ESCORT@@3FA, ax ; MAX_AA_STR_FOR_ESCORT

; 189  : 	BARCAP_REQUEST_INTERVAL = (short)GetPrivateProfileInt("ATM","BARCAPRequestInterval", 0, fileName);

	lea	edx, DWORD PTR _fileName$[ebp]
	push	edx
	push	0
	push	OFFSET ??_C@_0BG@EKKIGCJF@BARCAPRequestInterval?$AA@
	push	OFFSET ??_C@_03NDHBKIJP@ATM?$AA@
	call	DWORD PTR __imp__GetPrivateProfileIntA@16
	mov	WORD PTR ?BARCAP_REQUEST_INTERVAL@@3FA, ax ; BARCAP_REQUEST_INTERVAL

; 190  : 	ONCALL_CAS_FLIGHTS_PER_REQUEST = (short)GetPrivateProfileInt("ATM","OnCallFlightsPerRequest", 0, fileName);

	lea	eax, DWORD PTR _fileName$[ebp]
	push	eax
	push	0
	push	OFFSET ??_C@_0BI@ENPFJOHC@OnCallFlightsPerRequest?$AA@
	push	OFFSET ??_C@_03NDHBKIJP@ATM?$AA@
	call	DWORD PTR __imp__GetPrivateProfileIntA@16
	mov	WORD PTR ?ONCALL_CAS_FLIGHTS_PER_REQUEST@@3FA, ax ; ONCALL_CAS_FLIGHTS_PER_REQUEST

; 191  : 	MIN_TASK_AIR = (short)GetPrivateProfileInt("ATM","AirTaskTime", 0, fileName);

	lea	ecx, DWORD PTR _fileName$[ebp]
	push	ecx
	push	0
	push	OFFSET ??_C@_0M@KJLNKMHE@AirTaskTime?$AA@
	push	OFFSET ??_C@_03NDHBKIJP@ATM?$AA@
	call	DWORD PTR __imp__GetPrivateProfileIntA@16
	mov	WORD PTR ?MIN_TASK_AIR@@3FA, ax		; MIN_TASK_AIR

; 192  : 	MIN_PLAN_AIR = (short)GetPrivateProfileInt("ATM","AirPlanTime", 0, fileName);

	lea	edx, DWORD PTR _fileName$[ebp]
	push	edx
	push	0
	push	OFFSET ??_C@_0M@MPNIPEPN@AirPlanTime?$AA@
	push	OFFSET ??_C@_03NDHBKIJP@ATM?$AA@
	call	DWORD PTR __imp__GetPrivateProfileIntA@16
	mov	WORD PTR ?MIN_PLAN_AIR@@3FA, ax		; MIN_PLAN_AIR

; 193  : 	VICTORY_CHECK_TIME = (short)GetPrivateProfileInt("ATM","VictoryConditionTime", 0, fileName);

	lea	eax, DWORD PTR _fileName$[ebp]
	push	eax
	push	0
	push	OFFSET ??_C@_0BF@FBPKNINE@VictoryConditionTime?$AA@
	push	OFFSET ??_C@_03NDHBKIJP@ATM?$AA@
	call	DWORD PTR __imp__GetPrivateProfileIntA@16
	mov	WORD PTR ?VICTORY_CHECK_TIME@@3FA, ax	; VICTORY_CHECK_TIME

; 194  : 	FLIGHT_MOVE_CHECK_INTERVAL = (short)GetPrivateProfileInt("ATM","FlightMoveCheckInterval", 0, fileName);

	lea	ecx, DWORD PTR _fileName$[ebp]
	push	ecx
	push	0
	push	OFFSET ??_C@_0BI@IKKKGMME@FlightMoveCheckInterval?$AA@
	push	OFFSET ??_C@_03NDHBKIJP@ATM?$AA@
	call	DWORD PTR __imp__GetPrivateProfileIntA@16
	mov	WORD PTR ?FLIGHT_MOVE_CHECK_INTERVAL@@3FA, ax ; FLIGHT_MOVE_CHECK_INTERVAL

; 195  : 	FLIGHT_COMBAT_CHECK_INTERVAL = (short)GetPrivateProfileInt("ATM","FlightCombatCheckInterval", 0, fileName);

	lea	edx, DWORD PTR _fileName$[ebp]
	push	edx
	push	0
	push	OFFSET ??_C@_0BK@NFPPCHHB@FlightCombatCheckInterval?$AA@
	push	OFFSET ??_C@_03NDHBKIJP@ATM?$AA@
	call	DWORD PTR __imp__GetPrivateProfileIntA@16
	mov	WORD PTR ?FLIGHT_COMBAT_CHECK_INTERVAL@@3FA, ax ; FLIGHT_COMBAT_CHECK_INTERVAL

; 196  : 	AIR_UPDATE_CHECK_INTERVAL = (short)GetPrivateProfileInt("ATM","AirUpdateCheckInterval", 0, fileName);

	lea	eax, DWORD PTR _fileName$[ebp]
	push	eax
	push	0
	push	OFFSET ??_C@_0BH@FEFMDGDM@AirUpdateCheckInterval?$AA@
	push	OFFSET ??_C@_03NDHBKIJP@ATM?$AA@
	call	DWORD PTR __imp__GetPrivateProfileIntA@16
	mov	WORD PTR ?AIR_UPDATE_CHECK_INTERVAL@@3FA, ax ; AIR_UPDATE_CHECK_INTERVAL

; 197  : 	FLIGHT_COMBAT_RATE = (short)GetPrivateProfileInt("ATM","FlightCombatRate", 0, fileName);

	lea	ecx, DWORD PTR _fileName$[ebp]
	push	ecx
	push	0
	push	OFFSET ??_C@_0BB@JLAMPMCP@FlightCombatRate?$AA@
	push	OFFSET ??_C@_03NDHBKIJP@ATM?$AA@
	call	DWORD PTR __imp__GetPrivateProfileIntA@16
	mov	WORD PTR ?FLIGHT_COMBAT_RATE@@3FA, ax	; FLIGHT_COMBAT_RATE

; 198  : 	PACKAGE_CYCLES_TO_WAIT = (short)GetPrivateProfileInt("ATM","PackageCyclesToWait", 0, fileName);

	lea	edx, DWORD PTR _fileName$[ebp]
	push	edx
	push	0
	push	OFFSET ??_C@_0BE@LAJGCLDM@PackageCyclesToWait?$AA@
	push	OFFSET ??_C@_03NDHBKIJP@ATM?$AA@
	call	DWORD PTR __imp__GetPrivateProfileIntA@16
	mov	WORD PTR ?PACKAGE_CYCLES_TO_WAIT@@3FA, ax ; PACKAGE_CYCLES_TO_WAIT

; 199  : 	AIR_PATH_MAX = (short)GetPrivateProfileInt("ATM","AirPathMax", 0, fileName);

	lea	eax, DWORD PTR _fileName$[ebp]
	push	eax
	push	0
	push	OFFSET ??_C@_0L@PGICFJBA@AirPathMax?$AA@
	push	OFFSET ??_C@_03NDHBKIJP@ATM?$AA@
	call	DWORD PTR __imp__GetPrivateProfileIntA@16
	mov	WORD PTR ?AIR_PATH_MAX@@3FA, ax		; AIR_PATH_MAX

; 200  : 	MIN_IGNORE_RANGE = (float)GetPrivateProfileInt("ATM","MinimumIgnoreRange", 0, fileName);

	lea	ecx, DWORD PTR _fileName$[ebp]
	push	ecx
	push	0
	push	OFFSET ??_C@_0BD@MLBBFCKJ@MinimumIgnoreRange?$AA@
	push	OFFSET ??_C@_03NDHBKIJP@ATM?$AA@
	call	DWORD PTR __imp__GetPrivateProfileIntA@16
	mov	DWORD PTR tv1245[ebp], eax
	cvtsi2sd xmm0, DWORD PTR tv1245[ebp]
	mov	edx, DWORD PTR tv1245[ebp]
	shr	edx, 31					; 0000001fH
	addsd	xmm0, QWORD PTR __xmm@41f00000000000000000000000000000[edx*8]
	movsd	QWORD PTR tv1248[ebp], xmm0
	cvtsd2ss xmm0, QWORD PTR tv1248[ebp]
	movss	DWORD PTR ?MIN_IGNORE_RANGE@@3MA, xmm0

; 201  : 	MAX_SAR_DIST = (short)GetPrivateProfileInt("ATM","MaxSARDistance", 0, fileName);

	lea	eax, DWORD PTR _fileName$[ebp]
	push	eax
	push	0
	push	OFFSET ??_C@_0P@CCGHHENF@MaxSARDistance?$AA@
	push	OFFSET ??_C@_03NDHBKIJP@ATM?$AA@
	call	DWORD PTR __imp__GetPrivateProfileIntA@16
	mov	WORD PTR ?MAX_SAR_DIST@@3FA, ax		; MAX_SAR_DIST

; 202  : 	MAX_BAI_DIST = (short)GetPrivateProfileInt("ATM","MaxBAIDistance", 0, fileName);

	lea	ecx, DWORD PTR _fileName$[ebp]
	push	ecx
	push	0
	push	OFFSET ??_C@_0P@GKJEKPFJ@MaxBAIDistance?$AA@
	push	OFFSET ??_C@_03NDHBKIJP@ATM?$AA@
	call	DWORD PTR __imp__GetPrivateProfileIntA@16
	mov	WORD PTR ?MAX_BAI_DIST@@3FA, ax		; MAX_BAI_DIST

; 203  : 	PILOT_ASSIGN_TIME = (long)GetPrivateProfileInt("ATM","PilotAssignTime", 0, fileName);

	lea	edx, DWORD PTR _fileName$[ebp]
	push	edx
	push	0
	push	OFFSET ??_C@_0BA@OEFDDDMA@PilotAssignTime?$AA@
	push	OFFSET ??_C@_03NDHBKIJP@ATM?$AA@
	call	DWORD PTR __imp__GetPrivateProfileIntA@16
	mov	DWORD PTR ?PILOT_ASSIGN_TIME@@3JA, eax	; PILOT_ASSIGN_TIME

; 204  : 	AIRCRAFT_TURNAROUND_TIME_MINUTES = (short)GetPrivateProfileInt("ATM","AircraftTurnaroundMinutes", 0, fileName);

	lea	eax, DWORD PTR _fileName$[ebp]
	push	eax
	push	0
	push	OFFSET ??_C@_0BK@NEJFECBH@AircraftTurnaroundMinutes?$AA@
	push	OFFSET ??_C@_03NDHBKIJP@ATM?$AA@
	call	DWORD PTR __imp__GetPrivateProfileIntA@16
	mov	WORD PTR ?AIRCRAFT_TURNAROUND_TIME_MINUTES@@3FA, ax ; AIRCRAFT_TURNAROUND_TIME_MINUTES

; 205  : 
; 206  : 	/* GTM Inputs */
; 207  : 	PRIMARY_OBJ_PRIORITY = (short)GetPrivateProfileInt("GTM","PrimaryObjPriority", 0, fileName);

	lea	ecx, DWORD PTR _fileName$[ebp]
	push	ecx
	push	0
	push	OFFSET ??_C@_0BD@MHOEGEAN@PrimaryObjPriority?$AA@
	push	OFFSET ??_C@_03PGBKPHED@GTM?$AA@
	call	DWORD PTR __imp__GetPrivateProfileIntA@16
	mov	WORD PTR ?PRIMARY_OBJ_PRIORITY@@3FA, ax	; PRIMARY_OBJ_PRIORITY

; 208  : 	SECONDARY_OBJ_PRIORITY = (short)GetPrivateProfileInt("GTM","SecondaryObjPriority", 0, fileName);

	lea	edx, DWORD PTR _fileName$[ebp]
	push	edx
	push	0
	push	OFFSET ??_C@_0BF@CKAMLPME@SecondaryObjPriority?$AA@
	push	OFFSET ??_C@_03PGBKPHED@GTM?$AA@
	call	DWORD PTR __imp__GetPrivateProfileIntA@16
	mov	WORD PTR ?SECONDARY_OBJ_PRIORITY@@3FA, ax ; SECONDARY_OBJ_PRIORITY

; 209  : 	MAX_OFFENSES = (short)GetPrivateProfileInt("GTM","MaximumOffenses", 0, fileName);

	lea	eax, DWORD PTR _fileName$[ebp]
	push	eax
	push	0
	push	OFFSET ??_C@_0BA@DAACJICM@MaximumOffenses?$AA@
	push	OFFSET ??_C@_03PGBKPHED@GTM?$AA@
	call	DWORD PTR __imp__GetPrivateProfileIntA@16
	mov	WORD PTR ?MAX_OFFENSES@@3FA, ax		; MAX_OFFENSES

; 210  : 	MIN_OFFENSIVE_UNITS = (short)GetPrivateProfileInt("GTM","MinimumOffensiveUnits", 0, fileName);

	lea	ecx, DWORD PTR _fileName$[ebp]
	push	ecx
	push	0
	push	OFFSET ??_C@_0BG@ECLCCHGL@MinimumOffensiveUnits?$AA@
	push	OFFSET ??_C@_03PGBKPHED@GTM?$AA@
	call	DWORD PTR __imp__GetPrivateProfileIntA@16
	mov	WORD PTR ?MIN_OFFENSIVE_UNITS@@3FA, ax	; MIN_OFFENSIVE_UNITS

; 211  : 	MINIMUM_ADJUSTED_LEVEL = (short)GetPrivateProfileInt("GTM","MinimumAdjustedLevel", 0, fileName);

	lea	edx, DWORD PTR _fileName$[ebp]
	push	edx
	push	0
	push	OFFSET ??_C@_0BF@EHHJEDCC@MinimumAdjustedLevel?$AA@
	push	OFFSET ??_C@_03PGBKPHED@GTM?$AA@
	call	DWORD PTR __imp__GetPrivateProfileIntA@16
	mov	WORD PTR ?MINIMUM_ADJUSTED_LEVEL@@3FA, ax ; MINIMUM_ADJUSTED_LEVEL

; 212  : 	MINIMUM_VIABLE_LEVEL = (short)GetPrivateProfileInt("GTM","MinimumViableLevel", 0, fileName);

	lea	eax, DWORD PTR _fileName$[ebp]
	push	eax
	push	0
	push	OFFSET ??_C@_0BD@FCJEBJN@MinimumViableLevel?$AA@
	push	OFFSET ??_C@_03PGBKPHED@GTM?$AA@
	call	DWORD PTR __imp__GetPrivateProfileIntA@16
	mov	WORD PTR ?MINIMUM_VIABLE_LEVEL@@3FA, ax	; MINIMUM_VIABLE_LEVEL

; 213  : 	MAX_ASSIGNMENT_DIST = (short)GetPrivateProfileInt("GTM","MaximumAssignmentDist", 0, fileName);

	lea	ecx, DWORD PTR _fileName$[ebp]
	push	ecx
	push	0
	push	OFFSET ??_C@_0BG@KJKIGMEG@MaximumAssignmentDist?$AA@
	push	OFFSET ??_C@_03PGBKPHED@GTM?$AA@
	call	DWORD PTR __imp__GetPrivateProfileIntA@16
	mov	WORD PTR ?MAX_ASSIGNMENT_DIST@@3FA, ax	; MAX_ASSIGNMENT_DIST

; 214  : 	MAXLINKS_FROM_SO_OFFENSIVE = (short)GetPrivateProfileInt("GTM","MaximumOffensiveLinks", 0, fileName);

	lea	edx, DWORD PTR _fileName$[ebp]
	push	edx
	push	0
	push	OFFSET ??_C@_0BG@BPPBELFK@MaximumOffensiveLinks?$AA@
	push	OFFSET ??_C@_03PGBKPHED@GTM?$AA@
	call	DWORD PTR __imp__GetPrivateProfileIntA@16
	mov	WORD PTR ?MAXLINKS_FROM_SO_OFFENSIVE@@3FA, ax ; MAXLINKS_FROM_SO_OFFENSIVE

; 215  : 	MAXLINKS_FROM_SO_DEFENSIVE = (short)GetPrivateProfileInt("GTM","MaximumDefensiveLinks", 0, fileName);

	lea	eax, DWORD PTR _fileName$[ebp]
	push	eax
	push	0
	push	OFFSET ??_C@_0BG@LNGEMIHP@MaximumDefensiveLinks?$AA@
	push	OFFSET ??_C@_03PGBKPHED@GTM?$AA@
	call	DWORD PTR __imp__GetPrivateProfileIntA@16
	mov	WORD PTR ?MAXLINKS_FROM_SO_DEFENSIVE@@3FA, ax ; MAXLINKS_FROM_SO_DEFENSIVE

; 216  : 	BRIGADE_BREAK_BASE = (short)GetPrivateProfileInt("GTM","BrigadeBreakBase", 0, fileName);

	lea	ecx, DWORD PTR _fileName$[ebp]
	push	ecx
	push	0
	push	OFFSET ??_C@_0BB@JPDFIMMF@BrigadeBreakBase?$AA@
	push	OFFSET ??_C@_03PGBKPHED@GTM?$AA@
	call	DWORD PTR __imp__GetPrivateProfileIntA@16
	mov	WORD PTR ?BRIGADE_BREAK_BASE@@3FA, ax	; BRIGADE_BREAK_BASE

; 217  : 	ROLE_SCORE_MODIFIER = (short)GetPrivateProfileInt("GTM","RoleScoreModifier", 0, fileName);

	lea	edx, DWORD PTR _fileName$[ebp]
	push	edx
	push	0
	push	OFFSET ??_C@_0BC@FOLHBOE@RoleScoreModifier?$AA@
	push	OFFSET ??_C@_03PGBKPHED@GTM?$AA@
	call	DWORD PTR __imp__GetPrivateProfileIntA@16
	mov	WORD PTR ?ROLE_SCORE_MODIFIER@@3FA, ax	; ROLE_SCORE_MODIFIER

; 218  : 	MIN_TASK_GROUND = (short)GetPrivateProfileInt("GTM","TaskGroundTime", 0, fileName);

	lea	eax, DWORD PTR _fileName$[ebp]
	push	eax
	push	0
	push	OFFSET ??_C@_0P@JCJECPPF@TaskGroundTime?$AA@
	push	OFFSET ??_C@_03PGBKPHED@GTM?$AA@
	call	DWORD PTR __imp__GetPrivateProfileIntA@16
	mov	WORD PTR ?MIN_TASK_GROUND@@3FA, ax	; MIN_TASK_GROUND

; 219  : 	MIN_PLAN_GROUND = (short)GetPrivateProfileInt("GTM","PlanGroundTime", 0, fileName);

	lea	ecx, DWORD PTR _fileName$[ebp]
	push	ecx
	push	0
	push	OFFSET ??_C@_0P@ODOKFOEM@PlanGroundTime?$AA@
	push	OFFSET ??_C@_03PGBKPHED@GTM?$AA@
	call	DWORD PTR __imp__GetPrivateProfileIntA@16
	mov	WORD PTR ?MIN_PLAN_GROUND@@3FA, ax	; MIN_PLAN_GROUND

; 220  : 	MIN_REPAIR_OBJECTIVES = (short)GetPrivateProfileInt("GTM","ObjectiveRepairInterval", 0, fileName);

	lea	edx, DWORD PTR _fileName$[ebp]
	push	edx
	push	0
	push	OFFSET ??_C@_0BI@ICMPOKHF@ObjectiveRepairInterval?$AA@
	push	OFFSET ??_C@_03PGBKPHED@GTM?$AA@
	call	DWORD PTR __imp__GetPrivateProfileIntA@16
	mov	WORD PTR ?MIN_REPAIR_OBJECTIVES@@3FA, ax ; MIN_REPAIR_OBJECTIVES

; 221  : 	MIN_RESUPPLY = (short)GetPrivateProfileInt("GTM","ResupplyInterval", 0, fileName);

	lea	eax, DWORD PTR _fileName$[ebp]
	push	eax
	push	0
	push	OFFSET ??_C@_0BB@OGLHKMOK@ResupplyInterval?$AA@
	push	OFFSET ??_C@_03PGBKPHED@GTM?$AA@
	call	DWORD PTR __imp__GetPrivateProfileIntA@16
	mov	WORD PTR ?MIN_RESUPPLY@@3FA, ax		; MIN_RESUPPLY

; 222  : 	MORALE_REGAIN_RATE = (short)GetPrivateProfileInt("GTM","MoraleRegainRate", 0, fileName);

	lea	ecx, DWORD PTR _fileName$[ebp]
	push	ecx
	push	0
	push	OFFSET ??_C@_0BB@MAEHIMOA@MoraleRegainRate?$AA@
	push	OFFSET ??_C@_03PGBKPHED@GTM?$AA@
	call	DWORD PTR __imp__GetPrivateProfileIntA@16
	mov	WORD PTR ?MORALE_REGAIN_RATE@@3FA, ax	; MORALE_REGAIN_RATE

; 223  : 	REGAIN_RATE_MULTIPLIER_FOR_TE = (short)GetPrivateProfileInt("GTM","TERegainRateMultiplier", 0, fileName);

	lea	edx, DWORD PTR _fileName$[ebp]
	push	edx
	push	0
	push	OFFSET ??_C@_0BH@ELPNHNJN@TERegainRateMultiplier?$AA@
	push	OFFSET ??_C@_03PGBKPHED@GTM?$AA@
	call	DWORD PTR __imp__GetPrivateProfileIntA@16
	mov	WORD PTR ?REGAIN_RATE_MULTIPLIER_FOR_TE@@3FA, ax ; REGAIN_RATE_MULTIPLIER_FOR_TE

; 224  : 	FOOT_MOVE_CHECK_INTERVAL = (short)GetPrivateProfileInt("GTM","FootMoveCheckInterval", 0, fileName);

	lea	eax, DWORD PTR _fileName$[ebp]
	push	eax
	push	0
	push	OFFSET ??_C@_0BG@IANKGNJK@FootMoveCheckInterval?$AA@
	push	OFFSET ??_C@_03PGBKPHED@GTM?$AA@
	call	DWORD PTR __imp__GetPrivateProfileIntA@16
	mov	WORD PTR ?FOOT_MOVE_CHECK_INTERVAL@@3FA, ax ; FOOT_MOVE_CHECK_INTERVAL

; 225  : 	TRACKED_MOVE_CHECK_INTERVAL = (short)GetPrivateProfileInt("GTM","TrackedMoveCheckInterval", 0, fileName);

	lea	ecx, DWORD PTR _fileName$[ebp]
	push	ecx
	push	0
	push	OFFSET ??_C@_0BJ@KOAFJGJE@TrackedMoveCheckInterval?$AA@
	push	OFFSET ??_C@_03PGBKPHED@GTM?$AA@
	call	DWORD PTR __imp__GetPrivateProfileIntA@16
	mov	WORD PTR ?TRACKED_MOVE_CHECK_INTERVAL@@3FA, ax ; TRACKED_MOVE_CHECK_INTERVAL

; 226  : 	GROUND_COMBAT_CHECK_INTERVAL = (short)GetPrivateProfileInt("GTM","GroundCombatCheckInterval", 0, fileName);

	lea	edx, DWORD PTR _fileName$[ebp]
	push	edx
	push	0
	push	OFFSET ??_C@_0BK@EIOJBGAA@GroundCombatCheckInterval?$AA@
	push	OFFSET ??_C@_03PGBKPHED@GTM?$AA@
	call	DWORD PTR __imp__GetPrivateProfileIntA@16
	mov	WORD PTR ?GROUND_COMBAT_CHECK_INTERVAL@@3FA, ax ; GROUND_COMBAT_CHECK_INTERVAL

; 227  : 	GROUND_UPDATE_CHECK_INTERVAL = (short)GetPrivateProfileInt("GTM","GroundUpdateCheckInterval", 0, fileName);

	lea	eax, DWORD PTR _fileName$[ebp]
	push	eax
	push	0
	push	OFFSET ??_C@_0BK@LGKPGJHC@GroundUpdateCheckInterval?$AA@
	push	OFFSET ??_C@_03PGBKPHED@GTM?$AA@
	call	DWORD PTR __imp__GetPrivateProfileIntA@16
	mov	WORD PTR ?GROUND_UPDATE_CHECK_INTERVAL@@3FA, ax ; GROUND_UPDATE_CHECK_INTERVAL

; 228  : 	GROUND_COMBAT_RATE = (short)GetPrivateProfileInt("GTM","GroundCombatRate", 0, fileName);

	lea	ecx, DWORD PTR _fileName$[ebp]
	push	ecx
	push	0
	push	OFFSET ??_C@_0BB@NDNEOBEL@GroundCombatRate?$AA@
	push	OFFSET ??_C@_03PGBKPHED@GTM?$AA@
	call	DWORD PTR __imp__GetPrivateProfileIntA@16
	mov	WORD PTR ?GROUND_COMBAT_RATE@@3FA, ax	; GROUND_COMBAT_RATE

; 229  : 	GROUND_PATH_MAX = (short)GetPrivateProfileInt("GTM","GroundPathMax", 0, fileName);

	lea	edx, DWORD PTR _fileName$[ebp]
	push	edx
	push	0
	push	OFFSET ??_C@_0O@ENBBOOKA@GroundPathMax?$AA@
	push	OFFSET ??_C@_03PGBKPHED@GTM?$AA@
	call	DWORD PTR __imp__GetPrivateProfileIntA@16
	mov	WORD PTR ?GROUND_PATH_MAX@@3FA, ax	; GROUND_PATH_MAX

; 230  : 	OBJ_GROUND_PATH_MAX_SEARCH = (short)GetPrivateProfileInt("GTM","ObjGroundPathMaxSearch", 0, fileName);

	lea	eax, DWORD PTR _fileName$[ebp]
	push	eax
	push	0
	push	OFFSET ??_C@_0BH@BGOLOMBB@ObjGroundPathMaxSearch?$AA@
	push	OFFSET ??_C@_03PGBKPHED@GTM?$AA@
	call	DWORD PTR __imp__GetPrivateProfileIntA@16
	mov	WORD PTR ?OBJ_GROUND_PATH_MAX_SEARCH@@3FA, ax ; OBJ_GROUND_PATH_MAX_SEARCH

; 231  : 	OBJ_GROUND_PATH_MAX_COST = (short)GetPrivateProfileInt("GTM","ObjGroundPathMaxCost", 0, fileName);

	lea	ecx, DWORD PTR _fileName$[ebp]
	push	ecx
	push	0
	push	OFFSET ??_C@_0BF@LJOJJKGF@ObjGroundPathMaxCost?$AA@
	push	OFFSET ??_C@_03PGBKPHED@GTM?$AA@
	call	DWORD PTR __imp__GetPrivateProfileIntA@16
	mov	WORD PTR ?OBJ_GROUND_PATH_MAX_COST@@3FA, ax ; OBJ_GROUND_PATH_MAX_COST

; 232  : 	MIN_FULL_OFFENSIVE_INITIATIVE = (short)GetPrivateProfileInt("GTM","MinFullOffensiveInitiative", 0, fileName);

	lea	edx, DWORD PTR _fileName$[ebp]
	push	edx
	push	0
	push	OFFSET ??_C@_0BL@PFLMFBBB@MinFullOffensiveInitiative?$AA@
	push	OFFSET ??_C@_03PGBKPHED@GTM?$AA@
	call	DWORD PTR __imp__GetPrivateProfileIntA@16
	mov	WORD PTR ?MIN_FULL_OFFENSIVE_INITIATIVE@@3FA, ax ; MIN_FULL_OFFENSIVE_INITIATIVE

; 233  : 	MIN_COUNTER_ATTACK_INITIATIVE = (short)GetPrivateProfileInt("GTM","MinCounterAttackInitiative", 0, fileName);

	lea	eax, DWORD PTR _fileName$[ebp]
	push	eax
	push	0
	push	OFFSET ??_C@_0BL@PLPBJOIL@MinCounterAttackInitiative?$AA@
	push	OFFSET ??_C@_03PGBKPHED@GTM?$AA@
	call	DWORD PTR __imp__GetPrivateProfileIntA@16
	mov	WORD PTR ?MIN_COUNTER_ATTACK_INITIATIVE@@3FA, ax ; MIN_COUNTER_ATTACK_INITIATIVE

; 234  : 	MIN_SECURE_INITIATIVE = (short)GetPrivateProfileInt("GTM","MinSecureInitiative", 0, fileName);

	lea	ecx, DWORD PTR _fileName$[ebp]
	push	ecx
	push	0
	push	OFFSET ??_C@_0BE@FABENDHL@MinSecureInitiative?$AA@
	push	OFFSET ??_C@_03PGBKPHED@GTM?$AA@
	call	DWORD PTR __imp__GetPrivateProfileIntA@16
	mov	WORD PTR ?MIN_SECURE_INITIATIVE@@3FA, ax ; MIN_SECURE_INITIATIVE

; 235  : 	MINIMUM_EXP_TO_FIRE_PREGUIDE = (short)GetPrivateProfileInt("GTM","MinExpToFirePreGuide", 0, fileName);

	lea	edx, DWORD PTR _fileName$[ebp]
	push	edx
	push	0
	push	OFFSET ??_C@_0BF@FJDEGIKE@MinExpToFirePreGuide?$AA@
	push	OFFSET ??_C@_03PGBKPHED@GTM?$AA@
	call	DWORD PTR __imp__GetPrivateProfileIntA@16
	mov	WORD PTR ?MINIMUM_EXP_TO_FIRE_PREGUIDE@@3FA, ax ; MINIMUM_EXP_TO_FIRE_PREGUIDE

; 236  : 	OFFENSIVE_REINFORCEMENT_TIME = (long)GetPrivateProfileInt("GTM","OffensiveReinforcementTime", 0, fileName) * CampaignMinutes;

	lea	eax, DWORD PTR _fileName$[ebp]
	push	eax
	push	0
	push	OFFSET ??_C@_0BL@BHEDPEGN@OffensiveReinforcementTime?$AA@
	push	OFFSET ??_C@_03PGBKPHED@GTM?$AA@
	call	DWORD PTR __imp__GetPrivateProfileIntA@16
	imul	eax, 60000				; 0000ea60H
	mov	DWORD PTR ?OFFENSIVE_REINFORCEMENT_TIME@@3JA, eax ; OFFENSIVE_REINFORCEMENT_TIME

; 237  : 	DEFENSIVE_REINFORCEMENT_TIME = (long)GetPrivateProfileInt("GTM","DefensiveReinforcementTime", 0, fileName) * CampaignMinutes;

	lea	ecx, DWORD PTR _fileName$[ebp]
	push	ecx
	push	0
	push	OFFSET ??_C@_0BL@JEACOCNM@DefensiveReinforcementTime?$AA@
	push	OFFSET ??_C@_03PGBKPHED@GTM?$AA@
	call	DWORD PTR __imp__GetPrivateProfileIntA@16
	imul	eax, 60000				; 0000ea60H
	mov	DWORD PTR ?DEFENSIVE_REINFORCEMENT_TIME@@3JA, eax ; DEFENSIVE_REINFORCEMENT_TIME

; 238  : 	CONSOLIDATE_REINFORCEMENT_TIME = (long)GetPrivateProfileInt("GTM","ConsolidateReinforcementTime", 0, fileName) * CampaignMinutes;

	lea	edx, DWORD PTR _fileName$[ebp]
	push	edx
	push	0
	push	OFFSET ??_C@_0BN@LNAPCGLH@ConsolidateReinforcementTime?$AA@
	push	OFFSET ??_C@_03PGBKPHED@GTM?$AA@
	call	DWORD PTR __imp__GetPrivateProfileIntA@16
	imul	eax, 60000				; 0000ea60H
	mov	DWORD PTR ?CONSOLIDATE_REINFORCEMENT_TIME@@3JA, eax ; CONSOLIDATE_REINFORCEMENT_TIME

; 239  : 	ACTION_PREP_TIME = (long)GetPrivateProfileInt("GTM","ActionPrepTime", 0, fileName) * CampaignMinutes;

	lea	eax, DWORD PTR _fileName$[ebp]
	push	eax
	push	0
	push	OFFSET ??_C@_0P@PFJHEPMC@ActionPrepTime?$AA@
	push	OFFSET ??_C@_03PGBKPHED@GTM?$AA@
	call	DWORD PTR __imp__GetPrivateProfileIntA@16
	imul	eax, 60000				; 0000ea60H
	mov	DWORD PTR ?ACTION_PREP_TIME@@3JA, eax	; ACTION_PREP_TIME

; 240  : 
; 241  : 	/* NTM Inputs */
; 242  : 	MIN_TASK_NAVAL = (short)GetPrivateProfileInt("NTM","TaskNavalTime", 0, fileName);	

	lea	ecx, DWORD PTR _fileName$[ebp]
	push	ecx
	push	0
	push	OFFSET ??_C@_0O@MDDMCHJN@TaskNavalTime?$AA@
	push	OFFSET ??_C@_03ILBCLIMJ@NTM?$AA@
	call	DWORD PTR __imp__GetPrivateProfileIntA@16
	mov	WORD PTR ?MIN_TASK_NAVAL@@3FA, ax	; MIN_TASK_NAVAL

; 243  : 	MIN_PLAN_NAVAL = (short)GetPrivateProfileInt("NTM","PlanNavalTime", 0, fileName);

	lea	edx, DWORD PTR _fileName$[ebp]
	push	edx
	push	0
	push	OFFSET ??_C@_0O@MMIBHNJ@PlanNavalTime?$AA@
	push	OFFSET ??_C@_03ILBCLIMJ@NTM?$AA@
	call	DWORD PTR __imp__GetPrivateProfileIntA@16
	mov	WORD PTR ?MIN_PLAN_NAVAL@@3FA, ax	; MIN_PLAN_NAVAL

; 244  : 	NAVAL_COMBAT_CHECK_INTERVAL = (short)GetPrivateProfileInt("NTM","NavalCombatCheckInterval", 0, fileName);

	lea	eax, DWORD PTR _fileName$[ebp]
	push	eax
	push	0
	push	OFFSET ??_C@_0BJ@MAOBEMKD@NavalCombatCheckInterval?$AA@
	push	OFFSET ??_C@_03ILBCLIMJ@NTM?$AA@
	call	DWORD PTR __imp__GetPrivateProfileIntA@16
	mov	WORD PTR ?NAVAL_COMBAT_CHECK_INTERVAL@@3FA, ax ; NAVAL_COMBAT_CHECK_INTERVAL

; 245  : 	NAVAL_MOVE_CHECK_INTERVAL = (short)GetPrivateProfileInt("NTM","NavalMoveCheckInterval", 0, fileName);

	lea	ecx, DWORD PTR _fileName$[ebp]
	push	ecx
	push	0
	push	OFFSET ??_C@_0BH@KNHLIJDN@NavalMoveCheckInterval?$AA@
	push	OFFSET ??_C@_03ILBCLIMJ@NTM?$AA@
	call	DWORD PTR __imp__GetPrivateProfileIntA@16
	mov	WORD PTR ?NAVAL_MOVE_CHECK_INTERVAL@@3FA, ax ; NAVAL_MOVE_CHECK_INTERVAL

; 246  : 	NAVAL_COMBAT_RATE = (short)GetPrivateProfileInt("NTM","NavalCombatRate", 0, fileName);

	lea	edx, DWORD PTR _fileName$[ebp]
	push	edx
	push	0
	push	OFFSET ??_C@_0BA@GNAAEKFC@NavalCombatRate?$AA@
	push	OFFSET ??_C@_03ILBCLIMJ@NTM?$AA@
	call	DWORD PTR __imp__GetPrivateProfileIntA@16
	mov	WORD PTR ?NAVAL_COMBAT_RATE@@3FA, ax	; NAVAL_COMBAT_RATE

; 247  : 
; 248  : 	/* Other */
; 249  : 	LOW_ALTITUDE_CUTOFF = (short)GetPrivateProfileInt("Other","LowAltitudeCutoff", 0, fileName);

	lea	eax, DWORD PTR _fileName$[ebp]
	push	eax
	push	0
	push	OFFSET ??_C@_0BC@EKAPNANA@LowAltitudeCutoff?$AA@
	push	OFFSET ??_C@_05BBOGGNLJ@Other?$AA@
	call	DWORD PTR __imp__GetPrivateProfileIntA@16
	mov	WORD PTR ?LOW_ALTITUDE_CUTOFF@@3FA, ax	; LOW_ALTITUDE_CUTOFF

; 250  : 	MAX_GROUND_SEARCH = (short)GetPrivateProfileInt("Other","GroundSearchDistance", 0, fileName);

	lea	ecx, DWORD PTR _fileName$[ebp]
	push	ecx
	push	0
	push	OFFSET ??_C@_0BF@FHBANEAC@GroundSearchDistance?$AA@
	push	OFFSET ??_C@_05BBOGGNLJ@Other?$AA@
	call	DWORD PTR __imp__GetPrivateProfileIntA@16
	mov	WORD PTR ?MAX_GROUND_SEARCH@@3FA, ax	; MAX_GROUND_SEARCH

; 251  : 	MAX_AIR_SEARCH = (short)GetPrivateProfileInt("Other","AirSearchDistance", 0, fileName);

	lea	edx, DWORD PTR _fileName$[ebp]
	push	edx
	push	0
	push	OFFSET ??_C@_0BC@CMHPCMDE@AirSearchDistance?$AA@
	push	OFFSET ??_C@_05BBOGGNLJ@Other?$AA@
	call	DWORD PTR __imp__GetPrivateProfileIntA@16
	mov	WORD PTR ?MAX_AIR_SEARCH@@3FA, ax	; MAX_AIR_SEARCH

; 252  : 	NEW_CLOUD_CHANCE = (short)GetPrivateProfileInt("Other","NewCloudPercentage", 0, fileName);

	lea	eax, DWORD PTR _fileName$[ebp]
	push	eax
	push	0
	push	OFFSET ??_C@_0BD@BDMFBNMM@NewCloudPercentage?$AA@
	push	OFFSET ??_C@_05BBOGGNLJ@Other?$AA@
	call	DWORD PTR __imp__GetPrivateProfileIntA@16
	mov	WORD PTR ?NEW_CLOUD_CHANCE@@3FA, ax	; NEW_CLOUD_CHANCE

; 253  : 	DEL_CLOUD_CHANCE = (short)GetPrivateProfileInt("Other","DeleteCloudPercentage", 0, fileName);

	lea	ecx, DWORD PTR _fileName$[ebp]
	push	ecx
	push	0
	push	OFFSET ??_C@_0BG@GLNMPJAF@DeleteCloudPercentage?$AA@
	push	OFFSET ??_C@_05BBOGGNLJ@Other?$AA@
	call	DWORD PTR __imp__GetPrivateProfileIntA@16
	mov	WORD PTR ?DEL_CLOUD_CHANCE@@3FA, ax	; DEL_CLOUD_CHANCE

; 254  : 	PLAYER_BUBBLE_MOVERS = (short)GetPrivateProfileInt("Other","PlayerBubbleObjects", 0, fileName);

	lea	edx, DWORD PTR _fileName$[ebp]
	push	edx
	push	0
	push	OFFSET ??_C@_0BE@DCKKAAMB@PlayerBubbleObjects?$AA@
	push	OFFSET ??_C@_05BBOGGNLJ@Other?$AA@
	call	DWORD PTR __imp__GetPrivateProfileIntA@16
	mov	WORD PTR ?PLAYER_BUBBLE_MOVERS@@3FA, ax	; PLAYER_BUBBLE_MOVERS

; 255  : 	FALCON_PLAYER_TEAM = (short)GetPrivateProfileInt("Other","PlayerTeam", 0, fileName);

	lea	eax, DWORD PTR _fileName$[ebp]
	push	eax
	push	0
	push	OFFSET ??_C@_0L@BIFDHNNK@PlayerTeam?$AA@
	push	OFFSET ??_C@_05BBOGGNLJ@Other?$AA@
	call	DWORD PTR __imp__GetPrivateProfileIntA@16
	mov	WORD PTR ?FALCON_PLAYER_TEAM@@3FA, ax	; FALCON_PLAYER_TEAM

; 256  : 	CAMP_RESYNC_TIME = (short)GetPrivateProfileInt("Other","CampaignResyncTime", 0, fileName);

	lea	ecx, DWORD PTR _fileName$[ebp]
	push	ecx
	push	0
	push	OFFSET ??_C@_0BD@PNFMGKPC@CampaignResyncTime?$AA@
	push	OFFSET ??_C@_05BBOGGNLJ@Other?$AA@
	call	DWORD PTR __imp__GetPrivateProfileIntA@16
	mov	WORD PTR ?CAMP_RESYNC_TIME@@3FA, ax	; CAMP_RESYNC_TIME

; 257  : 	BUBBLE_REBUILD_TIME = (unsigned short)GetPrivateProfileInt("Other","BubbleRebuildTime", 0, fileName);

	lea	edx, DWORD PTR _fileName$[ebp]
	push	edx
	push	0
	push	OFFSET ??_C@_0BC@LAAEIBB@BubbleRebuildTime?$AA@
	push	OFFSET ??_C@_05BBOGGNLJ@Other?$AA@
	call	DWORD PTR __imp__GetPrivateProfileIntA@16
	mov	WORD PTR ?BUBBLE_REBUILD_TIME@@3GA, ax	; BUBBLE_REBUILD_TIME

; 258  : 	STANDARD_EVENT_LENGTH = (short)GetPrivateProfileInt("Other","StandardEventqueueLength", 0, fileName);				// Length of stored event queues

	lea	eax, DWORD PTR _fileName$[ebp]
	push	eax
	push	0
	push	OFFSET ??_C@_0BJ@CJGOCFOF@StandardEventqueueLength?$AA@
	push	OFFSET ??_C@_05BBOGGNLJ@Other?$AA@
	call	DWORD PTR __imp__GetPrivateProfileIntA@16
	mov	WORD PTR ?STANDARD_EVENT_LENGTH@@3FA, ax ; STANDARD_EVENT_LENGTH

; 259  : 	PRIORITY_EVENT_LENGTH = (short)GetPrivateProfileInt("Other","PriorityEventqueueLength", 0, fileName);

	lea	ecx, DWORD PTR _fileName$[ebp]
	push	ecx
	push	0
	push	OFFSET ??_C@_0BJ@NLPJLPHI@PriorityEventqueueLength?$AA@
	push	OFFSET ??_C@_05BBOGGNLJ@Other?$AA@
	call	DWORD PTR __imp__GetPrivateProfileIntA@16
	mov	WORD PTR ?PRIORITY_EVENT_LENGTH@@3FA, ax ; PRIORITY_EVENT_LENGTH

; 260  : 	MIN_RECALCULATE_STATISTICS = (short)GetPrivateProfileInt("Other","StatisticsRecalculationInterval", 0, fileName);

	lea	edx, DWORD PTR _fileName$[ebp]
	push	edx
	push	0
	push	OFFSET ??_C@_0CA@LNBBJHCP@StatisticsRecalculationInterval?$AA@
	push	OFFSET ??_C@_05BBOGGNLJ@Other?$AA@
	call	DWORD PTR __imp__GetPrivateProfileIntA@16
	mov	WORD PTR ?MIN_RECALCULATE_STATISTICS@@3FA, ax ; MIN_RECALCULATE_STATISTICS

; 261  : 	temp = (short)GetPrivateProfileInt("Other","LowAirRangeModifier", 0, fileName);

	lea	eax, DWORD PTR _fileName$[ebp]
	push	eax
	push	0
	push	OFFSET ??_C@_0BE@GJKOJKAI@LowAirRangeModifier?$AA@
	push	OFFSET ??_C@_05BBOGGNLJ@Other?$AA@
	call	DWORD PTR __imp__GetPrivateProfileIntA@16
	mov	WORD PTR _temp$[ebp], ax

; 262  : 	LOWAIR_RANGE_MODIFIER = (float)(temp / 100.0F);

	movsx	ecx, WORD PTR _temp$[ebp]
	cvtsi2ss xmm0, ecx
	divss	xmm0, DWORD PTR __real@42c80000
	movss	DWORD PTR ?LOWAIR_RANGE_MODIFIER@@3MA, xmm0

; 263  : 	MINIMUM_STRENGTH = (short)GetPrivateProfileInt("Other","MinimumStrength", 0, fileName);

	lea	edx, DWORD PTR _fileName$[ebp]
	push	edx
	push	0
	push	OFFSET ??_C@_0BA@ONKJNOIK@MinimumStrength?$AA@
	push	OFFSET ??_C@_05BBOGGNLJ@Other?$AA@
	call	DWORD PTR __imp__GetPrivateProfileIntA@16
	mov	WORD PTR ?MINIMUM_STRENGTH@@3FA, ax	; MINIMUM_STRENGTH

; 264  : 	MAX_DAMAGE_TRIES = (short)GetPrivateProfileInt("Other","MaximumDamageTries", 0, fileName);

	lea	eax, DWORD PTR _fileName$[ebp]
	push	eax
	push	0
	push	OFFSET ??_C@_0BD@HOEDBBOM@MaximumDamageTries?$AA@
	push	OFFSET ??_C@_05BBOGGNLJ@Other?$AA@
	call	DWORD PTR __imp__GetPrivateProfileIntA@16
	mov	WORD PTR ?MAX_DAMAGE_TRIES@@3FA, ax	; MAX_DAMAGE_TRIES

; 265  : 	temp = (short)GetPrivateProfileInt("Other","ReaggregationRatio", 0, fileName);

	lea	ecx, DWORD PTR _fileName$[ebp]
	push	ecx
	push	0
	push	OFFSET ??_C@_0BD@EJLLOPNH@ReaggregationRatio?$AA@
	push	OFFSET ??_C@_05BBOGGNLJ@Other?$AA@
	call	DWORD PTR __imp__GetPrivateProfileIntA@16
	mov	WORD PTR _temp$[ebp], ax

; 266  : 	REAGREGATION_RATIO = (float)(temp / 100.0F);

	movsx	edx, WORD PTR _temp$[ebp]
	cvtsi2ss xmm0, edx
	divss	xmm0, DWORD PTR __real@42c80000
	movss	DWORD PTR ?REAGREGATION_RATIO@@3MA, xmm0

; 267  : 	MIN_REINFORCE_TIME = (short)GetPrivateProfileInt("Other","ReinforcementTime", 0, fileName);

	lea	eax, DWORD PTR _fileName$[ebp]
	push	eax
	push	0
	push	OFFSET ??_C@_0BC@DBCFPMG@ReinforcementTime?$AA@
	push	OFFSET ??_C@_05BBOGGNLJ@Other?$AA@
	call	DWORD PTR __imp__GetPrivateProfileIntA@16
	mov	WORD PTR ?MIN_REINFORCE_TIME@@3FA, ax	; MIN_REINFORCE_TIME

; 268  : 	SIM_BUBBLE_SIZE = (float)GetPrivateProfileInt("Other","SimBubbleSize", 0, fileName);

	lea	ecx, DWORD PTR _fileName$[ebp]
	push	ecx
	push	0
	push	OFFSET ??_C@_0O@FIPEPCLG@SimBubbleSize?$AA@
	push	OFFSET ??_C@_05BBOGGNLJ@Other?$AA@
	call	DWORD PTR __imp__GetPrivateProfileIntA@16
	mov	DWORD PTR tv1427[ebp], eax
	cvtsi2sd xmm0, DWORD PTR tv1427[ebp]
	mov	edx, DWORD PTR tv1427[ebp]
	shr	edx, 31					; 0000001fH
	addsd	xmm0, QWORD PTR __xmm@41f00000000000000000000000000000[edx*8]
	movsd	QWORD PTR tv1430[ebp], xmm0
	cvtsd2ss xmm0, QWORD PTR tv1430[ebp]
	movss	DWORD PTR ?SIM_BUBBLE_SIZE@@3MA, xmm0

; 269  : 	INITIATIVE_LEAK_PER_HOUR = (short)GetPrivateProfileInt("Other","InitiativeLeakPerHour", 0, fileName);

	lea	eax, DWORD PTR _fileName$[ebp]
	push	eax
	push	0
	push	OFFSET ??_C@_0BG@GKKEEDIA@InitiativeLeakPerHour?$AA@
	push	OFFSET ??_C@_05BBOGGNLJ@Other?$AA@
	call	DWORD PTR __imp__GetPrivateProfileIntA@16
	mov	WORD PTR ?INITIATIVE_LEAK_PER_HOUR@@3FA, ax ; INITIATIVE_LEAK_PER_HOUR

; 270  : 
; 271  : 	// RV - Biker - Read tractor vehicles from here
; 272  : 	F4_GENERIC_US_TRUCK_TYPE_SMALL   = (int)GetPrivateProfileInt("Campaign","US_TRUCK_TYPE_SMALL", 534, fileName); // HMMWV

	lea	ecx, DWORD PTR _fileName$[ebp]
	push	ecx
	push	534					; 00000216H
	push	OFFSET ??_C@_0BE@BEBBIJLD@US_TRUCK_TYPE_SMALL?$AA@
	push	OFFSET ??_C@_08FHHBCJKK@Campaign?$AA@
	call	DWORD PTR __imp__GetPrivateProfileIntA@16
	mov	DWORD PTR ?F4_GENERIC_US_TRUCK_TYPE_SMALL@@3HA, eax ; F4_GENERIC_US_TRUCK_TYPE_SMALL

; 273  : 	F4_GENERIC_US_TRUCK_TYPE_LARGE   = (int)GetPrivateProfileInt("Campaign","US_TRUCK_TYPE_LARGE", 548, fileName); // M997

	lea	edx, DWORD PTR _fileName$[ebp]
	push	edx
	push	548					; 00000224H
	push	OFFSET ??_C@_0BE@LMFKHICF@US_TRUCK_TYPE_LARGE?$AA@
	push	OFFSET ??_C@_08FHHBCJKK@Campaign?$AA@
	call	DWORD PTR __imp__GetPrivateProfileIntA@16
	mov	DWORD PTR ?F4_GENERIC_US_TRUCK_TYPE_LARGE@@3HA, eax ; F4_GENERIC_US_TRUCK_TYPE_LARGE

; 274  : 	F4_GENERIC_US_TRUCK_TYPE_TRAILER = (int)GetPrivateProfileInt("Campaign","US_TRUCK_TYPE_TRAILER", 548, fileName); //TBD

	lea	eax, DWORD PTR _fileName$[ebp]
	push	eax
	push	548					; 00000224H
	push	OFFSET ??_C@_0BG@PGODMIFN@US_TRUCK_TYPE_TRAILER?$AA@
	push	OFFSET ??_C@_08FHHBCJKK@Campaign?$AA@
	call	DWORD PTR __imp__GetPrivateProfileIntA@16
	mov	DWORD PTR ?F4_GENERIC_US_TRUCK_TYPE_TRAILER@@3HA, eax ; F4_GENERIC_US_TRUCK_TYPE_TRAILER

; 275  : 
; 276  : 	F4_GENERIC_OPFOR_TRUCK_TYPE_SMALL   = (int)GetPrivateProfileInt("Campaign","OPFOR_TRUCK_TYPE_SMALL", 707, fileName); //KrAz T 255B

	lea	ecx, DWORD PTR _fileName$[ebp]
	push	ecx
	push	707					; 000002c3H
	push	OFFSET ??_C@_0BH@BLPKFODA@OPFOR_TRUCK_TYPE_SMALL?$AA@
	push	OFFSET ??_C@_08FHHBCJKK@Campaign?$AA@
	call	DWORD PTR __imp__GetPrivateProfileIntA@16
	mov	DWORD PTR ?F4_GENERIC_OPFOR_TRUCK_TYPE_SMALL@@3HA, eax ; F4_GENERIC_OPFOR_TRUCK_TYPE_SMALL

; 277  : 	F4_GENERIC_OPFOR_TRUCK_TYPE_LARGE   = (int)GetPrivateProfileInt("Campaign","OPFOR_TRUCK_TYPE_LARGE", 707, fileName); //TBD

	lea	edx, DWORD PTR _fileName$[ebp]
	push	edx
	push	707					; 000002c3H
	push	OFFSET ??_C@_0BH@LDLBKPKG@OPFOR_TRUCK_TYPE_LARGE?$AA@
	push	OFFSET ??_C@_08FHHBCJKK@Campaign?$AA@
	call	DWORD PTR __imp__GetPrivateProfileIntA@16
	mov	DWORD PTR ?F4_GENERIC_OPFOR_TRUCK_TYPE_LARGE@@3HA, eax ; F4_GENERIC_OPFOR_TRUCK_TYPE_LARGE

; 278  : 	F4_GENERIC_OPFOR_TRUCK_TYPE_TRAILER = (int)GetPrivateProfileInt("Campaign","OPFOR_TRUCK_TYPE_TRAILER", 835, fileName); //ZIL-135

	lea	eax, DWORD PTR _fileName$[ebp]
	push	eax
	push	835					; 00000343H
	push	OFFSET ??_C@_0BJ@POPKELEJ@OPFOR_TRUCK_TYPE_TRAILER?$AA@
	push	OFFSET ??_C@_08FHHBCJKK@Campaign?$AA@
	call	DWORD PTR __imp__GetPrivateProfileIntA@16
	mov	DWORD PTR ?F4_GENERIC_OPFOR_TRUCK_TYPE_TRAILER@@3HA, eax ; F4_GENERIC_OPFOR_TRUCK_TYPE_TRAILER

; 279  : 	SWITCH_TRACTORS_IN_TE				= (int)GetPrivateProfileInt("Campaign","SWITCH_TRACTORS_IN_TE", 1, fileName); // Because in standard Korea we have switched teams in TE

	lea	ecx, DWORD PTR _fileName$[ebp]
	push	ecx
	push	1
	push	OFFSET ??_C@_0BG@KGBMCGJD@SWITCH_TRACTORS_IN_TE?$AA@
	push	OFFSET ??_C@_08FHHBCJKK@Campaign?$AA@
	call	DWORD PTR __imp__GetPrivateProfileIntA@16
	mov	DWORD PTR ?SWITCH_TRACTORS_IN_TE@@3HA, eax ; SWITCH_TRACTORS_IN_TE

; 280  : 
; 281  : 	/* Campaign - MPS defaults */
; 282  : 	StartOffBonusRepl	= (int)GetPrivateProfileInt("Campaign","StartOffBonusRepl", 1000, fileName);

	lea	edx, DWORD PTR _fileName$[ebp]
	push	edx
	push	1000					; 000003e8H
	push	OFFSET ??_C@_0BC@OCLDMOIP@StartOffBonusRepl?$AA@
	push	OFFSET ??_C@_08FHHBCJKK@Campaign?$AA@
	call	DWORD PTR __imp__GetPrivateProfileIntA@16
	mov	DWORD PTR ?StartOffBonusRepl@@3HA, eax	; StartOffBonusRepl

; 283  : 	StartOffBonusSup	= (int)GetPrivateProfileInt("Campaign","StartOffBonusSup", 5000, fileName);

	lea	eax, DWORD PTR _fileName$[ebp]
	push	eax
	push	5000					; 00001388H
	push	OFFSET ??_C@_0BB@OLCKHCKP@StartOffBonusSup?$AA@
	push	OFFSET ??_C@_08FHHBCJKK@Campaign?$AA@
	call	DWORD PTR __imp__GetPrivateProfileIntA@16
	mov	DWORD PTR ?StartOffBonusSup@@3HA, eax	; StartOffBonusSup

; 284  : 	StartOffBonusFuel	= (int)GetPrivateProfileInt("Campaign","StartOffBonusFuel", 5000, fileName);

	lea	ecx, DWORD PTR _fileName$[ebp]
	push	ecx
	push	5000					; 00001388H
	push	OFFSET ??_C@_0BC@DNCHMJMJ@StartOffBonusFuel?$AA@
	push	OFFSET ??_C@_08FHHBCJKK@Campaign?$AA@
	call	DWORD PTR __imp__GetPrivateProfileIntA@16
	mov	DWORD PTR ?StartOffBonusFuel@@3HA, eax	; StartOffBonusFuel

; 285  : 	ActionRate			= (int)GetPrivateProfileInt("Campaign","ActionRate", 8, fileName);

	lea	edx, DWORD PTR _fileName$[ebp]
	push	edx
	push	8
	push	OFFSET ??_C@_0L@BOLOBPID@ActionRate?$AA@
	push	OFFSET ??_C@_08FHHBCJKK@Campaign?$AA@
	call	DWORD PTR __imp__GetPrivateProfileIntA@16
	mov	DWORD PTR ?ActionRate@@3HA, eax		; ActionRate

; 286  : 	ActionTimeOut		= (int)GetPrivateProfileInt("Campaign","ActionTimeOut", 24, fileName);

	lea	eax, DWORD PTR _fileName$[ebp]
	push	eax
	push	24					; 00000018H
	push	OFFSET ??_C@_0O@JLHHPED@ActionTimeOut?$AA@
	push	OFFSET ??_C@_08FHHBCJKK@Campaign?$AA@
	call	DWORD PTR __imp__GetPrivateProfileIntA@16
	mov	DWORD PTR ?ActionTimeOut@@3HA, eax	; ActionTimeOut

; 287  : 
; 288  : 	GetPrivateProfileString("Campaign","DataRateModRepl", "1.0", tmpName, 40, fileName);

	lea	ecx, DWORD PTR _fileName$[ebp]
	push	ecx
	push	40					; 00000028H
	lea	edx, DWORD PTR _tmpName$[ebp]
	push	edx
	push	OFFSET ??_C@_03HLLJOCDO@1?40?$AA@
	push	OFFSET ??_C@_0BA@BFLFLCCG@DataRateModRepl?$AA@
	push	OFFSET ??_C@_08FHHBCJKK@Campaign?$AA@
	call	DWORD PTR __imp__GetPrivateProfileStringA@24

; 289  : 	DataRateModRepl		= (float)atof(tmpName);

	lea	eax, DWORD PTR _tmpName$[ebp]
	push	eax
	call	_atof
	add	esp, 4
	fstp	DWORD PTR ?DataRateModRepl@@3MA		; DataRateModRepl

; 290  : 
; 291  : 	GetPrivateProfileString("Campaign","DataRateModSup", "1.0", tmpName, 40, fileName);

	lea	ecx, DWORD PTR _fileName$[ebp]
	push	ecx
	push	40					; 00000028H
	lea	edx, DWORD PTR _tmpName$[ebp]
	push	edx
	push	OFFSET ??_C@_03HLLJOCDO@1?40?$AA@
	push	OFFSET ??_C@_0P@IPABIGDL@DataRateModSup?$AA@
	push	OFFSET ??_C@_08FHHBCJKK@Campaign?$AA@
	call	DWORD PTR __imp__GetPrivateProfileStringA@24

; 292  : 	DataRateModSup		= (float)atof(tmpName);

	lea	eax, DWORD PTR _tmpName$[ebp]
	push	eax
	call	_atof
	add	esp, 4
	fstp	DWORD PTR ?DataRateModSup@@3MA		; DataRateModSup

; 293  : 
; 294  : 	GetPrivateProfileString("Campaign","RelSquadBonus", "4.0", tmpName, 40, fileName);

	lea	ecx, DWORD PTR _fileName$[ebp]
	push	ecx
	push	40					; 00000028H
	lea	edx, DWORD PTR _tmpName$[ebp]
	push	edx
	push	OFFSET ??_C@_03EMGHBCAM@4?40?$AA@
	push	OFFSET ??_C@_0O@CDNNJBED@RelSquadBonus?$AA@
	push	OFFSET ??_C@_08FHHBCJKK@Campaign?$AA@
	call	DWORD PTR __imp__GetPrivateProfileStringA@24

; 295  : 	RelSquadBonus		= (float)atof(tmpName);

	lea	eax, DWORD PTR _tmpName$[ebp]
	push	eax
	call	_atof
	add	esp, 4
	fstp	DWORD PTR ?RelSquadBonus@@3MA		; RelSquadBonus

; 296  : 
; 297  : 	NoActionBonusProd	= (int)GetPrivateProfileInt("Campaign","NoActionBonusProd", 0, fileName);

	lea	ecx, DWORD PTR _fileName$[ebp]
	push	ecx
	push	0
	push	OFFSET ??_C@_0BC@CLJKPCDO@NoActionBonusProd?$AA@
	push	OFFSET ??_C@_08FHHBCJKK@Campaign?$AA@
	call	DWORD PTR __imp__GetPrivateProfileIntA@16
	mov	DWORD PTR ?NoActionBonusProd@@3HA, eax	; NoActionBonusProd

; 298  : 	NoTypeBonusRepl		= (int)GetPrivateProfileInt("Campaign","NoTypeBonusRepl", 0, fileName);

	lea	edx, DWORD PTR _fileName$[ebp]
	push	edx
	push	0
	push	OFFSET ??_C@_0BA@DBIBMHAC@NoTypeBonusRepl?$AA@
	push	OFFSET ??_C@_08FHHBCJKK@Campaign?$AA@
	call	DWORD PTR __imp__GetPrivateProfileIntA@16
	mov	DWORD PTR ?NoTypeBonusRepl@@3HA, eax	; NoTypeBonusRepl

; 299  : 	NewInitiativePoints = (int)GetPrivateProfileInt("Campaign","NewInitiativePoints", 0, fileName);

	lea	eax, DWORD PTR _fileName$[ebp]
	push	eax
	push	0
	push	OFFSET ??_C@_0BE@MDLKDDGJ@NewInitiativePoints?$AA@
	push	OFFSET ??_C@_08FHHBCJKK@Campaign?$AA@
	call	DWORD PTR __imp__GetPrivateProfileIntA@16
	mov	DWORD PTR ?NewInitiativePoints@@3HA, eax ; NewInitiativePoints

; 300  : 	CampBugFixes		= (int)GetPrivateProfileInt("Campaign","CampBugFixes", 0, fileName);

	lea	ecx, DWORD PTR _fileName$[ebp]
	push	ecx
	push	0
	push	OFFSET ??_C@_0N@NNFBKLAG@CampBugFixes?$AA@
	push	OFFSET ??_C@_08FHHBCJKK@Campaign?$AA@
	call	DWORD PTR __imp__GetPrivateProfileIntA@16
	mov	DWORD PTR ?CampBugFixes@@3HA, eax	; CampBugFixes

; 301  : 	
; 302  : 	GetPrivateProfileString("Campaign","2DHitChanceAir", "3.5", tmpName, 40, fileName);

	lea	edx, DWORD PTR _fileName$[ebp]
	push	edx
	push	40					; 00000028H
	lea	eax, DWORD PTR _tmpName$[ebp]
	push	eax
	push	OFFSET ??_C@_03KMMHNOPA@3?45?$AA@
	push	OFFSET ??_C@_0P@PLHNPIFE@2DHitChanceAir?$AA@
	push	OFFSET ??_C@_08FHHBCJKK@Campaign?$AA@
	call	DWORD PTR __imp__GetPrivateProfileStringA@24

; 303  : 	HitChanceAir		= (float)atof(tmpName);

	lea	ecx, DWORD PTR _tmpName$[ebp]
	push	ecx
	call	_atof
	add	esp, 4
	fstp	DWORD PTR ?HitChanceAir@@3MA		; HitChanceAir

; 304  : 	GetPrivateProfileString("Campaign","2DHitChanceGround", "1.5", tmpName, 40, fileName);

	lea	edx, DWORD PTR _fileName$[ebp]
	push	edx
	push	40					; 00000028H
	lea	eax, DWORD PTR _tmpName$[ebp]
	push	eax
	push	OFFSET ??_C@_03GMOBGHL@1?45?$AA@
	push	OFFSET ??_C@_0BC@BEOMGMNF@2DHitChanceGround?$AA@
	push	OFFSET ??_C@_08FHHBCJKK@Campaign?$AA@
	call	DWORD PTR __imp__GetPrivateProfileStringA@24

; 305  : 	HitChanceGround		= (float)atof(tmpName);

	lea	ecx, DWORD PTR _tmpName$[ebp]
	push	ecx
	call	_atof
	add	esp, 4
	fstp	DWORD PTR ?HitChanceGround@@3MA		; HitChanceGround

; 306  : 	GetPrivateProfileString("Campaign","MinDeadPct", "0.6", tmpName, 40, fileName);

	lea	edx, DWORD PTR _fileName$[ebp]
	push	edx
	push	40					; 00000028H
	lea	eax, DWORD PTR _tmpName$[ebp]
	push	eax
	push	OFFSET ??_C@_03JFFPCCNN@0?46?$AA@
	push	OFFSET ??_C@_0L@CBHLALHJ@MinDeadPct?$AA@
	push	OFFSET ??_C@_08FHHBCJKK@Campaign?$AA@
	call	DWORD PTR __imp__GetPrivateProfileStringA@24

; 307  : 	MIN_DEAD_PCT		= (float)atof(tmpName);

	lea	ecx, DWORD PTR _tmpName$[ebp]
	push	ecx
	call	_atof
	add	esp, 4
	fstp	DWORD PTR ?MIN_DEAD_PCT@@3MA		; MIN_DEAD_PCT
$LN2@ReadCampAI:

; 308  : 	// 2002-04-17 MN these are now read from the campaign trigger files to have them definable per campaign.
; 309  : 	//	GetPrivateProfileString("Campaign","FLOTDrawDistance", "2500.0", tmpName, 40, fileName); // 50 km
; 310  : 	//	FLOTDrawDistance	= (float)atof(tmpName);
; 311  : 	//	FLOTSortDirection	= (int)GetPrivateProfileInt("Campaign","SortNorthSouth", 0, fileName);
; 312  : 	//	TheaterXPosition	= (int)GetPrivateProfileInt("Campaign","TheaterXPosit", 512, fileName); 
; 313  : 	// default place in center of korea sized theaters
; 314  : 	//	TheaterYPosition	= (int)GetPrivateProfileInt("Campaign","TheaterYPosit", 512, fileName); 
; 315  : 	// default place in center of korea sized theaters
; 316  : }

	mov	ecx, DWORD PTR __$ArrayPad$[ebp]
	xor	ecx, ebp
	call	@__security_check_cookie@4
	mov	esp, ebp
	pop	ebp
	ret	0
?ReadCampAIInputs@@YAXPAD@Z ENDP			; ReadCampAIInputs
_TEXT	ENDS
; Function compile flags: /Odtp
; File c:\program files (x86)\microsoft visual studio 11.0\vc\include\xutility
;	COMDAT ??__Eallocator_arg@std@@YAXXZ
text$yc	SEGMENT
$T1 = -1						; size = 1
??__Eallocator_arg@std@@YAXXZ PROC			; std::`dynamic initializer for 'allocator_arg'', COMDAT

; 3644 : const allocator_arg_t allocator_arg = allocator_arg_t();

	push	ebp
	mov	ebp, esp
	push	ecx
	xor	eax, eax
	mov	BYTE PTR $T1[ebp], al
	mov	esp, ebp
	pop	ebp
	ret	0
??__Eallocator_arg@std@@YAXXZ ENDP			; std::`dynamic initializer for 'allocator_arg''
text$yc	ENDS
; Function compile flags: /Odtp
; File c:\program files (x86)\microsoft visual studio 11.0\vc\include\utility
;	COMDAT ??__Epiecewise_construct@std@@YAXXZ
text$yc	SEGMENT
$T1 = -1						; size = 1
??__Epiecewise_construct@std@@YAXXZ PROC		; std::`dynamic initializer for 'piecewise_construct'', COMDAT

; 65   : 	piecewise_construct_t();

	push	ebp
	mov	ebp, esp
	push	ecx
	xor	eax, eax
	mov	BYTE PTR $T1[ebp], al
	mov	esp, ebp
	pop	ebp
	ret	0
??__Epiecewise_construct@std@@YAXXZ ENDP		; std::`dynamic initializer for 'piecewise_construct''
text$yc	ENDS
END
