; Listing generated by Microsoft (R) Optimizing Compiler Version 17.00.51106.1 

	TITLE	C:\Users\Zhitao Li\Documents\Visual Studio 2012\Projects\Freefalcon\CAMPAIGN\CAMPLIB\Objectiv.cpp
	.686P
	.XMM
	include listing.inc
	.model	flat

INCLUDELIB LIBCMT
INCLUDELIB OLDNAMES

PUBLIC	?traps@_Num_base@std@@2_NB			; std::_Num_base::traps
PUBLIC	?round_style@_Num_base@std@@2W4float_round_style@2@B ; std::_Num_base::round_style
PUBLIC	?digits@_Num_base@std@@2HB			; std::_Num_base::digits
PUBLIC	?digits10@_Num_base@std@@2HB			; std::_Num_base::digits10
PUBLIC	?max_digits10@_Num_base@std@@2HB		; std::_Num_base::max_digits10
PUBLIC	?max_exponent@_Num_base@std@@2HB		; std::_Num_base::max_exponent
PUBLIC	?max_exponent10@_Num_base@std@@2HB		; std::_Num_base::max_exponent10
PUBLIC	?min_exponent@_Num_base@std@@2HB		; std::_Num_base::min_exponent
PUBLIC	?min_exponent10@_Num_base@std@@2HB		; std::_Num_base::min_exponent10
PUBLIC	?radix@_Num_base@std@@2HB			; std::_Num_base::radix
PUBLIC	?collate@?$_Locbase@H@std@@2HB			; std::_Locbase<int>::collate
PUBLIC	?ctype@?$_Locbase@H@std@@2HB			; std::_Locbase<int>::ctype
PUBLIC	?monetary@?$_Locbase@H@std@@2HB			; std::_Locbase<int>::monetary
PUBLIC	?numeric@?$_Locbase@H@std@@2HB			; std::_Locbase<int>::numeric
PUBLIC	?time@?$_Locbase@H@std@@2HB			; std::_Locbase<int>::time
PUBLIC	?messages@?$_Locbase@H@std@@2HB			; std::_Locbase<int>::messages
PUBLIC	?all@?$_Locbase@H@std@@2HB			; std::_Locbase<int>::all
PUBLIC	?none@?$_Locbase@H@std@@2HB			; std::_Locbase<int>::none
PUBLIC	?is_bounded@_Num_int_base@std@@2_NB		; std::_Num_int_base::is_bounded
PUBLIC	?is_exact@_Num_int_base@std@@2_NB		; std::_Num_int_base::is_exact
PUBLIC	?is_integer@_Num_int_base@std@@2_NB		; std::_Num_int_base::is_integer
PUBLIC	?is_modulo@_Num_int_base@std@@2_NB		; std::_Num_int_base::is_modulo
PUBLIC	?is_specialized@_Num_int_base@std@@2_NB		; std::_Num_int_base::is_specialized
PUBLIC	?radix@_Num_int_base@std@@2HB			; std::_Num_int_base::radix
PUBLIC	?has_denorm@_Num_float_base@std@@2W4float_denorm_style@2@B ; std::_Num_float_base::has_denorm
PUBLIC	?has_denorm_loss@_Num_float_base@std@@2_NB	; std::_Num_float_base::has_denorm_loss
PUBLIC	?SIMDIRTYDATA_INTERVAL@FalconEntity@@2KB	; FalconEntity::SIMDIRTYDATA_INTERVAL
PUBLIC	?CMPDIRTYDATA_INTERVAL@FalconEntity@@2KB	; FalconEntity::CMPDIRTYDATA_INTERVAL
PUBLIC	?has_infinity@_Num_float_base@std@@2_NB		; std::_Num_float_base::has_infinity
PUBLIC	?has_quiet_NaN@_Num_float_base@std@@2_NB	; std::_Num_float_base::has_quiet_NaN
PUBLIC	?has_signaling_NaN@_Num_float_base@std@@2_NB	; std::_Num_float_base::has_signaling_NaN
PUBLIC	?is_bounded@_Num_float_base@std@@2_NB		; std::_Num_float_base::is_bounded
PUBLIC	?is_exact@_Num_float_base@std@@2_NB		; std::_Num_float_base::is_exact
PUBLIC	?is_iec559@_Num_float_base@std@@2_NB		; std::_Num_float_base::is_iec559
PUBLIC	?is_integer@_Num_float_base@std@@2_NB		; std::_Num_float_base::is_integer
PUBLIC	?is_modulo@_Num_float_base@std@@2_NB		; std::_Num_float_base::is_modulo
PUBLIC	?is_signed@_Num_float_base@std@@2_NB		; std::_Num_float_base::is_signed
PUBLIC	?is_specialized@_Num_float_base@std@@2_NB	; std::_Num_float_base::is_specialized
PUBLIC	?tinyness_before@_Num_float_base@std@@2_NB	; std::_Num_float_base::tinyness_before
PUBLIC	?traps@_Num_float_base@std@@2_NB		; std::_Num_float_base::traps
PUBLIC	?round_style@_Num_float_base@std@@2W4float_round_style@2@B ; std::_Num_float_base::round_style
PUBLIC	?radix@_Num_float_base@std@@2HB			; std::_Num_float_base::radix
PUBLIC	?is_signed@?$numeric_limits@D@std@@2_NB		; std::numeric_limits<char>::is_signed
PUBLIC	?digits@?$numeric_limits@D@std@@2HB		; std::numeric_limits<char>::digits
PUBLIC	?digits10@?$numeric_limits@D@std@@2HB		; std::numeric_limits<char>::digits10
PUBLIC	?table_size@?$ctype@D@std@@2IB			; std::ctype<char>::table_size
PUBLIC	?is_signed@?$numeric_limits@_W@std@@2_NB	; std::numeric_limits<wchar_t>::is_signed
PUBLIC	?digits@?$numeric_limits@_W@std@@2HB		; std::numeric_limits<wchar_t>::digits
PUBLIC	?digits10@?$numeric_limits@_W@std@@2HB		; std::numeric_limits<wchar_t>::digits10
PUBLIC	?is_modulo@?$numeric_limits@_N@std@@2_NB	; std::numeric_limits<bool>::is_modulo
PUBLIC	?is_signed@?$numeric_limits@_N@std@@2_NB	; std::numeric_limits<bool>::is_signed
PUBLIC	?digits@?$numeric_limits@_N@std@@2HB		; std::numeric_limits<bool>::digits
PUBLIC	?digits10@?$numeric_limits@_N@std@@2HB		; std::numeric_limits<bool>::digits10
PUBLIC	?is_signed@?$numeric_limits@C@std@@2_NB		; std::numeric_limits<signed char>::is_signed
PUBLIC	?digits@?$numeric_limits@C@std@@2HB		; std::numeric_limits<signed char>::digits
PUBLIC	?digits10@?$numeric_limits@C@std@@2HB		; std::numeric_limits<signed char>::digits10
PUBLIC	?is_signed@?$numeric_limits@E@std@@2_NB		; std::numeric_limits<unsigned char>::is_signed
PUBLIC	?value@?$integral_constant@_N$0A@@std@@2_NB	; std::integral_constant<bool,0>::value
PUBLIC	?digits@?$numeric_limits@E@std@@2HB		; std::numeric_limits<unsigned char>::digits
PUBLIC	?digits10@?$numeric_limits@E@std@@2HB		; std::numeric_limits<unsigned char>::digits10
PUBLIC	?value@?$integral_constant@_N$00@std@@2_NB	; std::integral_constant<bool,1>::value
PUBLIC	?is_signed@?$numeric_limits@F@std@@2_NB		; std::numeric_limits<short>::is_signed
PUBLIC	?digits@?$numeric_limits@F@std@@2HB		; std::numeric_limits<short>::digits
PUBLIC	?digits10@?$numeric_limits@F@std@@2HB		; std::numeric_limits<short>::digits10
PUBLIC	?is_signed@?$numeric_limits@G@std@@2_NB		; std::numeric_limits<unsigned short>::is_signed
PUBLIC	?digits@?$numeric_limits@G@std@@2HB		; std::numeric_limits<unsigned short>::digits
PUBLIC	?digits10@?$numeric_limits@G@std@@2HB		; std::numeric_limits<unsigned short>::digits10
PUBLIC	?is_signed@?$numeric_limits@H@std@@2_NB		; std::numeric_limits<int>::is_signed
PUBLIC	?value@?$_Sizeof@HU_Nil@std@@U12@U12@U12@U12@U12@U12@@std@@2IB ; std::_Sizeof<int,std::_Nil,std::_Nil,std::_Nil,std::_Nil,std::_Nil,std::_Nil,std::_Nil>::value
PUBLIC	?digits@?$numeric_limits@H@std@@2HB		; std::numeric_limits<int>::digits
PUBLIC	?digits10@?$numeric_limits@H@std@@2HB		; std::numeric_limits<int>::digits10
PUBLIC	?is_signed@?$numeric_limits@I@std@@2_NB		; std::numeric_limits<unsigned int>::is_signed
PUBLIC	?digits@?$numeric_limits@I@std@@2HB		; std::numeric_limits<unsigned int>::digits
PUBLIC	?digits10@?$numeric_limits@I@std@@2HB		; std::numeric_limits<unsigned int>::digits10
PUBLIC	?is_signed@?$numeric_limits@J@std@@2_NB		; std::numeric_limits<long>::is_signed
PUBLIC	?digits@?$numeric_limits@J@std@@2HB		; std::numeric_limits<long>::digits
PUBLIC	?digits10@?$numeric_limits@J@std@@2HB		; std::numeric_limits<long>::digits10
PUBLIC	?is_signed@?$numeric_limits@K@std@@2_NB		; std::numeric_limits<unsigned long>::is_signed
PUBLIC	?digits@?$numeric_limits@K@std@@2HB		; std::numeric_limits<unsigned long>::digits
PUBLIC	?digits10@?$numeric_limits@K@std@@2HB		; std::numeric_limits<unsigned long>::digits10
PUBLIC	?is_signed@?$numeric_limits@_J@std@@2_NB	; std::numeric_limits<__int64>::is_signed
PUBLIC	?digits@?$numeric_limits@_J@std@@2HB		; std::numeric_limits<__int64>::digits
PUBLIC	?digits10@?$numeric_limits@_J@std@@2HB		; std::numeric_limits<__int64>::digits10
PUBLIC	?is_signed@?$numeric_limits@_K@std@@2_NB	; std::numeric_limits<unsigned __int64>::is_signed
PUBLIC	?digits@?$numeric_limits@_K@std@@2HB		; std::numeric_limits<unsigned __int64>::digits
PUBLIC	?digits10@?$numeric_limits@_K@std@@2HB		; std::numeric_limits<unsigned __int64>::digits10
PUBLIC	?skipws@?$_Iosb@H@std@@2W4_Fmtflags@12@B	; std::_Iosb<int>::skipws
PUBLIC	?unitbuf@?$_Iosb@H@std@@2W4_Fmtflags@12@B	; std::_Iosb<int>::unitbuf
PUBLIC	?uppercase@?$_Iosb@H@std@@2W4_Fmtflags@12@B	; std::_Iosb<int>::uppercase
PUBLIC	?showbase@?$_Iosb@H@std@@2W4_Fmtflags@12@B	; std::_Iosb<int>::showbase
PUBLIC	?showpoint@?$_Iosb@H@std@@2W4_Fmtflags@12@B	; std::_Iosb<int>::showpoint
PUBLIC	?digits@?$numeric_limits@M@std@@2HB		; std::numeric_limits<float>::digits
PUBLIC	?digits10@?$numeric_limits@M@std@@2HB		; std::numeric_limits<float>::digits10
PUBLIC	?showpos@?$_Iosb@H@std@@2W4_Fmtflags@12@B	; std::_Iosb<int>::showpos
PUBLIC	?max_digits10@?$numeric_limits@M@std@@2HB	; std::numeric_limits<float>::max_digits10
PUBLIC	?left@?$_Iosb@H@std@@2W4_Fmtflags@12@B		; std::_Iosb<int>::left
PUBLIC	?right@?$_Iosb@H@std@@2W4_Fmtflags@12@B		; std::_Iosb<int>::right
PUBLIC	?max_exponent@?$numeric_limits@M@std@@2HB	; std::numeric_limits<float>::max_exponent
PUBLIC	?internal@?$_Iosb@H@std@@2W4_Fmtflags@12@B	; std::_Iosb<int>::internal
PUBLIC	?max_exponent10@?$numeric_limits@M@std@@2HB	; std::numeric_limits<float>::max_exponent10
PUBLIC	?dec@?$_Iosb@H@std@@2W4_Fmtflags@12@B		; std::_Iosb<int>::dec
PUBLIC	?min_exponent@?$numeric_limits@M@std@@2HB	; std::numeric_limits<float>::min_exponent
PUBLIC	?oct@?$_Iosb@H@std@@2W4_Fmtflags@12@B		; std::_Iosb<int>::oct
PUBLIC	?hex@?$_Iosb@H@std@@2W4_Fmtflags@12@B		; std::_Iosb<int>::hex
PUBLIC	?min_exponent10@?$numeric_limits@M@std@@2HB	; std::numeric_limits<float>::min_exponent10
PUBLIC	?scientific@?$_Iosb@H@std@@2W4_Fmtflags@12@B	; std::_Iosb<int>::scientific
PUBLIC	?fixed@?$_Iosb@H@std@@2W4_Fmtflags@12@B		; std::_Iosb<int>::fixed
PUBLIC	?hexfloat@?$_Iosb@H@std@@2W4_Fmtflags@12@B	; std::_Iosb<int>::hexfloat
PUBLIC	?boolalpha@?$_Iosb@H@std@@2W4_Fmtflags@12@B	; std::_Iosb<int>::boolalpha
PUBLIC	?_Stdio@?$_Iosb@H@std@@2W4_Fmtflags@12@B	; std::_Iosb<int>::_Stdio
PUBLIC	?adjustfield@?$_Iosb@H@std@@2W4_Fmtflags@12@B	; std::_Iosb<int>::adjustfield
PUBLIC	?basefield@?$_Iosb@H@std@@2W4_Fmtflags@12@B	; std::_Iosb<int>::basefield
PUBLIC	?floatfield@?$_Iosb@H@std@@2W4_Fmtflags@12@B	; std::_Iosb<int>::floatfield
PUBLIC	?goodbit@?$_Iosb@H@std@@2W4_Iostate@12@B	; std::_Iosb<int>::goodbit
PUBLIC	?value@?$integral_constant@I$0A@@std@@2IB	; std::integral_constant<unsigned int,0>::value
PUBLIC	?digits@?$numeric_limits@N@std@@2HB		; std::numeric_limits<double>::digits
PUBLIC	?eofbit@?$_Iosb@H@std@@2W4_Iostate@12@B		; std::_Iosb<int>::eofbit
PUBLIC	?digits10@?$numeric_limits@N@std@@2HB		; std::numeric_limits<double>::digits10
PUBLIC	?failbit@?$_Iosb@H@std@@2W4_Iostate@12@B	; std::_Iosb<int>::failbit
PUBLIC	?max_digits10@?$numeric_limits@N@std@@2HB	; std::numeric_limits<double>::max_digits10
PUBLIC	?badbit@?$_Iosb@H@std@@2W4_Iostate@12@B		; std::_Iosb<int>::badbit
PUBLIC	?max_exponent@?$numeric_limits@N@std@@2HB	; std::numeric_limits<double>::max_exponent
PUBLIC	?_Hardfail@?$_Iosb@H@std@@2W4_Iostate@12@B	; std::_Iosb<int>::_Hardfail
PUBLIC	?max_exponent10@?$numeric_limits@N@std@@2HB	; std::numeric_limits<double>::max_exponent10
PUBLIC	?in@?$_Iosb@H@std@@2W4_Openmode@12@B		; std::_Iosb<int>::in
PUBLIC	?out@?$_Iosb@H@std@@2W4_Openmode@12@B		; std::_Iosb<int>::out
PUBLIC	?min_exponent@?$numeric_limits@N@std@@2HB	; std::numeric_limits<double>::min_exponent
PUBLIC	?ate@?$_Iosb@H@std@@2W4_Openmode@12@B		; std::_Iosb<int>::ate
PUBLIC	?min_exponent10@?$numeric_limits@N@std@@2HB	; std::numeric_limits<double>::min_exponent10
PUBLIC	?app@?$_Iosb@H@std@@2W4_Openmode@12@B		; std::_Iosb<int>::app
PUBLIC	?trunc@?$_Iosb@H@std@@2W4_Openmode@12@B		; std::_Iosb<int>::trunc
PUBLIC	?_Nocreate@?$_Iosb@H@std@@2W4_Openmode@12@B	; std::_Iosb<int>::_Nocreate
PUBLIC	?_Noreplace@?$_Iosb@H@std@@2W4_Openmode@12@B	; std::_Iosb<int>::_Noreplace
PUBLIC	?binary@?$_Iosb@H@std@@2W4_Openmode@12@B	; std::_Iosb<int>::binary
PUBLIC	?beg@?$_Iosb@H@std@@2W4_Seekdir@12@B		; std::_Iosb<int>::beg
PUBLIC	?cur@?$_Iosb@H@std@@2W4_Seekdir@12@B		; std::_Iosb<int>::cur
PUBLIC	?end@?$_Iosb@H@std@@2W4_Seekdir@12@B		; std::_Iosb<int>::end
PUBLIC	?digits@?$numeric_limits@O@std@@2HB		; std::numeric_limits<long double>::digits
PUBLIC	?digits10@?$numeric_limits@O@std@@2HB		; std::numeric_limits<long double>::digits10
PUBLIC	?max_digits10@?$numeric_limits@O@std@@2HB	; std::numeric_limits<long double>::max_digits10
PUBLIC	?max_exponent@?$numeric_limits@O@std@@2HB	; std::numeric_limits<long double>::max_exponent
PUBLIC	?max_exponent10@?$numeric_limits@O@std@@2HB	; std::numeric_limits<long double>::max_exponent10
PUBLIC	?min_exponent@?$numeric_limits@O@std@@2HB	; std::numeric_limits<long double>::min_exponent
PUBLIC	?min_exponent10@?$numeric_limits@O@std@@2HB	; std::numeric_limits<long double>::min_exponent10
PUBLIC	?_Stream_err@failure@ios_base@std@@0W4io_errc@43@B ; std::ios_base::failure::_Stream_err
PUBLIC	?value@?$_Sizeof@U_Nil@std@@U12@U12@U12@U12@U12@U12@U12@@std@@2IB ; std::_Sizeof<std::_Nil,std::_Nil,std::_Nil,std::_Nil,std::_Nil,std::_Nil,std::_Nil,std::_Nil>::value
PUBLIC	?has_denorm@_Num_base@std@@2W4float_denorm_style@2@B ; std::_Num_base::has_denorm
PUBLIC	?has_denorm_loss@_Num_base@std@@2_NB		; std::_Num_base::has_denorm_loss
PUBLIC	?has_infinity@_Num_base@std@@2_NB		; std::_Num_base::has_infinity
PUBLIC	?has_quiet_NaN@_Num_base@std@@2_NB		; std::_Num_base::has_quiet_NaN
PUBLIC	?has_signaling_NaN@_Num_base@std@@2_NB		; std::_Num_base::has_signaling_NaN
PUBLIC	?is_bounded@_Num_base@std@@2_NB			; std::_Num_base::is_bounded
PUBLIC	?is_exact@_Num_base@std@@2_NB			; std::_Num_base::is_exact
PUBLIC	?is_iec559@_Num_base@std@@2_NB			; std::_Num_base::is_iec559
PUBLIC	?is_integer@_Num_base@std@@2_NB			; std::_Num_base::is_integer
PUBLIC	?is_modulo@_Num_base@std@@2_NB			; std::_Num_base::is_modulo
PUBLIC	?is_signed@_Num_base@std@@2_NB			; std::_Num_base::is_signed
PUBLIC	?is_specialized@_Num_base@std@@2_NB		; std::_Num_base::is_specialized
PUBLIC	?tinyness_before@_Num_base@std@@2_NB		; std::_Num_base::tinyness_before
;	COMDAT ?tinyness_before@_Num_base@std@@2_NB
CONST	SEGMENT
?tinyness_before@_Num_base@std@@2_NB DB 00H		; std::_Num_base::tinyness_before
CONST	ENDS
;	COMDAT ?is_specialized@_Num_base@std@@2_NB
CONST	SEGMENT
?is_specialized@_Num_base@std@@2_NB DB 00H		; std::_Num_base::is_specialized
CONST	ENDS
;	COMDAT ?is_signed@_Num_base@std@@2_NB
CONST	SEGMENT
?is_signed@_Num_base@std@@2_NB DB 00H			; std::_Num_base::is_signed
CONST	ENDS
;	COMDAT ?is_modulo@_Num_base@std@@2_NB
CONST	SEGMENT
?is_modulo@_Num_base@std@@2_NB DB 00H			; std::_Num_base::is_modulo
CONST	ENDS
;	COMDAT ?is_integer@_Num_base@std@@2_NB
CONST	SEGMENT
?is_integer@_Num_base@std@@2_NB DB 00H			; std::_Num_base::is_integer
CONST	ENDS
;	COMDAT ?is_iec559@_Num_base@std@@2_NB
CONST	SEGMENT
?is_iec559@_Num_base@std@@2_NB DB 00H			; std::_Num_base::is_iec559
CONST	ENDS
;	COMDAT ?is_exact@_Num_base@std@@2_NB
CONST	SEGMENT
?is_exact@_Num_base@std@@2_NB DB 00H			; std::_Num_base::is_exact
CONST	ENDS
;	COMDAT ?is_bounded@_Num_base@std@@2_NB
CONST	SEGMENT
?is_bounded@_Num_base@std@@2_NB DB 00H			; std::_Num_base::is_bounded
CONST	ENDS
;	COMDAT ?has_signaling_NaN@_Num_base@std@@2_NB
CONST	SEGMENT
?has_signaling_NaN@_Num_base@std@@2_NB DB 00H		; std::_Num_base::has_signaling_NaN
CONST	ENDS
;	COMDAT ?has_quiet_NaN@_Num_base@std@@2_NB
CONST	SEGMENT
?has_quiet_NaN@_Num_base@std@@2_NB DB 00H		; std::_Num_base::has_quiet_NaN
CONST	ENDS
;	COMDAT ?has_infinity@_Num_base@std@@2_NB
CONST	SEGMENT
?has_infinity@_Num_base@std@@2_NB DB 00H		; std::_Num_base::has_infinity
CONST	ENDS
;	COMDAT ?has_denorm_loss@_Num_base@std@@2_NB
CONST	SEGMENT
?has_denorm_loss@_Num_base@std@@2_NB DB 00H		; std::_Num_base::has_denorm_loss
CONST	ENDS
;	COMDAT ?has_denorm@_Num_base@std@@2W4float_denorm_style@2@B
CONST	SEGMENT
?has_denorm@_Num_base@std@@2W4float_denorm_style@2@B DD 00H ; std::_Num_base::has_denorm
CONST	ENDS
;	COMDAT ?value@?$_Sizeof@U_Nil@std@@U12@U12@U12@U12@U12@U12@U12@@std@@2IB
CONST	SEGMENT
?value@?$_Sizeof@U_Nil@std@@U12@U12@U12@U12@U12@U12@U12@@std@@2IB DD 00H ; std::_Sizeof<std::_Nil,std::_Nil,std::_Nil,std::_Nil,std::_Nil,std::_Nil,std::_Nil,std::_Nil>::value
CONST	ENDS
;	COMDAT ?_Stream_err@failure@ios_base@std@@0W4io_errc@43@B
CONST	SEGMENT
?_Stream_err@failure@ios_base@std@@0W4io_errc@43@B DD 01H ; std::ios_base::failure::_Stream_err
CONST	ENDS
;	COMDAT ?min_exponent10@?$numeric_limits@O@std@@2HB
CONST	SEGMENT
?min_exponent10@?$numeric_limits@O@std@@2HB DD 0fffffecdH ; std::numeric_limits<long double>::min_exponent10
CONST	ENDS
;	COMDAT ?min_exponent@?$numeric_limits@O@std@@2HB
CONST	SEGMENT
?min_exponent@?$numeric_limits@O@std@@2HB DD 0fffffc03H	; std::numeric_limits<long double>::min_exponent
CONST	ENDS
;	COMDAT ?max_exponent10@?$numeric_limits@O@std@@2HB
CONST	SEGMENT
?max_exponent10@?$numeric_limits@O@std@@2HB DD 0134H	; std::numeric_limits<long double>::max_exponent10
CONST	ENDS
;	COMDAT ?max_exponent@?$numeric_limits@O@std@@2HB
CONST	SEGMENT
?max_exponent@?$numeric_limits@O@std@@2HB DD 0400H	; std::numeric_limits<long double>::max_exponent
CONST	ENDS
;	COMDAT ?max_digits10@?$numeric_limits@O@std@@2HB
CONST	SEGMENT
?max_digits10@?$numeric_limits@O@std@@2HB DD 011H	; std::numeric_limits<long double>::max_digits10
CONST	ENDS
;	COMDAT ?digits10@?$numeric_limits@O@std@@2HB
CONST	SEGMENT
?digits10@?$numeric_limits@O@std@@2HB DD 0fH		; std::numeric_limits<long double>::digits10
CONST	ENDS
;	COMDAT ?digits@?$numeric_limits@O@std@@2HB
CONST	SEGMENT
?digits@?$numeric_limits@O@std@@2HB DD 035H		; std::numeric_limits<long double>::digits
CONST	ENDS
;	COMDAT ?end@?$_Iosb@H@std@@2W4_Seekdir@12@B
CONST	SEGMENT
?end@?$_Iosb@H@std@@2W4_Seekdir@12@B DD 02H		; std::_Iosb<int>::end
CONST	ENDS
;	COMDAT ?cur@?$_Iosb@H@std@@2W4_Seekdir@12@B
CONST	SEGMENT
?cur@?$_Iosb@H@std@@2W4_Seekdir@12@B DD 01H		; std::_Iosb<int>::cur
CONST	ENDS
;	COMDAT ?beg@?$_Iosb@H@std@@2W4_Seekdir@12@B
CONST	SEGMENT
?beg@?$_Iosb@H@std@@2W4_Seekdir@12@B DD 00H		; std::_Iosb<int>::beg
CONST	ENDS
;	COMDAT ?binary@?$_Iosb@H@std@@2W4_Openmode@12@B
CONST	SEGMENT
?binary@?$_Iosb@H@std@@2W4_Openmode@12@B DD 020H	; std::_Iosb<int>::binary
CONST	ENDS
;	COMDAT ?_Noreplace@?$_Iosb@H@std@@2W4_Openmode@12@B
CONST	SEGMENT
?_Noreplace@?$_Iosb@H@std@@2W4_Openmode@12@B DD 080H	; std::_Iosb<int>::_Noreplace
CONST	ENDS
;	COMDAT ?_Nocreate@?$_Iosb@H@std@@2W4_Openmode@12@B
CONST	SEGMENT
?_Nocreate@?$_Iosb@H@std@@2W4_Openmode@12@B DD 040H	; std::_Iosb<int>::_Nocreate
CONST	ENDS
;	COMDAT ?trunc@?$_Iosb@H@std@@2W4_Openmode@12@B
CONST	SEGMENT
?trunc@?$_Iosb@H@std@@2W4_Openmode@12@B DD 010H		; std::_Iosb<int>::trunc
CONST	ENDS
;	COMDAT ?app@?$_Iosb@H@std@@2W4_Openmode@12@B
CONST	SEGMENT
?app@?$_Iosb@H@std@@2W4_Openmode@12@B DD 08H		; std::_Iosb<int>::app
CONST	ENDS
;	COMDAT ?min_exponent10@?$numeric_limits@N@std@@2HB
CONST	SEGMENT
?min_exponent10@?$numeric_limits@N@std@@2HB DD 0fffffecdH ; std::numeric_limits<double>::min_exponent10
CONST	ENDS
;	COMDAT ?ate@?$_Iosb@H@std@@2W4_Openmode@12@B
CONST	SEGMENT
?ate@?$_Iosb@H@std@@2W4_Openmode@12@B DD 04H		; std::_Iosb<int>::ate
CONST	ENDS
;	COMDAT ?min_exponent@?$numeric_limits@N@std@@2HB
CONST	SEGMENT
?min_exponent@?$numeric_limits@N@std@@2HB DD 0fffffc03H	; std::numeric_limits<double>::min_exponent
CONST	ENDS
;	COMDAT ?out@?$_Iosb@H@std@@2W4_Openmode@12@B
CONST	SEGMENT
?out@?$_Iosb@H@std@@2W4_Openmode@12@B DD 02H		; std::_Iosb<int>::out
CONST	ENDS
;	COMDAT ?in@?$_Iosb@H@std@@2W4_Openmode@12@B
CONST	SEGMENT
?in@?$_Iosb@H@std@@2W4_Openmode@12@B DD 01H		; std::_Iosb<int>::in
CONST	ENDS
;	COMDAT ?max_exponent10@?$numeric_limits@N@std@@2HB
CONST	SEGMENT
?max_exponent10@?$numeric_limits@N@std@@2HB DD 0134H	; std::numeric_limits<double>::max_exponent10
CONST	ENDS
;	COMDAT ?_Hardfail@?$_Iosb@H@std@@2W4_Iostate@12@B
CONST	SEGMENT
?_Hardfail@?$_Iosb@H@std@@2W4_Iostate@12@B DD 010H	; std::_Iosb<int>::_Hardfail
CONST	ENDS
;	COMDAT ?max_exponent@?$numeric_limits@N@std@@2HB
CONST	SEGMENT
?max_exponent@?$numeric_limits@N@std@@2HB DD 0400H	; std::numeric_limits<double>::max_exponent
CONST	ENDS
;	COMDAT ?badbit@?$_Iosb@H@std@@2W4_Iostate@12@B
CONST	SEGMENT
?badbit@?$_Iosb@H@std@@2W4_Iostate@12@B DD 04H		; std::_Iosb<int>::badbit
CONST	ENDS
;	COMDAT ?max_digits10@?$numeric_limits@N@std@@2HB
CONST	SEGMENT
?max_digits10@?$numeric_limits@N@std@@2HB DD 011H	; std::numeric_limits<double>::max_digits10
CONST	ENDS
;	COMDAT ?failbit@?$_Iosb@H@std@@2W4_Iostate@12@B
CONST	SEGMENT
?failbit@?$_Iosb@H@std@@2W4_Iostate@12@B DD 02H		; std::_Iosb<int>::failbit
CONST	ENDS
;	COMDAT ?digits10@?$numeric_limits@N@std@@2HB
CONST	SEGMENT
?digits10@?$numeric_limits@N@std@@2HB DD 0fH		; std::numeric_limits<double>::digits10
CONST	ENDS
;	COMDAT ?eofbit@?$_Iosb@H@std@@2W4_Iostate@12@B
CONST	SEGMENT
?eofbit@?$_Iosb@H@std@@2W4_Iostate@12@B DD 01H		; std::_Iosb<int>::eofbit
CONST	ENDS
;	COMDAT ?digits@?$numeric_limits@N@std@@2HB
CONST	SEGMENT
?digits@?$numeric_limits@N@std@@2HB DD 035H		; std::numeric_limits<double>::digits
CONST	ENDS
;	COMDAT ?value@?$integral_constant@I$0A@@std@@2IB
CONST	SEGMENT
?value@?$integral_constant@I$0A@@std@@2IB DD 00H	; std::integral_constant<unsigned int,0>::value
CONST	ENDS
;	COMDAT ?goodbit@?$_Iosb@H@std@@2W4_Iostate@12@B
CONST	SEGMENT
?goodbit@?$_Iosb@H@std@@2W4_Iostate@12@B DD 00H		; std::_Iosb<int>::goodbit
CONST	ENDS
;	COMDAT ?floatfield@?$_Iosb@H@std@@2W4_Fmtflags@12@B
CONST	SEGMENT
?floatfield@?$_Iosb@H@std@@2W4_Fmtflags@12@B DD 03000H	; std::_Iosb<int>::floatfield
CONST	ENDS
;	COMDAT ?basefield@?$_Iosb@H@std@@2W4_Fmtflags@12@B
CONST	SEGMENT
?basefield@?$_Iosb@H@std@@2W4_Fmtflags@12@B DD 0e00H	; std::_Iosb<int>::basefield
CONST	ENDS
;	COMDAT ?adjustfield@?$_Iosb@H@std@@2W4_Fmtflags@12@B
CONST	SEGMENT
?adjustfield@?$_Iosb@H@std@@2W4_Fmtflags@12@B DD 01c0H	; std::_Iosb<int>::adjustfield
CONST	ENDS
;	COMDAT ?_Stdio@?$_Iosb@H@std@@2W4_Fmtflags@12@B
CONST	SEGMENT
?_Stdio@?$_Iosb@H@std@@2W4_Fmtflags@12@B DD 08000H	; std::_Iosb<int>::_Stdio
CONST	ENDS
;	COMDAT ?boolalpha@?$_Iosb@H@std@@2W4_Fmtflags@12@B
CONST	SEGMENT
?boolalpha@?$_Iosb@H@std@@2W4_Fmtflags@12@B DD 04000H	; std::_Iosb<int>::boolalpha
CONST	ENDS
;	COMDAT ?hexfloat@?$_Iosb@H@std@@2W4_Fmtflags@12@B
CONST	SEGMENT
?hexfloat@?$_Iosb@H@std@@2W4_Fmtflags@12@B DD 03000H	; std::_Iosb<int>::hexfloat
CONST	ENDS
;	COMDAT ?fixed@?$_Iosb@H@std@@2W4_Fmtflags@12@B
CONST	SEGMENT
?fixed@?$_Iosb@H@std@@2W4_Fmtflags@12@B DD 02000H	; std::_Iosb<int>::fixed
CONST	ENDS
;	COMDAT ?scientific@?$_Iosb@H@std@@2W4_Fmtflags@12@B
CONST	SEGMENT
?scientific@?$_Iosb@H@std@@2W4_Fmtflags@12@B DD 01000H	; std::_Iosb<int>::scientific
CONST	ENDS
;	COMDAT ?min_exponent10@?$numeric_limits@M@std@@2HB
CONST	SEGMENT
?min_exponent10@?$numeric_limits@M@std@@2HB DD 0ffffffdbH ; std::numeric_limits<float>::min_exponent10
CONST	ENDS
;	COMDAT ?hex@?$_Iosb@H@std@@2W4_Fmtflags@12@B
CONST	SEGMENT
?hex@?$_Iosb@H@std@@2W4_Fmtflags@12@B DD 0800H		; std::_Iosb<int>::hex
CONST	ENDS
;	COMDAT ?oct@?$_Iosb@H@std@@2W4_Fmtflags@12@B
CONST	SEGMENT
?oct@?$_Iosb@H@std@@2W4_Fmtflags@12@B DD 0400H		; std::_Iosb<int>::oct
CONST	ENDS
;	COMDAT ?min_exponent@?$numeric_limits@M@std@@2HB
CONST	SEGMENT
?min_exponent@?$numeric_limits@M@std@@2HB DD 0ffffff83H	; std::numeric_limits<float>::min_exponent
CONST	ENDS
;	COMDAT ?dec@?$_Iosb@H@std@@2W4_Fmtflags@12@B
CONST	SEGMENT
?dec@?$_Iosb@H@std@@2W4_Fmtflags@12@B DD 0200H		; std::_Iosb<int>::dec
CONST	ENDS
;	COMDAT ?max_exponent10@?$numeric_limits@M@std@@2HB
CONST	SEGMENT
?max_exponent10@?$numeric_limits@M@std@@2HB DD 026H	; std::numeric_limits<float>::max_exponent10
CONST	ENDS
;	COMDAT ?internal@?$_Iosb@H@std@@2W4_Fmtflags@12@B
CONST	SEGMENT
?internal@?$_Iosb@H@std@@2W4_Fmtflags@12@B DD 0100H	; std::_Iosb<int>::internal
CONST	ENDS
;	COMDAT ?max_exponent@?$numeric_limits@M@std@@2HB
CONST	SEGMENT
?max_exponent@?$numeric_limits@M@std@@2HB DD 080H	; std::numeric_limits<float>::max_exponent
CONST	ENDS
;	COMDAT ?right@?$_Iosb@H@std@@2W4_Fmtflags@12@B
CONST	SEGMENT
?right@?$_Iosb@H@std@@2W4_Fmtflags@12@B DD 080H		; std::_Iosb<int>::right
CONST	ENDS
;	COMDAT ?left@?$_Iosb@H@std@@2W4_Fmtflags@12@B
CONST	SEGMENT
?left@?$_Iosb@H@std@@2W4_Fmtflags@12@B DD 040H		; std::_Iosb<int>::left
CONST	ENDS
;	COMDAT ?max_digits10@?$numeric_limits@M@std@@2HB
CONST	SEGMENT
?max_digits10@?$numeric_limits@M@std@@2HB DD 09H	; std::numeric_limits<float>::max_digits10
CONST	ENDS
;	COMDAT ?showpos@?$_Iosb@H@std@@2W4_Fmtflags@12@B
CONST	SEGMENT
?showpos@?$_Iosb@H@std@@2W4_Fmtflags@12@B DD 020H	; std::_Iosb<int>::showpos
CONST	ENDS
;	COMDAT ?digits10@?$numeric_limits@M@std@@2HB
CONST	SEGMENT
?digits10@?$numeric_limits@M@std@@2HB DD 06H		; std::numeric_limits<float>::digits10
CONST	ENDS
;	COMDAT ?digits@?$numeric_limits@M@std@@2HB
CONST	SEGMENT
?digits@?$numeric_limits@M@std@@2HB DD 018H		; std::numeric_limits<float>::digits
CONST	ENDS
;	COMDAT ?showpoint@?$_Iosb@H@std@@2W4_Fmtflags@12@B
CONST	SEGMENT
?showpoint@?$_Iosb@H@std@@2W4_Fmtflags@12@B DD 010H	; std::_Iosb<int>::showpoint
CONST	ENDS
;	COMDAT ?showbase@?$_Iosb@H@std@@2W4_Fmtflags@12@B
CONST	SEGMENT
?showbase@?$_Iosb@H@std@@2W4_Fmtflags@12@B DD 08H	; std::_Iosb<int>::showbase
CONST	ENDS
;	COMDAT ?uppercase@?$_Iosb@H@std@@2W4_Fmtflags@12@B
CONST	SEGMENT
?uppercase@?$_Iosb@H@std@@2W4_Fmtflags@12@B DD 04H	; std::_Iosb<int>::uppercase
CONST	ENDS
;	COMDAT ?unitbuf@?$_Iosb@H@std@@2W4_Fmtflags@12@B
CONST	SEGMENT
?unitbuf@?$_Iosb@H@std@@2W4_Fmtflags@12@B DD 02H	; std::_Iosb<int>::unitbuf
CONST	ENDS
;	COMDAT ?skipws@?$_Iosb@H@std@@2W4_Fmtflags@12@B
CONST	SEGMENT
?skipws@?$_Iosb@H@std@@2W4_Fmtflags@12@B DD 01H		; std::_Iosb<int>::skipws
CONST	ENDS
;	COMDAT ?digits10@?$numeric_limits@_K@std@@2HB
CONST	SEGMENT
?digits10@?$numeric_limits@_K@std@@2HB DD 013H		; std::numeric_limits<unsigned __int64>::digits10
CONST	ENDS
;	COMDAT ?digits@?$numeric_limits@_K@std@@2HB
CONST	SEGMENT
?digits@?$numeric_limits@_K@std@@2HB DD 040H		; std::numeric_limits<unsigned __int64>::digits
CONST	ENDS
;	COMDAT ?is_signed@?$numeric_limits@_K@std@@2_NB
CONST	SEGMENT
?is_signed@?$numeric_limits@_K@std@@2_NB DB 00H		; std::numeric_limits<unsigned __int64>::is_signed
CONST	ENDS
;	COMDAT ?digits10@?$numeric_limits@_J@std@@2HB
CONST	SEGMENT
?digits10@?$numeric_limits@_J@std@@2HB DD 012H		; std::numeric_limits<__int64>::digits10
CONST	ENDS
;	COMDAT ?digits@?$numeric_limits@_J@std@@2HB
CONST	SEGMENT
?digits@?$numeric_limits@_J@std@@2HB DD 03fH		; std::numeric_limits<__int64>::digits
CONST	ENDS
;	COMDAT ?is_signed@?$numeric_limits@_J@std@@2_NB
CONST	SEGMENT
?is_signed@?$numeric_limits@_J@std@@2_NB DB 01H		; std::numeric_limits<__int64>::is_signed
CONST	ENDS
;	COMDAT ?digits10@?$numeric_limits@K@std@@2HB
CONST	SEGMENT
?digits10@?$numeric_limits@K@std@@2HB DD 09H		; std::numeric_limits<unsigned long>::digits10
CONST	ENDS
;	COMDAT ?digits@?$numeric_limits@K@std@@2HB
CONST	SEGMENT
?digits@?$numeric_limits@K@std@@2HB DD 020H		; std::numeric_limits<unsigned long>::digits
CONST	ENDS
;	COMDAT ?is_signed@?$numeric_limits@K@std@@2_NB
CONST	SEGMENT
?is_signed@?$numeric_limits@K@std@@2_NB DB 00H		; std::numeric_limits<unsigned long>::is_signed
CONST	ENDS
;	COMDAT ?digits10@?$numeric_limits@J@std@@2HB
CONST	SEGMENT
?digits10@?$numeric_limits@J@std@@2HB DD 09H		; std::numeric_limits<long>::digits10
CONST	ENDS
;	COMDAT ?digits@?$numeric_limits@J@std@@2HB
CONST	SEGMENT
?digits@?$numeric_limits@J@std@@2HB DD 01fH		; std::numeric_limits<long>::digits
CONST	ENDS
;	COMDAT ?is_signed@?$numeric_limits@J@std@@2_NB
CONST	SEGMENT
?is_signed@?$numeric_limits@J@std@@2_NB DB 01H		; std::numeric_limits<long>::is_signed
CONST	ENDS
;	COMDAT ?digits10@?$numeric_limits@I@std@@2HB
CONST	SEGMENT
?digits10@?$numeric_limits@I@std@@2HB DD 09H		; std::numeric_limits<unsigned int>::digits10
CONST	ENDS
;	COMDAT ?digits@?$numeric_limits@I@std@@2HB
CONST	SEGMENT
?digits@?$numeric_limits@I@std@@2HB DD 020H		; std::numeric_limits<unsigned int>::digits
CONST	ENDS
;	COMDAT ?is_signed@?$numeric_limits@I@std@@2_NB
CONST	SEGMENT
?is_signed@?$numeric_limits@I@std@@2_NB DB 00H		; std::numeric_limits<unsigned int>::is_signed
CONST	ENDS
;	COMDAT ?digits10@?$numeric_limits@H@std@@2HB
CONST	SEGMENT
?digits10@?$numeric_limits@H@std@@2HB DD 09H		; std::numeric_limits<int>::digits10
CONST	ENDS
;	COMDAT ?digits@?$numeric_limits@H@std@@2HB
CONST	SEGMENT
?digits@?$numeric_limits@H@std@@2HB DD 01fH		; std::numeric_limits<int>::digits
CONST	ENDS
;	COMDAT ?value@?$_Sizeof@HU_Nil@std@@U12@U12@U12@U12@U12@U12@@std@@2IB
CONST	SEGMENT
?value@?$_Sizeof@HU_Nil@std@@U12@U12@U12@U12@U12@U12@@std@@2IB DD 01H ; std::_Sizeof<int,std::_Nil,std::_Nil,std::_Nil,std::_Nil,std::_Nil,std::_Nil,std::_Nil>::value
CONST	ENDS
;	COMDAT ?is_signed@?$numeric_limits@H@std@@2_NB
CONST	SEGMENT
?is_signed@?$numeric_limits@H@std@@2_NB DB 01H		; std::numeric_limits<int>::is_signed
CONST	ENDS
;	COMDAT ?digits10@?$numeric_limits@G@std@@2HB
CONST	SEGMENT
?digits10@?$numeric_limits@G@std@@2HB DD 04H		; std::numeric_limits<unsigned short>::digits10
CONST	ENDS
;	COMDAT ?digits@?$numeric_limits@G@std@@2HB
CONST	SEGMENT
?digits@?$numeric_limits@G@std@@2HB DD 010H		; std::numeric_limits<unsigned short>::digits
CONST	ENDS
;	COMDAT ?is_signed@?$numeric_limits@G@std@@2_NB
CONST	SEGMENT
?is_signed@?$numeric_limits@G@std@@2_NB DB 00H		; std::numeric_limits<unsigned short>::is_signed
CONST	ENDS
;	COMDAT ?digits10@?$numeric_limits@F@std@@2HB
CONST	SEGMENT
?digits10@?$numeric_limits@F@std@@2HB DD 04H		; std::numeric_limits<short>::digits10
CONST	ENDS
;	COMDAT ?digits@?$numeric_limits@F@std@@2HB
CONST	SEGMENT
?digits@?$numeric_limits@F@std@@2HB DD 0fH		; std::numeric_limits<short>::digits
CONST	ENDS
;	COMDAT ?is_signed@?$numeric_limits@F@std@@2_NB
CONST	SEGMENT
?is_signed@?$numeric_limits@F@std@@2_NB DB 01H		; std::numeric_limits<short>::is_signed
CONST	ENDS
_DATA	SEGMENT
_cloudPntList DD 0c5bcc000r			; -6040
	DD	0c4070000r			; -540
	DD	0c694ac00r			; -19030
	DD	0c6de1c00r			; -28430
	DD	0c4dfc000r			; -1790
	DD	046dcc800r			; 28260
	DD	047104200r			; 36930
	DD	045732000r			; 3890
	DD	04744ea00r			; 50410
	DD	045336000r			; 2870
	DD	0c4d48000r			; -1700
	DD	04736da00r			; 46810
	DD	0c763ee00r			; -58350
	DD	0c4d48000r			; -1700
	DD	0c64c1000r			; -13060
	DD	046f2bc00r			; 31070
	DD	045480000r			; 3200
	DD	0c7293800r			; -43320
	DD	0c7bdc400r			; -97160
	DD	0c4d48000r			; -1700
	DD	04576e000r			; 3950
	DD	0c792e000r			; -75200
	DD	0c4bb8000r			; -1500
	DD	047957400r			; 76520
	DD	04759ee00r			; 55790
	DD	0c5a1e000r			; -5180
	DD	0c7a24e00r			; -83100
	DD	0c7473800r			; -51000
	DD	0c3a00000r			; -320
	DD	0c7829100r			; -66850
	DD	047733400r			; 62260
	DD	0c3a00000r			; -320
	DD	047708200r			; 61570
	DD	0c7710e00r			; -61710
	DD	0c550c000r			; -3340
	DD	046fb7c00r			; 32190
	DD	0c7719a00r			; -61850
	DD	0c7483200r			; -51250
	DD	047543a00r			; 54330
	DD	0c5bcc000r			; -6040
	DD	0c7495400r			; -51540
	DD	0c694ac00r			; -19030
	DD	0c6a7a800r			; -21460
	DD	0c74b0200r			; -51970
	DD	0468e8000r			; 18240
	DD	047298800r			; 43400
	DD	0c74bf200r			; -52210
	DD	046bc7000r			; 24120
	DD	0c749f400r			; -51700
	DD	0c74bc000r			; -52160
	DD	046948400r			; 19010
	DD	0c605e800r			; -8570
	DD	0c7488200r			; -51330
	DD	0c74ca600r			; -52390
	DD	04731bc00r			; 45500
	DD	0c7509800r			; -53400
	DD	0c6725800r			; -15510
	DD	0c7719a00r			; -61850
	DD	0c7483200r			; -51250
	DD	047543a00r			; 54330
	DD	047553400r			; 54580
	DD	0c74ddc00r			; -52700
	DD	0479a5600r			; 79020
	DD	047a7e400r			; 85960
	DD	0c74c5600r			; -52310
	DD	0477d4800r			; 64840
	DD	0c7c44500r			; -100490
	DD	0c74d1400r			; -52500
	DD	047ac2600r			; 88140
	DD	0c7a1ae00r			; -82780
	DD	0c749ea00r			; -51690
	DD	0c7bce300r			; -96710
	DD	0c6126800r			; -9370
	DD	0c7495400r			; -51540
	DD	043cd0000r			; 410
	DD	0c6a7a800r			; -21460
	DD	0c74a8a00r			; -51850
	DD	0473fae00r			; 49070
	DD	0457c8000r			; 4040
	DD	0c74e4a00r			; -52810
	DD	047871e00r			; 69180
	DD	0c6cbc000r			; -26080
	DD	0c74bc000r			; -52160
	DD	046984400r			; 19490
	DD	0452fa000r			; 2810
	DD	0c7488200r			; -51330
	DD	0c7081800r			; -34840
	DD	0c7719a00r			; -61850
	DD	0c749d600r			; -51670
	DD	047b17600r			; 90860
	DD	047553400r			; 54580
	DD	0c74ddc00r			; -52700
	DD	0479a5600r			; 79020
	DD	047a7e400r			; 85960
	DD	0c74c5600r			; -52310
	DD	0477d4800r			; 64840
	DD	0c7c44500r			; -100490
	DD	0c74d1400r			; -52500
	DD	047ac2600r			; 88140
	DD	047c04e00r			; 98460
	DD	0c74d1400r			; -52500
	DD	0c732a200r			; -45730
	DD	0467b9000r			; 16100
	DD	0c7487800r			; -51320
	DD	0c749a400r			; -51620
	DD	047636c00r			; 58220
	DD	0c74e0400r			; -52740
	DD	0c760b000r			; -57520
	DD	0c6126800r			; -9370
	DD	0c4070000r			; -540
	DD	043cd0000r			; 410
	DD	0c4e60000r			; -1840
	DD	0c6a30c00r			; -20870
	DD	0470a6600r			; 35430
	DD	0c7230c00r			; -41740
	DD	046924000r			; 18720
	DD	04797d600r			; 77740
	DD	0460d9000r			; 9060
	DD	0c616c800r			; -9650
	DD	0c7921300r			; -74790
_lightningPosList DD 041300000r			; 11
	DD	000000000r			; 0
	DD	040e00000r			; 7
	DD	040a00000r			; 5
	DD	041100000r			; 9
	DD	041000000r			; 8
	DD	041000000r			; 8
	DD	041600000r			; 14
	DD	041800000r			; 16
	DD	041a00000r			; 20
	DD	041200000r			; 10
	DD	041c00000r			; 24
	DD	041300000r			; 11
	DD	041d80000r			; 27
	DD	040c00000r			; 6
	DD	041f00000r			; 30
	DD	040e00000r			; 7
	DD	042040000r			; 33
	DD	03f800000r			; 1
	DD	042180000r			; 38
	DD	040a00000r			; 5
	DD	042280000r			; 42
	DD	040a00000r			; 5
	DD	042340000r			; 45
	DD	041400000r			; 12
	DD	042400000r			; 48
	DD	041a00000r			; 20
	DD	042500000r			; 52
	DD	041a00000r			; 20
	DD	042680000r			; 58
	DD	041b80000r			; 23
	DD	042740000r			; 61
	DD	041b00000r			; 22
	DD	0427c0000r			; 63
	DD	041b00000r			; 22
	DD	042840000r			; 66
	DD	041c80000r			; 25
	DD	042880000r			; 68
	DD	041a00000r			; 20
	DD	0428c0000r			; 70
	DD	041c00000r			; 24
	DD	042960000r			; 75
	DD	041c00000r			; 24
	DD	0429a0000r			; 77
	DD	041f80000r			; 31
	DD	042a00000r			; 80
	DD	041f80000r			; 31
	DD	042a60000r			; 83
	DD	042040000r			; 33
	DD	042b00000r			; 88
	DD	041f80000r			; 31
	DD	042b80000r			; 92
	DD	0423c0000r			; 47
	DD	042ce0000r			; 103
	DD	042380000r			; 46
	DD	042d20000r			; 105
	DD	0423c0000r			; 47
	DD	042d60000r			; 107
	DD	042340000r			; 45
	DD	042e00000r			; 112
	DD	042400000r			; 48
	DD	042e40000r			; 114
	DD	042380000r			; 46
	DD	042ea0000r			; 117
	DD	0422c0000r			; 43
	DD	043000000r			; 128
_DATA	ENDS
;	COMDAT ?value@?$integral_constant@_N$00@std@@2_NB
CONST	SEGMENT
?value@?$integral_constant@_N$00@std@@2_NB DB 01H	; std::integral_constant<bool,1>::value
CONST	ENDS
;	COMDAT ?digits10@?$numeric_limits@E@std@@2HB
CONST	SEGMENT
?digits10@?$numeric_limits@E@std@@2HB DD 02H		; std::numeric_limits<unsigned char>::digits10
CONST	ENDS
;	COMDAT ?digits@?$numeric_limits@E@std@@2HB
CONST	SEGMENT
?digits@?$numeric_limits@E@std@@2HB DD 08H		; std::numeric_limits<unsigned char>::digits
CONST	ENDS
;	COMDAT ?value@?$integral_constant@_N$0A@@std@@2_NB
CONST	SEGMENT
?value@?$integral_constant@_N$0A@@std@@2_NB DB 00H	; std::integral_constant<bool,0>::value
CONST	ENDS
;	COMDAT ?is_signed@?$numeric_limits@E@std@@2_NB
CONST	SEGMENT
?is_signed@?$numeric_limits@E@std@@2_NB DB 00H		; std::numeric_limits<unsigned char>::is_signed
CONST	ENDS
;	COMDAT ?digits10@?$numeric_limits@C@std@@2HB
CONST	SEGMENT
?digits10@?$numeric_limits@C@std@@2HB DD 02H		; std::numeric_limits<signed char>::digits10
CONST	ENDS
;	COMDAT ?digits@?$numeric_limits@C@std@@2HB
CONST	SEGMENT
?digits@?$numeric_limits@C@std@@2HB DD 07H		; std::numeric_limits<signed char>::digits
CONST	ENDS
;	COMDAT ?is_signed@?$numeric_limits@C@std@@2_NB
CONST	SEGMENT
?is_signed@?$numeric_limits@C@std@@2_NB DB 01H		; std::numeric_limits<signed char>::is_signed
CONST	ENDS
;	COMDAT ?digits10@?$numeric_limits@_N@std@@2HB
CONST	SEGMENT
?digits10@?$numeric_limits@_N@std@@2HB DD 00H		; std::numeric_limits<bool>::digits10
CONST	ENDS
;	COMDAT ?digits@?$numeric_limits@_N@std@@2HB
CONST	SEGMENT
?digits@?$numeric_limits@_N@std@@2HB DD 01H		; std::numeric_limits<bool>::digits
CONST	ENDS
;	COMDAT ?is_signed@?$numeric_limits@_N@std@@2_NB
CONST	SEGMENT
?is_signed@?$numeric_limits@_N@std@@2_NB DB 00H		; std::numeric_limits<bool>::is_signed
CONST	ENDS
;	COMDAT ?is_modulo@?$numeric_limits@_N@std@@2_NB
CONST	SEGMENT
?is_modulo@?$numeric_limits@_N@std@@2_NB DB 00H		; std::numeric_limits<bool>::is_modulo
CONST	ENDS
;	COMDAT ?digits10@?$numeric_limits@_W@std@@2HB
CONST	SEGMENT
?digits10@?$numeric_limits@_W@std@@2HB DD 04H		; std::numeric_limits<wchar_t>::digits10
CONST	ENDS
;	COMDAT ?digits@?$numeric_limits@_W@std@@2HB
CONST	SEGMENT
?digits@?$numeric_limits@_W@std@@2HB DD 010H		; std::numeric_limits<wchar_t>::digits
CONST	ENDS
;	COMDAT ?is_signed@?$numeric_limits@_W@std@@2_NB
CONST	SEGMENT
?is_signed@?$numeric_limits@_W@std@@2_NB DB 00H		; std::numeric_limits<wchar_t>::is_signed
CONST	ENDS
;	COMDAT ?table_size@?$ctype@D@std@@2IB
CONST	SEGMENT
?table_size@?$ctype@D@std@@2IB DD 0100H			; std::ctype<char>::table_size
CONST	ENDS
;	COMDAT ?digits10@?$numeric_limits@D@std@@2HB
CONST	SEGMENT
?digits10@?$numeric_limits@D@std@@2HB DD 02H		; std::numeric_limits<char>::digits10
CONST	ENDS
;	COMDAT ?digits@?$numeric_limits@D@std@@2HB
CONST	SEGMENT
?digits@?$numeric_limits@D@std@@2HB DD 07H		; std::numeric_limits<char>::digits
CONST	ENDS
;	COMDAT ?is_signed@?$numeric_limits@D@std@@2_NB
CONST	SEGMENT
?is_signed@?$numeric_limits@D@std@@2_NB DB 01H		; std::numeric_limits<char>::is_signed
CONST	ENDS
;	COMDAT ?radix@_Num_float_base@std@@2HB
CONST	SEGMENT
?radix@_Num_float_base@std@@2HB DD 02H			; std::_Num_float_base::radix
CONST	ENDS
CONST	SEGMENT
_NEAR_CLIP DD	03f800000r			; 1
_L_2	DD	03f317218r			; 0.693147
CONST	ENDS
;	COMDAT ?round_style@_Num_float_base@std@@2W4float_round_style@2@B
CONST	SEGMENT
?round_style@_Num_float_base@std@@2W4float_round_style@2@B DD 01H ; std::_Num_float_base::round_style
CONST	ENDS
;	COMDAT ?traps@_Num_float_base@std@@2_NB
CONST	SEGMENT
?traps@_Num_float_base@std@@2_NB DB 00H			; std::_Num_float_base::traps
CONST	ENDS
;	COMDAT ?tinyness_before@_Num_float_base@std@@2_NB
CONST	SEGMENT
?tinyness_before@_Num_float_base@std@@2_NB DB 01H	; std::_Num_float_base::tinyness_before
CONST	ENDS
;	COMDAT ?is_specialized@_Num_float_base@std@@2_NB
CONST	SEGMENT
?is_specialized@_Num_float_base@std@@2_NB DB 01H	; std::_Num_float_base::is_specialized
CONST	ENDS
;	COMDAT ?is_signed@_Num_float_base@std@@2_NB
CONST	SEGMENT
?is_signed@_Num_float_base@std@@2_NB DB 01H		; std::_Num_float_base::is_signed
CONST	ENDS
;	COMDAT ?is_modulo@_Num_float_base@std@@2_NB
CONST	SEGMENT
?is_modulo@_Num_float_base@std@@2_NB DB 00H		; std::_Num_float_base::is_modulo
CONST	ENDS
;	COMDAT ?is_integer@_Num_float_base@std@@2_NB
CONST	SEGMENT
?is_integer@_Num_float_base@std@@2_NB DB 00H		; std::_Num_float_base::is_integer
CONST	ENDS
;	COMDAT ?is_iec559@_Num_float_base@std@@2_NB
CONST	SEGMENT
?is_iec559@_Num_float_base@std@@2_NB DB 01H		; std::_Num_float_base::is_iec559
CONST	ENDS
;	COMDAT ?is_exact@_Num_float_base@std@@2_NB
CONST	SEGMENT
?is_exact@_Num_float_base@std@@2_NB DB 00H		; std::_Num_float_base::is_exact
CONST	ENDS
;	COMDAT ?is_bounded@_Num_float_base@std@@2_NB
CONST	SEGMENT
?is_bounded@_Num_float_base@std@@2_NB DB 01H		; std::_Num_float_base::is_bounded
CONST	ENDS
;	COMDAT ?has_signaling_NaN@_Num_float_base@std@@2_NB
CONST	SEGMENT
?has_signaling_NaN@_Num_float_base@std@@2_NB DB 01H	; std::_Num_float_base::has_signaling_NaN
CONST	ENDS
;	COMDAT ?has_quiet_NaN@_Num_float_base@std@@2_NB
CONST	SEGMENT
?has_quiet_NaN@_Num_float_base@std@@2_NB DB 01H		; std::_Num_float_base::has_quiet_NaN
CONST	ENDS
;	COMDAT ?has_infinity@_Num_float_base@std@@2_NB
CONST	SEGMENT
?has_infinity@_Num_float_base@std@@2_NB DB 01H		; std::_Num_float_base::has_infinity
CONST	ENDS
;	COMDAT ?CMPDIRTYDATA_INTERVAL@FalconEntity@@2KB
CONST	SEGMENT
?CMPDIRTYDATA_INTERVAL@FalconEntity@@2KB DD 0c8H	; FalconEntity::CMPDIRTYDATA_INTERVAL
CONST	ENDS
;	COMDAT ?SIMDIRTYDATA_INTERVAL@FalconEntity@@2KB
CONST	SEGMENT
?SIMDIRTYDATA_INTERVAL@FalconEntity@@2KB DD 0c8H	; FalconEntity::SIMDIRTYDATA_INTERVAL
CONST	ENDS
;	COMDAT ?has_denorm_loss@_Num_float_base@std@@2_NB
CONST	SEGMENT
?has_denorm_loss@_Num_float_base@std@@2_NB DB 01H	; std::_Num_float_base::has_denorm_loss
CONST	ENDS
;	COMDAT ?has_denorm@_Num_float_base@std@@2W4float_denorm_style@2@B
CONST	SEGMENT
?has_denorm@_Num_float_base@std@@2W4float_denorm_style@2@B DD 01H ; std::_Num_float_base::has_denorm
CONST	ENDS
;	COMDAT ?radix@_Num_int_base@std@@2HB
CONST	SEGMENT
?radix@_Num_int_base@std@@2HB DD 02H			; std::_Num_int_base::radix
CONST	ENDS
;	COMDAT ?is_specialized@_Num_int_base@std@@2_NB
CONST	SEGMENT
?is_specialized@_Num_int_base@std@@2_NB DB 01H		; std::_Num_int_base::is_specialized
CONST	ENDS
;	COMDAT ?is_modulo@_Num_int_base@std@@2_NB
CONST	SEGMENT
?is_modulo@_Num_int_base@std@@2_NB DB 01H		; std::_Num_int_base::is_modulo
CONST	ENDS
;	COMDAT ?is_integer@_Num_int_base@std@@2_NB
CONST	SEGMENT
?is_integer@_Num_int_base@std@@2_NB DB 01H		; std::_Num_int_base::is_integer
CONST	ENDS
;	COMDAT ?is_exact@_Num_int_base@std@@2_NB
CONST	SEGMENT
?is_exact@_Num_int_base@std@@2_NB DB 01H		; std::_Num_int_base::is_exact
CONST	ENDS
;	COMDAT ?is_bounded@_Num_int_base@std@@2_NB
CONST	SEGMENT
?is_bounded@_Num_int_base@std@@2_NB DB 01H		; std::_Num_int_base::is_bounded
CONST	ENDS
;	COMDAT ?none@?$_Locbase@H@std@@2HB
CONST	SEGMENT
?none@?$_Locbase@H@std@@2HB DD 00H			; std::_Locbase<int>::none
CONST	ENDS
;	COMDAT ?all@?$_Locbase@H@std@@2HB
CONST	SEGMENT
?all@?$_Locbase@H@std@@2HB DD 03fH			; std::_Locbase<int>::all
CONST	ENDS
;	COMDAT ?messages@?$_Locbase@H@std@@2HB
CONST	SEGMENT
?messages@?$_Locbase@H@std@@2HB DD 020H			; std::_Locbase<int>::messages
CONST	ENDS
;	COMDAT ?time@?$_Locbase@H@std@@2HB
CONST	SEGMENT
?time@?$_Locbase@H@std@@2HB DD 010H			; std::_Locbase<int>::time
CONST	ENDS
;	COMDAT ?numeric@?$_Locbase@H@std@@2HB
CONST	SEGMENT
?numeric@?$_Locbase@H@std@@2HB DD 08H			; std::_Locbase<int>::numeric
CONST	ENDS
;	COMDAT ?monetary@?$_Locbase@H@std@@2HB
CONST	SEGMENT
?monetary@?$_Locbase@H@std@@2HB DD 04H			; std::_Locbase<int>::monetary
CONST	ENDS
;	COMDAT ?ctype@?$_Locbase@H@std@@2HB
CONST	SEGMENT
?ctype@?$_Locbase@H@std@@2HB DD 02H			; std::_Locbase<int>::ctype
CONST	ENDS
;	COMDAT ?collate@?$_Locbase@H@std@@2HB
CONST	SEGMENT
?collate@?$_Locbase@H@std@@2HB DD 01H			; std::_Locbase<int>::collate
CONST	ENDS
;	COMDAT ?radix@_Num_base@std@@2HB
CONST	SEGMENT
?radix@_Num_base@std@@2HB DD 00H			; std::_Num_base::radix
CONST	ENDS
;	COMDAT ?min_exponent10@_Num_base@std@@2HB
CONST	SEGMENT
?min_exponent10@_Num_base@std@@2HB DD 00H		; std::_Num_base::min_exponent10
CONST	ENDS
;	COMDAT ?min_exponent@_Num_base@std@@2HB
CONST	SEGMENT
?min_exponent@_Num_base@std@@2HB DD 00H			; std::_Num_base::min_exponent
CONST	ENDS
;	COMDAT ?max_exponent10@_Num_base@std@@2HB
CONST	SEGMENT
?max_exponent10@_Num_base@std@@2HB DD 00H		; std::_Num_base::max_exponent10
CONST	ENDS
;	COMDAT ?max_exponent@_Num_base@std@@2HB
CONST	SEGMENT
?max_exponent@_Num_base@std@@2HB DD 00H			; std::_Num_base::max_exponent
CONST	ENDS
;	COMDAT ?max_digits10@_Num_base@std@@2HB
CONST	SEGMENT
?max_digits10@_Num_base@std@@2HB DD 00H			; std::_Num_base::max_digits10
CONST	ENDS
;	COMDAT ?digits10@_Num_base@std@@2HB
CONST	SEGMENT
?digits10@_Num_base@std@@2HB DD 00H			; std::_Num_base::digits10
CONST	ENDS
;	COMDAT ?digits@_Num_base@std@@2HB
CONST	SEGMENT
?digits@_Num_base@std@@2HB DD 00H			; std::_Num_base::digits
CONST	ENDS
;	COMDAT ?round_style@_Num_base@std@@2W4float_round_style@2@B
CONST	SEGMENT
?round_style@_Num_base@std@@2W4float_round_style@2@B DD 00H ; std::_Num_base::round_style
CONST	ENDS
;	COMDAT ?traps@_Num_base@std@@2_NB
CONST	SEGMENT
?traps@_Num_base@std@@2_NB DB 00H			; std::_Num_base::traps
CONST	ENDS
PUBLIC	??_H@YGXPAXIHP6EPAX0@Z@Z			; `vector constructor iterator'
PUBLIC	??0VU_SESSION_ID@@QAE@K@Z			; VU_SESSION_ID::VU_SESSION_ID
PUBLIC	??8VU_SESSION_ID@@QBEHABV0@@Z			; VU_SESSION_ID::operator==
PUBLIC	??0VU_ID@@QAE@XZ				; VU_ID::VU_ID
PUBLIC	??8VU_ID@@QBE_NABV0@@Z				; VU_ID::operator==
PUBLIC	??9VU_ID@@QBE_NABV0@@Z				; VU_ID::operator!=
PUBLIC	?Id@VuEntity@@QBE?AVVU_ID@@XZ			; VuEntity::Id
PUBLIC	?SetSendCreate@VuEntity@@QAEXW4VU_SEND_TYPE@1@@Z ; VuEntity::SetSendCreate
PUBLIC	?OwnerId@VuEntity@@QBE?AVVU_ID@@XZ		; VuEntity::OwnerId
PUBLIC	?VuState@VuEntity@@QBE?AW4VU_MEM@@XZ		; VuEntity::VuState
PUBLIC	?Type@VuEntity@@QBEGXZ				; VuEntity::Type
PUBLIC	?XPos@VuEntity@@QBEMXZ				; VuEntity::XPos
PUBLIC	?YPos@VuEntity@@QBEMXZ				; VuEntity::YPos
PUBLIC	?ZPos@VuEntity@@QBEMXZ				; VuEntity::ZPos
PUBLIC	?EntityType@VuEntity@@QBEPAUVuEntityType@@XZ	; VuEntity::EntityType
PUBLIC	??2@YAPAXIPAX@Z					; operator new
PUBLIC	??3@YAXPAX0@Z					; operator delete
PUBLIC	?length@?$char_traits@D@std@@SAIPBD@Z		; std::char_traits<char>::length
PUBLIC	?copy@?$char_traits@D@std@@SAPADPADPBDI@Z	; std::char_traits<char>::copy
PUBLIC	?move@?$char_traits@D@std@@SAPADPADPBDI@Z	; std::char_traits<char>::move
PUBLIC	?assign@?$char_traits@D@std@@SAXAADABD@Z	; std::char_traits<char>::assign
PUBLIC	??0logic_error@std@@QAE@PBD@Z			; std::logic_error::logic_error
PUBLIC	??1logic_error@std@@UAE@XZ			; std::logic_error::~logic_error
PUBLIC	??0logic_error@std@@QAE@ABV01@@Z		; std::logic_error::logic_error
PUBLIC	??_Glogic_error@std@@UAEPAXI@Z			; std::logic_error::`scalar deleting destructor'
PUBLIC	??0?$allocator@D@std@@QAE@XZ			; std::allocator<char>::allocator<char>
PUBLIC	?deallocate@?$allocator@D@std@@QAEXPADI@Z	; std::allocator<char>::deallocate
PUBLIC	?allocate@?$allocator@D@std@@QAEPADI@Z		; std::allocator<char>::allocate
PUBLIC	?max_size@?$allocator@D@std@@QBEIXZ		; std::allocator<char>::max_size
PUBLIC	?max_size@?$allocator_traits@V?$allocator@D@std@@@std@@SAIABV?$allocator@D@2@@Z ; std::allocator_traits<std::allocator<char> >::max_size
PUBLIC	??0?$_Wrap_alloc@V?$allocator@D@std@@@std@@QAE@XZ ; std::_Wrap_alloc<std::allocator<char> >::_Wrap_alloc<std::allocator<char> >
PUBLIC	?allocate@?$_Wrap_alloc@V?$allocator@D@std@@@std@@QAEPADI@Z ; std::_Wrap_alloc<std::allocator<char> >::allocate
PUBLIC	?deallocate@?$_Wrap_alloc@V?$allocator@D@std@@@std@@QAEXPADI@Z ; std::_Wrap_alloc<std::allocator<char> >::deallocate
PUBLIC	?max_size@?$_Wrap_alloc@V?$allocator@D@std@@@std@@QBEIXZ ; std::_Wrap_alloc<std::allocator<char> >::max_size
PUBLIC	??0?$_String_val@U?$_Simple_types@D@std@@@std@@QAE@XZ ; std::_String_val<std::_Simple_types<char> >::_String_val<std::_Simple_types<char> >
PUBLIC	?_Myptr@?$_String_val@U?$_Simple_types@D@std@@@std@@QAEPADXZ ; std::_String_val<std::_Simple_types<char> >::_Myptr
PUBLIC	?_Myptr@?$_String_val@U?$_Simple_types@D@std@@@std@@QBEPBDXZ ; std::_String_val<std::_Simple_types<char> >::_Myptr
PUBLIC	??0?$_String_alloc@$0A@U?$_String_base_types@DV?$allocator@D@std@@@std@@@std@@QAE@ABV?$allocator@D@1@@Z ; std::_String_alloc<0,std::_String_base_types<char,std::allocator<char> > >::_String_alloc<0,std::_String_base_types<char,std::allocator<char> > >
PUBLIC	?_Getal@?$_String_alloc@$0A@U?$_String_base_types@DV?$allocator@D@std@@@std@@@std@@QBE?AU?$_Wrap_alloc@V?$allocator@D@std@@@2@XZ ; std::_String_alloc<0,std::_String_base_types<char,std::allocator<char> > >::_Getal
PUBLIC	??0?$basic_string@DU?$char_traits@D@std@@V?$allocator@D@2@@std@@QAE@PBD@Z ; std::basic_string<char,std::char_traits<char>,std::allocator<char> >::basic_string<char,std::char_traits<char>,std::allocator<char> >
PUBLIC	??1?$basic_string@DU?$char_traits@D@std@@V?$allocator@D@2@@std@@QAE@XZ ; std::basic_string<char,std::char_traits<char>,std::allocator<char> >::~basic_string<char,std::char_traits<char>,std::allocator<char> >
PUBLIC	?assign@?$basic_string@DU?$char_traits@D@std@@V?$allocator@D@2@@std@@QAEAAV12@ABV12@II@Z ; std::basic_string<char,std::char_traits<char>,std::allocator<char> >::assign
PUBLIC	?assign@?$basic_string@DU?$char_traits@D@std@@V?$allocator@D@2@@std@@QAEAAV12@PBDI@Z ; std::basic_string<char,std::char_traits<char>,std::allocator<char> >::assign
PUBLIC	?assign@?$basic_string@DU?$char_traits@D@std@@V?$allocator@D@2@@std@@QAEAAV12@PBD@Z ; std::basic_string<char,std::char_traits<char>,std::allocator<char> >::assign
PUBLIC	?erase@?$basic_string@DU?$char_traits@D@std@@V?$allocator@D@2@@std@@QAEAAV12@I@Z ; std::basic_string<char,std::char_traits<char>,std::allocator<char> >::erase
PUBLIC	?erase@?$basic_string@DU?$char_traits@D@std@@V?$allocator@D@2@@std@@QAEAAV12@II@Z ; std::basic_string<char,std::char_traits<char>,std::allocator<char> >::erase
PUBLIC	?c_str@?$basic_string@DU?$char_traits@D@std@@V?$allocator@D@2@@std@@QBEPBDXZ ; std::basic_string<char,std::char_traits<char>,std::allocator<char> >::c_str
PUBLIC	?size@?$basic_string@DU?$char_traits@D@std@@V?$allocator@D@2@@std@@QBEIXZ ; std::basic_string<char,std::char_traits<char>,std::allocator<char> >::size
PUBLIC	?max_size@?$basic_string@DU?$char_traits@D@std@@V?$allocator@D@2@@std@@QBEIXZ ; std::basic_string<char,std::char_traits<char>,std::allocator<char> >::max_size
PUBLIC	?_Copy@?$basic_string@DU?$char_traits@D@std@@V?$allocator@D@2@@std@@QAEXII@Z ; std::basic_string<char,std::char_traits<char>,std::allocator<char> >::_Copy
PUBLIC	?_Eos@?$basic_string@DU?$char_traits@D@std@@V?$allocator@D@2@@std@@QAEXI@Z ; std::basic_string<char,std::char_traits<char>,std::allocator<char> >::_Eos
PUBLIC	?_Grow@?$basic_string@DU?$char_traits@D@std@@V?$allocator@D@2@@std@@QAE_NI_N@Z ; std::basic_string<char,std::char_traits<char>,std::allocator<char> >::_Grow
PUBLIC	?_Inside@?$basic_string@DU?$char_traits@D@std@@V?$allocator@D@2@@std@@QAE_NPBD@Z ; std::basic_string<char,std::char_traits<char>,std::allocator<char> >::_Inside
PUBLIC	?_Tidy@?$basic_string@DU?$char_traits@D@std@@V?$allocator@D@2@@std@@QAEX_NI@Z ; std::basic_string<char,std::char_traits<char>,std::allocator<char> >::_Tidy
PUBLIC	?_Xlen@?$basic_string@DU?$char_traits@D@std@@V?$allocator@D@2@@std@@QBEXXZ ; std::basic_string<char,std::char_traits<char>,std::allocator<char> >::_Xlen
PUBLIC	?_Xran@?$basic_string@DU?$char_traits@D@std@@V?$allocator@D@2@@std@@QBEXXZ ; std::basic_string<char,std::char_traits<char>,std::allocator<char> >::_Xran
PUBLIC	??0out_of_range@std@@QAE@ABV?$basic_string@DU?$char_traits@D@std@@V?$allocator@D@2@@1@@Z ; std::out_of_range::out_of_range
PUBLIC	??1out_of_range@std@@UAE@XZ			; std::out_of_range::~out_of_range
PUBLIC	??0out_of_range@std@@QAE@ABV01@@Z		; std::out_of_range::out_of_range
PUBLIC	??_Gout_of_range@std@@UAEPAXI@Z			; std::out_of_range::`scalar deleting destructor'
PUBLIC	??B?$VuBin@VVuSessionEntity@@@@QBE_NXZ		; VuBin<VuSessionEntity>::operator bool
PUBLIC	??C?$VuBin@VVuSessionEntity@@@@QBEPAVVuSessionEntity@@XZ ; VuBin<VuSessionEntity>::operator->
PUBLIC	?get@?$VuBin@VVuSessionEntity@@@@QBEPAVVuSessionEntity@@XZ ; VuBin<VuSessionEntity>::get
PUBLIC	?get@?$VuBin@VVuEntity@@@@QBEPAVVuEntity@@XZ	; VuBin<VuEntity>::get
PUBLIC	?IsSimBase@FalconEntity@@UAE_NXZ		; FalconEntity::IsSimBase
PUBLIC	?SetRadarMode@FalconEntity@@UAEXE@Z		; FalconEntity::SetRadarMode
PUBLIC	?ReturnToSearch@FalconEntity@@UAEXXZ		; FalconEntity::ReturnToSearch
PUBLIC	?SetSearchMode@FalconEntity@@UAEXE@Z		; FalconEntity::SetSearchMode
PUBLIC	?CombatClass@FalconEntity@@UAEHXZ		; FalconEntity::CombatClass
PUBLIC	?IsMissile@FalconEntity@@UAEHXZ			; FalconEntity::IsMissile
PUBLIC	?IsLauncher@FalconEntity@@UAEHXZ		; FalconEntity::IsLauncher
PUBLIC	?IsBomb@FalconEntity@@UAEHXZ			; FalconEntity::IsBomb
PUBLIC	?IsGun@FalconEntity@@UAEHXZ			; FalconEntity::IsGun
PUBLIC	?IsMover@FalconEntity@@UAEHXZ			; FalconEntity::IsMover
PUBLIC	?IsVehicle@FalconEntity@@UAEHXZ			; FalconEntity::IsVehicle
PUBLIC	?IsStatic@FalconEntity@@UAEHXZ			; FalconEntity::IsStatic
PUBLIC	?IsHelicopter@FalconEntity@@UAEHXZ		; FalconEntity::IsHelicopter
PUBLIC	?IsEject@FalconEntity@@UAEHXZ			; FalconEntity::IsEject
PUBLIC	?IsAirplane@FalconEntity@@UAEHXZ		; FalconEntity::IsAirplane
PUBLIC	?IsGroundVehicle@FalconEntity@@UAEHXZ		; FalconEntity::IsGroundVehicle
PUBLIC	?IsShip@FalconEntity@@UAEHXZ			; FalconEntity::IsShip
PUBLIC	?IsWeapon@FalconEntity@@UAEHXZ			; FalconEntity::IsWeapon
PUBLIC	?IsExploding@FalconEntity@@UAEHXZ		; FalconEntity::IsExploding
PUBLIC	?IsDead@FalconEntity@@UAEHXZ			; FalconEntity::IsDead
PUBLIC	?IsUnit@FalconEntity@@UAEHXZ			; FalconEntity::IsUnit
PUBLIC	?IsBattalion@FalconEntity@@UAEHXZ		; FalconEntity::IsBattalion
PUBLIC	?IsBrigade@FalconEntity@@UAEHXZ			; FalconEntity::IsBrigade
PUBLIC	?IsFlight@FalconEntity@@UBEHXZ			; FalconEntity::IsFlight
PUBLIC	?IsSquadron@FalconEntity@@UAEHXZ		; FalconEntity::IsSquadron
PUBLIC	?IsPackage@FalconEntity@@UAEHXZ			; FalconEntity::IsPackage
PUBLIC	?IsTeam@FalconEntity@@UAEHXZ			; FalconEntity::IsTeam
PUBLIC	?IsTaskForce@FalconEntity@@UAEHXZ		; FalconEntity::IsTaskForce
PUBLIC	?IsSPJamming@FalconEntity@@UAEHXZ		; FalconEntity::IsSPJamming
PUBLIC	?IsAreaJamming@FalconEntity@@UAEHXZ		; FalconEntity::IsAreaJamming
PUBLIC	?HasSPJamming@FalconEntity@@UAEHXZ		; FalconEntity::HasSPJamming
PUBLIC	?HasAreaJamming@FalconEntity@@UAEHXZ		; FalconEntity::HasAreaJamming
PUBLIC	?GetRCSFactor@FalconEntity@@UAEMXZ		; FalconEntity::GetRCSFactor
PUBLIC	?GetIRFactor@FalconEntity@@UAEMXZ		; FalconEntity::GetIRFactor
PUBLIC	?SetAQUIREtimer@FalconEntity@@UAEXK@Z		; FalconEntity::SetAQUIREtimer
PUBLIC	?SetSEARCHtimer@FalconEntity@@UAEXK@Z		; FalconEntity::SetSEARCHtimer
PUBLIC	?SetStepSearchMode@FalconEntity@@UAEXE@Z	; FalconEntity::SetStepSearchMode
PUBLIC	?GetAQUIREtimer@FalconEntity@@UAEKXZ		; FalconEntity::GetAQUIREtimer
PUBLIC	?GetSEARCHtimer@FalconEntity@@UAEKXZ		; FalconEntity::GetSEARCHtimer
PUBLIC	?GetWPTargetID@WayPointClass@@QAE?AVVU_ID@@XZ	; WayPointClass::GetWPTargetID
PUBLIC	?GetWPTargetBuilding@WayPointClass@@QAEEXZ	; WayPointClass::GetWPTargetBuilding
PUBLIC	?GetWPAction@WayPointClass@@QAEHXZ		; WayPointClass::GetWPAction
PUBLIC	??0InvalidBufferException@@QAE@ABV?$basic_string@DU?$char_traits@D@std@@V?$allocator@D@2@@std@@@Z ; InvalidBufferException::InvalidBufferException
PUBLIC	??1InvalidBufferException@@UAE@XZ		; InvalidBufferException::~InvalidBufferException
PUBLIC	??0InvalidBufferException@@QAE@ABV0@@Z		; InvalidBufferException::InvalidBufferException
PUBLIC	??_GInvalidBufferException@@UAEPAXI@Z		; InvalidBufferException::`scalar deleting destructor'
PUBLIC	?memcpychk@@YAXPAXPAPAEIPAJ@Z			; memcpychk
PUBLIC	?GetComponents@CampBaseClass@@QBEPAVTailInsertList@@XZ ; CampBaseClass::GetComponents
PUBLIC	?GetDeagOwner@CampBaseClass@@QBE?AVVU_ID@@XZ	; CampBaseClass::GetDeagOwner
PUBLIC	?CollectWeapons@CampBaseClass@@UAEHPAEW4MoveType@@QAFQAEH@Z ; CampBaseClass::CollectWeapons
PUBLIC	?GetDivisionName@CampBaseClass@@UAEPADPADHH@Z	; CampBaseClass::GetDivisionName
PUBLIC	?GetCampID@CampBaseClass@@UAEFXZ		; CampBaseClass::GetCampID
PUBLIC	?GetTeam@CampBaseClass@@UAEEXZ			; CampBaseClass::GetTeam
PUBLIC	?GetCountry@CampBaseClass@@UAEEXZ		; CampBaseClass::GetCountry
PUBLIC	?StepRadar@CampBaseClass@@UAEHHHM@Z		; CampBaseClass::StepRadar
PUBLIC	?GetOwner@CampBaseClass@@QAEEXZ			; CampBaseClass::GetOwner
PUBLIC	?GetMissilesFlying@CampBaseClass@@UAEHXZ	; CampBaseClass::GetMissilesFlying
PUBLIC	?IsCampBase@CampBaseClass@@UAE_NXZ		; CampBaseClass::IsCampBase
PUBLIC	?IsEmitting@CampBaseClass@@UAEHXZ		; CampBaseClass::IsEmitting
PUBLIC	?IsAwake@CampBaseClass@@QAEHXZ			; CampBaseClass::IsAwake
PUBLIC	?InSimLists@CampBaseClass@@QAEHXZ		; CampBaseClass::InSimLists
PUBLIC	?IsAggregate@CampBaseClass@@QAEHXZ		; CampBaseClass::IsAggregate
PUBLIC	?HasEntity@CampBaseClass@@UBEHPAVVuEntity@@@Z	; CampBaseClass::HasEntity
PUBLIC	?HasDelta@CampBaseClass@@QAEHXZ			; CampBaseClass::HasDelta
PUBLIC	?GetDomain@CampBaseClass@@QBEEXZ		; CampBaseClass::GetDomain
PUBLIC	?GetType@CampBaseClass@@QBEEXZ			; CampBaseClass::GetType
PUBLIC	?GetSType@CampBaseClass@@QBEEXZ			; CampBaseClass::GetSType
PUBLIC	??0SimInitDataClass@@QAE@XZ			; SimInitDataClass::SimInitDataClass
PUBLIC	?CampEnterCriticalSection@@YAXXZ		; CampEnterCriticalSection
PUBLIC	?CampLeaveCriticalSection@@YAXXZ		; CampLeaveCriticalSection
PUBLIC	?IsOnline@CampaignClass@@QAEHXZ			; CampaignClass::IsOnline
PUBLIC	?GetTargetID@UnitClass@@QAE?AVVU_ID@@XZ		; UnitClass::GetTargetID
PUBLIC	??_GATCBrain@@QAEPAXI@Z				; ATCBrain::`scalar deleting destructor'
PUBLIC	?GetNumberOfArcs@RadarRangeClass@@QAEHXZ	; RadarRangeClass::GetNumberOfArcs
PUBLIC	?GetArcRatio@RadarRangeClass@@QAEMH@Z		; RadarRangeClass::GetArcRatio
PUBLIC	?GetArcRange@RadarRangeClass@@QAEMH@Z		; RadarRangeClass::GetArcRange
PUBLIC	?GetArcAngle@RadarRangeClass@@QAEXHPAM0@Z	; RadarRangeClass::GetArcAngle
PUBLIC	??0CampObjectiveStaticDataType@@QAE@XZ		; CampObjectiveStaticDataType::CampObjectiveStaticDataType
PUBLIC	??0CampObjectiveLinkDataType@@QAE@XZ		; CampObjectiveLinkDataType::CampObjectiveLinkDataType
PUBLIC	??0ObjectiveClass@@QAE@H@Z			; ObjectiveClass::ObjectiveClass
PUBLIC	??0ObjectiveClass@@QAE@PAPAEPAJ@Z		; ObjectiveClass::ObjectiveClass
PUBLIC	??1ObjectiveClass@@UAE@XZ			; ObjectiveClass::~ObjectiveClass
PUBLIC	?SaveSize@ObjectiveClass@@UAEHXZ		; ObjectiveClass::SaveSize
PUBLIC	?SaveSize@ObjectiveClass@@UAEHH@Z		; ObjectiveClass::SaveSize
PUBLIC	?Save@ObjectiveClass@@UAEHPAPAE@Z		; ObjectiveClass::Save
PUBLIC	?Save@ObjectiveClass@@UAEHPAPAEH@Z		; ObjectiveClass::Save
PUBLIC	?UpdateFromData@ObjectiveClass@@QAEXPAPAEPAJ@Z	; ObjectiveClass::UpdateFromData
PUBLIC	?GetVt@ObjectiveClass@@UBEMXZ			; ObjectiveClass::GetVt
PUBLIC	?GetKias@ObjectiveClass@@UBEMXZ			; ObjectiveClass::GetKias
PUBLIC	?Handle@ObjectiveClass@@UAEHPAVVuFullUpdateEvent@@@Z ; ObjectiveClass::Handle
PUBLIC	?SendDeaggregateData@ObjectiveClass@@UAEXPAVVuTargetEntity@@@Z ; ObjectiveClass::SendDeaggregateData
PUBLIC	?RecordCurrentState@ObjectiveClass@@UAEHPAVFalconSessionEntity@@H@Z ; ObjectiveClass::RecordCurrentState
PUBLIC	?Deaggregate@ObjectiveClass@@UAEHPAVFalconSessionEntity@@@Z ; ObjectiveClass::Deaggregate
PUBLIC	?Reaggregate@ObjectiveClass@@UAEHPAVFalconSessionEntity@@@Z ; ObjectiveClass::Reaggregate
PUBLIC	?TransferOwnership@ObjectiveClass@@UAEHPAVFalconSessionEntity@@@Z ; ObjectiveClass::TransferOwnership
PUBLIC	?Wake@ObjectiveClass@@UAEHXZ			; ObjectiveClass::Wake
PUBLIC	?Sleep@ObjectiveClass@@UAEHXZ			; ObjectiveClass::Sleep
PUBLIC	?InsertInSimLists@ObjectiveClass@@UAEXMM@Z	; ObjectiveClass::InsertInSimLists
PUBLIC	?RemoveFromSimLists@ObjectiveClass@@UAEXXZ	; ObjectiveClass::RemoveFromSimLists
PUBLIC	?DeaggregateFromData@ObjectiveClass@@UAEXPAEJ@Z	; ObjectiveClass::DeaggregateFromData
PUBLIC	?ReaggregateFromData@ObjectiveClass@@UAEXPAEJ@Z	; ObjectiveClass::ReaggregateFromData
PUBLIC	?TransferOwnershipFromData@ObjectiveClass@@UAEXPAEJ@Z ; ObjectiveClass::TransferOwnershipFromData
PUBLIC	?GetMovementType@ObjectiveClass@@UAE?AW4MoveType@@XZ ; ObjectiveClass::GetMovementType
PUBLIC	?ApplyDamage@ObjectiveClass@@UAEHPAVFalconCampWeaponsFire@@E@Z ; ObjectiveClass::ApplyDamage
PUBLIC	?ApplyDamage@ObjectiveClass@@UAEHW4DamageDataType@@PAHHF@Z ; ObjectiveClass::ApplyDamage
PUBLIC	?DecodeDamageData@ObjectiveClass@@UAEHPAEPAVUnitClass@@PAVFalconDeathMessage@@@Z ; ObjectiveClass::DecodeDamageData
PUBLIC	?GetDamageModifiers@ObjectiveClass@@UAEPAEXZ	; ObjectiveClass::GetDamageModifiers
PUBLIC	?GetName@ObjectiveClass@@UAEPADPADHH@Z		; ObjectiveClass::GetName
PUBLIC	?GetFullName@ObjectiveClass@@UAEPADPADHH@Z	; ObjectiveClass::GetFullName
PUBLIC	?GetHitChance@ObjectiveClass@@UAEHHH@Z		; ObjectiveClass::GetHitChance
PUBLIC	?GetAproxHitChance@ObjectiveClass@@UAEHHH@Z	; ObjectiveClass::GetAproxHitChance
PUBLIC	?GetCombatStrength@ObjectiveClass@@UAEHHH@Z	; ObjectiveClass::GetCombatStrength
PUBLIC	?GetAproxCombatStrength@ObjectiveClass@@UAEHHH@Z ; ObjectiveClass::GetAproxCombatStrength
PUBLIC	?GetWeaponRange@ObjectiveClass@@UAEHHPAVFalconEntity@@@Z ; ObjectiveClass::GetWeaponRange
PUBLIC	?GetAproxWeaponRange@ObjectiveClass@@UAEHH@Z	; ObjectiveClass::GetAproxWeaponRange
PUBLIC	?GetDetectionRange@ObjectiveClass@@UAEHH@Z	; ObjectiveClass::GetDetectionRange
PUBLIC	?GetElectronicDetectionRange@ObjectiveClass@@UAEHH@Z ; ObjectiveClass::GetElectronicDetectionRange
PUBLIC	?CanDetect@ObjectiveClass@@UAEHPAVFalconEntity@@@Z ; ObjectiveClass::CanDetect
PUBLIC	?OnGround@ObjectiveClass@@UAEHXZ		; ObjectiveClass::OnGround
PUBLIC	?GetRadarMode@ObjectiveClass@@UAEHXZ		; ObjectiveClass::GetRadarMode
PUBLIC	?GetRadarType@ObjectiveClass@@UAEHXZ		; ObjectiveClass::GetRadarType
PUBLIC	?GetNumberOfArcs@ObjectiveClass@@UAEHXZ		; ObjectiveClass::GetNumberOfArcs
PUBLIC	?GetArcRatio@ObjectiveClass@@UAEMH@Z		; ObjectiveClass::GetArcRatio
PUBLIC	?GetArcRange@ObjectiveClass@@UAEMH@Z		; ObjectiveClass::GetArcRange
PUBLIC	?GetArcAngle@ObjectiveClass@@UAEXHPAM0@Z	; ObjectiveClass::GetArcAngle
PUBLIC	?SiteCanDetect@ObjectiveClass@@QAEHPAVFalconEntity@@@Z ; ObjectiveClass::SiteCanDetect
PUBLIC	?GetSiteRange@ObjectiveClass@@QAEMPAVFalconEntity@@@Z ; ObjectiveClass::GetSiteRange
PUBLIC	?SendObjMessage@ObjectiveClass@@QAEXVVU_ID@@FFFF@Z ; ObjectiveClass::SendObjMessage
PUBLIC	?DisposeObjective@ObjectiveClass@@QAEXXZ	; ObjectiveClass::DisposeObjective
PUBLIC	?AddObjectiveNeighbor@ObjectiveClass@@QAEXPAV1@QAE@Z ; ObjectiveClass::AddObjectiveNeighbor
PUBLIC	?RemoveObjectiveNeighbor@ObjectiveClass@@QAEXH@Z ; ObjectiveClass::RemoveObjectiveNeighbor
PUBLIC	?SetNeighborCosts@ObjectiveClass@@QAEXHQAE@Z	; ObjectiveClass::SetNeighborCosts
PUBLIC	?IsObjective@ObjectiveClass@@UAEHXZ		; ObjectiveClass::IsObjective
PUBLIC	?IsFrontline@ObjectiveClass@@QAEHXZ		; ObjectiveClass::IsFrontline
PUBLIC	?IsSecondline@ObjectiveClass@@QAEHXZ		; ObjectiveClass::IsSecondline
PUBLIC	?IsPrimary@ObjectiveClass@@QAEHXZ		; ObjectiveClass::IsPrimary
PUBLIC	?IsSecondary@ObjectiveClass@@QAEHXZ		; ObjectiveClass::IsSecondary
PUBLIC	?IsSupplySource@ObjectiveClass@@QAEHXZ		; ObjectiveClass::IsSupplySource
PUBLIC	?HasRadarRanges@ObjectiveClass@@QAEHXZ		; ObjectiveClass::HasRadarRanges
PUBLIC	?UpdateObjectiveLists@ObjectiveClass@@QAEXXZ	; ObjectiveClass::UpdateObjectiveLists
PUBLIC	?Repair@ObjectiveClass@@QAEXXZ			; ObjectiveClass::Repair
PUBLIC	?SetManual@ObjectiveClass@@QAEXH@Z		; ObjectiveClass::SetManual
PUBLIC	?SetJammed@ObjectiveClass@@QAEXH@Z		; ObjectiveClass::SetJammed
PUBLIC	?SetSamSite@ObjectiveClass@@QAEXH@Z		; ObjectiveClass::SetSamSite
PUBLIC	?SetArtillerySite@ObjectiveClass@@QAEXH@Z	; ObjectiveClass::SetArtillerySite
PUBLIC	?SetAmbushCAPSite@ObjectiveClass@@QAEXH@Z	; ObjectiveClass::SetAmbushCAPSite
PUBLIC	?SetBorderSite@ObjectiveClass@@QAEXH@Z		; ObjectiveClass::SetBorderSite
PUBLIC	?SetMountainSite@ObjectiveClass@@QAEXH@Z	; ObjectiveClass::SetMountainSite
PUBLIC	?SetCommandoSite@ObjectiveClass@@QAEXH@Z	; ObjectiveClass::SetCommandoSite
PUBLIC	?SetFlatSite@ObjectiveClass@@QAEXH@Z		; ObjectiveClass::SetFlatSite
PUBLIC	?SetRadarSite@ObjectiveClass@@QAEXH@Z		; ObjectiveClass::SetRadarSite
PUBLIC	?SetAbandoned@ObjectiveClass@@QAEXH@Z		; ObjectiveClass::SetAbandoned
PUBLIC	?SetNeedRepair@ObjectiveClass@@QAEXH@Z		; ObjectiveClass::SetNeedRepair
PUBLIC	?MakeObjectiveDirty@ObjectiveClass@@QAEXW4Dirty_Objective@@W4Dirtyness@@@Z ; ObjectiveClass::MakeObjectiveDirty
PUBLIC	?WriteDirty@ObjectiveClass@@QAEXPAPAE@Z		; ObjectiveClass::WriteDirty
PUBLIC	?ReadDirty@ObjectiveClass@@QAEXPAPAEPAJ@Z	; ObjectiveClass::ReadDirty
PUBLIC	?SetOwner@ObjectiveClass@@UAEXE@Z		; ObjectiveClass::SetOwner
PUBLIC	?SetObjectiveParent@ObjectiveClass@@QAEXVVU_ID@@@Z ; ObjectiveClass::SetObjectiveParent
PUBLIC	?SetObjectiveNameID@ObjectiveClass@@QAEXF@Z	; ObjectiveClass::SetObjectiveNameID
PUBLIC	?SetObjectiveName@ObjectiveClass@@QAEXPAD@Z	; ObjectiveClass::SetObjectiveName
PUBLIC	?SetObjectiveScore@ObjectiveClass@@QAEXF@Z	; ObjectiveClass::SetObjectiveScore
PUBLIC	?SetObjectiveRepairTime@ObjectiveClass@@QAEXK@Z	; ObjectiveClass::SetObjectiveRepairTime
PUBLIC	?SetObjectiveStatus@ObjectiveClass@@QAEXE@Z	; ObjectiveClass::SetObjectiveStatus
PUBLIC	?SetObjectiveType@ObjectiveClass@@QAEXE@Z	; ObjectiveClass::SetObjectiveType
PUBLIC	?SetObjectiveSType@ObjectiveClass@@QAEXE@Z	; ObjectiveClass::SetObjectiveSType
PUBLIC	?SetObjectiveClass@ObjectiveClass@@QAEXH@Z	; ObjectiveClass::SetObjectiveClass
PUBLIC	?SetFeatureStatus@ObjectiveClass@@QAEXHH@Z	; ObjectiveClass::SetFeatureStatus
PUBLIC	?SetFeatureStatus@ObjectiveClass@@QAEXHHH@Z	; ObjectiveClass::SetFeatureStatus
PUBLIC	?GetNeighborId@ObjectiveClass@@QAE?AVVU_ID@@H@Z	; ObjectiveClass::GetNeighborId
PUBLIC	?GetNeighbor@ObjectiveClass@@QAEPAV1@H@Z	; ObjectiveClass::GetNeighbor
PUBLIC	?GetObjectiveOldown@ObjectiveClass@@QAEEXZ	; ObjectiveClass::GetObjectiveOldown
PUBLIC	?GetObjectiveParent@ObjectiveClass@@QAEPAV1@XZ	; ObjectiveClass::GetObjectiveParent
PUBLIC	?GetObjectiveSecondary@ObjectiveClass@@QAEPAV1@XZ ; ObjectiveClass::GetObjectiveSecondary
PUBLIC	?GetObjectivePrimary@ObjectiveClass@@QAEPAV1@XZ	; ObjectiveClass::GetObjectivePrimary
PUBLIC	?GetObjectiveParentID@ObjectiveClass@@QAE?AVVU_ID@@XZ ; ObjectiveClass::GetObjectiveParentID
PUBLIC	?GetObjectiveNameID@ObjectiveClass@@QAEHXZ	; ObjectiveClass::GetObjectiveNameID
PUBLIC	?GetObjectivePriority@ObjectiveClass@@QAEFXZ	; ObjectiveClass::GetObjectivePriority
PUBLIC	?GetObjectiveStatus@ObjectiveClass@@QAEEXZ	; ObjectiveClass::GetObjectiveStatus
PUBLIC	?GetObjectiveScore@ObjectiveClass@@QAEHXZ	; ObjectiveClass::GetObjectiveScore
PUBLIC	?GetObjectiveRepairTime@ObjectiveClass@@QAEKXZ	; ObjectiveClass::GetObjectiveRepairTime
PUBLIC	?GetObjectiveDataRate@ObjectiveClass@@QAEFXZ	; ObjectiveClass::GetObjectiveDataRate
PUBLIC	?GetAdjustedDataRate@ObjectiveClass@@QAEFXZ	; ObjectiveClass::GetAdjustedDataRate
PUBLIC	?GetTotalFeatures@ObjectiveClass@@QAEFXZ	; ObjectiveClass::GetTotalFeatures
PUBLIC	?GetFeatureStatus@ObjectiveClass@@QAEHH@Z	; ObjectiveClass::GetFeatureStatus
PUBLIC	?GetFeatureValue@ObjectiveClass@@QAEHH@Z	; ObjectiveClass::GetFeatureValue
PUBLIC	?GetFeatureRepairTime@ObjectiveClass@@QAEHH@Z	; ObjectiveClass::GetFeatureRepairTime
PUBLIC	?GetFeatureID@ObjectiveClass@@QAEHH@Z		; ObjectiveClass::GetFeatureID
PUBLIC	?GetFeatureOffset@ObjectiveClass@@QAEHHPAM00@Z	; ObjectiveClass::GetFeatureOffset
PUBLIC	?GetObjectiveClassData@ObjectiveClass@@QAEPAUObjClassDataType@@XZ ; ObjectiveClass::GetObjectiveClassData
PUBLIC	?GetExpectedStatus@ObjectiveClass@@QAEEH@Z	; ObjectiveClass::GetExpectedStatus
PUBLIC	?GetRepairTime@ObjectiveClass@@QAEHH@Z		; ObjectiveClass::GetRepairTime
PUBLIC	?GetBestTarget@ObjectiveClass@@QAEEXZ		; ObjectiveClass::GetBestTarget
PUBLIC	?ResetObjectiveStatus@ObjectiveClass@@QAEXXZ	; ObjectiveClass::ResetObjectiveStatus
PUBLIC	?RepairFeature@ObjectiveClass@@QAEXH@Z		; ObjectiveClass::RepairFeature
PUBLIC	?RecalculateParent@ObjectiveClass@@QAEXXZ	; ObjectiveClass::RecalculateParent
PUBLIC	??_GObjectiveClass@@UAEPAXI@Z			; ObjectiveClass::`scalar deleting destructor'
PUBLIC	?NewObjective@@YAPAVObjectiveClass@@XZ		; NewObjective
PUBLIC	?NewObjective@@YAPAVObjectiveClass@@FPAPAEPAJ@Z	; NewObjective
PUBLIC	?LoadBaseObjectives@@YAHPAD@Z			; LoadBaseObjectives
PUBLIC	?LoadObjectiveDeltas@@YAHPAD@Z			; LoadObjectiveDeltas
PUBLIC	?SaveBaseObjectives@@YAXPAD@Z			; SaveBaseObjectives
PUBLIC	?SaveObjectiveDeltas@@YAXPAD@Z			; SaveObjectiveDeltas
PUBLIC	?BestRepairFeature@@YAHPAVObjectiveClass@@PAH@Z	; BestRepairFeature
PUBLIC	?BestTargetFeature@@YAHPAVObjectiveClass@@QAE@Z	; BestTargetFeature
PUBLIC	?RepairObjectives@@YAXXZ			; RepairObjectives
PUBLIC	?GetChildObjectives@@YAPAVFalconPrivateList@@PAVObjectiveClass@@HH@Z ; GetChildObjectives
PUBLIC	?GetFirstObjective@@YAPAVObjectiveClass@@PAVVuListIterator@@@Z ; GetFirstObjective
PUBLIC	?GetNextObjective@@YAPAVObjectiveClass@@PAVVuListIterator@@@Z ; GetNextObjective
PUBLIC	?GetFirstObjective@@YAPAVObjectiveClass@@PAVVuGridIterator@@@Z ; GetFirstObjective
PUBLIC	?GetNextObjective@@YAPAVObjectiveClass@@PAVVuGridIterator@@@Z ; GetNextObjective
PUBLIC	?CaptureObjective@@YAXPAVObjectiveClass@@EPAVUnitClass@@@Z ; CaptureObjective
PUBLIC	?EncodeObjectiveDeltas@@YAHPAPAEPAVFalconSessionEntity@@@Z ; EncodeObjectiveDeltas
PUBLIC	?DecodeObjectiveDeltas@@YAHPAPAEPAJPAVFalconSessionEntity@@@Z ; DecodeObjectiveDeltas
PUBLIC	?GetSlot@SimBaseClass@@QAEHXZ			; SimBaseClass::GetSlot
PUBLIC	?Status@SimBaseClass@@QBEHXZ			; SimBaseClass::Status
PUBLIC	??0id@locale@std@@QAE@I@Z			; std::locale::id::id
PUBLIC	?generic_category@std@@YAABVerror_category@1@XZ	; std::generic_category
PUBLIC	?system_category@std@@YAABVerror_category@1@XZ	; std::system_category
PUBLIC	??0error_category@std@@QAE@XZ			; std::error_category::error_category
PUBLIC	??1error_category@std@@UAE@XZ			; std::error_category::~error_category
PUBLIC	?default_error_condition@error_category@std@@UBE?AVerror_condition@2@H@Z ; std::error_category::default_error_condition
PUBLIC	?equivalent@error_category@std@@UBE_NHABVerror_condition@2@@Z ; std::error_category::equivalent
PUBLIC	?equivalent@error_category@std@@UBE_NABVerror_code@2@H@Z ; std::error_category::equivalent
PUBLIC	??8error_category@std@@QBE_NABV01@@Z		; std::error_category::operator==
PUBLIC	??_Gerror_category@std@@UAEPAXI@Z		; std::error_category::`scalar deleting destructor'
PUBLIC	?value@error_code@std@@QBEHXZ			; std::error_code::value
PUBLIC	?category@error_code@std@@QBEABVerror_category@2@XZ ; std::error_code::category
PUBLIC	??0error_condition@std@@QAE@HABVerror_category@1@@Z ; std::error_condition::error_condition
PUBLIC	?value@error_condition@std@@QBEHXZ		; std::error_condition::value
PUBLIC	?category@error_condition@std@@QBEABVerror_category@2@XZ ; std::error_condition::category
PUBLIC	??8error_condition@std@@QBE_NABV01@@Z		; std::error_condition::operator==
PUBLIC	??0_Generic_error_category@std@@QAE@XZ		; std::_Generic_error_category::_Generic_error_category
PUBLIC	?name@_Generic_error_category@std@@UBEPBDXZ	; std::_Generic_error_category::name
PUBLIC	?message@_Generic_error_category@std@@UBE?AV?$basic_string@DU?$char_traits@D@std@@V?$allocator@D@2@@2@H@Z ; std::_Generic_error_category::message
PUBLIC	??1_Generic_error_category@std@@UAE@XZ		; std::_Generic_error_category::~_Generic_error_category
PUBLIC	??_G_Generic_error_category@std@@UAEPAXI@Z	; std::_Generic_error_category::`scalar deleting destructor'
PUBLIC	??0_Iostream_error_category@std@@QAE@XZ		; std::_Iostream_error_category::_Iostream_error_category
PUBLIC	?name@_Iostream_error_category@std@@UBEPBDXZ	; std::_Iostream_error_category::name
PUBLIC	?message@_Iostream_error_category@std@@UBE?AV?$basic_string@DU?$char_traits@D@std@@V?$allocator@D@2@@2@H@Z ; std::_Iostream_error_category::message
PUBLIC	??1_Iostream_error_category@std@@UAE@XZ		; std::_Iostream_error_category::~_Iostream_error_category
PUBLIC	??_G_Iostream_error_category@std@@UAEPAXI@Z	; std::_Iostream_error_category::`scalar deleting destructor'
PUBLIC	??0_System_error_category@std@@QAE@XZ		; std::_System_error_category::_System_error_category
PUBLIC	?name@_System_error_category@std@@UBEPBDXZ	; std::_System_error_category::name
PUBLIC	?message@_System_error_category@std@@UBE?AV?$basic_string@DU?$char_traits@D@std@@V?$allocator@D@2@@2@H@Z ; std::_System_error_category::message
PUBLIC	?default_error_condition@_System_error_category@std@@UBE?AVerror_condition@2@H@Z ; std::_System_error_category::default_error_condition
PUBLIC	??1_System_error_category@std@@UAE@XZ		; std::_System_error_category::~_System_error_category
PUBLIC	??_G_System_error_category@std@@UAEPAXI@Z	; std::_System_error_category::`scalar deleting destructor'
PUBLIC	?GetGame@FalconSessionEntity@@QAEPAVFalconGameEntity@@XZ ; FalconSessionEntity::GetGame
PUBLIC	?AddChildObjectives@@YAXPAVObjectiveClass@@0PAVFalconPrivateList@@HHH@Z ; AddChildObjectives
PUBLIC	??$construct@PADAAPAD@?$_Wrap_alloc@V?$allocator@D@std@@@std@@QAEXPAPADAAPAD@Z ; std::_Wrap_alloc<std::allocator<char> >::construct<char *,char * &>
PUBLIC	??$destroy@PAD@?$_Wrap_alloc@V?$allocator@D@std@@@std@@QAEXPAPAD@Z ; std::_Wrap_alloc<std::allocator<char> >::destroy<char *>
PUBLIC	??$addressof@D@std@@YAPADAAD@Z			; std::addressof<char>
PUBLIC	??$_Allocate@D@std@@YAPADIPAD@Z			; std::_Allocate<char>
PUBLIC	??$forward@AAPAD@std@@YAAAPADAAPAD@Z		; std::forward<char * &>
PUBLIC	??$construct@PADAAPAD@?$allocator_traits@V?$allocator@D@std@@@std@@SAXAAV?$allocator@D@1@PAPADAAPAD@Z ; std::allocator_traits<std::allocator<char> >::construct<char *,char * &>
PUBLIC	??$destroy@PAD@?$allocator_traits@V?$allocator@D@std@@@std@@SAXAAV?$allocator@D@1@PAPAD@Z ; std::allocator_traits<std::allocator<char> >::destroy<char *>
PUBLIC	??$construct@PADAAPAD@?$allocator@D@std@@QAEXPAPADAAPAD@Z ; std::allocator<char>::construct<char *,char * &>
PUBLIC	??$destroy@PAD@?$allocator@D@std@@QAEXPAPAD@Z	; std::allocator<char>::destroy<char *>
PUBLIC	??_7logic_error@std@@6B@			; std::logic_error::`vftable'
PUBLIC	??_7out_of_range@std@@6B@			; std::out_of_range::`vftable'
PUBLIC	??_7InvalidBufferException@@6B@			; InvalidBufferException::`vftable'
PUBLIC	??_C@_0CI@MPKJAHJH@Trying?5to?5write?5?$CFlu?5bytes?5to?5?$CFld@ ; `string'
PUBLIC	__TI4?AVInvalidBufferException@@
PUBLIC	__CTA4?AVInvalidBufferException@@
PUBLIC	??_R0?AVInvalidBufferException@@@8		; InvalidBufferException `RTTI Type Descriptor'
PUBLIC	__CT??_R0?AVInvalidBufferException@@@8??0InvalidBufferException@@QAE@ABV0@@Z12
PUBLIC	??_R0?AVout_of_range@std@@@8			; std::out_of_range `RTTI Type Descriptor'
PUBLIC	__CT??_R0?AVout_of_range@std@@@8??0out_of_range@std@@QAE@ABV01@@Z12
PUBLIC	??_R0?AVlogic_error@std@@@8			; std::logic_error `RTTI Type Descriptor'
PUBLIC	__CT??_R0?AVlogic_error@std@@@8??0logic_error@std@@QAE@ABV01@@Z12
PUBLIC	??_R0?AVexception@std@@@8			; std::exception `RTTI Type Descriptor'
PUBLIC	__CT??_R0?AVexception@std@@@8??0exception@std@@QAE@ABV01@@Z12
PUBLIC	??_C@_04OHJIHAFH@None?$AA@			; `string'
PUBLIC	??_7ObjectiveClass@@6B@				; ObjectiveClass::`vftable'
PUBLIC	??_7error_category@std@@6B@			; std::error_category::`vftable'
PUBLIC	??_7_Generic_error_category@std@@6B@		; std::_Generic_error_category::`vftable'
PUBLIC	??_C@_07DCLBNMLN@generic?$AA@			; `string'
PUBLIC	??_C@_0O@BFJCFAAK@unknown?5error?$AA@		; `string'
PUBLIC	??_7_Iostream_error_category@std@@6B@		; std::_Iostream_error_category::`vftable'
PUBLIC	??_C@_08LLGCOLLL@iostream?$AA@			; `string'
PUBLIC	??_C@_0BG@PADBLCHM@iostream?5stream?5error?$AA@	; `string'
PUBLIC	??_7_System_error_category@std@@6B@		; std::_System_error_category::`vftable'
PUBLIC	??_C@_06FHFOAHML@system?$AA@			; `string'
PUBLIC	?_Generic_object@?$_Error_objects@H@std@@2V_Generic_error_category@2@A ; std::_Error_objects<int>::_Generic_object
PUBLIC	?_Iostream_object@?$_Error_objects@H@std@@2V_Iostream_error_category@2@A ; std::_Error_objects<int>::_Iostream_object
PUBLIC	?_System_object@?$_Error_objects@H@std@@2V_System_error_category@2@A ; std::_Error_objects<int>::_System_object
PUBLIC	?id@?$num_put@DV?$back_insert_iterator@V?$basic_string@DU?$char_traits@D@std@@V?$allocator@D@2@@std@@@std@@@std@@2V0locale@2@A ; std::num_put<char,std::back_insert_iterator<std::basic_string<char,std::char_traits<char>,std::allocator<char> > > >::id
PUBLIC	?id@?$num_put@_WV?$back_insert_iterator@V?$basic_string@_WU?$char_traits@_W@std@@V?$allocator@_W@2@@std@@@std@@@std@@2V0locale@2@A ; std::num_put<wchar_t,std::back_insert_iterator<std::basic_string<wchar_t,std::char_traits<wchar_t>,std::allocator<wchar_t> > > >::id
PUBLIC	??_C@_07JKKEGLBA@?$CFs?5d?8?$CFs?$AA@		; `string'
PUBLIC	??_C@_08GEODDHCD@?$CFs?5de?5?$CFs?$AA@		; `string'
PUBLIC	??_C@_05DNIIFBMG@?$CFs?5?$CFs?$AA@		; `string'
PUBLIC	??_C@_02DKCKIIND@?$CFs?$AA@			; `string'
PUBLIC	??_C@_03GJLPFLNF@obj?$AA@			; `string'
PUBLIC	??_C@_0N@IJKHBDDD@Objectiv?4cpp?$AA@		; `string'
PUBLIC	??_C@_0CK@KOLCPHPM@?$CFs?5?$CFd?3?5error?5creating?5object?5fro@ ; `string'
PUBLIC	??_C@_03PHDMHGFL@obd?$AA@			; `string'
PUBLIC	??_C@_02GMLFBBN@wb?$AA@				; `string'
PUBLIC	?id@?$numpunct@D@std@@2V0locale@2@A		; std::numpunct<char>::id
PUBLIC	?id@?$numpunct@_W@std@@2V0locale@2@A		; std::numpunct<wchar_t>::id
PUBLIC	??_C@_0BI@CFPLBAOH@invalid?5string?5position?$AA@ ; `string'
PUBLIC	??_C@_0BA@JFNIOLAK@string?5too?5long?$AA@	; `string'
PUBLIC	??_R1A@?0A@EA@exception@std@@8			; std::exception::`RTTI Base Class Descriptor at (0,-1,0,64)'
PUBLIC	??_R3exception@std@@8				; std::exception::`RTTI Class Hierarchy Descriptor'
PUBLIC	??_R2exception@std@@8				; std::exception::`RTTI Base Class Array'
PUBLIC	??_R4logic_error@std@@6B@			; std::logic_error::`RTTI Complete Object Locator'
PUBLIC	??_R3logic_error@std@@8				; std::logic_error::`RTTI Class Hierarchy Descriptor'
PUBLIC	??_R2logic_error@std@@8				; std::logic_error::`RTTI Base Class Array'
PUBLIC	??_R1A@?0A@EA@logic_error@std@@8		; std::logic_error::`RTTI Base Class Descriptor at (0,-1,0,64)'
PUBLIC	??_R4out_of_range@std@@6B@			; std::out_of_range::`RTTI Complete Object Locator'
PUBLIC	??_R3out_of_range@std@@8			; std::out_of_range::`RTTI Class Hierarchy Descriptor'
PUBLIC	??_R2out_of_range@std@@8			; std::out_of_range::`RTTI Base Class Array'
PUBLIC	??_R1A@?0A@EA@out_of_range@std@@8		; std::out_of_range::`RTTI Base Class Descriptor at (0,-1,0,64)'
PUBLIC	??_R4ObjectiveClass@@6B@			; ObjectiveClass::`RTTI Complete Object Locator'
PUBLIC	??_R0?AVObjectiveClass@@@8			; ObjectiveClass `RTTI Type Descriptor'
PUBLIC	??_R3ObjectiveClass@@8				; ObjectiveClass::`RTTI Class Hierarchy Descriptor'
PUBLIC	??_R2ObjectiveClass@@8				; ObjectiveClass::`RTTI Base Class Array'
PUBLIC	??_R1A@?0A@EA@ObjectiveClass@@8			; ObjectiveClass::`RTTI Base Class Descriptor at (0,-1,0,64)'
PUBLIC	??_R1A@?0A@EA@CampBaseClass@@8			; CampBaseClass::`RTTI Base Class Descriptor at (0,-1,0,64)'
PUBLIC	??_R0?AVCampBaseClass@@@8			; CampBaseClass `RTTI Type Descriptor'
PUBLIC	??_R3CampBaseClass@@8				; CampBaseClass::`RTTI Class Hierarchy Descriptor'
PUBLIC	??_R2CampBaseClass@@8				; CampBaseClass::`RTTI Base Class Array'
PUBLIC	??_R1A@?0A@EA@FalconEntity@@8			; FalconEntity::`RTTI Base Class Descriptor at (0,-1,0,64)'
PUBLIC	??_R0?AVFalconEntity@@@8			; FalconEntity `RTTI Type Descriptor'
PUBLIC	??_R3FalconEntity@@8				; FalconEntity::`RTTI Class Hierarchy Descriptor'
PUBLIC	??_R2FalconEntity@@8				; FalconEntity::`RTTI Base Class Array'
PUBLIC	??_R1A@?0A@EA@VuEntity@@8			; VuEntity::`RTTI Base Class Descriptor at (0,-1,0,64)'
PUBLIC	??_R0?AVVuEntity@@@8				; VuEntity `RTTI Type Descriptor'
PUBLIC	??_R3VuEntity@@8				; VuEntity::`RTTI Class Hierarchy Descriptor'
PUBLIC	??_R2VuEntity@@8				; VuEntity::`RTTI Base Class Array'
PUBLIC	??_R4InvalidBufferException@@6B@		; InvalidBufferException::`RTTI Complete Object Locator'
PUBLIC	??_R3InvalidBufferException@@8			; InvalidBufferException::`RTTI Class Hierarchy Descriptor'
PUBLIC	??_R2InvalidBufferException@@8			; InvalidBufferException::`RTTI Base Class Array'
PUBLIC	??_R1A@?0A@EA@InvalidBufferException@@8		; InvalidBufferException::`RTTI Base Class Descriptor at (0,-1,0,64)'
PUBLIC	??_R4error_category@std@@6B@			; std::error_category::`RTTI Complete Object Locator'
PUBLIC	??_R0?AVerror_category@std@@@8			; std::error_category `RTTI Type Descriptor'
PUBLIC	??_R3error_category@std@@8			; std::error_category::`RTTI Class Hierarchy Descriptor'
PUBLIC	??_R2error_category@std@@8			; std::error_category::`RTTI Base Class Array'
PUBLIC	??_R1A@?0A@EA@error_category@std@@8		; std::error_category::`RTTI Base Class Descriptor at (0,-1,0,64)'
PUBLIC	??_R4_Generic_error_category@std@@6B@		; std::_Generic_error_category::`RTTI Complete Object Locator'
PUBLIC	??_R0?AV_Generic_error_category@std@@@8		; std::_Generic_error_category `RTTI Type Descriptor'
PUBLIC	??_R3_Generic_error_category@std@@8		; std::_Generic_error_category::`RTTI Class Hierarchy Descriptor'
PUBLIC	??_R2_Generic_error_category@std@@8		; std::_Generic_error_category::`RTTI Base Class Array'
PUBLIC	??_R1A@?0A@EA@_Generic_error_category@std@@8	; std::_Generic_error_category::`RTTI Base Class Descriptor at (0,-1,0,64)'
PUBLIC	??_R4_Iostream_error_category@std@@6B@		; std::_Iostream_error_category::`RTTI Complete Object Locator'
PUBLIC	??_R0?AV_Iostream_error_category@std@@@8	; std::_Iostream_error_category `RTTI Type Descriptor'
PUBLIC	??_R3_Iostream_error_category@std@@8		; std::_Iostream_error_category::`RTTI Class Hierarchy Descriptor'
PUBLIC	??_R2_Iostream_error_category@std@@8		; std::_Iostream_error_category::`RTTI Base Class Array'
PUBLIC	??_R1A@?0A@EA@_Iostream_error_category@std@@8	; std::_Iostream_error_category::`RTTI Base Class Descriptor at (0,-1,0,64)'
PUBLIC	??_R4_System_error_category@std@@6B@		; std::_System_error_category::`RTTI Complete Object Locator'
PUBLIC	??_R0?AV_System_error_category@std@@@8		; std::_System_error_category `RTTI Type Descriptor'
PUBLIC	??_R3_System_error_category@std@@8		; std::_System_error_category::`RTTI Class Hierarchy Descriptor'
PUBLIC	??_R2_System_error_category@std@@8		; std::_System_error_category::`RTTI Base Class Array'
PUBLIC	??_R1A@?0A@EA@_System_error_category@std@@8	; std::_System_error_category::`RTTI Base Class Descriptor at (0,-1,0,64)'
PUBLIC	__real@00000000
PUBLIC	__real@3c8ef998
PUBLIC	__real@3c8efa34
PUBLIC	__real@3f800000
PUBLIC	__real@40000000
PUBLIC	__real@40100000
PUBLIC	__real@40c90fdb
PUBLIC	__real@42c80000
PUBLIC	__real@451c4000
PUBLIC	__real@454cffae
PUBLIC	__real@459c4000
EXTRN	__purecall:PROC
EXTRN	??2@YAPAXI@Z:PROC				; operator new
EXTRN	??3@YAXPAX@Z:PROC				; operator delete
EXTRN	_atexit:PROC
EXTRN	___report_rangecheckfailure:PROC
EXTRN	___iob_func:PROC
EXTRN	_fprintf:PROC
EXTRN	_fwrite:PROC
EXTRN	__snprintf:PROC
EXTRN	_sprintf:PROC
EXTRN	_rand:PROC
EXTRN	_memcpy:PROC
EXTRN	_memset:PROC
EXTRN	_strcmp:PROC
EXTRN	_strlen:PROC
EXTRN	_memmove:PROC
EXTRN	?SetEntityType@VuEntity@@QAEXG@Z:PROC		; VuEntity::SetEntityType
EXTRN	?IsLocal@VuEntity@@QBEEXZ:PROC			; VuEntity::IsLocal
EXTRN	?CustomCollisionCheck@VuEntity@@UAEEPAV1@M@Z:PROC ; VuEntity::CustomCollisionCheck
EXTRN	?TerrainCollisionCheck@VuEntity@@UAEEXZ:PROC	; VuEntity::TerrainCollisionCheck
EXTRN	?IsTarget@VuEntity@@UAEEXZ:PROC			; VuEntity::IsTarget
EXTRN	?IsSession@VuEntity@@UAEEXZ:PROC		; VuEntity::IsSession
EXTRN	?IsGroup@VuEntity@@UAEEXZ:PROC			; VuEntity::IsGroup
EXTRN	?IsGame@VuEntity@@UAEEXZ:PROC			; VuEntity::IsGame
EXTRN	?IsCamera@VuEntity@@UBEEXZ:PROC			; VuEntity::IsCamera
EXTRN	?Handle@VuEntity@@UAEHPAVVuErrorMessage@@@Z:PROC ; VuEntity::Handle
EXTRN	?Handle@VuEntity@@UAEHPAVVuPushRequest@@@Z:PROC	; VuEntity::Handle
EXTRN	?Handle@VuEntity@@UAEHPAVVuPullRequest@@@Z:PROC	; VuEntity::Handle
EXTRN	?InsertionCallback@VuEntity@@MAEHXZ:PROC	; VuEntity::InsertionCallback
EXTRN	??0exception@std@@QAE@ABQBD@Z:PROC		; std::exception::exception
EXTRN	??0exception@std@@QAE@ABV01@@Z:PROC		; std::exception::exception
EXTRN	??1exception@std@@UAE@XZ:PROC			; std::exception::~exception
EXTRN	?what@exception@std@@UBEPBDXZ:PROC		; std::exception::what
EXTRN	??_V@YAXPAX@Z:PROC				; operator delete[]
EXTRN	??_U@YAPAXI@Z:PROC				; operator new[]
EXTRN	?_Xbad_alloc@std@@YAXXZ:PROC			; std::_Xbad_alloc
EXTRN	?_Xlength_error@std@@YAXPBD@Z:PROC		; std::_Xlength_error
EXTRN	?_Xout_of_range@std@@YAXPBD@Z:PROC		; std::_Xout_of_range
EXTRN	??_Elogic_error@std@@UAEPAXI@Z:PROC		; std::logic_error::`vector deleting destructor'
EXTRN	??_Eout_of_range@std@@UAEPAXI@Z:PROC		; std::out_of_range::`vector deleting destructor'
EXTRN	?Register@VuCollection@@QAEXXZ:PROC		; VuCollection::Register
EXTRN	?Unregister@VuCollection@@QAEXXZ:PROC		; VuCollection::Unregister
EXTRN	?ForcedInsert@VuCollection@@QAEHPAVVuEntity@@@Z:PROC ; VuCollection::ForcedInsert
EXTRN	?Remove@VuCollection@@QAEHPAVVuEntity@@@Z:PROC	; VuCollection::Remove
EXTRN	?Find@VuCollection@@QBE_NPAVVuEntity@@@Z:PROC	; VuCollection::Find
EXTRN	?Insert@VuDatabase@@QAEHPAVVuEntity@@@Z:PROC	; VuDatabase::Insert
EXTRN	?Find@VuDatabase@@QBEPAVVuEntity@@VVU_ID@@@Z:PROC ; VuDatabase::Find
EXTRN	?Game@VuSessionEntity@@QAEPAVVuGameEntity@@XZ:PROC ; VuSessionEntity::Game
EXTRN	??0VuListIterator@@QAE@PAVVuLinkedList@@@Z:PROC	; VuListIterator::VuListIterator
EXTRN	??1VuListIterator@@UAE@XZ:PROC			; VuListIterator::~VuListIterator
EXTRN	?GetFirst@VuListIterator@@QAEPAVVuEntity@@XZ:PROC ; VuListIterator::GetFirst
EXTRN	?GetNext@VuListIterator@@QAEPAVVuEntity@@XZ:PROC ; VuListIterator::GetNext
EXTRN	??0VuGridIterator@@QAE@PAVVuGridTree@@MMM@Z:PROC ; VuGridIterator::VuGridIterator
EXTRN	??1VuGridIterator@@UAE@XZ:PROC			; VuGridIterator::~VuGridIterator
EXTRN	?GetFirst@VuGridIterator@@QAEPAVVuEntity@@XZ:PROC ; VuGridIterator::GetFirst
EXTRN	?GetNext@VuGridIterator@@QAEPAVVuEntity@@XZ:PROC ; VuGridIterator::GetNext
EXTRN	?Save@FalconEntity@@UAEHPAU_iobuf@@@Z:PROC	; FalconEntity::Save
EXTRN	?CleanupData@FalconEntity@@UAEXXZ:PROC		; FalconEntity::CleanupData
EXTRN	?RemovalCallback@FalconEntity@@UAEHXZ:PROC	; FalconEntity::RemovalCallback
EXTRN	?GetDomain@FalconEntity@@UAEEXZ:PROC		; FalconEntity::GetDomain
EXTRN	?GetLocation@FalconEntity@@QBEXPAF0@Z:PROC	; FalconEntity::GetLocation
EXTRN	?MakeDirty@FalconEntity@@QAEXW4Dirty_Class@@W4Dirtyness@@@Z:PROC ; FalconEntity::MakeDirty
EXTRN	??0TailInsertList@@QAE@PAVVuFilter@@@Z:PROC	; TailInsertList::TailInsertList
EXTRN	?ForcedInsert@TailInsertList@@QAEHPAVVuEntity@@@Z:PROC ; TailInsertList::ForcedInsert
EXTRN	??0FalconPrivateList@@QAE@PAVVuFilter@@@Z:PROC	; FalconPrivateList::FalconPrivateList
EXTRN	?ForcedInsert@FalconPrivateList@@QAEHPAVVuEntity@@@Z:PROC ; FalconPrivateList::ForcedInsert
EXTRN	?Camp_GetCurrentTime@@YAKXZ:PROC		; Camp_GetCurrentTime
EXTRN	?OpenCampFile@@YAPAU_iobuf@@PAD00@Z:PROC	; OpenCampFile
EXTRN	__ismbclower:PROC
EXTRN	?GetWeaponStrength@@YAHH@Z:PROC			; GetWeaponStrength
EXTRN	?GetWeaponHitChance@@YAHHHH@Z:PROC		; GetWeaponHitChance
EXTRN	?GetWeaponDamageType@@YAHH@Z:PROC		; GetWeaponDamageType
EXTRN	?GetWeaponFlags@@YAHH@Z:PROC			; GetWeaponFlags
EXTRN	?GetClassID@@YAHEEEEEEEE@Z:PROC			; GetClassID
EXTRN	?MapVisId@@YAKK@Z:PROC				; MapVisId
EXTRN	?FalconSendMessage@@YAXPAVVuMessage@@H@Z:PROC	; FalconSendMessage
EXTRN	??_EInvalidBufferException@@UAEPAXI@Z:PROC	; InvalidBufferException::`vector deleting destructor'
EXTRN	?GetIdFromNamespace@@YAKAAVIdNamespace@@@Z:PROC	; GetIdFromNamespace
EXTRN	?GetTeam@@YAEE@Z:PROC				; GetTeam
EXTRN	?SetOwner@CampBaseClass@@UAEXE@Z:PROC		; CampBaseClass::SetOwner
EXTRN	?SetComponents@CampBaseClass@@QAEXPAVTailInsertList@@@Z:PROC ; CampBaseClass::SetComponents
EXTRN	?SetDeagOwner@CampBaseClass@@QAEXVVU_ID@@@Z:PROC ; CampBaseClass::SetDeagOwner
EXTRN	??0CampBaseClass@@QAE@GK@Z:PROC			; CampBaseClass::CampBaseClass
EXTRN	??0CampBaseClass@@QAE@PAPAEPAJ@Z:PROC		; CampBaseClass::CampBaseClass
EXTRN	??1CampBaseClass@@UAE@XZ:PROC			; CampBaseClass::~CampBaseClass
EXTRN	?InitData@CampBaseClass@@UAEXXZ:PROC		; CampBaseClass::InitData
EXTRN	?SaveSize@CampBaseClass@@UAEHXZ:PROC		; CampBaseClass::SaveSize
EXTRN	?Save@CampBaseClass@@UAEHPAPAE@Z:PROC		; CampBaseClass::Save
EXTRN	?Handle@CampBaseClass@@UAEHPAVVuEvent@@@Z:PROC	; CampBaseClass::Handle
EXTRN	?Handle@CampBaseClass@@UAEHPAVVuFullUpdateEvent@@@Z:PROC ; CampBaseClass::Handle
EXTRN	?Handle@CampBaseClass@@UAEHPAVVuPositionUpdateEvent@@@Z:PROC ; CampBaseClass::Handle
EXTRN	?Handle@CampBaseClass@@UAEHPAVVuEntityCollisionEvent@@@Z:PROC ; CampBaseClass::Handle
EXTRN	?Handle@CampBaseClass@@UAEHPAVVuTransferEvent@@@Z:PROC ; CampBaseClass::Handle
EXTRN	?Handle@CampBaseClass@@UAEHPAVVuSessionEvent@@@Z:PROC ; CampBaseClass::Handle
EXTRN	?Remove@CampBaseClass@@QAEHXZ:PROC		; CampBaseClass::Remove
EXTRN	?SetAggregate@CampBaseClass@@QAEX_N@Z:PROC	; CampBaseClass::SetAggregate
EXTRN	?SetTacan@CampBaseClass@@QAEXH@Z:PROC		; CampBaseClass::SetTacan
EXTRN	?SetAwake@CampBaseClass@@QAEXH@Z:PROC		; CampBaseClass::SetAwake
EXTRN	?SetDelta@CampBaseClass@@QAEXH@Z:PROC		; CampBaseClass::SetDelta
EXTRN	?SetInSimLists@CampBaseClass@@QAEXH@Z:PROC	; CampBaseClass::SetInSimLists
EXTRN	?GetEntityClass@@YAFPAVVuEntity@@@Z:PROC	; GetEntityClass
EXTRN	?GetVisualDetectionRange@@YAHH@Z:PROC		; GetVisualDetectionRange
EXTRN	?GetVehicleClassData@@YAPAUVehicleClassDataType@@H@Z:PROC ; GetVehicleClassData
EXTRN	_F4EnterCriticalSection:PROC
EXTRN	_F4LeaveCriticalSection:PROC
EXTRN	?CloseCampFile@@YAXPAU_iobuf@@@Z:PROC		; CloseCampFile
EXTRN	?ReadCampFile@@YA?AUCampaignData@@PAD0@Z:PROC	; ReadCampFile
EXTRN	??0FalconCampEventMessage@@QAE@VVU_ID@@PAVVuTargetEntity@@E@Z:PROC ; FalconCampEventMessage::FalconCampEventMessage
EXTRN	?SendCampUIMessage@@YAXPAVFalconCampEventMessage@@@Z:PROC ; SendCampUIMessage
EXTRN	?GetUnitClassData@UnitClass@@QAEPAUUnitClassDataType@@XZ:PROC ; UnitClass::GetUnitClassData
EXTRN	?GetVehicleID@UnitClass@@QAEFH@Z:PROC		; UnitClass::GetVehicleID
EXTRN	?GetCurrentUnitWP@UnitClass@@QBEPAVWayPointClass@@XZ:PROC ; UnitClass::GetCurrentUnitWP
EXTRN	?GetFirstUnit@@YAPAVUnitClass@@PAVVuListIterator@@@Z:PROC ; GetFirstUnit
EXTRN	?GetNextUnit@@YAPAVUnitClass@@PAVVuListIterator@@@Z:PROC ; GetNextUnit
EXTRN	??0ATCBrain@@QAE@PAVObjectiveClass@@@Z:PROC	; ATCBrain::ATCBrain
EXTRN	??1ATCBrain@@QAE@XZ:PROC			; ATCBrain::~ATCBrain
EXTRN	?CanDetect@RadarRangeClass@@QAEHMMM@Z:PROC	; RadarRangeClass::CanDetect
EXTRN	?GetRadarRange@RadarRangeClass@@QAEMMMM@Z:PROC	; RadarRangeClass::GetRadarRange
EXTRN	??0FalconObjectiveMessage@@QAE@VVU_ID@@PAVVuTargetEntity@@E@Z:PROC ; FalconObjectiveMessage::FalconObjectiveMessage
EXTRN	?FindObjective@@YAPAVObjectiveClass@@VVU_ID@@@Z:PROC ; FindObjective
EXTRN	??_EObjectiveClass@@UAEPAXI@Z:PROC		; ObjectiveClass::`vector deleting destructor'
EXTRN	?Distance@@YAMFFFF@Z:PROC			; Distance
EXTRN	?DistSqu@@YAMMMMM@Z:PROC			; DistSqu
EXTRN	?GetFeatureClassData@@YAPAUFeatureClassDataType@@H@Z:PROC ; GetFeatureClassData
EXTRN	?GetFeatureRepairTime@@YAHH@Z:PROC		; GetFeatureRepairTime
EXTRN	?ReadNameString@@YAPADHPADI@Z:PROC		; ReadNameString
EXTRN	?AddName@@YAHPAD@Z:PROC				; AddName
EXTRN	?SetName@@YAHHPAD@Z:PROC			; SetName
EXTRN	?AddObjectToSim@@YAPAVSimBaseClass@@PAVSimInitDataClass@@H@Z:PROC ; AddObjectToSim
EXTRN	?SetRemoveSilentFlag@SimBaseClass@@QAEXXZ:PROC	; SimBaseClass::SetRemoveSilentFlag
EXTRN	?GetTTRelations@@YAHEE@Z:PROC			; GetTTRelations
EXTRN	?GetRoE@@YAHEEH@Z:PROC				; GetRoE
EXTRN	??_Eerror_category@std@@UAEPAXI@Z:PROC		; std::error_category::`vector deleting destructor'
EXTRN	?_Syserror_map@std@@YAPBDH@Z:PROC		; std::_Syserror_map
EXTRN	?_Winerror_map@std@@YAPBDH@Z:PROC		; std::_Winerror_map
EXTRN	??_E_Generic_error_category@std@@UAEPAXI@Z:PROC	; std::_Generic_error_category::`vector deleting destructor'
EXTRN	??_E_Iostream_error_category@std@@UAEPAXI@Z:PROC ; std::_Iostream_error_category::`vector deleting destructor'
EXTRN	??_E_System_error_category@std@@UAEPAXI@Z:PROC	; std::_System_error_category::`vector deleting destructor'
EXTRN	??0FalconCampDataMessage@@QAE@VVU_ID@@PAVVuTargetEntity@@E@Z:PROC ; FalconCampDataMessage::FalconCampDataMessage
EXTRN	??0FalconSimCampMessage@@QAE@VVU_ID@@PAVVuTargetEntity@@E@Z:PROC ; FalconSimCampMessage::FalconSimCampMessage
EXTRN	?GetECMFlight@FlightClass@@QAEPAV1@XZ:PROC	; FlightClass::GetECMFlight
EXTRN	?CancelFlight@@YAXPAVFlightClass@@@Z:PROC	; CancelFlight
EXTRN	?SendATMMessage@AirTaskingManagerClass@@QAEXVVU_ID@@EFFFPAXH@Z:PROC ; AirTaskingManagerClass::SendATMMessage
EXTRN	?CheckHeaderStatus@@YAHPAVCampBaseClass@@H@Z:PROC ; CheckHeaderStatus
EXTRN	_LZSS_Compress:PROC
EXTRN	_LZSS_Expand:PROC
EXTRN	?InSessionBubble@FalconSessionEntity@@QAEHPAVFalconEntity@@M@Z:PROC ; FalconSessionEntity::InSessionBubble
EXTRN	?AddToCampFeatList@SimulationDriver@@QAEXPAVVuEntity@@@Z:PROC ; SimulationDriver::AddToCampFeatList
EXTRN	?RemoveFromCampFeatList@SimulationDriver@@QAEXPAVVuEntity@@@Z:PROC ; SimulationDriver::RemoveFromCampFeatList
EXTRN	?WakeCampaignBase@SimulationDriver@@QAEXHPAVCampBaseClass@@PAVTailInsertList@@@Z:PROC ; SimulationDriver::WakeCampaignBase
EXTRN	?SleepCampaignFlight@SimulationDriver@@QAEXPAVTailInsertList@@@Z:PROC ; SimulationDriver::SleepCampaignFlight
EXTRN	??0SimFeatureFilter@@QAE@XZ:PROC		; SimFeatureFilter::SimFeatureFilter
EXTRN	??1SimFeatureFilter@@UAE@XZ:PROC		; SimFeatureFilter::~SimFeatureFilter
EXTRN	?CleanupLinkedPersistantObjects@@YAXPAVFalconEntity@@HHH@Z:PROC ; CleanupLinkedPersistantObjects
EXTRN	?AddRunwayCraters@@YAXPAVObjectiveClass@@HH@Z:PROC ; AddRunwayCraters
EXTRN	?AddMissCraters@@YAXPAVFalconEntity@@H@Z:PROC	; AddMissCraters
EXTRN	?GetMEA@TMap@@QAEMMM@Z:PROC			; TMap::GetMEA
EXTRN	?ReadVersionNumber@@YAHPAD@Z:PROC		; ReadVersionNumber
EXTRN	?EvaluateKill@@YAXPAVFalconDeathMessage@@PAVSimBaseClass@@PAVCampBaseClass@@12@Z:PROC ; EvaluateKill
EXTRN	@__security_check_cookie@4:PROC
EXTRN	__CxxThrowException@8:PROC
EXTRN	___CxxFrameHandler3:PROC
EXTRN	?vuDatabase@@3PAVVuDatabase@@A:DWORD		; vuDatabase
EXTRN	?vuLocalSessionEntity@@3V?$VuBin@VVuSessionEntity@@@@A:DWORD ; vuLocalSessionEntity
EXTRN	?FalconNullId@@3VVU_ID@@A:QWORD			; FalconNullId
EXTRN	?FeatureEntryDataTable@@3PAUFeatureEntry@@A:DWORD ; FeatureEntryDataTable
EXTRN	?WeaponDataTable@@3PAUWeaponClassDataType@@A:DWORD ; WeaponDataTable
EXTRN	?PtHeaderDataTable@@3PAUPtHeaderDataType@@A:DWORD ; PtHeaderDataTable
EXTRN	?DDP@@3PAUDirtyDataClassType@@A:DWORD		; DDP
EXTRN	?Falcon4ClassTable@@3PAUFalcon4EntityClassType@@A:DWORD ; Falcon4ClassTable
EXTRN	??_7type_info@@6B@:QWORD			; type_info::`vftable'
EXTRN	?gDamageStatusBuffer@@3PAEA:BYTE		; gDamageStatusBuffer
EXTRN	?gDamageStatusPtr@@3PAEA:DWORD			; gDamageStatusPtr
EXTRN	?ObjectiveNS@@3VIdNamespace@@A:BYTE		; ObjectiveNS
EXTRN	?CampSearch@@3PAEA:BYTE				; CampSearch
EXTRN	?campCritical@@3PAUF4CSECTIONHANDLE@@A:DWORD	; campCritical
EXTRN	?TheCampaign@@3VCampaignClass@@A:BYTE		; TheCampaign
EXTRN	?gCampDataVersion@@3HA:DWORD			; gCampDataVersion
EXTRN	?AllObjFilter@@3VObjFilter@@A:QWORD		; AllObjFilter
EXTRN	?AllUnitList@@3PAVVuLinkedList@@A:DWORD		; AllUnitList
EXTRN	?AllObjList@@3PAVVuLinkedList@@A:DWORD		; AllObjList
EXTRN	?AllCampList@@3PAVVuLinkedList@@A:DWORD		; AllCampList
EXTRN	?POList@@3PAVFalconPrivateOrderedList@@A:DWORD	; POList
EXTRN	?deaggregatedEntities@@3PAVVuHashTable@@A:DWORD	; deaggregatedEntities
EXTRN	?RealUnitProxList@@3PAVVuGridTree@@A:DWORD	; RealUnitProxList
EXTRN	?TeamInfo@@3PAPAVTeamClass@@A:BYTE		; TeamInfo
EXTRN	?PRIMARY_OBJ_PRIORITY@@3FA:WORD			; PRIMARY_OBJ_PRIORITY
EXTRN	?SECONDARY_OBJ_PRIORITY@@3FA:WORD		; SECONDARY_OBJ_PRIORITY
EXTRN	?MINIMUM_STRENGTH@@3FA:WORD			; MINIMUM_STRENGTH
EXTRN	?MAX_DAMAGE_TRIES@@3FA:WORD			; MAX_DAMAGE_TRIES
EXTRN	?REAGREGATION_RATIO@@3MA:DWORD			; REAGREGATION_RATIO
EXTRN	?ObjectiveStr@@3PAY0BE@DA:BYTE			; ObjectiveStr
EXTRN	?SimDriver@@3VSimulationDriver@@A:BYTE		; SimDriver
EXTRN	?gLangIDNum@@3HA:DWORD				; gLangIDNum
EXTRN	?TheMap@@3VTMap@@A:BYTE				; TheMap
EXTRN	?RepairObjective@@3HA:DWORD			; RepairObjective
EXTRN	?DestroyObjective@@3HA:DWORD			; DestroyObjective
EXTRN	?AwakeCampaignEntities@@3HA:DWORD		; AwakeCampaignEntities
EXTRN	___security_cookie:DWORD
EXTRN	__fltused:DWORD
_BSS	SEGMENT
_piecewise_construct DB 01H DUP (?)
_allocator_arg DB 01H DUP (?)
_BSS	ENDS
;	COMDAT ?_Generic_object@?$_Error_objects@H@std@@2V_Generic_error_category@2@A
_BSS	SEGMENT
?_Generic_object@?$_Error_objects@H@std@@2V_Generic_error_category@2@A DD 01H DUP (?) ; std::_Error_objects<int>::_Generic_object
_BSS	ENDS
;	COMDAT ?_Iostream_object@?$_Error_objects@H@std@@2V_Iostream_error_category@2@A
_BSS	SEGMENT
?_Iostream_object@?$_Error_objects@H@std@@2V_Iostream_error_category@2@A DD 01H DUP (?) ; std::_Error_objects<int>::_Iostream_object
_BSS	ENDS
;	COMDAT ?_System_object@?$_Error_objects@H@std@@2V_System_error_category@2@A
_BSS	SEGMENT
?_System_object@?$_Error_objects@H@std@@2V_System_error_category@2@A DD 01H DUP (?) ; std::_Error_objects<int>::_System_object
_BSS	ENDS
;	COMDAT ?id@?$num_put@DV?$back_insert_iterator@V?$basic_string@DU?$char_traits@D@std@@V?$allocator@D@2@@std@@@std@@@std@@2V0locale@2@A
_BSS	SEGMENT
?id@?$num_put@DV?$back_insert_iterator@V?$basic_string@DU?$char_traits@D@std@@V?$allocator@D@2@@std@@@std@@@std@@2V0locale@2@A DD 01H DUP (?) ; std::num_put<char,std::back_insert_iterator<std::basic_string<char,std::char_traits<char>,std::allocator<char> > > >::id
_BSS	ENDS
;	COMDAT ?id@?$num_put@_WV?$back_insert_iterator@V?$basic_string@_WU?$char_traits@_W@std@@V?$allocator@_W@2@@std@@@std@@@std@@2V0locale@2@A
_BSS	SEGMENT
?id@?$num_put@_WV?$back_insert_iterator@V?$basic_string@_WU?$char_traits@_W@std@@V?$allocator@_W@2@@std@@@std@@@std@@2V0locale@2@A DD 01H DUP (?) ; std::num_put<wchar_t,std::back_insert_iterator<std::basic_string<wchar_t,std::char_traits<wchar_t>,std::allocator<wchar_t> > > >::id
_BSS	ENDS
;	COMDAT ?id@?$numpunct@D@std@@2V0locale@2@A
_BSS	SEGMENT
?id@?$numpunct@D@std@@2V0locale@2@A DD 01H DUP (?)	; std::numpunct<char>::id
_BSS	ENDS
;	COMDAT ?id@?$numpunct@_W@std@@2V0locale@2@A
_BSS	SEGMENT
?id@?$numpunct@_W@std@@2V0locale@2@A DD 01H DUP (?)	; std::numpunct<wchar_t>::id
_BSS	ENDS
CRT$XCU	SEGMENT
_piecewise_construct$initializer$ DD FLAT:??__Epiecewise_construct@std@@YAXXZ
CRT$XCU	ENDS
;	COMDAT __real@459c4000
CONST	SEGMENT
__real@459c4000 DD 0459c4000r			; 5000
CONST	ENDS
;	COMDAT __real@454cffae
CONST	SEGMENT
__real@454cffae DD 0454cffaer			; 3279.98
CONST	ENDS
;	COMDAT __real@451c4000
CONST	SEGMENT
__real@451c4000 DD 0451c4000r			; 2500
CONST	ENDS
;	COMDAT __real@42c80000
CONST	SEGMENT
__real@42c80000 DD 042c80000r			; 100
CONST	ENDS
;	COMDAT __real@40c90fdb
CONST	SEGMENT
__real@40c90fdb DD 040c90fdbr			; 6.28319
CONST	ENDS
;	COMDAT __real@40100000
CONST	SEGMENT
__real@40100000 DD 040100000r			; 2.25
CONST	ENDS
;	COMDAT __real@40000000
CONST	SEGMENT
__real@40000000 DD 040000000r			; 2
CONST	ENDS
;	COMDAT __real@3f800000
CONST	SEGMENT
__real@3f800000 DD 03f800000r			; 1
CONST	ENDS
;	COMDAT __real@3c8efa34
CONST	SEGMENT
__real@3c8efa34 DD 03c8efa34r			; 0.0174533
CONST	ENDS
;	COMDAT __real@3c8ef998
CONST	SEGMENT
__real@3c8ef998 DD 03c8ef998r			; 0.017453
CONST	ENDS
;	COMDAT __real@00000000
CONST	SEGMENT
__real@00000000 DD 000000000r			; 0
CONST	ENDS
;	COMDAT ??_R1A@?0A@EA@_System_error_category@std@@8
rdata$r	SEGMENT
??_R1A@?0A@EA@_System_error_category@std@@8 DD FLAT:??_R0?AV_System_error_category@std@@@8 ; std::_System_error_category::`RTTI Base Class Descriptor at (0,-1,0,64)'
	DD	02H
	DD	00H
	DD	0ffffffffH
	DD	00H
	DD	040H
	DD	FLAT:??_R3_System_error_category@std@@8
rdata$r	ENDS
;	COMDAT ??_R2_System_error_category@std@@8
rdata$r	SEGMENT
??_R2_System_error_category@std@@8 DD FLAT:??_R1A@?0A@EA@_System_error_category@std@@8 ; std::_System_error_category::`RTTI Base Class Array'
	DD	FLAT:??_R1A@?0A@EA@_Generic_error_category@std@@8
	DD	FLAT:??_R1A@?0A@EA@error_category@std@@8
rdata$r	ENDS
;	COMDAT ??_R3_System_error_category@std@@8
rdata$r	SEGMENT
??_R3_System_error_category@std@@8 DD 00H		; std::_System_error_category::`RTTI Class Hierarchy Descriptor'
	DD	00H
	DD	03H
	DD	FLAT:??_R2_System_error_category@std@@8
rdata$r	ENDS
;	COMDAT ??_R0?AV_System_error_category@std@@@8
_DATA	SEGMENT
??_R0?AV_System_error_category@std@@@8 DD FLAT:??_7type_info@@6B@ ; std::_System_error_category `RTTI Type Descriptor'
	DD	00H
	DB	'.?AV_System_error_category@std@@', 00H
_DATA	ENDS
;	COMDAT ??_R4_System_error_category@std@@6B@
rdata$r	SEGMENT
??_R4_System_error_category@std@@6B@ DD 00H		; std::_System_error_category::`RTTI Complete Object Locator'
	DD	00H
	DD	00H
	DD	FLAT:??_R0?AV_System_error_category@std@@@8
	DD	FLAT:??_R3_System_error_category@std@@8
rdata$r	ENDS
;	COMDAT ??_R1A@?0A@EA@_Iostream_error_category@std@@8
rdata$r	SEGMENT
??_R1A@?0A@EA@_Iostream_error_category@std@@8 DD FLAT:??_R0?AV_Iostream_error_category@std@@@8 ; std::_Iostream_error_category::`RTTI Base Class Descriptor at (0,-1,0,64)'
	DD	02H
	DD	00H
	DD	0ffffffffH
	DD	00H
	DD	040H
	DD	FLAT:??_R3_Iostream_error_category@std@@8
rdata$r	ENDS
;	COMDAT ??_R2_Iostream_error_category@std@@8
rdata$r	SEGMENT
??_R2_Iostream_error_category@std@@8 DD FLAT:??_R1A@?0A@EA@_Iostream_error_category@std@@8 ; std::_Iostream_error_category::`RTTI Base Class Array'
	DD	FLAT:??_R1A@?0A@EA@_Generic_error_category@std@@8
	DD	FLAT:??_R1A@?0A@EA@error_category@std@@8
rdata$r	ENDS
;	COMDAT ??_R3_Iostream_error_category@std@@8
rdata$r	SEGMENT
??_R3_Iostream_error_category@std@@8 DD 00H		; std::_Iostream_error_category::`RTTI Class Hierarchy Descriptor'
	DD	00H
	DD	03H
	DD	FLAT:??_R2_Iostream_error_category@std@@8
rdata$r	ENDS
;	COMDAT ??_R0?AV_Iostream_error_category@std@@@8
_DATA	SEGMENT
??_R0?AV_Iostream_error_category@std@@@8 DD FLAT:??_7type_info@@6B@ ; std::_Iostream_error_category `RTTI Type Descriptor'
	DD	00H
	DB	'.?AV_Iostream_error_category@std@@', 00H
_DATA	ENDS
;	COMDAT ??_R4_Iostream_error_category@std@@6B@
rdata$r	SEGMENT
??_R4_Iostream_error_category@std@@6B@ DD 00H		; std::_Iostream_error_category::`RTTI Complete Object Locator'
	DD	00H
	DD	00H
	DD	FLAT:??_R0?AV_Iostream_error_category@std@@@8
	DD	FLAT:??_R3_Iostream_error_category@std@@8
rdata$r	ENDS
;	COMDAT ??_R1A@?0A@EA@_Generic_error_category@std@@8
rdata$r	SEGMENT
??_R1A@?0A@EA@_Generic_error_category@std@@8 DD FLAT:??_R0?AV_Generic_error_category@std@@@8 ; std::_Generic_error_category::`RTTI Base Class Descriptor at (0,-1,0,64)'
	DD	01H
	DD	00H
	DD	0ffffffffH
	DD	00H
	DD	040H
	DD	FLAT:??_R3_Generic_error_category@std@@8
rdata$r	ENDS
;	COMDAT ??_R2_Generic_error_category@std@@8
rdata$r	SEGMENT
??_R2_Generic_error_category@std@@8 DD FLAT:??_R1A@?0A@EA@_Generic_error_category@std@@8 ; std::_Generic_error_category::`RTTI Base Class Array'
	DD	FLAT:??_R1A@?0A@EA@error_category@std@@8
rdata$r	ENDS
;	COMDAT ??_R3_Generic_error_category@std@@8
rdata$r	SEGMENT
??_R3_Generic_error_category@std@@8 DD 00H		; std::_Generic_error_category::`RTTI Class Hierarchy Descriptor'
	DD	00H
	DD	02H
	DD	FLAT:??_R2_Generic_error_category@std@@8
rdata$r	ENDS
;	COMDAT ??_R0?AV_Generic_error_category@std@@@8
_DATA	SEGMENT
??_R0?AV_Generic_error_category@std@@@8 DD FLAT:??_7type_info@@6B@ ; std::_Generic_error_category `RTTI Type Descriptor'
	DD	00H
	DB	'.?AV_Generic_error_category@std@@', 00H
_DATA	ENDS
;	COMDAT ??_R4_Generic_error_category@std@@6B@
rdata$r	SEGMENT
??_R4_Generic_error_category@std@@6B@ DD 00H		; std::_Generic_error_category::`RTTI Complete Object Locator'
	DD	00H
	DD	00H
	DD	FLAT:??_R0?AV_Generic_error_category@std@@@8
	DD	FLAT:??_R3_Generic_error_category@std@@8
rdata$r	ENDS
;	COMDAT ??_R1A@?0A@EA@error_category@std@@8
rdata$r	SEGMENT
??_R1A@?0A@EA@error_category@std@@8 DD FLAT:??_R0?AVerror_category@std@@@8 ; std::error_category::`RTTI Base Class Descriptor at (0,-1,0,64)'
	DD	00H
	DD	00H
	DD	0ffffffffH
	DD	00H
	DD	040H
	DD	FLAT:??_R3error_category@std@@8
rdata$r	ENDS
;	COMDAT ??_R2error_category@std@@8
rdata$r	SEGMENT
??_R2error_category@std@@8 DD FLAT:??_R1A@?0A@EA@error_category@std@@8 ; std::error_category::`RTTI Base Class Array'
rdata$r	ENDS
;	COMDAT ??_R3error_category@std@@8
rdata$r	SEGMENT
??_R3error_category@std@@8 DD 00H			; std::error_category::`RTTI Class Hierarchy Descriptor'
	DD	00H
	DD	01H
	DD	FLAT:??_R2error_category@std@@8
rdata$r	ENDS
;	COMDAT ??_R0?AVerror_category@std@@@8
_DATA	SEGMENT
??_R0?AVerror_category@std@@@8 DD FLAT:??_7type_info@@6B@ ; std::error_category `RTTI Type Descriptor'
	DD	00H
	DB	'.?AVerror_category@std@@', 00H
_DATA	ENDS
;	COMDAT ??_R4error_category@std@@6B@
rdata$r	SEGMENT
??_R4error_category@std@@6B@ DD 00H			; std::error_category::`RTTI Complete Object Locator'
	DD	00H
	DD	00H
	DD	FLAT:??_R0?AVerror_category@std@@@8
	DD	FLAT:??_R3error_category@std@@8
rdata$r	ENDS
;	COMDAT ??_R1A@?0A@EA@InvalidBufferException@@8
rdata$r	SEGMENT
??_R1A@?0A@EA@InvalidBufferException@@8 DD FLAT:??_R0?AVInvalidBufferException@@@8 ; InvalidBufferException::`RTTI Base Class Descriptor at (0,-1,0,64)'
	DD	03H
	DD	00H
	DD	0ffffffffH
	DD	00H
	DD	040H
	DD	FLAT:??_R3InvalidBufferException@@8
rdata$r	ENDS
;	COMDAT ??_R2InvalidBufferException@@8
rdata$r	SEGMENT
??_R2InvalidBufferException@@8 DD FLAT:??_R1A@?0A@EA@InvalidBufferException@@8 ; InvalidBufferException::`RTTI Base Class Array'
	DD	FLAT:??_R1A@?0A@EA@out_of_range@std@@8
	DD	FLAT:??_R1A@?0A@EA@logic_error@std@@8
	DD	FLAT:??_R1A@?0A@EA@exception@std@@8
rdata$r	ENDS
;	COMDAT ??_R3InvalidBufferException@@8
rdata$r	SEGMENT
??_R3InvalidBufferException@@8 DD 00H			; InvalidBufferException::`RTTI Class Hierarchy Descriptor'
	DD	00H
	DD	04H
	DD	FLAT:??_R2InvalidBufferException@@8
rdata$r	ENDS
;	COMDAT ??_R4InvalidBufferException@@6B@
rdata$r	SEGMENT
??_R4InvalidBufferException@@6B@ DD 00H			; InvalidBufferException::`RTTI Complete Object Locator'
	DD	00H
	DD	00H
	DD	FLAT:??_R0?AVInvalidBufferException@@@8
	DD	FLAT:??_R3InvalidBufferException@@8
rdata$r	ENDS
;	COMDAT ??_R2VuEntity@@8
rdata$r	SEGMENT
??_R2VuEntity@@8 DD FLAT:??_R1A@?0A@EA@VuEntity@@8	; VuEntity::`RTTI Base Class Array'
rdata$r	ENDS
;	COMDAT ??_R3VuEntity@@8
rdata$r	SEGMENT
??_R3VuEntity@@8 DD 00H					; VuEntity::`RTTI Class Hierarchy Descriptor'
	DD	00H
	DD	01H
	DD	FLAT:??_R2VuEntity@@8
rdata$r	ENDS
;	COMDAT ??_R0?AVVuEntity@@@8
_DATA	SEGMENT
??_R0?AVVuEntity@@@8 DD FLAT:??_7type_info@@6B@		; VuEntity `RTTI Type Descriptor'
	DD	00H
	DB	'.?AVVuEntity@@', 00H
_DATA	ENDS
;	COMDAT ??_R1A@?0A@EA@VuEntity@@8
rdata$r	SEGMENT
??_R1A@?0A@EA@VuEntity@@8 DD FLAT:??_R0?AVVuEntity@@@8	; VuEntity::`RTTI Base Class Descriptor at (0,-1,0,64)'
	DD	00H
	DD	00H
	DD	0ffffffffH
	DD	00H
	DD	040H
	DD	FLAT:??_R3VuEntity@@8
rdata$r	ENDS
;	COMDAT ??_R2FalconEntity@@8
rdata$r	SEGMENT
??_R2FalconEntity@@8 DD FLAT:??_R1A@?0A@EA@FalconEntity@@8 ; FalconEntity::`RTTI Base Class Array'
	DD	FLAT:??_R1A@?0A@EA@VuEntity@@8
rdata$r	ENDS
;	COMDAT ??_R3FalconEntity@@8
rdata$r	SEGMENT
??_R3FalconEntity@@8 DD 00H				; FalconEntity::`RTTI Class Hierarchy Descriptor'
	DD	00H
	DD	02H
	DD	FLAT:??_R2FalconEntity@@8
rdata$r	ENDS
;	COMDAT ??_R0?AVFalconEntity@@@8
_DATA	SEGMENT
??_R0?AVFalconEntity@@@8 DD FLAT:??_7type_info@@6B@	; FalconEntity `RTTI Type Descriptor'
	DD	00H
	DB	'.?AVFalconEntity@@', 00H
_DATA	ENDS
;	COMDAT ??_R1A@?0A@EA@FalconEntity@@8
rdata$r	SEGMENT
??_R1A@?0A@EA@FalconEntity@@8 DD FLAT:??_R0?AVFalconEntity@@@8 ; FalconEntity::`RTTI Base Class Descriptor at (0,-1,0,64)'
	DD	01H
	DD	00H
	DD	0ffffffffH
	DD	00H
	DD	040H
	DD	FLAT:??_R3FalconEntity@@8
rdata$r	ENDS
;	COMDAT ??_R2CampBaseClass@@8
rdata$r	SEGMENT
??_R2CampBaseClass@@8 DD FLAT:??_R1A@?0A@EA@CampBaseClass@@8 ; CampBaseClass::`RTTI Base Class Array'
	DD	FLAT:??_R1A@?0A@EA@FalconEntity@@8
	DD	FLAT:??_R1A@?0A@EA@VuEntity@@8
rdata$r	ENDS
;	COMDAT ??_R3CampBaseClass@@8
rdata$r	SEGMENT
??_R3CampBaseClass@@8 DD 00H				; CampBaseClass::`RTTI Class Hierarchy Descriptor'
	DD	00H
	DD	03H
	DD	FLAT:??_R2CampBaseClass@@8
rdata$r	ENDS
;	COMDAT ??_R0?AVCampBaseClass@@@8
_DATA	SEGMENT
??_R0?AVCampBaseClass@@@8 DD FLAT:??_7type_info@@6B@	; CampBaseClass `RTTI Type Descriptor'
	DD	00H
	DB	'.?AVCampBaseClass@@', 00H
_DATA	ENDS
;	COMDAT ??_R1A@?0A@EA@CampBaseClass@@8
rdata$r	SEGMENT
??_R1A@?0A@EA@CampBaseClass@@8 DD FLAT:??_R0?AVCampBaseClass@@@8 ; CampBaseClass::`RTTI Base Class Descriptor at (0,-1,0,64)'
	DD	02H
	DD	00H
	DD	0ffffffffH
	DD	00H
	DD	040H
	DD	FLAT:??_R3CampBaseClass@@8
rdata$r	ENDS
;	COMDAT ??_R1A@?0A@EA@ObjectiveClass@@8
rdata$r	SEGMENT
??_R1A@?0A@EA@ObjectiveClass@@8 DD FLAT:??_R0?AVObjectiveClass@@@8 ; ObjectiveClass::`RTTI Base Class Descriptor at (0,-1,0,64)'
	DD	03H
	DD	00H
	DD	0ffffffffH
	DD	00H
	DD	040H
	DD	FLAT:??_R3ObjectiveClass@@8
rdata$r	ENDS
;	COMDAT ??_R2ObjectiveClass@@8
rdata$r	SEGMENT
??_R2ObjectiveClass@@8 DD FLAT:??_R1A@?0A@EA@ObjectiveClass@@8 ; ObjectiveClass::`RTTI Base Class Array'
	DD	FLAT:??_R1A@?0A@EA@CampBaseClass@@8
	DD	FLAT:??_R1A@?0A@EA@FalconEntity@@8
	DD	FLAT:??_R1A@?0A@EA@VuEntity@@8
rdata$r	ENDS
;	COMDAT ??_R3ObjectiveClass@@8
rdata$r	SEGMENT
??_R3ObjectiveClass@@8 DD 00H				; ObjectiveClass::`RTTI Class Hierarchy Descriptor'
	DD	00H
	DD	04H
	DD	FLAT:??_R2ObjectiveClass@@8
rdata$r	ENDS
;	COMDAT ??_R0?AVObjectiveClass@@@8
_DATA	SEGMENT
??_R0?AVObjectiveClass@@@8 DD FLAT:??_7type_info@@6B@	; ObjectiveClass `RTTI Type Descriptor'
	DD	00H
	DB	'.?AVObjectiveClass@@', 00H
_DATA	ENDS
;	COMDAT ??_R4ObjectiveClass@@6B@
rdata$r	SEGMENT
??_R4ObjectiveClass@@6B@ DD 00H				; ObjectiveClass::`RTTI Complete Object Locator'
	DD	00H
	DD	00H
	DD	FLAT:??_R0?AVObjectiveClass@@@8
	DD	FLAT:??_R3ObjectiveClass@@8
rdata$r	ENDS
;	COMDAT ??_R1A@?0A@EA@out_of_range@std@@8
rdata$r	SEGMENT
??_R1A@?0A@EA@out_of_range@std@@8 DD FLAT:??_R0?AVout_of_range@std@@@8 ; std::out_of_range::`RTTI Base Class Descriptor at (0,-1,0,64)'
	DD	02H
	DD	00H
	DD	0ffffffffH
	DD	00H
	DD	040H
	DD	FLAT:??_R3out_of_range@std@@8
rdata$r	ENDS
;	COMDAT ??_R2out_of_range@std@@8
rdata$r	SEGMENT
??_R2out_of_range@std@@8 DD FLAT:??_R1A@?0A@EA@out_of_range@std@@8 ; std::out_of_range::`RTTI Base Class Array'
	DD	FLAT:??_R1A@?0A@EA@logic_error@std@@8
	DD	FLAT:??_R1A@?0A@EA@exception@std@@8
rdata$r	ENDS
;	COMDAT ??_R3out_of_range@std@@8
rdata$r	SEGMENT
??_R3out_of_range@std@@8 DD 00H				; std::out_of_range::`RTTI Class Hierarchy Descriptor'
	DD	00H
	DD	03H
	DD	FLAT:??_R2out_of_range@std@@8
rdata$r	ENDS
;	COMDAT ??_R4out_of_range@std@@6B@
rdata$r	SEGMENT
??_R4out_of_range@std@@6B@ DD 00H			; std::out_of_range::`RTTI Complete Object Locator'
	DD	00H
	DD	00H
	DD	FLAT:??_R0?AVout_of_range@std@@@8
	DD	FLAT:??_R3out_of_range@std@@8
rdata$r	ENDS
;	COMDAT ??_R1A@?0A@EA@logic_error@std@@8
rdata$r	SEGMENT
??_R1A@?0A@EA@logic_error@std@@8 DD FLAT:??_R0?AVlogic_error@std@@@8 ; std::logic_error::`RTTI Base Class Descriptor at (0,-1,0,64)'
	DD	01H
	DD	00H
	DD	0ffffffffH
	DD	00H
	DD	040H
	DD	FLAT:??_R3logic_error@std@@8
rdata$r	ENDS
;	COMDAT ??_R2logic_error@std@@8
rdata$r	SEGMENT
??_R2logic_error@std@@8 DD FLAT:??_R1A@?0A@EA@logic_error@std@@8 ; std::logic_error::`RTTI Base Class Array'
	DD	FLAT:??_R1A@?0A@EA@exception@std@@8
rdata$r	ENDS
;	COMDAT ??_R3logic_error@std@@8
rdata$r	SEGMENT
??_R3logic_error@std@@8 DD 00H				; std::logic_error::`RTTI Class Hierarchy Descriptor'
	DD	00H
	DD	02H
	DD	FLAT:??_R2logic_error@std@@8
rdata$r	ENDS
;	COMDAT ??_R4logic_error@std@@6B@
rdata$r	SEGMENT
??_R4logic_error@std@@6B@ DD 00H			; std::logic_error::`RTTI Complete Object Locator'
	DD	00H
	DD	00H
	DD	FLAT:??_R0?AVlogic_error@std@@@8
	DD	FLAT:??_R3logic_error@std@@8
rdata$r	ENDS
;	COMDAT ??_R2exception@std@@8
rdata$r	SEGMENT
??_R2exception@std@@8 DD FLAT:??_R1A@?0A@EA@exception@std@@8 ; std::exception::`RTTI Base Class Array'
rdata$r	ENDS
;	COMDAT ??_R3exception@std@@8
rdata$r	SEGMENT
??_R3exception@std@@8 DD 00H				; std::exception::`RTTI Class Hierarchy Descriptor'
	DD	00H
	DD	01H
	DD	FLAT:??_R2exception@std@@8
rdata$r	ENDS
;	COMDAT ??_R1A@?0A@EA@exception@std@@8
rdata$r	SEGMENT
??_R1A@?0A@EA@exception@std@@8 DD FLAT:??_R0?AVexception@std@@@8 ; std::exception::`RTTI Base Class Descriptor at (0,-1,0,64)'
	DD	00H
	DD	00H
	DD	0ffffffffH
	DD	00H
	DD	040H
	DD	FLAT:??_R3exception@std@@8
rdata$r	ENDS
;	COMDAT ??_C@_0BA@JFNIOLAK@string?5too?5long?$AA@
CONST	SEGMENT
??_C@_0BA@JFNIOLAK@string?5too?5long?$AA@ DB 'string too long', 00H ; `string'
CONST	ENDS
;	COMDAT ??_C@_0BI@CFPLBAOH@invalid?5string?5position?$AA@
CONST	SEGMENT
??_C@_0BI@CFPLBAOH@invalid?5string?5position?$AA@ DB 'invalid string posi'
	DB	'tion', 00H					; `string'
CONST	ENDS
;	COMDAT ??_C@_02GMLFBBN@wb?$AA@
CONST	SEGMENT
??_C@_02GMLFBBN@wb?$AA@ DB 'wb', 00H			; `string'
CONST	ENDS
;	COMDAT ??_C@_03PHDMHGFL@obd?$AA@
CONST	SEGMENT
??_C@_03PHDMHGFL@obd?$AA@ DB 'obd', 00H			; `string'
CONST	ENDS
;	COMDAT ??_C@_0CK@KOLCPHPM@?$CFs?5?$CFd?3?5error?5creating?5object?5fro@
CONST	SEGMENT
??_C@_0CK@KOLCPHPM@?$CFs?5?$CFd?3?5error?5creating?5object?5fro@ DB '%s %'
	DB	'd: error creating object from stream', 0aH, 00H ; `string'
CONST	ENDS
;	COMDAT ??_C@_0N@IJKHBDDD@Objectiv?4cpp?$AA@
CONST	SEGMENT
??_C@_0N@IJKHBDDD@Objectiv?4cpp?$AA@ DB 'Objectiv.cpp', 00H ; `string'
CONST	ENDS
;	COMDAT ??_C@_03GJLPFLNF@obj?$AA@
CONST	SEGMENT
??_C@_03GJLPFLNF@obj?$AA@ DB 'obj', 00H			; `string'
CONST	ENDS
;	COMDAT ??_C@_02DKCKIIND@?$CFs?$AA@
CONST	SEGMENT
??_C@_02DKCKIIND@?$CFs?$AA@ DB '%s', 00H		; `string'
CONST	ENDS
;	COMDAT ??_C@_05DNIIFBMG@?$CFs?5?$CFs?$AA@
CONST	SEGMENT
??_C@_05DNIIFBMG@?$CFs?5?$CFs?$AA@ DB '%s %s', 00H	; `string'
CONST	ENDS
;	COMDAT ??_C@_08GEODDHCD@?$CFs?5de?5?$CFs?$AA@
CONST	SEGMENT
??_C@_08GEODDHCD@?$CFs?5de?5?$CFs?$AA@ DB '%s de %s', 00H ; `string'
CONST	ENDS
;	COMDAT ??_C@_07JKKEGLBA@?$CFs?5d?8?$CFs?$AA@
CONST	SEGMENT
??_C@_07JKKEGLBA@?$CFs?5d?8?$CFs?$AA@ DB '%s d''%s', 00H ; `string'
CONST	ENDS
;	COMDAT ??_C@_06FHFOAHML@system?$AA@
CONST	SEGMENT
??_C@_06FHFOAHML@system?$AA@ DB 'system', 00H		; `string'
CONST	ENDS
;	COMDAT ??_7_System_error_category@std@@6B@
CONST	SEGMENT
??_7_System_error_category@std@@6B@ DD FLAT:??_R4_System_error_category@std@@6B@ ; std::_System_error_category::`vftable'
	DD	FLAT:??_E_System_error_category@std@@UAEPAXI@Z
	DD	FLAT:?name@_System_error_category@std@@UBEPBDXZ
	DD	FLAT:?message@_System_error_category@std@@UBE?AV?$basic_string@DU?$char_traits@D@std@@V?$allocator@D@2@@2@H@Z
	DD	FLAT:?default_error_condition@_System_error_category@std@@UBE?AVerror_condition@2@H@Z
	DD	FLAT:?equivalent@error_category@std@@UBE_NABVerror_code@2@H@Z
	DD	FLAT:?equivalent@error_category@std@@UBE_NHABVerror_condition@2@@Z
CONST	ENDS
;	COMDAT ??_C@_0BG@PADBLCHM@iostream?5stream?5error?$AA@
CONST	SEGMENT
??_C@_0BG@PADBLCHM@iostream?5stream?5error?$AA@ DB 'iostream stream error'
	DB	00H						; `string'
CONST	ENDS
;	COMDAT ??_C@_08LLGCOLLL@iostream?$AA@
CONST	SEGMENT
??_C@_08LLGCOLLL@iostream?$AA@ DB 'iostream', 00H	; `string'
CONST	ENDS
;	COMDAT ??_7_Iostream_error_category@std@@6B@
CONST	SEGMENT
??_7_Iostream_error_category@std@@6B@ DD FLAT:??_R4_Iostream_error_category@std@@6B@ ; std::_Iostream_error_category::`vftable'
	DD	FLAT:??_E_Iostream_error_category@std@@UAEPAXI@Z
	DD	FLAT:?name@_Iostream_error_category@std@@UBEPBDXZ
	DD	FLAT:?message@_Iostream_error_category@std@@UBE?AV?$basic_string@DU?$char_traits@D@std@@V?$allocator@D@2@@2@H@Z
	DD	FLAT:?default_error_condition@error_category@std@@UBE?AVerror_condition@2@H@Z
	DD	FLAT:?equivalent@error_category@std@@UBE_NABVerror_code@2@H@Z
	DD	FLAT:?equivalent@error_category@std@@UBE_NHABVerror_condition@2@@Z
CONST	ENDS
;	COMDAT ??_C@_0O@BFJCFAAK@unknown?5error?$AA@
CONST	SEGMENT
??_C@_0O@BFJCFAAK@unknown?5error?$AA@ DB 'unknown error', 00H ; `string'
CONST	ENDS
;	COMDAT ??_C@_07DCLBNMLN@generic?$AA@
CONST	SEGMENT
??_C@_07DCLBNMLN@generic?$AA@ DB 'generic', 00H		; `string'
CONST	ENDS
;	COMDAT ??_7_Generic_error_category@std@@6B@
CONST	SEGMENT
??_7_Generic_error_category@std@@6B@ DD FLAT:??_R4_Generic_error_category@std@@6B@ ; std::_Generic_error_category::`vftable'
	DD	FLAT:??_E_Generic_error_category@std@@UAEPAXI@Z
	DD	FLAT:?name@_Generic_error_category@std@@UBEPBDXZ
	DD	FLAT:?message@_Generic_error_category@std@@UBE?AV?$basic_string@DU?$char_traits@D@std@@V?$allocator@D@2@@2@H@Z
	DD	FLAT:?default_error_condition@error_category@std@@UBE?AVerror_condition@2@H@Z
	DD	FLAT:?equivalent@error_category@std@@UBE_NABVerror_code@2@H@Z
	DD	FLAT:?equivalent@error_category@std@@UBE_NHABVerror_condition@2@@Z
CONST	ENDS
;	COMDAT ??_7error_category@std@@6B@
CONST	SEGMENT
??_7error_category@std@@6B@ DD FLAT:??_R4error_category@std@@6B@ ; std::error_category::`vftable'
	DD	FLAT:??_Eerror_category@std@@UAEPAXI@Z
	DD	FLAT:__purecall
	DD	FLAT:__purecall
	DD	FLAT:?default_error_condition@error_category@std@@UBE?AVerror_condition@2@H@Z
	DD	FLAT:?equivalent@error_category@std@@UBE_NABVerror_code@2@H@Z
	DD	FLAT:?equivalent@error_category@std@@UBE_NHABVerror_condition@2@@Z
CONST	ENDS
;	COMDAT ??_7ObjectiveClass@@6B@
CONST	SEGMENT
??_7ObjectiveClass@@6B@ DD FLAT:??_R4ObjectiveClass@@6B@ ; ObjectiveClass::`vftable'
	DD	FLAT:?CustomCollisionCheck@VuEntity@@UAEEPAV1@M@Z
	DD	FLAT:?TerrainCollisionCheck@VuEntity@@UAEEXZ
	DD	FLAT:?IsTarget@VuEntity@@UAEEXZ
	DD	FLAT:?IsSession@VuEntity@@UAEEXZ
	DD	FLAT:?IsGroup@VuEntity@@UAEEXZ
	DD	FLAT:?IsGame@VuEntity@@UAEEXZ
	DD	FLAT:?IsCamera@VuEntity@@UBEEXZ
	DD	FLAT:?SaveSize@ObjectiveClass@@UAEHXZ
	DD	FLAT:?Save@FalconEntity@@UAEHPAU_iobuf@@@Z
	DD	FLAT:?Save@ObjectiveClass@@UAEHPAPAE@Z
	DD	FLAT:?Handle@CampBaseClass@@UAEHPAVVuSessionEvent@@@Z
	DD	FLAT:?Handle@CampBaseClass@@UAEHPAVVuTransferEvent@@@Z
	DD	FLAT:?Handle@CampBaseClass@@UAEHPAVVuEntityCollisionEvent@@@Z
	DD	FLAT:?Handle@CampBaseClass@@UAEHPAVVuPositionUpdateEvent@@@Z
	DD	FLAT:?Handle@ObjectiveClass@@UAEHPAVVuFullUpdateEvent@@@Z
	DD	FLAT:?Handle@CampBaseClass@@UAEHPAVVuEvent@@@Z
	DD	FLAT:?Handle@VuEntity@@UAEHPAVVuPullRequest@@@Z
	DD	FLAT:?Handle@VuEntity@@UAEHPAVVuPushRequest@@@Z
	DD	FLAT:?Handle@VuEntity@@UAEHPAVVuErrorMessage@@@Z
	DD	FLAT:??_EObjectiveClass@@UAEPAXI@Z
	DD	FLAT:?InsertionCallback@VuEntity@@MAEHXZ
	DD	FLAT:?RemovalCallback@FalconEntity@@UAEHXZ
	DD	FLAT:?InitData@CampBaseClass@@UAEXXZ
	DD	FLAT:?CleanupData@FalconEntity@@UAEXXZ
	DD	FLAT:?IsSimBase@FalconEntity@@UAE_NXZ
	DD	FLAT:?IsCampBase@CampBaseClass@@UAE_NXZ
	DD	FLAT:?Wake@ObjectiveClass@@UAEHXZ
	DD	FLAT:?Sleep@ObjectiveClass@@UAEHXZ
	DD	FLAT:?GetCampID@CampBaseClass@@UAEFXZ
	DD	FLAT:?GetTeam@CampBaseClass@@UAEEXZ
	DD	FLAT:?GetCountry@CampBaseClass@@UAEEXZ
	DD	FLAT:?GetDomain@FalconEntity@@UAEEXZ
	DD	FLAT:?GetRadarMode@ObjectiveClass@@UAEHXZ
	DD	FLAT:?SetRadarMode@FalconEntity@@UAEXE@Z
	DD	FLAT:?ReturnToSearch@FalconEntity@@UAEXXZ
	DD	FLAT:?SetSearchMode@FalconEntity@@UAEXE@Z
	DD	FLAT:?CombatClass@FalconEntity@@UAEHXZ
	DD	FLAT:?OnGround@ObjectiveClass@@UAEHXZ
	DD	FLAT:?HasEntity@CampBaseClass@@UBEHPAVVuEntity@@@Z
	DD	FLAT:?IsMissile@FalconEntity@@UAEHXZ
	DD	FLAT:?IsLauncher@FalconEntity@@UAEHXZ
	DD	FLAT:?IsBomb@FalconEntity@@UAEHXZ
	DD	FLAT:?IsGun@FalconEntity@@UAEHXZ
	DD	FLAT:?IsMover@FalconEntity@@UAEHXZ
	DD	FLAT:?IsVehicle@FalconEntity@@UAEHXZ
	DD	FLAT:?IsStatic@FalconEntity@@UAEHXZ
	DD	FLAT:?IsHelicopter@FalconEntity@@UAEHXZ
	DD	FLAT:?IsEject@FalconEntity@@UAEHXZ
	DD	FLAT:?IsAirplane@FalconEntity@@UAEHXZ
	DD	FLAT:?IsGroundVehicle@FalconEntity@@UAEHXZ
	DD	FLAT:?IsShip@FalconEntity@@UAEHXZ
	DD	FLAT:?IsWeapon@FalconEntity@@UAEHXZ
	DD	FLAT:?IsExploding@FalconEntity@@UAEHXZ
	DD	FLAT:?IsDead@FalconEntity@@UAEHXZ
	DD	FLAT:?IsEmitting@CampBaseClass@@UAEHXZ
	DD	FLAT:?GetVt@ObjectiveClass@@UBEMXZ
	DD	FLAT:?GetKias@ObjectiveClass@@UBEMXZ
	DD	FLAT:?GetMovementType@ObjectiveClass@@UAE?AW4MoveType@@XZ
	DD	FLAT:?IsUnit@FalconEntity@@UAEHXZ
	DD	FLAT:?IsObjective@ObjectiveClass@@UAEHXZ
	DD	FLAT:?IsBattalion@FalconEntity@@UAEHXZ
	DD	FLAT:?IsBrigade@FalconEntity@@UAEHXZ
	DD	FLAT:?IsFlight@FalconEntity@@UBEHXZ
	DD	FLAT:?IsSquadron@FalconEntity@@UAEHXZ
	DD	FLAT:?IsPackage@FalconEntity@@UAEHXZ
	DD	FLAT:?IsTeam@FalconEntity@@UAEHXZ
	DD	FLAT:?IsTaskForce@FalconEntity@@UAEHXZ
	DD	FLAT:?IsSPJamming@FalconEntity@@UAEHXZ
	DD	FLAT:?IsAreaJamming@FalconEntity@@UAEHXZ
	DD	FLAT:?HasSPJamming@FalconEntity@@UAEHXZ
	DD	FLAT:?HasAreaJamming@FalconEntity@@UAEHXZ
	DD	FLAT:?GetRCSFactor@FalconEntity@@UAEMXZ
	DD	FLAT:?GetIRFactor@FalconEntity@@UAEMXZ
	DD	FLAT:?GetRadarType@ObjectiveClass@@UAEHXZ
	DD	FLAT:?GetDamageModifiers@ObjectiveClass@@UAEPAEXZ
	DD	FLAT:?SetAQUIREtimer@FalconEntity@@UAEXK@Z
	DD	FLAT:?SetSEARCHtimer@FalconEntity@@UAEXK@Z
	DD	FLAT:?SetStepSearchMode@FalconEntity@@UAEXE@Z
	DD	FLAT:?GetAQUIREtimer@FalconEntity@@UAEKXZ
	DD	FLAT:?GetSEARCHtimer@FalconEntity@@UAEKXZ
	DD	FLAT:?SetOwner@ObjectiveClass@@UAEXE@Z
	DD	FLAT:?SendDeaggregateData@ObjectiveClass@@UAEXPAVVuTargetEntity@@@Z
	DD	FLAT:?RecordCurrentState@ObjectiveClass@@UAEHPAVFalconSessionEntity@@H@Z
	DD	FLAT:?Deaggregate@ObjectiveClass@@UAEHPAVFalconSessionEntity@@@Z
	DD	FLAT:?Reaggregate@ObjectiveClass@@UAEHPAVFalconSessionEntity@@@Z
	DD	FLAT:?TransferOwnership@ObjectiveClass@@UAEHPAVFalconSessionEntity@@@Z
	DD	FLAT:?InsertInSimLists@ObjectiveClass@@UAEXMM@Z
	DD	FLAT:?RemoveFromSimLists@ObjectiveClass@@UAEXXZ
	DD	FLAT:?DeaggregateFromData@ObjectiveClass@@UAEXPAEJ@Z
	DD	FLAT:?ReaggregateFromData@ObjectiveClass@@UAEXPAEJ@Z
	DD	FLAT:?TransferOwnershipFromData@ObjectiveClass@@UAEXPAEJ@Z
	DD	FLAT:?ApplyDamage@ObjectiveClass@@UAEHW4DamageDataType@@PAHHF@Z
	DD	FLAT:?ApplyDamage@ObjectiveClass@@UAEHPAVFalconCampWeaponsFire@@E@Z
	DD	FLAT:?DecodeDamageData@ObjectiveClass@@UAEHPAEPAVUnitClass@@PAVFalconDeathMessage@@@Z
	DD	FLAT:?CollectWeapons@CampBaseClass@@UAEHPAEW4MoveType@@QAFQAEH@Z
	DD	FLAT:?GetName@ObjectiveClass@@UAEPADPADHH@Z
	DD	FLAT:?GetFullName@ObjectiveClass@@UAEPADPADHH@Z
	DD	FLAT:?GetDivisionName@CampBaseClass@@UAEPADPADHH@Z
	DD	FLAT:?GetHitChance@ObjectiveClass@@UAEHHH@Z
	DD	FLAT:?GetAproxHitChance@ObjectiveClass@@UAEHHH@Z
	DD	FLAT:?GetCombatStrength@ObjectiveClass@@UAEHHH@Z
	DD	FLAT:?GetAproxCombatStrength@ObjectiveClass@@UAEHHH@Z
	DD	FLAT:?GetWeaponRange@ObjectiveClass@@UAEHHPAVFalconEntity@@@Z
	DD	FLAT:?GetAproxWeaponRange@ObjectiveClass@@UAEHH@Z
	DD	FLAT:?GetDetectionRange@ObjectiveClass@@UAEHH@Z
	DD	FLAT:?GetElectronicDetectionRange@ObjectiveClass@@UAEHH@Z
	DD	FLAT:?CanDetect@ObjectiveClass@@UAEHPAVFalconEntity@@@Z
	DD	FLAT:?StepRadar@CampBaseClass@@UAEHHHM@Z
	DD	FLAT:?GetNumberOfArcs@ObjectiveClass@@UAEHXZ
	DD	FLAT:?GetArcRatio@ObjectiveClass@@UAEMH@Z
	DD	FLAT:?GetArcRange@ObjectiveClass@@UAEMH@Z
	DD	FLAT:?GetArcAngle@ObjectiveClass@@UAEXHPAM0@Z
	DD	FLAT:?GetMissilesFlying@CampBaseClass@@UAEHXZ
	DD	FLAT:?SaveSize@ObjectiveClass@@UAEHH@Z
	DD	FLAT:?Save@ObjectiveClass@@UAEHPAPAEH@Z
CONST	ENDS
;	COMDAT ??_C@_04OHJIHAFH@None?$AA@
CONST	SEGMENT
??_C@_04OHJIHAFH@None?$AA@ DB 'None', 00H		; `string'
CONST	ENDS
;	COMDAT __CT??_R0?AVexception@std@@@8??0exception@std@@QAE@ABV01@@Z12
xdata$x	SEGMENT
__CT??_R0?AVexception@std@@@8??0exception@std@@QAE@ABV01@@Z12 DD 00H
	DD	FLAT:??_R0?AVexception@std@@@8
	DD	00H
	DD	0ffffffffH
	ORG $+4
	DD	0cH
	DD	FLAT:??0exception@std@@QAE@ABV01@@Z
xdata$x	ENDS
;	COMDAT ??_R0?AVexception@std@@@8
_DATA	SEGMENT
??_R0?AVexception@std@@@8 DD FLAT:??_7type_info@@6B@	; std::exception `RTTI Type Descriptor'
	DD	00H
	DB	'.?AVexception@std@@', 00H
_DATA	ENDS
;	COMDAT __CT??_R0?AVlogic_error@std@@@8??0logic_error@std@@QAE@ABV01@@Z12
xdata$x	SEGMENT
__CT??_R0?AVlogic_error@std@@@8??0logic_error@std@@QAE@ABV01@@Z12 DD 00H
	DD	FLAT:??_R0?AVlogic_error@std@@@8
	DD	00H
	DD	0ffffffffH
	ORG $+4
	DD	0cH
	DD	FLAT:??0logic_error@std@@QAE@ABV01@@Z
xdata$x	ENDS
;	COMDAT ??_R0?AVlogic_error@std@@@8
_DATA	SEGMENT
??_R0?AVlogic_error@std@@@8 DD FLAT:??_7type_info@@6B@	; std::logic_error `RTTI Type Descriptor'
	DD	00H
	DB	'.?AVlogic_error@std@@', 00H
_DATA	ENDS
;	COMDAT __CT??_R0?AVout_of_range@std@@@8??0out_of_range@std@@QAE@ABV01@@Z12
xdata$x	SEGMENT
__CT??_R0?AVout_of_range@std@@@8??0out_of_range@std@@QAE@ABV01@@Z12 DD 00H
	DD	FLAT:??_R0?AVout_of_range@std@@@8
	DD	00H
	DD	0ffffffffH
	ORG $+4
	DD	0cH
	DD	FLAT:??0out_of_range@std@@QAE@ABV01@@Z
xdata$x	ENDS
;	COMDAT ??_R0?AVout_of_range@std@@@8
_DATA	SEGMENT
??_R0?AVout_of_range@std@@@8 DD FLAT:??_7type_info@@6B@	; std::out_of_range `RTTI Type Descriptor'
	DD	00H
	DB	'.?AVout_of_range@std@@', 00H
_DATA	ENDS
;	COMDAT __CT??_R0?AVInvalidBufferException@@@8??0InvalidBufferException@@QAE@ABV0@@Z12
xdata$x	SEGMENT
__CT??_R0?AVInvalidBufferException@@@8??0InvalidBufferException@@QAE@ABV0@@Z12 DD 00H
	DD	FLAT:??_R0?AVInvalidBufferException@@@8
	DD	00H
	DD	0ffffffffH
	ORG $+4
	DD	0cH
	DD	FLAT:??0InvalidBufferException@@QAE@ABV0@@Z
xdata$x	ENDS
;	COMDAT ??_R0?AVInvalidBufferException@@@8
_DATA	SEGMENT
??_R0?AVInvalidBufferException@@@8 DD FLAT:??_7type_info@@6B@ ; InvalidBufferException `RTTI Type Descriptor'
	DD	00H
	DB	'.?AVInvalidBufferException@@', 00H
_DATA	ENDS
;	COMDAT __CTA4?AVInvalidBufferException@@
xdata$x	SEGMENT
__CTA4?AVInvalidBufferException@@ DD 04H
	DD	FLAT:__CT??_R0?AVInvalidBufferException@@@8??0InvalidBufferException@@QAE@ABV0@@Z12
	DD	FLAT:__CT??_R0?AVout_of_range@std@@@8??0out_of_range@std@@QAE@ABV01@@Z12
	DD	FLAT:__CT??_R0?AVlogic_error@std@@@8??0logic_error@std@@QAE@ABV01@@Z12
	DD	FLAT:__CT??_R0?AVexception@std@@@8??0exception@std@@QAE@ABV01@@Z12
xdata$x	ENDS
;	COMDAT __TI4?AVInvalidBufferException@@
xdata$x	SEGMENT
__TI4?AVInvalidBufferException@@ DD 00H
	DD	FLAT:??1InvalidBufferException@@UAE@XZ
	DD	00H
	DD	FLAT:__CTA4?AVInvalidBufferException@@
xdata$x	ENDS
;	COMDAT ??_C@_0CI@MPKJAHJH@Trying?5to?5write?5?$CFlu?5bytes?5to?5?$CFld@
CONST	SEGMENT
??_C@_0CI@MPKJAHJH@Trying?5to?5write?5?$CFlu?5bytes?5to?5?$CFld@ DB 'Tryi'
	DB	'ng to write %lu bytes to %ld buffer', 00H	; `string'
CONST	ENDS
;	COMDAT ??_7InvalidBufferException@@6B@
CONST	SEGMENT
??_7InvalidBufferException@@6B@ DD FLAT:??_R4InvalidBufferException@@6B@ ; InvalidBufferException::`vftable'
	DD	FLAT:??_EInvalidBufferException@@UAEPAXI@Z
	DD	FLAT:?what@exception@std@@UBEPBDXZ
CONST	ENDS
;	COMDAT ??_7out_of_range@std@@6B@
CONST	SEGMENT
??_7out_of_range@std@@6B@ DD FLAT:??_R4out_of_range@std@@6B@ ; std::out_of_range::`vftable'
	DD	FLAT:??_Eout_of_range@std@@UAEPAXI@Z
	DD	FLAT:?what@exception@std@@UBEPBDXZ
CONST	ENDS
;	COMDAT ??_7logic_error@std@@6B@
CONST	SEGMENT
??_7logic_error@std@@6B@ DD FLAT:??_R4logic_error@std@@6B@ ; std::logic_error::`vftable'
	DD	FLAT:??_Elogic_error@std@@UAEPAXI@Z
	DD	FLAT:?what@exception@std@@UBEPBDXZ
CONST	ENDS
;	COMDAT xdata$x
xdata$x	SEGMENT
__unwindtable$??$construct@PADAAPAD@?$allocator@D@std@@QAEXPAPADAAPAD@Z DD 0ffffffffH
	DD	FLAT:__unwindfunclet$??$construct@PADAAPAD@?$allocator@D@std@@QAEXPAPADAAPAD@Z$0
__ehfuncinfo$??$construct@PADAAPAD@?$allocator@D@std@@QAEXPAPADAAPAD@Z DD 019930522H
	DD	01H
	DD	FLAT:__unwindtable$??$construct@PADAAPAD@?$allocator@D@std@@QAEXPAPADAAPAD@Z
	DD	2 DUP(00H)
	DD	2 DUP(00H)
	DD	00H
	DD	01H
xdata$x	ENDS
xdata$x	SEGMENT
__unwindtable$?GetChildObjectives@@YAPAVFalconPrivateList@@PAVObjectiveClass@@HH@Z DD 0ffffffffH
	DD	FLAT:__unwindfunclet$?GetChildObjectives@@YAPAVFalconPrivateList@@PAVObjectiveClass@@HH@Z$0
__unwindtable$?RepairObjectives@@YAXXZ DD 0ffffffffH
	DD	FLAT:__unwindfunclet$?RepairObjectives@@YAXXZ$0
__unwindtable$?BestRepairFeature@@YAHPAVObjectiveClass@@PAH@Z DD 0ffffffffH
	DD	FLAT:__unwindfunclet$?BestRepairFeature@@YAHPAVObjectiveClass@@PAH@Z$0
__unwindtable$?LoadObjectiveDeltas@@YAHPAD@Z DD 0ffffffffH
	DD	FLAT:__unwindfunclet$?LoadObjectiveDeltas@@YAHPAD@Z$0
__unwindtable$?NewObjective@@YAPAVObjectiveClass@@FPAPAEPAJ@Z DD 0ffffffffH
	DD	FLAT:__unwindfunclet$?NewObjective@@YAPAVObjectiveClass@@FPAPAEPAJ@Z$0
__unwindtable$?NewObjective@@YAPAVObjectiveClass@@XZ DD 0ffffffffH
	DD	FLAT:__unwindfunclet$?NewObjective@@YAPAVObjectiveClass@@XZ$0
__unwindtable$?RecalculateParent@ObjectiveClass@@QAEXXZ DD 0ffffffffH
	DD	FLAT:__unwindfunclet$?RecalculateParent@ObjectiveClass@@QAEXXZ$0
__unwindtable$?RemoveObjectiveNeighbor@ObjectiveClass@@QAEXH@Z DD 0ffffffffH
	DD	FLAT:__unwindfunclet$?RemoveObjectiveNeighbor@ObjectiveClass@@QAEXH@Z$0
__unwindtable$?AddObjectiveNeighbor@ObjectiveClass@@QAEXPAV1@QAE@Z DD 0ffffffffH
	DD	FLAT:__unwindfunclet$?AddObjectiveNeighbor@ObjectiveClass@@QAEXPAV1@QAE@Z$0
__unwindtable$?SendObjMessage@ObjectiveClass@@QAEXVVU_ID@@FFFF@Z DD 0ffffffffH
	DD	FLAT:__unwindfunclet$?SendObjMessage@ObjectiveClass@@QAEXVVU_ID@@FFFF@Z$0
__unwindtable$?TransferOwnershipFromData@ObjectiveClass@@UAEXPAEJ@Z DD 0ffffffffH
	DD	FLAT:__unwindfunclet$?TransferOwnershipFromData@ObjectiveClass@@UAEXPAEJ@Z$0
__unwindtable$?ReaggregateFromData@ObjectiveClass@@UAEXPAEJ@Z DD 0ffffffffH
	DD	FLAT:__unwindfunclet$?ReaggregateFromData@ObjectiveClass@@UAEXPAEJ@Z$0
__unwindtable$?TransferOwnership@ObjectiveClass@@UAEHPAVFalconSessionEntity@@@Z DD 0ffffffffH
	DD	FLAT:__unwindfunclet$?TransferOwnership@ObjectiveClass@@UAEHPAVFalconSessionEntity@@@Z$0
__unwindtable$?RecordCurrentState@ObjectiveClass@@UAEHPAVFalconSessionEntity@@H@Z DD 0ffffffffH
	DD	FLAT:__unwindfunclet$?RecordCurrentState@ObjectiveClass@@UAEHPAVFalconSessionEntity@@H@Z$0
__unwindtable$??1ObjectiveClass@@UAE@XZ DD 0ffffffffH
	DD	FLAT:__unwindfunclet$??1ObjectiveClass@@UAE@XZ$0
__unwindtable$?EncodeObjectiveDeltas@@YAHPAPAEPAVFalconSessionEntity@@@Z DD 0ffffffffH
	DD	FLAT:__unwindfunclet$?EncodeObjectiveDeltas@@YAHPAPAEPAVFalconSessionEntity@@@Z$0
	DD	0ffffffffH
	DD	FLAT:__unwindfunclet$?EncodeObjectiveDeltas@@YAHPAPAEPAVFalconSessionEntity@@@Z$1
__unwindtable$?CaptureObjective@@YAXPAVObjectiveClass@@EPAVUnitClass@@@Z DD 0ffffffffH
	DD	FLAT:__unwindfunclet$?CaptureObjective@@YAXPAVObjectiveClass@@EPAVUnitClass@@@Z$0
	DD	00H
	DD	FLAT:__unwindfunclet$?CaptureObjective@@YAXPAVObjectiveClass@@EPAVUnitClass@@@Z$1
__unwindtable$?SaveBaseObjectives@@YAXPAD@Z DD 0ffffffffH
	DD	FLAT:__unwindfunclet$?SaveBaseObjectives@@YAXPAD@Z$0
	DD	0ffffffffH
	DD	FLAT:__unwindfunclet$?SaveBaseObjectives@@YAXPAD@Z$1
__unwindtable$?DeaggregateFromData@ObjectiveClass@@UAEXPAEJ@Z DD 0ffffffffH
	DD	FLAT:__unwindfunclet$?DeaggregateFromData@ObjectiveClass@@UAEXPAEJ@Z$0
	DD	00H
	DD	FLAT:__unwindfunclet$?DeaggregateFromData@ObjectiveClass@@UAEXPAEJ@Z$1
__unwindtable$?Reaggregate@ObjectiveClass@@UAEHPAVFalconSessionEntity@@@Z DD 0ffffffffH
	DD	FLAT:__unwindfunclet$?Reaggregate@ObjectiveClass@@UAEHPAVFalconSessionEntity@@@Z$0
	DD	0ffffffffH
	DD	FLAT:__unwindfunclet$?Reaggregate@ObjectiveClass@@UAEHPAVFalconSessionEntity@@@Z$1
__unwindtable$?Deaggregate@ObjectiveClass@@UAEHPAVFalconSessionEntity@@@Z DD 0ffffffffH
	DD	FLAT:__unwindfunclet$?Deaggregate@ObjectiveClass@@UAEHPAVFalconSessionEntity@@@Z$0
	DD	00H
	DD	FLAT:__unwindfunclet$?Deaggregate@ObjectiveClass@@UAEHPAVFalconSessionEntity@@@Z$1
__unwindtable$?SendDeaggregateData@ObjectiveClass@@UAEXPAVVuTargetEntity@@@Z DD 0ffffffffH
	DD	FLAT:__unwindfunclet$?SendDeaggregateData@ObjectiveClass@@UAEXPAVVuTargetEntity@@@Z$0
	DD	0ffffffffH
	DD	FLAT:__unwindfunclet$?SendDeaggregateData@ObjectiveClass@@UAEXPAVVuTargetEntity@@@Z$1
__unwindtable$??0ObjectiveClass@@QAE@H@Z DD 0ffffffffH
	DD	FLAT:__unwindfunclet$??0ObjectiveClass@@QAE@H@Z$0
	DD	00H
	DD	FLAT:__unwindfunclet$??0ObjectiveClass@@QAE@H@Z$1
__unwindtable$??0ObjectiveClass@@QAE@PAPAEPAJ@Z DD 0ffffffffH
	DD	FLAT:__unwindfunclet$??0ObjectiveClass@@QAE@PAPAEPAJ@Z$0
	DD	00H
	DD	FLAT:__unwindfunclet$??0ObjectiveClass@@QAE@PAPAEPAJ@Z$1
	DD	00H
	DD	FLAT:__unwindfunclet$??0ObjectiveClass@@QAE@PAPAEPAJ@Z$2
__ehfuncinfo$?EncodeObjectiveDeltas@@YAHPAPAEPAVFalconSessionEntity@@@Z DD 019930522H
	DD	02H
	DD	FLAT:__unwindtable$?EncodeObjectiveDeltas@@YAHPAPAEPAVFalconSessionEntity@@@Z
	DD	2 DUP(00H)
	DD	2 DUP(00H)
	DD	00H
	DD	01H
__ehfuncinfo$?CaptureObjective@@YAXPAVObjectiveClass@@EPAVUnitClass@@@Z DD 019930522H
	DD	02H
	DD	FLAT:__unwindtable$?CaptureObjective@@YAXPAVObjectiveClass@@EPAVUnitClass@@@Z
	DD	2 DUP(00H)
	DD	2 DUP(00H)
	DD	00H
	DD	01H
__ehfuncinfo$?GetChildObjectives@@YAPAVFalconPrivateList@@PAVObjectiveClass@@HH@Z DD 019930522H
	DD	01H
	DD	FLAT:__unwindtable$?GetChildObjectives@@YAPAVFalconPrivateList@@PAVObjectiveClass@@HH@Z
	DD	2 DUP(00H)
	DD	2 DUP(00H)
	DD	00H
	DD	01H
__ehfuncinfo$?RepairObjectives@@YAXXZ DD 019930522H
	DD	01H
	DD	FLAT:__unwindtable$?RepairObjectives@@YAXXZ
	DD	2 DUP(00H)
	DD	2 DUP(00H)
	DD	00H
	DD	01H
__ehfuncinfo$?BestRepairFeature@@YAHPAVObjectiveClass@@PAH@Z DD 019930522H
	DD	01H
	DD	FLAT:__unwindtable$?BestRepairFeature@@YAHPAVObjectiveClass@@PAH@Z
	DD	2 DUP(00H)
	DD	2 DUP(00H)
	DD	00H
	DD	01H
__ehfuncinfo$?SaveBaseObjectives@@YAXPAD@Z DD 019930522H
	DD	02H
	DD	FLAT:__unwindtable$?SaveBaseObjectives@@YAXPAD@Z
	DD	2 DUP(00H)
	DD	2 DUP(00H)
	DD	00H
	DD	01H
__ehfuncinfo$?LoadObjectiveDeltas@@YAHPAD@Z DD 019930522H
	DD	01H
	DD	FLAT:__unwindtable$?LoadObjectiveDeltas@@YAHPAD@Z
	DD	2 DUP(00H)
	DD	2 DUP(00H)
	DD	00H
	DD	01H
__ehfuncinfo$?NewObjective@@YAPAVObjectiveClass@@FPAPAEPAJ@Z DD 019930522H
	DD	01H
	DD	FLAT:__unwindtable$?NewObjective@@YAPAVObjectiveClass@@FPAPAEPAJ@Z
	DD	2 DUP(00H)
	DD	2 DUP(00H)
	DD	00H
	DD	01H
__ehfuncinfo$?NewObjective@@YAPAVObjectiveClass@@XZ DD 019930522H
	DD	01H
	DD	FLAT:__unwindtable$?NewObjective@@YAPAVObjectiveClass@@XZ
	DD	2 DUP(00H)
	DD	2 DUP(00H)
	DD	00H
	DD	01H
__ehfuncinfo$?RecalculateParent@ObjectiveClass@@QAEXXZ DD 019930522H
	DD	01H
	DD	FLAT:__unwindtable$?RecalculateParent@ObjectiveClass@@QAEXXZ
	DD	2 DUP(00H)
	DD	2 DUP(00H)
	DD	00H
	DD	01H
__ehfuncinfo$?RemoveObjectiveNeighbor@ObjectiveClass@@QAEXH@Z DD 019930522H
	DD	01H
	DD	FLAT:__unwindtable$?RemoveObjectiveNeighbor@ObjectiveClass@@QAEXH@Z
	DD	2 DUP(00H)
	DD	2 DUP(00H)
	DD	00H
	DD	01H
__ehfuncinfo$?AddObjectiveNeighbor@ObjectiveClass@@QAEXPAV1@QAE@Z DD 019930522H
	DD	01H
	DD	FLAT:__unwindtable$?AddObjectiveNeighbor@ObjectiveClass@@QAEXPAV1@QAE@Z
	DD	2 DUP(00H)
	DD	2 DUP(00H)
	DD	00H
	DD	01H
__ehfuncinfo$?SendObjMessage@ObjectiveClass@@QAEXVVU_ID@@FFFF@Z DD 019930522H
	DD	01H
	DD	FLAT:__unwindtable$?SendObjMessage@ObjectiveClass@@QAEXVVU_ID@@FFFF@Z
	DD	2 DUP(00H)
	DD	2 DUP(00H)
	DD	00H
	DD	01H
__ehfuncinfo$?TransferOwnershipFromData@ObjectiveClass@@UAEXPAEJ@Z DD 019930522H
	DD	01H
	DD	FLAT:__unwindtable$?TransferOwnershipFromData@ObjectiveClass@@UAEXPAEJ@Z
	DD	2 DUP(00H)
	DD	2 DUP(00H)
	DD	00H
	DD	01H
__ehfuncinfo$?ReaggregateFromData@ObjectiveClass@@UAEXPAEJ@Z DD 019930522H
	DD	01H
	DD	FLAT:__unwindtable$?ReaggregateFromData@ObjectiveClass@@UAEXPAEJ@Z
	DD	2 DUP(00H)
	DD	2 DUP(00H)
	DD	00H
	DD	01H
__ehfuncinfo$?DeaggregateFromData@ObjectiveClass@@UAEXPAEJ@Z DD 019930522H
	DD	02H
	DD	FLAT:__unwindtable$?DeaggregateFromData@ObjectiveClass@@UAEXPAEJ@Z
	DD	2 DUP(00H)
	DD	2 DUP(00H)
	DD	00H
	DD	01H
__ehfuncinfo$?TransferOwnership@ObjectiveClass@@UAEHPAVFalconSessionEntity@@@Z DD 019930522H
	DD	01H
	DD	FLAT:__unwindtable$?TransferOwnership@ObjectiveClass@@UAEHPAVFalconSessionEntity@@@Z
	DD	2 DUP(00H)
	DD	2 DUP(00H)
	DD	00H
	DD	01H
__ehfuncinfo$?Reaggregate@ObjectiveClass@@UAEHPAVFalconSessionEntity@@@Z DD 019930522H
	DD	02H
	DD	FLAT:__unwindtable$?Reaggregate@ObjectiveClass@@UAEHPAVFalconSessionEntity@@@Z
	DD	2 DUP(00H)
	DD	2 DUP(00H)
	DD	00H
	DD	01H
__ehfuncinfo$?Deaggregate@ObjectiveClass@@UAEHPAVFalconSessionEntity@@@Z DD 019930522H
	DD	02H
	DD	FLAT:__unwindtable$?Deaggregate@ObjectiveClass@@UAEHPAVFalconSessionEntity@@@Z
	DD	2 DUP(00H)
	DD	2 DUP(00H)
	DD	00H
	DD	01H
__ehfuncinfo$?RecordCurrentState@ObjectiveClass@@UAEHPAVFalconSessionEntity@@H@Z DD 019930522H
	DD	01H
	DD	FLAT:__unwindtable$?RecordCurrentState@ObjectiveClass@@UAEHPAVFalconSessionEntity@@H@Z
	DD	2 DUP(00H)
	DD	2 DUP(00H)
	DD	00H
	DD	01H
__ehfuncinfo$?SendDeaggregateData@ObjectiveClass@@UAEXPAVVuTargetEntity@@@Z DD 019930522H
	DD	02H
	DD	FLAT:__unwindtable$?SendDeaggregateData@ObjectiveClass@@UAEXPAVVuTargetEntity@@@Z
	DD	2 DUP(00H)
	DD	2 DUP(00H)
	DD	00H
	DD	01H
__ehfuncinfo$??1ObjectiveClass@@UAE@XZ DD 019930522H
	DD	01H
	DD	FLAT:__unwindtable$??1ObjectiveClass@@UAE@XZ
	DD	2 DUP(00H)
	DD	2 DUP(00H)
	DD	00H
	DD	01H
__ehfuncinfo$??0ObjectiveClass@@QAE@PAPAEPAJ@Z DD 019930522H
	DD	03H
	DD	FLAT:__unwindtable$??0ObjectiveClass@@QAE@PAPAEPAJ@Z
	DD	2 DUP(00H)
	DD	2 DUP(00H)
	DD	00H
	DD	01H
__ehfuncinfo$??0ObjectiveClass@@QAE@H@Z DD 019930522H
	DD	02H
	DD	FLAT:__unwindtable$??0ObjectiveClass@@QAE@H@Z
	DD	2 DUP(00H)
	DD	2 DUP(00H)
	DD	00H
	DD	01H
xdata$x	ENDS
;	COMDAT xdata$x
xdata$x	SEGMENT
__unwindtable$?memcpychk@@YAXPAXPAPAEIPAJ@Z DD 0ffffffffH
	DD	FLAT:__unwindfunclet$?memcpychk@@YAXPAXPAPAEIPAJ@Z$0
__ehfuncinfo$?memcpychk@@YAXPAXPAPAEIPAJ@Z DD 019930522H
	DD	01H
	DD	FLAT:__unwindtable$?memcpychk@@YAXPAXPAPAEIPAJ@Z
	DD	2 DUP(00H)
	DD	2 DUP(00H)
	DD	00H
	DD	01H
xdata$x	ENDS
;	COMDAT xdata$x
xdata$x	SEGMENT
__catchsym$?_Copy@?$basic_string@DU?$char_traits@D@std@@V?$allocator@D@2@@std@@QAEXII@Z$5 DD 040H
	DD	00H
	DD	00H
	DD	FLAT:__catch$?_Copy@?$basic_string@DU?$char_traits@D@std@@V?$allocator@D@2@@std@@QAEXII@Z$0
__catchsym$?_Copy@?$basic_string@DU?$char_traits@D@std@@V?$allocator@D@2@@std@@QAEXII@Z$4 DD 040H
	DD	00H
	DD	00H
	DD	FLAT:__catch$?_Copy@?$basic_string@DU?$char_traits@D@std@@V?$allocator@D@2@@std@@QAEXII@Z$1
__unwindtable$?_Copy@?$basic_string@DU?$char_traits@D@std@@V?$allocator@D@2@@std@@QAEXII@Z DD 0ffffffffH
	DD	00H
	DD	0ffffffffH
	DD	00H
	DD	01H
	DD	00H
	DD	01H
	DD	00H
__ehfuncinfo$?_Copy@?$basic_string@DU?$char_traits@D@std@@V?$allocator@D@2@@std@@QAEXII@Z DD 019930522H
	DD	04H
	DD	FLAT:__unwindtable$?_Copy@?$basic_string@DU?$char_traits@D@std@@V?$allocator@D@2@@std@@QAEXII@Z
	DD	02H
	DD	FLAT:__tryblocktable$?_Copy@?$basic_string@DU?$char_traits@D@std@@V?$allocator@D@2@@std@@QAEXII@Z
	DD	2 DUP(00H)
	DD	00H
	DD	01H
__tryblocktable$?_Copy@?$basic_string@DU?$char_traits@D@std@@V?$allocator@D@2@@std@@QAEXII@Z DD 02H
	DD	02H
	DD	03H
	DD	01H
	DD	FLAT:__catchsym$?_Copy@?$basic_string@DU?$char_traits@D@std@@V?$allocator@D@2@@std@@QAEXII@Z$4
	DD	00H
	DD	00H
	DD	03H
	DD	01H
	DD	FLAT:__catchsym$?_Copy@?$basic_string@DU?$char_traits@D@std@@V?$allocator@D@2@@std@@QAEXII@Z$5
xdata$x	ENDS
CRT$XCU	SEGMENT
_allocator_arg$initializer$ DD FLAT:??__Eallocator_arg@std@@YAXXZ
CRT$XCU	ENDS
;	COMDAT CRT$XCU
CRT$XCU	SEGMENT
?_Generic_object$initializer$@?$_Error_objects@H@std@@2P6AXXZA DD FLAT:??__E?_Generic_object@?$_Error_objects@H@std@@2V_Generic_error_category@2@A@@YAXXZ ; std::_Error_objects<int>::_Generic_object$initializer$
CRT$XCU	ENDS
;	COMDAT CRT$XCU
CRT$XCU	SEGMENT
?_Iostream_object$initializer$@?$_Error_objects@H@std@@2P6AXXZA DD FLAT:??__E?_Iostream_object@?$_Error_objects@H@std@@2V_Iostream_error_category@2@A@@YAXXZ ; std::_Error_objects<int>::_Iostream_object$initializer$
CRT$XCU	ENDS
;	COMDAT CRT$XCU
CRT$XCU	SEGMENT
?_System_object$initializer$@?$_Error_objects@H@std@@2P6AXXZA DD FLAT:??__E?_System_object@?$_Error_objects@H@std@@2V_System_error_category@2@A@@YAXXZ ; std::_Error_objects<int>::_System_object$initializer$
CRT$XCU	ENDS
;	COMDAT CRT$XCU
CRT$XCU	SEGMENT
?id$initializer$@?$num_put@DV?$back_insert_iterator@V?$basic_string@DU?$char_traits@D@std@@V?$allocator@D@2@@std@@@std@@@std@@2P6AXXZA DD FLAT:??__E?id@?$num_put@DV?$back_insert_iterator@V?$basic_string@DU?$char_traits@D@std@@V?$allocator@D@2@@std@@@std@@@std@@2V0locale@2@A@@YAXXZ ; std::num_put<char,std::back_insert_iterator<std::basic_string<char,std::char_traits<char>,std::allocator<char> > > >::id$initializer$
CRT$XCU	ENDS
;	COMDAT CRT$XCU
CRT$XCU	SEGMENT
?id$initializer$@?$num_put@_WV?$back_insert_iterator@V?$basic_string@_WU?$char_traits@_W@std@@V?$allocator@_W@2@@std@@@std@@@std@@2P6AXXZA DD FLAT:??__E?id@?$num_put@_WV?$back_insert_iterator@V?$basic_string@_WU?$char_traits@_W@std@@V?$allocator@_W@2@@std@@@std@@@std@@2V0locale@2@A@@YAXXZ ; std::num_put<wchar_t,std::back_insert_iterator<std::basic_string<wchar_t,std::char_traits<wchar_t>,std::allocator<wchar_t> > > >::id$initializer$
CRT$XCU	ENDS
;	COMDAT CRT$XCU
CRT$XCU	SEGMENT
?id$initializer$@?$numpunct@D@std@@2P6AXXZA DD FLAT:??__E?id@?$numpunct@D@std@@2V0locale@2@A@@YAXXZ ; std::numpunct<char>::id$initializer$
CRT$XCU	ENDS
;	COMDAT CRT$XCU
CRT$XCU	SEGMENT
?id$initializer$@?$numpunct@_W@std@@2P6AXXZA DD FLAT:??__E?id@?$numpunct@_W@std@@2V0locale@2@A@@YAXXZ ; std::numpunct<wchar_t>::id$initializer$
CRT$XCU	ENDS
; Function compile flags: /Odtp
; File c:\program files (x86)\microsoft visual studio 11.0\vc\include\xmemory0
;	COMDAT ??$destroy@PAD@?$allocator@D@std@@QAEXPAPAD@Z
_TEXT	SEGMENT
_this$ = -4						; size = 4
__Ptr$ = 8						; size = 4
??$destroy@PAD@?$allocator@D@std@@QAEXPAPAD@Z PROC	; std::allocator<char>::destroy<char *>, COMDAT
; _this$ = ecx

; 621  : 		void destroy(_Uty *_Ptr)

	push	ebp
	mov	ebp, esp
	push	ecx
	mov	DWORD PTR _this$[ebp], ecx

; 622  : 		{	// destroy object at _Ptr
; 623  : 		_Ptr->~_Uty();
; 624  : 		}

	mov	esp, ebp
	pop	ebp
	ret	4
??$destroy@PAD@?$allocator@D@std@@QAEXPAPAD@Z ENDP	; std::allocator<char>::destroy<char *>
_TEXT	ENDS
; Function compile flags: /Odtp
; File c:\program files (x86)\microsoft visual studio 11.0\vc\include\xmemory0
;	COMDAT ??$construct@PADAAPAD@?$allocator@D@std@@QAEXPAPADAAPAD@Z
_TEXT	SEGMENT
$T2 = -28						; size = 4
_this$ = -24						; size = 4
tv73 = -20						; size = 4
$T3 = -16						; size = 4
__$EHRec$ = -12						; size = 12
__Ptr$ = 8						; size = 4
__V0$ = 12						; size = 4
??$construct@PADAAPAD@?$allocator@D@std@@QAEXPAPADAAPAD@Z PROC ; std::allocator<char>::construct<char *,char * &>, COMDAT
; _this$ = ecx

; 617  : _VARIADIC_EXPAND_0X(_ALLOC_MEMBER_CONSTRUCT, , , , )

	push	ebp
	mov	ebp, esp
	push	-1
	push	__ehhandler$??$construct@PADAAPAD@?$allocator@D@std@@QAEXPAPADAAPAD@Z
	mov	eax, DWORD PTR fs:0
	push	eax
	sub	esp, 16					; 00000010H
	mov	eax, DWORD PTR ___security_cookie
	xor	eax, ebp
	push	eax
	lea	eax, DWORD PTR __$EHRec$[ebp]
	mov	DWORD PTR fs:0, eax
	mov	DWORD PTR _this$[ebp], ecx
	mov	eax, DWORD PTR __Ptr$[ebp]
	push	eax
	push	4
	call	??2@YAPAXIPAX@Z				; operator new
	add	esp, 8
	mov	DWORD PTR $T3[ebp], eax
	mov	DWORD PTR __$EHRec$[ebp+8], 0
	cmp	DWORD PTR $T3[ebp], 0
	je	SHORT $LN3@construct
	mov	ecx, DWORD PTR __V0$[ebp]
	push	ecx
	call	??$forward@AAPAD@std@@YAAAPADAAPAD@Z	; std::forward<char * &>
	add	esp, 4
	mov	edx, DWORD PTR $T3[ebp]
	mov	eax, DWORD PTR [eax]
	mov	DWORD PTR [edx], eax
	mov	ecx, DWORD PTR $T3[ebp]
	mov	DWORD PTR tv73[ebp], ecx
	jmp	SHORT $LN4@construct
$LN3@construct:
	mov	DWORD PTR tv73[ebp], 0
$LN4@construct:
	mov	edx, DWORD PTR tv73[ebp]
	mov	DWORD PTR $T2[ebp], edx
	mov	DWORD PTR __$EHRec$[ebp+8], -1
	mov	ecx, DWORD PTR __$EHRec$[ebp]
	mov	DWORD PTR fs:0, ecx
	pop	ecx
	mov	esp, ebp
	pop	ebp
	ret	8
_TEXT	ENDS
;	COMDAT text$x
text$x	SEGMENT
__unwindfunclet$??$construct@PADAAPAD@?$allocator@D@std@@QAEXPAPADAAPAD@Z$0:
	mov	eax, DWORD PTR __Ptr$[ebp]
	push	eax
	mov	eax, DWORD PTR $T3[ebp]
	push	eax
	call	??3@YAXPAX0@Z				; operator delete
	add	esp, 8
	ret	0
__ehhandler$??$construct@PADAAPAD@?$allocator@D@std@@QAEXPAPADAAPAD@Z:
	mov	edx, DWORD PTR [esp+8]
	lea	eax, DWORD PTR [edx+12]
	mov	ecx, DWORD PTR [edx-20]
	xor	ecx, eax
	call	@__security_check_cookie@4
	mov	eax, OFFSET __ehfuncinfo$??$construct@PADAAPAD@?$allocator@D@std@@QAEXPAPADAAPAD@Z
	jmp	___CxxFrameHandler3
text$x	ENDS
??$construct@PADAAPAD@?$allocator@D@std@@QAEXPAPADAAPAD@Z ENDP ; std::allocator<char>::construct<char *,char * &>
; Function compile flags: /Odtp
; File c:\program files (x86)\microsoft visual studio 11.0\vc\include\xlocnum
;	COMDAT ??__E?id@?$numpunct@_W@std@@2V0locale@2@A@@YAXXZ
text$yc	SEGMENT
??__E?id@?$numpunct@_W@std@@2V0locale@2@A@@YAXXZ PROC	; `dynamic initializer for 'std::numpunct<wchar_t>::id'', COMDAT

; 155  : 		void _Getvals(wchar_t, const lconv *_Ptr, _Locinfo::_Cvtvec)

	push	ebp
	mov	ebp, esp
	push	0
	mov	ecx, OFFSET ?id@?$numpunct@_W@std@@2V0locale@2@A ; std::numpunct<wchar_t>::id
	call	??0id@locale@std@@QAE@I@Z		; std::locale::id::id
	pop	ebp
	ret	0
??__E?id@?$numpunct@_W@std@@2V0locale@2@A@@YAXXZ ENDP	; `dynamic initializer for 'std::numpunct<wchar_t>::id''
text$yc	ENDS
; Function compile flags: /Odtp
; File c:\program files (x86)\microsoft visual studio 11.0\vc\include\xlocnum
;	COMDAT ??__E?id@?$numpunct@D@std@@2V0locale@2@A@@YAXXZ
text$yc	SEGMENT
??__E?id@?$numpunct@D@std@@2V0locale@2@A@@YAXXZ PROC	; `dynamic initializer for 'std::numpunct<char>::id'', COMDAT

; 155  : 		void _Getvals(wchar_t, const lconv *_Ptr, _Locinfo::_Cvtvec)

	push	ebp
	mov	ebp, esp
	push	0
	mov	ecx, OFFSET ?id@?$numpunct@D@std@@2V0locale@2@A ; std::numpunct<char>::id
	call	??0id@locale@std@@QAE@I@Z		; std::locale::id::id
	pop	ebp
	ret	0
??__E?id@?$numpunct@D@std@@2V0locale@2@A@@YAXXZ ENDP	; `dynamic initializer for 'std::numpunct<char>::id''
text$yc	ENDS
; Function compile flags: /Odtp
; File c:\program files (x86)\microsoft visual studio 11.0\vc\include\xlocnum
;	COMDAT ??__E?id@?$num_put@_WV?$back_insert_iterator@V?$basic_string@_WU?$char_traits@_W@std@@V?$allocator@_W@2@@std@@@std@@@std@@2V0locale@2@A@@YAXXZ
text$yc	SEGMENT
??__E?id@?$num_put@_WV?$back_insert_iterator@V?$basic_string@_WU?$char_traits@_W@std@@V?$allocator@_W@2@@std@@@std@@@std@@2V0locale@2@A@@YAXXZ PROC ; `dynamic initializer for 'std::num_put<wchar_t,std::back_insert_iterator<std::basic_string<wchar_t,std::char_traits<wchar_t>,std::allocator<wchar_t> > > >::id'', COMDAT

; 155  : 		void _Getvals(wchar_t, const lconv *_Ptr, _Locinfo::_Cvtvec)

	push	ebp
	mov	ebp, esp
	push	0
	mov	ecx, OFFSET ?id@?$num_put@_WV?$back_insert_iterator@V?$basic_string@_WU?$char_traits@_W@std@@V?$allocator@_W@2@@std@@@std@@@std@@2V0locale@2@A ; std::num_put<wchar_t,std::back_insert_iterator<std::basic_string<wchar_t,std::char_traits<wchar_t>,std::allocator<wchar_t> > > >::id
	call	??0id@locale@std@@QAE@I@Z		; std::locale::id::id
	pop	ebp
	ret	0
??__E?id@?$num_put@_WV?$back_insert_iterator@V?$basic_string@_WU?$char_traits@_W@std@@V?$allocator@_W@2@@std@@@std@@@std@@2V0locale@2@A@@YAXXZ ENDP ; `dynamic initializer for 'std::num_put<wchar_t,std::back_insert_iterator<std::basic_string<wchar_t,std::char_traits<wchar_t>,std::allocator<wchar_t> > > >::id''
text$yc	ENDS
; Function compile flags: /Odtp
; File c:\program files (x86)\microsoft visual studio 11.0\vc\include\xlocnum
;	COMDAT ??__E?id@?$num_put@DV?$back_insert_iterator@V?$basic_string@DU?$char_traits@D@std@@V?$allocator@D@2@@std@@@std@@@std@@2V0locale@2@A@@YAXXZ
text$yc	SEGMENT
??__E?id@?$num_put@DV?$back_insert_iterator@V?$basic_string@DU?$char_traits@D@std@@V?$allocator@D@2@@std@@@std@@@std@@2V0locale@2@A@@YAXXZ PROC ; `dynamic initializer for 'std::num_put<char,std::back_insert_iterator<std::basic_string<char,std::char_traits<char>,std::allocator<char> > > >::id'', COMDAT

; 155  : 		void _Getvals(wchar_t, const lconv *_Ptr, _Locinfo::_Cvtvec)

	push	ebp
	mov	ebp, esp
	push	0
	mov	ecx, OFFSET ?id@?$num_put@DV?$back_insert_iterator@V?$basic_string@DU?$char_traits@D@std@@V?$allocator@D@2@@std@@@std@@@std@@2V0locale@2@A ; std::num_put<char,std::back_insert_iterator<std::basic_string<char,std::char_traits<char>,std::allocator<char> > > >::id
	call	??0id@locale@std@@QAE@I@Z		; std::locale::id::id
	pop	ebp
	ret	0
??__E?id@?$num_put@DV?$back_insert_iterator@V?$basic_string@DU?$char_traits@D@std@@V?$allocator@D@2@@std@@@std@@@std@@2V0locale@2@A@@YAXXZ ENDP ; `dynamic initializer for 'std::num_put<char,std::back_insert_iterator<std::basic_string<char,std::char_traits<char>,std::allocator<char> > > >::id''
text$yc	ENDS
; Function compile flags: /Odtp
; File c:\program files (x86)\microsoft visual studio 11.0\vc\include\xmemory0
;	COMDAT ??$destroy@PAD@?$allocator_traits@V?$allocator@D@std@@@std@@SAXAAV?$allocator@D@1@PAPAD@Z
_TEXT	SEGMENT
__Al$ = 8						; size = 4
__Ptr$ = 12						; size = 4
??$destroy@PAD@?$allocator_traits@V?$allocator@D@std@@@std@@SAXAAV?$allocator@D@1@PAPAD@Z PROC ; std::allocator_traits<std::allocator<char> >::destroy<char *>, COMDAT

; 755  : 		static void destroy(_Alloc& _Al, _Uty *_Ptr)

	push	ebp
	mov	ebp, esp

; 756  : 		{	// destroy object at _Ptr
; 757  : 		_Al.destroy(_Ptr);

	mov	eax, DWORD PTR __Ptr$[ebp]
	push	eax
	mov	ecx, DWORD PTR __Al$[ebp]
	call	??$destroy@PAD@?$allocator@D@std@@QAEXPAPAD@Z ; std::allocator<char>::destroy<char *>

; 758  : 		}

	pop	ebp
	ret	0
??$destroy@PAD@?$allocator_traits@V?$allocator@D@std@@@std@@SAXAAV?$allocator@D@1@PAPAD@Z ENDP ; std::allocator_traits<std::allocator<char> >::destroy<char *>
_TEXT	ENDS
; Function compile flags: /Odtp
; File c:\program files (x86)\microsoft visual studio 11.0\vc\include\xmemory0
;	COMDAT ??$construct@PADAAPAD@?$allocator_traits@V?$allocator@D@std@@@std@@SAXAAV?$allocator@D@1@PAPADAAPAD@Z
_TEXT	SEGMENT
__Al$ = 8						; size = 4
__Ptr$ = 12						; size = 4
__V0$ = 16						; size = 4
??$construct@PADAAPAD@?$allocator_traits@V?$allocator@D@std@@@std@@SAXAAV?$allocator@D@1@PAPADAAPAD@Z PROC ; std::allocator_traits<std::allocator<char> >::construct<char *,char * &>, COMDAT

; 751  : _VARIADIC_EXPAND_0X(_ALLOC_TRAITS_SPECIAL_CONSTRUCT, , , , )

	push	ebp
	mov	ebp, esp
	mov	eax, DWORD PTR __V0$[ebp]
	push	eax
	call	??$forward@AAPAD@std@@YAAAPADAAPAD@Z	; std::forward<char * &>
	add	esp, 4
	push	eax
	mov	ecx, DWORD PTR __Ptr$[ebp]
	push	ecx
	mov	ecx, DWORD PTR __Al$[ebp]
	call	??$construct@PADAAPAD@?$allocator@D@std@@QAEXPAPADAAPAD@Z ; std::allocator<char>::construct<char *,char * &>
	pop	ebp
	ret	0
??$construct@PADAAPAD@?$allocator_traits@V?$allocator@D@std@@@std@@SAXAAV?$allocator@D@1@PAPADAAPAD@Z ENDP ; std::allocator_traits<std::allocator<char> >::construct<char *,char * &>
_TEXT	ENDS
; Function compile flags: /Odtp
; File c:\program files (x86)\microsoft visual studio 11.0\vc\include\type_traits
;	COMDAT ??$forward@AAPAD@std@@YAAAPADAAPAD@Z
_TEXT	SEGMENT
__Arg$ = 8						; size = 4
??$forward@AAPAD@std@@YAAAPADAAPAD@Z PROC		; std::forward<char * &>, COMDAT

; 1775 : 	{	// forward an lvalue

	push	ebp
	mov	ebp, esp

; 1776 : 	return (static_cast<_Ty&&>(_Arg));

	mov	eax, DWORD PTR __Arg$[ebp]

; 1777 : 	}

	pop	ebp
	ret	0
??$forward@AAPAD@std@@YAAAPADAAPAD@Z ENDP		; std::forward<char * &>
_TEXT	ENDS
; Function compile flags: /Odtp
;	COMDAT ??__F?_System_object@?$_Error_objects@H@std@@2V_System_error_category@2@A@@YAXXZ
text$yd	SEGMENT
??__F?_System_object@?$_Error_objects@H@std@@2V_System_error_category@2@A@@YAXXZ PROC ; `dynamic atexit destructor for 'std::_Error_objects<int>::_System_object'', COMDAT
	push	ebp
	mov	ebp, esp
	mov	ecx, OFFSET ?_System_object@?$_Error_objects@H@std@@2V_System_error_category@2@A ; std::_Error_objects<int>::_System_object
	call	??1_System_error_category@std@@UAE@XZ
	pop	ebp
	ret	0
??__F?_System_object@?$_Error_objects@H@std@@2V_System_error_category@2@A@@YAXXZ ENDP ; `dynamic atexit destructor for 'std::_Error_objects<int>::_System_object''
text$yd	ENDS
; Function compile flags: /Odtp
; File c:\program files (x86)\microsoft visual studio 11.0\vc\include\xmemory0
;	COMDAT ??__E?_System_object@?$_Error_objects@H@std@@2V_System_error_category@2@A@@YAXXZ
text$yc	SEGMENT
??__E?_System_object@?$_Error_objects@H@std@@2V_System_error_category@2@A@@YAXXZ PROC ; `dynamic initializer for 'std::_Error_objects<int>::_System_object'', COMDAT

; 627  : 		{	// estimate maximum array size

	push	ebp
	mov	ebp, esp
	mov	ecx, OFFSET ?_System_object@?$_Error_objects@H@std@@2V_System_error_category@2@A ; std::_Error_objects<int>::_System_object
	call	??0_System_error_category@std@@QAE@XZ	; std::_System_error_category::_System_error_category
	push	OFFSET ??__F?_System_object@?$_Error_objects@H@std@@2V_System_error_category@2@A@@YAXXZ ; `dynamic atexit destructor for 'std::_Error_objects<int>::_System_object''
	call	_atexit
	add	esp, 4
	pop	ebp
	ret	0
??__E?_System_object@?$_Error_objects@H@std@@2V_System_error_category@2@A@@YAXXZ ENDP ; `dynamic initializer for 'std::_Error_objects<int>::_System_object''
text$yc	ENDS
; Function compile flags: /Odtp
;	COMDAT ??__F?_Iostream_object@?$_Error_objects@H@std@@2V_Iostream_error_category@2@A@@YAXXZ
text$yd	SEGMENT
??__F?_Iostream_object@?$_Error_objects@H@std@@2V_Iostream_error_category@2@A@@YAXXZ PROC ; `dynamic atexit destructor for 'std::_Error_objects<int>::_Iostream_object'', COMDAT
	push	ebp
	mov	ebp, esp
	mov	ecx, OFFSET ?_Iostream_object@?$_Error_objects@H@std@@2V_Iostream_error_category@2@A ; std::_Error_objects<int>::_Iostream_object
	call	??1_Iostream_error_category@std@@UAE@XZ
	pop	ebp
	ret	0
??__F?_Iostream_object@?$_Error_objects@H@std@@2V_Iostream_error_category@2@A@@YAXXZ ENDP ; `dynamic atexit destructor for 'std::_Error_objects<int>::_Iostream_object''
text$yd	ENDS
; Function compile flags: /Odtp
; File c:\program files (x86)\microsoft visual studio 11.0\vc\include\xmemory0
;	COMDAT ??__E?_Iostream_object@?$_Error_objects@H@std@@2V_Iostream_error_category@2@A@@YAXXZ
text$yc	SEGMENT
??__E?_Iostream_object@?$_Error_objects@H@std@@2V_Iostream_error_category@2@A@@YAXXZ PROC ; `dynamic initializer for 'std::_Error_objects<int>::_Iostream_object'', COMDAT

; 627  : 		{	// estimate maximum array size

	push	ebp
	mov	ebp, esp
	mov	ecx, OFFSET ?_Iostream_object@?$_Error_objects@H@std@@2V_Iostream_error_category@2@A ; std::_Error_objects<int>::_Iostream_object
	call	??0_Iostream_error_category@std@@QAE@XZ	; std::_Iostream_error_category::_Iostream_error_category
	push	OFFSET ??__F?_Iostream_object@?$_Error_objects@H@std@@2V_Iostream_error_category@2@A@@YAXXZ ; `dynamic atexit destructor for 'std::_Error_objects<int>::_Iostream_object''
	call	_atexit
	add	esp, 4
	pop	ebp
	ret	0
??__E?_Iostream_object@?$_Error_objects@H@std@@2V_Iostream_error_category@2@A@@YAXXZ ENDP ; `dynamic initializer for 'std::_Error_objects<int>::_Iostream_object''
text$yc	ENDS
; Function compile flags: /Odtp
;	COMDAT ??__F?_Generic_object@?$_Error_objects@H@std@@2V_Generic_error_category@2@A@@YAXXZ
text$yd	SEGMENT
??__F?_Generic_object@?$_Error_objects@H@std@@2V_Generic_error_category@2@A@@YAXXZ PROC ; `dynamic atexit destructor for 'std::_Error_objects<int>::_Generic_object'', COMDAT
	push	ebp
	mov	ebp, esp
	mov	ecx, OFFSET ?_Generic_object@?$_Error_objects@H@std@@2V_Generic_error_category@2@A ; std::_Error_objects<int>::_Generic_object
	call	??1_Generic_error_category@std@@UAE@XZ
	pop	ebp
	ret	0
??__F?_Generic_object@?$_Error_objects@H@std@@2V_Generic_error_category@2@A@@YAXXZ ENDP ; `dynamic atexit destructor for 'std::_Error_objects<int>::_Generic_object''
text$yd	ENDS
; Function compile flags: /Odtp
; File c:\program files (x86)\microsoft visual studio 11.0\vc\include\xmemory0
;	COMDAT ??__E?_Generic_object@?$_Error_objects@H@std@@2V_Generic_error_category@2@A@@YAXXZ
text$yc	SEGMENT
??__E?_Generic_object@?$_Error_objects@H@std@@2V_Generic_error_category@2@A@@YAXXZ PROC ; `dynamic initializer for 'std::_Error_objects<int>::_Generic_object'', COMDAT

; 627  : 		{	// estimate maximum array size

	push	ebp
	mov	ebp, esp
	mov	ecx, OFFSET ?_Generic_object@?$_Error_objects@H@std@@2V_Generic_error_category@2@A ; std::_Error_objects<int>::_Generic_object
	call	??0_Generic_error_category@std@@QAE@XZ	; std::_Generic_error_category::_Generic_error_category
	push	OFFSET ??__F?_Generic_object@?$_Error_objects@H@std@@2V_Generic_error_category@2@A@@YAXXZ ; `dynamic atexit destructor for 'std::_Error_objects<int>::_Generic_object''
	call	_atexit
	add	esp, 4
	pop	ebp
	ret	0
??__E?_Generic_object@?$_Error_objects@H@std@@2V_Generic_error_category@2@A@@YAXXZ ENDP ; `dynamic initializer for 'std::_Error_objects<int>::_Generic_object''
text$yc	ENDS
; Function compile flags: /Odtp
; File c:\program files (x86)\microsoft visual studio 11.0\vc\include\xmemory0
;	COMDAT ??$_Allocate@D@std@@YAPADIPAD@Z
_TEXT	SEGMENT
__Ptr$ = -4						; size = 4
__Count$ = 8						; size = 4
___formal$ = 12						; size = 4
??$_Allocate@D@std@@YAPADIPAD@Z PROC			; std::_Allocate<char>, COMDAT

; 22   : 	{	// allocate storage for _Count elements of type _Ty

	push	ebp
	mov	ebp, esp
	push	ecx

; 23   : 	void *_Ptr = 0;

	mov	DWORD PTR __Ptr$[ebp], 0

; 24   : 
; 25   : 	if (_Count == 0)

	cmp	DWORD PTR __Count$[ebp], 0
	jne	SHORT $LN4@Allocate

; 26   : 		;
; 27   : 	else if (((size_t)(-1) / sizeof (_Ty) < _Count)

	jmp	SHORT $LN3@Allocate
$LN4@Allocate:

; 28   : 		|| (_Ptr = ::operator new(_Count * sizeof (_Ty))) == 0)

	cmp	DWORD PTR __Count$[ebp], -1
	ja	SHORT $LN1@Allocate
	mov	eax, DWORD PTR __Count$[ebp]
	push	eax
	call	??2@YAPAXI@Z				; operator new
	add	esp, 4
	mov	DWORD PTR __Ptr$[ebp], eax
	cmp	DWORD PTR __Ptr$[ebp], 0
	jne	SHORT $LN3@Allocate
$LN1@Allocate:

; 29   : 		_Xbad_alloc();	// report no memory

	call	?_Xbad_alloc@std@@YAXXZ			; std::_Xbad_alloc
$LN3@Allocate:

; 30   : 
; 31   : 	return ((_Ty *)_Ptr);

	mov	eax, DWORD PTR __Ptr$[ebp]
$LN6@Allocate:

; 32   : 	}

	mov	esp, ebp
	pop	ebp
	ret	0
??$_Allocate@D@std@@YAPADIPAD@Z ENDP			; std::_Allocate<char>
_TEXT	ENDS
; Function compile flags: /Odtp
; File c:\program files (x86)\microsoft visual studio 11.0\vc\include\xstddef
;	COMDAT ??$addressof@D@std@@YAPADAAD@Z
_TEXT	SEGMENT
__Val$ = 8						; size = 4
??$addressof@D@std@@YAPADAAD@Z PROC			; std::addressof<char>, COMDAT

; 85   : 	{	// return address of _Val

	push	ebp
	mov	ebp, esp

; 86   : 	return (reinterpret_cast<_Ty *>(
; 87   : 		(&const_cast<char&>(
; 88   : 		reinterpret_cast<const volatile char&>(_Val)))));

	mov	eax, DWORD PTR __Val$[ebp]

; 89   : 	}

	pop	ebp
	ret	0
??$addressof@D@std@@YAPADAAD@Z ENDP			; std::addressof<char>
_TEXT	ENDS
; Function compile flags: /Odtp
; File c:\program files (x86)\microsoft visual studio 11.0\vc\include\xmemory0
;	COMDAT ??$destroy@PAD@?$_Wrap_alloc@V?$allocator@D@std@@@std@@QAEXPAPAD@Z
_TEXT	SEGMENT
_this$ = -4						; size = 4
__Ptr$ = 8						; size = 4
??$destroy@PAD@?$_Wrap_alloc@V?$allocator@D@std@@@std@@QAEXPAPAD@Z PROC ; std::_Wrap_alloc<std::allocator<char> >::destroy<char *>, COMDAT
; _this$ = ecx

; 907  : 		void destroy(_Ty *_Ptr)

	push	ebp
	mov	ebp, esp
	push	ecx
	mov	DWORD PTR _this$[ebp], ecx

; 908  : 		{	// destroy object at _Ptr
; 909  : 		_Mytraits::destroy(*this, _Ptr);

	mov	eax, DWORD PTR __Ptr$[ebp]
	push	eax
	mov	ecx, DWORD PTR _this$[ebp]
	push	ecx
	call	??$destroy@PAD@?$allocator_traits@V?$allocator@D@std@@@std@@SAXAAV?$allocator@D@1@PAPAD@Z ; std::allocator_traits<std::allocator<char> >::destroy<char *>
	add	esp, 8

; 910  : 		}

	mov	esp, ebp
	pop	ebp
	ret	4
??$destroy@PAD@?$_Wrap_alloc@V?$allocator@D@std@@@std@@QAEXPAPAD@Z ENDP ; std::_Wrap_alloc<std::allocator<char> >::destroy<char *>
_TEXT	ENDS
; Function compile flags: /Odtp
; File c:\program files (x86)\microsoft visual studio 11.0\vc\include\xmemory0
;	COMDAT ??$construct@PADAAPAD@?$_Wrap_alloc@V?$allocator@D@std@@@std@@QAEXPAPADAAPAD@Z
_TEXT	SEGMENT
_this$ = -4						; size = 4
__Ptr$ = 8						; size = 4
__V0$ = 12						; size = 4
??$construct@PADAAPAD@?$_Wrap_alloc@V?$allocator@D@std@@@std@@QAEXPAPADAAPAD@Z PROC ; std::_Wrap_alloc<std::allocator<char> >::construct<char *,char * &>, COMDAT
; _this$ = ecx

; 903  : _VARIADIC_EXPAND_0X(_WRAP_ALLOC_CONSTRUCT, , , , )

	push	ebp
	mov	ebp, esp
	push	ecx
	mov	DWORD PTR _this$[ebp], ecx
	mov	eax, DWORD PTR __V0$[ebp]
	push	eax
	call	??$forward@AAPAD@std@@YAAAPADAAPAD@Z	; std::forward<char * &>
	add	esp, 4
	push	eax
	mov	ecx, DWORD PTR __Ptr$[ebp]
	push	ecx
	mov	edx, DWORD PTR _this$[ebp]
	push	edx
	call	??$construct@PADAAPAD@?$allocator_traits@V?$allocator@D@std@@@std@@SAXAAV?$allocator@D@1@PAPADAAPAD@Z ; std::allocator_traits<std::allocator<char> >::construct<char *,char * &>
	add	esp, 12					; 0000000cH
	mov	esp, ebp
	pop	ebp
	ret	8
??$construct@PADAAPAD@?$_Wrap_alloc@V?$allocator@D@std@@@std@@QAEXPAPADAAPAD@Z ENDP ; std::_Wrap_alloc<std::allocator<char> >::construct<char *,char * &>
_TEXT	ENDS
; Function compile flags: /Odtp
; File c:\users\zhitao li\documents\visual studio 2012\projects\freefalcon\campaign\camplib\objectiv.cpp
_TEXT	SEGMENT
$T1 = -24						; size = 8
$T2 = -16						; size = 8
_i$ = -8						; size = 4
_n$ = -4						; size = 4
_o$ = 8							; size = 4
_p$ = 12						; size = 4
_list$ = 16						; size = 4
_maxdist$ = 20						; size = 4
_level$ = 24						; size = 4
_flags$ = 28						; size = 4
?AddChildObjectives@@YAXPAVObjectiveClass@@0PAVFalconPrivateList@@HHH@Z PROC ; AddChildObjectives

; 2759 : {

	push	ebp
	mov	ebp, esp
	sub	esp, 24					; 00000018H

; 2760 : 	Objective	n;
; 2761 : 	int			i;
; 2762 : 
; 2763 : 	o->SetObjectiveScore((short)level);

	movzx	eax, WORD PTR _level$[ebp]
	push	eax
	mov	ecx, DWORD PTR _o$[ebp]
	call	?SetObjectiveScore@ObjectiveClass@@QAEXF@Z ; ObjectiveClass::SetObjectiveScore

; 2764 : 	if (!CampSearch[o->GetCampID()])

	mov	ecx, DWORD PTR _o$[ebp]
	mov	edx, DWORD PTR [ecx]
	mov	ecx, DWORD PTR _o$[ebp]
	mov	eax, DWORD PTR [edx+112]
	call	eax
	movsx	ecx, ax
	movzx	edx, BYTE PTR ?CampSearch@@3PAEA[ecx]
	test	edx, edx
	jne	SHORT $LN10@AddChildOb

; 2765 : 		list->ForcedInsert(o);

	mov	eax, DWORD PTR _o$[ebp]
	push	eax
	mov	ecx, DWORD PTR _list$[ebp]
	call	?ForcedInsert@FalconPrivateList@@QAEHPAVVuEntity@@@Z ; FalconPrivateList::ForcedInsert
$LN10@AddChildOb:

; 2766 : 	CampSearch[o->GetCampID()] = 1;

	mov	ecx, DWORD PTR _o$[ebp]
	mov	edx, DWORD PTR [ecx]
	mov	ecx, DWORD PTR _o$[ebp]
	mov	eax, DWORD PTR [edx+112]
	call	eax
	movsx	ecx, ax
	mov	BYTE PTR ?CampSearch@@3PAEA[ecx], 1

; 2767 : 	if (!maxdist)

	cmp	DWORD PTR _maxdist$[ebp], 0
	jne	SHORT $LN9@AddChildOb

; 2768 : 		return;

	jmp	$LN11@AddChildOb
$LN9@AddChildOb:

; 2769 : 	for (i=0; i<o->static_data.links; i++)

	mov	DWORD PTR _i$[ebp], 0
	jmp	SHORT $LN8@AddChildOb
$LN7@AddChildOb:
	mov	edx, DWORD PTR _i$[ebp]
	add	edx, 1
	mov	DWORD PTR _i$[ebp], edx
$LN8@AddChildOb:
	mov	eax, DWORD PTR _o$[ebp]
	movzx	ecx, BYTE PTR [eax+225]
	cmp	DWORD PTR _i$[ebp], ecx
	jge	$LN11@AddChildOb

; 2770 : 	{
; 2771 : 		n = o->GetNeighbor(i);

	mov	edx, DWORD PTR _i$[ebp]
	push	edx
	mov	ecx, DWORD PTR _o$[ebp]
	call	?GetNeighbor@ObjectiveClass@@QAEPAV1@H@Z ; ObjectiveClass::GetNeighbor
	mov	DWORD PTR _n$[ebp], eax

; 2772 : 		if (!n || (CampSearch[n->GetCampID()] && n->GetObjectiveScore() <= level+1))

	cmp	DWORD PTR _n$[ebp], 0
	je	SHORT $LN4@AddChildOb
	mov	eax, DWORD PTR _n$[ebp]
	mov	edx, DWORD PTR [eax]
	mov	ecx, DWORD PTR _n$[ebp]
	mov	eax, DWORD PTR [edx+112]
	call	eax
	movsx	ecx, ax
	movzx	edx, BYTE PTR ?CampSearch@@3PAEA[ecx]
	test	edx, edx
	je	SHORT $LN5@AddChildOb
	mov	ecx, DWORD PTR _n$[ebp]
	call	?GetObjectiveScore@ObjectiveClass@@QAEHXZ ; ObjectiveClass::GetObjectiveScore
	mov	ecx, DWORD PTR _level$[ebp]
	add	ecx, 1
	cmp	eax, ecx
	jg	SHORT $LN5@AddChildOb
$LN4@AddChildOb:

; 2773 : 			continue;

	jmp	SHORT $LN7@AddChildOb
$LN5@AddChildOb:

; 2774 : 		if (flags & FIND_THISOBJONLY && n->GetObjectiveParentID() != p->Id())

	mov	edx, DWORD PTR _flags$[ebp]
	and	edx, 256				; 00000100H
	je	SHORT $LN3@AddChildOb
	lea	eax, DWORD PTR $T2[ebp]
	push	eax
	mov	ecx, DWORD PTR _p$[ebp]
	call	?Id@VuEntity@@QBE?AVVU_ID@@XZ		; VuEntity::Id
	push	eax
	lea	ecx, DWORD PTR $T1[ebp]
	push	ecx
	mov	ecx, DWORD PTR _n$[ebp]
	call	?GetObjectiveParentID@ObjectiveClass@@QAE?AVVU_ID@@XZ ; ObjectiveClass::GetObjectiveParentID
	mov	ecx, eax
	call	??9VU_ID@@QBE_NABV0@@Z			; VU_ID::operator!=
	movzx	edx, al
	test	edx, edx
	je	SHORT $LN3@AddChildOb

; 2775 : 			continue;

	jmp	$LN7@AddChildOb
$LN3@AddChildOb:

; 2776 : 		if (flags & FIND_STANDARDONLY && n->IsSecondary())

	mov	eax, DWORD PTR _flags$[ebp]
	and	eax, 1024				; 00000400H
	je	SHORT $LN2@AddChildOb
	mov	ecx, DWORD PTR _n$[ebp]
	call	?IsSecondary@ObjectiveClass@@QAEHXZ	; ObjectiveClass::IsSecondary
	test	eax, eax
	je	SHORT $LN2@AddChildOb

; 2777 : 			continue;

	jmp	$LN7@AddChildOb
$LN2@AddChildOb:

; 2778 : 		if (flags & FIND_FINDFRIENDLY && !GetRoE(o->GetTeam(),n->GetTeam(),ROE_GROUND_MOVE))

	mov	ecx, DWORD PTR _flags$[ebp]
	and	ecx, 1
	je	SHORT $LN1@AddChildOb
	push	2
	mov	edx, DWORD PTR _n$[ebp]
	mov	eax, DWORD PTR [edx]
	mov	ecx, DWORD PTR _n$[ebp]
	mov	edx, DWORD PTR [eax+116]
	call	edx
	movzx	eax, al
	push	eax
	mov	ecx, DWORD PTR _o$[ebp]
	mov	edx, DWORD PTR [ecx]
	mov	ecx, DWORD PTR _o$[ebp]
	mov	eax, DWORD PTR [edx+116]
	call	eax
	movzx	ecx, al
	push	ecx
	call	?GetRoE@@YAHEEH@Z			; GetRoE
	add	esp, 12					; 0000000cH
	test	eax, eax
	jne	SHORT $LN1@AddChildOb

; 2779 : 			continue;

	jmp	$LN7@AddChildOb
$LN1@AddChildOb:

; 2780 : 		AddChildObjectives(n, p, list, maxdist-1, level+1, flags);

	mov	edx, DWORD PTR _flags$[ebp]
	push	edx
	mov	eax, DWORD PTR _level$[ebp]
	add	eax, 1
	push	eax
	mov	ecx, DWORD PTR _maxdist$[ebp]
	sub	ecx, 1
	push	ecx
	mov	edx, DWORD PTR _list$[ebp]
	push	edx
	mov	eax, DWORD PTR _p$[ebp]
	push	eax
	mov	ecx, DWORD PTR _n$[ebp]
	push	ecx
	call	?AddChildObjectives@@YAXPAVObjectiveClass@@0PAVFalconPrivateList@@HHH@Z ; AddChildObjectives
	add	esp, 24					; 00000018H

; 2781 : 	}

	jmp	$LN7@AddChildOb
$LN11@AddChildOb:

; 2782 : }

	mov	esp, ebp
	pop	ebp
	ret	0
?AddChildObjectives@@YAXPAVObjectiveClass@@0PAVFalconPrivateList@@HHH@Z ENDP ; AddChildObjectives
_TEXT	ENDS
; Function compile flags: /Odtp
; File c:\users\zhitao li\documents\visual studio 2012\projects\freefalcon\falclib\include\falcsess.h
;	COMDAT ?GetGame@FalconSessionEntity@@QAEPAVFalconGameEntity@@XZ
_TEXT	SEGMENT
_this$ = -4						; size = 4
?GetGame@FalconSessionEntity@@QAEPAVFalconGameEntity@@XZ PROC ; FalconSessionEntity::GetGame, COMDAT
; _this$ = ecx

; 154  : 	FalconGameEntity* GetGame (void)              { return (FalconGameEntity*)VuSessionEntity::Game(); }

	push	ebp
	mov	ebp, esp
	push	ecx
	mov	DWORD PTR _this$[ebp], ecx
	mov	ecx, DWORD PTR _this$[ebp]
	call	?Game@VuSessionEntity@@QAEPAVVuGameEntity@@XZ ; VuSessionEntity::Game
	mov	esp, ebp
	pop	ebp
	ret	0
?GetGame@FalconSessionEntity@@QAEPAVFalconGameEntity@@XZ ENDP ; FalconSessionEntity::GetGame
_TEXT	ENDS
; Function compile flags: /Odtp
;	COMDAT ??_G_System_error_category@std@@UAEPAXI@Z
_TEXT	SEGMENT
_this$ = -4						; size = 4
___flags$ = 8						; size = 4
??_G_System_error_category@std@@UAEPAXI@Z PROC		; std::_System_error_category::`scalar deleting destructor', COMDAT
; _this$ = ecx
	push	ebp
	mov	ebp, esp
	push	ecx
	mov	DWORD PTR _this$[ebp], ecx
	mov	ecx, DWORD PTR _this$[ebp]
	call	??1_System_error_category@std@@UAE@XZ
	mov	eax, DWORD PTR ___flags$[ebp]
	and	eax, 1
	je	SHORT $LN1@scalar
	mov	ecx, DWORD PTR _this$[ebp]
	push	ecx
	call	??3@YAXPAX@Z				; operator delete
	add	esp, 4
$LN1@scalar:
	mov	eax, DWORD PTR _this$[ebp]
	mov	esp, ebp
	pop	ebp
	ret	4
??_G_System_error_category@std@@UAEPAXI@Z ENDP		; std::_System_error_category::`scalar deleting destructor'
_TEXT	ENDS
; Function compile flags: /Odtp
;	COMDAT ??1_System_error_category@std@@UAE@XZ
_TEXT	SEGMENT
_this$ = -4						; size = 4
??1_System_error_category@std@@UAE@XZ PROC		; std::_System_error_category::~_System_error_category, COMDAT
; _this$ = ecx
	push	ebp
	mov	ebp, esp
	push	ecx
	mov	DWORD PTR _this$[ebp], ecx
	mov	ecx, DWORD PTR _this$[ebp]
	call	??1_Generic_error_category@std@@UAE@XZ
	mov	esp, ebp
	pop	ebp
	ret	0
??1_System_error_category@std@@UAE@XZ ENDP		; std::_System_error_category::~_System_error_category
_TEXT	ENDS
; Function compile flags: /Odtp
; File c:\program files (x86)\microsoft visual studio 11.0\vc\include\system_error
;	COMDAT ?default_error_condition@_System_error_category@std@@UBE?AVerror_condition@2@H@Z
_TEXT	SEGMENT
_this$ = -4						; size = 4
___$ReturnUdt$ = 8					; size = 4
__Errval$ = 12						; size = 4
?default_error_condition@_System_error_category@std@@UBE?AVerror_condition@2@H@Z PROC ; std::_System_error_category::default_error_condition, COMDAT
; _this$ = ecx

; 641  : 		{	// make error_condition for error code (generic if possible)

	push	ebp
	mov	ebp, esp
	push	ecx
	mov	DWORD PTR _this$[ebp], ecx

; 642  : 		if (_Syserror_map(_Errval))

	mov	eax, DWORD PTR __Errval$[ebp]
	push	eax
	call	?_Syserror_map@std@@YAPBDH@Z		; std::_Syserror_map
	add	esp, 4
	test	eax, eax
	je	SHORT $LN2@default_er

; 643  : 			return (error_condition(_Errval, generic_category()));

	call	?generic_category@std@@YAABVerror_category@1@XZ ; std::generic_category
	push	eax
	mov	ecx, DWORD PTR __Errval$[ebp]
	push	ecx
	mov	ecx, DWORD PTR ___$ReturnUdt$[ebp]
	call	??0error_condition@std@@QAE@HABVerror_category@1@@Z ; std::error_condition::error_condition
	mov	eax, DWORD PTR ___$ReturnUdt$[ebp]
	jmp	SHORT $LN3@default_er

; 644  : 		else

	jmp	SHORT $LN3@default_er
$LN2@default_er:

; 645  : 			return (error_condition(_Errval, system_category()));

	call	?system_category@std@@YAABVerror_category@1@XZ ; std::system_category
	push	eax
	mov	edx, DWORD PTR __Errval$[ebp]
	push	edx
	mov	ecx, DWORD PTR ___$ReturnUdt$[ebp]
	call	??0error_condition@std@@QAE@HABVerror_category@1@@Z ; std::error_condition::error_condition
	mov	eax, DWORD PTR ___$ReturnUdt$[ebp]
$LN3@default_er:

; 646  : 		}

	mov	esp, ebp
	pop	ebp
	ret	8
?default_error_condition@_System_error_category@std@@UBE?AVerror_condition@2@H@Z ENDP ; std::_System_error_category::default_error_condition
_TEXT	ENDS
; Function compile flags: /Odtp
; File c:\program files (x86)\microsoft visual studio 11.0\vc\include\system_error
;	COMDAT ?message@_System_error_category@std@@UBE?AV?$basic_string@DU?$char_traits@D@std@@V?$allocator@D@2@@2@H@Z
_TEXT	SEGMENT
_this$ = -16						; size = 4
$T1 = -12						; size = 4
tv69 = -8						; size = 4
__Name$ = -4						; size = 4
___$ReturnUdt$ = 8					; size = 4
__Errcode$ = 12						; size = 4
?message@_System_error_category@std@@UBE?AV?$basic_string@DU?$char_traits@D@std@@V?$allocator@D@2@@2@H@Z PROC ; std::_System_error_category::message, COMDAT
; _this$ = ecx

; 634  : 		{	// convert to name of error

	push	ebp
	mov	ebp, esp
	sub	esp, 16					; 00000010H
	mov	DWORD PTR _this$[ebp], ecx
	mov	DWORD PTR $T1[ebp], 0

; 635  : 		const char *_Name = _Winerror_map(_Errcode);

	mov	eax, DWORD PTR __Errcode$[ebp]
	push	eax
	call	?_Winerror_map@std@@YAPBDH@Z		; std::_Winerror_map
	add	esp, 4
	mov	DWORD PTR __Name$[ebp], eax

; 636  : 		return (string(_Name != 0 ? _Name : "unknown error"));

	cmp	DWORD PTR __Name$[ebp], 0
	je	SHORT $LN3@message
	mov	ecx, DWORD PTR __Name$[ebp]
	mov	DWORD PTR tv69[ebp], ecx
	jmp	SHORT $LN4@message
$LN3@message:
	mov	DWORD PTR tv69[ebp], OFFSET ??_C@_0O@BFJCFAAK@unknown?5error?$AA@
$LN4@message:
	mov	edx, DWORD PTR tv69[ebp]
	push	edx
	mov	ecx, DWORD PTR ___$ReturnUdt$[ebp]
	call	??0?$basic_string@DU?$char_traits@D@std@@V?$allocator@D@2@@std@@QAE@PBD@Z ; std::basic_string<char,std::char_traits<char>,std::allocator<char> >::basic_string<char,std::char_traits<char>,std::allocator<char> >
	mov	eax, DWORD PTR $T1[ebp]
	or	eax, 1
	mov	DWORD PTR $T1[ebp], eax
	mov	eax, DWORD PTR ___$ReturnUdt$[ebp]

; 637  : 		}

	mov	esp, ebp
	pop	ebp
	ret	8
?message@_System_error_category@std@@UBE?AV?$basic_string@DU?$char_traits@D@std@@V?$allocator@D@2@@2@H@Z ENDP ; std::_System_error_category::message
_TEXT	ENDS
; Function compile flags: /Odtp
; File c:\program files (x86)\microsoft visual studio 11.0\vc\include\system_error
;	COMDAT ?name@_System_error_category@std@@UBEPBDXZ
_TEXT	SEGMENT
_this$ = -4						; size = 4
?name@_System_error_category@std@@UBEPBDXZ PROC		; std::_System_error_category::name, COMDAT
; _this$ = ecx

; 629  : 		{	// get name of category

	push	ebp
	mov	ebp, esp
	push	ecx
	mov	DWORD PTR _this$[ebp], ecx

; 630  : 		return ("system");

	mov	eax, OFFSET ??_C@_06FHFOAHML@system?$AA@

; 631  : 		}

	mov	esp, ebp
	pop	ebp
	ret	0
?name@_System_error_category@std@@UBEPBDXZ ENDP		; std::_System_error_category::name
_TEXT	ENDS
; Function compile flags: /Odtp
; File c:\program files (x86)\microsoft visual studio 11.0\vc\include\system_error
;	COMDAT ??0_System_error_category@std@@QAE@XZ
_TEXT	SEGMENT
_this$ = -4						; size = 4
??0_System_error_category@std@@QAE@XZ PROC		; std::_System_error_category::_System_error_category, COMDAT
; _this$ = ecx

; 624  : 	_System_error_category()

	push	ebp
	mov	ebp, esp
	push	ecx
	mov	DWORD PTR _this$[ebp], ecx
	mov	ecx, DWORD PTR _this$[ebp]
	call	??0_Generic_error_category@std@@QAE@XZ	; std::_Generic_error_category::_Generic_error_category
	mov	eax, DWORD PTR _this$[ebp]
	mov	DWORD PTR [eax], OFFSET ??_7_System_error_category@std@@6B@

; 625  : 		{	// default constructor
; 626  : 		}

	mov	eax, DWORD PTR _this$[ebp]
	mov	esp, ebp
	pop	ebp
	ret	0
??0_System_error_category@std@@QAE@XZ ENDP		; std::_System_error_category::_System_error_category
_TEXT	ENDS
; Function compile flags: /Odtp
;	COMDAT ??_G_Iostream_error_category@std@@UAEPAXI@Z
_TEXT	SEGMENT
_this$ = -4						; size = 4
___flags$ = 8						; size = 4
??_G_Iostream_error_category@std@@UAEPAXI@Z PROC	; std::_Iostream_error_category::`scalar deleting destructor', COMDAT
; _this$ = ecx
	push	ebp
	mov	ebp, esp
	push	ecx
	mov	DWORD PTR _this$[ebp], ecx
	mov	ecx, DWORD PTR _this$[ebp]
	call	??1_Iostream_error_category@std@@UAE@XZ
	mov	eax, DWORD PTR ___flags$[ebp]
	and	eax, 1
	je	SHORT $LN1@scalar
	mov	ecx, DWORD PTR _this$[ebp]
	push	ecx
	call	??3@YAXPAX@Z				; operator delete
	add	esp, 4
$LN1@scalar:
	mov	eax, DWORD PTR _this$[ebp]
	mov	esp, ebp
	pop	ebp
	ret	4
??_G_Iostream_error_category@std@@UAEPAXI@Z ENDP	; std::_Iostream_error_category::`scalar deleting destructor'
_TEXT	ENDS
; Function compile flags: /Odtp
;	COMDAT ??1_Iostream_error_category@std@@UAE@XZ
_TEXT	SEGMENT
_this$ = -4						; size = 4
??1_Iostream_error_category@std@@UAE@XZ PROC		; std::_Iostream_error_category::~_Iostream_error_category, COMDAT
; _this$ = ecx
	push	ebp
	mov	ebp, esp
	push	ecx
	mov	DWORD PTR _this$[ebp], ecx
	mov	ecx, DWORD PTR _this$[ebp]
	call	??1_Generic_error_category@std@@UAE@XZ
	mov	esp, ebp
	pop	ebp
	ret	0
??1_Iostream_error_category@std@@UAE@XZ ENDP		; std::_Iostream_error_category::~_Iostream_error_category
_TEXT	ENDS
; Function compile flags: /Odtp
; File c:\program files (x86)\microsoft visual studio 11.0\vc\include\system_error
;	COMDAT ?message@_Iostream_error_category@std@@UBE?AV?$basic_string@DU?$char_traits@D@std@@V?$allocator@D@2@@2@H@Z
_TEXT	SEGMENT
_this$ = -8						; size = 4
$T1 = -4						; size = 4
___$ReturnUdt$ = 8					; size = 4
__Errcode$ = 12						; size = 4
?message@_Iostream_error_category@std@@UBE?AV?$basic_string@DU?$char_traits@D@std@@V?$allocator@D@2@@2@H@Z PROC ; std::_Iostream_error_category::message, COMDAT
; _this$ = ecx

; 611  : 		{	// convert to name of error

	push	ebp
	mov	ebp, esp
	sub	esp, 8
	mov	DWORD PTR _this$[ebp], ecx
	mov	DWORD PTR $T1[ebp], 0

; 612  : 		if (_Errcode == (int)io_errc::stream)

	cmp	DWORD PTR __Errcode$[ebp], 1
	jne	SHORT $LN2@message

; 613  : 			return ("iostream stream error");

	push	OFFSET ??_C@_0BG@PADBLCHM@iostream?5stream?5error?$AA@
	mov	ecx, DWORD PTR ___$ReturnUdt$[ebp]
	call	??0?$basic_string@DU?$char_traits@D@std@@V?$allocator@D@2@@std@@QAE@PBD@Z ; std::basic_string<char,std::char_traits<char>,std::allocator<char> >::basic_string<char,std::char_traits<char>,std::allocator<char> >
	mov	eax, DWORD PTR $T1[ebp]
	or	eax, 1
	mov	DWORD PTR $T1[ebp], eax
	mov	eax, DWORD PTR ___$ReturnUdt$[ebp]
	jmp	SHORT $LN3@message

; 614  : 		else

	jmp	SHORT $LN3@message
$LN2@message:

; 615  : 			return (_Generic_error_category::message(_Errcode));

	mov	ecx, DWORD PTR __Errcode$[ebp]
	push	ecx
	mov	edx, DWORD PTR ___$ReturnUdt$[ebp]
	push	edx
	mov	ecx, DWORD PTR _this$[ebp]
	call	?message@_Generic_error_category@std@@UBE?AV?$basic_string@DU?$char_traits@D@std@@V?$allocator@D@2@@2@H@Z ; std::_Generic_error_category::message
	mov	eax, DWORD PTR $T1[ebp]
	or	eax, 1
	mov	DWORD PTR $T1[ebp], eax
	mov	eax, DWORD PTR ___$ReturnUdt$[ebp]
$LN3@message:

; 616  : 		}

	mov	esp, ebp
	pop	ebp
	ret	8
?message@_Iostream_error_category@std@@UBE?AV?$basic_string@DU?$char_traits@D@std@@V?$allocator@D@2@@2@H@Z ENDP ; std::_Iostream_error_category::message
_TEXT	ENDS
; Function compile flags: /Odtp
; File c:\program files (x86)\microsoft visual studio 11.0\vc\include\system_error
;	COMDAT ?name@_Iostream_error_category@std@@UBEPBDXZ
_TEXT	SEGMENT
_this$ = -4						; size = 4
?name@_Iostream_error_category@std@@UBEPBDXZ PROC	; std::_Iostream_error_category::name, COMDAT
; _this$ = ecx

; 606  : 		{	// get name of category

	push	ebp
	mov	ebp, esp
	push	ecx
	mov	DWORD PTR _this$[ebp], ecx

; 607  : 		return ("iostream");

	mov	eax, OFFSET ??_C@_08LLGCOLLL@iostream?$AA@

; 608  : 		}

	mov	esp, ebp
	pop	ebp
	ret	0
?name@_Iostream_error_category@std@@UBEPBDXZ ENDP	; std::_Iostream_error_category::name
_TEXT	ENDS
; Function compile flags: /Odtp
; File c:\program files (x86)\microsoft visual studio 11.0\vc\include\system_error
;	COMDAT ??0_Iostream_error_category@std@@QAE@XZ
_TEXT	SEGMENT
_this$ = -4						; size = 4
??0_Iostream_error_category@std@@QAE@XZ PROC		; std::_Iostream_error_category::_Iostream_error_category, COMDAT
; _this$ = ecx

; 601  : 	_Iostream_error_category()

	push	ebp
	mov	ebp, esp
	push	ecx
	mov	DWORD PTR _this$[ebp], ecx
	mov	ecx, DWORD PTR _this$[ebp]
	call	??0_Generic_error_category@std@@QAE@XZ	; std::_Generic_error_category::_Generic_error_category
	mov	eax, DWORD PTR _this$[ebp]
	mov	DWORD PTR [eax], OFFSET ??_7_Iostream_error_category@std@@6B@

; 602  : 		{	// default constructor
; 603  : 		}

	mov	eax, DWORD PTR _this$[ebp]
	mov	esp, ebp
	pop	ebp
	ret	0
??0_Iostream_error_category@std@@QAE@XZ ENDP		; std::_Iostream_error_category::_Iostream_error_category
_TEXT	ENDS
; Function compile flags: /Odtp
;	COMDAT ??_G_Generic_error_category@std@@UAEPAXI@Z
_TEXT	SEGMENT
_this$ = -4						; size = 4
___flags$ = 8						; size = 4
??_G_Generic_error_category@std@@UAEPAXI@Z PROC		; std::_Generic_error_category::`scalar deleting destructor', COMDAT
; _this$ = ecx
	push	ebp
	mov	ebp, esp
	push	ecx
	mov	DWORD PTR _this$[ebp], ecx
	mov	ecx, DWORD PTR _this$[ebp]
	call	??1_Generic_error_category@std@@UAE@XZ
	mov	eax, DWORD PTR ___flags$[ebp]
	and	eax, 1
	je	SHORT $LN1@scalar
	mov	ecx, DWORD PTR _this$[ebp]
	push	ecx
	call	??3@YAXPAX@Z				; operator delete
	add	esp, 4
$LN1@scalar:
	mov	eax, DWORD PTR _this$[ebp]
	mov	esp, ebp
	pop	ebp
	ret	4
??_G_Generic_error_category@std@@UAEPAXI@Z ENDP		; std::_Generic_error_category::`scalar deleting destructor'
_TEXT	ENDS
; Function compile flags: /Odtp
;	COMDAT ??1_Generic_error_category@std@@UAE@XZ
_TEXT	SEGMENT
_this$ = -4						; size = 4
??1_Generic_error_category@std@@UAE@XZ PROC		; std::_Generic_error_category::~_Generic_error_category, COMDAT
; _this$ = ecx
	push	ebp
	mov	ebp, esp
	push	ecx
	mov	DWORD PTR _this$[ebp], ecx
	mov	ecx, DWORD PTR _this$[ebp]
	call	??1error_category@std@@UAE@XZ		; std::error_category::~error_category
	mov	esp, ebp
	pop	ebp
	ret	0
??1_Generic_error_category@std@@UAE@XZ ENDP		; std::_Generic_error_category::~_Generic_error_category
_TEXT	ENDS
; Function compile flags: /Odtp
; File c:\program files (x86)\microsoft visual studio 11.0\vc\include\system_error
;	COMDAT ?message@_Generic_error_category@std@@UBE?AV?$basic_string@DU?$char_traits@D@std@@V?$allocator@D@2@@2@H@Z
_TEXT	SEGMENT
_this$ = -16						; size = 4
$T1 = -12						; size = 4
tv69 = -8						; size = 4
__Name$ = -4						; size = 4
___$ReturnUdt$ = 8					; size = 4
__Errcode$ = 12						; size = 4
?message@_Generic_error_category@std@@UBE?AV?$basic_string@DU?$char_traits@D@std@@V?$allocator@D@2@@2@H@Z PROC ; std::_Generic_error_category::message, COMDAT
; _this$ = ecx

; 590  : 		{	// convert to name of error

	push	ebp
	mov	ebp, esp
	sub	esp, 16					; 00000010H
	mov	DWORD PTR _this$[ebp], ecx
	mov	DWORD PTR $T1[ebp], 0

; 591  : 		const char *_Name = _Syserror_map(_Errcode);

	mov	eax, DWORD PTR __Errcode$[ebp]
	push	eax
	call	?_Syserror_map@std@@YAPBDH@Z		; std::_Syserror_map
	add	esp, 4
	mov	DWORD PTR __Name$[ebp], eax

; 592  : 		return (string(_Name != 0 ? _Name : "unknown error"));

	cmp	DWORD PTR __Name$[ebp], 0
	je	SHORT $LN3@message
	mov	ecx, DWORD PTR __Name$[ebp]
	mov	DWORD PTR tv69[ebp], ecx
	jmp	SHORT $LN4@message
$LN3@message:
	mov	DWORD PTR tv69[ebp], OFFSET ??_C@_0O@BFJCFAAK@unknown?5error?$AA@
$LN4@message:
	mov	edx, DWORD PTR tv69[ebp]
	push	edx
	mov	ecx, DWORD PTR ___$ReturnUdt$[ebp]
	call	??0?$basic_string@DU?$char_traits@D@std@@V?$allocator@D@2@@std@@QAE@PBD@Z ; std::basic_string<char,std::char_traits<char>,std::allocator<char> >::basic_string<char,std::char_traits<char>,std::allocator<char> >
	mov	eax, DWORD PTR $T1[ebp]
	or	eax, 1
	mov	DWORD PTR $T1[ebp], eax
	mov	eax, DWORD PTR ___$ReturnUdt$[ebp]

; 593  : 		}

	mov	esp, ebp
	pop	ebp
	ret	8
?message@_Generic_error_category@std@@UBE?AV?$basic_string@DU?$char_traits@D@std@@V?$allocator@D@2@@2@H@Z ENDP ; std::_Generic_error_category::message
_TEXT	ENDS
; Function compile flags: /Odtp
; File c:\program files (x86)\microsoft visual studio 11.0\vc\include\system_error
;	COMDAT ?name@_Generic_error_category@std@@UBEPBDXZ
_TEXT	SEGMENT
_this$ = -4						; size = 4
?name@_Generic_error_category@std@@UBEPBDXZ PROC	; std::_Generic_error_category::name, COMDAT
; _this$ = ecx

; 585  : 		{	// get name of category

	push	ebp
	mov	ebp, esp
	push	ecx
	mov	DWORD PTR _this$[ebp], ecx

; 586  : 		return ("generic");

	mov	eax, OFFSET ??_C@_07DCLBNMLN@generic?$AA@

; 587  : 		}

	mov	esp, ebp
	pop	ebp
	ret	0
?name@_Generic_error_category@std@@UBEPBDXZ ENDP	; std::_Generic_error_category::name
_TEXT	ENDS
; Function compile flags: /Odtp
; File c:\program files (x86)\microsoft visual studio 11.0\vc\include\system_error
;	COMDAT ??0_Generic_error_category@std@@QAE@XZ
_TEXT	SEGMENT
_this$ = -4						; size = 4
??0_Generic_error_category@std@@QAE@XZ PROC		; std::_Generic_error_category::_Generic_error_category, COMDAT
; _this$ = ecx

; 580  : 	_Generic_error_category()

	push	ebp
	mov	ebp, esp
	push	ecx
	mov	DWORD PTR _this$[ebp], ecx
	mov	ecx, DWORD PTR _this$[ebp]
	call	??0error_category@std@@QAE@XZ		; std::error_category::error_category
	mov	eax, DWORD PTR _this$[ebp]
	mov	DWORD PTR [eax], OFFSET ??_7_Generic_error_category@std@@6B@

; 581  : 		{	// default constructor
; 582  : 		}

	mov	eax, DWORD PTR _this$[ebp]
	mov	esp, ebp
	pop	ebp
	ret	0
??0_Generic_error_category@std@@QAE@XZ ENDP		; std::_Generic_error_category::_Generic_error_category
_TEXT	ENDS
; Function compile flags: /Odtp
; File c:\program files (x86)\microsoft visual studio 11.0\vc\include\system_error
;	COMDAT ??8error_condition@std@@QBE_NABV01@@Z
_TEXT	SEGMENT
tv78 = -8						; size = 4
_this$ = -4						; size = 4
__Right$ = 8						; size = 4
??8error_condition@std@@QBE_NABV01@@Z PROC		; std::error_condition::operator==, COMDAT
; _this$ = ecx

; 376  : 		{	// test if *this == _Right

	push	ebp
	mov	ebp, esp
	sub	esp, 8
	push	esi
	mov	DWORD PTR _this$[ebp], ecx

; 377  : 		return (category() == _Right.category()
; 378  : 			&& value() == _Right.value());

	mov	ecx, DWORD PTR __Right$[ebp]
	call	?category@error_condition@std@@QBEABVerror_category@2@XZ ; std::error_condition::category
	push	eax
	mov	ecx, DWORD PTR _this$[ebp]
	call	?category@error_condition@std@@QBEABVerror_category@2@XZ ; std::error_condition::category
	mov	ecx, eax
	call	??8error_category@std@@QBE_NABV01@@Z	; std::error_category::operator==
	movzx	eax, al
	test	eax, eax
	je	SHORT $LN3@operator
	mov	ecx, DWORD PTR _this$[ebp]
	call	?value@error_condition@std@@QBEHXZ	; std::error_condition::value
	mov	esi, eax
	mov	ecx, DWORD PTR __Right$[ebp]
	call	?value@error_condition@std@@QBEHXZ	; std::error_condition::value
	cmp	esi, eax
	jne	SHORT $LN3@operator
	mov	DWORD PTR tv78[ebp], 1
	jmp	SHORT $LN4@operator
$LN3@operator:
	mov	DWORD PTR tv78[ebp], 0
$LN4@operator:
	mov	al, BYTE PTR tv78[ebp]

; 379  : 		}

	pop	esi
	mov	esp, ebp
	pop	ebp
	ret	4
??8error_condition@std@@QBE_NABV01@@Z ENDP		; std::error_condition::operator==
_TEXT	ENDS
; Function compile flags: /Odtp
; File c:\program files (x86)\microsoft visual studio 11.0\vc\include\system_error
;	COMDAT ?category@error_condition@std@@QBEABVerror_category@2@XZ
_TEXT	SEGMENT
_this$ = -4						; size = 4
?category@error_condition@std@@QBEABVerror_category@2@XZ PROC ; std::error_condition::category, COMDAT
; _this$ = ecx

; 354  : 		{	// get category

	push	ebp
	mov	ebp, esp
	push	ecx
	mov	DWORD PTR _this$[ebp], ecx

; 355  : 		return (*_Mycat);

	mov	eax, DWORD PTR _this$[ebp]
	mov	eax, DWORD PTR [eax+4]

; 356  : 		}

	mov	esp, ebp
	pop	ebp
	ret	0
?category@error_condition@std@@QBEABVerror_category@2@XZ ENDP ; std::error_condition::category
_TEXT	ENDS
; Function compile flags: /Odtp
; File c:\program files (x86)\microsoft visual studio 11.0\vc\include\system_error
;	COMDAT ?value@error_condition@std@@QBEHXZ
_TEXT	SEGMENT
_this$ = -4						; size = 4
?value@error_condition@std@@QBEHXZ PROC			; std::error_condition::value, COMDAT
; _this$ = ecx

; 349  : 		{	// get error code

	push	ebp
	mov	ebp, esp
	push	ecx
	mov	DWORD PTR _this$[ebp], ecx

; 350  : 		return (_Myval);

	mov	eax, DWORD PTR _this$[ebp]
	mov	eax, DWORD PTR [eax]

; 351  : 		}

	mov	esp, ebp
	pop	ebp
	ret	0
?value@error_condition@std@@QBEHXZ ENDP			; std::error_condition::value
_TEXT	ENDS
; Function compile flags: /Odtp
; File c:\program files (x86)\microsoft visual studio 11.0\vc\include\system_error
;	COMDAT ??0error_condition@std@@QAE@HABVerror_category@1@@Z
_TEXT	SEGMENT
_this$ = -4						; size = 4
__Val$ = 8						; size = 4
__Cat$ = 12						; size = 4
??0error_condition@std@@QAE@HABVerror_category@1@@Z PROC ; std::error_condition::error_condition, COMDAT
; _this$ = ecx

; 316  : 		{	// construct from error code and category

	push	ebp
	mov	ebp, esp
	push	ecx
	mov	DWORD PTR _this$[ebp], ecx
	mov	eax, DWORD PTR _this$[ebp]
	mov	ecx, DWORD PTR __Val$[ebp]
	mov	DWORD PTR [eax], ecx
	mov	edx, DWORD PTR _this$[ebp]
	mov	eax, DWORD PTR __Cat$[ebp]
	mov	DWORD PTR [edx+4], eax

; 317  : 		}

	mov	eax, DWORD PTR _this$[ebp]
	mov	esp, ebp
	pop	ebp
	ret	8
??0error_condition@std@@QAE@HABVerror_category@1@@Z ENDP ; std::error_condition::error_condition
_TEXT	ENDS
; Function compile flags: /Odtp
; File c:\program files (x86)\microsoft visual studio 11.0\vc\include\system_error
;	COMDAT ?category@error_code@std@@QBEABVerror_category@2@XZ
_TEXT	SEGMENT
_this$ = -4						; size = 4
?category@error_code@std@@QBEABVerror_category@2@XZ PROC ; std::error_code::category, COMDAT
; _this$ = ecx

; 256  : 		{	// get category

	push	ebp
	mov	ebp, esp
	push	ecx
	mov	DWORD PTR _this$[ebp], ecx

; 257  : 		return (*_Mycat);

	mov	eax, DWORD PTR _this$[ebp]
	mov	eax, DWORD PTR [eax+4]

; 258  : 		}

	mov	esp, ebp
	pop	ebp
	ret	0
?category@error_code@std@@QBEABVerror_category@2@XZ ENDP ; std::error_code::category
_TEXT	ENDS
; Function compile flags: /Odtp
; File c:\program files (x86)\microsoft visual studio 11.0\vc\include\system_error
;	COMDAT ?value@error_code@std@@QBEHXZ
_TEXT	SEGMENT
_this$ = -4						; size = 4
?value@error_code@std@@QBEHXZ PROC			; std::error_code::value, COMDAT
; _this$ = ecx

; 251  : 		{	// get error code

	push	ebp
	mov	ebp, esp
	push	ecx
	mov	DWORD PTR _this$[ebp], ecx

; 252  : 		return (_Myval);

	mov	eax, DWORD PTR _this$[ebp]
	mov	eax, DWORD PTR [eax]

; 253  : 		}

	mov	esp, ebp
	pop	ebp
	ret	0
?value@error_code@std@@QBEHXZ ENDP			; std::error_code::value
_TEXT	ENDS
; Function compile flags: /Odtp
;	COMDAT ??_Gerror_category@std@@UAEPAXI@Z
_TEXT	SEGMENT
_this$ = -4						; size = 4
___flags$ = 8						; size = 4
??_Gerror_category@std@@UAEPAXI@Z PROC			; std::error_category::`scalar deleting destructor', COMDAT
; _this$ = ecx
	push	ebp
	mov	ebp, esp
	push	ecx
	mov	DWORD PTR _this$[ebp], ecx
	mov	ecx, DWORD PTR _this$[ebp]
	call	??1error_category@std@@UAE@XZ		; std::error_category::~error_category
	mov	eax, DWORD PTR ___flags$[ebp]
	and	eax, 1
	je	SHORT $LN1@scalar
	mov	ecx, DWORD PTR _this$[ebp]
	push	ecx
	call	??3@YAXPAX@Z				; operator delete
	add	esp, 4
$LN1@scalar:
	mov	eax, DWORD PTR _this$[ebp]
	mov	esp, ebp
	pop	ebp
	ret	4
??_Gerror_category@std@@UAEPAXI@Z ENDP			; std::error_category::`scalar deleting destructor'
_TEXT	ENDS
; Function compile flags: /Odtp
; File c:\program files (x86)\microsoft visual studio 11.0\vc\include\system_error
;	COMDAT ??8error_category@std@@QBE_NABV01@@Z
_TEXT	SEGMENT
_this$ = -8						; size = 4
tv65 = -4						; size = 4
__Right$ = 8						; size = 4
??8error_category@std@@QBE_NABV01@@Z PROC		; std::error_category::operator==, COMDAT
; _this$ = ecx

; 184  : 		{	// compare categories for equality

	push	ebp
	mov	ebp, esp
	sub	esp, 8
	mov	DWORD PTR _this$[ebp], ecx

; 185  : 		return (this == &_Right);

	mov	eax, DWORD PTR _this$[ebp]
	cmp	eax, DWORD PTR __Right$[ebp]
	jne	SHORT $LN3@operator
	mov	DWORD PTR tv65[ebp], 1
	jmp	SHORT $LN4@operator
$LN3@operator:
	mov	DWORD PTR tv65[ebp], 0
$LN4@operator:
	mov	al, BYTE PTR tv65[ebp]

; 186  : 		}

	mov	esp, ebp
	pop	ebp
	ret	4
??8error_category@std@@QBE_NABV01@@Z ENDP		; std::error_category::operator==
_TEXT	ENDS
; Function compile flags: /Odtp
; File c:\program files (x86)\microsoft visual studio 11.0\vc\include\system_error
;	COMDAT ?equivalent@error_category@std@@UBE_NABVerror_code@2@H@Z
_TEXT	SEGMENT
_this$ = -8						; size = 4
tv74 = -4						; size = 4
__Code$ = 8						; size = 4
__Errval$ = 12						; size = 4
?equivalent@error_category@std@@UBE_NABVerror_code@2@H@Z PROC ; std::error_category::equivalent, COMDAT
; _this$ = ecx

; 415  : 	{	// test if conditions same for this category

	push	ebp
	mov	ebp, esp
	sub	esp, 8
	mov	DWORD PTR _this$[ebp], ecx

; 416  : 	return (*this == _Code.category() && _Code.value() == _Errval);

	mov	ecx, DWORD PTR __Code$[ebp]
	call	?category@error_code@std@@QBEABVerror_category@2@XZ ; std::error_code::category
	push	eax
	mov	ecx, DWORD PTR _this$[ebp]
	call	??8error_category@std@@QBE_NABV01@@Z	; std::error_category::operator==
	movzx	eax, al
	test	eax, eax
	je	SHORT $LN3@equivalent
	mov	ecx, DWORD PTR __Code$[ebp]
	call	?value@error_code@std@@QBEHXZ		; std::error_code::value
	cmp	eax, DWORD PTR __Errval$[ebp]
	jne	SHORT $LN3@equivalent
	mov	DWORD PTR tv74[ebp], 1
	jmp	SHORT $LN4@equivalent
$LN3@equivalent:
	mov	DWORD PTR tv74[ebp], 0
$LN4@equivalent:
	mov	al, BYTE PTR tv74[ebp]

; 417  : 	}

	mov	esp, ebp
	pop	ebp
	ret	8
?equivalent@error_category@std@@UBE_NABVerror_code@2@H@Z ENDP ; std::error_category::equivalent
_TEXT	ENDS
; Function compile flags: /Odtp
; File c:\program files (x86)\microsoft visual studio 11.0\vc\include\system_error
;	COMDAT ?equivalent@error_category@std@@UBE_NHABVerror_condition@2@@Z
_TEXT	SEGMENT
$T1 = -12						; size = 8
_this$ = -4						; size = 4
__Errval$ = 8						; size = 4
__Cond$ = 12						; size = 4
?equivalent@error_category@std@@UBE_NHABVerror_condition@2@@Z PROC ; std::error_category::equivalent, COMDAT
; _this$ = ecx

; 408  : 	{	// test if error code same condition

	push	ebp
	mov	ebp, esp
	sub	esp, 12					; 0000000cH
	mov	DWORD PTR _this$[ebp], ecx

; 409  : 	return (default_error_condition(_Errval) == _Cond);

	mov	eax, DWORD PTR __Cond$[ebp]
	push	eax
	mov	ecx, DWORD PTR __Errval$[ebp]
	push	ecx
	lea	edx, DWORD PTR $T1[ebp]
	push	edx
	mov	eax, DWORD PTR _this$[ebp]
	mov	edx, DWORD PTR [eax]
	mov	ecx, DWORD PTR _this$[ebp]
	mov	eax, DWORD PTR [edx+12]
	call	eax
	mov	ecx, eax
	call	??8error_condition@std@@QBE_NABV01@@Z	; std::error_condition::operator==

; 410  : 	}

	mov	esp, ebp
	pop	ebp
	ret	8
?equivalent@error_category@std@@UBE_NHABVerror_condition@2@@Z ENDP ; std::error_category::equivalent
_TEXT	ENDS
; Function compile flags: /Odtp
; File c:\program files (x86)\microsoft visual studio 11.0\vc\include\system_error
;	COMDAT ?default_error_condition@error_category@std@@UBE?AVerror_condition@2@H@Z
_TEXT	SEGMENT
_this$ = -4						; size = 4
___$ReturnUdt$ = 8					; size = 4
__Errval$ = 12						; size = 4
?default_error_condition@error_category@std@@UBE?AVerror_condition@2@H@Z PROC ; std::error_category::default_error_condition, COMDAT
; _this$ = ecx

; 401  : 	{	// make error_condition for error code

	push	ebp
	mov	ebp, esp
	push	ecx
	mov	DWORD PTR _this$[ebp], ecx

; 402  : 	return (error_condition(_Errval, *this));

	mov	eax, DWORD PTR _this$[ebp]
	push	eax
	mov	ecx, DWORD PTR __Errval$[ebp]
	push	ecx
	mov	ecx, DWORD PTR ___$ReturnUdt$[ebp]
	call	??0error_condition@std@@QAE@HABVerror_category@1@@Z ; std::error_condition::error_condition
	mov	eax, DWORD PTR ___$ReturnUdt$[ebp]

; 403  : 	}

	mov	esp, ebp
	pop	ebp
	ret	8
?default_error_condition@error_category@std@@UBE?AVerror_condition@2@H@Z ENDP ; std::error_category::default_error_condition
_TEXT	ENDS
; Function compile flags: /Odtp
; File c:\program files (x86)\microsoft visual studio 11.0\vc\include\system_error
;	COMDAT ??1error_category@std@@UAE@XZ
_TEXT	SEGMENT
_this$ = -4						; size = 4
??1error_category@std@@UAE@XZ PROC			; std::error_category::~error_category, COMDAT
; _this$ = ecx

; 167  : 		{	// destroy the object

	push	ebp
	mov	ebp, esp
	push	ecx
	mov	DWORD PTR _this$[ebp], ecx
	mov	eax, DWORD PTR _this$[ebp]
	mov	DWORD PTR [eax], OFFSET ??_7error_category@std@@6B@

; 168  : 		}

	mov	esp, ebp
	pop	ebp
	ret	0
??1error_category@std@@UAE@XZ ENDP			; std::error_category::~error_category
_TEXT	ENDS
; Function compile flags: /Odtp
; File c:\program files (x86)\microsoft visual studio 11.0\vc\include\system_error
;	COMDAT ??0error_category@std@@QAE@XZ
_TEXT	SEGMENT
_this$ = -4						; size = 4
??0error_category@std@@QAE@XZ PROC			; std::error_category::error_category, COMDAT
; _this$ = ecx

; 162  : 	error_category()

	push	ebp
	mov	ebp, esp
	push	ecx
	mov	DWORD PTR _this$[ebp], ecx
	mov	eax, DWORD PTR _this$[ebp]
	mov	DWORD PTR [eax], OFFSET ??_7error_category@std@@6B@

; 163  : 		{	// default constructor
; 164  : 		}

	mov	eax, DWORD PTR _this$[ebp]
	mov	esp, ebp
	pop	ebp
	ret	0
??0error_category@std@@QAE@XZ ENDP			; std::error_category::error_category
_TEXT	ENDS
; Function compile flags: /Odtp
; File c:\program files (x86)\microsoft visual studio 11.0\vc\include\system_error
;	COMDAT ?system_category@std@@YAABVerror_category@1@XZ
_TEXT	SEGMENT
?system_category@std@@YAABVerror_category@1@XZ PROC	; std::system_category, COMDAT

; 679  : 	{	// get system_category

	push	ebp
	mov	ebp, esp

; 680  : 	return (_Error_objects<int>::_System_object);

	mov	eax, OFFSET ?_System_object@?$_Error_objects@H@std@@2V_System_error_category@2@A ; std::_Error_objects<int>::_System_object

; 681  : 	}

	pop	ebp
	ret	0
?system_category@std@@YAABVerror_category@1@XZ ENDP	; std::system_category
_TEXT	ENDS
; Function compile flags: /Odtp
; File c:\program files (x86)\microsoft visual studio 11.0\vc\include\system_error
;	COMDAT ?generic_category@std@@YAABVerror_category@1@XZ
_TEXT	SEGMENT
?generic_category@std@@YAABVerror_category@1@XZ PROC	; std::generic_category, COMDAT

; 669  : 	{	// get generic_category

	push	ebp
	mov	ebp, esp

; 670  : 	return (_Error_objects<int>::_Generic_object);

	mov	eax, OFFSET ?_Generic_object@?$_Error_objects@H@std@@2V_Generic_error_category@2@A ; std::_Error_objects<int>::_Generic_object

; 671  : 	}

	pop	ebp
	ret	0
?generic_category@std@@YAABVerror_category@1@XZ ENDP	; std::generic_category
_TEXT	ENDS
; Function compile flags: /Odtp
; File c:\program files (x86)\microsoft visual studio 11.0\vc\include\xlocale
;	COMDAT ??0id@locale@std@@QAE@I@Z
_TEXT	SEGMENT
_this$ = -4						; size = 4
__Val$ = 8						; size = 4
??0id@locale@std@@QAE@I@Z PROC				; std::locale::id::id, COMDAT
; _this$ = ecx

; 74   : 			{	// construct with specified stamp value

	push	ebp
	mov	ebp, esp
	push	ecx
	mov	DWORD PTR _this$[ebp], ecx
	mov	eax, DWORD PTR _this$[ebp]
	mov	ecx, DWORD PTR __Val$[ebp]
	mov	DWORD PTR [eax], ecx

; 75   : 			}

	mov	eax, DWORD PTR _this$[ebp]
	mov	esp, ebp
	pop	ebp
	ret	4
??0id@locale@std@@QAE@I@Z ENDP				; std::locale::id::id
_TEXT	ENDS
; Function compile flags: /Odtp
; File c:\users\zhitao li\documents\visual studio 2012\projects\freefalcon\sim\include\simbase.h
;	COMDAT ?Status@SimBaseClass@@QBEHXZ
_TEXT	SEGMENT
_this$ = -4						; size = 4
?Status@SimBaseClass@@QBEHXZ PROC			; SimBaseClass::Status, COMDAT
; _this$ = ecx

; 192  : 	int Status() const { return specialData.status; }

	push	ebp
	mov	ebp, esp
	push	ecx
	mov	DWORD PTR _this$[ebp], ecx
	mov	eax, DWORD PTR _this$[ebp]
	mov	eax, DWORD PTR [eax+176]
	mov	esp, ebp
	pop	ebp
	ret	0
?Status@SimBaseClass@@QBEHXZ ENDP			; SimBaseClass::Status
_TEXT	ENDS
; Function compile flags: /Odtp
; File c:\users\zhitao li\documents\visual studio 2012\projects\freefalcon\sim\include\simbase.h
;	COMDAT ?GetSlot@SimBaseClass@@QAEHXZ
_TEXT	SEGMENT
_this$ = -4						; size = 4
?GetSlot@SimBaseClass@@QAEHXZ PROC			; SimBaseClass::GetSlot, COMDAT
; _this$ = ecx

; 155  : 	int GetSlot () { return slotNumber;};

	push	ebp
	mov	ebp, esp
	push	ecx
	mov	DWORD PTR _this$[ebp], ecx
	mov	eax, DWORD PTR _this$[ebp]
	mov	eax, DWORD PTR [eax+236]
	mov	esp, ebp
	pop	ebp
	ret	0
?GetSlot@SimBaseClass@@QAEHXZ ENDP			; SimBaseClass::GetSlot
_TEXT	ENDS
; Function compile flags: /Odtp
; File c:\users\zhitao li\documents\visual studio 2012\projects\freefalcon\campaign\camplib\objectiv.cpp
_TEXT	SEGMENT
_vuid$ = -36						; size = 8
$T1 = -28						; size = 4
_bufhead$ = -24						; size = 4
$T2 = -20						; size = 4
_o$ = -16						; size = 4
_size$ = -12						; size = 4
_buf$ = -8						; size = 4
_count$ = -4						; size = 2
_stream$ = 8						; size = 4
_rem$ = 12						; size = 4
___formal$ = 16						; size = 4
?DecodeObjectiveDeltas@@YAHPAPAEPAJPAVFalconSessionEntity@@@Z PROC ; DecodeObjectiveDeltas

; 2999 : {

	push	ebp
	mov	ebp, esp
	sub	esp, 36					; 00000024H

; 3000 : 	long            size;
; 3001 : 	short			count;
; 3002 : 	VU_ID			vuid;

	lea	ecx, DWORD PTR _vuid$[ebp]
	call	??0VU_ID@@QAE@XZ			; VU_ID::VU_ID

; 3003 : 	Objective		o;
; 3004 : 	VU_BYTE			*buf,*bufhead;
; 3005 : 
; 3006 : 	memcpychk(&count, stream, sizeof(short), rem);

	mov	eax, DWORD PTR _rem$[ebp]
	push	eax
	push	2
	mov	ecx, DWORD PTR _stream$[ebp]
	push	ecx
	lea	edx, DWORD PTR _count$[ebp]
	push	edx
	call	?memcpychk@@YAXPAXPAPAEIPAJ@Z		; memcpychk
	add	esp, 16					; 00000010H

; 3007 : 	memcpychk(&size, stream, sizeof(long), rem);  

	mov	eax, DWORD PTR _rem$[ebp]
	push	eax
	push	4
	mov	ecx, DWORD PTR _stream$[ebp]
	push	ecx
	lea	edx, DWORD PTR _size$[ebp]
	push	edx
	call	?memcpychk@@YAXPAXPAPAEIPAJ@Z		; memcpychk
	add	esp, 16					; 00000010H

; 3008 : 
; 3009 : 	buf = new VU_BYTE[size];

	mov	eax, DWORD PTR _size$[ebp]
	push	eax
	call	??_U@YAPAXI@Z				; operator new[]
	add	esp, 4
	mov	DWORD PTR $T2[ebp], eax
	mov	ecx, DWORD PTR $T2[ebp]
	mov	DWORD PTR _buf$[ebp], ecx

; 3010 : 	bufhead = buf;

	mov	edx, DWORD PTR _buf$[ebp]
	mov	DWORD PTR _bufhead$[ebp], edx

; 3011 : 	if (LZSS_Expand(*stream, rem[0], buf, size) < 0){

	mov	eax, DWORD PTR _size$[ebp]
	push	eax
	mov	ecx, DWORD PTR _buf$[ebp]
	push	ecx
	mov	edx, 4
	imul	edx, 0
	mov	eax, DWORD PTR _rem$[ebp]
	mov	ecx, DWORD PTR [eax+edx]
	push	ecx
	mov	edx, DWORD PTR _stream$[ebp]
	mov	eax, DWORD PTR [edx]
	push	eax
	call	_LZSS_Expand
	add	esp, 16					; 00000010H

; 3012 : //		char err[200];
; 3013 : //		sprintf(err, "%s %d: error expanding data", __FILE__, __LINE__);
; 3014 : //		throw std::InvalidBufferException(err);
; 3015 : 	}
; 3016 : 	//our new buffer is size size
; 3017 : 	rem[0] = size;

	mov	ecx, 4
	imul	ecx, 0
	mov	edx, DWORD PTR _rem$[ebp]
	mov	eax, DWORD PTR _size$[ebp]
	mov	DWORD PTR [edx+ecx], eax
$LN4@DecodeObje:

; 3018 : 
; 3019 : 	while (count) {

	movsx	ecx, WORD PTR _count$[ebp]
	test	ecx, ecx
	je	SHORT $LN3@DecodeObje

; 3020 : 		
; 3021 : 		memcpychk(&vuid, &buf, sizeof(VU_ID), rem);

	mov	edx, DWORD PTR _rem$[ebp]
	push	edx
	push	8
	lea	eax, DWORD PTR _buf$[ebp]
	push	eax
	lea	ecx, DWORD PTR _vuid$[ebp]
	push	ecx
	call	?memcpychk@@YAXPAXPAPAEIPAJ@Z		; memcpychk
	add	esp, 16					; 00000010H

; 3022 : 		o = FindObjective(vuid);

	mov	edx, DWORD PTR _vuid$[ebp+4]
	push	edx
	mov	eax, DWORD PTR _vuid$[ebp]
	push	eax
	call	?FindObjective@@YAPAVObjectiveClass@@VVU_ID@@@Z ; FindObjective
	add	esp, 8
	mov	DWORD PTR _o$[ebp], eax

; 3023 : 
; 3024 : 		ShiAssert (o);
; 3025 : 
; 3026 : 		if (o) {

	cmp	DWORD PTR _o$[ebp], 0
	je	SHORT $LN2@DecodeObje

; 3027 : 			o->UpdateFromData(&buf, rem);

	mov	ecx, DWORD PTR _rem$[ebp]
	push	ecx
	lea	edx, DWORD PTR _buf$[ebp]
	push	edx
	mov	ecx, DWORD PTR _o$[ebp]
	call	?UpdateFromData@ObjectiveClass@@QAEXPAPAEPAJ@Z ; ObjectiveClass::UpdateFromData

; 3028 : 			count --;

	mov	ax, WORD PTR _count$[ebp]
	sub	ax, 1
	mov	WORD PTR _count$[ebp], ax

; 3029 : 		}
; 3030 : 		else {

	jmp	SHORT $LN1@DecodeObje
$LN2@DecodeObje:

; 3031 : 			count = 0;

	xor	ecx, ecx
	mov	WORD PTR _count$[ebp], cx
$LN1@DecodeObje:

; 3032 : 		}
; 3033 : 	}

	jmp	SHORT $LN4@DecodeObje
$LN3@DecodeObje:

; 3034 : 	delete bufhead;

	mov	edx, DWORD PTR _bufhead$[ebp]
	mov	DWORD PTR $T1[ebp], edx
	mov	eax, DWORD PTR $T1[ebp]
	push	eax
	call	??3@YAXPAX@Z				; operator delete
	add	esp, 4

; 3035 : 	return 0;

	xor	eax, eax

; 3036 : }

	mov	esp, ebp
	pop	ebp
	ret	0
?DecodeObjectiveDeltas@@YAHPAPAEPAJPAVFalconSessionEntity@@@Z ENDP ; DecodeObjectiveDeltas
_TEXT	ENDS
; Function compile flags: /Odtp
; File c:\users\zhitao li\documents\visual studio 2012\projects\freefalcon\campaign\camplib\objectiv.cpp
_TEXT	SEGMENT
_myit$2 = -128						; size = 12
_myit$3 = -116						; size = 12
$T4 = -104						; size = 8
$T5 = -96						; size = 8
$T6 = -88						; size = 8
$T7 = -80						; size = 8
_vuid$ = -72						; size = 8
_ownerid$ = -64						; size = 8
_newsize$ = -56						; size = 4
$T8 = -52						; size = 4
$T9 = -48						; size = 4
$T10 = -44						; size = 4
_bufhead$ = -40						; size = 4
_size$ = -36						; size = 4
_buf$ = -32						; size = 4
_sptr$ = -28						; size = 4
_o$ = -24						; size = 4
_ent$ = -20						; size = 4
_count$ = -16						; size = 2
__$EHRec$ = -12						; size = 12
_stream$ = 8						; size = 4
_owner$ = 12						; size = 4
?EncodeObjectiveDeltas@@YAHPAPAEPAVFalconSessionEntity@@@Z PROC ; EncodeObjectiveDeltas

; 2927 : {

	push	ebp
	mov	ebp, esp
	push	-1
	push	__ehhandler$?EncodeObjectiveDeltas@@YAHPAPAEPAVFalconSessionEntity@@@Z
	mov	eax, DWORD PTR fs:0
	push	eax
	sub	esp, 116				; 00000074H
	mov	eax, DWORD PTR ___security_cookie
	xor	eax, ebp
	push	eax
	lea	eax, DWORD PTR __$EHRec$[ebp]
	mov	DWORD PTR fs:0, eax

; 2928 : 	long            size=0,newsize;

	mov	DWORD PTR _size$[ebp], 0

; 2929 : 	short			count=0;

	xor	eax, eax
	mov	WORD PTR _count$[ebp], ax

; 2930 : 	Objective		o;
; 2931 : 	CampEntity		ent;
; 2932 : 	VU_BYTE			*buf,*sptr,*bufhead;
; 2933 : 	VU_ID			vuid,ownerid;

	lea	ecx, DWORD PTR _vuid$[ebp]
	call	??0VU_ID@@QAE@XZ			; VU_ID::VU_ID
	lea	ecx, DWORD PTR _ownerid$[ebp]
	call	??0VU_ID@@QAE@XZ			; VU_ID::VU_ID

; 2934 : 
; 2935 : 	if (owner){

	cmp	DWORD PTR _owner$[ebp], 0
	je	SHORT $LN11@EncodeObje

; 2936 : 		ownerid = owner->Id();

	lea	ecx, DWORD PTR $T7[ebp]
	push	ecx
	mov	ecx, DWORD PTR _owner$[ebp]
	call	?Id@VuEntity@@QBE?AVVU_ID@@XZ		; VuEntity::Id
	mov	edx, DWORD PTR [eax]
	mov	eax, DWORD PTR [eax+4]
	mov	DWORD PTR _ownerid$[ebp], edx
	mov	DWORD PTR _ownerid$[ebp+4], eax
$LN11@EncodeObje:

; 2937 : 	}
; 2938 : 
; 2939 : 	// Count size of dirty objectives changable data
; 2940 : 	{
; 2941 : 		// Use AllCamp iterator - just in case we don't have an ObjList (Dogfight)
; 2942 : 		VuListIterator	myit(AllCampList);

	mov	ecx, DWORD PTR ?AllCampList@@3PAVVuLinkedList@@A ; AllCampList
	push	ecx
	lea	ecx, DWORD PTR _myit$3[ebp]
	call	??0VuListIterator@@QAE@PAVVuLinkedList@@@Z ; VuListIterator::VuListIterator
	mov	DWORD PTR __$EHRec$[ebp+8], 0

; 2943 : 		ent = (CampEntity) myit.GetFirst();	

	lea	ecx, DWORD PTR _myit$3[ebp]
	call	?GetFirst@VuListIterator@@QAEPAVVuEntity@@XZ ; VuListIterator::GetFirst
	mov	DWORD PTR _ent$[ebp], eax
$LN10@EncodeObje:

; 2944 : 		while (ent){

	cmp	DWORD PTR _ent$[ebp], 0
	je	$LN9@EncodeObje

; 2945 : 			if (
; 2946 : 				(ent->EntityType())->classInfo_[VU_CLASS] == CLASS_OBJECTIVE && 
; 2947 : 				(!owner || ent->OwnerId() == ownerid)
; 2948 : 			){

	mov	ecx, DWORD PTR _ent$[ebp]
	call	?EntityType@VuEntity@@QBEPAUVuEntityType@@XZ ; VuEntity::EntityType
	mov	edx, 1
	shl	edx, 0
	movzx	eax, BYTE PTR [eax+edx+8]
	cmp	eax, 4
	jne	SHORT $LN8@EncodeObje
	cmp	DWORD PTR _owner$[ebp], 0
	je	SHORT $LN7@EncodeObje
	lea	ecx, DWORD PTR _ownerid$[ebp]
	push	ecx
	lea	edx, DWORD PTR $T6[ebp]
	push	edx
	mov	ecx, DWORD PTR _ent$[ebp]
	call	?OwnerId@VuEntity@@QBE?AVVU_ID@@XZ	; VuEntity::OwnerId
	mov	ecx, eax
	call	??8VU_ID@@QBE_NABV0@@Z			; VU_ID::operator==
	movzx	eax, al
	test	eax, eax
	je	SHORT $LN8@EncodeObje
$LN7@EncodeObje:

; 2949 : 				o = (Objective)ent;

	mov	ecx, DWORD PTR _ent$[ebp]
	mov	DWORD PTR _o$[ebp], ecx

; 2950 : 				if (o->HasDelta())

	mov	ecx, DWORD PTR _o$[ebp]
	call	?HasDelta@CampBaseClass@@QAEHXZ		; CampBaseClass::HasDelta
	test	eax, eax
	je	SHORT $LN8@EncodeObje

; 2951 : 				{
; 2952 : 					size += sizeof(VU_ID) + o->SaveSize(1);

	push	1
	mov	edx, DWORD PTR _o$[ebp]
	mov	eax, DWORD PTR [edx]
	mov	ecx, DWORD PTR _o$[ebp]
	mov	edx, DWORD PTR [eax+452]
	call	edx
	mov	ecx, DWORD PTR _size$[ebp]
	lea	edx, DWORD PTR [ecx+eax+8]
	mov	DWORD PTR _size$[ebp], edx

; 2953 : 					count++;

	mov	ax, WORD PTR _count$[ebp]
	add	ax, 1
	mov	WORD PTR _count$[ebp], ax
$LN8@EncodeObje:

; 2954 : 				}
; 2955 : 			}
; 2956 : 			ent = (CampEntity) myit.GetNext();

	lea	ecx, DWORD PTR _myit$3[ebp]
	call	?GetNext@VuListIterator@@QAEPAVVuEntity@@XZ ; VuListIterator::GetNext
	mov	DWORD PTR _ent$[ebp], eax

; 2957 : 		}

	jmp	$LN10@EncodeObje
$LN9@EncodeObje:

; 2958 : 	}

	mov	DWORD PTR __$EHRec$[ebp+8], -1
	lea	ecx, DWORD PTR _myit$3[ebp]
	call	??1VuListIterator@@UAE@XZ		; VuListIterator::~VuListIterator

; 2959 : 
; 2960 : 	buf = new VU_BYTE[size+1];

	mov	ecx, DWORD PTR _size$[ebp]
	add	ecx, 1
	push	ecx
	call	??_U@YAPAXI@Z				; operator new[]
	add	esp, 4
	mov	DWORD PTR $T10[ebp], eax
	mov	edx, DWORD PTR $T10[ebp]
	mov	DWORD PTR _buf$[ebp], edx

; 2961 : 	bufhead = buf;

	mov	eax, DWORD PTR _buf$[ebp]
	mov	DWORD PTR _bufhead$[ebp], eax

; 2962 : 
; 2963 : 	// Encode the data
; 2964 : 	{
; 2965 : 		VuListIterator	myit(AllObjList);

	mov	ecx, DWORD PTR ?AllObjList@@3PAVVuLinkedList@@A ; AllObjList
	push	ecx
	lea	ecx, DWORD PTR _myit$2[ebp]
	call	??0VuListIterator@@QAE@PAVVuLinkedList@@@Z ; VuListIterator::VuListIterator
	mov	DWORD PTR __$EHRec$[ebp+8], 1

; 2966 : 		ent = (CampEntity) myit.GetFirst();

	lea	ecx, DWORD PTR _myit$2[ebp]
	call	?GetFirst@VuListIterator@@QAEPAVVuEntity@@XZ ; VuListIterator::GetFirst
	mov	DWORD PTR _ent$[ebp], eax
$LN5@EncodeObje:

; 2967 : 		while (ent) 

	cmp	DWORD PTR _ent$[ebp], 0
	je	$LN4@EncodeObje

; 2968 : 		{
; 2969 : 			if (
; 2970 : 				(ent->EntityType())->classInfo_[VU_CLASS] == CLASS_OBJECTIVE &&
; 2971 : 				(!owner || ent->OwnerId() == ownerid)
; 2972 : 			){

	mov	ecx, DWORD PTR _ent$[ebp]
	call	?EntityType@VuEntity@@QBEPAUVuEntityType@@XZ ; VuEntity::EntityType
	mov	edx, 1
	shl	edx, 0
	movzx	eax, BYTE PTR [eax+edx+8]
	cmp	eax, 4
	jne	SHORT $LN3@EncodeObje
	cmp	DWORD PTR _owner$[ebp], 0
	je	SHORT $LN2@EncodeObje
	lea	ecx, DWORD PTR _ownerid$[ebp]
	push	ecx
	lea	edx, DWORD PTR $T5[ebp]
	push	edx
	mov	ecx, DWORD PTR _ent$[ebp]
	call	?OwnerId@VuEntity@@QBE?AVVU_ID@@XZ	; VuEntity::OwnerId
	mov	ecx, eax
	call	??8VU_ID@@QBE_NABV0@@Z			; VU_ID::operator==
	movzx	eax, al
	test	eax, eax
	je	SHORT $LN3@EncodeObje
$LN2@EncodeObje:

; 2973 : 				o = (Objective)ent;

	mov	ecx, DWORD PTR _ent$[ebp]
	mov	DWORD PTR _o$[ebp], ecx

; 2974 : 				if (o->HasDelta())

	mov	ecx, DWORD PTR _o$[ebp]
	call	?HasDelta@CampBaseClass@@QAEHXZ		; CampBaseClass::HasDelta
	test	eax, eax
	je	SHORT $LN3@EncodeObje

; 2975 : 				{
; 2976 : 					vuid = o->Id();

	lea	edx, DWORD PTR $T4[ebp]
	push	edx
	mov	ecx, DWORD PTR _o$[ebp]
	call	?Id@VuEntity@@QBE?AVVU_ID@@XZ		; VuEntity::Id
	mov	ecx, DWORD PTR [eax]
	mov	edx, DWORD PTR [eax+4]
	mov	DWORD PTR _vuid$[ebp], ecx
	mov	DWORD PTR _vuid$[ebp+4], edx

; 2977 : 					memcpy(buf, &vuid, sizeof(VU_ID));							buf += sizeof(VU_ID);		

	push	8
	lea	eax, DWORD PTR _vuid$[ebp]
	push	eax
	mov	ecx, DWORD PTR _buf$[ebp]
	push	ecx
	call	_memcpy
	add	esp, 12					; 0000000cH
	mov	edx, DWORD PTR _buf$[ebp]
	add	edx, 8
	mov	DWORD PTR _buf$[ebp], edx

; 2978 : 					o->Save(&buf,1);

	push	1
	lea	eax, DWORD PTR _buf$[ebp]
	push	eax
	mov	ecx, DWORD PTR _o$[ebp]
	mov	edx, DWORD PTR [ecx]
	mov	ecx, DWORD PTR _o$[ebp]
	mov	eax, DWORD PTR [edx+456]
	call	eax
$LN3@EncodeObje:

; 2979 : 				}
; 2980 : 			}
; 2981 : 			ent = (CampEntity) myit.GetNext();

	lea	ecx, DWORD PTR _myit$2[ebp]
	call	?GetNext@VuListIterator@@QAEPAVVuEntity@@XZ ; VuListIterator::GetNext
	mov	DWORD PTR _ent$[ebp], eax

; 2982 : 		}

	jmp	$LN5@EncodeObje
$LN4@EncodeObje:

; 2983 : 	}

	mov	DWORD PTR __$EHRec$[ebp+8], -1
	lea	ecx, DWORD PTR _myit$2[ebp]
	call	??1VuListIterator@@UAE@XZ		; VuListIterator::~VuListIterator

; 2984 : 
; 2985 : 	// Compress it and return
; 2986 : 	*stream = new VU_BYTE[size + sizeof(short) + sizeof(long) + MAX_POSSIBLE_OVERWRITE];

	mov	ecx, DWORD PTR _size$[ebp]
	add	ecx, 106				; 0000006aH
	push	ecx
	call	??_U@YAPAXI@Z				; operator new[]
	add	esp, 4
	mov	DWORD PTR $T9[ebp], eax
	mov	edx, DWORD PTR _stream$[ebp]
	mov	eax, DWORD PTR $T9[ebp]
	mov	DWORD PTR [edx], eax

; 2987 : 	sptr = *stream;

	mov	ecx, DWORD PTR _stream$[ebp]
	mov	edx, DWORD PTR [ecx]
	mov	DWORD PTR _sptr$[ebp], edx

; 2988 : 	memcpy(sptr, &count, sizeof(short));			sptr += sizeof(short);

	push	2
	lea	eax, DWORD PTR _count$[ebp]
	push	eax
	mov	ecx, DWORD PTR _sptr$[ebp]
	push	ecx
	call	_memcpy
	add	esp, 12					; 0000000cH
	mov	edx, DWORD PTR _sptr$[ebp]
	add	edx, 2
	mov	DWORD PTR _sptr$[ebp], edx

; 2989 : 	memcpy(sptr, &size, sizeof(long));				sptr += sizeof(long);

	push	4
	lea	eax, DWORD PTR _size$[ebp]
	push	eax
	mov	ecx, DWORD PTR _sptr$[ebp]
	push	ecx
	call	_memcpy
	add	esp, 12					; 0000000cH
	mov	edx, DWORD PTR _sptr$[ebp]
	add	edx, 4
	mov	DWORD PTR _sptr$[ebp], edx

; 2990 : 	buf = bufhead;

	mov	eax, DWORD PTR _bufhead$[ebp]
	mov	DWORD PTR _buf$[ebp], eax

; 2991 : 	newsize = LZSS_Compress(buf, sptr, size);

	mov	ecx, DWORD PTR _size$[ebp]
	push	ecx
	mov	edx, DWORD PTR _sptr$[ebp]
	push	edx
	mov	eax, DWORD PTR _buf$[ebp]
	push	eax
	call	_LZSS_Compress
	add	esp, 12					; 0000000cH
	mov	DWORD PTR _newsize$[ebp], eax

; 2992 : 	delete bufhead;

	mov	ecx, DWORD PTR _bufhead$[ebp]
	mov	DWORD PTR $T8[ebp], ecx
	mov	edx, DWORD PTR $T8[ebp]
	push	edx
	call	??3@YAXPAX@Z				; operator delete
	add	esp, 4

; 2993 : 
; 2994 : 	return newsize + sizeof(short) + sizeof(long);

	mov	eax, DWORD PTR _newsize$[ebp]
	add	eax, 6

; 2995 : }

	mov	ecx, DWORD PTR __$EHRec$[ebp]
	mov	DWORD PTR fs:0, ecx
	pop	ecx
	mov	esp, ebp
	pop	ebp
	ret	0
_TEXT	ENDS
text$x	SEGMENT
__unwindfunclet$?EncodeObjectiveDeltas@@YAHPAPAEPAVFalconSessionEntity@@@Z$0:
	lea	ecx, DWORD PTR _myit$3[ebp]
	jmp	??1VuListIterator@@UAE@XZ		; VuListIterator::~VuListIterator
__unwindfunclet$?EncodeObjectiveDeltas@@YAHPAPAEPAVFalconSessionEntity@@@Z$1:
	lea	ecx, DWORD PTR _myit$2[ebp]
	jmp	??1VuListIterator@@UAE@XZ		; VuListIterator::~VuListIterator
__ehhandler$?EncodeObjectiveDeltas@@YAHPAPAEPAVFalconSessionEntity@@@Z:
	mov	edx, DWORD PTR [esp+8]
	lea	eax, DWORD PTR [edx+12]
	mov	ecx, DWORD PTR [edx-120]
	xor	ecx, eax
	call	@__security_check_cookie@4
	mov	eax, OFFSET __ehfuncinfo$?EncodeObjectiveDeltas@@YAHPAPAEPAVFalconSessionEntity@@@Z
	jmp	___CxxFrameHandler3
text$x	ENDS
?EncodeObjectiveDeltas@@YAHPAPAEPAVFalconSessionEntity@@@Z ENDP ; EncodeObjectiveDeltas
; Function compile flags: /Odtp
; File c:\users\zhitao li\documents\visual studio 2012\projects\freefalcon\campaign\camplib\objectiv.cpp
_TEXT	SEGMENT
_fit$ = -136						; size = 60
$T2 = -76						; size = 8
$T3 = -68						; size = 8
$T4 = -60						; size = 8
_vuid$ = -52						; size = 8
$T5 = -44						; size = 4
tv160 = -40						; size = 4
$T6 = -36						; size = 4
tv156 = -32						; size = 4
_f$7 = -28						; size = 4
_unit$ = -24						; size = 4
_newEvent$ = -20					; size = 4
_newown$ = -13						; size = 1
__$EHRec$ = -12						; size = 12
_co$ = 8						; size = 4
_who$ = 12						; size = 1
_u$ = 16						; size = 4
?CaptureObjective@@YAXPAVObjectiveClass@@EPAVUnitClass@@@Z PROC ; CaptureObjective

; 2860 : {

	push	ebp
	mov	ebp, esp
	push	-1
	push	__ehhandler$?CaptureObjective@@YAXPAVObjectiveClass@@EPAVUnitClass@@@Z
	mov	eax, DWORD PTR fs:0
	push	eax
	sub	esp, 124				; 0000007cH
	push	esi
	mov	eax, DWORD PTR ___security_cookie
	xor	eax, ebp
	push	eax
	lea	eax, DWORD PTR __$EHRec$[ebp]
	mov	DWORD PTR fs:0, eax

; 2861 : 	FalconCampEventMessage	*newEvent;
; 2862 : 	VU_ID					vuid;

	lea	ecx, DWORD PTR _vuid$[ebp]
	call	??0VU_ID@@QAE@XZ			; VU_ID::VU_ID

; 2863 : 	Team					newown;
; 2864 : 	Unit					unit;
; 2865 : #ifdef VU_GRID_TREE_Y_MAJOR
; 2866 : 	VuGridIterator			fit(RealUnitProxList,co->YPos(),co->XPos(),5000.0F);

	push	ecx
	movss	xmm0, DWORD PTR __real@459c4000
	movss	DWORD PTR [esp], xmm0
	mov	ecx, DWORD PTR _co$[ebp]
	call	?XPos@VuEntity@@QBEMXZ			; VuEntity::XPos
	push	ecx
	fstp	DWORD PTR [esp]
	mov	ecx, DWORD PTR _co$[ebp]
	call	?YPos@VuEntity@@QBEMXZ			; VuEntity::YPos
	push	ecx
	fstp	DWORD PTR [esp]
	mov	eax, DWORD PTR ?RealUnitProxList@@3PAVVuGridTree@@A ; RealUnitProxList
	push	eax
	lea	ecx, DWORD PTR _fit$[ebp]
	call	??0VuGridIterator@@QAE@PAVVuGridTree@@MMM@Z ; VuGridIterator::VuGridIterator
	mov	DWORD PTR __$EHRec$[ebp+8], 0

; 2867 : #else
; 2868 : 	VuGridIterator			fit(RealUnitProxList,co->XPos(),co->YPos(),5000.0F);
; 2869 : #endif
; 2870 : 
; 2871 : 	if (u){

	cmp	DWORD PTR _u$[ebp], 0
	je	SHORT $LN13@CaptureObj

; 2872 : 		vuid = u->Id();

	lea	ecx, DWORD PTR $T4[ebp]
	push	ecx
	mov	ecx, DWORD PTR _u$[ebp]
	call	?Id@VuEntity@@QBE?AVVU_ID@@XZ		; VuEntity::Id
	mov	edx, DWORD PTR [eax]
	mov	eax, DWORD PTR [eax+4]
	mov	DWORD PTR _vuid$[ebp], edx
	mov	DWORD PTR _vuid$[ebp+4], eax

; 2873 : 	}
; 2874 : 	else{

	jmp	SHORT $LN12@CaptureObj
$LN13@CaptureObj:

; 2875 : 		vuid = co->Id();

	lea	ecx, DWORD PTR $T3[ebp]
	push	ecx
	mov	ecx, DWORD PTR _co$[ebp]
	call	?Id@VuEntity@@QBE?AVVU_ID@@XZ		; VuEntity::Id
	mov	edx, DWORD PTR [eax]
	mov	eax, DWORD PTR [eax+4]
	mov	DWORD PTR _vuid$[ebp], edx
	mov	DWORD PTR _vuid$[ebp+4], eax
$LN12@CaptureObj:

; 2876 : 	}
; 2877 : 
; 2878 : 	newEvent = new FalconCampEventMessage(vuid, FalconLocalGame);

	push	100					; 00000064H
	call	??2@YAPAXI@Z				; operator new
	add	esp, 4
	mov	DWORD PTR $T6[ebp], eax
	mov	BYTE PTR __$EHRec$[ebp+8], 1
	cmp	DWORD PTR $T6[ebp], 0
	je	SHORT $LN18@CaptureObj
	mov	ecx, OFFSET ?vuLocalSessionEntity@@3V?$VuBin@VVuSessionEntity@@@@A ; vuLocalSessionEntity
	call	??B?$VuBin@VVuSessionEntity@@@@QBE_NXZ	; VuBin<VuSessionEntity>::operator bool
	movzx	ecx, al
	test	ecx, ecx
	je	SHORT $LN16@CaptureObj
	mov	ecx, OFFSET ?vuLocalSessionEntity@@3V?$VuBin@VVuSessionEntity@@@@A ; vuLocalSessionEntity
	call	?get@?$VuBin@VVuSessionEntity@@@@QBEPAVVuSessionEntity@@XZ ; VuBin<VuSessionEntity>::get
	mov	ecx, eax
	call	?GetGame@FalconSessionEntity@@QAEPAVFalconGameEntity@@XZ ; FalconSessionEntity::GetGame
	mov	DWORD PTR tv156[ebp], eax
	jmp	SHORT $LN17@CaptureObj
$LN16@CaptureObj:
	mov	DWORD PTR tv156[ebp], 0
$LN17@CaptureObj:
	push	1
	mov	edx, DWORD PTR tv156[ebp]
	push	edx
	mov	eax, DWORD PTR _vuid$[ebp+4]
	push	eax
	mov	ecx, DWORD PTR _vuid$[ebp]
	push	ecx
	mov	ecx, DWORD PTR $T6[ebp]
	call	??0FalconCampEventMessage@@QAE@VVU_ID@@PAVVuTargetEntity@@E@Z ; FalconCampEventMessage::FalconCampEventMessage
	mov	DWORD PTR tv160[ebp], eax
	jmp	SHORT $LN19@CaptureObj
$LN18@CaptureObj:
	mov	DWORD PTR tv160[ebp], 0
$LN19@CaptureObj:
	mov	edx, DWORD PTR tv160[ebp]
	mov	DWORD PTR $T5[ebp], edx
	mov	BYTE PTR __$EHRec$[ebp+8], 0
	mov	eax, DWORD PTR $T5[ebp]
	mov	DWORD PTR _newEvent$[ebp], eax

; 2879 : 	if (!GetRoE(GetTeam(who),GetTeam(co->GetObjectiveOldown()),ROE_GROUND_CAPTURE))

	push	3
	mov	ecx, DWORD PTR _co$[ebp]
	call	?GetObjectiveOldown@ObjectiveClass@@QAEEXZ ; ObjectiveClass::GetObjectiveOldown
	movzx	ecx, al
	push	ecx
	call	?GetTeam@@YAEE@Z			; GetTeam
	add	esp, 4
	movzx	edx, al
	push	edx
	movzx	eax, BYTE PTR _who$[ebp]
	push	eax
	call	?GetTeam@@YAEE@Z			; GetTeam
	add	esp, 4
	movzx	ecx, al
	push	ecx
	call	?GetRoE@@YAHEEH@Z			; GetRoE
	add	esp, 12					; 0000000cH
	test	eax, eax
	jne	SHORT $LN11@CaptureObj

; 2880 : 	{
; 2881 : 		newown = ::GetTeam(co->GetObjectiveOldown());

	mov	ecx, DWORD PTR _co$[ebp]
	call	?GetObjectiveOldown@ObjectiveClass@@QAEEXZ ; ObjectiveClass::GetObjectiveOldown
	movzx	edx, al
	push	edx
	call	?GetTeam@@YAEE@Z			; GetTeam
	add	esp, 4
	mov	BYTE PTR _newown$[ebp], al

; 2882 : 		newEvent->dataBlock.data.formatId = 1831;

	mov	eax, 1831				; 00000727H
	mov	ecx, DWORD PTR _newEvent$[ebp]
	mov	WORD PTR [ecx+56], ax

; 2883 : 	}
; 2884 : 	else

	jmp	SHORT $LN10@CaptureObj
$LN11@CaptureObj:

; 2885 : 	{
; 2886 : 		newown = ::GetTeam(who);

	movzx	edx, BYTE PTR _who$[ebp]
	push	edx
	call	?GetTeam@@YAEE@Z			; GetTeam
	add	esp, 4
	mov	BYTE PTR _newown$[ebp], al

; 2887 : 		newEvent->dataBlock.data.formatId = 1830;

	mov	eax, 1830				; 00000726H
	mov	ecx, DWORD PTR _newEvent$[ebp]
	mov	WORD PTR [ecx+56], ax
$LN10@CaptureObj:

; 2888 : 	}
; 2889 : 	co->SetDelta(1);

	push	1
	mov	ecx, DWORD PTR _co$[ebp]
	call	?SetDelta@CampBaseClass@@QAEXH@Z	; CampBaseClass::SetDelta

; 2890 : 	co->SendObjMessage(vuid,FalconObjectiveMessage::objCaptured,newown,0,0);

	push	0
	push	0
	movzx	dx, BYTE PTR _newown$[ebp]
	movzx	eax, dx
	push	eax
	push	0
	mov	ecx, DWORD PTR _vuid$[ebp+4]
	push	ecx
	mov	edx, DWORD PTR _vuid$[ebp]
	push	edx
	mov	ecx, DWORD PTR _co$[ebp]
	call	?SendObjMessage@ObjectiveClass@@QAEXVVU_ID@@FFFF@Z ; ObjectiveClass::SendObjMessage

; 2891 : 	newEvent->dataBlock.team = GetTeam(who);

	movzx	eax, BYTE PTR _who$[ebp]
	push	eax
	call	?GetTeam@@YAEE@Z			; GetTeam
	add	esp, 4
	mov	ecx, DWORD PTR _newEvent$[ebp]
	mov	BYTE PTR [ecx+53], al

; 2892 : 	newEvent->dataBlock.eventType = FalconCampEventMessage::objectiveCaptured;

	mov	edx, DWORD PTR _newEvent$[ebp]
	mov	DWORD PTR [edx+48], 8

; 2893 : 	co->GetLocation(&newEvent->dataBlock.data.xLoc,&newEvent->dataBlock.data.yLoc);

	mov	eax, DWORD PTR _newEvent$[ebp]
	add	eax, 60					; 0000003cH
	push	eax
	mov	ecx, DWORD PTR _newEvent$[ebp]
	add	ecx, 58					; 0000003aH
	push	ecx
	mov	ecx, DWORD PTR _co$[ebp]
	call	?GetLocation@FalconEntity@@QBEXPAF0@Z	; FalconEntity::GetLocation

; 2894 : 	newEvent->dataBlock.data.vuIds[0] = co->Id();

	lea	edx, DWORD PTR $T2[ebp]
	push	edx
	mov	ecx, DWORD PTR _co$[ebp]
	call	?Id@VuEntity@@QBE?AVVU_ID@@XZ		; VuEntity::Id
	mov	ecx, DWORD PTR [eax]
	mov	edx, DWORD PTR [eax+4]
	mov	eax, 8
	imul	eax, 0
	mov	esi, DWORD PTR _newEvent$[ebp]
	mov	DWORD PTR [esi+eax+64], ecx
	mov	DWORD PTR [esi+eax+68], edx

; 2895 : 	newEvent->dataBlock.data.owners[0] = who;

	movzx	cx, BYTE PTR _who$[ebp]
	mov	edx, 2
	imul	edx, 0
	mov	eax, DWORD PTR _newEvent$[ebp]
	mov	WORD PTR [eax+edx+80], cx

; 2896 : 	newEvent->dataBlock.data.owners[1] = newown;

	movzx	cx, BYTE PTR _newown$[ebp]
	mov	edx, 2
	shl	edx, 0
	mov	eax, DWORD PTR _newEvent$[ebp]
	mov	WORD PTR [eax+edx+80], cx

; 2897 : 	SendCampUIMessage(newEvent);

	mov	ecx, DWORD PTR _newEvent$[ebp]
	push	ecx
	call	?SendCampUIMessage@@YAXPAVFalconCampEventMessage@@@Z ; SendCampUIMessage
	add	esp, 4

; 2898 : 
; 2899 : 	// sfr: we should check if this is an airbase.
; 2900 : 	if ((co->GetType() == TYPE_AIRBASE) || (co->GetType() == TYPE_AIRSTRIP)){

	mov	ecx, DWORD PTR _co$[ebp]
	call	?GetType@CampBaseClass@@QBEEXZ		; CampBaseClass::GetType
	movzx	edx, al
	cmp	edx, 1
	je	SHORT $LN8@CaptureObj
	mov	ecx, DWORD PTR _co$[ebp]
	call	?GetType@CampBaseClass@@QBEEXZ		; CampBaseClass::GetType
	movzx	eax, al
	cmp	eax, 2
	jne	$LN5@CaptureObj
$LN8@CaptureObj:

; 2901 : 		// if it is, we should remove all flights belonging to it which hav not taken off
; 2902 : 		// Now remove any enemy flights which are based here and have not taken off yet
; 2903 : 		for (unit = (Unit) fit.GetFirst(); (unit != NULL); unit = (Unit) fit.GetNext()){

	lea	ecx, DWORD PTR _fit$[ebp]
	call	?GetFirst@VuGridIterator@@QAEPAVVuEntity@@XZ ; VuGridIterator::GetFirst
	mov	DWORD PTR _unit$[ebp], eax
	jmp	SHORT $LN7@CaptureObj
$LN6@CaptureObj:
	lea	ecx, DWORD PTR _fit$[ebp]
	call	?GetNext@VuGridIterator@@QAEPAVVuEntity@@XZ ; VuGridIterator::GetNext
	mov	DWORD PTR _unit$[ebp], eax
$LN7@CaptureObj:
	cmp	DWORD PTR _unit$[ebp], 0
	je	$LN5@CaptureObj

; 2904 : 			FlightClass *f;
; 2905 : 			if ((unit == NULL) || (!unit->IsFlight())){

	cmp	DWORD PTR _unit$[ebp], 0
	je	SHORT $LN3@CaptureObj
	mov	ecx, DWORD PTR _unit$[ebp]
	mov	edx, DWORD PTR [ecx]
	mov	ecx, DWORD PTR _unit$[ebp]
	mov	eax, DWORD PTR [edx+248]
	call	eax
	test	eax, eax
	jne	SHORT $LN4@CaptureObj
$LN3@CaptureObj:

; 2906 : 				continue;

	jmp	SHORT $LN6@CaptureObj
$LN4@CaptureObj:

; 2907 : 			}
; 2908 : 			f = (FlightClass*)unit;

	mov	ecx, DWORD PTR _unit$[ebp]
	mov	DWORD PTR _f$7[ebp], ecx

; 2909 : 			if (
; 2910 : 				(GetRoE(newown,unit->GetTeam(),ROE_GROUND_CAPTURE) == ROE_ALLOWED) &&
; 2911 : 				(f->GetUnitAirbase() == co) && 
; 2912 : 				((f->GetCurrentUnitWP() == NULL) || (f->GetCurrentUnitWP()->GetWPAction() == WP_TAKEOFF)) &&
; 2913 : 				(f->IsAggregate())
; 2914 : 			){

	push	3
	mov	edx, DWORD PTR _unit$[ebp]
	mov	eax, DWORD PTR [edx]
	mov	ecx, DWORD PTR _unit$[ebp]
	mov	edx, DWORD PTR [eax+116]
	call	edx
	movzx	eax, al
	push	eax
	movzx	ecx, BYTE PTR _newown$[ebp]
	push	ecx
	call	?GetRoE@@YAHEEH@Z			; GetRoE
	add	esp, 12					; 0000000cH
	cmp	eax, 1
	jne	SHORT $LN2@CaptureObj
	mov	edx, DWORD PTR _f$7[ebp]
	mov	eax, DWORD PTR [edx]
	mov	ecx, DWORD PTR _f$7[ebp]
	mov	edx, DWORD PTR [eax+704]
	call	edx
	cmp	eax, DWORD PTR _co$[ebp]
	jne	SHORT $LN2@CaptureObj
	mov	ecx, DWORD PTR _f$7[ebp]
	call	?GetCurrentUnitWP@UnitClass@@QBEPAVWayPointClass@@XZ ; UnitClass::GetCurrentUnitWP
	test	eax, eax
	je	SHORT $LN1@CaptureObj
	mov	ecx, DWORD PTR _f$7[ebp]
	call	?GetCurrentUnitWP@UnitClass@@QBEPAVWayPointClass@@XZ ; UnitClass::GetCurrentUnitWP
	mov	ecx, eax
	call	?GetWPAction@WayPointClass@@QAEHXZ	; WayPointClass::GetWPAction
	cmp	eax, 1
	jne	SHORT $LN2@CaptureObj
$LN1@CaptureObj:
	mov	ecx, DWORD PTR _f$7[ebp]
	call	?IsAggregate@CampBaseClass@@QAEHXZ	; CampBaseClass::IsAggregate
	test	eax, eax
	je	SHORT $LN2@CaptureObj

; 2915 : 				//sfr: placed CancelFlight back and agged check
; 2916 : 				CancelFlight((Flight)unit);

	mov	eax, DWORD PTR _unit$[ebp]
	push	eax
	call	?CancelFlight@@YAXPAVFlightClass@@@Z	; CancelFlight
	add	esp, 4
$LN2@CaptureObj:

; 2917 : 			}
; 2918 : 		}	

	jmp	$LN6@CaptureObj
$LN5@CaptureObj:

; 2919 : 	}
; 2920 : }

	mov	DWORD PTR __$EHRec$[ebp+8], -1
	lea	ecx, DWORD PTR _fit$[ebp]
	call	??1VuGridIterator@@UAE@XZ		; VuGridIterator::~VuGridIterator
	mov	ecx, DWORD PTR __$EHRec$[ebp]
	mov	DWORD PTR fs:0, ecx
	pop	ecx
	pop	esi
	mov	esp, ebp
	pop	ebp
	ret	0
_TEXT	ENDS
text$x	SEGMENT
__unwindfunclet$?CaptureObjective@@YAXPAVObjectiveClass@@EPAVUnitClass@@@Z$0:
	lea	ecx, DWORD PTR _fit$[ebp]
	jmp	??1VuGridIterator@@UAE@XZ		; VuGridIterator::~VuGridIterator
__unwindfunclet$?CaptureObjective@@YAXPAVObjectiveClass@@EPAVUnitClass@@@Z$1:
	mov	eax, DWORD PTR $T6[ebp]
	push	eax
	call	??3@YAXPAX@Z				; operator delete
	pop	ecx
	ret	0
__ehhandler$?CaptureObjective@@YAXPAVObjectiveClass@@EPAVUnitClass@@@Z:
	mov	edx, DWORD PTR [esp+8]
	lea	eax, DWORD PTR [edx+12]
	mov	ecx, DWORD PTR [edx-132]
	xor	ecx, eax
	call	@__security_check_cookie@4
	mov	eax, OFFSET __ehfuncinfo$?CaptureObjective@@YAXPAVObjectiveClass@@EPAVUnitClass@@@Z
	jmp	___CxxFrameHandler3
text$x	ENDS
?CaptureObjective@@YAXPAVObjectiveClass@@EPAVUnitClass@@@Z ENDP ; CaptureObjective
; Function compile flags: /Odtp
; File c:\users\zhitao li\documents\visual studio 2012\projects\freefalcon\campaign\camplib\objectiv.cpp
_TEXT	SEGMENT
_e$ = -4						; size = 4
_l$ = 8							; size = 4
?GetNextObjective@@YAPAVObjectiveClass@@PAVVuGridIterator@@@Z PROC ; GetNextObjective

; 2842 : {

	push	ebp
	mov	ebp, esp
	push	ecx

; 2843 : 	VuEntity*	e;
; 2844 : 
; 2845 : 	e = l->GetNext();

	mov	ecx, DWORD PTR _l$[ebp]
	call	?GetNext@VuGridIterator@@QAEPAVVuEntity@@XZ ; VuGridIterator::GetNext
	mov	DWORD PTR _e$[ebp], eax
$LN3@GetNextObj:

; 2846 : 	while (e)

	cmp	DWORD PTR _e$[ebp], 0
	je	SHORT $LN2@GetNextObj

; 2847 : 	{
; 2848 : 		if (GetEntityClass(e) == CLASS_OBJECTIVE)

	mov	eax, DWORD PTR _e$[ebp]
	push	eax
	call	?GetEntityClass@@YAFPAVVuEntity@@@Z	; GetEntityClass
	add	esp, 4
	movsx	ecx, ax
	cmp	ecx, 4
	jne	SHORT $LN1@GetNextObj

; 2849 : 			return (Objective)e;

	mov	eax, DWORD PTR _e$[ebp]
	jmp	SHORT $LN4@GetNextObj
$LN1@GetNextObj:

; 2850 : 		e = l->GetNext();

	mov	ecx, DWORD PTR _l$[ebp]
	call	?GetNext@VuGridIterator@@QAEPAVVuEntity@@XZ ; VuGridIterator::GetNext
	mov	DWORD PTR _e$[ebp], eax

; 2851 : 	}

	jmp	SHORT $LN3@GetNextObj
$LN2@GetNextObj:

; 2852 : 	return NULL;

	xor	eax, eax
$LN4@GetNextObj:

; 2853 : }

	mov	esp, ebp
	pop	ebp
	ret	0
?GetNextObjective@@YAPAVObjectiveClass@@PAVVuGridIterator@@@Z ENDP ; GetNextObjective
_TEXT	ENDS
; Function compile flags: /Odtp
; File c:\users\zhitao li\documents\visual studio 2012\projects\freefalcon\campaign\camplib\objectiv.cpp
_TEXT	SEGMENT
_e$ = -4						; size = 4
_l$ = 8							; size = 4
?GetFirstObjective@@YAPAVObjectiveClass@@PAVVuGridIterator@@@Z PROC ; GetFirstObjective

; 2828 : {

	push	ebp
	mov	ebp, esp
	push	ecx

; 2829 : 	VuEntity*	e;
; 2830 : 
; 2831 : 	e = l->GetFirst();

	mov	ecx, DWORD PTR _l$[ebp]
	call	?GetFirst@VuGridIterator@@QAEPAVVuEntity@@XZ ; VuGridIterator::GetFirst
	mov	DWORD PTR _e$[ebp], eax
$LN3@GetFirstOb:

; 2832 : 	while (e)

	cmp	DWORD PTR _e$[ebp], 0
	je	SHORT $LN2@GetFirstOb

; 2833 : 	{
; 2834 : 		if (GetEntityClass(e) == CLASS_OBJECTIVE)

	mov	eax, DWORD PTR _e$[ebp]
	push	eax
	call	?GetEntityClass@@YAFPAVVuEntity@@@Z	; GetEntityClass
	add	esp, 4
	movsx	ecx, ax
	cmp	ecx, 4
	jne	SHORT $LN1@GetFirstOb

; 2835 : 			return (Objective)e;

	mov	eax, DWORD PTR _e$[ebp]
	jmp	SHORT $LN4@GetFirstOb
$LN1@GetFirstOb:

; 2836 : 		e = l->GetNext();

	mov	ecx, DWORD PTR _l$[ebp]
	call	?GetNext@VuGridIterator@@QAEPAVVuEntity@@XZ ; VuGridIterator::GetNext
	mov	DWORD PTR _e$[ebp], eax

; 2837 : 	}

	jmp	SHORT $LN3@GetFirstOb
$LN2@GetFirstOb:

; 2838 : 	return NULL;

	xor	eax, eax
$LN4@GetFirstOb:

; 2839 : }

	mov	esp, ebp
	pop	ebp
	ret	0
?GetFirstObjective@@YAPAVObjectiveClass@@PAVVuGridIterator@@@Z ENDP ; GetFirstObjective
_TEXT	ENDS
; Function compile flags: /Odtp
; File c:\users\zhitao li\documents\visual studio 2012\projects\freefalcon\campaign\camplib\objectiv.cpp
_TEXT	SEGMENT
_e$ = -4						; size = 4
_l$ = 8							; size = 4
?GetNextObjective@@YAPAVObjectiveClass@@PAVVuListIterator@@@Z PROC ; GetNextObjective

; 2814 : {

	push	ebp
	mov	ebp, esp
	push	ecx

; 2815 : 	VuEntity*	e;
; 2816 : 
; 2817 : 	e = l->GetNext();

	mov	ecx, DWORD PTR _l$[ebp]
	call	?GetNext@VuListIterator@@QAEPAVVuEntity@@XZ ; VuListIterator::GetNext
	mov	DWORD PTR _e$[ebp], eax
$LN3@GetNextObj:

; 2818 : 	while (e)

	cmp	DWORD PTR _e$[ebp], 0
	je	SHORT $LN2@GetNextObj

; 2819 : 	{
; 2820 : 		if (GetEntityClass(e) == CLASS_OBJECTIVE)

	mov	eax, DWORD PTR _e$[ebp]
	push	eax
	call	?GetEntityClass@@YAFPAVVuEntity@@@Z	; GetEntityClass
	add	esp, 4
	movsx	ecx, ax
	cmp	ecx, 4
	jne	SHORT $LN1@GetNextObj

; 2821 : 			return (Objective)e;

	mov	eax, DWORD PTR _e$[ebp]
	jmp	SHORT $LN4@GetNextObj
$LN1@GetNextObj:

; 2822 : 		e = l->GetNext();

	mov	ecx, DWORD PTR _l$[ebp]
	call	?GetNext@VuListIterator@@QAEPAVVuEntity@@XZ ; VuListIterator::GetNext
	mov	DWORD PTR _e$[ebp], eax

; 2823 : 	}

	jmp	SHORT $LN3@GetNextObj
$LN2@GetNextObj:

; 2824 : 	return NULL;

	xor	eax, eax
$LN4@GetNextObj:

; 2825 : }

	mov	esp, ebp
	pop	ebp
	ret	0
?GetNextObjective@@YAPAVObjectiveClass@@PAVVuListIterator@@@Z ENDP ; GetNextObjective
_TEXT	ENDS
; Function compile flags: /Odtp
; File c:\users\zhitao li\documents\visual studio 2012\projects\freefalcon\campaign\camplib\objectiv.cpp
_TEXT	SEGMENT
_e$ = -4						; size = 4
_l$ = 8							; size = 4
?GetFirstObjective@@YAPAVObjectiveClass@@PAVVuListIterator@@@Z PROC ; GetFirstObjective

; 2800 : {

	push	ebp
	mov	ebp, esp
	push	ecx

; 2801 : 	VuEntity*	e;
; 2802 : 
; 2803 : 	e = l->GetFirst();

	mov	ecx, DWORD PTR _l$[ebp]
	call	?GetFirst@VuListIterator@@QAEPAVVuEntity@@XZ ; VuListIterator::GetFirst
	mov	DWORD PTR _e$[ebp], eax
$LN3@GetFirstOb:

; 2804 : 	while (e)

	cmp	DWORD PTR _e$[ebp], 0
	je	SHORT $LN2@GetFirstOb

; 2805 : 	{
; 2806 : 		if (GetEntityClass(e) == CLASS_OBJECTIVE)

	mov	eax, DWORD PTR _e$[ebp]
	push	eax
	call	?GetEntityClass@@YAFPAVVuEntity@@@Z	; GetEntityClass
	add	esp, 4
	movsx	ecx, ax
	cmp	ecx, 4
	jne	SHORT $LN1@GetFirstOb

; 2807 : 			return (Objective)e;

	mov	eax, DWORD PTR _e$[ebp]
	jmp	SHORT $LN4@GetFirstOb
$LN1@GetFirstOb:

; 2808 : 		e = l->GetNext();

	mov	ecx, DWORD PTR _l$[ebp]
	call	?GetNext@VuListIterator@@QAEPAVVuEntity@@XZ ; VuListIterator::GetNext
	mov	DWORD PTR _e$[ebp], eax

; 2809 : 	}

	jmp	SHORT $LN3@GetFirstOb
$LN2@GetFirstOb:

; 2810 : 	return NULL;

	xor	eax, eax
$LN4@GetFirstOb:

; 2811 : }

	mov	esp, ebp
	pop	ebp
	ret	0
?GetFirstObjective@@YAPAVObjectiveClass@@PAVVuListIterator@@@Z ENDP ; GetFirstObjective
_TEXT	ENDS
; Function compile flags: /Odtp
; File c:\users\zhitao li\documents\visual studio 2012\projects\freefalcon\campaign\camplib\objectiv.cpp
_TEXT	SEGMENT
$T2 = -28						; size = 4
tv80 = -24						; size = 4
$T3 = -20						; size = 4
_list$ = -16						; size = 4
__$EHRec$ = -12						; size = 12
_o$ = 8							; size = 4
_maxdist$ = 12						; size = 4
_flags$ = 16						; size = 4
?GetChildObjectives@@YAPAVFalconPrivateList@@PAVObjectiveClass@@HH@Z PROC ; GetChildObjectives

; 2785 : {

	push	ebp
	mov	ebp, esp
	push	-1
	push	__ehhandler$?GetChildObjectives@@YAPAVFalconPrivateList@@PAVObjectiveClass@@HH@Z
	mov	eax, DWORD PTR fs:0
	push	eax
	sub	esp, 16					; 00000010H
	mov	eax, DWORD PTR ___security_cookie
	xor	eax, ebp
	push	eax
	lea	eax, DWORD PTR __$EHRec$[ebp]
	mov	DWORD PTR fs:0, eax

; 2786 : 	F4PFList	list;
; 2787 : 
; 2788 : 	if (!o)

	cmp	DWORD PTR _o$[ebp], 0
	jne	SHORT $LN2@GetChildOb

; 2789 : 		return NULL;

	xor	eax, eax
	jmp	$LN3@GetChildOb
$LN2@GetChildOb:

; 2790 : 	memset(CampSearch,0,MAX_CAMP_ENTITIES);

	push	28000					; 00006d60H
	push	0
	push	OFFSET ?CampSearch@@3PAEA		; CampSearch
	call	_memset
	add	esp, 12					; 0000000cH

; 2791 : 	list = new FalconPrivateList(&AllObjFilter);

	push	24					; 00000018H
	call	??2@YAPAXI@Z				; operator new
	add	esp, 4
	mov	DWORD PTR $T3[ebp], eax
	mov	DWORD PTR __$EHRec$[ebp+8], 0
	cmp	DWORD PTR $T3[ebp], 0
	je	SHORT $LN5@GetChildOb
	push	OFFSET ?AllObjFilter@@3VObjFilter@@A	; AllObjFilter
	mov	ecx, DWORD PTR $T3[ebp]
	call	??0FalconPrivateList@@QAE@PAVVuFilter@@@Z ; FalconPrivateList::FalconPrivateList
	mov	DWORD PTR tv80[ebp], eax
	jmp	SHORT $LN6@GetChildOb
$LN5@GetChildOb:
	mov	DWORD PTR tv80[ebp], 0
$LN6@GetChildOb:
	mov	eax, DWORD PTR tv80[ebp]
	mov	DWORD PTR $T2[ebp], eax
	mov	DWORD PTR __$EHRec$[ebp+8], -1
	mov	ecx, DWORD PTR $T2[ebp]
	mov	DWORD PTR _list$[ebp], ecx

; 2792 : 	if (!list)

	cmp	DWORD PTR _list$[ebp], 0
	jne	SHORT $LN1@GetChildOb

; 2793 : 		return NULL;

	xor	eax, eax
	jmp	SHORT $LN3@GetChildOb
$LN1@GetChildOb:

; 2794 : 	list->Register();

	mov	ecx, DWORD PTR _list$[ebp]
	call	?Register@VuCollection@@QAEXXZ		; VuCollection::Register

; 2795 : 	AddChildObjectives(o,o,list,maxdist,0,flags);

	mov	edx, DWORD PTR _flags$[ebp]
	push	edx
	push	0
	mov	eax, DWORD PTR _maxdist$[ebp]
	push	eax
	mov	ecx, DWORD PTR _list$[ebp]
	push	ecx
	mov	edx, DWORD PTR _o$[ebp]
	push	edx
	mov	eax, DWORD PTR _o$[ebp]
	push	eax
	call	?AddChildObjectives@@YAXPAVObjectiveClass@@0PAVFalconPrivateList@@HHH@Z ; AddChildObjectives
	add	esp, 24					; 00000018H

; 2796 : 	return list;

	mov	eax, DWORD PTR _list$[ebp]
$LN3@GetChildOb:

; 2797 : }

	mov	ecx, DWORD PTR __$EHRec$[ebp]
	mov	DWORD PTR fs:0, ecx
	pop	ecx
	mov	esp, ebp
	pop	ebp
	ret	0
_TEXT	ENDS
text$x	SEGMENT
__unwindfunclet$?GetChildObjectives@@YAPAVFalconPrivateList@@PAVObjectiveClass@@HH@Z$0:
	mov	eax, DWORD PTR $T3[ebp]
	push	eax
	call	??3@YAXPAX@Z				; operator delete
	pop	ecx
	ret	0
__ehhandler$?GetChildObjectives@@YAPAVFalconPrivateList@@PAVObjectiveClass@@HH@Z:
	mov	edx, DWORD PTR [esp+8]
	lea	eax, DWORD PTR [edx+12]
	mov	ecx, DWORD PTR [edx-20]
	xor	ecx, eax
	call	@__security_check_cookie@4
	mov	eax, OFFSET __ehfuncinfo$?GetChildObjectives@@YAPAVFalconPrivateList@@PAVObjectiveClass@@HH@Z
	jmp	___CxxFrameHandler3
text$x	ENDS
?GetChildObjectives@@YAPAVFalconPrivateList@@PAVObjectiveClass@@HH@Z ENDP ; GetChildObjectives
; Function compile flags: /Odtp
; File c:\users\zhitao li\documents\visual studio 2012\projects\freefalcon\campaign\camplib\objectiv.cpp
_TEXT	SEGMENT
_myit$ = -28						; size = 12
_o$ = -16						; size = 4
__$EHRec$ = -12						; size = 12
?RepairObjectives@@YAXXZ PROC				; RepairObjectives

; 2747 : {

	push	ebp
	mov	ebp, esp
	push	-1
	push	__ehhandler$?RepairObjectives@@YAXXZ
	mov	eax, DWORD PTR fs:0
	push	eax
	sub	esp, 16					; 00000010H
	mov	eax, DWORD PTR ___security_cookie
	xor	eax, ebp
	push	eax
	lea	eax, DWORD PTR __$EHRec$[ebp]
	mov	DWORD PTR fs:0, eax

; 2748 : 	Objective      o;
; 2749 : 	VuListIterator	myit(AllObjList);

	mov	eax, DWORD PTR ?AllObjList@@3PAVVuLinkedList@@A ; AllObjList
	push	eax
	lea	ecx, DWORD PTR _myit$[ebp]
	call	??0VuListIterator@@QAE@PAVVuLinkedList@@@Z ; VuListIterator::VuListIterator
	mov	DWORD PTR __$EHRec$[ebp+8], 0

; 2750 : 	o = GetFirstObjective(&myit);

	lea	ecx, DWORD PTR _myit$[ebp]
	push	ecx
	call	?GetFirstObjective@@YAPAVObjectiveClass@@PAVVuListIterator@@@Z ; GetFirstObjective
	add	esp, 4
	mov	DWORD PTR _o$[ebp], eax
$LN2@RepairObje:

; 2751 : 	while (o != NULL){

	cmp	DWORD PTR _o$[ebp], 0
	je	SHORT $LN1@RepairObje

; 2752 : 		o->Repair();

	mov	ecx, DWORD PTR _o$[ebp]
	call	?Repair@ObjectiveClass@@QAEXXZ		; ObjectiveClass::Repair

; 2753 : 		o = GetNextObjective(&myit);

	lea	edx, DWORD PTR _myit$[ebp]
	push	edx
	call	?GetNextObjective@@YAPAVObjectiveClass@@PAVVuListIterator@@@Z ; GetNextObjective
	add	esp, 4
	mov	DWORD PTR _o$[ebp], eax

; 2754 : 	}

	jmp	SHORT $LN2@RepairObje
$LN1@RepairObje:

; 2755 : }

	mov	DWORD PTR __$EHRec$[ebp+8], -1
	lea	ecx, DWORD PTR _myit$[ebp]
	call	??1VuListIterator@@UAE@XZ		; VuListIterator::~VuListIterator
	mov	ecx, DWORD PTR __$EHRec$[ebp]
	mov	DWORD PTR fs:0, ecx
	pop	ecx
	mov	esp, ebp
	pop	ebp
	ret	0
_TEXT	ENDS
text$x	SEGMENT
__unwindfunclet$?RepairObjectives@@YAXXZ$0:
	lea	ecx, DWORD PTR _myit$[ebp]
	jmp	??1VuListIterator@@UAE@XZ		; VuListIterator::~VuListIterator
__ehhandler$?RepairObjectives@@YAXXZ:
	mov	edx, DWORD PTR [esp+8]
	lea	eax, DWORD PTR [edx+12]
	mov	ecx, DWORD PTR [edx-20]
	xor	ecx, eax
	call	@__security_check_cookie@4
	mov	eax, OFFSET __ehfuncinfo$?RepairObjectives@@YAXXZ
	jmp	___CxxFrameHandler3
text$x	ENDS
?RepairObjectives@@YAXXZ ENDP				; RepairObjectives
; Function compile flags: /Odtp
; File c:\users\zhitao li\documents\visual studio 2012\projects\freefalcon\campaign\camplib\objectiv.cpp
_TEXT	SEGMENT
_s$ = -20						; size = 4
_bf$ = -16						; size = 4
_best$ = -12						; size = 4
_score$ = -8						; size = 4
_f$ = -4						; size = 4
_o$ = 8							; size = 4
_targeted$ = 12						; size = 4
?BestTargetFeature@@YAHPAVObjectiveClass@@QAE@Z PROC	; BestTargetFeature

; 2723 : {

	push	ebp
	mov	ebp, esp
	sub	esp, 20					; 00000014H

; 2724 : 	int					score,best=0;

	mov	DWORD PTR _best$[ebp], 0

; 2725 : 	int					s,f,bf=0;

	mov	DWORD PTR _bf$[ebp], 0

; 2726 : 
; 2727 : 	// Find 'quickest fix'. That is, the feature which will give us the most operational
; 2728 : 	// percentage in the shortest time.
; 2729 : 	for (f=0; f<o->GetTotalFeatures(); f++)

	mov	DWORD PTR _f$[ebp], 0
	jmp	SHORT $LN5@BestTarget
$LN4@BestTarget:
	mov	eax, DWORD PTR _f$[ebp]
	add	eax, 1
	mov	DWORD PTR _f$[ebp], eax
$LN5@BestTarget:
	mov	ecx, DWORD PTR _o$[ebp]
	call	?GetTotalFeatures@ObjectiveClass@@QAEFXZ ; ObjectiveClass::GetTotalFeatures
	movsx	ecx, ax
	cmp	DWORD PTR _f$[ebp], ecx
	jge	SHORT $LN3@BestTarget

; 2730 : 	{
; 2731 : 		s = o->GetFeatureStatus(f);

	mov	edx, DWORD PTR _f$[ebp]
	push	edx
	mov	ecx, DWORD PTR _o$[ebp]
	call	?GetFeatureStatus@ObjectiveClass@@QAEHH@Z ; ObjectiveClass::GetFeatureStatus
	mov	DWORD PTR _s$[ebp], eax

; 2732 : 		if (s != VIS_DESTROYED && targeted && !targeted[f])

	cmp	DWORD PTR _s$[ebp], 3
	je	SHORT $LN2@BestTarget
	cmp	DWORD PTR _targeted$[ebp], 0
	je	SHORT $LN2@BestTarget
	mov	eax, DWORD PTR _targeted$[ebp]
	add	eax, DWORD PTR _f$[ebp]
	movzx	ecx, BYTE PTR [eax]
	test	ecx, ecx
	jne	SHORT $LN2@BestTarget

; 2733 : 		{
; 2734 : 			score = o->GetFeatureValue(f);

	mov	edx, DWORD PTR _f$[ebp]
	push	edx
	mov	ecx, DWORD PTR _o$[ebp]
	call	?GetFeatureValue@ObjectiveClass@@QAEHH@Z ; ObjectiveClass::GetFeatureValue
	mov	DWORD PTR _score$[ebp], eax

; 2735 : 			if (score > best)

	mov	eax, DWORD PTR _score$[ebp]
	cmp	eax, DWORD PTR _best$[ebp]
	jle	SHORT $LN2@BestTarget

; 2736 : 			{
; 2737 : 				best = score;

	mov	ecx, DWORD PTR _score$[ebp]
	mov	DWORD PTR _best$[ebp], ecx

; 2738 : 				bf = f;

	mov	edx, DWORD PTR _f$[ebp]
	mov	DWORD PTR _bf$[ebp], edx
$LN2@BestTarget:

; 2739 : 			}
; 2740 : 		}
; 2741 : 	}

	jmp	SHORT $LN4@BestTarget
$LN3@BestTarget:

; 2742 : 	return bf;

	mov	eax, DWORD PTR _bf$[ebp]

; 2743 : }

	mov	esp, ebp
	pop	ebp
	ret	0
?BestTargetFeature@@YAHPAVObjectiveClass@@QAE@Z ENDP	; BestTargetFeature
_TEXT	ENDS
; Function compile flags: /Odtp
; File c:\users\zhitao li\documents\visual studio 2012\projects\freefalcon\campaign\camplib\objectiv.cpp
_TEXT	SEGMENT
_uit$ = -100						; size = 12
$T2 = -88						; size = 4
$T3 = -84						; size = 4
_v$ = -80						; size = 4
_dist$4 = -76						; size = 4
_bf$ = -72						; size = 4
_best$ = -68						; size = 4
_score$ = -64						; size = 4
_s$ = -60						; size = 4
_dy$5 = -56						; size = 4
_dx$6 = -52						; size = 4
_bt$ = -48						; size = 4
_t$ = -44						; size = 4
_f$ = -40						; size = 4
_u$ = -36						; size = 4
_oy$ = -32						; size = 2
_uy$ = -28						; size = 2
_ox$ = -24						; size = 2
_ux$ = -20						; size = 2
_assignedEng$ = -13					; size = 1
__$EHRec$ = -12						; size = 12
_o$ = 8							; size = 4
_hours$ = 12						; size = 4
?BestRepairFeature@@YAHPAVObjectiveClass@@PAH@Z PROC	; BestRepairFeature

; 2647 : {

	push	ebp
	mov	ebp, esp
	push	-1
	push	__ehhandler$?BestRepairFeature@@YAHPAVObjectiveClass@@PAH@Z
	mov	eax, DWORD PTR fs:0
	push	eax
	sub	esp, 88					; 00000058H
	push	esi
	mov	eax, DWORD PTR ___security_cookie
	xor	eax, ebp
	push	eax
	lea	eax, DWORD PTR __$EHRec$[ebp]
	mov	DWORD PTR fs:0, eax

; 2648 : 	int	score, best = 0;

	mov	DWORD PTR _best$[ebp], 0

; 2649 : 	int	s, v, t, bt = 9999, f, bf = -1;

	mov	DWORD PTR _bt$[ebp], 9999		; 0000270fH
	mov	DWORD PTR _bf$[ebp], -1

; 2650 : 
; 2651 : 	bool assignedEng = false;

	mov	BYTE PTR _assignedEng$[ebp], 0

; 2652 : 
; 2653 : 	GridIndex ux = 0, uy = 0;

	xor	eax, eax
	mov	WORD PTR _ux$[ebp], ax
	xor	ecx, ecx
	mov	WORD PTR _uy$[ebp], cx

; 2654 : 	GridIndex ox = 0, oy = 0;

	xor	edx, edx
	mov	WORD PTR _ox$[ebp], dx
	xor	eax, eax
	mov	WORD PTR _oy$[ebp], ax

; 2655 : 	
; 2656 : 	VuListIterator	uit(AllUnitList);

	mov	ecx, DWORD PTR ?AllUnitList@@3PAVVuLinkedList@@A ; AllUnitList
	push	ecx
	lea	ecx, DWORD PTR _uit$[ebp]
	call	??0VuListIterator@@QAE@PAVVuLinkedList@@@Z ; VuListIterator::VuListIterator
	mov	DWORD PTR __$EHRec$[ebp+8], 0

; 2657 : 	Unit u;
; 2658 : 
; 2659 : 	// RV - Biker - Where is the object
; 2660 : 	o->GetLocation(&ox, &oy);

	lea	edx, DWORD PTR _oy$[ebp]
	push	edx
	lea	eax, DWORD PTR _ox$[ebp]
	push	eax
	mov	ecx, DWORD PTR _o$[ebp]
	call	?GetLocation@FalconEntity@@QBEXPAF0@Z	; FalconEntity::GetLocation

; 2661 : 	
; 2662 : 	// RV - Biker - Loop through ground units to find engineer battalion assigned for repair
; 2663 : 	u = GetFirstUnit(&uit);

	lea	ecx, DWORD PTR _uit$[ebp]
	push	ecx
	call	?GetFirstUnit@@YAPAVUnitClass@@PAVVuListIterator@@@Z ; GetFirstUnit
	add	esp, 4
	mov	DWORD PTR _u$[ebp], eax
$LN20@BestRepair:

; 2664 : 	while (u) {

	cmp	DWORD PTR _u$[ebp], 0
	je	$LN15@BestRepair

; 2665 : 		if (u->IsBrigade() || u->GetDomain() != DOMAIN_LAND || u->GetTeam() != o->GetTeam()) {

	mov	edx, DWORD PTR _u$[ebp]
	mov	eax, DWORD PTR [edx]
	mov	ecx, DWORD PTR _u$[ebp]
	mov	edx, DWORD PTR [eax+244]
	call	edx
	test	eax, eax
	jne	SHORT $LN13@BestRepair
	mov	ecx, DWORD PTR _u$[ebp]
	call	?GetDomain@CampBaseClass@@QBEEXZ	; CampBaseClass::GetDomain
	movzx	eax, al
	cmp	eax, 3
	jne	SHORT $LN13@BestRepair
	mov	ecx, DWORD PTR _u$[ebp]
	mov	edx, DWORD PTR [ecx]
	mov	ecx, DWORD PTR _u$[ebp]
	mov	eax, DWORD PTR [edx+116]
	call	eax
	movzx	esi, al
	mov	ecx, DWORD PTR _o$[ebp]
	mov	edx, DWORD PTR [ecx]
	mov	ecx, DWORD PTR _o$[ebp]
	mov	eax, DWORD PTR [edx+116]
	call	eax
	movzx	ecx, al
	cmp	esi, ecx
	je	SHORT $LN14@BestRepair
$LN13@BestRepair:

; 2666 : 			u = GetNextUnit(&uit);

	lea	edx, DWORD PTR _uit$[ebp]
	push	edx
	call	?GetNextUnit@@YAPAVUnitClass@@PAVVuListIterator@@@Z ; GetNextUnit
	add	esp, 4
	mov	DWORD PTR _u$[ebp], eax

; 2667 : 			continue;

	jmp	SHORT $LN20@BestRepair
$LN14@BestRepair:

; 2668 : 		}
; 2669 : 
; 2670 : 		u->GetLocation(&ux, &uy);

	lea	eax, DWORD PTR _uy$[ebp]
	push	eax
	lea	ecx, DWORD PTR _ux$[ebp]
	push	ecx
	mov	ecx, DWORD PTR _u$[ebp]
	call	?GetLocation@FalconEntity@@QBEXPAF0@Z	; FalconEntity::GetLocation

; 2671 : 		float dx = float(ux-ox);

	movsx	edx, WORD PTR _ux$[ebp]
	movsx	eax, WORD PTR _ox$[ebp]
	sub	edx, eax
	cvtsi2ss xmm0, edx
	movss	DWORD PTR _dx$6[ebp], xmm0

; 2672 : 		float dy = float(uy-oy);

	movsx	ecx, WORD PTR _uy$[ebp]
	movsx	edx, WORD PTR _oy$[ebp]
	sub	ecx, edx
	cvtsi2ss xmm0, ecx
	movss	DWORD PTR _dy$5[ebp], xmm0

; 2673 : 
; 2674 : 		float dist = sqrt(dx*dx + dy*dy);

	movss	xmm0, DWORD PTR _dx$6[ebp]
	mulss	xmm0, DWORD PTR _dx$6[ebp]
	movss	xmm1, DWORD PTR _dy$5[ebp]
	mulss	xmm1, DWORD PTR _dy$5[ebp]
	addss	xmm0, xmm1
	push	ecx
	movss	DWORD PTR [esp], xmm0
	call	?SqrtSSE@@YAMM@Z			; SqrtSSE
	add	esp, 4
	fstp	DWORD PTR _dist$4[ebp]

; 2675 : 
; 2676 : 		// RV - Biker - Check for engineer type maybe we need some more check
; 2677 : 		if (u->GetSType() == STYPE_UNIT_ENGINEER || u->GetSType() == STYPE_WHEELED_ENGINEER) {

	mov	ecx, DWORD PTR _u$[ebp]
	call	?GetSType@CampBaseClass@@QBEEXZ		; CampBaseClass::GetSType
	movzx	eax, al
	cmp	eax, 5
	je	SHORT $LN11@BestRepair
	mov	ecx, DWORD PTR _u$[ebp]
	call	?GetSType@CampBaseClass@@QBEEXZ		; CampBaseClass::GetSType
	movzx	ecx, al
	cmp	ecx, 4
	jne	SHORT $LN9@BestRepair
$LN11@BestRepair:

; 2678 : 			if (dist < 1.0f)

	movss	xmm0, DWORD PTR __real@3f800000
	comiss	xmm0, DWORD PTR _dist$4[ebp]
	jbe	SHORT $LN10@BestRepair

; 2679 : 				assignedEng = TRUE;

	mov	BYTE PTR _assignedEng$[ebp], 1

; 2680 : 			else

	jmp	SHORT $LN9@BestRepair
$LN10@BestRepair:

; 2681 : 				assignedEng = FALSE;

	mov	BYTE PTR _assignedEng$[ebp], 0
$LN9@BestRepair:

; 2682 : 		}
; 2683 : 		u = GetNextUnit(&uit);

	lea	edx, DWORD PTR _uit$[ebp]
	push	edx
	call	?GetNextUnit@@YAPAVUnitClass@@PAVVuListIterator@@@Z ; GetNextUnit
	add	esp, 4
	mov	DWORD PTR _u$[ebp], eax

; 2684 : 	}

	jmp	$LN20@BestRepair
$LN15@BestRepair:

; 2685 : 
; 2686 : 	// Find 'quickest fix'. That is, the feature which will give us the most operational
; 2687 : 	// percentage in the shortest time.
; 2688 : 	for (f=0; f<o->GetTotalFeatures(); f++)

	mov	DWORD PTR _f$[ebp], 0
	jmp	SHORT $LN8@BestRepair
$LN7@BestRepair:
	mov	eax, DWORD PTR _f$[ebp]
	add	eax, 1
	mov	DWORD PTR _f$[ebp], eax
$LN8@BestRepair:
	mov	ecx, DWORD PTR _o$[ebp]
	call	?GetTotalFeatures@ObjectiveClass@@QAEFXZ ; ObjectiveClass::GetTotalFeatures
	movsx	ecx, ax
	cmp	DWORD PTR _f$[ebp], ecx
	jge	$LN6@BestRepair

; 2689 : 	{
; 2690 : 		s = o->GetFeatureStatus(f);

	mov	edx, DWORD PTR _f$[ebp]
	push	edx
	mov	ecx, DWORD PTR _o$[ebp]
	call	?GetFeatureStatus@ObjectiveClass@@QAEHH@Z ; ObjectiveClass::GetFeatureStatus
	mov	DWORD PTR _s$[ebp], eax

; 2691 : 		if (s != VIS_NORMAL && s != VIS_REPAIRED)

	cmp	DWORD PTR _s$[ebp], 0
	je	SHORT $LN2@BestRepair
	cmp	DWORD PTR _s$[ebp], 1
	je	SHORT $LN2@BestRepair

; 2692 : 		{
; 2693 : 			v = o->GetFeatureValue(f);

	mov	eax, DWORD PTR _f$[ebp]
	push	eax
	mov	ecx, DWORD PTR _o$[ebp]
	call	?GetFeatureValue@ObjectiveClass@@QAEHH@Z ; ObjectiveClass::GetFeatureValue
	mov	DWORD PTR _v$[ebp], eax

; 2694 : 
; 2695 : 			// RV - Biker - If we have a engineer battalion assigned repair time is one fourth
; 2696 : 			if (assignedEng)

	movzx	ecx, BYTE PTR _assignedEng$[ebp]
	test	ecx, ecx
	je	SHORT $LN4@BestRepair

; 2697 : 				t = int(o->GetFeatureRepairTime(f)/4);

	mov	edx, DWORD PTR _f$[ebp]
	push	edx
	mov	ecx, DWORD PTR _o$[ebp]
	call	?GetFeatureRepairTime@ObjectiveClass@@QAEHH@Z ; ObjectiveClass::GetFeatureRepairTime
	cdq
	and	edx, 3
	add	eax, edx
	sar	eax, 2
	mov	DWORD PTR _t$[ebp], eax

; 2698 : 			else

	jmp	SHORT $LN3@BestRepair
$LN4@BestRepair:

; 2699 : 				t = o->GetFeatureRepairTime(f);

	mov	eax, DWORD PTR _f$[ebp]
	push	eax
	mov	ecx, DWORD PTR _o$[ebp]
	call	?GetFeatureRepairTime@ObjectiveClass@@QAEHH@Z ; ObjectiveClass::GetFeatureRepairTime
	mov	DWORD PTR _t$[ebp], eax
$LN3@BestRepair:

; 2700 : 
; 2701 : 			score = (v*100)/(t+1);

	mov	eax, DWORD PTR _v$[ebp]
	imul	eax, 100				; 00000064H
	mov	ecx, DWORD PTR _t$[ebp]
	add	ecx, 1
	cdq
	idiv	ecx
	mov	DWORD PTR _score$[ebp], eax

; 2702 : 			if (score > best) {

	mov	edx, DWORD PTR _score$[ebp]
	cmp	edx, DWORD PTR _best$[ebp]
	jle	SHORT $LN2@BestRepair

; 2703 : 				best = score;

	mov	eax, DWORD PTR _score$[ebp]
	mov	DWORD PTR _best$[ebp], eax

; 2704 : 				bf = f;

	mov	ecx, DWORD PTR _f$[ebp]
	mov	DWORD PTR _bf$[ebp], ecx

; 2705 : 				bt = t;

	mov	edx, DWORD PTR _t$[ebp]
	mov	DWORD PTR _bt$[ebp], edx
$LN2@BestRepair:

; 2706 : 			}
; 2707 : 		}
; 2708 : 		//		if (s != VIS_DESTROYED && !o->GetFeatureID(f))
; 2709 : 		//			o->SetFeatureStatus(f,VIS_DESTROYED);
; 2710 : 	}

	jmp	$LN7@BestRepair
$LN6@BestRepair:

; 2711 : 	// 2001-03-12 MODIFIED BY S.G. SO IT DOESN'T WAIT ONE MORE HOUR BEFORE FINISHING THE REPAIR
; 2712 : 	// 2001-03-13 REINSTATED BECAUSE THE DATA FILE ISN'T ADJUSTED FOR IT YET,
; 2713 : 	if (bt < *hours)

	mov	eax, DWORD PTR _hours$[ebp]
	mov	ecx, DWORD PTR _bt$[ebp]
	cmp	ecx, DWORD PTR [eax]
	jge	SHORT $LN1@BestRepair

; 2714 : 	//	if (bt <= *hours)
; 2715 : 	{
; 2716 : 		*hours -= bt;

	mov	edx, DWORD PTR _hours$[ebp]
	mov	eax, DWORD PTR [edx]
	sub	eax, DWORD PTR _bt$[ebp]
	mov	ecx, DWORD PTR _hours$[ebp]
	mov	DWORD PTR [ecx], eax

; 2717 : 		return bf;

	mov	edx, DWORD PTR _bf$[ebp]
	mov	DWORD PTR $T3[ebp], edx
	mov	DWORD PTR __$EHRec$[ebp+8], -1
	lea	ecx, DWORD PTR _uit$[ebp]
	call	??1VuListIterator@@UAE@XZ		; VuListIterator::~VuListIterator
	mov	eax, DWORD PTR $T3[ebp]
	jmp	SHORT $LN17@BestRepair
$LN1@BestRepair:

; 2718 : 	}
; 2719 : 	return -1;

	mov	DWORD PTR $T2[ebp], -1
	mov	DWORD PTR __$EHRec$[ebp+8], -1
	lea	ecx, DWORD PTR _uit$[ebp]
	call	??1VuListIterator@@UAE@XZ		; VuListIterator::~VuListIterator
	mov	eax, DWORD PTR $T2[ebp]
$LN17@BestRepair:

; 2720 : }

	mov	ecx, DWORD PTR __$EHRec$[ebp]
	mov	DWORD PTR fs:0, ecx
	pop	ecx
	pop	esi
	mov	esp, ebp
	pop	ebp
	ret	0
_TEXT	ENDS
text$x	SEGMENT
__unwindfunclet$?BestRepairFeature@@YAHPAVObjectiveClass@@PAH@Z$0:
	lea	ecx, DWORD PTR _uit$[ebp]
	jmp	??1VuListIterator@@UAE@XZ		; VuListIterator::~VuListIterator
__ehhandler$?BestRepairFeature@@YAHPAVObjectiveClass@@PAH@Z:
	mov	edx, DWORD PTR [esp+8]
	lea	eax, DWORD PTR [edx+12]
	mov	ecx, DWORD PTR [edx-96]
	xor	ecx, eax
	call	@__security_check_cookie@4
	mov	eax, OFFSET __ehfuncinfo$?BestRepairFeature@@YAHPAVObjectiveClass@@PAH@Z
	jmp	___CxxFrameHandler3
text$x	ENDS
?BestRepairFeature@@YAHPAVObjectiveClass@@PAH@Z ENDP	; BestRepairFeature
; Function compile flags: /Odtp
; File c:\users\zhitao li\documents\visual studio 2012\projects\freefalcon\campaign\camplib\objectiv.cpp
_TEXT	SEGMENT
$T1 = -16						; size = 4
_cbuffer$ = -12						; size = 4
_csize$ = -8						; size = 4
_fp$ = -4						; size = 4
_savefile$ = 8						; size = 4
?SaveObjectiveDeltas@@YAXPAD@Z PROC			; SaveObjectiveDeltas

; 2630 : {

	push	ebp
	mov	ebp, esp
	sub	esp, 16					; 00000010H

; 2631 : 	long		csize;
; 2632 : 	uchar		*cbuffer;
; 2633 : 	FILE		*fp;
; 2634 : 
; 2635 : 	if ((fp = OpenCampFile (savefile, "obd", "wb")) == NULL)

	push	OFFSET ??_C@_02GMLFBBN@wb?$AA@
	push	OFFSET ??_C@_03PHDMHGFL@obd?$AA@
	mov	eax, DWORD PTR _savefile$[ebp]
	push	eax
	call	?OpenCampFile@@YAPAU_iobuf@@PAD00@Z	; OpenCampFile
	add	esp, 12					; 0000000cH
	mov	DWORD PTR _fp$[ebp], eax
	cmp	DWORD PTR _fp$[ebp], 0
	jne	SHORT $LN1@SaveObject

; 2636 : 		return;

	jmp	SHORT $LN2@SaveObject
$LN1@SaveObject:

; 2637 : 
; 2638 : 	csize = EncodeObjectiveDeltas(&cbuffer, NULL);

	push	0
	lea	ecx, DWORD PTR _cbuffer$[ebp]
	push	ecx
	call	?EncodeObjectiveDeltas@@YAHPAPAEPAVFalconSessionEntity@@@Z ; EncodeObjectiveDeltas
	add	esp, 8
	mov	DWORD PTR _csize$[ebp], eax

; 2639 : 
; 2640 : 	fwrite(&csize, sizeof(long), 1, fp);

	mov	edx, DWORD PTR _fp$[ebp]
	push	edx
	push	1
	push	4
	lea	eax, DWORD PTR _csize$[ebp]
	push	eax
	call	_fwrite
	add	esp, 16					; 00000010H

; 2641 : 	fwrite(cbuffer, csize, 1, fp);

	mov	ecx, DWORD PTR _fp$[ebp]
	push	ecx
	push	1
	mov	edx, DWORD PTR _csize$[ebp]
	push	edx
	mov	eax, DWORD PTR _cbuffer$[ebp]
	push	eax
	call	_fwrite
	add	esp, 16					; 00000010H

; 2642 : 	delete cbuffer;

	mov	ecx, DWORD PTR _cbuffer$[ebp]
	mov	DWORD PTR $T1[ebp], ecx
	mov	edx, DWORD PTR $T1[ebp]
	push	edx
	call	??3@YAXPAX@Z				; operator delete
	add	esp, 4

; 2643 : 	CloseCampFile(fp);

	mov	eax, DWORD PTR _fp$[ebp]
	push	eax
	call	?CloseCampFile@@YAXPAU_iobuf@@@Z	; CloseCampFile
	add	esp, 4
$LN2@SaveObject:

; 2644 : }

	mov	esp, ebp
	pop	ebp
	ret	0
?SaveObjectiveDeltas@@YAXPAD@Z ENDP			; SaveObjectiveDeltas
_TEXT	ENDS
; Function compile flags: /Odtp
; File c:\users\zhitao li\documents\visual studio 2012\projects\freefalcon\campaign\camplib\objectiv.cpp
_TEXT	SEGMENT
_myit$2 = -88						; size = 12
_myit$3 = -76						; size = 12
$T4 = -64						; size = 4
$T5 = -60						; size = 4
$T6 = -56						; size = 4
$T7 = -52						; size = 4
_newsize$ = -48						; size = 4
_cbuffer$ = -44						; size = 4
_buffer$ = -40						; size = 4
_bufptr$ = -36						; size = 4
_fp$ = -32						; size = 4
_size$ = -28						; size = 4
_o$ = -24						; size = 4
_type$ = -20						; size = 2
_num$ = -16						; size = 2
__$EHRec$ = -12						; size = 12
_scenario$ = 8						; size = 4
?SaveBaseObjectives@@YAXPAD@Z PROC			; SaveBaseObjectives

; 2576 : {

	push	ebp
	mov	ebp, esp
	push	-1
	push	__ehhandler$?SaveBaseObjectives@@YAXPAD@Z
	mov	eax, DWORD PTR fs:0
	push	eax
	sub	esp, 76					; 0000004cH
	mov	eax, DWORD PTR ___security_cookie
	xor	eax, ebp
	push	eax
	lea	eax, DWORD PTR __$EHRec$[ebp]
	mov	DWORD PTR fs:0, eax

; 2577 : 	FILE			*fp;
; 2578 : 	short			num=0,type;

	xor	eax, eax
	mov	WORD PTR _num$[ebp], ax

; 2579 : 	long            size=0,newsize;

	mov	DWORD PTR _size$[ebp], 0

; 2580 : 	Objective		o;
; 2581 : 	uchar           *buffer,*cbuffer,*bufptr;
; 2582 : 
; 2583 : 	if ((fp = OpenCampFile (scenario, "obj", "wb")) == NULL){

	push	OFFSET ??_C@_02GMLFBBN@wb?$AA@
	push	OFFSET ??_C@_03GJLPFLNF@obj?$AA@
	mov	ecx, DWORD PTR _scenario$[ebp]
	push	ecx
	call	?OpenCampFile@@YAPAU_iobuf@@PAD00@Z	; OpenCampFile
	add	esp, 12					; 0000000cH
	mov	DWORD PTR _fp$[ebp], eax
	cmp	DWORD PTR _fp$[ebp], 0
	jne	SHORT $LN5@SaveBaseOb

; 2584 : 		return;

	jmp	$LN6@SaveBaseOb
$LN5@SaveBaseOb:

; 2585 : 	}
; 2586 : 
; 2587 : 	// Count # of objectives
; 2588 : 	{
; 2589 : 		VuListIterator	myit(AllObjList);

	mov	edx, DWORD PTR ?AllObjList@@3PAVVuLinkedList@@A ; AllObjList
	push	edx
	lea	ecx, DWORD PTR _myit$3[ebp]
	call	??0VuListIterator@@QAE@PAVVuLinkedList@@@Z ; VuListIterator::VuListIterator
	mov	DWORD PTR __$EHRec$[ebp+8], 0

; 2590 : 		o = GetFirstObjective(&myit);

	lea	eax, DWORD PTR _myit$3[ebp]
	push	eax
	call	?GetFirstObjective@@YAPAVObjectiveClass@@PAVVuListIterator@@@Z ; GetFirstObjective
	add	esp, 4
	mov	DWORD PTR _o$[ebp], eax
$LN4@SaveBaseOb:

; 2591 : 		while (o){

	cmp	DWORD PTR _o$[ebp], 0
	je	SHORT $LN3@SaveBaseOb

; 2592 : 			num++;

	mov	cx, WORD PTR _num$[ebp]
	add	cx, 1
	mov	WORD PTR _num$[ebp], cx

; 2593 : 			size += o->SaveSize() + sizeof(short);

	mov	edx, DWORD PTR _o$[ebp]
	mov	eax, DWORD PTR [edx]
	mov	ecx, DWORD PTR _o$[ebp]
	mov	edx, DWORD PTR [eax+28]
	call	edx
	mov	ecx, DWORD PTR _size$[ebp]
	lea	edx, DWORD PTR [ecx+eax+2]
	mov	DWORD PTR _size$[ebp], edx

; 2594 : 			o = GetNextObjective(&myit);

	lea	eax, DWORD PTR _myit$3[ebp]
	push	eax
	call	?GetNextObjective@@YAPAVObjectiveClass@@PAVVuListIterator@@@Z ; GetNextObjective
	add	esp, 4
	mov	DWORD PTR _o$[ebp], eax

; 2595 : 		}

	jmp	SHORT $LN4@SaveBaseOb
$LN3@SaveBaseOb:

; 2596 : 	}

	mov	DWORD PTR __$EHRec$[ebp+8], -1
	lea	ecx, DWORD PTR _myit$3[ebp]
	call	??1VuListIterator@@UAE@XZ		; VuListIterator::~VuListIterator

; 2597 : 
; 2598 : 	// Save Number of Objectives and sizes
; 2599 : 	fwrite(&num,sizeof(short),1,fp);

	mov	ecx, DWORD PTR _fp$[ebp]
	push	ecx
	push	1
	push	2
	lea	edx, DWORD PTR _num$[ebp]
	push	edx
	call	_fwrite
	add	esp, 16					; 00000010H

; 2600 : 	fwrite(&size, sizeof(long),1,fp);

	mov	eax, DWORD PTR _fp$[ebp]
	push	eax
	push	1
	push	4
	lea	ecx, DWORD PTR _size$[ebp]
	push	ecx
	call	_fwrite
	add	esp, 16					; 00000010H

; 2601 : 
; 2602 : 	buffer = new uchar[size];

	mov	edx, DWORD PTR _size$[ebp]
	push	edx
	call	??_U@YAPAXI@Z				; operator new[]
	add	esp, 4
	mov	DWORD PTR $T7[ebp], eax
	mov	eax, DWORD PTR $T7[ebp]
	mov	DWORD PTR _buffer$[ebp], eax

; 2603 : 	cbuffer = new uchar[size + MAX_POSSIBLE_OVERWRITE];

	mov	ecx, DWORD PTR _size$[ebp]
	add	ecx, 100				; 00000064H
	push	ecx
	call	??_U@YAPAXI@Z				; operator new[]
	add	esp, 4
	mov	DWORD PTR $T6[ebp], eax
	mov	edx, DWORD PTR $T6[ebp]
