; Listing generated by Microsoft (R) Optimizing Compiler Version 17.00.51106.1 

	TITLE	C:\Users\Zhitao Li\Documents\Visual Studio 2012\Projects\Freefalcon\CAMPAIGN\CAMPLIB\Team.cpp
	.686P
	.XMM
	include listing.inc
	.model	flat

INCLUDELIB LIBCMT
INCLUDELIB OLDNAMES

PUBLIC	?tinyness_before@_Num_base@std@@2_NB		; std::_Num_base::tinyness_before
PUBLIC	?traps@_Num_base@std@@2_NB			; std::_Num_base::traps
PUBLIC	?round_style@_Num_base@std@@2W4float_round_style@2@B ; std::_Num_base::round_style
PUBLIC	?digits@_Num_base@std@@2HB			; std::_Num_base::digits
PUBLIC	?digits10@_Num_base@std@@2HB			; std::_Num_base::digits10
PUBLIC	?max_digits10@_Num_base@std@@2HB		; std::_Num_base::max_digits10
PUBLIC	?teamManagerDIndex@@3FA				; teamManagerDIndex
PUBLIC	?max_exponent@_Num_base@std@@2HB		; std::_Num_base::max_exponent
PUBLIC	?max_exponent10@_Num_base@std@@2HB		; std::_Num_base::max_exponent10
PUBLIC	?table_size@?$ctype@D@std@@2IB			; std::ctype<char>::table_size
PUBLIC	?min_exponent@_Num_base@std@@2HB		; std::_Num_base::min_exponent
PUBLIC	?min_exponent10@_Num_base@std@@2HB		; std::_Num_base::min_exponent10
PUBLIC	?radix@_Num_base@std@@2HB			; std::_Num_base::radix
PUBLIC	?DogfightTeamNames@@3PAY0BE@DA			; DogfightTeamNames
PUBLIC	?RoEData@@3PAY05EA				; RoEData
PUBLIC	?is_bounded@_Num_int_base@std@@2_NB		; std::_Num_int_base::is_bounded
PUBLIC	?is_exact@_Num_int_base@std@@2_NB		; std::_Num_int_base::is_exact
PUBLIC	?is_integer@_Num_int_base@std@@2_NB		; std::_Num_int_base::is_integer
PUBLIC	?is_modulo@_Num_int_base@std@@2_NB		; std::_Num_int_base::is_modulo
PUBLIC	?is_specialized@_Num_int_base@std@@2_NB		; std::_Num_int_base::is_specialized
PUBLIC	?radix@_Num_int_base@std@@2HB			; std::_Num_int_base::radix
PUBLIC	?has_denorm@_Num_float_base@std@@2W4float_denorm_style@2@B ; std::_Num_float_base::has_denorm
PUBLIC	?has_denorm_loss@_Num_float_base@std@@2_NB	; std::_Num_float_base::has_denorm_loss
PUBLIC	?SIMDIRTYDATA_INTERVAL@FalconEntity@@2KB	; FalconEntity::SIMDIRTYDATA_INTERVAL
PUBLIC	?CMPDIRTYDATA_INTERVAL@FalconEntity@@2KB	; FalconEntity::CMPDIRTYDATA_INTERVAL
PUBLIC	?has_infinity@_Num_float_base@std@@2_NB		; std::_Num_float_base::has_infinity
PUBLIC	?has_quiet_NaN@_Num_float_base@std@@2_NB	; std::_Num_float_base::has_quiet_NaN
PUBLIC	?has_signaling_NaN@_Num_float_base@std@@2_NB	; std::_Num_float_base::has_signaling_NaN
PUBLIC	?is_bounded@_Num_float_base@std@@2_NB		; std::_Num_float_base::is_bounded
PUBLIC	?is_exact@_Num_float_base@std@@2_NB		; std::_Num_float_base::is_exact
PUBLIC	?is_iec559@_Num_float_base@std@@2_NB		; std::_Num_float_base::is_iec559
PUBLIC	?is_integer@_Num_float_base@std@@2_NB		; std::_Num_float_base::is_integer
PUBLIC	?is_modulo@_Num_float_base@std@@2_NB		; std::_Num_float_base::is_modulo
PUBLIC	?is_signed@_Num_float_base@std@@2_NB		; std::_Num_float_base::is_signed
PUBLIC	?is_specialized@_Num_float_base@std@@2_NB	; std::_Num_float_base::is_specialized
PUBLIC	?tinyness_before@_Num_float_base@std@@2_NB	; std::_Num_float_base::tinyness_before
PUBLIC	?traps@_Num_float_base@std@@2_NB		; std::_Num_float_base::traps
PUBLIC	?round_style@_Num_float_base@std@@2W4float_round_style@2@B ; std::_Num_float_base::round_style
PUBLIC	?radix@_Num_float_base@std@@2HB			; std::_Num_float_base::radix
PUBLIC	?is_signed@?$numeric_limits@D@std@@2_NB		; std::numeric_limits<char>::is_signed
PUBLIC	?digits@?$numeric_limits@D@std@@2HB		; std::numeric_limits<char>::digits
PUBLIC	?digits10@?$numeric_limits@D@std@@2HB		; std::numeric_limits<char>::digits10
PUBLIC	?is_signed@?$numeric_limits@_W@std@@2_NB	; std::numeric_limits<wchar_t>::is_signed
PUBLIC	?digits@?$numeric_limits@_W@std@@2HB		; std::numeric_limits<wchar_t>::digits
PUBLIC	?digits10@?$numeric_limits@_W@std@@2HB		; std::numeric_limits<wchar_t>::digits10
PUBLIC	?DefaultObjtypePriority@@3PAY0CE@EA		; DefaultObjtypePriority
PUBLIC	?DefaultUnittypePriority@@3PAY0BE@EA		; DefaultUnittypePriority
PUBLIC	?DefaultMissionPriority@@3PAY0CJ@EA		; DefaultMissionPriority
PUBLIC	?is_modulo@?$numeric_limits@_N@std@@2_NB	; std::numeric_limits<bool>::is_modulo
PUBLIC	?is_signed@?$numeric_limits@_N@std@@2_NB	; std::numeric_limits<bool>::is_signed
PUBLIC	?digits@?$numeric_limits@_N@std@@2HB		; std::numeric_limits<bool>::digits
PUBLIC	?digits10@?$numeric_limits@_N@std@@2HB		; std::numeric_limits<bool>::digits10
PUBLIC	?is_signed@?$numeric_limits@C@std@@2_NB		; std::numeric_limits<signed char>::is_signed
PUBLIC	?digits@?$numeric_limits@C@std@@2HB		; std::numeric_limits<signed char>::digits
PUBLIC	?digits10@?$numeric_limits@C@std@@2HB		; std::numeric_limits<signed char>::digits10
PUBLIC	?is_signed@?$numeric_limits@E@std@@2_NB		; std::numeric_limits<unsigned char>::is_signed
PUBLIC	?value@?$integral_constant@_N$0A@@std@@2_NB	; std::integral_constant<bool,0>::value
PUBLIC	?digits@?$numeric_limits@E@std@@2HB		; std::numeric_limits<unsigned char>::digits
PUBLIC	?digits10@?$numeric_limits@E@std@@2HB		; std::numeric_limits<unsigned char>::digits10
PUBLIC	?value@?$integral_constant@_N$00@std@@2_NB	; std::integral_constant<bool,1>::value
PUBLIC	?is_signed@?$numeric_limits@F@std@@2_NB		; std::numeric_limits<short>::is_signed
PUBLIC	?digits@?$numeric_limits@F@std@@2HB		; std::numeric_limits<short>::digits
PUBLIC	?digits10@?$numeric_limits@F@std@@2HB		; std::numeric_limits<short>::digits10
PUBLIC	?is_signed@?$numeric_limits@G@std@@2_NB		; std::numeric_limits<unsigned short>::is_signed
PUBLIC	?digits@?$numeric_limits@G@std@@2HB		; std::numeric_limits<unsigned short>::digits
PUBLIC	?digits10@?$numeric_limits@G@std@@2HB		; std::numeric_limits<unsigned short>::digits10
PUBLIC	?is_signed@?$numeric_limits@H@std@@2_NB		; std::numeric_limits<int>::is_signed
PUBLIC	?value@?$_Sizeof@HU_Nil@std@@U12@U12@U12@U12@U12@U12@@std@@2IB ; std::_Sizeof<int,std::_Nil,std::_Nil,std::_Nil,std::_Nil,std::_Nil,std::_Nil,std::_Nil>::value
PUBLIC	?digits@?$numeric_limits@H@std@@2HB		; std::numeric_limits<int>::digits
PUBLIC	?digits10@?$numeric_limits@H@std@@2HB		; std::numeric_limits<int>::digits10
PUBLIC	?is_signed@?$numeric_limits@I@std@@2_NB		; std::numeric_limits<unsigned int>::is_signed
PUBLIC	?digits@?$numeric_limits@I@std@@2HB		; std::numeric_limits<unsigned int>::digits
PUBLIC	?digits10@?$numeric_limits@I@std@@2HB		; std::numeric_limits<unsigned int>::digits10
PUBLIC	?skipws@?$_Iosb@H@std@@2W4_Fmtflags@12@B	; std::_Iosb<int>::skipws
PUBLIC	?is_signed@?$numeric_limits@J@std@@2_NB		; std::numeric_limits<long>::is_signed
PUBLIC	?unitbuf@?$_Iosb@H@std@@2W4_Fmtflags@12@B	; std::_Iosb<int>::unitbuf
PUBLIC	?digits@?$numeric_limits@J@std@@2HB		; std::numeric_limits<long>::digits
PUBLIC	?uppercase@?$_Iosb@H@std@@2W4_Fmtflags@12@B	; std::_Iosb<int>::uppercase
PUBLIC	?showbase@?$_Iosb@H@std@@2W4_Fmtflags@12@B	; std::_Iosb<int>::showbase
PUBLIC	?digits10@?$numeric_limits@J@std@@2HB		; std::numeric_limits<long>::digits10
PUBLIC	?showpoint@?$_Iosb@H@std@@2W4_Fmtflags@12@B	; std::_Iosb<int>::showpoint
PUBLIC	?showpos@?$_Iosb@H@std@@2W4_Fmtflags@12@B	; std::_Iosb<int>::showpos
PUBLIC	?left@?$_Iosb@H@std@@2W4_Fmtflags@12@B		; std::_Iosb<int>::left
PUBLIC	?right@?$_Iosb@H@std@@2W4_Fmtflags@12@B		; std::_Iosb<int>::right
PUBLIC	?internal@?$_Iosb@H@std@@2W4_Fmtflags@12@B	; std::_Iosb<int>::internal
PUBLIC	?dec@?$_Iosb@H@std@@2W4_Fmtflags@12@B		; std::_Iosb<int>::dec
PUBLIC	?oct@?$_Iosb@H@std@@2W4_Fmtflags@12@B		; std::_Iosb<int>::oct
PUBLIC	?hex@?$_Iosb@H@std@@2W4_Fmtflags@12@B		; std::_Iosb<int>::hex
PUBLIC	?scientific@?$_Iosb@H@std@@2W4_Fmtflags@12@B	; std::_Iosb<int>::scientific
PUBLIC	?fixed@?$_Iosb@H@std@@2W4_Fmtflags@12@B		; std::_Iosb<int>::fixed
PUBLIC	?is_signed@?$numeric_limits@K@std@@2_NB		; std::numeric_limits<unsigned long>::is_signed
PUBLIC	?hexfloat@?$_Iosb@H@std@@2W4_Fmtflags@12@B	; std::_Iosb<int>::hexfloat
PUBLIC	?digits@?$numeric_limits@K@std@@2HB		; std::numeric_limits<unsigned long>::digits
PUBLIC	?boolalpha@?$_Iosb@H@std@@2W4_Fmtflags@12@B	; std::_Iosb<int>::boolalpha
PUBLIC	?_Stdio@?$_Iosb@H@std@@2W4_Fmtflags@12@B	; std::_Iosb<int>::_Stdio
PUBLIC	?digits10@?$numeric_limits@K@std@@2HB		; std::numeric_limits<unsigned long>::digits10
PUBLIC	?adjustfield@?$_Iosb@H@std@@2W4_Fmtflags@12@B	; std::_Iosb<int>::adjustfield
PUBLIC	?basefield@?$_Iosb@H@std@@2W4_Fmtflags@12@B	; std::_Iosb<int>::basefield
PUBLIC	?floatfield@?$_Iosb@H@std@@2W4_Fmtflags@12@B	; std::_Iosb<int>::floatfield
PUBLIC	?goodbit@?$_Iosb@H@std@@2W4_Iostate@12@B	; std::_Iosb<int>::goodbit
PUBLIC	?eofbit@?$_Iosb@H@std@@2W4_Iostate@12@B		; std::_Iosb<int>::eofbit
PUBLIC	?failbit@?$_Iosb@H@std@@2W4_Iostate@12@B	; std::_Iosb<int>::failbit
PUBLIC	?badbit@?$_Iosb@H@std@@2W4_Iostate@12@B		; std::_Iosb<int>::badbit
PUBLIC	?_Hardfail@?$_Iosb@H@std@@2W4_Iostate@12@B	; std::_Iosb<int>::_Hardfail
PUBLIC	?is_signed@?$numeric_limits@_J@std@@2_NB	; std::numeric_limits<__int64>::is_signed
PUBLIC	?in@?$_Iosb@H@std@@2W4_Openmode@12@B		; std::_Iosb<int>::in
PUBLIC	?out@?$_Iosb@H@std@@2W4_Openmode@12@B		; std::_Iosb<int>::out
PUBLIC	?digits@?$numeric_limits@_J@std@@2HB		; std::numeric_limits<__int64>::digits
PUBLIC	?ate@?$_Iosb@H@std@@2W4_Openmode@12@B		; std::_Iosb<int>::ate
PUBLIC	?digits10@?$numeric_limits@_J@std@@2HB		; std::numeric_limits<__int64>::digits10
PUBLIC	?app@?$_Iosb@H@std@@2W4_Openmode@12@B		; std::_Iosb<int>::app
PUBLIC	?trunc@?$_Iosb@H@std@@2W4_Openmode@12@B		; std::_Iosb<int>::trunc
PUBLIC	?_Nocreate@?$_Iosb@H@std@@2W4_Openmode@12@B	; std::_Iosb<int>::_Nocreate
PUBLIC	?_Noreplace@?$_Iosb@H@std@@2W4_Openmode@12@B	; std::_Iosb<int>::_Noreplace
PUBLIC	?binary@?$_Iosb@H@std@@2W4_Openmode@12@B	; std::_Iosb<int>::binary
PUBLIC	?TeamInfo@@3PAPAVTeamClass@@A			; TeamInfo
PUBLIC	?beg@?$_Iosb@H@std@@2W4_Seekdir@12@B		; std::_Iosb<int>::beg
PUBLIC	?cur@?$_Iosb@H@std@@2W4_Seekdir@12@B		; std::_Iosb<int>::cur
PUBLIC	?end@?$_Iosb@H@std@@2W4_Seekdir@12@B		; std::_Iosb<int>::end
PUBLIC	?is_signed@?$numeric_limits@_K@std@@2_NB	; std::numeric_limits<unsigned __int64>::is_signed
PUBLIC	?digits@?$numeric_limits@_K@std@@2HB		; std::numeric_limits<unsigned __int64>::digits
PUBLIC	?digits10@?$numeric_limits@_K@std@@2HB		; std::numeric_limits<unsigned __int64>::digits10
PUBLIC	?_Stream_err@failure@ios_base@std@@0W4io_errc@43@B ; std::ios_base::failure::_Stream_err
PUBLIC	?digits@?$numeric_limits@M@std@@2HB		; std::numeric_limits<float>::digits
PUBLIC	?digits10@?$numeric_limits@M@std@@2HB		; std::numeric_limits<float>::digits10
PUBLIC	?max_digits10@?$numeric_limits@M@std@@2HB	; std::numeric_limits<float>::max_digits10
PUBLIC	?max_exponent@?$numeric_limits@M@std@@2HB	; std::numeric_limits<float>::max_exponent
PUBLIC	?max_exponent10@?$numeric_limits@M@std@@2HB	; std::numeric_limits<float>::max_exponent10
PUBLIC	?min_exponent@?$numeric_limits@M@std@@2HB	; std::numeric_limits<float>::min_exponent
PUBLIC	?min_exponent10@?$numeric_limits@M@std@@2HB	; std::numeric_limits<float>::min_exponent10
PUBLIC	?value@?$integral_constant@I$0A@@std@@2IB	; std::integral_constant<unsigned int,0>::value
PUBLIC	?digits@?$numeric_limits@N@std@@2HB		; std::numeric_limits<double>::digits
PUBLIC	?digits10@?$numeric_limits@N@std@@2HB		; std::numeric_limits<double>::digits10
PUBLIC	?max_digits10@?$numeric_limits@N@std@@2HB	; std::numeric_limits<double>::max_digits10
PUBLIC	?max_exponent@?$numeric_limits@N@std@@2HB	; std::numeric_limits<double>::max_exponent
PUBLIC	?max_exponent10@?$numeric_limits@N@std@@2HB	; std::numeric_limits<double>::max_exponent10
PUBLIC	?min_exponent@?$numeric_limits@N@std@@2HB	; std::numeric_limits<double>::min_exponent
PUBLIC	?min_exponent10@?$numeric_limits@N@std@@2HB	; std::numeric_limits<double>::min_exponent10
PUBLIC	?digits@?$numeric_limits@O@std@@2HB		; std::numeric_limits<long double>::digits
PUBLIC	?digits10@?$numeric_limits@O@std@@2HB		; std::numeric_limits<long double>::digits10
PUBLIC	?max_digits10@?$numeric_limits@O@std@@2HB	; std::numeric_limits<long double>::max_digits10
PUBLIC	?max_exponent@?$numeric_limits@O@std@@2HB	; std::numeric_limits<long double>::max_exponent
PUBLIC	?max_exponent10@?$numeric_limits@O@std@@2HB	; std::numeric_limits<long double>::max_exponent10
PUBLIC	?min_exponent@?$numeric_limits@O@std@@2HB	; std::numeric_limits<long double>::min_exponent
PUBLIC	?min_exponent10@?$numeric_limits@O@std@@2HB	; std::numeric_limits<long double>::min_exponent10
PUBLIC	?value@?$_Sizeof@U_Nil@std@@U12@U12@U12@U12@U12@U12@U12@@std@@2IB ; std::_Sizeof<std::_Nil,std::_Nil,std::_Nil,std::_Nil,std::_Nil,std::_Nil,std::_Nil,std::_Nil>::value
PUBLIC	?collate@?$_Locbase@H@std@@2HB			; std::_Locbase<int>::collate
PUBLIC	?ctype@?$_Locbase@H@std@@2HB			; std::_Locbase<int>::ctype
PUBLIC	?monetary@?$_Locbase@H@std@@2HB			; std::_Locbase<int>::monetary
PUBLIC	?numeric@?$_Locbase@H@std@@2HB			; std::_Locbase<int>::numeric
PUBLIC	?time@?$_Locbase@H@std@@2HB			; std::_Locbase<int>::time
PUBLIC	?messages@?$_Locbase@H@std@@2HB			; std::_Locbase<int>::messages
PUBLIC	?all@?$_Locbase@H@std@@2HB			; std::_Locbase<int>::all
PUBLIC	?none@?$_Locbase@H@std@@2HB			; std::_Locbase<int>::none
PUBLIC	?has_denorm@_Num_base@std@@2W4float_denorm_style@2@B ; std::_Num_base::has_denorm
PUBLIC	?has_denorm_loss@_Num_base@std@@2_NB		; std::_Num_base::has_denorm_loss
PUBLIC	?has_infinity@_Num_base@std@@2_NB		; std::_Num_base::has_infinity
PUBLIC	?has_quiet_NaN@_Num_base@std@@2_NB		; std::_Num_base::has_quiet_NaN
PUBLIC	?has_signaling_NaN@_Num_base@std@@2_NB		; std::_Num_base::has_signaling_NaN
PUBLIC	?is_bounded@_Num_base@std@@2_NB			; std::_Num_base::is_bounded
PUBLIC	?is_exact@_Num_base@std@@2_NB			; std::_Num_base::is_exact
PUBLIC	?is_iec559@_Num_base@std@@2_NB			; std::_Num_base::is_iec559
PUBLIC	?is_integer@_Num_base@std@@2_NB			; std::_Num_base::is_integer
PUBLIC	?is_modulo@_Num_base@std@@2_NB			; std::_Num_base::is_modulo
PUBLIC	?is_signed@_Num_base@std@@2_NB			; std::_Num_base::is_signed
PUBLIC	?is_specialized@_Num_base@std@@2_NB		; std::_Num_base::is_specialized
_BSS	SEGMENT
?teamManagerDIndex@@3FA DW 01H DUP (?)			; teamManagerDIndex
	ALIGN	4

?DefaultObjtypePriority@@3PAY0CE@EA DB 0b4H DUP (?)	; DefaultObjtypePriority
?DefaultUnittypePriority@@3PAY0BE@EA DB 064H DUP (?)	; DefaultUnittypePriority
?DefaultMissionPriority@@3PAY0CJ@EA DB 0cdH DUP (?)	; DefaultMissionPriority
	ALIGN	4

?TeamInfo@@3PAPAVTeamClass@@A DD 08H DUP (?)		; TeamInfo
_BSS	ENDS
;	COMDAT ?is_specialized@_Num_base@std@@2_NB
CONST	SEGMENT
?is_specialized@_Num_base@std@@2_NB DB 00H		; std::_Num_base::is_specialized
CONST	ENDS
;	COMDAT ?is_signed@_Num_base@std@@2_NB
CONST	SEGMENT
?is_signed@_Num_base@std@@2_NB DB 00H			; std::_Num_base::is_signed
CONST	ENDS
;	COMDAT ?is_modulo@_Num_base@std@@2_NB
CONST	SEGMENT
?is_modulo@_Num_base@std@@2_NB DB 00H			; std::_Num_base::is_modulo
CONST	ENDS
;	COMDAT ?is_integer@_Num_base@std@@2_NB
CONST	SEGMENT
?is_integer@_Num_base@std@@2_NB DB 00H			; std::_Num_base::is_integer
CONST	ENDS
;	COMDAT ?is_iec559@_Num_base@std@@2_NB
CONST	SEGMENT
?is_iec559@_Num_base@std@@2_NB DB 00H			; std::_Num_base::is_iec559
CONST	ENDS
;	COMDAT ?is_exact@_Num_base@std@@2_NB
CONST	SEGMENT
?is_exact@_Num_base@std@@2_NB DB 00H			; std::_Num_base::is_exact
CONST	ENDS
;	COMDAT ?is_bounded@_Num_base@std@@2_NB
CONST	SEGMENT
?is_bounded@_Num_base@std@@2_NB DB 00H			; std::_Num_base::is_bounded
CONST	ENDS
;	COMDAT ?has_signaling_NaN@_Num_base@std@@2_NB
CONST	SEGMENT
?has_signaling_NaN@_Num_base@std@@2_NB DB 00H		; std::_Num_base::has_signaling_NaN
CONST	ENDS
;	COMDAT ?has_quiet_NaN@_Num_base@std@@2_NB
CONST	SEGMENT
?has_quiet_NaN@_Num_base@std@@2_NB DB 00H		; std::_Num_base::has_quiet_NaN
CONST	ENDS
;	COMDAT ?has_infinity@_Num_base@std@@2_NB
CONST	SEGMENT
?has_infinity@_Num_base@std@@2_NB DB 00H		; std::_Num_base::has_infinity
CONST	ENDS
;	COMDAT ?has_denorm_loss@_Num_base@std@@2_NB
CONST	SEGMENT
?has_denorm_loss@_Num_base@std@@2_NB DB 00H		; std::_Num_base::has_denorm_loss
CONST	ENDS
;	COMDAT ?has_denorm@_Num_base@std@@2W4float_denorm_style@2@B
CONST	SEGMENT
?has_denorm@_Num_base@std@@2W4float_denorm_style@2@B DD 00H ; std::_Num_base::has_denorm
CONST	ENDS
;	COMDAT ?none@?$_Locbase@H@std@@2HB
CONST	SEGMENT
?none@?$_Locbase@H@std@@2HB DD 00H			; std::_Locbase<int>::none
CONST	ENDS
;	COMDAT ?all@?$_Locbase@H@std@@2HB
CONST	SEGMENT
?all@?$_Locbase@H@std@@2HB DD 03fH			; std::_Locbase<int>::all
CONST	ENDS
;	COMDAT ?messages@?$_Locbase@H@std@@2HB
CONST	SEGMENT
?messages@?$_Locbase@H@std@@2HB DD 020H			; std::_Locbase<int>::messages
CONST	ENDS
;	COMDAT ?time@?$_Locbase@H@std@@2HB
CONST	SEGMENT
?time@?$_Locbase@H@std@@2HB DD 010H			; std::_Locbase<int>::time
CONST	ENDS
;	COMDAT ?numeric@?$_Locbase@H@std@@2HB
CONST	SEGMENT
?numeric@?$_Locbase@H@std@@2HB DD 08H			; std::_Locbase<int>::numeric
CONST	ENDS
;	COMDAT ?monetary@?$_Locbase@H@std@@2HB
CONST	SEGMENT
?monetary@?$_Locbase@H@std@@2HB DD 04H			; std::_Locbase<int>::monetary
CONST	ENDS
;	COMDAT ?ctype@?$_Locbase@H@std@@2HB
CONST	SEGMENT
?ctype@?$_Locbase@H@std@@2HB DD 02H			; std::_Locbase<int>::ctype
CONST	ENDS
;	COMDAT ?collate@?$_Locbase@H@std@@2HB
CONST	SEGMENT
?collate@?$_Locbase@H@std@@2HB DD 01H			; std::_Locbase<int>::collate
CONST	ENDS
;	COMDAT ?value@?$_Sizeof@U_Nil@std@@U12@U12@U12@U12@U12@U12@U12@@std@@2IB
CONST	SEGMENT
?value@?$_Sizeof@U_Nil@std@@U12@U12@U12@U12@U12@U12@U12@@std@@2IB DD 00H ; std::_Sizeof<std::_Nil,std::_Nil,std::_Nil,std::_Nil,std::_Nil,std::_Nil,std::_Nil,std::_Nil>::value
CONST	ENDS
;	COMDAT ?min_exponent10@?$numeric_limits@O@std@@2HB
CONST	SEGMENT
?min_exponent10@?$numeric_limits@O@std@@2HB DD 0fffffecdH ; std::numeric_limits<long double>::min_exponent10
CONST	ENDS
;	COMDAT ?min_exponent@?$numeric_limits@O@std@@2HB
CONST	SEGMENT
?min_exponent@?$numeric_limits@O@std@@2HB DD 0fffffc03H	; std::numeric_limits<long double>::min_exponent
CONST	ENDS
;	COMDAT ?max_exponent10@?$numeric_limits@O@std@@2HB
CONST	SEGMENT
?max_exponent10@?$numeric_limits@O@std@@2HB DD 0134H	; std::numeric_limits<long double>::max_exponent10
CONST	ENDS
;	COMDAT ?max_exponent@?$numeric_limits@O@std@@2HB
CONST	SEGMENT
?max_exponent@?$numeric_limits@O@std@@2HB DD 0400H	; std::numeric_limits<long double>::max_exponent
CONST	ENDS
;	COMDAT ?max_digits10@?$numeric_limits@O@std@@2HB
CONST	SEGMENT
?max_digits10@?$numeric_limits@O@std@@2HB DD 011H	; std::numeric_limits<long double>::max_digits10
CONST	ENDS
;	COMDAT ?digits10@?$numeric_limits@O@std@@2HB
CONST	SEGMENT
?digits10@?$numeric_limits@O@std@@2HB DD 0fH		; std::numeric_limits<long double>::digits10
CONST	ENDS
;	COMDAT ?digits@?$numeric_limits@O@std@@2HB
CONST	SEGMENT
?digits@?$numeric_limits@O@std@@2HB DD 035H		; std::numeric_limits<long double>::digits
CONST	ENDS
;	COMDAT ?min_exponent10@?$numeric_limits@N@std@@2HB
CONST	SEGMENT
?min_exponent10@?$numeric_limits@N@std@@2HB DD 0fffffecdH ; std::numeric_limits<double>::min_exponent10
CONST	ENDS
;	COMDAT ?min_exponent@?$numeric_limits@N@std@@2HB
CONST	SEGMENT
?min_exponent@?$numeric_limits@N@std@@2HB DD 0fffffc03H	; std::numeric_limits<double>::min_exponent
CONST	ENDS
;	COMDAT ?max_exponent10@?$numeric_limits@N@std@@2HB
CONST	SEGMENT
?max_exponent10@?$numeric_limits@N@std@@2HB DD 0134H	; std::numeric_limits<double>::max_exponent10
CONST	ENDS
;	COMDAT ?max_exponent@?$numeric_limits@N@std@@2HB
CONST	SEGMENT
?max_exponent@?$numeric_limits@N@std@@2HB DD 0400H	; std::numeric_limits<double>::max_exponent
CONST	ENDS
;	COMDAT ?max_digits10@?$numeric_limits@N@std@@2HB
CONST	SEGMENT
?max_digits10@?$numeric_limits@N@std@@2HB DD 011H	; std::numeric_limits<double>::max_digits10
CONST	ENDS
;	COMDAT ?digits10@?$numeric_limits@N@std@@2HB
CONST	SEGMENT
?digits10@?$numeric_limits@N@std@@2HB DD 0fH		; std::numeric_limits<double>::digits10
CONST	ENDS
;	COMDAT ?digits@?$numeric_limits@N@std@@2HB
CONST	SEGMENT
?digits@?$numeric_limits@N@std@@2HB DD 035H		; std::numeric_limits<double>::digits
CONST	ENDS
;	COMDAT ?value@?$integral_constant@I$0A@@std@@2IB
CONST	SEGMENT
?value@?$integral_constant@I$0A@@std@@2IB DD 00H	; std::integral_constant<unsigned int,0>::value
CONST	ENDS
;	COMDAT ?min_exponent10@?$numeric_limits@M@std@@2HB
CONST	SEGMENT
?min_exponent10@?$numeric_limits@M@std@@2HB DD 0ffffffdbH ; std::numeric_limits<float>::min_exponent10
CONST	ENDS
;	COMDAT ?min_exponent@?$numeric_limits@M@std@@2HB
CONST	SEGMENT
?min_exponent@?$numeric_limits@M@std@@2HB DD 0ffffff83H	; std::numeric_limits<float>::min_exponent
CONST	ENDS
;	COMDAT ?max_exponent10@?$numeric_limits@M@std@@2HB
CONST	SEGMENT
?max_exponent10@?$numeric_limits@M@std@@2HB DD 026H	; std::numeric_limits<float>::max_exponent10
CONST	ENDS
;	COMDAT ?max_exponent@?$numeric_limits@M@std@@2HB
CONST	SEGMENT
?max_exponent@?$numeric_limits@M@std@@2HB DD 080H	; std::numeric_limits<float>::max_exponent
CONST	ENDS
;	COMDAT ?max_digits10@?$numeric_limits@M@std@@2HB
CONST	SEGMENT
?max_digits10@?$numeric_limits@M@std@@2HB DD 09H	; std::numeric_limits<float>::max_digits10
CONST	ENDS
;	COMDAT ?digits10@?$numeric_limits@M@std@@2HB
CONST	SEGMENT
?digits10@?$numeric_limits@M@std@@2HB DD 06H		; std::numeric_limits<float>::digits10
CONST	ENDS
;	COMDAT ?digits@?$numeric_limits@M@std@@2HB
CONST	SEGMENT
?digits@?$numeric_limits@M@std@@2HB DD 018H		; std::numeric_limits<float>::digits
CONST	ENDS
;	COMDAT ?_Stream_err@failure@ios_base@std@@0W4io_errc@43@B
CONST	SEGMENT
?_Stream_err@failure@ios_base@std@@0W4io_errc@43@B DD 01H ; std::ios_base::failure::_Stream_err
CONST	ENDS
;	COMDAT ?digits10@?$numeric_limits@_K@std@@2HB
CONST	SEGMENT
?digits10@?$numeric_limits@_K@std@@2HB DD 013H		; std::numeric_limits<unsigned __int64>::digits10
CONST	ENDS
;	COMDAT ?digits@?$numeric_limits@_K@std@@2HB
CONST	SEGMENT
?digits@?$numeric_limits@_K@std@@2HB DD 040H		; std::numeric_limits<unsigned __int64>::digits
CONST	ENDS
;	COMDAT ?is_signed@?$numeric_limits@_K@std@@2_NB
CONST	SEGMENT
?is_signed@?$numeric_limits@_K@std@@2_NB DB 00H		; std::numeric_limits<unsigned __int64>::is_signed
CONST	ENDS
;	COMDAT ?end@?$_Iosb@H@std@@2W4_Seekdir@12@B
CONST	SEGMENT
?end@?$_Iosb@H@std@@2W4_Seekdir@12@B DD 02H		; std::_Iosb<int>::end
CONST	ENDS
;	COMDAT ?cur@?$_Iosb@H@std@@2W4_Seekdir@12@B
CONST	SEGMENT
?cur@?$_Iosb@H@std@@2W4_Seekdir@12@B DD 01H		; std::_Iosb<int>::cur
CONST	ENDS
;	COMDAT ?beg@?$_Iosb@H@std@@2W4_Seekdir@12@B
CONST	SEGMENT
?beg@?$_Iosb@H@std@@2W4_Seekdir@12@B DD 00H		; std::_Iosb<int>::beg
CONST	ENDS
;	COMDAT ?binary@?$_Iosb@H@std@@2W4_Openmode@12@B
CONST	SEGMENT
?binary@?$_Iosb@H@std@@2W4_Openmode@12@B DD 020H	; std::_Iosb<int>::binary
CONST	ENDS
;	COMDAT ?_Noreplace@?$_Iosb@H@std@@2W4_Openmode@12@B
CONST	SEGMENT
?_Noreplace@?$_Iosb@H@std@@2W4_Openmode@12@B DD 080H	; std::_Iosb<int>::_Noreplace
CONST	ENDS
;	COMDAT ?_Nocreate@?$_Iosb@H@std@@2W4_Openmode@12@B
CONST	SEGMENT
?_Nocreate@?$_Iosb@H@std@@2W4_Openmode@12@B DD 040H	; std::_Iosb<int>::_Nocreate
CONST	ENDS
;	COMDAT ?trunc@?$_Iosb@H@std@@2W4_Openmode@12@B
CONST	SEGMENT
?trunc@?$_Iosb@H@std@@2W4_Openmode@12@B DD 010H		; std::_Iosb<int>::trunc
CONST	ENDS
;	COMDAT ?app@?$_Iosb@H@std@@2W4_Openmode@12@B
CONST	SEGMENT
?app@?$_Iosb@H@std@@2W4_Openmode@12@B DD 08H		; std::_Iosb<int>::app
CONST	ENDS
;	COMDAT ?digits10@?$numeric_limits@_J@std@@2HB
CONST	SEGMENT
?digits10@?$numeric_limits@_J@std@@2HB DD 012H		; std::numeric_limits<__int64>::digits10
CONST	ENDS
;	COMDAT ?ate@?$_Iosb@H@std@@2W4_Openmode@12@B
CONST	SEGMENT
?ate@?$_Iosb@H@std@@2W4_Openmode@12@B DD 04H		; std::_Iosb<int>::ate
CONST	ENDS
;	COMDAT ?digits@?$numeric_limits@_J@std@@2HB
CONST	SEGMENT
?digits@?$numeric_limits@_J@std@@2HB DD 03fH		; std::numeric_limits<__int64>::digits
CONST	ENDS
;	COMDAT ?out@?$_Iosb@H@std@@2W4_Openmode@12@B
CONST	SEGMENT
?out@?$_Iosb@H@std@@2W4_Openmode@12@B DD 02H		; std::_Iosb<int>::out
CONST	ENDS
;	COMDAT ?in@?$_Iosb@H@std@@2W4_Openmode@12@B
CONST	SEGMENT
?in@?$_Iosb@H@std@@2W4_Openmode@12@B DD 01H		; std::_Iosb<int>::in
CONST	ENDS
;	COMDAT ?is_signed@?$numeric_limits@_J@std@@2_NB
CONST	SEGMENT
?is_signed@?$numeric_limits@_J@std@@2_NB DB 01H		; std::numeric_limits<__int64>::is_signed
CONST	ENDS
;	COMDAT ?_Hardfail@?$_Iosb@H@std@@2W4_Iostate@12@B
CONST	SEGMENT
?_Hardfail@?$_Iosb@H@std@@2W4_Iostate@12@B DD 010H	; std::_Iosb<int>::_Hardfail
CONST	ENDS
;	COMDAT ?badbit@?$_Iosb@H@std@@2W4_Iostate@12@B
CONST	SEGMENT
?badbit@?$_Iosb@H@std@@2W4_Iostate@12@B DD 04H		; std::_Iosb<int>::badbit
CONST	ENDS
;	COMDAT ?failbit@?$_Iosb@H@std@@2W4_Iostate@12@B
CONST	SEGMENT
?failbit@?$_Iosb@H@std@@2W4_Iostate@12@B DD 02H		; std::_Iosb<int>::failbit
CONST	ENDS
;	COMDAT ?eofbit@?$_Iosb@H@std@@2W4_Iostate@12@B
CONST	SEGMENT
?eofbit@?$_Iosb@H@std@@2W4_Iostate@12@B DD 01H		; std::_Iosb<int>::eofbit
CONST	ENDS
;	COMDAT ?goodbit@?$_Iosb@H@std@@2W4_Iostate@12@B
CONST	SEGMENT
?goodbit@?$_Iosb@H@std@@2W4_Iostate@12@B DD 00H		; std::_Iosb<int>::goodbit
CONST	ENDS
;	COMDAT ?floatfield@?$_Iosb@H@std@@2W4_Fmtflags@12@B
CONST	SEGMENT
?floatfield@?$_Iosb@H@std@@2W4_Fmtflags@12@B DD 03000H	; std::_Iosb<int>::floatfield
CONST	ENDS
;	COMDAT ?basefield@?$_Iosb@H@std@@2W4_Fmtflags@12@B
CONST	SEGMENT
?basefield@?$_Iosb@H@std@@2W4_Fmtflags@12@B DD 0e00H	; std::_Iosb<int>::basefield
CONST	ENDS
;	COMDAT ?adjustfield@?$_Iosb@H@std@@2W4_Fmtflags@12@B
CONST	SEGMENT
?adjustfield@?$_Iosb@H@std@@2W4_Fmtflags@12@B DD 01c0H	; std::_Iosb<int>::adjustfield
CONST	ENDS
;	COMDAT ?digits10@?$numeric_limits@K@std@@2HB
CONST	SEGMENT
?digits10@?$numeric_limits@K@std@@2HB DD 09H		; std::numeric_limits<unsigned long>::digits10
CONST	ENDS
;	COMDAT ?_Stdio@?$_Iosb@H@std@@2W4_Fmtflags@12@B
CONST	SEGMENT
?_Stdio@?$_Iosb@H@std@@2W4_Fmtflags@12@B DD 08000H	; std::_Iosb<int>::_Stdio
CONST	ENDS
;	COMDAT ?boolalpha@?$_Iosb@H@std@@2W4_Fmtflags@12@B
CONST	SEGMENT
?boolalpha@?$_Iosb@H@std@@2W4_Fmtflags@12@B DD 04000H	; std::_Iosb<int>::boolalpha
CONST	ENDS
;	COMDAT ?digits@?$numeric_limits@K@std@@2HB
CONST	SEGMENT
?digits@?$numeric_limits@K@std@@2HB DD 020H		; std::numeric_limits<unsigned long>::digits
CONST	ENDS
;	COMDAT ?hexfloat@?$_Iosb@H@std@@2W4_Fmtflags@12@B
CONST	SEGMENT
?hexfloat@?$_Iosb@H@std@@2W4_Fmtflags@12@B DD 03000H	; std::_Iosb<int>::hexfloat
CONST	ENDS
;	COMDAT ?is_signed@?$numeric_limits@K@std@@2_NB
CONST	SEGMENT
?is_signed@?$numeric_limits@K@std@@2_NB DB 00H		; std::numeric_limits<unsigned long>::is_signed
CONST	ENDS
;	COMDAT ?fixed@?$_Iosb@H@std@@2W4_Fmtflags@12@B
CONST	SEGMENT
?fixed@?$_Iosb@H@std@@2W4_Fmtflags@12@B DD 02000H	; std::_Iosb<int>::fixed
CONST	ENDS
;	COMDAT ?scientific@?$_Iosb@H@std@@2W4_Fmtflags@12@B
CONST	SEGMENT
?scientific@?$_Iosb@H@std@@2W4_Fmtflags@12@B DD 01000H	; std::_Iosb<int>::scientific
CONST	ENDS
;	COMDAT ?hex@?$_Iosb@H@std@@2W4_Fmtflags@12@B
CONST	SEGMENT
?hex@?$_Iosb@H@std@@2W4_Fmtflags@12@B DD 0800H		; std::_Iosb<int>::hex
CONST	ENDS
;	COMDAT ?oct@?$_Iosb@H@std@@2W4_Fmtflags@12@B
CONST	SEGMENT
?oct@?$_Iosb@H@std@@2W4_Fmtflags@12@B DD 0400H		; std::_Iosb<int>::oct
CONST	ENDS
;	COMDAT ?dec@?$_Iosb@H@std@@2W4_Fmtflags@12@B
CONST	SEGMENT
?dec@?$_Iosb@H@std@@2W4_Fmtflags@12@B DD 0200H		; std::_Iosb<int>::dec
CONST	ENDS
;	COMDAT ?internal@?$_Iosb@H@std@@2W4_Fmtflags@12@B
CONST	SEGMENT
?internal@?$_Iosb@H@std@@2W4_Fmtflags@12@B DD 0100H	; std::_Iosb<int>::internal
CONST	ENDS
;	COMDAT ?right@?$_Iosb@H@std@@2W4_Fmtflags@12@B
CONST	SEGMENT
?right@?$_Iosb@H@std@@2W4_Fmtflags@12@B DD 080H		; std::_Iosb<int>::right
CONST	ENDS
;	COMDAT ?left@?$_Iosb@H@std@@2W4_Fmtflags@12@B
CONST	SEGMENT
?left@?$_Iosb@H@std@@2W4_Fmtflags@12@B DD 040H		; std::_Iosb<int>::left
CONST	ENDS
;	COMDAT ?showpos@?$_Iosb@H@std@@2W4_Fmtflags@12@B
CONST	SEGMENT
?showpos@?$_Iosb@H@std@@2W4_Fmtflags@12@B DD 020H	; std::_Iosb<int>::showpos
CONST	ENDS
;	COMDAT ?showpoint@?$_Iosb@H@std@@2W4_Fmtflags@12@B
CONST	SEGMENT
?showpoint@?$_Iosb@H@std@@2W4_Fmtflags@12@B DD 010H	; std::_Iosb<int>::showpoint
CONST	ENDS
;	COMDAT ?digits10@?$numeric_limits@J@std@@2HB
CONST	SEGMENT
?digits10@?$numeric_limits@J@std@@2HB DD 09H		; std::numeric_limits<long>::digits10
CONST	ENDS
;	COMDAT ?showbase@?$_Iosb@H@std@@2W4_Fmtflags@12@B
CONST	SEGMENT
?showbase@?$_Iosb@H@std@@2W4_Fmtflags@12@B DD 08H	; std::_Iosb<int>::showbase
CONST	ENDS
;	COMDAT ?uppercase@?$_Iosb@H@std@@2W4_Fmtflags@12@B
CONST	SEGMENT
?uppercase@?$_Iosb@H@std@@2W4_Fmtflags@12@B DD 04H	; std::_Iosb<int>::uppercase
CONST	ENDS
;	COMDAT ?digits@?$numeric_limits@J@std@@2HB
CONST	SEGMENT
?digits@?$numeric_limits@J@std@@2HB DD 01fH		; std::numeric_limits<long>::digits
CONST	ENDS
;	COMDAT ?unitbuf@?$_Iosb@H@std@@2W4_Fmtflags@12@B
CONST	SEGMENT
?unitbuf@?$_Iosb@H@std@@2W4_Fmtflags@12@B DD 02H	; std::_Iosb<int>::unitbuf
CONST	ENDS
;	COMDAT ?is_signed@?$numeric_limits@J@std@@2_NB
CONST	SEGMENT
?is_signed@?$numeric_limits@J@std@@2_NB DB 01H		; std::numeric_limits<long>::is_signed
CONST	ENDS
;	COMDAT ?skipws@?$_Iosb@H@std@@2W4_Fmtflags@12@B
CONST	SEGMENT
?skipws@?$_Iosb@H@std@@2W4_Fmtflags@12@B DD 01H		; std::_Iosb<int>::skipws
CONST	ENDS
;	COMDAT ?digits10@?$numeric_limits@I@std@@2HB
CONST	SEGMENT
?digits10@?$numeric_limits@I@std@@2HB DD 09H		; std::numeric_limits<unsigned int>::digits10
CONST	ENDS
;	COMDAT ?digits@?$numeric_limits@I@std@@2HB
CONST	SEGMENT
?digits@?$numeric_limits@I@std@@2HB DD 020H		; std::numeric_limits<unsigned int>::digits
CONST	ENDS
;	COMDAT ?is_signed@?$numeric_limits@I@std@@2_NB
CONST	SEGMENT
?is_signed@?$numeric_limits@I@std@@2_NB DB 00H		; std::numeric_limits<unsigned int>::is_signed
CONST	ENDS
CONST	SEGMENT
_L_2	DD	03f317218r			; 0.693147
CONST	ENDS
;	COMDAT ?digits10@?$numeric_limits@H@std@@2HB
CONST	SEGMENT
?digits10@?$numeric_limits@H@std@@2HB DD 09H		; std::numeric_limits<int>::digits10
CONST	ENDS
;	COMDAT ?digits@?$numeric_limits@H@std@@2HB
CONST	SEGMENT
?digits@?$numeric_limits@H@std@@2HB DD 01fH		; std::numeric_limits<int>::digits
CONST	ENDS
;	COMDAT ?value@?$_Sizeof@HU_Nil@std@@U12@U12@U12@U12@U12@U12@@std@@2IB
CONST	SEGMENT
?value@?$_Sizeof@HU_Nil@std@@U12@U12@U12@U12@U12@U12@@std@@2IB DD 01H ; std::_Sizeof<int,std::_Nil,std::_Nil,std::_Nil,std::_Nil,std::_Nil,std::_Nil,std::_Nil>::value
CONST	ENDS
;	COMDAT ?is_signed@?$numeric_limits@H@std@@2_NB
CONST	SEGMENT
?is_signed@?$numeric_limits@H@std@@2_NB DB 01H		; std::numeric_limits<int>::is_signed
CONST	ENDS
;	COMDAT ?digits10@?$numeric_limits@G@std@@2HB
CONST	SEGMENT
?digits10@?$numeric_limits@G@std@@2HB DD 04H		; std::numeric_limits<unsigned short>::digits10
CONST	ENDS
;	COMDAT ?digits@?$numeric_limits@G@std@@2HB
CONST	SEGMENT
?digits@?$numeric_limits@G@std@@2HB DD 010H		; std::numeric_limits<unsigned short>::digits
CONST	ENDS
;	COMDAT ?is_signed@?$numeric_limits@G@std@@2_NB
CONST	SEGMENT
?is_signed@?$numeric_limits@G@std@@2_NB DB 00H		; std::numeric_limits<unsigned short>::is_signed
CONST	ENDS
;	COMDAT ?digits10@?$numeric_limits@F@std@@2HB
CONST	SEGMENT
?digits10@?$numeric_limits@F@std@@2HB DD 04H		; std::numeric_limits<short>::digits10
CONST	ENDS
;	COMDAT ?digits@?$numeric_limits@F@std@@2HB
CONST	SEGMENT
?digits@?$numeric_limits@F@std@@2HB DD 0fH		; std::numeric_limits<short>::digits
CONST	ENDS
;	COMDAT ?is_signed@?$numeric_limits@F@std@@2_NB
CONST	SEGMENT
?is_signed@?$numeric_limits@F@std@@2_NB DB 01H		; std::numeric_limits<short>::is_signed
CONST	ENDS
;	COMDAT ?value@?$integral_constant@_N$00@std@@2_NB
CONST	SEGMENT
?value@?$integral_constant@_N$00@std@@2_NB DB 01H	; std::integral_constant<bool,1>::value
CONST	ENDS
;	COMDAT ?digits10@?$numeric_limits@E@std@@2HB
CONST	SEGMENT
?digits10@?$numeric_limits@E@std@@2HB DD 02H		; std::numeric_limits<unsigned char>::digits10
CONST	ENDS
;	COMDAT ?digits@?$numeric_limits@E@std@@2HB
CONST	SEGMENT
?digits@?$numeric_limits@E@std@@2HB DD 08H		; std::numeric_limits<unsigned char>::digits
CONST	ENDS
;	COMDAT ?value@?$integral_constant@_N$0A@@std@@2_NB
CONST	SEGMENT
?value@?$integral_constant@_N$0A@@std@@2_NB DB 00H	; std::integral_constant<bool,0>::value
CONST	ENDS
;	COMDAT ?is_signed@?$numeric_limits@E@std@@2_NB
CONST	SEGMENT
?is_signed@?$numeric_limits@E@std@@2_NB DB 00H		; std::numeric_limits<unsigned char>::is_signed
CONST	ENDS
;	COMDAT ?digits10@?$numeric_limits@C@std@@2HB
CONST	SEGMENT
?digits10@?$numeric_limits@C@std@@2HB DD 02H		; std::numeric_limits<signed char>::digits10
CONST	ENDS
;	COMDAT ?digits@?$numeric_limits@C@std@@2HB
CONST	SEGMENT
?digits@?$numeric_limits@C@std@@2HB DD 07H		; std::numeric_limits<signed char>::digits
CONST	ENDS
;	COMDAT ?is_signed@?$numeric_limits@C@std@@2_NB
CONST	SEGMENT
?is_signed@?$numeric_limits@C@std@@2_NB DB 01H		; std::numeric_limits<signed char>::is_signed
CONST	ENDS
;	COMDAT ?digits10@?$numeric_limits@_N@std@@2HB
CONST	SEGMENT
?digits10@?$numeric_limits@_N@std@@2HB DD 00H		; std::numeric_limits<bool>::digits10
CONST	ENDS
;	COMDAT ?digits@?$numeric_limits@_N@std@@2HB
CONST	SEGMENT
?digits@?$numeric_limits@_N@std@@2HB DD 01H		; std::numeric_limits<bool>::digits
CONST	ENDS
;	COMDAT ?is_signed@?$numeric_limits@_N@std@@2_NB
CONST	SEGMENT
?is_signed@?$numeric_limits@_N@std@@2_NB DB 00H		; std::numeric_limits<bool>::is_signed
CONST	ENDS
;	COMDAT ?is_modulo@?$numeric_limits@_N@std@@2_NB
CONST	SEGMENT
?is_modulo@?$numeric_limits@_N@std@@2_NB DB 00H		; std::numeric_limits<bool>::is_modulo
CONST	ENDS
;	COMDAT ?digits10@?$numeric_limits@_W@std@@2HB
CONST	SEGMENT
?digits10@?$numeric_limits@_W@std@@2HB DD 04H		; std::numeric_limits<wchar_t>::digits10
CONST	ENDS
;	COMDAT ?digits@?$numeric_limits@_W@std@@2HB
CONST	SEGMENT
?digits@?$numeric_limits@_W@std@@2HB DD 010H		; std::numeric_limits<wchar_t>::digits
CONST	ENDS
;	COMDAT ?is_signed@?$numeric_limits@_W@std@@2_NB
CONST	SEGMENT
?is_signed@?$numeric_limits@_W@std@@2_NB DB 00H		; std::numeric_limits<wchar_t>::is_signed
CONST	ENDS
;	COMDAT ?digits10@?$numeric_limits@D@std@@2HB
CONST	SEGMENT
?digits10@?$numeric_limits@D@std@@2HB DD 02H		; std::numeric_limits<char>::digits10
CONST	ENDS
;	COMDAT ?digits@?$numeric_limits@D@std@@2HB
CONST	SEGMENT
?digits@?$numeric_limits@D@std@@2HB DD 07H		; std::numeric_limits<char>::digits
CONST	ENDS
;	COMDAT ?is_signed@?$numeric_limits@D@std@@2_NB
CONST	SEGMENT
?is_signed@?$numeric_limits@D@std@@2_NB DB 01H		; std::numeric_limits<char>::is_signed
CONST	ENDS
;	COMDAT ?radix@_Num_float_base@std@@2HB
CONST	SEGMENT
?radix@_Num_float_base@std@@2HB DD 02H			; std::_Num_float_base::radix
CONST	ENDS
;	COMDAT ?round_style@_Num_float_base@std@@2W4float_round_style@2@B
CONST	SEGMENT
?round_style@_Num_float_base@std@@2W4float_round_style@2@B DD 01H ; std::_Num_float_base::round_style
CONST	ENDS
;	COMDAT ?traps@_Num_float_base@std@@2_NB
CONST	SEGMENT
?traps@_Num_float_base@std@@2_NB DB 00H			; std::_Num_float_base::traps
CONST	ENDS
;	COMDAT ?tinyness_before@_Num_float_base@std@@2_NB
CONST	SEGMENT
?tinyness_before@_Num_float_base@std@@2_NB DB 01H	; std::_Num_float_base::tinyness_before
CONST	ENDS
;	COMDAT ?is_specialized@_Num_float_base@std@@2_NB
CONST	SEGMENT
?is_specialized@_Num_float_base@std@@2_NB DB 01H	; std::_Num_float_base::is_specialized
CONST	ENDS
;	COMDAT ?is_signed@_Num_float_base@std@@2_NB
CONST	SEGMENT
?is_signed@_Num_float_base@std@@2_NB DB 01H		; std::_Num_float_base::is_signed
CONST	ENDS
;	COMDAT ?is_modulo@_Num_float_base@std@@2_NB
CONST	SEGMENT
?is_modulo@_Num_float_base@std@@2_NB DB 00H		; std::_Num_float_base::is_modulo
CONST	ENDS
;	COMDAT ?is_integer@_Num_float_base@std@@2_NB
CONST	SEGMENT
?is_integer@_Num_float_base@std@@2_NB DB 00H		; std::_Num_float_base::is_integer
CONST	ENDS
;	COMDAT ?is_iec559@_Num_float_base@std@@2_NB
CONST	SEGMENT
?is_iec559@_Num_float_base@std@@2_NB DB 01H		; std::_Num_float_base::is_iec559
CONST	ENDS
;	COMDAT ?is_exact@_Num_float_base@std@@2_NB
CONST	SEGMENT
?is_exact@_Num_float_base@std@@2_NB DB 00H		; std::_Num_float_base::is_exact
CONST	ENDS
;	COMDAT ?is_bounded@_Num_float_base@std@@2_NB
CONST	SEGMENT
?is_bounded@_Num_float_base@std@@2_NB DB 01H		; std::_Num_float_base::is_bounded
CONST	ENDS
;	COMDAT ?has_signaling_NaN@_Num_float_base@std@@2_NB
CONST	SEGMENT
?has_signaling_NaN@_Num_float_base@std@@2_NB DB 01H	; std::_Num_float_base::has_signaling_NaN
CONST	ENDS
;	COMDAT ?has_quiet_NaN@_Num_float_base@std@@2_NB
CONST	SEGMENT
?has_quiet_NaN@_Num_float_base@std@@2_NB DB 01H		; std::_Num_float_base::has_quiet_NaN
CONST	ENDS
;	COMDAT ?has_infinity@_Num_float_base@std@@2_NB
CONST	SEGMENT
?has_infinity@_Num_float_base@std@@2_NB DB 01H		; std::_Num_float_base::has_infinity
CONST	ENDS
;	COMDAT ?CMPDIRTYDATA_INTERVAL@FalconEntity@@2KB
CONST	SEGMENT
?CMPDIRTYDATA_INTERVAL@FalconEntity@@2KB DD 0c8H	; FalconEntity::CMPDIRTYDATA_INTERVAL
CONST	ENDS
;	COMDAT ?SIMDIRTYDATA_INTERVAL@FalconEntity@@2KB
CONST	SEGMENT
?SIMDIRTYDATA_INTERVAL@FalconEntity@@2KB DD 0c8H	; FalconEntity::SIMDIRTYDATA_INTERVAL
CONST	ENDS
;	COMDAT ?has_denorm_loss@_Num_float_base@std@@2_NB
CONST	SEGMENT
?has_denorm_loss@_Num_float_base@std@@2_NB DB 01H	; std::_Num_float_base::has_denorm_loss
CONST	ENDS
;	COMDAT ?has_denorm@_Num_float_base@std@@2W4float_denorm_style@2@B
CONST	SEGMENT
?has_denorm@_Num_float_base@std@@2W4float_denorm_style@2@B DD 01H ; std::_Num_float_base::has_denorm
CONST	ENDS
;	COMDAT ?radix@_Num_int_base@std@@2HB
CONST	SEGMENT
?radix@_Num_int_base@std@@2HB DD 02H			; std::_Num_int_base::radix
CONST	ENDS
;	COMDAT ?is_specialized@_Num_int_base@std@@2_NB
CONST	SEGMENT
?is_specialized@_Num_int_base@std@@2_NB DB 01H		; std::_Num_int_base::is_specialized
CONST	ENDS
;	COMDAT ?is_modulo@_Num_int_base@std@@2_NB
CONST	SEGMENT
?is_modulo@_Num_int_base@std@@2_NB DB 01H		; std::_Num_int_base::is_modulo
CONST	ENDS
;	COMDAT ?is_integer@_Num_int_base@std@@2_NB
CONST	SEGMENT
?is_integer@_Num_int_base@std@@2_NB DB 01H		; std::_Num_int_base::is_integer
CONST	ENDS
;	COMDAT ?is_exact@_Num_int_base@std@@2_NB
CONST	SEGMENT
?is_exact@_Num_int_base@std@@2_NB DB 01H		; std::_Num_int_base::is_exact
CONST	ENDS
;	COMDAT ?is_bounded@_Num_int_base@std@@2_NB
CONST	SEGMENT
?is_bounded@_Num_int_base@std@@2_NB DB 01H		; std::_Num_int_base::is_bounded
CONST	ENDS
_DATA	SEGMENT
?DogfightTeamNames@@3PAY0BE@DA DB 'UFO', 00H		; DogfightTeamNames
	ORG $+16
	DB	'Crimson', 00H
	ORG $+12
	DB	'Shark', 00H
	ORG $+14
	DB	'USA', 00H
	ORG $+16
	DB	'Tiger', 00H
	ORG $+14
	DB	'UFO', 00H
	ORG $+16
	DB	'UFO', 00H
	ORG $+16
	DB	'UFO', 00H
	ORG $+16
?RoEData@@3PAY05EA DB 00H				; RoEData
	DB	00H
	DB	00H
	DB	00H
	DB	00H
	DB	00H
	DB	00H
	DB	00H
	DB	00H
	DB	00H
	DB	00H
	DB	01H
	DB	01H
	DB	01H
	DB	00H
	DB	00H
	DB	00H
	DB	01H
	DB	00H
	DB	00H
	DB	00H
	DB	00H
	DB	00H
	DB	01H
	DB	00H
	DB	00H
	DB	00H
	DB	00H
	DB	01H
	DB	01H
	DB	00H
	DB	00H
	DB	00H
	DB	00H
	DB	00H
	DB	01H
	DB	00H
	DB	00H
	DB	00H
	DB	00H
	DB	00H
	DB	00H
	DB	01H
	DB	01H
	DB	01H
	DB	00H
	DB	00H
	DB	01H
	DB	00H
	DB	00H
	DB	00H
	DB	00H
	DB	00H
	DB	01H
	DB	00H
	DB	01H
	DB	00H
	DB	00H
	DB	00H
	DB	00H
	DB	00H
	DB	00H
	DB	00H
	DB	00H
	DB	01H
	DB	01H
	DB	01H
	DB	01H
	DB	01H
	DB	00H
	DB	00H
	DB	01H
	DB	00H
	DB	00H
	DB	00H
	DB	00H
	DB	01H
	DB	01H
_DATA	ENDS
;	COMDAT ?radix@_Num_base@std@@2HB
CONST	SEGMENT
?radix@_Num_base@std@@2HB DD 00H			; std::_Num_base::radix
CONST	ENDS
;	COMDAT ?min_exponent10@_Num_base@std@@2HB
CONST	SEGMENT
?min_exponent10@_Num_base@std@@2HB DD 00H		; std::_Num_base::min_exponent10
CONST	ENDS
;	COMDAT ?min_exponent@_Num_base@std@@2HB
CONST	SEGMENT
?min_exponent@_Num_base@std@@2HB DD 00H			; std::_Num_base::min_exponent
CONST	ENDS
;	COMDAT ?table_size@?$ctype@D@std@@2IB
CONST	SEGMENT
?table_size@?$ctype@D@std@@2IB DD 0100H			; std::ctype<char>::table_size
CONST	ENDS
;	COMDAT ?max_exponent10@_Num_base@std@@2HB
CONST	SEGMENT
?max_exponent10@_Num_base@std@@2HB DD 00H		; std::_Num_base::max_exponent10
CONST	ENDS
;	COMDAT ?max_exponent@_Num_base@std@@2HB
CONST	SEGMENT
?max_exponent@_Num_base@std@@2HB DD 00H			; std::_Num_base::max_exponent
CONST	ENDS
;	COMDAT ?max_digits10@_Num_base@std@@2HB
CONST	SEGMENT
?max_digits10@_Num_base@std@@2HB DD 00H			; std::_Num_base::max_digits10
CONST	ENDS
;	COMDAT ?digits10@_Num_base@std@@2HB
CONST	SEGMENT
?digits10@_Num_base@std@@2HB DD 00H			; std::_Num_base::digits10
CONST	ENDS
;	COMDAT ?digits@_Num_base@std@@2HB
CONST	SEGMENT
?digits@_Num_base@std@@2HB DD 00H			; std::_Num_base::digits
CONST	ENDS
;	COMDAT ?round_style@_Num_base@std@@2W4float_round_style@2@B
CONST	SEGMENT
?round_style@_Num_base@std@@2W4float_round_style@2@B DD 00H ; std::_Num_base::round_style
CONST	ENDS
;	COMDAT ?traps@_Num_base@std@@2_NB
CONST	SEGMENT
?traps@_Num_base@std@@2_NB DB 00H			; std::_Num_base::traps
CONST	ENDS
;	COMDAT ?tinyness_before@_Num_base@std@@2_NB
CONST	SEGMENT
?tinyness_before@_Num_base@std@@2_NB DB 00H		; std::_Num_base::tinyness_before
CONST	ENDS
PUBLIC	??_H@YGXPAXIHP6EPAX0@Z@Z			; `vector constructor iterator'
PUBLIC	??0VU_SESSION_ID@@QAE@K@Z			; VU_SESSION_ID::VU_SESSION_ID
PUBLIC	??8VU_SESSION_ID@@QBEHABV0@@Z			; VU_SESSION_ID::operator==
PUBLIC	??0VU_ID@@QAE@XZ				; VU_ID::VU_ID
PUBLIC	??8VU_ID@@QBE_NABV0@@Z				; VU_ID::operator==
PUBLIC	??9VU_ID@@QBE_NABV0@@Z				; VU_ID::operator!=
PUBLIC	_atanf
PUBLIC	?atan@@YAMM@Z					; atan
PUBLIC	?SetAssociation@VuEntity@@QAEXVVU_ID@@@Z	; VuEntity::SetAssociation
PUBLIC	?Id@VuEntity@@QBE?AVVU_ID@@XZ			; VuEntity::Id
PUBLIC	?SetSendCreate@VuEntity@@QAEXW4VU_SEND_TYPE@1@@Z ; VuEntity::SetSendCreate
PUBLIC	?OwnerId@VuEntity@@QBE?AVVU_ID@@XZ		; VuEntity::OwnerId
PUBLIC	?VuState@VuEntity@@QBE?AW4VU_MEM@@XZ		; VuEntity::VuState
PUBLIC	?EntityType@VuEntity@@QBEPAUVuEntityType@@XZ	; VuEntity::EntityType
PUBLIC	??2@YAPAXIPAX@Z					; operator new
PUBLIC	??3@YAXPAX0@Z					; operator delete
PUBLIC	?length@?$char_traits@D@std@@SAIPBD@Z		; std::char_traits<char>::length
PUBLIC	?copy@?$char_traits@D@std@@SAPADPADPBDI@Z	; std::char_traits<char>::copy
PUBLIC	?move@?$char_traits@D@std@@SAPADPADPBDI@Z	; std::char_traits<char>::move
PUBLIC	?assign@?$char_traits@D@std@@SAXAADABD@Z	; std::char_traits<char>::assign
PUBLIC	??0logic_error@std@@QAE@PBD@Z			; std::logic_error::logic_error
PUBLIC	??1logic_error@std@@UAE@XZ			; std::logic_error::~logic_error
PUBLIC	??0logic_error@std@@QAE@ABV01@@Z		; std::logic_error::logic_error
PUBLIC	??_Glogic_error@std@@UAEPAXI@Z			; std::logic_error::`scalar deleting destructor'
PUBLIC	??0?$allocator@D@std@@QAE@XZ			; std::allocator<char>::allocator<char>
PUBLIC	?deallocate@?$allocator@D@std@@QAEXPADI@Z	; std::allocator<char>::deallocate
PUBLIC	?allocate@?$allocator@D@std@@QAEPADI@Z		; std::allocator<char>::allocate
PUBLIC	?max_size@?$allocator@D@std@@QBEIXZ		; std::allocator<char>::max_size
PUBLIC	?max_size@?$allocator_traits@V?$allocator@D@std@@@std@@SAIABV?$allocator@D@2@@Z ; std::allocator_traits<std::allocator<char> >::max_size
PUBLIC	??0?$_Wrap_alloc@V?$allocator@D@std@@@std@@QAE@XZ ; std::_Wrap_alloc<std::allocator<char> >::_Wrap_alloc<std::allocator<char> >
PUBLIC	?allocate@?$_Wrap_alloc@V?$allocator@D@std@@@std@@QAEPADI@Z ; std::_Wrap_alloc<std::allocator<char> >::allocate
PUBLIC	?deallocate@?$_Wrap_alloc@V?$allocator@D@std@@@std@@QAEXPADI@Z ; std::_Wrap_alloc<std::allocator<char> >::deallocate
PUBLIC	?max_size@?$_Wrap_alloc@V?$allocator@D@std@@@std@@QBEIXZ ; std::_Wrap_alloc<std::allocator<char> >::max_size
PUBLIC	??0?$_String_val@U?$_Simple_types@D@std@@@std@@QAE@XZ ; std::_String_val<std::_Simple_types<char> >::_String_val<std::_Simple_types<char> >
PUBLIC	?_Myptr@?$_String_val@U?$_Simple_types@D@std@@@std@@QAEPADXZ ; std::_String_val<std::_Simple_types<char> >::_Myptr
PUBLIC	?_Myptr@?$_String_val@U?$_Simple_types@D@std@@@std@@QBEPBDXZ ; std::_String_val<std::_Simple_types<char> >::_Myptr
PUBLIC	??0?$_String_alloc@$0A@U?$_String_base_types@DV?$allocator@D@std@@@std@@@std@@QAE@ABV?$allocator@D@1@@Z ; std::_String_alloc<0,std::_String_base_types<char,std::allocator<char> > >::_String_alloc<0,std::_String_base_types<char,std::allocator<char> > >
PUBLIC	?_Getal@?$_String_alloc@$0A@U?$_String_base_types@DV?$allocator@D@std@@@std@@@std@@QBE?AU?$_Wrap_alloc@V?$allocator@D@std@@@2@XZ ; std::_String_alloc<0,std::_String_base_types<char,std::allocator<char> > >::_Getal
PUBLIC	??0?$basic_string@DU?$char_traits@D@std@@V?$allocator@D@2@@std@@QAE@PBD@Z ; std::basic_string<char,std::char_traits<char>,std::allocator<char> >::basic_string<char,std::char_traits<char>,std::allocator<char> >
PUBLIC	??1?$basic_string@DU?$char_traits@D@std@@V?$allocator@D@2@@std@@QAE@XZ ; std::basic_string<char,std::char_traits<char>,std::allocator<char> >::~basic_string<char,std::char_traits<char>,std::allocator<char> >
PUBLIC	?assign@?$basic_string@DU?$char_traits@D@std@@V?$allocator@D@2@@std@@QAEAAV12@ABV12@II@Z ; std::basic_string<char,std::char_traits<char>,std::allocator<char> >::assign
PUBLIC	?assign@?$basic_string@DU?$char_traits@D@std@@V?$allocator@D@2@@std@@QAEAAV12@PBDI@Z ; std::basic_string<char,std::char_traits<char>,std::allocator<char> >::assign
PUBLIC	?assign@?$basic_string@DU?$char_traits@D@std@@V?$allocator@D@2@@std@@QAEAAV12@PBD@Z ; std::basic_string<char,std::char_traits<char>,std::allocator<char> >::assign
PUBLIC	?erase@?$basic_string@DU?$char_traits@D@std@@V?$allocator@D@2@@std@@QAEAAV12@I@Z ; std::basic_string<char,std::char_traits<char>,std::allocator<char> >::erase
PUBLIC	?erase@?$basic_string@DU?$char_traits@D@std@@V?$allocator@D@2@@std@@QAEAAV12@II@Z ; std::basic_string<char,std::char_traits<char>,std::allocator<char> >::erase
PUBLIC	?c_str@?$basic_string@DU?$char_traits@D@std@@V?$allocator@D@2@@std@@QBEPBDXZ ; std::basic_string<char,std::char_traits<char>,std::allocator<char> >::c_str
PUBLIC	?size@?$basic_string@DU?$char_traits@D@std@@V?$allocator@D@2@@std@@QBEIXZ ; std::basic_string<char,std::char_traits<char>,std::allocator<char> >::size
PUBLIC	?max_size@?$basic_string@DU?$char_traits@D@std@@V?$allocator@D@2@@std@@QBEIXZ ; std::basic_string<char,std::char_traits<char>,std::allocator<char> >::max_size
PUBLIC	?_Copy@?$basic_string@DU?$char_traits@D@std@@V?$allocator@D@2@@std@@QAEXII@Z ; std::basic_string<char,std::char_traits<char>,std::allocator<char> >::_Copy
PUBLIC	?_Eos@?$basic_string@DU?$char_traits@D@std@@V?$allocator@D@2@@std@@QAEXI@Z ; std::basic_string<char,std::char_traits<char>,std::allocator<char> >::_Eos
PUBLIC	?_Grow@?$basic_string@DU?$char_traits@D@std@@V?$allocator@D@2@@std@@QAE_NI_N@Z ; std::basic_string<char,std::char_traits<char>,std::allocator<char> >::_Grow
PUBLIC	?_Inside@?$basic_string@DU?$char_traits@D@std@@V?$allocator@D@2@@std@@QAE_NPBD@Z ; std::basic_string<char,std::char_traits<char>,std::allocator<char> >::_Inside
PUBLIC	?_Tidy@?$basic_string@DU?$char_traits@D@std@@V?$allocator@D@2@@std@@QAEX_NI@Z ; std::basic_string<char,std::char_traits<char>,std::allocator<char> >::_Tidy
PUBLIC	?_Xlen@?$basic_string@DU?$char_traits@D@std@@V?$allocator@D@2@@std@@QBEXXZ ; std::basic_string<char,std::char_traits<char>,std::allocator<char> >::_Xlen
PUBLIC	?_Xran@?$basic_string@DU?$char_traits@D@std@@V?$allocator@D@2@@std@@QBEXXZ ; std::basic_string<char,std::char_traits<char>,std::allocator<char> >::_Xran
PUBLIC	??0out_of_range@std@@QAE@ABV?$basic_string@DU?$char_traits@D@std@@V?$allocator@D@2@@1@@Z ; std::out_of_range::out_of_range
PUBLIC	??1out_of_range@std@@UAE@XZ			; std::out_of_range::~out_of_range
PUBLIC	??0out_of_range@std@@QAE@ABV01@@Z		; std::out_of_range::out_of_range
PUBLIC	??_Gout_of_range@std@@UAEPAXI@Z			; std::out_of_range::`scalar deleting destructor'
PUBLIC	??B?$VuBin@VVuSessionEntity@@@@QBE_NXZ		; VuBin<VuSessionEntity>::operator bool
PUBLIC	?get@?$VuBin@VVuSessionEntity@@@@QBEPAVVuSessionEntity@@XZ ; VuBin<VuSessionEntity>::get
PUBLIC	?RequestReliableTransmit@VuMessage@@QAEXXZ	; VuMessage::RequestReliableTransmit
PUBLIC	?get@?$VuBin@VVuEntity@@@@QBEPAVVuEntity@@XZ	; VuBin<VuEntity>::get
PUBLIC	?IsSimBase@FalconEntity@@UAE_NXZ		; FalconEntity::IsSimBase
PUBLIC	?IsCampBase@FalconEntity@@UAE_NXZ		; FalconEntity::IsCampBase
PUBLIC	?GetRadarMode@FalconEntity@@UAEHXZ		; FalconEntity::GetRadarMode
PUBLIC	?SetRadarMode@FalconEntity@@UAEXE@Z		; FalconEntity::SetRadarMode
PUBLIC	?ReturnToSearch@FalconEntity@@UAEXXZ		; FalconEntity::ReturnToSearch
PUBLIC	?SetSearchMode@FalconEntity@@UAEXE@Z		; FalconEntity::SetSearchMode
PUBLIC	?CombatClass@FalconEntity@@UAEHXZ		; FalconEntity::CombatClass
PUBLIC	?OnGround@FalconEntity@@UAEHXZ			; FalconEntity::OnGround
PUBLIC	?HasEntity@FalconEntity@@UBEHPAVVuEntity@@@Z	; FalconEntity::HasEntity
PUBLIC	?IsMissile@FalconEntity@@UAEHXZ			; FalconEntity::IsMissile
PUBLIC	?IsLauncher@FalconEntity@@UAEHXZ		; FalconEntity::IsLauncher
PUBLIC	?IsBomb@FalconEntity@@UAEHXZ			; FalconEntity::IsBomb
PUBLIC	?IsGun@FalconEntity@@UAEHXZ			; FalconEntity::IsGun
PUBLIC	?IsMover@FalconEntity@@UAEHXZ			; FalconEntity::IsMover
PUBLIC	?IsVehicle@FalconEntity@@UAEHXZ			; FalconEntity::IsVehicle
PUBLIC	?IsStatic@FalconEntity@@UAEHXZ			; FalconEntity::IsStatic
PUBLIC	?IsHelicopter@FalconEntity@@UAEHXZ		; FalconEntity::IsHelicopter
PUBLIC	?IsEject@FalconEntity@@UAEHXZ			; FalconEntity::IsEject
PUBLIC	?IsAirplane@FalconEntity@@UAEHXZ		; FalconEntity::IsAirplane
PUBLIC	?IsGroundVehicle@FalconEntity@@UAEHXZ		; FalconEntity::IsGroundVehicle
PUBLIC	?IsShip@FalconEntity@@UAEHXZ			; FalconEntity::IsShip
PUBLIC	?IsWeapon@FalconEntity@@UAEHXZ			; FalconEntity::IsWeapon
PUBLIC	?IsExploding@FalconEntity@@UAEHXZ		; FalconEntity::IsExploding
PUBLIC	?IsDead@FalconEntity@@UAEHXZ			; FalconEntity::IsDead
PUBLIC	?IsEmitting@FalconEntity@@UAEHXZ		; FalconEntity::IsEmitting
PUBLIC	?GetMovementType@FalconEntity@@UAE?AW4MoveType@@XZ ; FalconEntity::GetMovementType
PUBLIC	?IsUnit@FalconEntity@@UAEHXZ			; FalconEntity::IsUnit
PUBLIC	?IsObjective@FalconEntity@@UAEHXZ		; FalconEntity::IsObjective
PUBLIC	?IsBattalion@FalconEntity@@UAEHXZ		; FalconEntity::IsBattalion
PUBLIC	?IsBrigade@FalconEntity@@UAEHXZ			; FalconEntity::IsBrigade
PUBLIC	?IsFlight@FalconEntity@@UBEHXZ			; FalconEntity::IsFlight
PUBLIC	?IsSquadron@FalconEntity@@UAEHXZ		; FalconEntity::IsSquadron
PUBLIC	?IsPackage@FalconEntity@@UAEHXZ			; FalconEntity::IsPackage
PUBLIC	?IsTaskForce@FalconEntity@@UAEHXZ		; FalconEntity::IsTaskForce
PUBLIC	?IsSPJamming@FalconEntity@@UAEHXZ		; FalconEntity::IsSPJamming
PUBLIC	?IsAreaJamming@FalconEntity@@UAEHXZ		; FalconEntity::IsAreaJamming
PUBLIC	?HasSPJamming@FalconEntity@@UAEHXZ		; FalconEntity::HasSPJamming
PUBLIC	?HasAreaJamming@FalconEntity@@UAEHXZ		; FalconEntity::HasAreaJamming
PUBLIC	?GetRCSFactor@FalconEntity@@UAEMXZ		; FalconEntity::GetRCSFactor
PUBLIC	?GetIRFactor@FalconEntity@@UAEMXZ		; FalconEntity::GetIRFactor
PUBLIC	?SetAQUIREtimer@FalconEntity@@UAEXK@Z		; FalconEntity::SetAQUIREtimer
PUBLIC	?SetSEARCHtimer@FalconEntity@@UAEXK@Z		; FalconEntity::SetSEARCHtimer
PUBLIC	?SetStepSearchMode@FalconEntity@@UAEXE@Z	; FalconEntity::SetStepSearchMode
PUBLIC	?GetAQUIREtimer@FalconEntity@@UAEKXZ		; FalconEntity::GetAQUIREtimer
PUBLIC	?GetSEARCHtimer@FalconEntity@@UAEKXZ		; FalconEntity::GetSEARCHtimer
PUBLIC	??0InvalidBufferException@@QAE@ABV?$basic_string@DU?$char_traits@D@std@@V?$allocator@D@2@@std@@@Z ; InvalidBufferException::InvalidBufferException
PUBLIC	??1InvalidBufferException@@UAE@XZ		; InvalidBufferException::~InvalidBufferException
PUBLIC	??0InvalidBufferException@@QAE@ABV0@@Z		; InvalidBufferException::InvalidBufferException
PUBLIC	??_GInvalidBufferException@@UAEPAXI@Z		; InvalidBufferException::`scalar deleting destructor'
PUBLIC	?memcpychk@@YAXPAXPAPAEIPAJ@Z			; memcpychk
PUBLIC	?GetOwner@CampBaseClass@@QAEEXZ			; CampBaseClass::GetOwner
PUBLIC	?GetDomain@CampBaseClass@@QBEEXZ		; CampBaseClass::GetDomain
PUBLIC	?GetType@CampBaseClass@@QBEEXZ			; CampBaseClass::GetType
PUBLIC	?GetSType@CampBaseClass@@QBEEXZ			; CampBaseClass::GetSType
PUBLIC	?GetUserData@ListElementClass@@QAEPAXXZ		; ListElementClass::GetUserData
PUBLIC	?GetNext@ListElementClass@@QAEPAV1@XZ		; ListElementClass::GetNext
PUBLIC	?GetPrev@ListElementClass@@QAEPAV1@XZ		; ListElementClass::GetPrev
PUBLIC	?GetFirstElement@ListClass@@QAEPAVListElementClass@@XZ ; ListClass::GetFirstElement
PUBLIC	?GetLastElement@ListClass@@QAEPAVListElementClass@@XZ ; ListClass::GetLastElement
PUBLIC	??_GListClass@@QAEPAXI@Z			; ListClass::`scalar deleting destructor'
PUBLIC	?CampEnterCriticalSection@@YAXXZ		; CampEnterCriticalSection
PUBLIC	?CampLeaveCriticalSection@@YAXXZ		; CampLeaveCriticalSection
PUBLIC	?Parent@UnitClass@@QBEHXZ			; UnitClass::Parent
PUBLIC	?Cargo@UnitClass@@QBEHXZ			; UnitClass::Cargo
PUBLIC	?GetUnitReinforcementLevel@UnitClass@@QAEHXZ	; UnitClass::GetUnitReinforcementLevel
PUBLIC	?IsNearfront@ObjectiveClass@@QAEHXZ		; ObjectiveClass::IsNearfront
PUBLIC	?GetObjectivePriority@ObjectiveClass@@QAEFXZ	; ObjectiveClass::GetObjectivePriority
PUBLIC	?GetObjectiveStatus@ObjectiveClass@@QAEEXZ	; ObjectiveClass::GetObjectiveStatus
PUBLIC	??0TeamGndActionType@@QAE@XZ			; TeamGndActionType::TeamGndActionType
PUBLIC	??0TeamAirActionType@@QAE@XZ			; TeamAirActionType::TeamAirActionType
PUBLIC	??0TeamDoctrine@@QAE@XZ				; TeamDoctrine::TeamDoctrine
PUBLIC	??0TeamClass@@QAE@HE@Z				; TeamClass::TeamClass
PUBLIC	??0TeamClass@@QAE@PAPAEPAJ@Z			; TeamClass::TeamClass
PUBLIC	??0TeamClass@@QAE@PAU_iobuf@@@Z			; TeamClass::TeamClass
PUBLIC	??1TeamClass@@UAE@XZ				; TeamClass::~TeamClass
PUBLIC	?InitData@TeamClass@@UAEXXZ			; TeamClass::InitData
PUBLIC	?InitLocalData@TeamClass@@AAEXE@Z		; TeamClass::InitLocalData
PUBLIC	?GetVt@TeamClass@@UBEMXZ			; TeamClass::GetVt
PUBLIC	?GetKias@TeamClass@@UBEMXZ			; TeamClass::GetKias
PUBLIC	?Handle@TeamClass@@UAEHPAVVuEvent@@@Z		; TeamClass::Handle
PUBLIC	?Handle@TeamClass@@UAEHPAVVuFullUpdateEvent@@@Z	; TeamClass::Handle
PUBLIC	?Handle@TeamClass@@UAEHPAVVuPositionUpdateEvent@@@Z ; TeamClass::Handle
PUBLIC	?Handle@TeamClass@@UAEHPAVVuEntityCollisionEvent@@@Z ; TeamClass::Handle
PUBLIC	?Handle@TeamClass@@UAEHPAVVuTransferEvent@@@Z	; TeamClass::Handle
PUBLIC	?Handle@TeamClass@@UAEHPAVVuSessionEvent@@@Z	; TeamClass::Handle
PUBLIC	?InsertionCallback@TeamClass@@UAEHXZ		; TeamClass::InsertionCallback
PUBLIC	?RemovalCallback@TeamClass@@UAEHXZ		; TeamClass::RemovalCallback
PUBLIC	?Wake@TeamClass@@UAEHXZ				; TeamClass::Wake
PUBLIC	?Sleep@TeamClass@@UAEHXZ			; TeamClass::Sleep
PUBLIC	?GetInitiative@TeamClass@@QAEFXZ		; TeamClass::GetInitiative
PUBLIC	?GetSupplyAvail@TeamClass@@QAEGXZ		; TeamClass::GetSupplyAvail
PUBLIC	?GetFuelAvail@TeamClass@@QAEGXZ			; TeamClass::GetFuelAvail
PUBLIC	?GetReplacementsAvail@TeamClass@@QAEGXZ		; TeamClass::GetReplacementsAvail
PUBLIC	?GetReinforcement@TeamClass@@QAEFXZ		; TeamClass::GetReinforcement
PUBLIC	?GetObjTypePriority@TeamClass@@QAEEH@Z		; TeamClass::GetObjTypePriority
PUBLIC	?GetUnitTypePriority@TeamClass@@QAEEH@Z		; TeamClass::GetUnitTypePriority
PUBLIC	?GetMissionPriority@TeamClass@@QAEEH@Z		; TeamClass::GetMissionPriority
PUBLIC	?GetCurrentStats@TeamClass@@QAEPAUTeamStatusType@@XZ ; TeamClass::GetCurrentStats
PUBLIC	?GetGroundAction@TeamClass@@QAEPAUTeamGndActionType@@XZ ; TeamClass::GetGroundAction
PUBLIC	?GetCampID@TeamClass@@UAEFXZ			; TeamClass::GetCampID
PUBLIC	?GetTeam@TeamClass@@UAEEXZ			; TeamClass::GetTeam
PUBLIC	?GetCountry@TeamClass@@UAEEXZ			; TeamClass::GetCountry
PUBLIC	?SetInitiative@TeamClass@@QAEXF@Z		; TeamClass::SetInitiative
PUBLIC	?SetReinforcement@TeamClass@@QAEXF@Z		; TeamClass::SetReinforcement
PUBLIC	?SetAllObjTypePriority@TeamClass@@QAEPAEXZ	; TeamClass::SetAllObjTypePriority
PUBLIC	?SetAllUnitTypePriority@TeamClass@@QAEPAEXZ	; TeamClass::SetAllUnitTypePriority
PUBLIC	?SetAllMissionPriority@TeamClass@@QAEPAEXZ	; TeamClass::SetAllMissionPriority
PUBLIC	?SetObjTypePriority@TeamClass@@QAEXHE@Z		; TeamClass::SetObjTypePriority
PUBLIC	?SetUnitTypePriority@TeamClass@@QAEXHE@Z	; TeamClass::SetUnitTypePriority
PUBLIC	?SetMissionPriority@TeamClass@@QAEXHE@Z		; TeamClass::SetMissionPriority
PUBLIC	?SetSupplyAvail@TeamClass@@QAEXH@Z		; TeamClass::SetSupplyAvail
PUBLIC	?SetFuelAvail@TeamClass@@QAEXH@Z		; TeamClass::SetFuelAvail
PUBLIC	?SetReplacementsAvail@TeamClass@@QAEXH@Z	; TeamClass::SetReplacementsAvail
PUBLIC	?SetCurrentStats@TeamClass@@QAEPAUTeamStatusType@@XZ ; TeamClass::SetCurrentStats
PUBLIC	?SetGroundAction@TeamClass@@QAEPAUTeamGndActionType@@XZ ; TeamClass::SetGroundAction
PUBLIC	?AddInitiative@TeamClass@@QAEXF@Z		; TeamClass::AddInitiative
PUBLIC	?AddReinforcement@TeamClass@@QAEXF@Z		; TeamClass::AddReinforcement
PUBLIC	?SaveSize@TeamClass@@UAEHXZ			; TeamClass::SaveSize
PUBLIC	?Save@TeamClass@@UAEHPAPAE@Z			; TeamClass::Save
PUBLIC	?Save@TeamClass@@UAEHPAU_iobuf@@@Z		; TeamClass::Save
PUBLIC	?ReadDoctrineFile@TeamClass@@QAEXXZ		; TeamClass::ReadDoctrineFile
PUBLIC	?SetActive@TeamClass@@QAEXH@Z			; TeamClass::SetActive
PUBLIC	?DumpHeader@TeamClass@@QAEXXZ			; TeamClass::DumpHeader
PUBLIC	?Dump@TeamClass@@QAEXXZ				; TeamClass::Dump
PUBLIC	?DoFullUpdate@TeamClass@@QAEXPAVVuTargetEntity@@@Z ; TeamClass::DoFullUpdate
PUBLIC	?SetName@TeamClass@@QAEXPAD@Z			; TeamClass::SetName
PUBLIC	?GetName@TeamClass@@QAEPADXZ			; TeamClass::GetName
PUBLIC	?GetFlag@TeamClass@@QAEHXZ			; TeamClass::GetFlag
PUBLIC	?SetMotto@TeamClass@@QAEXPAD@Z			; TeamClass::SetMotto
PUBLIC	?GetMotto@TeamClass@@QAEPADXZ			; TeamClass::GetMotto
PUBLIC	?GetGroundActionType@TeamClass@@QAEEXZ		; TeamClass::GetGroundActionType
PUBLIC	?SelectGroundAction@TeamClass@@QAEXXZ		; TeamClass::SelectGroundAction
PUBLIC	?SelectAirActions@TeamClass@@QAEXXZ		; TeamClass::SelectAirActions
PUBLIC	?SetGroundAction@TeamClass@@QAEXPAUTeamGndActionType@@@Z ; TeamClass::SetGroundAction
PUBLIC	?IsTeam@TeamClass@@UAEHXZ			; TeamClass::IsTeam
PUBLIC	?MakeTeamDirty@TeamClass@@QAEXW4Dirty_Team@@W4Dirtyness@@@Z ; TeamClass::MakeTeamDirty
PUBLIC	?WriteDirty@TeamClass@@QAEXPAPAE@Z		; TeamClass::WriteDirty
PUBLIC	?ReadDirty@TeamClass@@QAEXPAPAEPAJ@Z		; TeamClass::ReadDirty
PUBLIC	??_GTeamClass@@UAEPAXI@Z			; TeamClass::`scalar deleting destructor'
PUBLIC	?RemoveTeam@@YAXH@Z				; RemoveTeam
PUBLIC	?AddNewTeams@@YAXW4RelType@@@Z			; AddNewTeams
PUBLIC	?RemoveTeams@@YAXXZ				; RemoveTeams
PUBLIC	?LoadTeams@@YAHPAD@Z				; LoadTeams
PUBLIC	?SaveTeams@@YAHPAD@Z				; SaveTeams
PUBLIC	?LoadPriorityTables@@YAXXZ			; LoadPriorityTables
PUBLIC	?GetRoE@@YAHEEH@Z				; GetRoE
PUBLIC	?TransferInitiative@@YAXEEH@Z			; TransferInitiative
PUBLIC	?AirExperienceAdjustment@@YAME@Z		; AirExperienceAdjustment
PUBLIC	?AirDefenseExperienceAdjustment@@YAME@Z		; AirDefenseExperienceAdjustment
PUBLIC	?GroundExperienceAdjustment@@YAME@Z		; GroundExperienceAdjustment
PUBLIC	?NavalExperienceAdjustment@@YAME@Z		; NavalExperienceAdjustment
PUBLIC	?CombatBonus@@YAMEVVU_ID@@@Z			; CombatBonus
PUBLIC	?ApplyPlayerInput@@YAXEVVU_ID@@H@Z		; ApplyPlayerInput
PUBLIC	?GetEnemyTeam@@YAEE@Z				; GetEnemyTeam
PUBLIC	?GetPriority@@YAHPAVMissionRequestClass@@@Z	; GetPriority
PUBLIC	?AddReinforcements@@YAXEH@Z			; AddReinforcements
PUBLIC	?UpdateTeamStatistics@@YAXXZ			; UpdateTeamStatistics
PUBLIC	?NavalSuperiority@@YAHE@Z			; NavalSuperiority
PUBLIC	?AirSuperiority@@YAHE@Z				; AirSuperiority
PUBLIC	?GetGame@FalconSessionEntity@@QAEPAVFalconGameEntity@@XZ ; FalconSessionEntity::GetGame
PUBLIC	??0id@locale@std@@QAE@I@Z			; std::locale::id::id
PUBLIC	?generic_category@std@@YAABVerror_category@1@XZ	; std::generic_category
PUBLIC	?system_category@std@@YAABVerror_category@1@XZ	; std::system_category
PUBLIC	??0error_category@std@@QAE@XZ			; std::error_category::error_category
PUBLIC	??1error_category@std@@UAE@XZ			; std::error_category::~error_category
PUBLIC	?default_error_condition@error_category@std@@UBE?AVerror_condition@2@H@Z ; std::error_category::default_error_condition
PUBLIC	?equivalent@error_category@std@@UBE_NHABVerror_condition@2@@Z ; std::error_category::equivalent
PUBLIC	?equivalent@error_category@std@@UBE_NABVerror_code@2@H@Z ; std::error_category::equivalent
PUBLIC	??8error_category@std@@QBE_NABV01@@Z		; std::error_category::operator==
PUBLIC	??_Gerror_category@std@@UAEPAXI@Z		; std::error_category::`scalar deleting destructor'
PUBLIC	?value@error_code@std@@QBEHXZ			; std::error_code::value
PUBLIC	?category@error_code@std@@QBEABVerror_category@2@XZ ; std::error_code::category
PUBLIC	??0error_condition@std@@QAE@HABVerror_category@1@@Z ; std::error_condition::error_condition
PUBLIC	?value@error_condition@std@@QBEHXZ		; std::error_condition::value
PUBLIC	?category@error_condition@std@@QBEABVerror_category@2@XZ ; std::error_condition::category
PUBLIC	??8error_condition@std@@QBE_NABV01@@Z		; std::error_condition::operator==
PUBLIC	??0_Generic_error_category@std@@QAE@XZ		; std::_Generic_error_category::_Generic_error_category
PUBLIC	?name@_Generic_error_category@std@@UBEPBDXZ	; std::_Generic_error_category::name
PUBLIC	?message@_Generic_error_category@std@@UBE?AV?$basic_string@DU?$char_traits@D@std@@V?$allocator@D@2@@2@H@Z ; std::_Generic_error_category::message
PUBLIC	??1_Generic_error_category@std@@UAE@XZ		; std::_Generic_error_category::~_Generic_error_category
PUBLIC	??_G_Generic_error_category@std@@UAEPAXI@Z	; std::_Generic_error_category::`scalar deleting destructor'
PUBLIC	??0_Iostream_error_category@std@@QAE@XZ		; std::_Iostream_error_category::_Iostream_error_category
PUBLIC	?name@_Iostream_error_category@std@@UBEPBDXZ	; std::_Iostream_error_category::name
PUBLIC	?message@_Iostream_error_category@std@@UBE?AV?$basic_string@DU?$char_traits@D@std@@V?$allocator@D@2@@2@H@Z ; std::_Iostream_error_category::message
PUBLIC	??1_Iostream_error_category@std@@UAE@XZ		; std::_Iostream_error_category::~_Iostream_error_category
PUBLIC	??_G_Iostream_error_category@std@@UAEPAXI@Z	; std::_Iostream_error_category::`scalar deleting destructor'
PUBLIC	??0_System_error_category@std@@QAE@XZ		; std::_System_error_category::_System_error_category
PUBLIC	?name@_System_error_category@std@@UBEPBDXZ	; std::_System_error_category::name
PUBLIC	?message@_System_error_category@std@@UBE?AV?$basic_string@DU?$char_traits@D@std@@V?$allocator@D@2@@2@H@Z ; std::_System_error_category::message
PUBLIC	?default_error_condition@_System_error_category@std@@UBE?AVerror_condition@2@H@Z ; std::_System_error_category::default_error_condition
PUBLIC	??1_System_error_category@std@@UAE@XZ		; std::_System_error_category::~_System_error_category
PUBLIC	??_G_System_error_category@std@@UAEPAXI@Z	; std::_System_error_category::`scalar deleting destructor'
PUBLIC	?CampGetNext@@YAPADPAU_iobuf@@@Z		; CampGetNext
PUBLIC	?GetTeamSituation@@YAHE@Z			; GetTeamSituation
PUBLIC	?StartOffensive@@YAXHH@Z			; StartOffensive
PUBLIC	?AddTeam@@YAXHH@Z				; AddTeam
PUBLIC	?ApplyBonus@@YAXEVVU_ID@@H@Z			; ApplyBonus
PUBLIC	?NewInitiativePointSetting@@YAXE@Z		; NewInitiativePointSetting
PUBLIC	?ConvertTeamToStringIndex@@YAHHHHH@Z		; ConvertTeamToStringIndex
PUBLIC	??$construct@PADAAPAD@?$_Wrap_alloc@V?$allocator@D@std@@@std@@QAEXPAPADAAPAD@Z ; std::_Wrap_alloc<std::allocator<char> >::construct<char *,char * &>
PUBLIC	??$destroy@PAD@?$_Wrap_alloc@V?$allocator@D@std@@@std@@QAEXPAPAD@Z ; std::_Wrap_alloc<std::allocator<char> >::destroy<char *>
PUBLIC	??$addressof@D@std@@YAPADAAD@Z			; std::addressof<char>
PUBLIC	??$_Allocate@D@std@@YAPADIPAD@Z			; std::_Allocate<char>
PUBLIC	??$forward@AAPAD@std@@YAAAPADAAPAD@Z		; std::forward<char * &>
PUBLIC	??$construct@PADAAPAD@?$allocator_traits@V?$allocator@D@std@@@std@@SAXAAV?$allocator@D@1@PAPADAAPAD@Z ; std::allocator_traits<std::allocator<char> >::construct<char *,char * &>
PUBLIC	??$destroy@PAD@?$allocator_traits@V?$allocator@D@std@@@std@@SAXAAV?$allocator@D@1@PAPAD@Z ; std::allocator_traits<std::allocator<char> >::destroy<char *>
PUBLIC	??$construct@PADAAPAD@?$allocator@D@std@@QAEXPAPADAAPAD@Z ; std::allocator<char>::construct<char *,char * &>
PUBLIC	??$destroy@PAD@?$allocator@D@std@@QAEXPAPAD@Z	; std::allocator<char>::destroy<char *>
PUBLIC	??_7logic_error@std@@6B@			; std::logic_error::`vftable'
PUBLIC	??_7out_of_range@std@@6B@			; std::out_of_range::`vftable'
PUBLIC	??_7InvalidBufferException@@6B@			; InvalidBufferException::`vftable'
PUBLIC	??_C@_0CI@MPKJAHJH@Trying?5to?5write?5?$CFlu?5bytes?5to?5?$CFld@ ; `string'
PUBLIC	__TI4?AVInvalidBufferException@@
PUBLIC	__CTA4?AVInvalidBufferException@@
PUBLIC	??_R0?AVInvalidBufferException@@@8		; InvalidBufferException `RTTI Type Descriptor'
PUBLIC	__CT??_R0?AVInvalidBufferException@@@8??0InvalidBufferException@@QAE@ABV0@@Z12
PUBLIC	??_R0?AVout_of_range@std@@@8			; std::out_of_range `RTTI Type Descriptor'
PUBLIC	__CT??_R0?AVout_of_range@std@@@8??0out_of_range@std@@QAE@ABV01@@Z12
PUBLIC	??_R0?AVlogic_error@std@@@8			; std::logic_error `RTTI Type Descriptor'
PUBLIC	__CT??_R0?AVlogic_error@std@@@8??0logic_error@std@@QAE@ABV01@@Z12
PUBLIC	??_R0?AVexception@std@@@8			; std::exception `RTTI Type Descriptor'
PUBLIC	__CT??_R0?AVexception@std@@@8??0exception@std@@QAE@ABV01@@Z12
PUBLIC	??_7TeamClass@@6B@				; TeamClass::`vftable'
PUBLIC	??_7error_category@std@@6B@			; std::error_category::`vftable'
PUBLIC	??_7_Generic_error_category@std@@6B@		; std::_Generic_error_category::`vftable'
PUBLIC	??_C@_07DCLBNMLN@generic?$AA@			; `string'
PUBLIC	??_C@_0O@BFJCFAAK@unknown?5error?$AA@		; `string'
PUBLIC	??_7_Iostream_error_category@std@@6B@		; std::_Iostream_error_category::`vftable'
PUBLIC	??_C@_08LLGCOLLL@iostream?$AA@			; `string'
PUBLIC	??_C@_0BG@PADBLCHM@iostream?5stream?5error?$AA@	; `string'
PUBLIC	??_7_System_error_category@std@@6B@		; std::_System_error_category::`vftable'
PUBLIC	??_C@_06FHFOAHML@system?$AA@			; `string'
PUBLIC	?_Generic_object@?$_Error_objects@H@std@@2V_Generic_error_category@2@A ; std::_Error_objects<int>::_Generic_object
PUBLIC	?_Iostream_object@?$_Error_objects@H@std@@2V_Iostream_error_category@2@A ; std::_Error_objects<int>::_Iostream_object
PUBLIC	?_System_object@?$_Error_objects@H@std@@2V_System_error_category@2@A ; std::_Error_objects<int>::_System_object
PUBLIC	?id@?$num_put@DV?$back_insert_iterator@V?$basic_string@DU?$char_traits@D@std@@V?$allocator@D@2@@std@@@std@@@std@@2V0locale@2@A ; std::num_put<char,std::back_insert_iterator<std::basic_string<char,std::char_traits<char>,std::allocator<char> > > >::id
PUBLIC	?id@?$num_put@_WV?$back_insert_iterator@V?$basic_string@_WU?$char_traits@_W@std@@V?$allocator@_W@2@@std@@@std@@@std@@2V0locale@2@A ; std::num_put<wchar_t,std::back_insert_iterator<std::basic_string<wchar_t,std::char_traits<wchar_t>,std::allocator<wchar_t> > > >::id
PUBLIC	??_C@_0L@FIIMKNHK@doctrine?$CFd?$AA@		; `string'
PUBLIC	??_C@_01KDCPPGHE@r?$AA@				; `string'
PUBLIC	??_C@_03CLFHJCDC@txt?$AA@			; `string'
PUBLIC	??_C@_0EN@PKKGELNA@Team?5CbtPow?5ADPow?5?5AirPow?5GndPow@ ; `string'
PUBLIC	??_C@_02JDPG@rb?$AA@				; `string'
PUBLIC	??_C@_03IBMEEAF@tea?$AA@			; `string'
PUBLIC	??_C@_02GMLFBBN@wb?$AA@				; `string'
PUBLIC	??_C@_03FGMOOMKP@pri?$AA@			; `string'
PUBLIC	??_C@_07NEJDADE@defense?$AA@			; `string'
PUBLIC	??_C@_07GBMLDGPP@offense?$AA@			; `string'
PUBLIC	??_C@_06BONAEKEC@attrit?$AA@			; `string'
PUBLIC	??_C@_03LKCPPDCM@cas?$AA@			; `string'
PUBLIC	??_C@_07DFBNEDOG@intdict?$AA@			; `string'
PUBLIC	??_C@_02BOGAIONP@ab?$AA@			; `string'
PUBLIC	??_C@_03NJFDAMGG@frc?$AA@			; `string'
PUBLIC	??_C@_03FFNGDGKN@tmp?$AA@			; `string'
PUBLIC	??_C@_03GDDNCFJF@his?$AA@			; `string'
PUBLIC	??_C@_02DKCKIIND@?$CFs?$AA@			; `string'
PUBLIC	??_C@_08BLEENGAP@Team?4cpp?$AA@			; `string'
PUBLIC	??_C@_0CK@FGAGGLML@?$CFs?5?$CFd?3?5error?5reading?5dirty?0?5inva@ ; `string'
PUBLIC	?id@?$numpunct@D@std@@2V0locale@2@A		; std::numpunct<char>::id
PUBLIC	?id@?$numpunct@_W@std@@2V0locale@2@A		; std::numpunct<wchar_t>::id
PUBLIC	??_C@_0BI@CFPLBAOH@invalid?5string?5position?$AA@ ; `string'
PUBLIC	??_C@_0BA@JFNIOLAK@string?5too?5long?$AA@	; `string'
PUBLIC	??_R1A@?0A@EA@exception@std@@8			; std::exception::`RTTI Base Class Descriptor at (0,-1,0,64)'
PUBLIC	??_R3exception@std@@8				; std::exception::`RTTI Class Hierarchy Descriptor'
PUBLIC	??_R2exception@std@@8				; std::exception::`RTTI Base Class Array'
PUBLIC	??_R4logic_error@std@@6B@			; std::logic_error::`RTTI Complete Object Locator'
PUBLIC	??_R3logic_error@std@@8				; std::logic_error::`RTTI Class Hierarchy Descriptor'
PUBLIC	??_R2logic_error@std@@8				; std::logic_error::`RTTI Base Class Array'
PUBLIC	??_R1A@?0A@EA@logic_error@std@@8		; std::logic_error::`RTTI Base Class Descriptor at (0,-1,0,64)'
PUBLIC	??_R4out_of_range@std@@6B@			; std::out_of_range::`RTTI Complete Object Locator'
PUBLIC	??_R3out_of_range@std@@8			; std::out_of_range::`RTTI Class Hierarchy Descriptor'
PUBLIC	??_R2out_of_range@std@@8			; std::out_of_range::`RTTI Base Class Array'
PUBLIC	??_R1A@?0A@EA@out_of_range@std@@8		; std::out_of_range::`RTTI Base Class Descriptor at (0,-1,0,64)'
PUBLIC	??_R4InvalidBufferException@@6B@		; InvalidBufferException::`RTTI Complete Object Locator'
PUBLIC	??_R3InvalidBufferException@@8			; InvalidBufferException::`RTTI Class Hierarchy Descriptor'
PUBLIC	??_R2InvalidBufferException@@8			; InvalidBufferException::`RTTI Base Class Array'
PUBLIC	??_R1A@?0A@EA@InvalidBufferException@@8		; InvalidBufferException::`RTTI Base Class Descriptor at (0,-1,0,64)'
PUBLIC	??_R4TeamClass@@6B@				; TeamClass::`RTTI Complete Object Locator'
PUBLIC	??_R0?AVTeamClass@@@8				; TeamClass `RTTI Type Descriptor'
PUBLIC	??_R3TeamClass@@8				; TeamClass::`RTTI Class Hierarchy Descriptor'
PUBLIC	??_R2TeamClass@@8				; TeamClass::`RTTI Base Class Array'
PUBLIC	??_R1A@?0A@EA@TeamClass@@8			; TeamClass::`RTTI Base Class Descriptor at (0,-1,0,64)'
PUBLIC	??_R1A@?0A@EA@FalconEntity@@8			; FalconEntity::`RTTI Base Class Descriptor at (0,-1,0,64)'
PUBLIC	??_R0?AVFalconEntity@@@8			; FalconEntity `RTTI Type Descriptor'
PUBLIC	??_R3FalconEntity@@8				; FalconEntity::`RTTI Class Hierarchy Descriptor'
PUBLIC	??_R2FalconEntity@@8				; FalconEntity::`RTTI Base Class Array'
PUBLIC	??_R1A@?0A@EA@VuEntity@@8			; VuEntity::`RTTI Base Class Descriptor at (0,-1,0,64)'
PUBLIC	??_R0?AVVuEntity@@@8				; VuEntity `RTTI Type Descriptor'
PUBLIC	??_R3VuEntity@@8				; VuEntity::`RTTI Class Hierarchy Descriptor'
PUBLIC	??_R2VuEntity@@8				; VuEntity::`RTTI Base Class Array'
PUBLIC	??_R4error_category@std@@6B@			; std::error_category::`RTTI Complete Object Locator'
PUBLIC	??_R0?AVerror_category@std@@@8			; std::error_category `RTTI Type Descriptor'
PUBLIC	??_R3error_category@std@@8			; std::error_category::`RTTI Class Hierarchy Descriptor'
PUBLIC	??_R2error_category@std@@8			; std::error_category::`RTTI Base Class Array'
PUBLIC	??_R1A@?0A@EA@error_category@std@@8		; std::error_category::`RTTI Base Class Descriptor at (0,-1,0,64)'
PUBLIC	??_R4_Generic_error_category@std@@6B@		; std::_Generic_error_category::`RTTI Complete Object Locator'
PUBLIC	??_R0?AV_Generic_error_category@std@@@8		; std::_Generic_error_category `RTTI Type Descriptor'
PUBLIC	??_R3_Generic_error_category@std@@8		; std::_Generic_error_category::`RTTI Class Hierarchy Descriptor'
PUBLIC	??_R2_Generic_error_category@std@@8		; std::_Generic_error_category::`RTTI Base Class Array'
PUBLIC	??_R1A@?0A@EA@_Generic_error_category@std@@8	; std::_Generic_error_category::`RTTI Base Class Descriptor at (0,-1,0,64)'
PUBLIC	??_R4_Iostream_error_category@std@@6B@		; std::_Iostream_error_category::`RTTI Complete Object Locator'
PUBLIC	??_R0?AV_Iostream_error_category@std@@@8	; std::_Iostream_error_category `RTTI Type Descriptor'
PUBLIC	??_R3_Iostream_error_category@std@@8		; std::_Iostream_error_category::`RTTI Class Hierarchy Descriptor'
PUBLIC	??_R2_Iostream_error_category@std@@8		; std::_Iostream_error_category::`RTTI Base Class Array'
PUBLIC	??_R1A@?0A@EA@_Iostream_error_category@std@@8	; std::_Iostream_error_category::`RTTI Base Class Descriptor at (0,-1,0,64)'
PUBLIC	??_R4_System_error_category@std@@6B@		; std::_System_error_category::`RTTI Complete Object Locator'
PUBLIC	??_R0?AV_System_error_category@std@@@8		; std::_System_error_category `RTTI Type Descriptor'
PUBLIC	??_R3_System_error_category@std@@8		; std::_System_error_category::`RTTI Class Hierarchy Descriptor'
PUBLIC	??_R2_System_error_category@std@@8		; std::_System_error_category::`RTTI Base Class Array'
PUBLIC	??_R1A@?0A@EA@_System_error_category@std@@8	; std::_System_error_category::`RTTI Base Class Descriptor at (0,-1,0,64)'
PUBLIC	__real@00000000
PUBLIC	__real@3f000000
PUBLIC	__real@3f800000
PUBLIC	__real@3ff0000000000000
PUBLIC	__real@3ff922d0e5604189
PUBLIC	__real@40400000
PUBLIC	__real@4059000000000000
PUBLIC	__real@40800000
PUBLIC	__real@41000000
PUBLIC	__real@41a00000
PUBLIC	__real@42c80000
EXTRN	__purecall:PROC
EXTRN	??2@YAPAXI@Z:PROC				; operator new
EXTRN	??3@YAXPAX@Z:PROC				; operator delete
EXTRN	_atexit:PROC
EXTRN	_fgets:PROC
EXTRN	_fread:PROC
EXTRN	_fscanf:PROC
EXTRN	_fseek:PROC
EXTRN	_fwrite:PROC
EXTRN	_sprintf:PROC
EXTRN	_atan:PROC
EXTRN	_atof:PROC
EXTRN	_atoi:PROC
EXTRN	_rand:PROC
EXTRN	_memcpy:PROC
EXTRN	_memset:PROC
EXTRN	_strcpy:PROC
EXTRN	_strlen:PROC
EXTRN	_memmove:PROC
EXTRN	_strncpy:PROC
EXTRN	_MonoPrint:PROC
EXTRN	__imp__PostMessageA@16:PROC
EXTRN	?VuReferenceEntity@@YAHPAVVuEntity@@@Z:PROC	; VuReferenceEntity
EXTRN	?VuDeReferenceEntity@@YAHPAVVuEntity@@@Z:PROC	; VuDeReferenceEntity
EXTRN	?SetEntityType@VuEntity@@QAEXG@Z:PROC		; VuEntity::SetEntityType
EXTRN	?IsLocal@VuEntity@@QBEEXZ:PROC			; VuEntity::IsLocal
EXTRN	?CustomCollisionCheck@VuEntity@@UAEEPAV1@M@Z:PROC ; VuEntity::CustomCollisionCheck
EXTRN	?TerrainCollisionCheck@VuEntity@@UAEEXZ:PROC	; VuEntity::TerrainCollisionCheck
EXTRN	?IsTarget@VuEntity@@UAEEXZ:PROC			; VuEntity::IsTarget
EXTRN	?IsSession@VuEntity@@UAEEXZ:PROC		; VuEntity::IsSession
EXTRN	?IsGroup@VuEntity@@UAEEXZ:PROC			; VuEntity::IsGroup
EXTRN	?IsGame@VuEntity@@UAEEXZ:PROC			; VuEntity::IsGame
EXTRN	?IsCamera@VuEntity@@UBEEXZ:PROC			; VuEntity::IsCamera
EXTRN	?Handle@VuEntity@@UAEHPAVVuErrorMessage@@@Z:PROC ; VuEntity::Handle
EXTRN	?Handle@VuEntity@@UAEHPAVVuPushRequest@@@Z:PROC	; VuEntity::Handle
EXTRN	?Handle@VuEntity@@UAEHPAVVuPullRequest@@@Z:PROC	; VuEntity::Handle
EXTRN	?Handle@VuEntity@@UAEHPAVVuEvent@@@Z:PROC	; VuEntity::Handle
EXTRN	?Handle@VuEntity@@UAEHPAVVuFullUpdateEvent@@@Z:PROC ; VuEntity::Handle
EXTRN	?Handle@VuEntity@@UAEHPAVVuPositionUpdateEvent@@@Z:PROC ; VuEntity::Handle
EXTRN	?Handle@VuEntity@@UAEHPAVVuEntityCollisionEvent@@@Z:PROC ; VuEntity::Handle
EXTRN	?Handle@VuEntity@@UAEHPAVVuTransferEvent@@@Z:PROC ; VuEntity::Handle
EXTRN	?Handle@VuEntity@@UAEHPAVVuSessionEvent@@@Z:PROC ; VuEntity::Handle
EXTRN	?InsertionCallback@VuEntity@@MAEHXZ:PROC	; VuEntity::InsertionCallback
EXTRN	??0exception@std@@QAE@ABQBD@Z:PROC		; std::exception::exception
EXTRN	??0exception@std@@QAE@ABV01@@Z:PROC		; std::exception::exception
EXTRN	??1exception@std@@UAE@XZ:PROC			; std::exception::~exception
EXTRN	?what@exception@std@@UBEPBDXZ:PROC		; std::exception::what
EXTRN	?_Xbad_alloc@std@@YAXXZ:PROC			; std::_Xbad_alloc
EXTRN	?_Xlength_error@std@@YAXPBD@Z:PROC		; std::_Xlength_error
EXTRN	?_Xout_of_range@std@@YAXPBD@Z:PROC		; std::_Xout_of_range
EXTRN	??_Elogic_error@std@@UAEPAXI@Z:PROC		; std::logic_error::`vector deleting destructor'
EXTRN	??_Eout_of_range@std@@UAEPAXI@Z:PROC		; std::out_of_range::`vector deleting destructor'
EXTRN	?Insert@VuDatabase@@QAEHPAVVuEntity@@@Z:PROC	; VuDatabase::Insert
EXTRN	?Remove@VuDatabase@@QAEHPAVVuEntity@@@Z:PROC	; VuDatabase::Remove
EXTRN	?Find@VuDatabase@@QBEPAVVuEntity@@VVU_ID@@@Z:PROC ; VuDatabase::Find
EXTRN	??0VuFullUpdateEvent@@QAE@PAVVuEntity@@PAVVuTargetEntity@@E@Z:PROC ; VuFullUpdateEvent::VuFullUpdateEvent
EXTRN	?Game@VuSessionEntity@@QAEPAVVuGameEntity@@XZ:PROC ; VuSessionEntity::Game
EXTRN	?PostVuMessage@VuMessageQueue@@SAHPAVVuMessage@@@Z:PROC ; VuMessageQueue::PostVuMessage
EXTRN	??0VuListIterator@@QAE@PAVVuLinkedList@@@Z:PROC	; VuListIterator::VuListIterator
EXTRN	??1VuListIterator@@UAE@XZ:PROC			; VuListIterator::~VuListIterator
EXTRN	??0FalconEntity@@QAE@GK@Z:PROC			; FalconEntity::FalconEntity
EXTRN	??1FalconEntity@@UAE@XZ:PROC			; FalconEntity::~FalconEntity
EXTRN	?InitData@FalconEntity@@UAEXXZ:PROC		; FalconEntity::InitData
EXTRN	?CleanupData@FalconEntity@@UAEXXZ:PROC		; FalconEntity::CleanupData
EXTRN	?RemovalCallback@FalconEntity@@UAEHXZ:PROC	; FalconEntity::RemovalCallback
EXTRN	?GetDomain@FalconEntity@@UAEEXZ:PROC		; FalconEntity::GetDomain
EXTRN	?GetRadarType@FalconEntity@@UAEHXZ:PROC		; FalconEntity::GetRadarType
EXTRN	?GetDamageModifiers@FalconEntity@@UAEPAEXZ:PROC	; FalconEntity::GetDamageModifiers
EXTRN	?GetLocation@FalconEntity@@QBEXPAF0@Z:PROC	; FalconEntity::GetLocation
EXTRN	?SetOwner@FalconEntity@@QAEXVVU_ID@@@Z:PROC	; FalconEntity::SetOwner
EXTRN	?MakeDirty@FalconEntity@@QAEXW4Dirty_Class@@W4Dirtyness@@@Z:PROC ; FalconEntity::MakeDirty
EXTRN	?Camp_GetCurrentTime@@YAKXZ:PROC		; Camp_GetCurrentTime
EXTRN	?OpenCampFile@@YAPAU_iobuf@@PAD00@Z:PROC	; OpenCampFile
EXTRN	?GetClassID@@YAHEEEEEEEE@Z:PROC			; GetClassID
EXTRN	??_EInvalidBufferException@@UAEPAXI@Z:PROC	; InvalidBufferException::`vector deleting destructor'
EXTRN	?GetIdFromNamespace@@YAKAAVIdNamespace@@@Z:PROC	; GetIdFromNamespace
EXTRN	??0ListClass@@QAE@E@Z:PROC			; ListClass::ListClass
EXTRN	??1ListClass@@QAE@XZ:PROC			; ListClass::~ListClass
EXTRN	?InsertNewElement@ListClass@@QAEXFPAXE@Z:PROC	; ListClass::InsertNewElement
EXTRN	_F4EnterCriticalSection:PROC
EXTRN	_F4LeaveCriticalSection:PROC
EXTRN	?GetGameType@FalconGameEntity@@QAE?AW4FalconGameType@@XZ:PROC ; FalconGameEntity::GetGameType
EXTRN	?CloseCampFile@@YAXPAU_iobuf@@@Z:PROC		; CloseCampFile
EXTRN	??0FalconCampEventMessage@@QAE@VVU_ID@@PAVVuTargetEntity@@E@Z:PROC ; FalconCampEventMessage::FalconCampEventMessage
EXTRN	?SendCampUIMessage@@YAXPAVFalconCampEventMessage@@@Z:PROC ; SendCampUIMessage
EXTRN	?GotJoinData@CampaignClass@@QAEXXZ:PROC		; CampaignClass::GotJoinData
EXTRN	?MakeCampMap@CampaignClass@@QAEPAEH@Z:PROC	; CampaignClass::MakeCampMap
EXTRN	?BroadcastUnitMessage@UnitClass@@QAEXVVU_ID@@FFFF@Z:PROC ; UnitClass::BroadcastUnitMessage
EXTRN	?GetTotalVehicles@UnitClass@@QAEHXZ:PROC	; UnitClass::GetTotalVehicles
EXTRN	?GetFirstUnit@@YAPAVUnitClass@@PAVVuListIterator@@@Z:PROC ; GetFirstUnit
EXTRN	?GetNextUnit@@YAPAVUnitClass@@PAVVuListIterator@@@Z:PROC ; GetNextUnit
EXTRN	?GetObjectivePrimary@ObjectiveClass@@QAEPAV1@XZ:PROC ; ObjectiveClass::GetObjectivePrimary
EXTRN	?GetFirstObjective@@YAPAVObjectiveClass@@PAVVuListIterator@@@Z:PROC ; GetFirstObjective
EXTRN	?GetNextObjective@@YAPAVObjectiveClass@@PAVVuListIterator@@@Z:PROC ; GetNextObjective
EXTRN	??_ETeamClass@@UAEPAXI@Z:PROC			; TeamClass::`vector deleting destructor'
EXTRN	?GetTTRelations@@YAHEE@Z:PROC			; GetTTRelations
EXTRN	?DistSqu@@YAHFFFF@Z:PROC			; DistSqu
EXTRN	?Distance@@YAMFFFF@Z:PROC			; Distance
EXTRN	?DistanceToFront@@YAMFF@Z:PROC			; DistanceToFront
EXTRN	?FindNearestObjective@@YAPAVObjectiveClass@@FFPAMF@Z:PROC ; FindNearestObjective
EXTRN	?FindNearestObjective@@YAPAVObjectiveClass@@PAVVuLinkedList@@FFPAM@Z:PROC ; FindNearestObjective
EXTRN	??0AirTaskingManagerClass@@QAE@GE@Z:PROC	; AirTaskingManagerClass::AirTaskingManagerClass
EXTRN	??0AirTaskingManagerClass@@QAE@PAU_iobuf@@@Z:PROC ; AirTaskingManagerClass::AirTaskingManagerClass
EXTRN	?TargetAllSites@@YAHPAVObjectiveClass@@HHK@Z:PROC ; TargetAllSites
EXTRN	?GetPOData@@YAPAUPrimaryObjectiveData@@PAVObjectiveClass@@@Z:PROC ; GetPOData
EXTRN	??0GroundTaskingManagerClass@@QAE@GE@Z:PROC	; GroundTaskingManagerClass::GroundTaskingManagerClass
EXTRN	??0GroundTaskingManagerClass@@QAE@PAU_iobuf@@@Z:PROC ; GroundTaskingManagerClass::GroundTaskingManagerClass
EXTRN	??0NavalTaskingManagerClass@@QAE@GE@Z:PROC	; NavalTaskingManagerClass::NavalTaskingManagerClass
EXTRN	??0NavalTaskingManagerClass@@QAE@PAU_iobuf@@@Z:PROC ; NavalTaskingManagerClass::NavalTaskingManagerClass
EXTRN	?ReadIndexedString@@YAXHPADH@Z:PROC		; ReadIndexedString
EXTRN	?GetTeam@FalconSessionEntity@@QAEEXZ:PROC	; FalconSessionEntity::GetTeam
EXTRN	??_Eerror_category@std@@UAEPAXI@Z:PROC		; std::error_category::`vector deleting destructor'
EXTRN	?_Syserror_map@std@@YAPBDH@Z:PROC		; std::_Syserror_map
EXTRN	?_Winerror_map@std@@YAPBDH@Z:PROC		; std::_Winerror_map
EXTRN	??_E_Generic_error_category@std@@UAEPAXI@Z:PROC	; std::_Generic_error_category::`vector deleting destructor'
EXTRN	??_E_Iostream_error_category@std@@UAEPAXI@Z:PROC ; std::_Iostream_error_category::`vector deleting destructor'
EXTRN	??_E_System_error_category@std@@UAEPAXI@Z:PROC	; std::_System_error_category::`vector deleting destructor'
EXTRN	?SwapCRLF@@YAXPAD@Z:PROC			; SwapCRLF
EXTRN	@__security_check_cookie@4:PROC
EXTRN	__CxxThrowException@8:PROC
EXTRN	___CxxFrameHandler3:PROC
EXTRN	?vuDatabase@@3PAVVuDatabase@@A:DWORD		; vuDatabase
EXTRN	?vuLocalSessionEntity@@3V?$VuBin@VVuSessionEntity@@@@A:DWORD ; vuLocalSessionEntity
EXTRN	?FalconNullId@@3VVU_ID@@A:QWORD			; FalconNullId
EXTRN	?MissionData@@3PAUMissionDataType@@A:BYTE	; MissionData
EXTRN	??_7type_info@@6B@:QWORD			; type_info::`vftable'
EXTRN	?VolatileNS@@3VIdNamespace@@A:BYTE		; VolatileNS
EXTRN	?AllUnitList@@3PAVVuLinkedList@@A:DWORD		; AllUnitList
EXTRN	?InactiveList@@3PAVVuLinkedList@@A:DWORD	; InactiveList
EXTRN	?FrontList@@3PAVFalconPrivateList@@A:DWORD	; FrontList
EXTRN	?POList@@3PAVFalconPrivateOrderedList@@A:DWORD	; POList
EXTRN	?campCritical@@3PAUF4CSECTIONHANDLE@@A:DWORD	; campCritical
EXTRN	?TheCampaign@@3VCampaignClass@@A:BYTE		; TheCampaign
EXTRN	?gCampDataVersion@@3HA:DWORD			; gCampDataVersion
EXTRN	?FIRST_COLONEL@@3FA:WORD			; FIRST_COLONEL
EXTRN	?FIRST_COMMANDER@@3FA:WORD			; FIRST_COMMANDER
EXTRN	?FIRST_WINGMAN@@3FA:WORD			; FIRST_WINGMAN
EXTRN	?LAST_WINGMAN@@3FA:WORD				; LAST_WINGMAN
EXTRN	?MIN_FULL_OFFENSIVE_INITIATIVE@@3FA:WORD	; MIN_FULL_OFFENSIVE_INITIATIVE
EXTRN	?MIN_COUNTER_ATTACK_INITIATIVE@@3FA:WORD	; MIN_COUNTER_ATTACK_INITIATIVE
EXTRN	?ACTION_PREP_TIME@@3JA:DWORD			; ACTION_PREP_TIME
EXTRN	?MIN_RECALCULATE_STATISTICS@@3FA:WORD		; MIN_RECALCULATE_STATISTICS
EXTRN	?INITIATIVE_LEAK_PER_HOUR@@3FA:WORD		; INITIATIVE_LEAK_PER_HOUR
EXTRN	?StartOffBonusRepl@@3HA:DWORD			; StartOffBonusRepl
EXTRN	?StartOffBonusSup@@3HA:DWORD			; StartOffBonusSup
EXTRN	?StartOffBonusFuel@@3HA:DWORD			; StartOffBonusFuel
EXTRN	?ActionRate@@3HA:DWORD				; ActionRate
EXTRN	?ActionTimeOut@@3HA:DWORD			; ActionTimeOut
EXTRN	?NewInitiativePoints@@3HA:DWORD			; NewInitiativePoints
EXTRN	?InstantActionSettings@@3UUI_IA@@A:BYTE		; InstantActionSettings
EXTRN	?FalconDisplay@@3VFalconDisplayConfiguration@@A:BYTE ; FalconDisplay
EXTRN	?g_nNoPlayerPlay@@3HA:DWORD			; g_nNoPlayerPlay
EXTRN	___security_cookie:DWORD
EXTRN	__fltused:DWORD
_BSS	SEGMENT
_piecewise_construct DB 01H DUP (?)
	ALIGN	4

_allocator_arg DB 01H DUP (?)
_BSS	ENDS
;	COMDAT ?_Generic_object@?$_Error_objects@H@std@@2V_Generic_error_category@2@A
_BSS	SEGMENT
?_Generic_object@?$_Error_objects@H@std@@2V_Generic_error_category@2@A DD 01H DUP (?) ; std::_Error_objects<int>::_Generic_object
_BSS	ENDS
;	COMDAT ?_Iostream_object@?$_Error_objects@H@std@@2V_Iostream_error_category@2@A
_BSS	SEGMENT
?_Iostream_object@?$_Error_objects@H@std@@2V_Iostream_error_category@2@A DD 01H DUP (?) ; std::_Error_objects<int>::_Iostream_object
_BSS	ENDS
;	COMDAT ?_System_object@?$_Error_objects@H@std@@2V_System_error_category@2@A
_BSS	SEGMENT
?_System_object@?$_Error_objects@H@std@@2V_System_error_category@2@A DD 01H DUP (?) ; std::_Error_objects<int>::_System_object
_BSS	ENDS
;	COMDAT ?id@?$num_put@DV?$back_insert_iterator@V?$basic_string@DU?$char_traits@D@std@@V?$allocator@D@2@@std@@@std@@@std@@2V0locale@2@A
_BSS	SEGMENT
?id@?$num_put@DV?$back_insert_iterator@V?$basic_string@DU?$char_traits@D@std@@V?$allocator@D@2@@std@@@std@@@std@@2V0locale@2@A DD 01H DUP (?) ; std::num_put<char,std::back_insert_iterator<std::basic_string<char,std::char_traits<char>,std::allocator<char> > > >::id
_BSS	ENDS
;	COMDAT ?id@?$num_put@_WV?$back_insert_iterator@V?$basic_string@_WU?$char_traits@_W@std@@V?$allocator@_W@2@@std@@@std@@@std@@2V0locale@2@A
_BSS	SEGMENT
?id@?$num_put@_WV?$back_insert_iterator@V?$basic_string@_WU?$char_traits@_W@std@@V?$allocator@_W@2@@std@@@std@@@std@@2V0locale@2@A DD 01H DUP (?) ; std::num_put<wchar_t,std::back_insert_iterator<std::basic_string<wchar_t,std::char_traits<wchar_t>,std::allocator<wchar_t> > > >::id
_BSS	ENDS
;	COMDAT ?aline@?1??CampGetNext@@YAPADPAU_iobuf@@@Z@4PADA
_BSS	SEGMENT
?aline@?1??CampGetNext@@YAPADPAU_iobuf@@@Z@4PADA DB 0a0H DUP (?) ; `CampGetNext'::`2'::aline
_BSS	ENDS
;	COMDAT ?id@?$numpunct@D@std@@2V0locale@2@A
_BSS	SEGMENT
?id@?$numpunct@D@std@@2V0locale@2@A DD 01H DUP (?)	; std::numpunct<char>::id
_BSS	ENDS
;	COMDAT ?id@?$numpunct@_W@std@@2V0locale@2@A
_BSS	SEGMENT
?id@?$numpunct@_W@std@@2V0locale@2@A DD 01H DUP (?)	; std::numpunct<wchar_t>::id
_BSS	ENDS
CRT$XCU	SEGMENT
_piecewise_construct$initializer$ DD FLAT:??__Epiecewise_construct@std@@YAXXZ
CRT$XCU	ENDS
;	COMDAT __real@42c80000
CONST	SEGMENT
__real@42c80000 DD 042c80000r			; 100
CONST	ENDS
;	COMDAT __real@41a00000
CONST	SEGMENT
__real@41a00000 DD 041a00000r			; 20
CONST	ENDS
;	COMDAT __real@41000000
CONST	SEGMENT
__real@41000000 DD 041000000r			; 8
CONST	ENDS
;	COMDAT __real@40800000
CONST	SEGMENT
__real@40800000 DD 040800000r			; 4
CONST	ENDS
;	COMDAT __real@4059000000000000
CONST	SEGMENT
__real@4059000000000000 DQ 04059000000000000r	; 100
CONST	ENDS
;	COMDAT __real@40400000
CONST	SEGMENT
__real@40400000 DD 040400000r			; 3
CONST	ENDS
;	COMDAT __real@3ff922d0e5604189
CONST	SEGMENT
__real@3ff922d0e5604189 DQ 03ff922d0e5604189r	; 1.571
CONST	ENDS
;	COMDAT __real@3ff0000000000000
CONST	SEGMENT
__real@3ff0000000000000 DQ 03ff0000000000000r	; 1
CONST	ENDS
;	COMDAT __real@3f800000
CONST	SEGMENT
__real@3f800000 DD 03f800000r			; 1
CONST	ENDS
;	COMDAT __real@3f000000
CONST	SEGMENT
__real@3f000000 DD 03f000000r			; 0.5
CONST	ENDS
;	COMDAT __real@00000000
CONST	SEGMENT
__real@00000000 DD 000000000r			; 0
CONST	ENDS
;	COMDAT ??_R1A@?0A@EA@_System_error_category@std@@8
rdata$r	SEGMENT
??_R1A@?0A@EA@_System_error_category@std@@8 DD FLAT:??_R0?AV_System_error_category@std@@@8 ; std::_System_error_category::`RTTI Base Class Descriptor at (0,-1,0,64)'
	DD	02H
	DD	00H
	DD	0ffffffffH
	DD	00H
	DD	040H
	DD	FLAT:??_R3_System_error_category@std@@8
rdata$r	ENDS
;	COMDAT ??_R2_System_error_category@std@@8
rdata$r	SEGMENT
??_R2_System_error_category@std@@8 DD FLAT:??_R1A@?0A@EA@_System_error_category@std@@8 ; std::_System_error_category::`RTTI Base Class Array'
	DD	FLAT:??_R1A@?0A@EA@_Generic_error_category@std@@8
	DD	FLAT:??_R1A@?0A@EA@error_category@std@@8
rdata$r	ENDS
;	COMDAT ??_R3_System_error_category@std@@8
rdata$r	SEGMENT
??_R3_System_error_category@std@@8 DD 00H		; std::_System_error_category::`RTTI Class Hierarchy Descriptor'
	DD	00H
	DD	03H
	DD	FLAT:??_R2_System_error_category@std@@8
rdata$r	ENDS
;	COMDAT ??_R0?AV_System_error_category@std@@@8
_DATA	SEGMENT
??_R0?AV_System_error_category@std@@@8 DD FLAT:??_7type_info@@6B@ ; std::_System_error_category `RTTI Type Descriptor'
	DD	00H
	DB	'.?AV_System_error_category@std@@', 00H
_DATA	ENDS
;	COMDAT ??_R4_System_error_category@std@@6B@
rdata$r	SEGMENT
??_R4_System_error_category@std@@6B@ DD 00H		; std::_System_error_category::`RTTI Complete Object Locator'
	DD	00H
	DD	00H
	DD	FLAT:??_R0?AV_System_error_category@std@@@8
	DD	FLAT:??_R3_System_error_category@std@@8
rdata$r	ENDS
;	COMDAT ??_R1A@?0A@EA@_Iostream_error_category@std@@8
rdata$r	SEGMENT
??_R1A@?0A@EA@_Iostream_error_category@std@@8 DD FLAT:??_R0?AV_Iostream_error_category@std@@@8 ; std::_Iostream_error_category::`RTTI Base Class Descriptor at (0,-1,0,64)'
	DD	02H
	DD	00H
	DD	0ffffffffH
	DD	00H
	DD	040H
	DD	FLAT:??_R3_Iostream_error_category@std@@8
rdata$r	ENDS
;	COMDAT ??_R2_Iostream_error_category@std@@8
rdata$r	SEGMENT
??_R2_Iostream_error_category@std@@8 DD FLAT:??_R1A@?0A@EA@_Iostream_error_category@std@@8 ; std::_Iostream_error_category::`RTTI Base Class Array'
	DD	FLAT:??_R1A@?0A@EA@_Generic_error_category@std@@8
	DD	FLAT:??_R1A@?0A@EA@error_category@std@@8
rdata$r	ENDS
;	COMDAT ??_R3_Iostream_error_category@std@@8
rdata$r	SEGMENT
??_R3_Iostream_error_category@std@@8 DD 00H		; std::_Iostream_error_category::`RTTI Class Hierarchy Descriptor'
	DD	00H
	DD	03H
	DD	FLAT:??_R2_Iostream_error_category@std@@8
rdata$r	ENDS
;	COMDAT ??_R0?AV_Iostream_error_category@std@@@8
_DATA	SEGMENT
??_R0?AV_Iostream_error_category@std@@@8 DD FLAT:??_7type_info@@6B@ ; std::_Iostream_error_category `RTTI Type Descriptor'
	DD	00H
	DB	'.?AV_Iostream_error_category@std@@', 00H
_DATA	ENDS
;	COMDAT ??_R4_Iostream_error_category@std@@6B@
rdata$r	SEGMENT
??_R4_Iostream_error_category@std@@6B@ DD 00H		; std::_Iostream_error_category::`RTTI Complete Object Locator'
	DD	00H
	DD	00H
	DD	FLAT:??_R0?AV_Iostream_error_category@std@@@8
	DD	FLAT:??_R3_Iostream_error_category@std@@8
rdata$r	ENDS
;	COMDAT ??_R1A@?0A@EA@_Generic_error_category@std@@8
rdata$r	SEGMENT
??_R1A@?0A@EA@_Generic_error_category@std@@8 DD FLAT:??_R0?AV_Generic_error_category@std@@@8 ; std::_Generic_error_category::`RTTI Base Class Descriptor at (0,-1,0,64)'
	DD	01H
	DD	00H
	DD	0ffffffffH
	DD	00H
	DD	040H
	DD	FLAT:??_R3_Generic_error_category@std@@8
rdata$r	ENDS
;	COMDAT ??_R2_Generic_error_category@std@@8
rdata$r	SEGMENT
??_R2_Generic_error_category@std@@8 DD FLAT:??_R1A@?0A@EA@_Generic_error_category@std@@8 ; std::_Generic_error_category::`RTTI Base Class Array'
	DD	FLAT:??_R1A@?0A@EA@error_category@std@@8
rdata$r	ENDS
;	COMDAT ??_R3_Generic_error_category@std@@8
rdata$r	SEGMENT
??_R3_Generic_error_category@std@@8 DD 00H		; std::_Generic_error_category::`RTTI Class Hierarchy Descriptor'
	DD	00H
	DD	02H
	DD	FLAT:??_R2_Generic_error_category@std@@8
rdata$r	ENDS
;	COMDAT ??_R0?AV_Generic_error_category@std@@@8
_DATA	SEGMENT
??_R0?AV_Generic_error_category@std@@@8 DD FLAT:??_7type_info@@6B@ ; std::_Generic_error_category `RTTI Type Descriptor'
	DD	00H
	DB	'.?AV_Generic_error_category@std@@', 00H
_DATA	ENDS
;	COMDAT ??_R4_Generic_error_category@std@@6B@
rdata$r	SEGMENT
??_R4_Generic_error_category@std@@6B@ DD 00H		; std::_Generic_error_category::`RTTI Complete Object Locator'
	DD	00H
	DD	00H
	DD	FLAT:??_R0?AV_Generic_error_category@std@@@8
	DD	FLAT:??_R3_Generic_error_category@std@@8
rdata$r	ENDS
;	COMDAT ??_R1A@?0A@EA@error_category@std@@8
rdata$r	SEGMENT
??_R1A@?0A@EA@error_category@std@@8 DD FLAT:??_R0?AVerror_category@std@@@8 ; std::error_category::`RTTI Base Class Descriptor at (0,-1,0,64)'
	DD	00H
	DD	00H
	DD	0ffffffffH
	DD	00H
	DD	040H
	DD	FLAT:??_R3error_category@std@@8
rdata$r	ENDS
;	COMDAT ??_R2error_category@std@@8
rdata$r	SEGMENT
??_R2error_category@std@@8 DD FLAT:??_R1A@?0A@EA@error_category@std@@8 ; std::error_category::`RTTI Base Class Array'
rdata$r	ENDS
;	COMDAT ??_R3error_category@std@@8
rdata$r	SEGMENT
??_R3error_category@std@@8 DD 00H			; std::error_category::`RTTI Class Hierarchy Descriptor'
	DD	00H
	DD	01H
	DD	FLAT:??_R2error_category@std@@8
rdata$r	ENDS
;	COMDAT ??_R0?AVerror_category@std@@@8
_DATA	SEGMENT
??_R0?AVerror_category@std@@@8 DD FLAT:??_7type_info@@6B@ ; std::error_category `RTTI Type Descriptor'
	DD	00H
	DB	'.?AVerror_category@std@@', 00H
_DATA	ENDS
;	COMDAT ??_R4error_category@std@@6B@
rdata$r	SEGMENT
??_R4error_category@std@@6B@ DD 00H			; std::error_category::`RTTI Complete Object Locator'
	DD	00H
	DD	00H
	DD	FLAT:??_R0?AVerror_category@std@@@8
	DD	FLAT:??_R3error_category@std@@8
rdata$r	ENDS
;	COMDAT ??_R2VuEntity@@8
rdata$r	SEGMENT
??_R2VuEntity@@8 DD FLAT:??_R1A@?0A@EA@VuEntity@@8	; VuEntity::`RTTI Base Class Array'
rdata$r	ENDS
;	COMDAT ??_R3VuEntity@@8
rdata$r	SEGMENT
??_R3VuEntity@@8 DD 00H					; VuEntity::`RTTI Class Hierarchy Descriptor'
	DD	00H
	DD	01H
	DD	FLAT:??_R2VuEntity@@8
rdata$r	ENDS
;	COMDAT ??_R0?AVVuEntity@@@8
_DATA	SEGMENT
??_R0?AVVuEntity@@@8 DD FLAT:??_7type_info@@6B@		; VuEntity `RTTI Type Descriptor'
	DD	00H
	DB	'.?AVVuEntity@@', 00H
_DATA	ENDS
;	COMDAT ??_R1A@?0A@EA@VuEntity@@8
rdata$r	SEGMENT
??_R1A@?0A@EA@VuEntity@@8 DD FLAT:??_R0?AVVuEntity@@@8	; VuEntity::`RTTI Base Class Descriptor at (0,-1,0,64)'
	DD	00H
	DD	00H
	DD	0ffffffffH
	DD	00H
	DD	040H
	DD	FLAT:??_R3VuEntity@@8
rdata$r	ENDS
;	COMDAT ??_R2FalconEntity@@8
rdata$r	SEGMENT
??_R2FalconEntity@@8 DD FLAT:??_R1A@?0A@EA@FalconEntity@@8 ; FalconEntity::`RTTI Base Class Array'
	DD	FLAT:??_R1A@?0A@EA@VuEntity@@8
rdata$r	ENDS
;	COMDAT ??_R3FalconEntity@@8
rdata$r	SEGMENT
??_R3FalconEntity@@8 DD 00H				; FalconEntity::`RTTI Class Hierarchy Descriptor'
	DD	00H
	DD	02H
	DD	FLAT:??_R2FalconEntity@@8
rdata$r	ENDS
;	COMDAT ??_R0?AVFalconEntity@@@8
_DATA	SEGMENT
??_R0?AVFalconEntity@@@8 DD FLAT:??_7type_info@@6B@	; FalconEntity `RTTI Type Descriptor'
	DD	00H
	DB	'.?AVFalconEntity@@', 00H
_DATA	ENDS
;	COMDAT ??_R1A@?0A@EA@FalconEntity@@8
rdata$r	SEGMENT
??_R1A@?0A@EA@FalconEntity@@8 DD FLAT:??_R0?AVFalconEntity@@@8 ; FalconEntity::`RTTI Base Class Descriptor at (0,-1,0,64)'
	DD	01H
	DD	00H
	DD	0ffffffffH
	DD	00H
	DD	040H
	DD	FLAT:??_R3FalconEntity@@8
rdata$r	ENDS
;	COMDAT ??_R1A@?0A@EA@TeamClass@@8
rdata$r	SEGMENT
??_R1A@?0A@EA@TeamClass@@8 DD FLAT:??_R0?AVTeamClass@@@8 ; TeamClass::`RTTI Base Class Descriptor at (0,-1,0,64)'
	DD	02H
	DD	00H
	DD	0ffffffffH
	DD	00H
	DD	040H
	DD	FLAT:??_R3TeamClass@@8
rdata$r	ENDS
;	COMDAT ??_R2TeamClass@@8
rdata$r	SEGMENT
??_R2TeamClass@@8 DD FLAT:??_R1A@?0A@EA@TeamClass@@8	; TeamClass::`RTTI Base Class Array'
	DD	FLAT:??_R1A@?0A@EA@FalconEntity@@8
	DD	FLAT:??_R1A@?0A@EA@VuEntity@@8
rdata$r	ENDS
;	COMDAT ??_R3TeamClass@@8
rdata$r	SEGMENT
??_R3TeamClass@@8 DD 00H				; TeamClass::`RTTI Class Hierarchy Descriptor'
	DD	00H
	DD	03H
	DD	FLAT:??_R2TeamClass@@8
rdata$r	ENDS
;	COMDAT ??_R0?AVTeamClass@@@8
_DATA	SEGMENT
??_R0?AVTeamClass@@@8 DD FLAT:??_7type_info@@6B@	; TeamClass `RTTI Type Descriptor'
	DD	00H
	DB	'.?AVTeamClass@@', 00H
_DATA	ENDS
;	COMDAT ??_R4TeamClass@@6B@
rdata$r	SEGMENT
??_R4TeamClass@@6B@ DD 00H				; TeamClass::`RTTI Complete Object Locator'
	DD	00H
	DD	00H
	DD	FLAT:??_R0?AVTeamClass@@@8
	DD	FLAT:??_R3TeamClass@@8
rdata$r	ENDS
;	COMDAT ??_R1A@?0A@EA@InvalidBufferException@@8
rdata$r	SEGMENT
??_R1A@?0A@EA@InvalidBufferException@@8 DD FLAT:??_R0?AVInvalidBufferException@@@8 ; InvalidBufferException::`RTTI Base Class Descriptor at (0,-1,0,64)'
	DD	03H
	DD	00H
	DD	0ffffffffH
	DD	00H
	DD	040H
	DD	FLAT:??_R3InvalidBufferException@@8
rdata$r	ENDS
;	COMDAT ??_R2InvalidBufferException@@8
rdata$r	SEGMENT
??_R2InvalidBufferException@@8 DD FLAT:??_R1A@?0A@EA@InvalidBufferException@@8 ; InvalidBufferException::`RTTI Base Class Array'
	DD	FLAT:??_R1A@?0A@EA@out_of_range@std@@8
	DD	FLAT:??_R1A@?0A@EA@logic_error@std@@8
	DD	FLAT:??_R1A@?0A@EA@exception@std@@8
rdata$r	ENDS
;	COMDAT ??_R3InvalidBufferException@@8
rdata$r	SEGMENT
??_R3InvalidBufferException@@8 DD 00H			; InvalidBufferException::`RTTI Class Hierarchy Descriptor'
	DD	00H
	DD	04H
	DD	FLAT:??_R2InvalidBufferException@@8
rdata$r	ENDS
;	COMDAT ??_R4InvalidBufferException@@6B@
rdata$r	SEGMENT
??_R4InvalidBufferException@@6B@ DD 00H			; InvalidBufferException::`RTTI Complete Object Locator'
	DD	00H
	DD	00H
	DD	FLAT:??_R0?AVInvalidBufferException@@@8
	DD	FLAT:??_R3InvalidBufferException@@8
rdata$r	ENDS
;	COMDAT ??_R1A@?0A@EA@out_of_range@std@@8
rdata$r	SEGMENT
??_R1A@?0A@EA@out_of_range@std@@8 DD FLAT:??_R0?AVout_of_range@std@@@8 ; std::out_of_range::`RTTI Base Class Descriptor at (0,-1,0,64)'
	DD	02H
	DD	00H
	DD	0ffffffffH
	DD	00H
	DD	040H
	DD	FLAT:??_R3out_of_range@std@@8
rdata$r	ENDS
;	COMDAT ??_R2out_of_range@std@@8
rdata$r	SEGMENT
??_R2out_of_range@std@@8 DD FLAT:??_R1A@?0A@EA@out_of_range@std@@8 ; std::out_of_range::`RTTI Base Class Array'
	DD	FLAT:??_R1A@?0A@EA@logic_error@std@@8
	DD	FLAT:??_R1A@?0A@EA@exception@std@@8
rdata$r	ENDS
;	COMDAT ??_R3out_of_range@std@@8
rdata$r	SEGMENT
??_R3out_of_range@std@@8 DD 00H				; std::out_of_range::`RTTI Class Hierarchy Descriptor'
	DD	00H
	DD	03H
	DD	FLAT:??_R2out_of_range@std@@8
rdata$r	ENDS
;	COMDAT ??_R4out_of_range@std@@6B@
rdata$r	SEGMENT
??_R4out_of_range@std@@6B@ DD 00H			; std::out_of_range::`RTTI Complete Object Locator'
	DD	00H
	DD	00H
	DD	FLAT:??_R0?AVout_of_range@std@@@8
	DD	FLAT:??_R3out_of_range@std@@8
rdata$r	ENDS
;	COMDAT ??_R1A@?0A@EA@logic_error@std@@8
rdata$r	SEGMENT
??_R1A@?0A@EA@logic_error@std@@8 DD FLAT:??_R0?AVlogic_error@std@@@8 ; std::logic_error::`RTTI Base Class Descriptor at (0,-1,0,64)'
	DD	01H
	DD	00H
	DD	0ffffffffH
	DD	00H
	DD	040H
	DD	FLAT:??_R3logic_error@std@@8
rdata$r	ENDS
;	COMDAT ??_R2logic_error@std@@8
rdata$r	SEGMENT
??_R2logic_error@std@@8 DD FLAT:??_R1A@?0A@EA@logic_error@std@@8 ; std::logic_error::`RTTI Base Class Array'
	DD	FLAT:??_R1A@?0A@EA@exception@std@@8
rdata$r	ENDS
;	COMDAT ??_R3logic_error@std@@8
rdata$r	SEGMENT
??_R3logic_error@std@@8 DD 00H				; std::logic_error::`RTTI Class Hierarchy Descriptor'
	DD	00H
	DD	02H
	DD	FLAT:??_R2logic_error@std@@8
rdata$r	ENDS
;	COMDAT ??_R4logic_error@std@@6B@
rdata$r	SEGMENT
??_R4logic_error@std@@6B@ DD 00H			; std::logic_error::`RTTI Complete Object Locator'
	DD	00H
	DD	00H
	DD	FLAT:??_R0?AVlogic_error@std@@@8
	DD	FLAT:??_R3logic_error@std@@8
rdata$r	ENDS
;	COMDAT ??_R2exception@std@@8
rdata$r	SEGMENT
??_R2exception@std@@8 DD FLAT:??_R1A@?0A@EA@exception@std@@8 ; std::exception::`RTTI Base Class Array'
rdata$r	ENDS
;	COMDAT ??_R3exception@std@@8
rdata$r	SEGMENT
??_R3exception@std@@8 DD 00H				; std::exception::`RTTI Class Hierarchy Descriptor'
	DD	00H
	DD	01H
	DD	FLAT:??_R2exception@std@@8
rdata$r	ENDS
;	COMDAT ??_R1A@?0A@EA@exception@std@@8
rdata$r	SEGMENT
??_R1A@?0A@EA@exception@std@@8 DD FLAT:??_R0?AVexception@std@@@8 ; std::exception::`RTTI Base Class Descriptor at (0,-1,0,64)'
	DD	00H
	DD	00H
	DD	0ffffffffH
	DD	00H
	DD	040H
	DD	FLAT:??_R3exception@std@@8
rdata$r	ENDS
;	COMDAT ??_C@_0BA@JFNIOLAK@string?5too?5long?$AA@
CONST	SEGMENT
??_C@_0BA@JFNIOLAK@string?5too?5long?$AA@ DB 'string too long', 00H ; `string'
CONST	ENDS
;	COMDAT ??_C@_0BI@CFPLBAOH@invalid?5string?5position?$AA@
CONST	SEGMENT
??_C@_0BI@CFPLBAOH@invalid?5string?5position?$AA@ DB 'invalid string posi'
	DB	'tion', 00H					; `string'
CONST	ENDS
;	COMDAT ??_C@_0CK@FGAGGLML@?$CFs?5?$CFd?3?5error?5reading?5dirty?0?5inva@
CONST	SEGMENT
??_C@_0CK@FGAGGLML@?$CFs?5?$CFd?3?5error?5reading?5dirty?0?5inva@ DB '%s '
	DB	'%d: error reading dirty, invalid cteam', 00H ; `string'
CONST	ENDS
;	COMDAT ??_C@_08BLEENGAP@Team?4cpp?$AA@
CONST	SEGMENT
??_C@_08BLEENGAP@Team?4cpp?$AA@ DB 'Team.cpp', 00H	; `string'
CONST	ENDS
;	COMDAT ??_C@_02DKCKIIND@?$CFs?$AA@
CONST	SEGMENT
??_C@_02DKCKIIND@?$CFs?$AA@ DB '%s', 00H		; `string'
CONST	ENDS
;	COMDAT ??_C@_03GDDNCFJF@his?$AA@
CONST	SEGMENT
??_C@_03GDDNCFJF@his?$AA@ DB 'his', 00H			; `string'
CONST	ENDS
;	COMDAT ??_C@_03FFNGDGKN@tmp?$AA@
CONST	SEGMENT
??_C@_03FFNGDGKN@tmp?$AA@ DB 'tmp', 00H			; `string'
CONST	ENDS
;	COMDAT ??_C@_03NJFDAMGG@frc?$AA@
CONST	SEGMENT
??_C@_03NJFDAMGG@frc?$AA@ DB 'frc', 00H			; `string'
CONST	ENDS
;	COMDAT ??_C@_02BOGAIONP@ab?$AA@
CONST	SEGMENT
??_C@_02BOGAIONP@ab?$AA@ DB 'ab', 00H			; `string'
CONST	ENDS
;	COMDAT ??_C@_07DFBNEDOG@intdict?$AA@
CONST	SEGMENT
??_C@_07DFBNEDOG@intdict?$AA@ DB 'intdict', 00H		; `string'
CONST	ENDS
;	COMDAT ??_C@_03LKCPPDCM@cas?$AA@
CONST	SEGMENT
??_C@_03LKCPPDCM@cas?$AA@ DB 'cas', 00H			; `string'
CONST	ENDS
;	COMDAT ??_C@_06BONAEKEC@attrit?$AA@
CONST	SEGMENT
??_C@_06BONAEKEC@attrit?$AA@ DB 'attrit', 00H		; `string'
CONST	ENDS
;	COMDAT ??_C@_07GBMLDGPP@offense?$AA@
CONST	SEGMENT
??_C@_07GBMLDGPP@offense?$AA@ DB 'offense', 00H		; `string'
CONST	ENDS
;	COMDAT ??_C@_07NEJDADE@defense?$AA@
CONST	SEGMENT
??_C@_07NEJDADE@defense?$AA@ DB 'defense', 00H		; `string'
CONST	ENDS
;	COMDAT ??_C@_03FGMOOMKP@pri?$AA@
CONST	SEGMENT
??_C@_03FGMOOMKP@pri?$AA@ DB 'pri', 00H			; `string'
CONST	ENDS
;	COMDAT ??_C@_02GMLFBBN@wb?$AA@
CONST	SEGMENT
??_C@_02GMLFBBN@wb?$AA@ DB 'wb', 00H			; `string'
CONST	ENDS
;	COMDAT ??_C@_03IBMEEAF@tea?$AA@
CONST	SEGMENT
??_C@_03IBMEEAF@tea?$AA@ DB 'tea', 00H			; `string'
CONST	ENDS
;	COMDAT ??_C@_02JDPG@rb?$AA@
CONST	SEGMENT
??_C@_02JDPG@rb?$AA@ DB 'rb', 00H			; `string'
CONST	ENDS
;	COMDAT ??_C@_0EN@PKKGELNA@Team?5CbtPow?5ADPow?5?5AirPow?5GndPow@
CONST	SEGMENT
??_C@_0EN@PKKGELNA@Team?5CbtPow?5ADPow?5?5AirPow?5GndPow@ DB 'Team CbtPow'
	DB	' ADPow  AirPow GndPow NvlPow Sup  Fuel Sats  Tran Mrle Exp  P'
	DB	'rod', 0aH, 00H				; `string'
CONST	ENDS
;	COMDAT ??_C@_03CLFHJCDC@txt?$AA@
CONST	SEGMENT
??_C@_03CLFHJCDC@txt?$AA@ DB 'txt', 00H			; `string'
CONST	ENDS
;	COMDAT ??_C@_01KDCPPGHE@r?$AA@
CONST	SEGMENT
??_C@_01KDCPPGHE@r?$AA@ DB 'r', 00H			; `string'
CONST	ENDS
;	COMDAT ??_C@_0L@FIIMKNHK@doctrine?$CFd?$AA@
CONST	SEGMENT
??_C@_0L@FIIMKNHK@doctrine?$CFd?$AA@ DB 'doctrine%d', 00H ; `string'
CONST	ENDS
;	COMDAT ??_C@_06FHFOAHML@system?$AA@
CONST	SEGMENT
??_C@_06FHFOAHML@system?$AA@ DB 'system', 00H		; `string'
CONST	ENDS
;	COMDAT ??_7_System_error_category@std@@6B@
CONST	SEGMENT
??_7_System_error_category@std@@6B@ DD FLAT:??_R4_System_error_category@std@@6B@ ; std::_System_error_category::`vftable'
	DD	FLAT:??_E_System_error_category@std@@UAEPAXI@Z
	DD	FLAT:?name@_System_error_category@std@@UBEPBDXZ
	DD	FLAT:?message@_System_error_category@std@@UBE?AV?$basic_string@DU?$char_traits@D@std@@V?$allocator@D@2@@2@H@Z
	DD	FLAT:?default_error_condition@_System_error_category@std@@UBE?AVerror_condition@2@H@Z
	DD	FLAT:?equivalent@error_category@std@@UBE_NABVerror_code@2@H@Z
	DD	FLAT:?equivalent@error_category@std@@UBE_NHABVerror_condition@2@@Z
CONST	ENDS
;	COMDAT ??_C@_0BG@PADBLCHM@iostream?5stream?5error?$AA@
CONST	SEGMENT
??_C@_0BG@PADBLCHM@iostream?5stream?5error?$AA@ DB 'iostream stream error'
	DB	00H						; `string'
CONST	ENDS
;	COMDAT ??_C@_08LLGCOLLL@iostream?$AA@
CONST	SEGMENT
??_C@_08LLGCOLLL@iostream?$AA@ DB 'iostream', 00H	; `string'
CONST	ENDS
;	COMDAT ??_7_Iostream_error_category@std@@6B@
CONST	SEGMENT
??_7_Iostream_error_category@std@@6B@ DD FLAT:??_R4_Iostream_error_category@std@@6B@ ; std::_Iostream_error_category::`vftable'
	DD	FLAT:??_E_Iostream_error_category@std@@UAEPAXI@Z
	DD	FLAT:?name@_Iostream_error_category@std@@UBEPBDXZ
	DD	FLAT:?message@_Iostream_error_category@std@@UBE?AV?$basic_string@DU?$char_traits@D@std@@V?$allocator@D@2@@2@H@Z
	DD	FLAT:?default_error_condition@error_category@std@@UBE?AVerror_condition@2@H@Z
	DD	FLAT:?equivalent@error_category@std@@UBE_NABVerror_code@2@H@Z
	DD	FLAT:?equivalent@error_category@std@@UBE_NHABVerror_condition@2@@Z
CONST	ENDS
;	COMDAT ??_C@_0O@BFJCFAAK@unknown?5error?$AA@
CONST	SEGMENT
??_C@_0O@BFJCFAAK@unknown?5error?$AA@ DB 'unknown error', 00H ; `string'
CONST	ENDS
;	COMDAT ??_C@_07DCLBNMLN@generic?$AA@
CONST	SEGMENT
??_C@_07DCLBNMLN@generic?$AA@ DB 'generic', 00H		; `string'
CONST	ENDS
;	COMDAT ??_7_Generic_error_category@std@@6B@
CONST	SEGMENT
??_7_Generic_error_category@std@@6B@ DD FLAT:??_R4_Generic_error_category@std@@6B@ ; std::_Generic_error_category::`vftable'
	DD	FLAT:??_E_Generic_error_category@std@@UAEPAXI@Z
	DD	FLAT:?name@_Generic_error_category@std@@UBEPBDXZ
	DD	FLAT:?message@_Generic_error_category@std@@UBE?AV?$basic_string@DU?$char_traits@D@std@@V?$allocator@D@2@@2@H@Z
	DD	FLAT:?default_error_condition@error_category@std@@UBE?AVerror_condition@2@H@Z
	DD	FLAT:?equivalent@error_category@std@@UBE_NABVerror_code@2@H@Z
	DD	FLAT:?equivalent@error_category@std@@UBE_NHABVerror_condition@2@@Z
CONST	ENDS
;	COMDAT ??_7error_category@std@@6B@
CONST	SEGMENT
??_7error_category@std@@6B@ DD FLAT:??_R4error_category@std@@6B@ ; std::error_category::`vftable'
	DD	FLAT:??_Eerror_category@std@@UAEPAXI@Z
	DD	FLAT:__purecall
	DD	FLAT:__purecall
	DD	FLAT:?default_error_condition@error_category@std@@UBE?AVerror_condition@2@H@Z
	DD	FLAT:?equivalent@error_category@std@@UBE_NABVerror_code@2@H@Z
	DD	FLAT:?equivalent@error_category@std@@UBE_NHABVerror_condition@2@@Z
CONST	ENDS
;	COMDAT ??_7TeamClass@@6B@
CONST	SEGMENT
??_7TeamClass@@6B@ DD FLAT:??_R4TeamClass@@6B@		; TeamClass::`vftable'
	DD	FLAT:?CustomCollisionCheck@VuEntity@@UAEEPAV1@M@Z
	DD	FLAT:?TerrainCollisionCheck@VuEntity@@UAEEXZ
	DD	FLAT:?IsTarget@VuEntity@@UAEEXZ
	DD	FLAT:?IsSession@VuEntity@@UAEEXZ
	DD	FLAT:?IsGroup@VuEntity@@UAEEXZ
	DD	FLAT:?IsGame@VuEntity@@UAEEXZ
	DD	FLAT:?IsCamera@VuEntity@@UBEEXZ
	DD	FLAT:?SaveSize@TeamClass@@UAEHXZ
	DD	FLAT:?Save@TeamClass@@UAEHPAU_iobuf@@@Z
	DD	FLAT:?Save@TeamClass@@UAEHPAPAE@Z
	DD	FLAT:?Handle@TeamClass@@UAEHPAVVuSessionEvent@@@Z
	DD	FLAT:?Handle@TeamClass@@UAEHPAVVuTransferEvent@@@Z
	DD	FLAT:?Handle@TeamClass@@UAEHPAVVuEntityCollisionEvent@@@Z
	DD	FLAT:?Handle@TeamClass@@UAEHPAVVuPositionUpdateEvent@@@Z
	DD	FLAT:?Handle@TeamClass@@UAEHPAVVuFullUpdateEvent@@@Z
	DD	FLAT:?Handle@TeamClass@@UAEHPAVVuEvent@@@Z
	DD	FLAT:?Handle@VuEntity@@UAEHPAVVuPullRequest@@@Z
	DD	FLAT:?Handle@VuEntity@@UAEHPAVVuPushRequest@@@Z
	DD	FLAT:?Handle@VuEntity@@UAEHPAVVuErrorMessage@@@Z
	DD	FLAT:??_ETeamClass@@UAEPAXI@Z
	DD	FLAT:?InsertionCallback@TeamClass@@UAEHXZ
	DD	FLAT:?RemovalCallback@TeamClass@@UAEHXZ
	DD	FLAT:?InitData@TeamClass@@UAEXXZ
	DD	FLAT:?CleanupData@FalconEntity@@UAEXXZ
	DD	FLAT:?IsSimBase@FalconEntity@@UAE_NXZ
	DD	FLAT:?IsCampBase@FalconEntity@@UAE_NXZ
	DD	FLAT:?Wake@TeamClass@@UAEHXZ
	DD	FLAT:?Sleep@TeamClass@@UAEHXZ
	DD	FLAT:?GetCampID@TeamClass@@UAEFXZ
	DD	FLAT:?GetTeam@TeamClass@@UAEEXZ
	DD	FLAT:?GetCountry@TeamClass@@UAEEXZ
	DD	FLAT:?GetDomain@FalconEntity@@UAEEXZ
	DD	FLAT:?GetRadarMode@FalconEntity@@UAEHXZ
	DD	FLAT:?SetRadarMode@FalconEntity@@UAEXE@Z
	DD	FLAT:?ReturnToSearch@FalconEntity@@UAEXXZ
	DD	FLAT:?SetSearchMode@FalconEntity@@UAEXE@Z
	DD	FLAT:?CombatClass@FalconEntity@@UAEHXZ
	DD	FLAT:?OnGround@FalconEntity@@UAEHXZ
	DD	FLAT:?HasEntity@FalconEntity@@UBEHPAVVuEntity@@@Z
	DD	FLAT:?IsMissile@FalconEntity@@UAEHXZ
	DD	FLAT:?IsLauncher@FalconEntity@@UAEHXZ
	DD	FLAT:?IsBomb@FalconEntity@@UAEHXZ
	DD	FLAT:?IsGun@FalconEntity@@UAEHXZ
	DD	FLAT:?IsMover@FalconEntity@@UAEHXZ
	DD	FLAT:?IsVehicle@FalconEntity@@UAEHXZ
	DD	FLAT:?IsStatic@FalconEntity@@UAEHXZ
	DD	FLAT:?IsHelicopter@FalconEntity@@UAEHXZ
	DD	FLAT:?IsEject@FalconEntity@@UAEHXZ
	DD	FLAT:?IsAirplane@FalconEntity@@UAEHXZ
	DD	FLAT:?IsGroundVehicle@FalconEntity@@UAEHXZ
	DD	FLAT:?IsShip@FalconEntity@@UAEHXZ
	DD	FLAT:?IsWeapon@FalconEntity@@UAEHXZ
	DD	FLAT:?IsExploding@FalconEntity@@UAEHXZ
	DD	FLAT:?IsDead@FalconEntity@@UAEHXZ
	DD	FLAT:?IsEmitting@FalconEntity@@UAEHXZ
	DD	FLAT:?GetVt@TeamClass@@UBEMXZ
	DD	FLAT:?GetKias@TeamClass@@UBEMXZ
	DD	FLAT:?GetMovementType@FalconEntity@@UAE?AW4MoveType@@XZ
	DD	FLAT:?IsUnit@FalconEntity@@UAEHXZ
	DD	FLAT:?IsObjective@FalconEntity@@UAEHXZ
	DD	FLAT:?IsBattalion@FalconEntity@@UAEHXZ
	DD	FLAT:?IsBrigade@FalconEntity@@UAEHXZ
	DD	FLAT:?IsFlight@FalconEntity@@UBEHXZ
	DD	FLAT:?IsSquadron@FalconEntity@@UAEHXZ
	DD	FLAT:?IsPackage@FalconEntity@@UAEHXZ
	DD	FLAT:?IsTeam@TeamClass@@UAEHXZ
	DD	FLAT:?IsTaskForce@FalconEntity@@UAEHXZ
	DD	FLAT:?IsSPJamming@FalconEntity@@UAEHXZ
	DD	FLAT:?IsAreaJamming@FalconEntity@@UAEHXZ
	DD	FLAT:?HasSPJamming@FalconEntity@@UAEHXZ
	DD	FLAT:?HasAreaJamming@FalconEntity@@UAEHXZ
	DD	FLAT:?GetRCSFactor@FalconEntity@@UAEMXZ
	DD	FLAT:?GetIRFactor@FalconEntity@@UAEMXZ
	DD	FLAT:?GetRadarType@FalconEntity@@UAEHXZ
	DD	FLAT:?GetDamageModifiers@FalconEntity@@UAEPAEXZ
	DD	FLAT:?SetAQUIREtimer@FalconEntity@@UAEXK@Z
	DD	FLAT:?SetSEARCHtimer@FalconEntity@@UAEXK@Z
	DD	FLAT:?SetStepSearchMode@FalconEntity@@UAEXE@Z
	DD	FLAT:?GetAQUIREtimer@FalconEntity@@UAEKXZ
	DD	FLAT:?GetSEARCHtimer@FalconEntity@@UAEKXZ
CONST	ENDS
;	COMDAT __CT??_R0?AVexception@std@@@8??0exception@std@@QAE@ABV01@@Z12
xdata$x	SEGMENT
__CT??_R0?AVexception@std@@@8??0exception@std@@QAE@ABV01@@Z12 DD 00H
	DD	FLAT:??_R0?AVexception@std@@@8
	DD	00H
	DD	0ffffffffH
	ORG $+4
	DD	0cH
	DD	FLAT:??0exception@std@@QAE@ABV01@@Z
xdata$x	ENDS
;	COMDAT ??_R0?AVexception@std@@@8
_DATA	SEGMENT
??_R0?AVexception@std@@@8 DD FLAT:??_7type_info@@6B@	; std::exception `RTTI Type Descriptor'
	DD	00H
	DB	'.?AVexception@std@@', 00H
_DATA	ENDS
;	COMDAT __CT??_R0?AVlogic_error@std@@@8??0logic_error@std@@QAE@ABV01@@Z12
xdata$x	SEGMENT
__CT??_R0?AVlogic_error@std@@@8??0logic_error@std@@QAE@ABV01@@Z12 DD 00H
	DD	FLAT:??_R0?AVlogic_error@std@@@8
	DD	00H
	DD	0ffffffffH
	ORG $+4
	DD	0cH
	DD	FLAT:??0logic_error@std@@QAE@ABV01@@Z
xdata$x	ENDS
;	COMDAT ??_R0?AVlogic_error@std@@@8
_DATA	SEGMENT
??_R0?AVlogic_error@std@@@8 DD FLAT:??_7type_info@@6B@	; std::logic_error `RTTI Type Descriptor'
	DD	00H
	DB	'.?AVlogic_error@std@@', 00H
_DATA	ENDS
;	COMDAT __CT??_R0?AVout_of_range@std@@@8??0out_of_range@std@@QAE@ABV01@@Z12
xdata$x	SEGMENT
__CT??_R0?AVout_of_range@std@@@8??0out_of_range@std@@QAE@ABV01@@Z12 DD 00H
	DD	FLAT:??_R0?AVout_of_range@std@@@8
	DD	00H
	DD	0ffffffffH
	ORG $+4
	DD	0cH
	DD	FLAT:??0out_of_range@std@@QAE@ABV01@@Z
xdata$x	ENDS
;	COMDAT ??_R0?AVout_of_range@std@@@8
_DATA	SEGMENT
??_R0?AVout_of_range@std@@@8 DD FLAT:??_7type_info@@6B@	; std::out_of_range `RTTI Type Descriptor'
	DD	00H
	DB	'.?AVout_of_range@std@@', 00H
_DATA	ENDS
;	COMDAT __CT??_R0?AVInvalidBufferException@@@8??0InvalidBufferException@@QAE@ABV0@@Z12
xdata$x	SEGMENT
__CT??_R0?AVInvalidBufferException@@@8??0InvalidBufferException@@QAE@ABV0@@Z12 DD 00H
	DD	FLAT:??_R0?AVInvalidBufferException@@@8
	DD	00H
	DD	0ffffffffH
	ORG $+4
	DD	0cH
	DD	FLAT:??0InvalidBufferException@@QAE@ABV0@@Z
xdata$x	ENDS
;	COMDAT ??_R0?AVInvalidBufferException@@@8
_DATA	SEGMENT
??_R0?AVInvalidBufferException@@@8 DD FLAT:??_7type_info@@6B@ ; InvalidBufferException `RTTI Type Descriptor'
	DD	00H
	DB	'.?AVInvalidBufferException@@', 00H
_DATA	ENDS
;	COMDAT __CTA4?AVInvalidBufferException@@
xdata$x	SEGMENT
__CTA4?AVInvalidBufferException@@ DD 04H
	DD	FLAT:__CT??_R0?AVInvalidBufferException@@@8??0InvalidBufferException@@QAE@ABV0@@Z12
	DD	FLAT:__CT??_R0?AVout_of_range@std@@@8??0out_of_range@std@@QAE@ABV01@@Z12
	DD	FLAT:__CT??_R0?AVlogic_error@std@@@8??0logic_error@std@@QAE@ABV01@@Z12
	DD	FLAT:__CT??_R0?AVexception@std@@@8??0exception@std@@QAE@ABV01@@Z12
xdata$x	ENDS
;	COMDAT __TI4?AVInvalidBufferException@@
xdata$x	SEGMENT
__TI4?AVInvalidBufferException@@ DD 00H
	DD	FLAT:??1InvalidBufferException@@UAE@XZ
	DD	00H
	DD	FLAT:__CTA4?AVInvalidBufferException@@
xdata$x	ENDS
;	COMDAT ??_C@_0CI@MPKJAHJH@Trying?5to?5write?5?$CFlu?5bytes?5to?5?$CFld@
CONST	SEGMENT
??_C@_0CI@MPKJAHJH@Trying?5to?5write?5?$CFlu?5bytes?5to?5?$CFld@ DB 'Tryi'
	DB	'ng to write %lu bytes to %ld buffer', 00H	; `string'
CONST	ENDS
;	COMDAT ??_7InvalidBufferException@@6B@
CONST	SEGMENT
??_7InvalidBufferException@@6B@ DD FLAT:??_R4InvalidBufferException@@6B@ ; InvalidBufferException::`vftable'
	DD	FLAT:??_EInvalidBufferException@@UAEPAXI@Z
	DD	FLAT:?what@exception@std@@UBEPBDXZ
CONST	ENDS
;	COMDAT ??_7out_of_range@std@@6B@
CONST	SEGMENT
??_7out_of_range@std@@6B@ DD FLAT:??_R4out_of_range@std@@6B@ ; std::out_of_range::`vftable'
	DD	FLAT:??_Eout_of_range@std@@UAEPAXI@Z
	DD	FLAT:?what@exception@std@@UBEPBDXZ
CONST	ENDS
;	COMDAT ??_7logic_error@std@@6B@
CONST	SEGMENT
??_7logic_error@std@@6B@ DD FLAT:??_R4logic_error@std@@6B@ ; std::logic_error::`vftable'
	DD	FLAT:??_Elogic_error@std@@UAEPAXI@Z
	DD	FLAT:?what@exception@std@@UBEPBDXZ
CONST	ENDS
;	COMDAT xdata$x
xdata$x	SEGMENT
__unwindtable$??$construct@PADAAPAD@?$allocator@D@std@@QAEXPAPADAAPAD@Z DD 0ffffffffH
	DD	FLAT:__unwindfunclet$??$construct@PADAAPAD@?$allocator@D@std@@QAEXPAPADAAPAD@Z$0
__ehfuncinfo$??$construct@PADAAPAD@?$allocator@D@std@@QAEXPAPADAAPAD@Z DD 019930522H
	DD	01H
	DD	FLAT:__unwindtable$??$construct@PADAAPAD@?$allocator@D@std@@QAEXPAPADAAPAD@Z
	DD	2 DUP(00H)
	DD	2 DUP(00H)
	DD	00H
	DD	01H
xdata$x	ENDS
xdata$x	SEGMENT
__unwindtable$?ReadDirty@TeamClass@@QAEXPAPAEPAJ@Z DD 0ffffffffH
	DD	FLAT:__unwindfunclet$?ReadDirty@TeamClass@@QAEXPAPAEPAJ@Z$0
__unwindtable$?SelectGroundAction@TeamClass@@QAEXXZ DD 0ffffffffH
	DD	FLAT:__unwindfunclet$?SelectGroundAction@TeamClass@@QAEXXZ$0
__unwindtable$??0TeamClass@@QAE@PAU_iobuf@@@Z DD 0ffffffffH
	DD	FLAT:__unwindfunclet$??0TeamClass@@QAE@PAU_iobuf@@@Z$0
__unwindtable$??0TeamClass@@QAE@PAPAEPAJ@Z DD 0ffffffffH
	DD	FLAT:__unwindfunclet$??0TeamClass@@QAE@PAPAEPAJ@Z$0
__unwindtable$??0TeamClass@@QAE@HE@Z DD 0ffffffffH
	DD	FLAT:__unwindfunclet$??0TeamClass@@QAE@HE@Z$0
__unwindtable$?AddReinforcements@@YAXEH@Z DD 0ffffffffH
	DD	FLAT:__unwindfunclet$?AddReinforcements@@YAXEH@Z$0
	DD	00H
	DD	FLAT:__unwindfunclet$?AddReinforcements@@YAXEH@Z$1
__unwindtable$?UpdateTeamStatistics@@YAXXZ DD 0ffffffffH
	DD	FLAT:__unwindfunclet$?UpdateTeamStatistics@@YAXXZ$0
	DD	0ffffffffH
	DD	FLAT:__unwindfunclet$?UpdateTeamStatistics@@YAXXZ$1
	DD	0ffffffffH
	DD	FLAT:__unwindfunclet$?UpdateTeamStatistics@@YAXXZ$2
__unwindtable$?SelectAirActions@TeamClass@@QAEXXZ DD 0ffffffffH
	DD	FLAT:__unwindfunclet$?SelectAirActions@TeamClass@@QAEXXZ$0
	DD	0ffffffffH
	DD	FLAT:__unwindfunclet$?SelectAirActions@TeamClass@@QAEXXZ$1
	DD	0ffffffffH
	DD	FLAT:__unwindfunclet$?SelectAirActions@TeamClass@@QAEXXZ$2
__unwindtable$?AddTeam@@YAXHH@Z DD 0ffffffffH
	DD	FLAT:__unwindfunclet$?AddTeam@@YAXHH@Z$0
	DD	0ffffffffH
	DD	FLAT:__unwindfunclet$?AddTeam@@YAXHH@Z$1
	DD	0ffffffffH
	DD	FLAT:__unwindfunclet$?AddTeam@@YAXHH@Z$2
	DD	0ffffffffH
	DD	FLAT:__unwindfunclet$?AddTeam@@YAXHH@Z$3
__unwindtable$?LoadTeams@@YAHPAD@Z DD 0ffffffffH
	DD	FLAT:__unwindfunclet$?LoadTeams@@YAHPAD@Z$0
	DD	0ffffffffH
	DD	FLAT:__unwindfunclet$?LoadTeams@@YAHPAD@Z$1
	DD	0ffffffffH
	DD	FLAT:__unwindfunclet$?LoadTeams@@YAHPAD@Z$2
	DD	0ffffffffH
	DD	FLAT:__unwindfunclet$?LoadTeams@@YAHPAD@Z$3
__unwindtable$?DoFullUpdate@TeamClass@@QAEXPAVVuTargetEntity@@@Z DD 0ffffffffH
	DD	FLAT:__unwindfunclet$?DoFullUpdate@TeamClass@@QAEXPAVVuTargetEntity@@@Z$0
	DD	0ffffffffH
	DD	FLAT:__unwindfunclet$?DoFullUpdate@TeamClass@@QAEXPAVVuTargetEntity@@@Z$1
	DD	0ffffffffH
	DD	FLAT:__unwindfunclet$?DoFullUpdate@TeamClass@@QAEXPAVVuTargetEntity@@@Z$2
	DD	0ffffffffH
	DD	FLAT:__unwindfunclet$?DoFullUpdate@TeamClass@@QAEXPAVVuTargetEntity@@@Z$3
__ehfuncinfo$?AddTeam@@YAXHH@Z DD 019930522H
	DD	04H
	DD	FLAT:__unwindtable$?AddTeam@@YAXHH@Z
	DD	2 DUP(00H)
	DD	2 DUP(00H)
	DD	00H
	DD	01H
__ehfuncinfo$?UpdateTeamStatistics@@YAXXZ DD 019930522H
	DD	03H
	DD	FLAT:__unwindtable$?UpdateTeamStatistics@@YAXXZ
	DD	2 DUP(00H)
	DD	2 DUP(00H)
	DD	00H
	DD	01H
__ehfuncinfo$?AddReinforcements@@YAXEH@Z DD 019930522H
	DD	02H
	DD	FLAT:__unwindtable$?AddReinforcements@@YAXEH@Z
	DD	2 DUP(00H)
	DD	2 DUP(00H)
	DD	00H
	DD	01H
__ehfuncinfo$?LoadTeams@@YAHPAD@Z DD 019930522H
	DD	04H
	DD	FLAT:__unwindtable$?LoadTeams@@YAHPAD@Z
	DD	2 DUP(00H)
	DD	2 DUP(00H)
	DD	00H
	DD	01H
__ehfuncinfo$?ReadDirty@TeamClass@@QAEXPAPAEPAJ@Z DD 019930522H
	DD	01H
	DD	FLAT:__unwindtable$?ReadDirty@TeamClass@@QAEXPAPAEPAJ@Z
	DD	2 DUP(00H)
	DD	2 DUP(00H)
	DD	00H
	DD	01H
__ehfuncinfo$?SelectAirActions@TeamClass@@QAEXXZ DD 019930522H
	DD	03H
	DD	FLAT:__unwindtable$?SelectAirActions@TeamClass@@QAEXXZ
	DD	2 DUP(00H)
	DD	2 DUP(00H)
	DD	00H
	DD	01H
__ehfuncinfo$?SelectGroundAction@TeamClass@@QAEXXZ DD 019930522H
	DD	01H
	DD	FLAT:__unwindtable$?SelectGroundAction@TeamClass@@QAEXXZ
	DD	2 DUP(00H)
	DD	2 DUP(00H)
	DD	00H
	DD	01H
__ehfuncinfo$?DoFullUpdate@TeamClass@@QAEXPAVVuTargetEntity@@@Z DD 019930522H
	DD	04H
	DD	FLAT:__unwindtable$?DoFullUpdate@TeamClass@@QAEXPAVVuTargetEntity@@@Z
	DD	2 DUP(00H)
	DD	2 DUP(00H)
	DD	00H
	DD	01H
__ehfuncinfo$??0TeamClass@@QAE@PAU_iobuf@@@Z DD 019930522H
	DD	01H
	DD	FLAT:__unwindtable$??0TeamClass@@QAE@PAU_iobuf@@@Z
	DD	2 DUP(00H)
	DD	2 DUP(00H)
	DD	00H
	DD	01H
__ehfuncinfo$??0TeamClass@@QAE@PAPAEPAJ@Z DD 019930522H
	DD	01H
	DD	FLAT:__unwindtable$??0TeamClass@@QAE@PAPAEPAJ@Z
	DD	2 DUP(00H)
	DD	2 DUP(00H)
	DD	00H
	DD	01H
__ehfuncinfo$??0TeamClass@@QAE@HE@Z DD 019930522H
	DD	01H
	DD	FLAT:__unwindtable$??0TeamClass@@QAE@HE@Z
	DD	2 DUP(00H)
	DD	2 DUP(00H)
	DD	00H
	DD	01H
xdata$x	ENDS
;	COMDAT xdata$x
xdata$x	SEGMENT
__unwindtable$?memcpychk@@YAXPAXPAPAEIPAJ@Z DD 0ffffffffH
	DD	FLAT:__unwindfunclet$?memcpychk@@YAXPAXPAPAEIPAJ@Z$0
__ehfuncinfo$?memcpychk@@YAXPAXPAPAEIPAJ@Z DD 019930522H
	DD	01H
	DD	FLAT:__unwindtable$?memcpychk@@YAXPAXPAPAEIPAJ@Z
	DD	2 DUP(00H)
	DD	2 DUP(00H)
	DD	00H
	DD	01H
xdata$x	ENDS
;	COMDAT xdata$x
xdata$x	SEGMENT
__catchsym$?_Copy@?$basic_string@DU?$char_traits@D@std@@V?$allocator@D@2@@std@@QAEXII@Z$5 DD 040H
	DD	00H
	DD	00H
	DD	FLAT:__catch$?_Copy@?$basic_string@DU?$char_traits@D@std@@V?$allocator@D@2@@std@@QAEXII@Z$0
__catchsym$?_Copy@?$basic_string@DU?$char_traits@D@std@@V?$allocator@D@2@@std@@QAEXII@Z$4 DD 040H
	DD	00H
	DD	00H
	DD	FLAT:__catch$?_Copy@?$basic_string@DU?$char_traits@D@std@@V?$allocator@D@2@@std@@QAEXII@Z$1
__unwindtable$?_Copy@?$basic_string@DU?$char_traits@D@std@@V?$allocator@D@2@@std@@QAEXII@Z DD 0ffffffffH
	DD	00H
	DD	0ffffffffH
	DD	00H
	DD	01H
	DD	00H
	DD	01H
	DD	00H
__ehfuncinfo$?_Copy@?$basic_string@DU?$char_traits@D@std@@V?$allocator@D@2@@std@@QAEXII@Z DD 019930522H
	DD	04H
	DD	FLAT:__unwindtable$?_Copy@?$basic_string@DU?$char_traits@D@std@@V?$allocator@D@2@@std@@QAEXII@Z
	DD	02H
	DD	FLAT:__tryblocktable$?_Copy@?$basic_string@DU?$char_traits@D@std@@V?$allocator@D@2@@std@@QAEXII@Z
	DD	2 DUP(00H)
	DD	00H
	DD	01H
__tryblocktable$?_Copy@?$basic_string@DU?$char_traits@D@std@@V?$allocator@D@2@@std@@QAEXII@Z DD 02H
	DD	02H
	DD	03H
	DD	01H
	DD	FLAT:__catchsym$?_Copy@?$basic_string@DU?$char_traits@D@std@@V?$allocator@D@2@@std@@QAEXII@Z$4
	DD	00H
	DD	00H
	DD	03H
	DD	01H
	DD	FLAT:__catchsym$?_Copy@?$basic_string@DU?$char_traits@D@std@@V?$allocator@D@2@@std@@QAEXII@Z$5
xdata$x	ENDS
CRT$XCU	SEGMENT
_allocator_arg$initializer$ DD FLAT:??__Eallocator_arg@std@@YAXXZ
CRT$XCU	ENDS
;	COMDAT CRT$XCU
CRT$XCU	SEGMENT
?_Generic_object$initializer$@?$_Error_objects@H@std@@2P6AXXZA DD FLAT:??__E?_Generic_object@?$_Error_objects@H@std@@2V_Generic_error_category@2@A@@YAXXZ ; std::_Error_objects<int>::_Generic_object$initializer$
CRT$XCU	ENDS
;	COMDAT CRT$XCU
CRT$XCU	SEGMENT
?_Iostream_object$initializer$@?$_Error_objects@H@std@@2P6AXXZA DD FLAT:??__E?_Iostream_object@?$_Error_objects@H@std@@2V_Iostream_error_category@2@A@@YAXXZ ; std::_Error_objects<int>::_Iostream_object$initializer$
CRT$XCU	ENDS
;	COMDAT CRT$XCU
CRT$XCU	SEGMENT
?_System_object$initializer$@?$_Error_objects@H@std@@2P6AXXZA DD FLAT:??__E?_System_object@?$_Error_objects@H@std@@2V_System_error_category@2@A@@YAXXZ ; std::_Error_objects<int>::_System_object$initializer$
CRT$XCU	ENDS
;	COMDAT CRT$XCU
CRT$XCU	SEGMENT
?id$initializer$@?$num_put@DV?$back_insert_iterator@V?$basic_string@DU?$char_traits@D@std@@V?$allocator@D@2@@std@@@std@@@std@@2P6AXXZA DD FLAT:??__E?id@?$num_put@DV?$back_insert_iterator@V?$basic_string@DU?$char_traits@D@std@@V?$allocator@D@2@@std@@@std@@@std@@2V0locale@2@A@@YAXXZ ; std::num_put<char,std::back_insert_iterator<std::basic_string<char,std::char_traits<char>,std::allocator<char> > > >::id$initializer$
CRT$XCU	ENDS
;	COMDAT CRT$XCU
CRT$XCU	SEGMENT
?id$initializer$@?$num_put@_WV?$back_insert_iterator@V?$basic_string@_WU?$char_traits@_W@std@@V?$allocator@_W@2@@std@@@std@@@std@@2P6AXXZA DD FLAT:??__E?id@?$num_put@_WV?$back_insert_iterator@V?$basic_string@_WU?$char_traits@_W@std@@V?$allocator@_W@2@@std@@@std@@@std@@2V0locale@2@A@@YAXXZ ; std::num_put<wchar_t,std::back_insert_iterator<std::basic_string<wchar_t,std::char_traits<wchar_t>,std::allocator<wchar_t> > > >::id$initializer$
CRT$XCU	ENDS
;	COMDAT CRT$XCU
CRT$XCU	SEGMENT
?id$initializer$@?$numpunct@D@std@@2P6AXXZA DD FLAT:??__E?id@?$numpunct@D@std@@2V0locale@2@A@@YAXXZ ; std::numpunct<char>::id$initializer$
CRT$XCU	ENDS
;	COMDAT CRT$XCU
CRT$XCU	SEGMENT
?id$initializer$@?$numpunct@_W@std@@2P6AXXZA DD FLAT:??__E?id@?$numpunct@_W@std@@2V0locale@2@A@@YAXXZ ; std::numpunct<wchar_t>::id$initializer$
CRT$XCU	ENDS
; Function compile flags: /Odtp
; File c:\program files (x86)\microsoft visual studio 11.0\vc\include\xmemory0
;	COMDAT ??$destroy@PAD@?$allocator@D@std@@QAEXPAPAD@Z
_TEXT	SEGMENT
_this$ = -4						; size = 4
__Ptr$ = 8						; size = 4
??$destroy@PAD@?$allocator@D@std@@QAEXPAPAD@Z PROC	; std::allocator<char>::destroy<char *>, COMDAT
; _this$ = ecx

; 621  : 		void destroy(_Uty *_Ptr)

	push	ebp
	mov	ebp, esp
	push	ecx
	mov	DWORD PTR _this$[ebp], ecx

; 622  : 		{	// destroy object at _Ptr
; 623  : 		_Ptr->~_Uty();
; 624  : 		}

	mov	esp, ebp
	pop	ebp
	ret	4
??$destroy@PAD@?$allocator@D@std@@QAEXPAPAD@Z ENDP	; std::allocator<char>::destroy<char *>
_TEXT	ENDS
; Function compile flags: /Odtp
; File c:\program files (x86)\microsoft visual studio 11.0\vc\include\xmemory0
;	COMDAT ??$construct@PADAAPAD@?$allocator@D@std@@QAEXPAPADAAPAD@Z
_TEXT	SEGMENT
$T2 = -28						; size = 4
_this$ = -24						; size = 4
tv73 = -20						; size = 4
$T3 = -16						; size = 4
__$EHRec$ = -12						; size = 12
__Ptr$ = 8						; size = 4
__V0$ = 12						; size = 4
??$construct@PADAAPAD@?$allocator@D@std@@QAEXPAPADAAPAD@Z PROC ; std::allocator<char>::construct<char *,char * &>, COMDAT
; _this$ = ecx

; 617  : _VARIADIC_EXPAND_0X(_ALLOC_MEMBER_CONSTRUCT, , , , )

	push	ebp
	mov	ebp, esp
	push	-1
	push	__ehhandler$??$construct@PADAAPAD@?$allocator@D@std@@QAEXPAPADAAPAD@Z
	mov	eax, DWORD PTR fs:0
	push	eax
	sub	esp, 16					; 00000010H
	mov	eax, DWORD PTR ___security_cookie
	xor	eax, ebp
	push	eax
	lea	eax, DWORD PTR __$EHRec$[ebp]
	mov	DWORD PTR fs:0, eax
	mov	DWORD PTR _this$[ebp], ecx
	mov	eax, DWORD PTR __Ptr$[ebp]
	push	eax
	push	4
	call	??2@YAPAXIPAX@Z				; operator new
	add	esp, 8
	mov	DWORD PTR $T3[ebp], eax
	mov	DWORD PTR __$EHRec$[ebp+8], 0
	cmp	DWORD PTR $T3[ebp], 0
	je	SHORT $LN3@construct
	mov	ecx, DWORD PTR __V0$[ebp]
	push	ecx
	call	??$forward@AAPAD@std@@YAAAPADAAPAD@Z	; std::forward<char * &>
	add	esp, 4
	mov	edx, DWORD PTR $T3[ebp]
	mov	eax, DWORD PTR [eax]
	mov	DWORD PTR [edx], eax
	mov	ecx, DWORD PTR $T3[ebp]
	mov	DWORD PTR tv73[ebp], ecx
	jmp	SHORT $LN4@construct
$LN3@construct:
	mov	DWORD PTR tv73[ebp], 0
$LN4@construct:
	mov	edx, DWORD PTR tv73[ebp]
	mov	DWORD PTR $T2[ebp], edx
	mov	DWORD PTR __$EHRec$[ebp+8], -1
	mov	ecx, DWORD PTR __$EHRec$[ebp]
	mov	DWORD PTR fs:0, ecx
	pop	ecx
	mov	esp, ebp
	pop	ebp
	ret	8
_TEXT	ENDS
;	COMDAT text$x
text$x	SEGMENT
__unwindfunclet$??$construct@PADAAPAD@?$allocator@D@std@@QAEXPAPADAAPAD@Z$0:
	mov	eax, DWORD PTR __Ptr$[ebp]
	push	eax
	mov	eax, DWORD PTR $T3[ebp]
	push	eax
	call	??3@YAXPAX0@Z				; operator delete
	add	esp, 8
	ret	0
__ehhandler$??$construct@PADAAPAD@?$allocator@D@std@@QAEXPAPADAAPAD@Z:
	mov	edx, DWORD PTR [esp+8]
	lea	eax, DWORD PTR [edx+12]
	mov	ecx, DWORD PTR [edx-20]
	xor	ecx, eax
	call	@__security_check_cookie@4
	mov	eax, OFFSET __ehfuncinfo$??$construct@PADAAPAD@?$allocator@D@std@@QAEXPAPADAAPAD@Z
	jmp	___CxxFrameHandler3
text$x	ENDS
??$construct@PADAAPAD@?$allocator@D@std@@QAEXPAPADAAPAD@Z ENDP ; std::allocator<char>::construct<char *,char * &>
; Function compile flags: /Odtp
; File c:\program files (x86)\microsoft visual studio 11.0\vc\include\xlocnum
;	COMDAT ??__E?id@?$numpunct@_W@std@@2V0locale@2@A@@YAXXZ
text$yc	SEGMENT
??__E?id@?$numpunct@_W@std@@2V0locale@2@A@@YAXXZ PROC	; `dynamic initializer for 'std::numpunct<wchar_t>::id'', COMDAT

; 155  : 		void _Getvals(wchar_t, const lconv *_Ptr, _Locinfo::_Cvtvec)

	push	ebp
	mov	ebp, esp
	push	0
	mov	ecx, OFFSET ?id@?$numpunct@_W@std@@2V0locale@2@A ; std::numpunct<wchar_t>::id
	call	??0id@locale@std@@QAE@I@Z		; std::locale::id::id
	pop	ebp
	ret	0
??__E?id@?$numpunct@_W@std@@2V0locale@2@A@@YAXXZ ENDP	; `dynamic initializer for 'std::numpunct<wchar_t>::id''
text$yc	ENDS
; Function compile flags: /Odtp
; File c:\program files (x86)\microsoft visual studio 11.0\vc\include\xlocnum
;	COMDAT ??__E?id@?$numpunct@D@std@@2V0locale@2@A@@YAXXZ
text$yc	SEGMENT
??__E?id@?$numpunct@D@std@@2V0locale@2@A@@YAXXZ PROC	; `dynamic initializer for 'std::numpunct<char>::id'', COMDAT

; 155  : 		void _Getvals(wchar_t, const lconv *_Ptr, _Locinfo::_Cvtvec)

	push	ebp
	mov	ebp, esp
	push	0
	mov	ecx, OFFSET ?id@?$numpunct@D@std@@2V0locale@2@A ; std::numpunct<char>::id
	call	??0id@locale@std@@QAE@I@Z		; std::locale::id::id
	pop	ebp
	ret	0
??__E?id@?$numpunct@D@std@@2V0locale@2@A@@YAXXZ ENDP	; `dynamic initializer for 'std::numpunct<char>::id''
text$yc	ENDS
; Function compile flags: /Odtp
; File c:\program files (x86)\microsoft visual studio 11.0\vc\include\xlocnum
;	COMDAT ??__E?id@?$num_put@_WV?$back_insert_iterator@V?$basic_string@_WU?$char_traits@_W@std@@V?$allocator@_W@2@@std@@@std@@@std@@2V0locale@2@A@@YAXXZ
text$yc	SEGMENT
??__E?id@?$num_put@_WV?$back_insert_iterator@V?$basic_string@_WU?$char_traits@_W@std@@V?$allocator@_W@2@@std@@@std@@@std@@2V0locale@2@A@@YAXXZ PROC ; `dynamic initializer for 'std::num_put<wchar_t,std::back_insert_iterator<std::basic_string<wchar_t,std::char_traits<wchar_t>,std::allocator<wchar_t> > > >::id'', COMDAT

; 155  : 		void _Getvals(wchar_t, const lconv *_Ptr, _Locinfo::_Cvtvec)

	push	ebp
	mov	ebp, esp
	push	0
	mov	ecx, OFFSET ?id@?$num_put@_WV?$back_insert_iterator@V?$basic_string@_WU?$char_traits@_W@std@@V?$allocator@_W@2@@std@@@std@@@std@@2V0locale@2@A ; std::num_put<wchar_t,std::back_insert_iterator<std::basic_string<wchar_t,std::char_traits<wchar_t>,std::allocator<wchar_t> > > >::id
	call	??0id@locale@std@@QAE@I@Z		; std::locale::id::id
	pop	ebp
	ret	0
??__E?id@?$num_put@_WV?$back_insert_iterator@V?$basic_string@_WU?$char_traits@_W@std@@V?$allocator@_W@2@@std@@@std@@@std@@2V0locale@2@A@@YAXXZ ENDP ; `dynamic initializer for 'std::num_put<wchar_t,std::back_insert_iterator<std::basic_string<wchar_t,std::char_traits<wchar_t>,std::allocator<wchar_t> > > >::id''
text$yc	ENDS
; Function compile flags: /Odtp
; File c:\program files (x86)\microsoft visual studio 11.0\vc\include\xlocnum
;	COMDAT ??__E?id@?$num_put@DV?$back_insert_iterator@V?$basic_string@DU?$char_traits@D@std@@V?$allocator@D@2@@std@@@std@@@std@@2V0locale@2@A@@YAXXZ
text$yc	SEGMENT
??__E?id@?$num_put@DV?$back_insert_iterator@V?$basic_string@DU?$char_traits@D@std@@V?$allocator@D@2@@std@@@std@@@std@@2V0locale@2@A@@YAXXZ PROC ; `dynamic initializer for 'std::num_put<char,std::back_insert_iterator<std::basic_string<char,std::char_traits<char>,std::allocator<char> > > >::id'', COMDAT

; 155  : 		void _Getvals(wchar_t, const lconv *_Ptr, _Locinfo::_Cvtvec)

	push	ebp
	mov	ebp, esp
	push	0
	mov	ecx, OFFSET ?id@?$num_put@DV?$back_insert_iterator@V?$basic_string@DU?$char_traits@D@std@@V?$allocator@D@2@@std@@@std@@@std@@2V0locale@2@A ; std::num_put<char,std::back_insert_iterator<std::basic_string<char,std::char_traits<char>,std::allocator<char> > > >::id
	call	??0id@locale@std@@QAE@I@Z		; std::locale::id::id
	pop	ebp
	ret	0
??__E?id@?$num_put@DV?$back_insert_iterator@V?$basic_string@DU?$char_traits@D@std@@V?$allocator@D@2@@std@@@std@@@std@@2V0locale@2@A@@YAXXZ ENDP ; `dynamic initializer for 'std::num_put<char,std::back_insert_iterator<std::basic_string<char,std::char_traits<char>,std::allocator<char> > > >::id''
text$yc	ENDS
; Function compile flags: /Odtp
; File c:\program files (x86)\microsoft visual studio 11.0\vc\include\xmemory0
;	COMDAT ??$destroy@PAD@?$allocator_traits@V?$allocator@D@std@@@std@@SAXAAV?$allocator@D@1@PAPAD@Z
_TEXT	SEGMENT
__Al$ = 8						; size = 4
__Ptr$ = 12						; size = 4
??$destroy@PAD@?$allocator_traits@V?$allocator@D@std@@@std@@SAXAAV?$allocator@D@1@PAPAD@Z PROC ; std::allocator_traits<std::allocator<char> >::destroy<char *>, COMDAT

; 755  : 		static void destroy(_Alloc& _Al, _Uty *_Ptr)

	push	ebp
	mov	ebp, esp

; 756  : 		{	// destroy object at _Ptr
; 757  : 		_Al.destroy(_Ptr);

	mov	eax, DWORD PTR __Ptr$[ebp]
	push	eax
	mov	ecx, DWORD PTR __Al$[ebp]
	call	??$destroy@PAD@?$allocator@D@std@@QAEXPAPAD@Z ; std::allocator<char>::destroy<char *>

; 758  : 		}

	pop	ebp
	ret	0
??$destroy@PAD@?$allocator_traits@V?$allocator@D@std@@@std@@SAXAAV?$allocator@D@1@PAPAD@Z ENDP ; std::allocator_traits<std::allocator<char> >::destroy<char *>
_TEXT	ENDS
; Function compile flags: /Odtp
; File c:\program files (x86)\microsoft visual studio 11.0\vc\include\xmemory0
;	COMDAT ??$construct@PADAAPAD@?$allocator_traits@V?$allocator@D@std@@@std@@SAXAAV?$allocator@D@1@PAPADAAPAD@Z
_TEXT	SEGMENT
__Al$ = 8						; size = 4
__Ptr$ = 12						; size = 4
__V0$ = 16						; size = 4
??$construct@PADAAPAD@?$allocator_traits@V?$allocator@D@std@@@std@@SAXAAV?$allocator@D@1@PAPADAAPAD@Z PROC ; std::allocator_traits<std::allocator<char> >::construct<char *,char * &>, COMDAT

; 751  : _VARIADIC_EXPAND_0X(_ALLOC_TRAITS_SPECIAL_CONSTRUCT, , , , )

	push	ebp
	mov	ebp, esp
	mov	eax, DWORD PTR __V0$[ebp]
	push	eax
	call	??$forward@AAPAD@std@@YAAAPADAAPAD@Z	; std::forward<char * &>
	add	esp, 4
	push	eax
	mov	ecx, DWORD PTR __Ptr$[ebp]
	push	ecx
	mov	ecx, DWORD PTR __Al$[ebp]
	call	??$construct@PADAAPAD@?$allocator@D@std@@QAEXPAPADAAPAD@Z ; std::allocator<char>::construct<char *,char * &>
	pop	ebp
	ret	0
??$construct@PADAAPAD@?$allocator_traits@V?$allocator@D@std@@@std@@SAXAAV?$allocator@D@1@PAPADAAPAD@Z ENDP ; std::allocator_traits<std::allocator<char> >::construct<char *,char * &>
_TEXT	ENDS
; Function compile flags: /Odtp
; File c:\program files (x86)\microsoft visual studio 11.0\vc\include\type_traits
;	COMDAT ??$forward@AAPAD@std@@YAAAPADAAPAD@Z
_TEXT	SEGMENT
__Arg$ = 8						; size = 4
??$forward@AAPAD@std@@YAAAPADAAPAD@Z PROC		; std::forward<char * &>, COMDAT

; 1775 : 	{	// forward an lvalue

	push	ebp
	mov	ebp, esp

; 1776 : 	return (static_cast<_Ty&&>(_Arg));

	mov	eax, DWORD PTR __Arg$[ebp]

; 1777 : 	}

	pop	ebp
	ret	0
??$forward@AAPAD@std@@YAAAPADAAPAD@Z ENDP		; std::forward<char * &>
_TEXT	ENDS
; Function compile flags: /Odtp
;	COMDAT ??__F?_System_object@?$_Error_objects@H@std@@2V_System_error_category@2@A@@YAXXZ
text$yd	SEGMENT
??__F?_System_object@?$_Error_objects@H@std@@2V_System_error_category@2@A@@YAXXZ PROC ; `dynamic atexit destructor for 'std::_Error_objects<int>::_System_object'', COMDAT
	push	ebp
	mov	ebp, esp
	mov	ecx, OFFSET ?_System_object@?$_Error_objects@H@std@@2V_System_error_category@2@A ; std::_Error_objects<int>::_System_object
	call	??1_System_error_category@std@@UAE@XZ
	pop	ebp
	ret	0
??__F?_System_object@?$_Error_objects@H@std@@2V_System_error_category@2@A@@YAXXZ ENDP ; `dynamic atexit destructor for 'std::_Error_objects<int>::_System_object''
text$yd	ENDS
; Function compile flags: /Odtp
; File c:\program files (x86)\microsoft visual studio 11.0\vc\include\xmemory0
;	COMDAT ??__E?_System_object@?$_Error_objects@H@std@@2V_System_error_category@2@A@@YAXXZ
text$yc	SEGMENT
??__E?_System_object@?$_Error_objects@H@std@@2V_System_error_category@2@A@@YAXXZ PROC ; `dynamic initializer for 'std::_Error_objects<int>::_System_object'', COMDAT

; 627  : 		{	// estimate maximum array size

	push	ebp
	mov	ebp, esp
	mov	ecx, OFFSET ?_System_object@?$_Error_objects@H@std@@2V_System_error_category@2@A ; std::_Error_objects<int>::_System_object
	call	??0_System_error_category@std@@QAE@XZ	; std::_System_error_category::_System_error_category
	push	OFFSET ??__F?_System_object@?$_Error_objects@H@std@@2V_System_error_category@2@A@@YAXXZ ; `dynamic atexit destructor for 'std::_Error_objects<int>::_System_object''
	call	_atexit
	add	esp, 4
	pop	ebp
	ret	0
??__E?_System_object@?$_Error_objects@H@std@@2V_System_error_category@2@A@@YAXXZ ENDP ; `dynamic initializer for 'std::_Error_objects<int>::_System_object''
text$yc	ENDS
; Function compile flags: /Odtp
;	COMDAT ??__F?_Iostream_object@?$_Error_objects@H@std@@2V_Iostream_error_category@2@A@@YAXXZ
text$yd	SEGMENT
??__F?_Iostream_object@?$_Error_objects@H@std@@2V_Iostream_error_category@2@A@@YAXXZ PROC ; `dynamic atexit destructor for 'std::_Error_objects<int>::_Iostream_object'', COMDAT
	push	ebp
	mov	ebp, esp
	mov	ecx, OFFSET ?_Iostream_object@?$_Error_objects@H@std@@2V_Iostream_error_category@2@A ; std::_Error_objects<int>::_Iostream_object
	call	??1_Iostream_error_category@std@@UAE@XZ
	pop	ebp
	ret	0
??__F?_Iostream_object@?$_Error_objects@H@std@@2V_Iostream_error_category@2@A@@YAXXZ ENDP ; `dynamic atexit destructor for 'std::_Error_objects<int>::_Iostream_object''
text$yd	ENDS
; Function compile flags: /Odtp
; File c:\program files (x86)\microsoft visual studio 11.0\vc\include\xmemory0
;	COMDAT ??__E?_Iostream_object@?$_Error_objects@H@std@@2V_Iostream_error_category@2@A@@YAXXZ
text$yc	SEGMENT
??__E?_Iostream_object@?$_Error_objects@H@std@@2V_Iostream_error_category@2@A@@YAXXZ PROC ; `dynamic initializer for 'std::_Error_objects<int>::_Iostream_object'', COMDAT

; 627  : 		{	// estimate maximum array size

	push	ebp
	mov	ebp, esp
	mov	ecx, OFFSET ?_Iostream_object@?$_Error_objects@H@std@@2V_Iostream_error_category@2@A ; std::_Error_objects<int>::_Iostream_object
	call	??0_Iostream_error_category@std@@QAE@XZ	; std::_Iostream_error_category::_Iostream_error_category
	push	OFFSET ??__F?_Iostream_object@?$_Error_objects@H@std@@2V_Iostream_error_category@2@A@@YAXXZ ; `dynamic atexit destructor for 'std::_Error_objects<int>::_Iostream_object''
	call	_atexit
	add	esp, 4
	pop	ebp
	ret	0
??__E?_Iostream_object@?$_Error_objects@H@std@@2V_Iostream_error_category@2@A@@YAXXZ ENDP ; `dynamic initializer for 'std::_Error_objects<int>::_Iostream_object''
text$yc	ENDS
; Function compile flags: /Odtp
;	COMDAT ??__F?_Generic_object@?$_Error_objects@H@std@@2V_Generic_error_category@2@A@@YAXXZ
text$yd	SEGMENT
??__F?_Generic_object@?$_Error_objects@H@std@@2V_Generic_error_category@2@A@@YAXXZ PROC ; `dynamic atexit destructor for 'std::_Error_objects<int>::_Generic_object'', COMDAT
	push	ebp
	mov	ebp, esp
	mov	ecx, OFFSET ?_Generic_object@?$_Error_objects@H@std@@2V_Generic_error_category@2@A ; std::_Error_objects<int>::_Generic_object
	call	??1_Generic_error_category@std@@UAE@XZ
	pop	ebp
	ret	0
??__F?_Generic_object@?$_Error_objects@H@std@@2V_Generic_error_category@2@A@@YAXXZ ENDP ; `dynamic atexit destructor for 'std::_Error_objects<int>::_Generic_object''
text$yd	ENDS
; Function compile flags: /Odtp
; File c:\program files (x86)\microsoft visual studio 11.0\vc\include\xmemory0
;	COMDAT ??__E?_Generic_object@?$_Error_objects@H@std@@2V_Generic_error_category@2@A@@YAXXZ
text$yc	SEGMENT
??__E?_Generic_object@?$_Error_objects@H@std@@2V_Generic_error_category@2@A@@YAXXZ PROC ; `dynamic initializer for 'std::_Error_objects<int>::_Generic_object'', COMDAT

; 627  : 		{	// estimate maximum array size

	push	ebp
	mov	ebp, esp
	mov	ecx, OFFSET ?_Generic_object@?$_Error_objects@H@std@@2V_Generic_error_category@2@A ; std::_Error_objects<int>::_Generic_object
	call	??0_Generic_error_category@std@@QAE@XZ	; std::_Generic_error_category::_Generic_error_category
	push	OFFSET ??__F?_Generic_object@?$_Error_objects@H@std@@2V_Generic_error_category@2@A@@YAXXZ ; `dynamic atexit destructor for 'std::_Error_objects<int>::_Generic_object''
	call	_atexit
	add	esp, 4
	pop	ebp
	ret	0
??__E?_Generic_object@?$_Error_objects@H@std@@2V_Generic_error_category@2@A@@YAXXZ ENDP ; `dynamic initializer for 'std::_Error_objects<int>::_Generic_object''
text$yc	ENDS
; Function compile flags: /Odtp
; File c:\program files (x86)\microsoft visual studio 11.0\vc\include\xmemory0
;	COMDAT ??$_Allocate@D@std@@YAPADIPAD@Z
_TEXT	SEGMENT
__Ptr$ = -4						; size = 4
__Count$ = 8						; size = 4
___formal$ = 12						; size = 4
??$_Allocate@D@std@@YAPADIPAD@Z PROC			; std::_Allocate<char>, COMDAT

; 22   : 	{	// allocate storage for _Count elements of type _Ty

	push	ebp
	mov	ebp, esp
	push	ecx

; 23   : 	void *_Ptr = 0;

	mov	DWORD PTR __Ptr$[ebp], 0

; 24   : 
; 25   : 	if (_Count == 0)

	cmp	DWORD PTR __Count$[ebp], 0
	jne	SHORT $LN4@Allocate

; 26   : 		;
; 27   : 	else if (((size_t)(-1) / sizeof (_Ty) < _Count)

	jmp	SHORT $LN3@Allocate
$LN4@Allocate:

; 28   : 		|| (_Ptr = ::operator new(_Count * sizeof (_Ty))) == 0)

	cmp	DWORD PTR __Count$[ebp], -1
	ja	SHORT $LN1@Allocate
	mov	eax, DWORD PTR __Count$[ebp]
	push	eax
	call	??2@YAPAXI@Z				; operator new
	add	esp, 4
	mov	DWORD PTR __Ptr$[ebp], eax
	cmp	DWORD PTR __Ptr$[ebp], 0
	jne	SHORT $LN3@Allocate
$LN1@Allocate:

; 29   : 		_Xbad_alloc();	// report no memory

	call	?_Xbad_alloc@std@@YAXXZ			; std::_Xbad_alloc
$LN3@Allocate:

; 30   : 
; 31   : 	return ((_Ty *)_Ptr);

	mov	eax, DWORD PTR __Ptr$[ebp]
$LN6@Allocate:

; 32   : 	}

	mov	esp, ebp
	pop	ebp
	ret	0
??$_Allocate@D@std@@YAPADIPAD@Z ENDP			; std::_Allocate<char>
_TEXT	ENDS
; Function compile flags: /Odtp
; File c:\program files (x86)\microsoft visual studio 11.0\vc\include\xstddef
;	COMDAT ??$addressof@D@std@@YAPADAAD@Z
_TEXT	SEGMENT
__Val$ = 8						; size = 4
??$addressof@D@std@@YAPADAAD@Z PROC			; std::addressof<char>, COMDAT

; 85   : 	{	// return address of _Val

	push	ebp
	mov	ebp, esp

; 86   : 	return (reinterpret_cast<_Ty *>(
; 87   : 		(&const_cast<char&>(
; 88   : 		reinterpret_cast<const volatile char&>(_Val)))));

	mov	eax, DWORD PTR __Val$[ebp]

; 89   : 	}

	pop	ebp
	ret	0
??$addressof@D@std@@YAPADAAD@Z ENDP			; std::addressof<char>
_TEXT	ENDS
; Function compile flags: /Odtp
; File c:\program files (x86)\microsoft visual studio 11.0\vc\include\xmemory0
;	COMDAT ??$destroy@PAD@?$_Wrap_alloc@V?$allocator@D@std@@@std@@QAEXPAPAD@Z
_TEXT	SEGMENT
_this$ = -4						; size = 4
__Ptr$ = 8						; size = 4
??$destroy@PAD@?$_Wrap_alloc@V?$allocator@D@std@@@std@@QAEXPAPAD@Z PROC ; std::_Wrap_alloc<std::allocator<char> >::destroy<char *>, COMDAT
; _this$ = ecx

; 907  : 		void destroy(_Ty *_Ptr)

	push	ebp
	mov	ebp, esp
	push	ecx
	mov	DWORD PTR _this$[ebp], ecx

; 908  : 		{	// destroy object at _Ptr
; 909  : 		_Mytraits::destroy(*this, _Ptr);

	mov	eax, DWORD PTR __Ptr$[ebp]
	push	eax
	mov	ecx, DWORD PTR _this$[ebp]
	push	ecx
	call	??$destroy@PAD@?$allocator_traits@V?$allocator@D@std@@@std@@SAXAAV?$allocator@D@1@PAPAD@Z ; std::allocator_traits<std::allocator<char> >::destroy<char *>
	add	esp, 8

; 910  : 		}

	mov	esp, ebp
	pop	ebp
	ret	4
??$destroy@PAD@?$_Wrap_alloc@V?$allocator@D@std@@@std@@QAEXPAPAD@Z ENDP ; std::_Wrap_alloc<std::allocator<char> >::destroy<char *>
_TEXT	ENDS
; Function compile flags: /Odtp
; File c:\program files (x86)\microsoft visual studio 11.0\vc\include\xmemory0
;	COMDAT ??$construct@PADAAPAD@?$_Wrap_alloc@V?$allocator@D@std@@@std@@QAEXPAPADAAPAD@Z
_TEXT	SEGMENT
_this$ = -4						; size = 4
__Ptr$ = 8						; size = 4
__V0$ = 12						; size = 4
??$construct@PADAAPAD@?$_Wrap_alloc@V?$allocator@D@std@@@std@@QAEXPAPADAAPAD@Z PROC ; std::_Wrap_alloc<std::allocator<char> >::construct<char *,char * &>, COMDAT
; _this$ = ecx

; 903  : _VARIADIC_EXPAND_0X(_WRAP_ALLOC_CONSTRUCT, , , , )

	push	ebp
	mov	ebp, esp
	push	ecx
	mov	DWORD PTR _this$[ebp], ecx
	mov	eax, DWORD PTR __V0$[ebp]
	push	eax
	call	??$forward@AAPAD@std@@YAAAPADAAPAD@Z	; std::forward<char * &>
	add	esp, 4
	push	eax
	mov	ecx, DWORD PTR __Ptr$[ebp]
	push	ecx
	mov	edx, DWORD PTR _this$[ebp]
	push	edx
	call	??$construct@PADAAPAD@?$allocator_traits@V?$allocator@D@std@@@std@@SAXAAV?$allocator@D@1@PAPADAAPAD@Z ; std::allocator_traits<std::allocator<char> >::construct<char *,char * &>
	add	esp, 12					; 0000000cH
	mov	esp, ebp
	pop	ebp
	ret	8
??$construct@PADAAPAD@?$_Wrap_alloc@V?$allocator@D@std@@@std@@QAEXPAPADAAPAD@Z ENDP ; std::_Wrap_alloc<std::allocator<char> >::construct<char *,char * &>
_TEXT	ENDS
; Function compile flags: /Odtp
; File c:\users\zhitao li\documents\visual studio 2012\projects\freefalcon\campaign\camplib\team.cpp
_TEXT	SEGMENT
_stridx$ = -4						; size = 4
_team$ = 8						; size = 4
_gender$ = 12						; size = 4
_usage$ = 16						; size = 4
_plural$ = 20						; size = 4
?ConvertTeamToStringIndex@@YAHHHHH@Z PROC		; ConvertTeamToStringIndex

; 2908 : {

	push	ebp
	mov	ebp, esp
	push	ecx

; 2909 : 	int		stridx = 3820 + 20;

	mov	DWORD PTR _stridx$[ebp], 3840		; 00000f00H

; 2910 : 	if (TeamInfo[team])

	mov	eax, DWORD PTR _team$[ebp]
	cmp	DWORD PTR ?TeamInfo@@3PAPAVTeamClass@@A[eax*4], 0
	je	SHORT $LN1@ConvertTea

; 2911 : 		stridx = 3820 + 20*TeamInfo[team]->GetFlag() + 6*usage + 3*plural + gender;

	mov	ecx, DWORD PTR _team$[ebp]
	mov	ecx, DWORD PTR ?TeamInfo@@3PAPAVTeamClass@@A[ecx*4]
	call	?GetFlag@TeamClass@@QAEHXZ		; TeamClass::GetFlag
	imul	eax, 20					; 00000014H
	mov	edx, DWORD PTR _usage$[ebp]
	imul	edx, 6
	lea	eax, DWORD PTR [eax+edx+3820]
	mov	ecx, DWORD PTR _plural$[ebp]
	imul	ecx, 3
	add	eax, DWORD PTR _gender$[ebp]
	add	ecx, eax
	mov	DWORD PTR _stridx$[ebp], ecx
$LN1@ConvertTea:

; 2912 : 	return stridx;

	mov	eax, DWORD PTR _stridx$[ebp]

; 2913 : }

	mov	esp, ebp
	pop	ebp
	ret	0
?ConvertTeamToStringIndex@@YAHHHHH@Z ENDP		; ConvertTeamToStringIndex
_TEXT	ENDS
; Function compile flags: /Odtp
; File c:\users\zhitao li\documents\visual studio 2012\projects\freefalcon\campaign\camplib\team.cpp
_TEXT	SEGMENT
tv315 = -92						; size = 8
tv310 = -84						; size = 8
_initiative_old$ = -76					; size = 4
_oa_start$ = -72					; size = 4
_longRunInitiative$ = -68				; size = 4
_longRunInitiative2$ = -64				; size = 4
_longRunInitiative3$ = -60				; size = 4
_longRunInitiative1$ = -56				; size = 4
tv321 = -52						; size = 4
_oa$ = -48						; size = 4
_os_start$ = -44					; size = 4
_os$ = -40						; size = 4
_ta_start$ = -36					; size = 4
_oloss$ = -32						; size = 4
_tloss$ = -28						; size = 4
_ta$ = -24						; size = 4
_ts_start$ = -20					; size = 4
_ts$ = -16						; size = 4
_initiative$ = -12					; size = 4
_i$ = -8						; size = 4
_et$ = -1						; size = 1
_who$ = 8						; size = 1
?NewInitiativePointSetting@@YAXE@Z PROC			; NewInitiativePointSetting

; 1841 : void NewInitiativePointSetting(Team who) {

	push	ebp
	mov	ebp, esp
	sub	esp, 92					; 0000005cH

; 1842 : 
; 1843 : 	int		i,os,ts,initiative, initiative_old;
; 1844 : 	int		oa, ta, os_start, oa_start, ts_start, ta_start;
; 1845 : 	int		longRunInitiative, longRunInitiative1, longRunInitiative2, longRunInitiative3;
; 1846 : 	float	oloss, tloss;
; 1847 : 	Team	et = NUM_TEAMS + 1;

	mov	BYTE PTR _et$[ebp], 9

; 1848 : 
; 1849 : 	os = TeamInfo[who]->GetCurrentStats()->groundVehs;		// Calculating the strenght of the player's team relativ to the others

	movzx	eax, BYTE PTR _who$[ebp]
	mov	ecx, DWORD PTR ?TeamInfo@@3PAPAVTeamClass@@A[eax*4]
	call	?GetCurrentStats@TeamClass@@QAEPAUTeamStatusType@@XZ ; TeamClass::GetCurrentStats
	movzx	ecx, WORD PTR [eax+4]
	mov	DWORD PTR _os$[ebp], ecx

; 1850 : 	oa = TeamInfo[who]->GetCurrentStats()->aircraft;

	movzx	edx, BYTE PTR _who$[ebp]
	mov	ecx, DWORD PTR ?TeamInfo@@3PAPAVTeamClass@@A[edx*4]
	call	?GetCurrentStats@TeamClass@@QAEPAUTeamStatusType@@XZ ; TeamClass::GetCurrentStats
	movzx	eax, WORD PTR [eax+2]
	mov	DWORD PTR _oa$[ebp], eax

; 1851 : 	os_start = TeamInfo[who]->startStats.groundVehs;

	movzx	ecx, BYTE PTR _who$[ebp]
	mov	edx, DWORD PTR ?TeamInfo@@3PAPAVTeamClass@@A[ecx*4]
	movzx	eax, WORD PTR [edx+620]
	mov	DWORD PTR _os_start$[ebp], eax

; 1852 : 	oa_start = TeamInfo[who]->startStats.aircraft;

	movzx	ecx, BYTE PTR _who$[ebp]
	mov	edx, DWORD PTR ?TeamInfo@@3PAPAVTeamClass@@A[ecx*4]
	movzx	eax, WORD PTR [edx+618]
	mov	DWORD PTR _oa_start$[ebp], eax

; 1853 : 
; 1854 : 	for (i=0,ts=0,ta=0,ts_start=0,ta_start=0; i<NUM_TEAMS; i++)

	mov	DWORD PTR _i$[ebp], 0
	mov	DWORD PTR _ts$[ebp], 0
	mov	DWORD PTR _ta$[ebp], 0
	mov	DWORD PTR _ts_start$[ebp], 0
	mov	DWORD PTR _ta_start$[ebp], 0
	jmp	SHORT $LN14@NewInitiat
$LN13@NewInitiat:
	mov	ecx, DWORD PTR _i$[ebp]
	add	ecx, 1
	mov	DWORD PTR _i$[ebp], ecx
$LN14@NewInitiat:
	cmp	DWORD PTR _i$[ebp], 8
	jge	$LN12@NewInitiat

; 1855 : 	{
; 1856 : 		if (GetTTRelations(i,who) == War)

	movzx	edx, BYTE PTR _who$[ebp]
	push	edx
	movzx	eax, BYTE PTR _i$[ebp]
	push	eax
	call	?GetTTRelations@@YAHEE@Z		; GetTTRelations
	add	esp, 8
	cmp	eax, 5
	jne	SHORT $LN11@NewInitiat

; 1857 : 		{
; 1858 : 			ts += TeamInfo[i]->GetCurrentStats()->groundVehs;

	mov	ecx, DWORD PTR _i$[ebp]
	mov	ecx, DWORD PTR ?TeamInfo@@3PAPAVTeamClass@@A[ecx*4]
	call	?GetCurrentStats@TeamClass@@QAEPAUTeamStatusType@@XZ ; TeamClass::GetCurrentStats
	movzx	edx, WORD PTR [eax+4]
	add	edx, DWORD PTR _ts$[ebp]
	mov	DWORD PTR _ts$[ebp], edx

; 1859 : 			ta += TeamInfo[i]->GetCurrentStats()->aircraft;

	mov	eax, DWORD PTR _i$[ebp]
	mov	ecx, DWORD PTR ?TeamInfo@@3PAPAVTeamClass@@A[eax*4]
	call	?GetCurrentStats@TeamClass@@QAEPAUTeamStatusType@@XZ ; TeamClass::GetCurrentStats
	movzx	ecx, WORD PTR [eax+2]
	add	ecx, DWORD PTR _ta$[ebp]
	mov	DWORD PTR _ta$[ebp], ecx

; 1860 : 			ts_start += TeamInfo[i]->startStats.groundVehs;

	mov	edx, DWORD PTR _i$[ebp]
	mov	eax, DWORD PTR ?TeamInfo@@3PAPAVTeamClass@@A[edx*4]
	movzx	ecx, WORD PTR [eax+620]
	add	ecx, DWORD PTR _ts_start$[ebp]
	mov	DWORD PTR _ts_start$[ebp], ecx

; 1861 : 			ta_start += TeamInfo[i]->startStats.aircraft;

	mov	edx, DWORD PTR _i$[ebp]
	mov	eax, DWORD PTR ?TeamInfo@@3PAPAVTeamClass@@A[edx*4]
	movzx	ecx, WORD PTR [eax+618]
	add	ecx, DWORD PTR _ta_start$[ebp]
	mov	DWORD PTR _ta_start$[ebp], ecx

; 1862 : 			et = i;

	mov	dl, BYTE PTR _i$[ebp]
	mov	BYTE PTR _et$[ebp], dl
$LN11@NewInitiat:

; 1863 : 		}
; 1864 : 	}

	jmp	$LN13@NewInitiat
$LN12@NewInitiat:

; 1865 : 
; 1866 : 	if (et >= NUM_TEAMS)

	movzx	eax, BYTE PTR _et$[ebp]
	cmp	eax, 8
	jl	SHORT $LN10@NewInitiat

; 1867 : 		return;

	jmp	$LN15@NewInitiat
$LN10@NewInitiat:

; 1868 : 
; 1869 : 	oloss = (os_start*1.0f - os*1.0f);

	cvtsi2ss xmm0, DWORD PTR _os_start$[ebp]
	mulss	xmm0, DWORD PTR __real@3f800000
	cvtsi2ss xmm1, DWORD PTR _os$[ebp]
	mulss	xmm1, DWORD PTR __real@3f800000
	subss	xmm0, xmm1
	movss	DWORD PTR _oloss$[ebp], xmm0

; 1870 : 	if (oloss==0)

	movss	xmm0, DWORD PTR _oloss$[ebp]
	ucomiss	xmm0, DWORD PTR __real@00000000
	lahf
	test	ah, 68					; 00000044H
	jp	SHORT $LN9@NewInitiat

; 1871 : 		oloss = 1;

	movss	xmm0, DWORD PTR __real@3f800000
	movss	DWORD PTR _oloss$[ebp], xmm0
$LN9@NewInitiat:

; 1872 : 	tloss = (ts_start*1.0f - ts*1.0f);

	cvtsi2ss xmm0, DWORD PTR _ts_start$[ebp]
	mulss	xmm0, DWORD PTR __real@3f800000
	cvtsi2ss xmm1, DWORD PTR _ts$[ebp]
	mulss	xmm1, DWORD PTR __real@3f800000
	subss	xmm0, xmm1
	movss	DWORD PTR _tloss$[ebp], xmm0

; 1873 : 	if ( tloss==0)

	movss	xmm0, DWORD PTR _tloss$[ebp]
	ucomiss	xmm0, DWORD PTR __real@00000000
	lahf
	test	ah, 68					; 00000044H
	jp	SHORT $LN8@NewInitiat

; 1874 : 		tloss = 1;

	movss	xmm0, DWORD PTR __real@3f800000
	movss	DWORD PTR _tloss$[ebp], xmm0
$LN8@NewInitiat:

; 1875 : 
; 1876 : 	longRunInitiative1 = (int) ( atan( (os*1.0)/ts  ) * 100 / (3.142/2) + 1 );	// We need a function, which maps [0, +inf] into [0, 100].

	cvtsi2sd xmm0, DWORD PTR _os$[ebp]
	mulsd	xmm0, QWORD PTR __real@3ff0000000000000
	cvtsi2sd xmm1, DWORD PTR _ts$[ebp]
	divsd	xmm0, xmm1
	sub	esp, 8
	movsd	QWORD PTR [esp], xmm0
	call	_atan
	add	esp, 8
	fstp	QWORD PTR tv310[ebp]
	movsd	xmm0, QWORD PTR tv310[ebp]
	mulsd	xmm0, QWORD PTR __real@4059000000000000
	divsd	xmm0, QWORD PTR __real@3ff922d0e5604189
	addsd	xmm0, QWORD PTR __real@3ff0000000000000
	cvttsd2si ecx, xmm0
	mov	DWORD PTR _longRunInitiative1$[ebp], ecx

; 1877 : 	longRunInitiative2 = (int) ( atan( (oa*1.0)/ta  ) * 100 / (3.142/2) + 1 );	// The ArcusTangens-function is used for this purpose. We have to divide by Pi/2.

	cvtsi2sd xmm0, DWORD PTR _oa$[ebp]
	mulsd	xmm0, QWORD PTR __real@3ff0000000000000
	cvtsi2sd xmm1, DWORD PTR _ta$[ebp]
	divsd	xmm0, xmm1
	sub	esp, 8
	movsd	QWORD PTR [esp], xmm0
	call	_atan
	add	esp, 8
	fstp	QWORD PTR tv315[ebp]
	movsd	xmm0, QWORD PTR tv315[ebp]
	mulsd	xmm0, QWORD PTR __real@4059000000000000
	divsd	xmm0, QWORD PTR __real@3ff922d0e5604189
	addsd	xmm0, QWORD PTR __real@3ff0000000000000
	cvttsd2si edx, xmm0
	mov	DWORD PTR _longRunInitiative2$[ebp], edx

; 1878 : 	longRunInitiative3 = (int) ( atan( tloss/oloss  ) * 100 / (3.142/2) + 1 );	// e.g., if the relative strenght is 1, longRunInitiative = 50. 

	movss	xmm0, DWORD PTR _tloss$[ebp]
	divss	xmm0, DWORD PTR _oloss$[ebp]
	push	ecx
	movss	DWORD PTR [esp], xmm0
	call	?atan@@YAMM@Z				; atan
	add	esp, 4
	fstp	DWORD PTR tv321[ebp]
	movss	xmm0, DWORD PTR tv321[ebp]
	mulss	xmm0, DWORD PTR __real@42c80000
	cvtss2sd xmm0, xmm0
	divsd	xmm0, QWORD PTR __real@3ff922d0e5604189
	addsd	xmm0, QWORD PTR __real@3ff0000000000000
	cvttsd2si eax, xmm0
	mov	DWORD PTR _longRunInitiative3$[ebp], eax

; 1879 : 	longRunInitiative = (5*longRunInitiative1 + 4*longRunInitiative2 + 1*longRunInitiative3)/10;

	mov	ecx, DWORD PTR _longRunInitiative1$[ebp]
	imul	ecx, 5
	add	ecx, DWORD PTR _longRunInitiative3$[ebp]
	mov	edx, DWORD PTR _longRunInitiative2$[ebp]
	lea	eax, DWORD PTR [ecx+edx*4]
	cdq
	mov	ecx, 10					; 0000000aH
	idiv	ecx
	mov	DWORD PTR _longRunInitiative$[ebp], eax

; 1880 : 
; 1881 : 
; 1882 : 	initiative = TeamInfo[who]->GetInitiative();

	movzx	edx, BYTE PTR _who$[ebp]
	mov	ecx, DWORD PTR ?TeamInfo@@3PAPAVTeamClass@@A[edx*4]
	call	?GetInitiative@TeamClass@@QAEFXZ	; TeamClass::GetInitiative
	cwde
	mov	DWORD PTR _initiative$[ebp], eax

; 1883 : 	initiative_old = initiative;

	mov	ecx, DWORD PTR _initiative$[ebp]
	mov	DWORD PTR _initiative_old$[ebp], ecx

; 1884 : 	initiative = (int) (0.5F * initiative  +  0.5F * longRunInitiative);  // Adaptive mechanism to long run equilibrium. 

	cvtsi2ss xmm0, DWORD PTR _initiative$[ebp]
	mulss	xmm0, DWORD PTR __real@3f000000
	cvtsi2ss xmm1, DWORD PTR _longRunInitiative$[ebp]
	mulss	xmm1, DWORD PTR __real@3f000000
	addss	xmm0, xmm1
	cvttss2si edx, xmm0
	mov	DWORD PTR _initiative$[ebp], edx

; 1885 : 
; 1886 : 	TeamInfo[who]->SetInitiative( initiative );

	movzx	eax, WORD PTR _initiative$[ebp]
	push	eax
	movzx	ecx, BYTE PTR _who$[ebp]
	mov	ecx, DWORD PTR ?TeamInfo@@3PAPAVTeamClass@@A[ecx*4]
	call	?SetInitiative@TeamClass@@QAEXF@Z	; TeamClass::SetInitiative

; 1887 : 	TeamInfo[et]->SetInitiative( (100 - initiative) );		// enemy team gets 100 minus our initiative points 

	mov	edx, 100				; 00000064H
	sub	edx, DWORD PTR _initiative$[ebp]
	push	edx
	movzx	eax, BYTE PTR _et$[ebp]
	mov	ecx, DWORD PTR ?TeamInfo@@3PAPAVTeamClass@@A[eax*4]
	call	?SetInitiative@TeamClass@@QAEXF@Z	; TeamClass::SetInitiative

; 1888 : 
; 1889 : 	//debug
; 1890 : 	//FILE *deb;
; 1891 : 	//deb = fopen("c:\\temp\\deb2.txt", "a");
; 1892 : 	//fprintf(deb, "Team %2d  Init = %3d  Init_old %d  LRInit = %3d  osts = %f  adta = %f  TIME = %d\n", who, TeamInfo[who]->GetInitiative(), initiative_old, longRunInitiative, (os*1.0)/ts, (oa*1.0)/ta, TheCampaign.CurrentTime/(3600*1000));   
; 1893 : 	//fprintf(deb, "Aircraft_start =  %d %d TheirLoss = %5.1f GroungVehicle_start = %d %d %5.1f\n", oa_start, oa, tloss, os_start, os, oloss);
; 1894 : 	//fprintf(deb, "Team %d  Rating = %3.2f    |    Team %d  Rating = %3.2f\n\n", who, TeamInfo[who]->playerRating, et, TeamInfo[et]->playerRating);
; 1895 : 	//fclose(deb);
; 1896 : 	// end debug
; 1897 : 
; 1898 : 
; 1899 : 	for (i=0; i<NUM_TEAMS; i++)		// old code for the other teams (replaces same code in UpdateTeamStatistics-procedure)

	mov	DWORD PTR _i$[ebp], 0
	jmp	SHORT $LN7@NewInitiat
$LN6@NewInitiat:
	mov	ecx, DWORD PTR _i$[ebp]
	add	ecx, 1
	mov	DWORD PTR _i$[ebp], ecx
$LN7@NewInitiat:
	cmp	DWORD PTR _i$[ebp], 8
	jge	$LN5@NewInitiat

; 1900 : 	{
; 1901 : 		if ( i != who  &&  i != et  &&  TeamInfo[i]->flags & TEAM_ACTIVE)   

	movzx	edx, BYTE PTR _who$[ebp]
	cmp	DWORD PTR _i$[ebp], edx
	je	$LN1@NewInitiat
	movzx	eax, BYTE PTR _et$[ebp]
	cmp	DWORD PTR _i$[ebp], eax
	je	$LN1@NewInitiat
	mov	ecx, DWORD PTR _i$[ebp]
	mov	edx, DWORD PTR ?TeamInfo@@3PAPAVTeamClass@@A[ecx*4]
	movsx	eax, WORD PTR [edx+350]
	and	eax, 1
	je	$LN1@NewInitiat

; 1902 : 		{
; 1903 : 			if (TeamInfo[i]->GetInitiative() < 40)

	mov	ecx, DWORD PTR _i$[ebp]
	mov	ecx, DWORD PTR ?TeamInfo@@3PAPAVTeamClass@@A[ecx*4]
	call	?GetInitiative@TeamClass@@QAEFXZ	; TeamClass::GetInitiative
	movsx	edx, ax
	cmp	edx, 40					; 00000028H
	jge	SHORT $LN3@NewInitiat

; 1904 : 				TeamInfo[i]->AddInitiative ((INITIATIVE_LEAK_PER_HOUR * MIN_RECALCULATE_STATISTICS) / 60);

	movsx	eax, WORD PTR ?INITIATIVE_LEAK_PER_HOUR@@3FA ; INITIATIVE_LEAK_PER_HOUR
	movsx	ecx, WORD PTR ?MIN_RECALCULATE_STATISTICS@@3FA ; MIN_RECALCULATE_STATISTICS
	imul	eax, ecx
	cdq
	mov	ecx, 60					; 0000003cH
	idiv	ecx
	push	eax
	mov	edx, DWORD PTR _i$[ebp]
	mov	ecx, DWORD PTR ?TeamInfo@@3PAPAVTeamClass@@A[edx*4]
	call	?AddInitiative@TeamClass@@QAEXF@Z	; TeamClass::AddInitiative
	jmp	SHORT $LN1@NewInitiat
$LN3@NewInitiat:

; 1905 : 			else if (TeamInfo[i]->GetInitiative() <= 100)  // 100 instead of 60

	mov	eax, DWORD PTR _i$[ebp]
	mov	ecx, DWORD PTR ?TeamInfo@@3PAPAVTeamClass@@A[eax*4]
	call	?GetInitiative@TeamClass@@QAEFXZ	; TeamClass::GetInitiative
	movsx	ecx, ax
	cmp	ecx, 100				; 00000064H
	jg	SHORT $LN1@NewInitiat

; 1906 : 				TeamInfo[i]->AddInitiative (-(INITIATIVE_LEAK_PER_HOUR * MIN_RECALCULATE_STATISTICS) / 60);

	movsx	eax, WORD PTR ?INITIATIVE_LEAK_PER_HOUR@@3FA ; INITIATIVE_LEAK_PER_HOUR
	movsx	edx, WORD PTR ?MIN_RECALCULATE_STATISTICS@@3FA ; MIN_RECALCULATE_STATISTICS
	imul	eax, edx
	neg	eax
	cdq
	mov	ecx, 60					; 0000003cH
	idiv	ecx
	push	eax
	mov	edx, DWORD PTR _i$[ebp]
	mov	ecx, DWORD PTR ?TeamInfo@@3PAPAVTeamClass@@A[edx*4]
	call	?AddInitiative@TeamClass@@QAEXF@Z	; TeamClass::AddInitiative
$LN1@NewInitiat:

; 1907 : 		}
; 1908 : 	}

	jmp	$LN6@NewInitiat
$LN5@NewInitiat:
$LN15@NewInitiat:

; 1909 : 
; 1910 : }

	mov	esp, ebp
	pop	ebp
	ret	0
?NewInitiativePointSetting@@YAXE@Z ENDP			; NewInitiativePointSetting
_TEXT	ENDS
; Function compile flags: /Odtp
; File c:\users\zhitao li\documents\visual studio 2012\projects\freefalcon\campaign\camplib\team.cpp
_TEXT	SEGMENT
_applied$ = -8						; size = 4
_i$ = -4						; size = 4
_who$ = 8						; size = 1
_poid$ = 12						; size = 8
_rating$ = 20						; size = 4
?ApplyBonus@@YAXEVVU_ID@@H@Z PROC			; ApplyBonus

; 1725 : {

	push	ebp
	mov	ebp, esp
	sub	esp, 8

; 1726 : 	int		i,applied=FALSE;

	mov	DWORD PTR _applied$[ebp], 0

; 1727 : 
; 1728 : 	// Apply a local combat bonus
; 1729 : 	for (i=0; i<MAX_BONUSES; i++)

	mov	DWORD PTR _i$[ebp], 0
	jmp	SHORT $LN11@ApplyBonus
$LN10@ApplyBonus:
	mov	eax, DWORD PTR _i$[ebp]
	add	eax, 1
	mov	DWORD PTR _i$[ebp], eax
$LN11@ApplyBonus:
	cmp	DWORD PTR _i$[ebp], 20			; 00000014H
	jge	$LN9@ApplyBonus

; 1730 : 	{
; 1731 : 		if (TeamInfo[who]->bonusObjs[i] == poid)

	lea	ecx, DWORD PTR _poid$[ebp]
	push	ecx
	movzx	edx, BYTE PTR _who$[ebp]
	mov	eax, DWORD PTR ?TeamInfo@@3PAPAVTeamClass@@A[edx*4]
	mov	ecx, DWORD PTR _i$[ebp]
	lea	ecx, DWORD PTR [eax+ecx*8+632]
	call	??8VU_ID@@QBE_NABV0@@Z			; VU_ID::operator==
	movzx	edx, al
	test	edx, edx
	je	SHORT $LN8@ApplyBonus

; 1732 : 		{
; 1733 : 			TeamInfo[who]->bonusTime[i] += rating * 4 * CampaignMinutes;

	movzx	eax, BYTE PTR _who$[ebp]
	mov	ecx, DWORD PTR ?TeamInfo@@3PAPAVTeamClass@@A[eax*4]
	mov	edx, DWORD PTR _rating$[ebp]
	shl	edx, 2
	imul	edx, 60000				; 0000ea60H
	mov	eax, DWORD PTR _i$[ebp]
	add	edx, DWORD PTR [ecx+eax*4+792]
	movzx	ecx, BYTE PTR _who$[ebp]
	mov	eax, DWORD PTR ?TeamInfo@@3PAPAVTeamClass@@A[ecx*4]
	mov	ecx, DWORD PTR _i$[ebp]
	mov	DWORD PTR [eax+ecx*4+792], edx

; 1734 : 			applied = TRUE;

	mov	DWORD PTR _applied$[ebp], 1
$LN8@ApplyBonus:

; 1735 : 		}
; 1736 : 		if (TeamInfo[who]->bonusTime[i] < TheCampaign.CurrentTime)

	movzx	edx, BYTE PTR _who$[ebp]
	mov	eax, DWORD PTR ?TeamInfo@@3PAPAVTeamClass@@A[edx*4]
	mov	ecx, DWORD PTR _i$[ebp]
	mov	edx, DWORD PTR [eax+ecx*4+792]
	cmp	edx, DWORD PTR ?TheCampaign@@3VCampaignClass@@A
	jae	SHORT $LN7@ApplyBonus

; 1737 : 			TeamInfo[who]->bonusObjs[i] = FalconNullId;

	movzx	eax, BYTE PTR _who$[ebp]
	mov	ecx, DWORD PTR ?TeamInfo@@3PAPAVTeamClass@@A[eax*4]
	mov	edx, DWORD PTR _i$[ebp]
	mov	eax, DWORD PTR ?FalconNullId@@3VVU_ID@@A
	mov	DWORD PTR [ecx+edx*8+632], eax
	mov	eax, DWORD PTR ?FalconNullId@@3VVU_ID@@A+4
	mov	DWORD PTR [ecx+edx*8+636], eax
$LN7@ApplyBonus:

; 1738 : 	}

	jmp	$LN10@ApplyBonus
$LN9@ApplyBonus:

; 1739 : 	if (rating < 0 || applied)

	cmp	DWORD PTR _rating$[ebp], 0
	jl	SHORT $LN5@ApplyBonus
	cmp	DWORD PTR _applied$[ebp], 0
	je	SHORT $LN6@ApplyBonus
$LN5@ApplyBonus:

; 1740 : 		return;

	jmp	$LN12@ApplyBonus
$LN6@ApplyBonus:

; 1741 : 	for (i=0; i<MAX_BONUSES && !applied; i++)

	mov	DWORD PTR _i$[ebp], 0
	jmp	SHORT $LN4@ApplyBonus
$LN3@ApplyBonus:
	mov	ecx, DWORD PTR _i$[ebp]
	add	ecx, 1
	mov	DWORD PTR _i$[ebp], ecx
$LN4@ApplyBonus:
	cmp	DWORD PTR _i$[ebp], 20			; 00000014H
	jge	$LN12@ApplyBonus
	cmp	DWORD PTR _applied$[ebp], 0
	jne	SHORT $LN12@ApplyBonus

; 1742 : 	{
; 1743 : 		if (TeamInfo[who]->bonusObjs[i] == FalconNullId)

	push	OFFSET ?FalconNullId@@3VVU_ID@@A	; FalconNullId
	movzx	edx, BYTE PTR _who$[ebp]
	mov	eax, DWORD PTR ?TeamInfo@@3PAPAVTeamClass@@A[edx*4]
	mov	ecx, DWORD PTR _i$[ebp]
	lea	ecx, DWORD PTR [eax+ecx*8+632]
	call	??8VU_ID@@QBE_NABV0@@Z			; VU_ID::operator==
	movzx	edx, al
	test	edx, edx
	je	SHORT $LN1@ApplyBonus

; 1744 : 		{
; 1745 : 			TeamInfo[who]->bonusObjs[i] = poid;

	movzx	eax, BYTE PTR _who$[ebp]
	mov	ecx, DWORD PTR ?TeamInfo@@3PAPAVTeamClass@@A[eax*4]
	mov	edx, DWORD PTR _i$[ebp]
	mov	eax, DWORD PTR _poid$[ebp]
	mov	DWORD PTR [ecx+edx*8+632], eax
	mov	eax, DWORD PTR _poid$[ebp+4]
	mov	DWORD PTR [ecx+edx*8+636], eax

; 1746 : 			TeamInfo[who]->bonusTime[i] = TheCampaign.CurrentTime + (rating * 4 * CampaignMinutes);

	mov	ecx, DWORD PTR _rating$[ebp]
	shl	ecx, 2
	imul	ecx, 60000				; 0000ea60H
	add	ecx, DWORD PTR ?TheCampaign@@3VCampaignClass@@A
	movzx	edx, BYTE PTR _who$[ebp]
	mov	eax, DWORD PTR ?TeamInfo@@3PAPAVTeamClass@@A[edx*4]
	mov	edx, DWORD PTR _i$[ebp]
	mov	DWORD PTR [eax+edx*4+792], ecx

; 1747 : 			applied = TRUE;

	mov	DWORD PTR _applied$[ebp], 1
$LN1@ApplyBonus:

; 1748 : 		}
; 1749 : 	}

	jmp	$LN3@ApplyBonus
$LN12@ApplyBonus:

; 1750 : }

	mov	esp, ebp
	pop	ebp
	ret	0
?ApplyBonus@@YAXEVVU_ID@@H@Z ENDP			; ApplyBonus
_TEXT	ENDS
; Function compile flags: /Odtp
; File c:\users\zhitao li\documents\visual studio 2012\projects\freefalcon\campaign\camplib\team.cpp
_TEXT	SEGMENT
$T2 = -84						; size = 4
$T3 = -80						; size = 4
$T4 = -76						; size = 4
$T5 = -72						; size = 4
_ntm$ = -68						; size = 4
tv219 = -64						; size = 4
$T6 = -60						; size = 4
_gtm$ = -56						; size = 4
tv189 = -52						; size = 4
$T7 = -48						; size = 4
_atm$ = -44						; size = 4
tv159 = -40						; size = 4
$T8 = -36						; size = 4
tv87 = -32						; size = 4
$T9 = -28						; size = 4
_temp$ = -24						; size = 4
_tid$ = -20						; size = 4
_j$ = -16						; size = 4
__$EHRec$ = -12						; size = 12
_teamNum$ = 8						; size = 4
_defaultStance$ = 12					; size = 4
?AddTeam@@YAXHH@Z PROC					; AddTeam

; 1418 : {

	push	ebp
	mov	ebp, esp
	push	-1
	push	__ehhandler$?AddTeam@@YAXHH@Z
	mov	eax, DWORD PTR fs:0
	push	eax
	sub	esp, 72					; 00000048H
	mov	eax, DWORD PTR ___security_cookie
	xor	eax, ebp
	push	eax
	lea	eax, DWORD PTR __$EHRec$[ebp]
	mov	DWORD PTR fs:0, eax

; 1419 : 	TeamClass					*temp;
; 1420 : 	AirTaskingManagerClass		*atm;
; 1421 : 	GroundTaskingManagerClass	*gtm;
; 1422 : 	NavalTaskingManagerClass	*ntm;
; 1423 : 	int							tid,j;
; 1424 : 
; 1425 : 	if (TeamInfo[teamNum]){

	mov	eax, DWORD PTR _teamNum$[ebp]
	cmp	DWORD PTR ?TeamInfo@@3PAPAVTeamClass@@A[eax*4], 0
	je	SHORT $LN8@AddTeam

; 1426 : 		RemoveTeam(teamNum);

	mov	ecx, DWORD PTR _teamNum$[ebp]
	push	ecx
	call	?RemoveTeam@@YAXH@Z			; RemoveTeam
	add	esp, 4
$LN8@AddTeam:

; 1427 : 	}
; 1428 : 
; 1429 : 	tid = GetClassID(DOMAIN_ABSTRACT,CLASS_MANAGER,TYPE_TEAM,0,0,0,0,0) + VU_LAST_ENTITY_TYPE;

	push	0
	push	0
	push	0
	push	0
	push	0
	push	1
	push	3
	push	1
	call	?GetClassID@@YAHEEEEEEEE@Z		; GetClassID
	add	esp, 32					; 00000020H
	add	eax, 100				; 00000064H
	mov	DWORD PTR _tid$[ebp], eax

; 1430 : 	temp = new TeamClass(tid, teamNum);

	push	904					; 00000388H
	call	??2@YAPAXI@Z				; operator new
	add	esp, 4
	mov	DWORD PTR $T9[ebp], eax
	mov	DWORD PTR __$EHRec$[ebp+8], 0
	cmp	DWORD PTR $T9[ebp], 0
	je	SHORT $LN11@AddTeam
	movzx	edx, BYTE PTR _teamNum$[ebp]
	push	edx
	mov	eax, DWORD PTR _tid$[ebp]
	push	eax
	mov	ecx, DWORD PTR $T9[ebp]
	call	??0TeamClass@@QAE@HE@Z			; TeamClass::TeamClass
	mov	DWORD PTR tv87[ebp], eax
	jmp	SHORT $LN12@AddTeam
$LN11@AddTeam:
	mov	DWORD PTR tv87[ebp], 0
$LN12@AddTeam:
	mov	ecx, DWORD PTR tv87[ebp]
	mov	DWORD PTR $T5[ebp], ecx
	mov	DWORD PTR __$EHRec$[ebp+8], -1
	mov	edx, DWORD PTR $T5[ebp]
	mov	DWORD PTR _temp$[ebp], edx

; 1431 : 	for (j=0; j<NUM_TEAMS; j++)

	mov	DWORD PTR _j$[ebp], 0
	jmp	SHORT $LN7@AddTeam
$LN6@AddTeam:
	mov	eax, DWORD PTR _j$[ebp]
	add	eax, 1
	mov	DWORD PTR _j$[ebp], eax
$LN7@AddTeam:
	cmp	DWORD PTR _j$[ebp], 8
	jge	SHORT $LN5@AddTeam

; 1432 : 	{
; 1433 : 		if (teamNum != j && teamNum && j)

	mov	ecx, DWORD PTR _teamNum$[ebp]
	cmp	ecx, DWORD PTR _j$[ebp]
	je	SHORT $LN4@AddTeam
	cmp	DWORD PTR _teamNum$[ebp], 0
	je	SHORT $LN4@AddTeam
	cmp	DWORD PTR _j$[ebp], 0
	je	SHORT $LN4@AddTeam

; 1434 : 			temp->stance[j] = defaultStance;

	mov	edx, DWORD PTR _j$[ebp]
	mov	eax, DWORD PTR _temp$[ebp]
	mov	cx, WORD PTR _defaultStance$[ebp]
	mov	WORD PTR [eax+edx*2+580], cx
	jmp	SHORT $LN3@AddTeam
$LN4@AddTeam:

; 1435 : 		else if (teamNum != j)

	mov	edx, DWORD PTR _teamNum$[ebp]
	cmp	edx, DWORD PTR _j$[ebp]
	je	SHORT $LN2@AddTeam

; 1436 : 			temp->stance[j] = Neutral;

	mov	eax, 3
	mov	ecx, DWORD PTR _j$[ebp]
	mov	edx, DWORD PTR _temp$[ebp]
	mov	WORD PTR [edx+ecx*2+580], ax

; 1437 : 		else

	jmp	SHORT $LN3@AddTeam
$LN2@AddTeam:

; 1438 : 			temp->stance[j] = Allied;

	mov	eax, 1
	mov	ecx, DWORD PTR _j$[ebp]
	mov	edx, DWORD PTR _temp$[ebp]
	mov	WORD PTR [edx+ecx*2+580], ax
$LN3@AddTeam:

; 1439 : 	}

	jmp	SHORT $LN6@AddTeam
$LN5@AddTeam:

; 1440 : 	vuDatabase->/*Silent*/Insert(temp);

	mov	eax, DWORD PTR _temp$[ebp]
	push	eax
	mov	ecx, DWORD PTR ?vuDatabase@@3PAVVuDatabase@@A ; vuDatabase
	call	?Insert@VuDatabase@@QAEHPAVVuEntity@@@Z	; VuDatabase::Insert

; 1441 : 	tid = GetClassID(DOMAIN_AIR,CLASS_MANAGER,TYPE_ATM,0,0,0,0,0) + VU_LAST_ENTITY_TYPE;

	push	0
	push	0
	push	0
	push	0
	push	0
	push	1
	push	3
	push	2
	call	?GetClassID@@YAHEEEEEEEE@Z		; GetClassID
	add	esp, 32					; 00000020H
	add	eax, 100				; 00000064H
	mov	DWORD PTR _tid$[ebp], eax

; 1442 : 	atm = new AirTaskingManagerClass (tid, teamNum);

	push	208					; 000000d0H
	call	??2@YAPAXI@Z				; operator new
	add	esp, 4
	mov	DWORD PTR $T8[ebp], eax
	mov	DWORD PTR __$EHRec$[ebp+8], 1
	cmp	DWORD PTR $T8[ebp], 0
	je	SHORT $LN13@AddTeam
	movzx	ecx, BYTE PTR _teamNum$[ebp]
	push	ecx
	movzx	edx, WORD PTR _tid$[ebp]
	push	edx
	mov	ecx, DWORD PTR $T8[ebp]
	call	??0AirTaskingManagerClass@@QAE@GE@Z	; AirTaskingManagerClass::AirTaskingManagerClass
	mov	DWORD PTR tv159[ebp], eax
	jmp	SHORT $LN14@AddTeam
$LN13@AddTeam:
	mov	DWORD PTR tv159[ebp], 0
$LN14@AddTeam:
	mov	eax, DWORD PTR tv159[ebp]
	mov	DWORD PTR $T4[ebp], eax
	mov	DWORD PTR __$EHRec$[ebp+8], -1
	mov	ecx, DWORD PTR $T4[ebp]
	mov	DWORD PTR _atm$[ebp], ecx

; 1443 : 	vuDatabase->/*Silent*/Insert(atm);

	mov	edx, DWORD PTR _atm$[ebp]
	push	edx
	mov	ecx, DWORD PTR ?vuDatabase@@3PAVVuDatabase@@A ; vuDatabase
	call	?Insert@VuDatabase@@QAEHPAVVuEntity@@@Z	; VuDatabase::Insert

; 1444 : 	VuReferenceEntity(atm);

	mov	eax, DWORD PTR _atm$[ebp]
	push	eax
	call	?VuReferenceEntity@@YAHPAVVuEntity@@@Z	; VuReferenceEntity
	add	esp, 4

; 1445 : 	tid = GetClassID(DOMAIN_LAND,CLASS_MANAGER,TYPE_GTM,0,0,0,0,0) + VU_LAST_ENTITY_TYPE;

	push	0
	push	0
	push	0
	push	0
	push	0
	push	1
	push	3
	push	3
	call	?GetClassID@@YAHEEEEEEEE@Z		; GetClassID
	add	esp, 32					; 00000020H
	add	eax, 100				; 00000064H
	mov	DWORD PTR _tid$[ebp], eax

; 1446 : 	gtm = new GroundTaskingManagerClass (tid, teamNum);

	push	252					; 000000fcH
	call	??2@YAPAXI@Z				; operator new
	add	esp, 4
	mov	DWORD PTR $T7[ebp], eax
	mov	DWORD PTR __$EHRec$[ebp+8], 2
	cmp	DWORD PTR $T7[ebp], 0
	je	SHORT $LN15@AddTeam
	movzx	ecx, BYTE PTR _teamNum$[ebp]
	push	ecx
	movzx	edx, WORD PTR _tid$[ebp]
	push	edx
	mov	ecx, DWORD PTR $T7[ebp]
	call	??0GroundTaskingManagerClass@@QAE@GE@Z	; GroundTaskingManagerClass::GroundTaskingManagerClass
	mov	DWORD PTR tv189[ebp], eax
	jmp	SHORT $LN16@AddTeam
$LN15@AddTeam:
	mov	DWORD PTR tv189[ebp], 0
$LN16@AddTeam:
	mov	eax, DWORD PTR tv189[ebp]
	mov	DWORD PTR $T3[ebp], eax
	mov	DWORD PTR __$EHRec$[ebp+8], -1
	mov	ecx, DWORD PTR $T3[ebp]
	mov	DWORD PTR _gtm$[ebp], ecx

; 1447 : 	vuDatabase->/*Silent*/Insert(gtm);

	mov	edx, DWORD PTR _gtm$[ebp]
	push	edx
	mov	ecx, DWORD PTR ?vuDatabase@@3PAVVuDatabase@@A ; vuDatabase
	call	?Insert@VuDatabase@@QAEHPAVVuEntity@@@Z	; VuDatabase::Insert

; 1448 : 	VuReferenceEntity(gtm);

	mov	eax, DWORD PTR _gtm$[ebp]
	push	eax
	call	?VuReferenceEntity@@YAHPAVVuEntity@@@Z	; VuReferenceEntity
	add	esp, 4

; 1449 : 	tid = GetClassID(DOMAIN_SEA,CLASS_MANAGER,TYPE_NTM,0,0,0,0,0) + VU_LAST_ENTITY_TYPE;

	push	0
	push	0
	push	0
	push	0
	push	0
	push	1
	push	3
	push	4
	call	?GetClassID@@YAHEEEEEEEE@Z		; GetClassID
	add	esp, 32					; 00000020H
	add	eax, 100				; 00000064H
	mov	DWORD PTR _tid$[ebp], eax

; 1450 : 	ntm = new NavalTaskingManagerClass (tid, teamNum);

	push	164					; 000000a4H
	call	??2@YAPAXI@Z				; operator new
	add	esp, 4
	mov	DWORD PTR $T6[ebp], eax
	mov	DWORD PTR __$EHRec$[ebp+8], 3
	cmp	DWORD PTR $T6[ebp], 0
	je	SHORT $LN17@AddTeam
	movzx	ecx, BYTE PTR _teamNum$[ebp]
	push	ecx
	movzx	edx, WORD PTR _tid$[ebp]
	push	edx
	mov	ecx, DWORD PTR $T6[ebp]
	call	??0NavalTaskingManagerClass@@QAE@GE@Z	; NavalTaskingManagerClass::NavalTaskingManagerClass
	mov	DWORD PTR tv219[ebp], eax
	jmp	SHORT $LN18@AddTeam
$LN17@AddTeam:
	mov	DWORD PTR tv219[ebp], 0
$LN18@AddTeam:
	mov	eax, DWORD PTR tv219[ebp]
	mov	DWORD PTR $T2[ebp], eax
	mov	DWORD PTR __$EHRec$[ebp+8], -1
	mov	ecx, DWORD PTR $T2[ebp]
	mov	DWORD PTR _ntm$[ebp], ecx

; 1451 : 	vuDatabase->/*Silent*/Insert(ntm);

	mov	edx, DWORD PTR _ntm$[ebp]
	push	edx
	mov	ecx, DWORD PTR ?vuDatabase@@3PAVVuDatabase@@A ; vuDatabase
	call	?Insert@VuDatabase@@QAEHPAVVuEntity@@@Z	; VuDatabase::Insert

; 1452 : 	VuReferenceEntity(ntm);

	mov	eax, DWORD PTR _ntm$[ebp]
	push	eax
	call	?VuReferenceEntity@@YAHPAVVuEntity@@@Z	; VuReferenceEntity
	add	esp, 4

; 1453 : }

	mov	ecx, DWORD PTR __$EHRec$[ebp]
	mov	DWORD PTR fs:0, ecx
	pop	ecx
	mov	esp, ebp
	pop	ebp
	ret	0
_TEXT	ENDS
text$x	SEGMENT
__unwindfunclet$?AddTeam@@YAXHH@Z$0:
	mov	eax, DWORD PTR $T9[ebp]
	push	eax
	call	??3@YAXPAX@Z				; operator delete
	pop	ecx
	ret	0
__unwindfunclet$?AddTeam@@YAXHH@Z$1:
	mov	eax, DWORD PTR $T8[ebp]
	push	eax
	call	??3@YAXPAX@Z				; operator delete
	pop	ecx
	ret	0
__unwindfunclet$?AddTeam@@YAXHH@Z$2:
	mov	eax, DWORD PTR $T7[ebp]
	push	eax
	call	??3@YAXPAX@Z				; operator delete
	pop	ecx
	ret	0
__unwindfunclet$?AddTeam@@YAXHH@Z$3:
	mov	eax, DWORD PTR $T6[ebp]
	push	eax
	call	??3@YAXPAX@Z				; operator delete
	pop	ecx
	ret	0
__ehhandler$?AddTeam@@YAXHH@Z:
	mov	edx, DWORD PTR [esp+8]
	lea	eax, DWORD PTR [edx+12]
	mov	ecx, DWORD PTR [edx-76]
	xor	ecx, eax
	call	@__security_check_cookie@4
	mov	eax, OFFSET __ehfuncinfo$?AddTeam@@YAXHH@Z
	jmp	___CxxFrameHandler3
text$x	ENDS
?AddTeam@@YAXHH@Z ENDP					; AddTeam
; Function compile flags: /Odtp
; File c:\users\zhitao li\documents\visual studio 2012\projects\freefalcon\campaign\camplib\team.cpp
_TEXT	SEGMENT
_team$ = 8						; size = 4
_bonus$ = 12						; size = 4
?StartOffensive@@YAXHH@Z PROC				; StartOffensive

; 2923 : {

	push	ebp
	mov	ebp, esp

; 2924 : 	// A.S. 2001-12-09. This makes the offensive bonuses configurable 
; 2925 : #ifdef DEBUG
; 2926 : 	if (TeamInfo[team]->GetSupplyAvail() < StartOffBonusSup)
; 2927 : 		gSupplyFromOffensive[team] += StartOffBonusSup - TeamInfo[team]->GetSupplyAvail(); 
; 2928 : 	if (TeamInfo[team]->GetFuelAvail() < StartOffBonusFuel)
; 2929 : 		gFuelFromOffensive[team] += StartOffBonusFuel - TeamInfo[team]->GetFuelAvail();  
; 2930 : 	if (TeamInfo[team]->GetReplacementsAvail() < StartOffBonusRepl)
; 2931 : 		gReplacmentsFromOffensive[team] += StartOffBonusRepl - TeamInfo[team]->GetReplacementsAvail(); 
; 2932 : #endif
; 2933 : 	if (TeamInfo[team]->GetSupplyAvail() < StartOffBonusSup)     

	mov	eax, DWORD PTR _team$[ebp]
	mov	ecx, DWORD PTR ?TeamInfo@@3PAPAVTeamClass@@A[eax*4]
	call	?GetSupplyAvail@TeamClass@@QAEGXZ	; TeamClass::GetSupplyAvail
	movzx	ecx, ax
	cmp	ecx, DWORD PTR ?StartOffBonusSup@@3HA	; StartOffBonusSup
	jge	SHORT $LN3@StartOffen

; 2934 : 		TeamInfo[team]->SetSupplyAvail(StartOffBonusSup);         //from 5000 to StartOffBonusSup

	mov	edx, DWORD PTR ?StartOffBonusSup@@3HA	; StartOffBonusSup
	push	edx
	mov	eax, DWORD PTR _team$[ebp]
	mov	ecx, DWORD PTR ?TeamInfo@@3PAPAVTeamClass@@A[eax*4]
	call	?SetSupplyAvail@TeamClass@@QAEXH@Z	; TeamClass::SetSupplyAvail
$LN3@StartOffen:

; 2935 : 	if (TeamInfo[team]->GetFuelAvail() < StartOffBonusFuel)

	mov	ecx, DWORD PTR _team$[ebp]
	mov	ecx, DWORD PTR ?TeamInfo@@3PAPAVTeamClass@@A[ecx*4]
	call	?GetFuelAvail@TeamClass@@QAEGXZ		; TeamClass::GetFuelAvail
	movzx	edx, ax
	cmp	edx, DWORD PTR ?StartOffBonusFuel@@3HA	; StartOffBonusFuel
	jge	SHORT $LN2@StartOffen

; 2936 : 		TeamInfo[team]->SetFuelAvail(StartOffBonusFuel);          //from 5000 to StartOffBonusFuel

	mov	eax, DWORD PTR ?StartOffBonusFuel@@3HA	; StartOffBonusFuel
	push	eax
	mov	ecx, DWORD PTR _team$[ebp]
	mov	ecx, DWORD PTR ?TeamInfo@@3PAPAVTeamClass@@A[ecx*4]
	call	?SetFuelAvail@TeamClass@@QAEXH@Z	; TeamClass::SetFuelAvail
$LN2@StartOffen:

; 2937 : 	if (TeamInfo[team]->GetReplacementsAvail() < StartOffBonusRepl)  

	mov	edx, DWORD PTR _team$[ebp]
	mov	ecx, DWORD PTR ?TeamInfo@@3PAPAVTeamClass@@A[edx*4]
	call	?GetReplacementsAvail@TeamClass@@QAEGXZ	; TeamClass::GetReplacementsAvail
	movzx	eax, ax
	cmp	eax, DWORD PTR ?StartOffBonusRepl@@3HA	; StartOffBonusRepl
	jge	SHORT $LN4@StartOffen

; 2938 : 		TeamInfo[team]->SetReplacementsAvail(StartOffBonusRepl);   //from 1000 to StartOffBonusRep

	mov	ecx, DWORD PTR ?StartOffBonusRepl@@3HA	; StartOffBonusRepl
	push	ecx
	mov	edx, DWORD PTR _team$[ebp]
	mov	ecx, DWORD PTR ?TeamInfo@@3PAPAVTeamClass@@A[edx*4]
	call	?SetReplacementsAvail@TeamClass@@QAEXH@Z ; TeamClass::SetReplacementsAvail
$LN4@StartOffen:

; 2939 : 	// end added section
; 2940 : 
; 2941 : 	/* +++ old code +++
; 2942 : #ifdef DEBUG
; 2943 : if (TeamInfo[team]->GetSupplyAvail() < 5000)
; 2944 : gSupplyFromOffensive[team] += 5000 - TeamInfo[team]->GetSupplyAvail();
; 2945 : if (TeamInfo[team]->GetFuelAvail() < 5000)
; 2946 : gFuelFromOffensive[team] += 5000 - TeamInfo[team]->GetFuelAvail();
; 2947 : if (TeamInfo[team]->GetReplacementsAvail() < 1000)
; 2948 : gReplacmentsFromOffensive[team] += 1000 - TeamInfo[team]->GetReplacementsAvail();
; 2949 : #endif
; 2950 : if (TeamInfo[team]->GetSupplyAvail() < 5000)
; 2951 : TeamInfo[team]->SetSupplyAvail(5000);
; 2952 : if (TeamInfo[team]->GetFuelAvail() < 5000)
; 2953 : TeamInfo[team]->SetFuelAvail(5000);
; 2954 : if (TeamInfo[team]->GetReplacementsAvail() < 1000)
; 2955 : TeamInfo[team]->SetReplacementsAvail(1000);
; 2956 : 	 */
; 2957 : }

	pop	ebp
	ret	0
?StartOffensive@@YAXHH@Z ENDP				; StartOffensive
_TEXT	ENDS
; Function compile flags: /Odtp
; File c:\users\zhitao li\documents\visual studio 2012\projects\freefalcon\campaign\camplib\team.cpp
_TEXT	SEGMENT
_t$ = 8							; size = 1
?GetTeamSituation@@YAHE@Z PROC				; GetTeamSituation

; 2456 : {

	push	ebp
	mov	ebp, esp

; 2457 : 	/*	int				i;
; 2458 : 		float			etotal=0.0F,mytotal=0.0F;
; 2459 : 
; 2460 : 		for (i=0; i<NUM_TEAMS; i++)
; 2461 : 		{
; 2462 : 		if ((GetTTRelations(t,i) == War) && (TeamInfo[i]))
; 2463 : 		{
; 2464 : 		etotal +=	TeamInfo[i]->GetCurrentStats()->airDefenseVehs +
; 2465 : 		TeamInfo[i]->GetCurrentStats()->aircraft * 2.0F +
; 2466 : 		TeamInfo[i]->GetCurrentStats()->groundVehs +
; 2467 : 		TeamInfo[i]->GetCurrentStats()->ships * 5.0F +
; 2468 : 		TeamInfo[i]->GetCurrentStats()->supplyLevel * 100.0F;
; 2469 : 		TeamInfo[i]->GetCurrentStats()->fuelLevel * 100.0F;
; 2470 : 		}
; 2471 : 		if ((GetTTRelations(t,i) == Allied || t == i) && (TeamInfo[i]))
; 2472 : 		{
; 2473 : 		mytotal +=	TeamInfo[i]->GetCurrentStats()->airDefenseVehs +
; 2474 : 		TeamInfo[i]->GetCurrentStats()->aircraft * 2.0F +
; 2475 : 		TeamInfo[i]->GetCurrentStats()->groundVehs +
; 2476 : 		TeamInfo[i]->GetCurrentStats()->ships * 5.0F +
; 2477 : 		TeamInfo[i]->GetCurrentStats()->supplyLevel * 100.0F;
; 2478 : 		TeamInfo[i]->GetCurrentStats()->fuelLevel * 100.0F;
; 2479 : 		}
; 2480 : 		}
; 2481 : 		if (mytotal * 1.6F < etotal)
; 2482 : 		TheCampaign.Situation = 0;
; 2483 : 		else if (mytotal * 1.2F < etotal)
; 2484 : 		TheCampaign.Situation = 1;
; 2485 : 		else if (mytotal < etotal * 1.2F)
; 2486 : 		TheCampaign.Situation = 2;
; 2487 : 		else if (mytotal < etotal * 1.6F)
; 2488 : 		TheCampaign.Situation = 3;
; 2489 : 		else
; 2490 : 		TheCampaign.Situation = 4;
; 2491 : 	 */
; 2492 : 	return TheCampaign.Situation;

	movzx	eax, BYTE PTR ?TheCampaign@@3VCampaignClass@@A+94

; 2493 : }

	pop	ebp
	ret	0
?GetTeamSituation@@YAHE@Z ENDP				; GetTeamSituation
_TEXT	ENDS
; Function compile flags: /Odtp
; File c:\users\zhitao li\documents\visual studio 2012\projects\freefalcon\campaign\camplib\team.cpp
_TEXT	SEGMENT
_is_comment$ = -4					; size = 4
_fptr$ = 8						; size = 4
?CampGetNext@@YAPADPAU_iobuf@@@Z PROC			; CampGetNext

; 2508 : {

	push	ebp
	mov	ebp, esp
	push	ecx
$LN7@CampGetNex:

; 2509 : 	static char aline[160];
; 2510 : 	int is_comment;
; 2511 : 
; 2512 : 	// Can we read
; 2513 : 	F4Assert (fptr);
; 2514 : 	do
; 2515 : 	{
; 2516 : 		fscanf (fptr, "%s", aline);

	push	OFFSET ?aline@?1??CampGetNext@@YAPADPAU_iobuf@@@Z@4PADA
	push	OFFSET ??_C@_02DKCKIIND@?$CFs?$AA@
	mov	eax, DWORD PTR _fptr$[ebp]
	push	eax
	call	_fscanf
	add	esp, 12					; 0000000cH

; 2517 : 		SwapCRLF (aline);

	push	OFFSET ?aline@?1??CampGetNext@@YAPADPAU_iobuf@@@Z@4PADA
	call	?SwapCRLF@@YAXPAD@Z			; SwapCRLF
	add	esp, 4

; 2518 : 		if (aline[0] == ';' || aline[0] == '#')

	mov	ecx, 1
	imul	ecx, 0
	movsx	edx, BYTE PTR ?aline@?1??CampGetNext@@YAPADPAU_iobuf@@@Z@4PADA[ecx]
	cmp	edx, 59					; 0000003bH
	je	SHORT $LN3@CampGetNex
	mov	eax, 1
	imul	eax, 0
	movsx	ecx, BYTE PTR ?aline@?1??CampGetNext@@YAPADPAU_iobuf@@@Z@4PADA[eax]
	cmp	ecx, 35					; 00000023H
	jne	SHORT $LN4@CampGetNex
$LN3@CampGetNex:

; 2519 : 		{
; 2520 : 			if (fgets (aline, 160, fptr) == NULL)

	mov	edx, DWORD PTR _fptr$[ebp]
	push	edx
	push	160					; 000000a0H
	push	OFFSET ?aline@?1??CampGetNext@@YAPADPAU_iobuf@@@Z@4PADA
	call	_fgets
	add	esp, 12					; 0000000cH
	test	eax, eax
	jne	SHORT $LN2@CampGetNex

; 2521 : 				break;

	jmp	SHORT $LN5@CampGetNex
$LN2@CampGetNex:

; 2522 : 			is_comment = TRUE;

	mov	DWORD PTR _is_comment$[ebp], 1

; 2523 : 		}
; 2524 : 		else

	jmp	SHORT $LN6@CampGetNex
$LN4@CampGetNex:

; 2525 : 			is_comment = FALSE;

	mov	DWORD PTR _is_comment$[ebp], 0
$LN6@CampGetNex:

; 2526 : 	}
; 2527 : 	while (is_comment);

	cmp	DWORD PTR _is_comment$[ebp], 0
	jne	SHORT $LN7@CampGetNex
$LN5@CampGetNex:

; 2528 : 
; 2529 : 	return (aline);

	mov	eax, OFFSET ?aline@?1??CampGetNext@@YAPADPAU_iobuf@@@Z@4PADA

; 2530 : }

	mov	esp, ebp
	pop	ebp
	ret	0
?CampGetNext@@YAPADPAU_iobuf@@@Z ENDP			; CampGetNext
_TEXT	ENDS
; Function compile flags: /Odtp
;	COMDAT ??_G_System_error_category@std@@UAEPAXI@Z
_TEXT	SEGMENT
_this$ = -4						; size = 4
___flags$ = 8						; size = 4
??_G_System_error_category@std@@UAEPAXI@Z PROC		; std::_System_error_category::`scalar deleting destructor', COMDAT
; _this$ = ecx
	push	ebp
	mov	ebp, esp
	push	ecx
	mov	DWORD PTR _this$[ebp], ecx
	mov	ecx, DWORD PTR _this$[ebp]
	call	??1_System_error_category@std@@UAE@XZ
	mov	eax, DWORD PTR ___flags$[ebp]
	and	eax, 1
	je	SHORT $LN1@scalar
	mov	ecx, DWORD PTR _this$[ebp]
	push	ecx
	call	??3@YAXPAX@Z				; operator delete
	add	esp, 4
$LN1@scalar:
	mov	eax, DWORD PTR _this$[ebp]
	mov	esp, ebp
	pop	ebp
	ret	4
??_G_System_error_category@std@@UAEPAXI@Z ENDP		; std::_System_error_category::`scalar deleting destructor'
_TEXT	ENDS
; Function compile flags: /Odtp
;	COMDAT ??1_System_error_category@std@@UAE@XZ
_TEXT	SEGMENT
_this$ = -4						; size = 4
??1_System_error_category@std@@UAE@XZ PROC		; std::_System_error_category::~_System_error_category, COMDAT
; _this$ = ecx
	push	ebp
	mov	ebp, esp
	push	ecx
	mov	DWORD PTR _this$[ebp], ecx
	mov	ecx, DWORD PTR _this$[ebp]
	call	??1_Generic_error_category@std@@UAE@XZ
	mov	esp, ebp
	pop	ebp
	ret	0
??1_System_error_category@std@@UAE@XZ ENDP		; std::_System_error_category::~_System_error_category
_TEXT	ENDS
; Function compile flags: /Odtp
; File c:\program files (x86)\microsoft visual studio 11.0\vc\include\system_error
;	COMDAT ?default_error_condition@_System_error_category@std@@UBE?AVerror_condition@2@H@Z
_TEXT	SEGMENT
_this$ = -4						; size = 4
___$ReturnUdt$ = 8					; size = 4
__Errval$ = 12						; size = 4
?default_error_condition@_System_error_category@std@@UBE?AVerror_condition@2@H@Z PROC ; std::_System_error_category::default_error_condition, COMDAT
; _this$ = ecx

; 641  : 		{	// make error_condition for error code (generic if possible)

	push	ebp
	mov	ebp, esp
	push	ecx
	mov	DWORD PTR _this$[ebp], ecx

; 642  : 		if (_Syserror_map(_Errval))

	mov	eax, DWORD PTR __Errval$[ebp]
	push	eax
	call	?_Syserror_map@std@@YAPBDH@Z		; std::_Syserror_map
	add	esp, 4
	test	eax, eax
	je	SHORT $LN2@default_er

; 643  : 			return (error_condition(_Errval, generic_category()));

	call	?generic_category@std@@YAABVerror_category@1@XZ ; std::generic_category
	push	eax
	mov	ecx, DWORD PTR __Errval$[ebp]
	push	ecx
	mov	ecx, DWORD PTR ___$ReturnUdt$[ebp]
	call	??0error_condition@std@@QAE@HABVerror_category@1@@Z ; std::error_condition::error_condition
	mov	eax, DWORD PTR ___$ReturnUdt$[ebp]
	jmp	SHORT $LN3@default_er

; 644  : 		else

	jmp	SHORT $LN3@default_er
$LN2@default_er:

; 645  : 			return (error_condition(_Errval, system_category()));

	call	?system_category@std@@YAABVerror_category@1@XZ ; std::system_category
	push	eax
	mov	edx, DWORD PTR __Errval$[ebp]
	push	edx
	mov	ecx, DWORD PTR ___$ReturnUdt$[ebp]
	call	??0error_condition@std@@QAE@HABVerror_category@1@@Z ; std::error_condition::error_condition
	mov	eax, DWORD PTR ___$ReturnUdt$[ebp]
$LN3@default_er:

; 646  : 		}

	mov	esp, ebp
	pop	ebp
	ret	8
?default_error_condition@_System_error_category@std@@UBE?AVerror_condition@2@H@Z ENDP ; std::_System_error_category::default_error_condition
_TEXT	ENDS
; Function compile flags: /Odtp
; File c:\program files (x86)\microsoft visual studio 11.0\vc\include\system_error
;	COMDAT ?message@_System_error_category@std@@UBE?AV?$basic_string@DU?$char_traits@D@std@@V?$allocator@D@2@@2@H@Z
_TEXT	SEGMENT
_this$ = -16						; size = 4
$T1 = -12						; size = 4
tv69 = -8						; size = 4
__Name$ = -4						; size = 4
___$ReturnUdt$ = 8					; size = 4
__Errcode$ = 12						; size = 4
?message@_System_error_category@std@@UBE?AV?$basic_string@DU?$char_traits@D@std@@V?$allocator@D@2@@2@H@Z PROC ; std::_System_error_category::message, COMDAT
; _this$ = ecx

; 634  : 		{	// convert to name of error

	push	ebp
	mov	ebp, esp
	sub	esp, 16					; 00000010H
	mov	DWORD PTR _this$[ebp], ecx
	mov	DWORD PTR $T1[ebp], 0

; 635  : 		const char *_Name = _Winerror_map(_Errcode);

	mov	eax, DWORD PTR __Errcode$[ebp]
	push	eax
	call	?_Winerror_map@std@@YAPBDH@Z		; std::_Winerror_map
	add	esp, 4
	mov	DWORD PTR __Name$[ebp], eax

; 636  : 		return (string(_Name != 0 ? _Name : "unknown error"));

	cmp	DWORD PTR __Name$[ebp], 0
	je	SHORT $LN3@message
	mov	ecx, DWORD PTR __Name$[ebp]
	mov	DWORD PTR tv69[ebp], ecx
	jmp	SHORT $LN4@message
$LN3@message:
	mov	DWORD PTR tv69[ebp], OFFSET ??_C@_0O@BFJCFAAK@unknown?5error?$AA@
$LN4@message:
	mov	edx, DWORD PTR tv69[ebp]
	push	edx
	mov	ecx, DWORD PTR ___$ReturnUdt$[ebp]
	call	??0?$basic_string@DU?$char_traits@D@std@@V?$allocator@D@2@@std@@QAE@PBD@Z ; std::basic_string<char,std::char_traits<char>,std::allocator<char> >::basic_string<char,std::char_traits<char>,std::allocator<char> >
	mov	eax, DWORD PTR $T1[ebp]
	or	eax, 1
	mov	DWORD PTR $T1[ebp], eax
	mov	eax, DWORD PTR ___$ReturnUdt$[ebp]

; 637  : 		}

	mov	esp, ebp
	pop	ebp
	ret	8
?message@_System_error_category@std@@UBE?AV?$basic_string@DU?$char_traits@D@std@@V?$allocator@D@2@@2@H@Z ENDP ; std::_System_error_category::message
_TEXT	ENDS
; Function compile flags: /Odtp
; File c:\program files (x86)\microsoft visual studio 11.0\vc\include\system_error
;	COMDAT ?name@_System_error_category@std@@UBEPBDXZ
_TEXT	SEGMENT
_this$ = -4						; size = 4
?name@_System_error_category@std@@UBEPBDXZ PROC		; std::_System_error_category::name, COMDAT
; _this$ = ecx

; 629  : 		{	// get name of category

	push	ebp
	mov	ebp, esp
	push	ecx
	mov	DWORD PTR _this$[ebp], ecx

; 630  : 		return ("system");

	mov	eax, OFFSET ??_C@_06FHFOAHML@system?$AA@

; 631  : 		}

	mov	esp, ebp
	pop	ebp
	ret	0
?name@_System_error_category@std@@UBEPBDXZ ENDP		; std::_System_error_category::name
_TEXT	ENDS
; Function compile flags: /Odtp
; File c:\program files (x86)\microsoft visual studio 11.0\vc\include\system_error
;	COMDAT ??0_System_error_category@std@@QAE@XZ
_TEXT	SEGMENT
_this$ = -4						; size = 4
??0_System_error_category@std@@QAE@XZ PROC		; std::_System_error_category::_System_error_category, COMDAT
; _this$ = ecx

; 624  : 	_System_error_category()

	push	ebp
	mov	ebp, esp
	push	ecx
	mov	DWORD PTR _this$[ebp], ecx
	mov	ecx, DWORD PTR _this$[ebp]
	call	??0_Generic_error_category@std@@QAE@XZ	; std::_Generic_error_category::_Generic_error_category
	mov	eax, DWORD PTR _this$[ebp]
	mov	DWORD PTR [eax], OFFSET ??_7_System_error_category@std@@6B@

; 625  : 		{	// default constructor
; 626  : 		}

	mov	eax, DWORD PTR _this$[ebp]
	mov	esp, ebp
	pop	ebp
	ret	0
??0_System_error_category@std@@QAE@XZ ENDP		; std::_System_error_category::_System_error_category
_TEXT	ENDS
; Function compile flags: /Odtp
;	COMDAT ??_G_Iostream_error_category@std@@UAEPAXI@Z
_TEXT	SEGMENT
_this$ = -4						; size = 4
___flags$ = 8						; size = 4
??_G_Iostream_error_category@std@@UAEPAXI@Z PROC	; std::_Iostream_error_category::`scalar deleting destructor', COMDAT
; _this$ = ecx
	push	ebp
	mov	ebp, esp
	push	ecx
	mov	DWORD PTR _this$[ebp], ecx
	mov	ecx, DWORD PTR _this$[ebp]
	call	??1_Iostream_error_category@std@@UAE@XZ
	mov	eax, DWORD PTR ___flags$[ebp]
	and	eax, 1
	je	SHORT $LN1@scalar
	mov	ecx, DWORD PTR _this$[ebp]
	push	ecx
	call	??3@YAXPAX@Z				; operator delete
	add	esp, 4
$LN1@scalar:
	mov	eax, DWORD PTR _this$[ebp]
	mov	esp, ebp
	pop	ebp
	ret	4
??_G_Iostream_error_category@std@@UAEPAXI@Z ENDP	; std::_Iostream_error_category::`scalar deleting destructor'
_TEXT	ENDS
; Function compile flags: /Odtp
;	COMDAT ??1_Iostream_error_category@std@@UAE@XZ
_TEXT	SEGMENT
_this$ = -4						; size = 4
??1_Iostream_error_category@std@@UAE@XZ PROC		; std::_Iostream_error_category::~_Iostream_error_category, COMDAT
; _this$ = ecx
	push	ebp
	mov	ebp, esp
	push	ecx
	mov	DWORD PTR _this$[ebp], ecx
	mov	ecx, DWORD PTR _this$[ebp]
	call	??1_Generic_error_category@std@@UAE@XZ
	mov	esp, ebp
	pop	ebp
	ret	0
??1_Iostream_error_category@std@@UAE@XZ ENDP		; std::_Iostream_error_category::~_Iostream_error_category
_TEXT	ENDS
; Function compile flags: /Odtp
; File c:\program files (x86)\microsoft visual studio 11.0\vc\include\system_error
;	COMDAT ?message@_Iostream_error_category@std@@UBE?AV?$basic_string@DU?$char_traits@D@std@@V?$allocator@D@2@@2@H@Z
_TEXT	SEGMENT
_this$ = -8						; size = 4
$T1 = -4						; size = 4
___$ReturnUdt$ = 8					; size = 4
__Errcode$ = 12						; size = 4
?message@_Iostream_error_category@std@@UBE?AV?$basic_string@DU?$char_traits@D@std@@V?$allocator@D@2@@2@H@Z PROC ; std::_Iostream_error_category::message, COMDAT
; _this$ = ecx

; 611  : 		{	// convert to name of error

	push	ebp
	mov	ebp, esp
	sub	esp, 8
	mov	DWORD PTR _this$[ebp], ecx
	mov	DWORD PTR $T1[ebp], 0

; 612  : 		if (_Errcode == (int)io_errc::stream)

	cmp	DWORD PTR __Errcode$[ebp], 1
	jne	SHORT $LN2@message

; 613  : 			return ("iostream stream error");

	push	OFFSET ??_C@_0BG@PADBLCHM@iostream?5stream?5error?$AA@
	mov	ecx, DWORD PTR ___$ReturnUdt$[ebp]
	call	??0?$basic_string@DU?$char_traits@D@std@@V?$allocator@D@2@@std@@QAE@PBD@Z ; std::basic_string<char,std::char_traits<char>,std::allocator<char> >::basic_string<char,std::char_traits<char>,std::allocator<char> >
	mov	eax, DWORD PTR $T1[ebp]
	or	eax, 1
	mov	DWORD PTR $T1[ebp], eax
	mov	eax, DWORD PTR ___$ReturnUdt$[ebp]
	jmp	SHORT $LN3@message

; 614  : 		else

	jmp	SHORT $LN3@message
$LN2@message:

; 615  : 			return (_Generic_error_category::message(_Errcode));

	mov	ecx, DWORD PTR __Errcode$[ebp]
	push	ecx
	mov	edx, DWORD PTR ___$ReturnUdt$[ebp]
	push	edx
	mov	ecx, DWORD PTR _this$[ebp]
	call	?message@_Generic_error_category@std@@UBE?AV?$basic_string@DU?$char_traits@D@std@@V?$allocator@D@2@@2@H@Z ; std::_Generic_error_category::message
	mov	eax, DWORD PTR $T1[ebp]
	or	eax, 1
	mov	DWORD PTR $T1[ebp], eax
	mov	eax, DWORD PTR ___$ReturnUdt$[ebp]
$LN3@message:

; 616  : 		}

	mov	esp, ebp
	pop	ebp
	ret	8
?message@_Iostream_error_category@std@@UBE?AV?$basic_string@DU?$char_traits@D@std@@V?$allocator@D@2@@2@H@Z ENDP ; std::_Iostream_error_category::message
_TEXT	ENDS
; Function compile flags: /Odtp
; File c:\program files (x86)\microsoft visual studio 11.0\vc\include\system_error
;	COMDAT ?name@_Iostream_error_category@std@@UBEPBDXZ
_TEXT	SEGMENT
_this$ = -4						; size = 4
?name@_Iostream_error_category@std@@UBEPBDXZ PROC	; std::_Iostream_error_category::name, COMDAT
; _this$ = ecx

; 606  : 		{	// get name of category

	push	ebp
	mov	ebp, esp
	push	ecx
	mov	DWORD PTR _this$[ebp], ecx

; 607  : 		return ("iostream");

	mov	eax, OFFSET ??_C@_08LLGCOLLL@iostream?$AA@

; 608  : 		}

	mov	esp, ebp
	pop	ebp
	ret	0
?name@_Iostream_error_category@std@@UBEPBDXZ ENDP	; std::_Iostream_error_category::name
_TEXT	ENDS
; Function compile flags: /Odtp
; File c:\program files (x86)\microsoft visual studio 11.0\vc\include\system_error
;	COMDAT ??0_Iostream_error_category@std@@QAE@XZ
_TEXT	SEGMENT
_this$ = -4						; size = 4
??0_Iostream_error_category@std@@QAE@XZ PROC		; std::_Iostream_error_category::_Iostream_error_category, COMDAT
; _this$ = ecx

; 601  : 	_Iostream_error_category()

	push	ebp
	mov	ebp, esp
	push	ecx
	mov	DWORD PTR _this$[ebp], ecx
	mov	ecx, DWORD PTR _this$[ebp]
	call	??0_Generic_error_category@std@@QAE@XZ	; std::_Generic_error_category::_Generic_error_category
	mov	eax, DWORD PTR _this$[ebp]
	mov	DWORD PTR [eax], OFFSET ??_7_Iostream_error_category@std@@6B@

; 602  : 		{	// default constructor
; 603  : 		}

	mov	eax, DWORD PTR _this$[ebp]
	mov	esp, ebp
	pop	ebp
	ret	0
??0_Iostream_error_category@std@@QAE@XZ ENDP		; std::_Iostream_error_category::_Iostream_error_category
_TEXT	ENDS
; Function compile flags: /Odtp
;	COMDAT ??_G_Generic_error_category@std@@UAEPAXI@Z
_TEXT	SEGMENT
_this$ = -4						; size = 4
___flags$ = 8						; size = 4
??_G_Generic_error_category@std@@UAEPAXI@Z PROC		; std::_Generic_error_category::`scalar deleting destructor', COMDAT
; _this$ = ecx
	push	ebp
	mov	ebp, esp
	push	ecx
	mov	DWORD PTR _this$[ebp], ecx
	mov	ecx, DWORD PTR _this$[ebp]
	call	??1_Generic_error_category@std@@UAE@XZ
	mov	eax, DWORD PTR ___flags$[ebp]
	and	eax, 1
	je	SHORT $LN1@scalar
	mov	ecx, DWORD PTR _this$[ebp]
	push	ecx
	call	??3@YAXPAX@Z				; operator delete
	add	esp, 4
$LN1@scalar:
	mov	eax, DWORD PTR _this$[ebp]
	mov	esp, ebp
	pop	ebp
	ret	4
??_G_Generic_error_category@std@@UAEPAXI@Z ENDP		; std::_Generic_error_category::`scalar deleting destructor'
_TEXT	ENDS
; Function compile flags: /Odtp
;	COMDAT ??1_Generic_error_category@std@@UAE@XZ
_TEXT	SEGMENT
_this$ = -4						; size = 4
??1_Generic_error_category@std@@UAE@XZ PROC		; std::_Generic_error_category::~_Generic_error_category, COMDAT
; _this$ = ecx
	push	ebp
	mov	ebp, esp
	push	ecx
	mov	DWORD PTR _this$[ebp], ecx
	mov	ecx, DWORD PTR _this$[ebp]
	call	??1error_category@std@@UAE@XZ		; std::error_category::~error_category
	mov	esp, ebp
	pop	ebp
	ret	0
??1_Generic_error_category@std@@UAE@XZ ENDP		; std::_Generic_error_category::~_Generic_error_category
_TEXT	ENDS
; Function compile flags: /Odtp
; File c:\program files (x86)\microsoft visual studio 11.0\vc\include\system_error
;	COMDAT ?message@_Generic_error_category@std@@UBE?AV?$basic_string@DU?$char_traits@D@std@@V?$allocator@D@2@@2@H@Z
_TEXT	SEGMENT
_this$ = -16						; size = 4
$T1 = -12						; size = 4
tv69 = -8						; size = 4
__Name$ = -4						; size = 4
___$ReturnUdt$ = 8					; size = 4
__Errcode$ = 12						; size = 4
?message@_Generic_error_category@std@@UBE?AV?$basic_string@DU?$char_traits@D@std@@V?$allocator@D@2@@2@H@Z PROC ; std::_Generic_error_category::message, COMDAT
; _this$ = ecx

; 590  : 		{	// convert to name of error

	push	ebp
	mov	ebp, esp
	sub	esp, 16					; 00000010H
	mov	DWORD PTR _this$[ebp], ecx
	mov	DWORD PTR $T1[ebp], 0

; 591  : 		const char *_Name = _Syserror_map(_Errcode);

	mov	eax, DWORD PTR __Errcode$[ebp]
	push	eax
	call	?_Syserror_map@std@@YAPBDH@Z		; std::_Syserror_map
	add	esp, 4
	mov	DWORD PTR __Name$[ebp], eax

; 592  : 		return (string(_Name != 0 ? _Name : "unknown error"));

	cmp	DWORD PTR __Name$[ebp], 0
	je	SHORT $LN3@message
	mov	ecx, DWORD PTR __Name$[ebp]
	mov	DWORD PTR tv69[ebp], ecx
	jmp	SHORT $LN4@message
$LN3@message:
	mov	DWORD PTR tv69[ebp], OFFSET ??_C@_0O@BFJCFAAK@unknown?5error?$AA@
$LN4@message:
	mov	edx, DWORD PTR tv69[ebp]
	push	edx
	mov	ecx, DWORD PTR ___$ReturnUdt$[ebp]
	call	??0?$basic_string@DU?$char_traits@D@std@@V?$allocator@D@2@@std@@QAE@PBD@Z ; std::basic_string<char,std::char_traits<char>,std::allocator<char> >::basic_string<char,std::char_traits<char>,std::allocator<char> >
	mov	eax, DWORD PTR $T1[ebp]
	or	eax, 1
	mov	DWORD PTR $T1[ebp], eax
	mov	eax, DWORD PTR ___$ReturnUdt$[ebp]

; 593  : 		}

	mov	esp, ebp
	pop	ebp
	ret	8
?message@_Generic_error_category@std@@UBE?AV?$basic_string@DU?$char_traits@D@std@@V?$allocator@D@2@@2@H@Z ENDP ; std::_Generic_error_category::message
_TEXT	ENDS
; Function compile flags: /Odtp
; File c:\program files (x86)\microsoft visual studio 11.0\vc\include\system_error
;	COMDAT ?name@_Generic_error_category@std@@UBEPBDXZ
_TEXT	SEGMENT
_this$ = -4						; size = 4
?name@_Generic_error_category@std@@UBEPBDXZ PROC	; std::_Generic_error_category::name, COMDAT
; _this$ = ecx

; 585  : 		{	// get name of category

	push	ebp
	mov	ebp, esp
	push	ecx
	mov	DWORD PTR _this$[ebp], ecx

; 586  : 		return ("generic");

	mov	eax, OFFSET ??_C@_07DCLBNMLN@generic?$AA@

; 587  : 		}

	mov	esp, ebp
	pop	ebp
	ret	0
?name@_Generic_error_category@std@@UBEPBDXZ ENDP	; std::_Generic_error_category::name
_TEXT	ENDS
; Function compile flags: /Odtp
; File c:\program files (x86)\microsoft visual studio 11.0\vc\include\system_error
;	COMDAT ??0_Generic_error_category@std@@QAE@XZ
_TEXT	SEGMENT
_this$ = -4						; size = 4
??0_Generic_error_category@std@@QAE@XZ PROC		; std::_Generic_error_category::_Generic_error_category, COMDAT
; _this$ = ecx

; 580  : 	_Generic_error_category()

	push	ebp
	mov	ebp, esp
	push	ecx
	mov	DWORD PTR _this$[ebp], ecx
	mov	ecx, DWORD PTR _this$[ebp]
	call	??0error_category@std@@QAE@XZ		; std::error_category::error_category
	mov	eax, DWORD PTR _this$[ebp]
	mov	DWORD PTR [eax], OFFSET ??_7_Generic_error_category@std@@6B@

; 581  : 		{	// default constructor
; 582  : 		}

	mov	eax, DWORD PTR _this$[ebp]
	mov	esp, ebp
	pop	ebp
	ret	0
??0_Generic_error_category@std@@QAE@XZ ENDP		; std::_Generic_error_category::_Generic_error_category
_TEXT	ENDS
; Function compile flags: /Odtp
; File c:\program files (x86)\microsoft visual studio 11.0\vc\include\system_error
;	COMDAT ??8error_condition@std@@QBE_NABV01@@Z
_TEXT	SEGMENT
tv78 = -8						; size = 4
_this$ = -4						; size = 4
__Right$ = 8						; size = 4
??8error_condition@std@@QBE_NABV01@@Z PROC		; std::error_condition::operator==, COMDAT
; _this$ = ecx

; 376  : 		{	// test if *this == _Right

	push	ebp
	mov	ebp, esp
	sub	esp, 8
	push	esi
	mov	DWORD PTR _this$[ebp], ecx

; 377  : 		return (category() == _Right.category()
; 378  : 			&& value() == _Right.value());

	mov	ecx, DWORD PTR __Right$[ebp]
	call	?category@error_condition@std@@QBEABVerror_category@2@XZ ; std::error_condition::category
	push	eax
	mov	ecx, DWORD PTR _this$[ebp]
	call	?category@error_condition@std@@QBEABVerror_category@2@XZ ; std::error_condition::category
	mov	ecx, eax
	call	??8error_category@std@@QBE_NABV01@@Z	; std::error_category::operator==
	movzx	eax, al
	test	eax, eax
	je	SHORT $LN3@operator
	mov	ecx, DWORD PTR _this$[ebp]
	call	?value@error_condition@std@@QBEHXZ	; std::error_condition::value
	mov	esi, eax
	mov	ecx, DWORD PTR __Right$[ebp]
	call	?value@error_condition@std@@QBEHXZ	; std::error_condition::value
	cmp	esi, eax
	jne	SHORT $LN3@operator
	mov	DWORD PTR tv78[ebp], 1
	jmp	SHORT $LN4@operator
$LN3@operator:
	mov	DWORD PTR tv78[ebp], 0
$LN4@operator:
	mov	al, BYTE PTR tv78[ebp]

; 379  : 		}

	pop	esi
	mov	esp, ebp
	pop	ebp
	ret	4
??8error_condition@std@@QBE_NABV01@@Z ENDP		; std::error_condition::operator==
_TEXT	ENDS
; Function compile flags: /Odtp
; File c:\program files (x86)\microsoft visual studio 11.0\vc\include\system_error
;	COMDAT ?category@error_condition@std@@QBEABVerror_category@2@XZ
_TEXT	SEGMENT
_this$ = -4						; size = 4
?category@error_condition@std@@QBEABVerror_category@2@XZ PROC ; std::error_condition::category, COMDAT
; _this$ = ecx

; 354  : 		{	// get category

	push	ebp
	mov	ebp, esp
	push	ecx
	mov	DWORD PTR _this$[ebp], ecx

; 355  : 		return (*_Mycat);

	mov	eax, DWORD PTR _this$[ebp]
	mov	eax, DWORD PTR [eax+4]

; 356  : 		}

	mov	esp, ebp
	pop	ebp
	ret	0
?category@error_condition@std@@QBEABVerror_category@2@XZ ENDP ; std::error_condition::category
_TEXT	ENDS
; Function compile flags: /Odtp
; File c:\program files (x86)\microsoft visual studio 11.0\vc\include\system_error
;	COMDAT ?value@error_condition@std@@QBEHXZ
_TEXT	SEGMENT
_this$ = -4						; size = 4
?value@error_condition@std@@QBEHXZ PROC			; std::error_condition::value, COMDAT
; _this$ = ecx

; 349  : 		{	// get error code

	push	ebp
	mov	ebp, esp
	push	ecx
	mov	DWORD PTR _this$[ebp], ecx

; 350  : 		return (_Myval);

	mov	eax, DWORD PTR _this$[ebp]
	mov	eax, DWORD PTR [eax]

; 351  : 		}

	mov	esp, ebp
	pop	ebp
	ret	0
?value@error_condition@std@@QBEHXZ ENDP			; std::error_condition::value
_TEXT	ENDS
; Function compile flags: /Odtp
; File c:\program files (x86)\microsoft visual studio 11.0\vc\include\system_error
;	COMDAT ??0error_condition@std@@QAE@HABVerror_category@1@@Z
_TEXT	SEGMENT
_this$ = -4						; size = 4
__Val$ = 8						; size = 4
__Cat$ = 12						; size = 4
??0error_condition@std@@QAE@HABVerror_category@1@@Z PROC ; std::error_condition::error_condition, COMDAT
; _this$ = ecx

; 316  : 		{	// construct from error code and category

	push	ebp
	mov	ebp, esp
	push	ecx
	mov	DWORD PTR _this$[ebp], ecx
	mov	eax, DWORD PTR _this$[ebp]
	mov	ecx, DWORD PTR __Val$[ebp]
	mov	DWORD PTR [eax], ecx
	mov	edx, DWORD PTR _this$[ebp]
	mov	eax, DWORD PTR __Cat$[ebp]
	mov	DWORD PTR [edx+4], eax

; 317  : 		}

	mov	eax, DWORD PTR _this$[ebp]
	mov	esp, ebp
	pop	ebp
	ret	8
??0error_condition@std@@QAE@HABVerror_category@1@@Z ENDP ; std::error_condition::error_condition
_TEXT	ENDS
; Function compile flags: /Odtp
; File c:\program files (x86)\microsoft visual studio 11.0\vc\include\system_error
;	COMDAT ?category@error_code@std@@QBEABVerror_category@2@XZ
_TEXT	SEGMENT
_this$ = -4						; size = 4
?category@error_code@std@@QBEABVerror_category@2@XZ PROC ; std::error_code::category, COMDAT
; _this$ = ecx

; 256  : 		{	// get category

	push	ebp
	mov	ebp, esp
	push	ecx
	mov	DWORD PTR _this$[ebp], ecx

; 257  : 		return (*_Mycat);

	mov	eax, DWORD PTR _this$[ebp]
	mov	eax, DWORD PTR [eax+4]

; 258  : 		}

	mov	esp, ebp
	pop	ebp
	ret	0
?category@error_code@std@@QBEABVerror_category@2@XZ ENDP ; std::error_code::category
_TEXT	ENDS
; Function compile flags: /Odtp
; File c:\program files (x86)\microsoft visual studio 11.0\vc\include\system_error
;	COMDAT ?value@error_code@std@@QBEHXZ
_TEXT	SEGMENT
_this$ = -4						; size = 4
?value@error_code@std@@QBEHXZ PROC			; std::error_code::value, COMDAT
; _this$ = ecx

; 251  : 		{	// get error code

	push	ebp
	mov	ebp, esp
	push	ecx
	mov	DWORD PTR _this$[ebp], ecx

; 252  : 		return (_Myval);

	mov	eax, DWORD PTR _this$[ebp]
	mov	eax, DWORD PTR [eax]

; 253  : 		}

	mov	esp, ebp
	pop	ebp
	ret	0
?value@error_code@std@@QBEHXZ ENDP			; std::error_code::value
_TEXT	ENDS
; Function compile flags: /Odtp
;	COMDAT ??_Gerror_category@std@@UAEPAXI@Z
_TEXT	SEGMENT
_this$ = -4						; size = 4
___flags$ = 8						; size = 4
??_Gerror_category@std@@UAEPAXI@Z PROC			; std::error_category::`scalar deleting destructor', COMDAT
; _this$ = ecx
	push	ebp
	mov	ebp, esp
	push	ecx
	mov	DWORD PTR _this$[ebp], ecx
	mov	ecx, DWORD PTR _this$[ebp]
	call	??1error_category@std@@UAE@XZ		; std::error_category::~error_category
	mov	eax, DWORD PTR ___flags$[ebp]
	and	eax, 1
	je	SHORT $LN1@scalar
	mov	ecx, DWORD PTR _this$[ebp]
	push	ecx
	call	??3@YAXPAX@Z				; operator delete
	add	esp, 4
$LN1@scalar:
	mov	eax, DWORD PTR _this$[ebp]
	mov	esp, ebp
	pop	ebp
	ret	4
??_Gerror_category@std@@UAEPAXI@Z ENDP			; std::error_category::`scalar deleting destructor'
_TEXT	ENDS
; Function compile flags: /Odtp
; File c:\program files (x86)\microsoft visual studio 11.0\vc\include\system_error
;	COMDAT ??8error_category@std@@QBE_NABV01@@Z
_TEXT	SEGMENT
_this$ = -8						; size = 4
tv65 = -4						; size = 4
__Right$ = 8						; size = 4
??8error_category@std@@QBE_NABV01@@Z PROC		; std::error_category::operator==, COMDAT
; _this$ = ecx

; 184  : 		{	// compare categories for equality

	push	ebp
	mov	ebp, esp
	sub	esp, 8
	mov	DWORD PTR _this$[ebp], ecx

; 185  : 		return (this == &_Right);

	mov	eax, DWORD PTR _this$[ebp]
	cmp	eax, DWORD PTR __Right$[ebp]
	jne	SHORT $LN3@operator
	mov	DWORD PTR tv65[ebp], 1
	jmp	SHORT $LN4@operator
$LN3@operator:
	mov	DWORD PTR tv65[ebp], 0
$LN4@operator:
	mov	al, BYTE PTR tv65[ebp]

; 186  : 		}

	mov	esp, ebp
	pop	ebp
	ret	4
??8error_category@std@@QBE_NABV01@@Z ENDP		; std::error_category::operator==
_TEXT	ENDS
; Function compile flags: /Odtp
; File c:\program files (x86)\microsoft visual studio 11.0\vc\include\system_error
;	COMDAT ?equivalent@error_category@std@@UBE_NABVerror_code@2@H@Z
_TEXT	SEGMENT
_this$ = -8						; size = 4
tv74 = -4						; size = 4
__Code$ = 8						; size = 4
__Errval$ = 12						; size = 4
?equivalent@error_category@std@@UBE_NABVerror_code@2@H@Z PROC ; std::error_category::equivalent, COMDAT
; _this$ = ecx

; 415  : 	{	// test if conditions same for this category

	push	ebp
	mov	ebp, esp
	sub	esp, 8
	mov	DWORD PTR _this$[ebp], ecx

; 416  : 	return (*this == _Code.category() && _Code.value() == _Errval);

	mov	ecx, DWORD PTR __Code$[ebp]
	call	?category@error_code@std@@QBEABVerror_category@2@XZ ; std::error_code::category
	push	eax
	mov	ecx, DWORD PTR _this$[ebp]
	call	??8error_category@std@@QBE_NABV01@@Z	; std::error_category::operator==
	movzx	eax, al
	test	eax, eax
	je	SHORT $LN3@equivalent
	mov	ecx, DWORD PTR __Code$[ebp]
	call	?value@error_code@std@@QBEHXZ		; std::error_code::value
	cmp	eax, DWORD PTR __Errval$[ebp]
	jne	SHORT $LN3@equivalent
	mov	DWORD PTR tv74[ebp], 1
	jmp	SHORT $LN4@equivalent
$LN3@equivalent:
	mov	DWORD PTR tv74[ebp], 0
$LN4@equivalent:
	mov	al, BYTE PTR tv74[ebp]

; 417  : 	}

	mov	esp, ebp
	pop	ebp
	ret	8
?equivalent@error_category@std@@UBE_NABVerror_code@2@H@Z ENDP ; std::error_category::equivalent
_TEXT	ENDS
; Function compile flags: /Odtp
; File c:\program files (x86)\microsoft visual studio 11.0\vc\include\system_error
;	COMDAT ?equivalent@error_category@std@@UBE_NHABVerror_condition@2@@Z
_TEXT	SEGMENT
$T1 = -12						; size = 8
_this$ = -4						; size = 4
__Errval$ = 8						; size = 4
__Cond$ = 12						; size = 4
?equivalent@error_category@std@@UBE_NHABVerror_condition@2@@Z PROC ; std::error_category::equivalent, COMDAT
; _this$ = ecx

; 408  : 	{	// test if error code same condition

	push	ebp
	mov	ebp, esp
	sub	esp, 12					; 0000000cH
	mov	DWORD PTR _this$[ebp], ecx

; 409  : 	return (default_error_condition(_Errval) == _Cond);

	mov	eax, DWORD PTR __Cond$[ebp]
	push	eax
	mov	ecx, DWORD PTR __Errval$[ebp]
	push	ecx
	lea	edx, DWORD PTR $T1[ebp]
	push	edx
	mov	eax, DWORD PTR _this$[ebp]
	mov	edx, DWORD PTR [eax]
	mov	ecx, DWORD PTR _this$[ebp]
	mov	eax, DWORD PTR [edx+12]
	call	eax
	mov	ecx, eax
	call	??8error_condition@std@@QBE_NABV01@@Z	; std::error_condition::operator==

; 410  : 	}

	mov	esp, ebp
	pop	ebp
	ret	8
?equivalent@error_category@std@@UBE_NHABVerror_condition@2@@Z ENDP ; std::error_category::equivalent
_TEXT	ENDS
; Function compile flags: /Odtp
; File c:\program files (x86)\microsoft visual studio 11.0\vc\include\system_error
;	COMDAT ?default_error_condition@error_category@std@@UBE?AVerror_condition@2@H@Z
_TEXT	SEGMENT
_this$ = -4						; size = 4
___$ReturnUdt$ = 8					; size = 4
__Errval$ = 12						; size = 4
?default_error_condition@error_category@std@@UBE?AVerror_condition@2@H@Z PROC ; std::error_category::default_error_condition, COMDAT
; _this$ = ecx

; 401  : 	{	// make error_condition for error code

	push	ebp
	mov	ebp, esp
	push	ecx
	mov	DWORD PTR _this$[ebp], ecx

; 402  : 	return (error_condition(_Errval, *this));

	mov	eax, DWORD PTR _this$[ebp]
	push	eax
	mov	ecx, DWORD PTR __Errval$[ebp]
	push	ecx
	mov	ecx, DWORD PTR ___$ReturnUdt$[ebp]
	call	??0error_condition@std@@QAE@HABVerror_category@1@@Z ; std::error_condition::error_condition
	mov	eax, DWORD PTR ___$ReturnUdt$[ebp]

; 403  : 	}

	mov	esp, ebp
	pop	ebp
	ret	8
?default_error_condition@error_category@std@@UBE?AVerror_condition@2@H@Z ENDP ; std::error_category::default_error_condition
_TEXT	ENDS
; Function compile flags: /Odtp
; File c:\program files (x86)\microsoft visual studio 11.0\vc\include\system_error
;	COMDAT ??1error_category@std@@UAE@XZ
_TEXT	SEGMENT
_this$ = -4						; size = 4
??1error_category@std@@UAE@XZ PROC			; std::error_category::~error_category, COMDAT
; _this$ = ecx

; 167  : 		{	// destroy the object

	push	ebp
	mov	ebp, esp
	push	ecx
	mov	DWORD PTR _this$[ebp], ecx
	mov	eax, DWORD PTR _this$[ebp]
	mov	DWORD PTR [eax], OFFSET ??_7error_category@std@@6B@

; 168  : 		}

	mov	esp, ebp
	pop	ebp
	ret	0
??1error_category@std@@UAE@XZ ENDP			; std::error_category::~error_category
_TEXT	ENDS
; Function compile flags: /Odtp
; File c:\program files (x86)\microsoft visual studio 11.0\vc\include\system_error
;	COMDAT ??0error_category@std@@QAE@XZ
_TEXT	SEGMENT
_this$ = -4						; size = 4
??0error_category@std@@QAE@XZ PROC			; std::error_category::error_category, COMDAT
; _this$ = ecx

; 162  : 	error_category()

	push	ebp
	mov	ebp, esp
	push	ecx
	mov	DWORD PTR _this$[ebp], ecx
	mov	eax, DWORD PTR _this$[ebp]
	mov	DWORD PTR [eax], OFFSET ??_7error_category@std@@6B@

; 163  : 		{	// default constructor
; 164  : 		}

	mov	eax, DWORD PTR _this$[ebp]
	mov	esp, ebp
	pop	ebp
	ret	0
??0error_category@std@@QAE@XZ ENDP			; std::error_category::error_category
_TEXT	ENDS
; Function compile flags: /Odtp
; File c:\program files (x86)\microsoft visual studio 11.0\vc\include\system_error
;	COMDAT ?system_category@std@@YAABVerror_category@1@XZ
_TEXT	SEGMENT
?system_category@std@@YAABVerror_category@1@XZ PROC	; std::system_category, COMDAT

; 679  : 	{	// get system_category

	push	ebp
	mov	ebp, esp

; 680  : 	return (_Error_objects<int>::_System_object);

	mov	eax, OFFSET ?_System_object@?$_Error_objects@H@std@@2V_System_error_category@2@A ; std::_Error_objects<int>::_System_object

; 681  : 	}

	pop	ebp
	ret	0
?system_category@std@@YAABVerror_category@1@XZ ENDP	; std::system_category
_TEXT	ENDS
; Function compile flags: /Odtp
; File c:\program files (x86)\microsoft visual studio 11.0\vc\include\system_error
;	COMDAT ?generic_category@std@@YAABVerror_category@1@XZ
_TEXT	SEGMENT
?generic_category@std@@YAABVerror_category@1@XZ PROC	; std::generic_category, COMDAT

; 669  : 	{	// get generic_category

	push	ebp
	mov	ebp, esp

; 670  : 	return (_Error_objects<int>::_Generic_object);

	mov	eax, OFFSET ?_Generic_object@?$_Error_objects@H@std@@2V_Generic_error_category@2@A ; std::_Error_objects<int>::_Generic_object

; 671  : 	}

	pop	ebp
	ret	0
?generic_category@std@@YAABVerror_category@1@XZ ENDP	; std::generic_category
_TEXT	ENDS
; Function compile flags: /Odtp
; File c:\program files (x86)\microsoft visual studio 11.0\vc\include\xlocale
;	COMDAT ??0id@locale@std@@QAE@I@Z
_TEXT	SEGMENT
_this$ = -4						; size = 4
__Val$ = 8						; size = 4
??0id@locale@std@@QAE@I@Z PROC				; std::locale::id::id, COMDAT
; _this$ = ecx

; 74   : 			{	// construct with specified stamp value

	push	ebp
	mov	ebp, esp
	push	ecx
	mov	DWORD PTR _this$[ebp], ecx
	mov	eax, DWORD PTR _this$[ebp]
	mov	ecx, DWORD PTR __Val$[ebp]
	mov	DWORD PTR [eax], ecx

; 75   : 			}

	mov	eax, DWORD PTR _this$[ebp]
	mov	esp, ebp
	pop	ebp
	ret	4
??0id@locale@std@@QAE@I@Z ENDP				; std::locale::id::id
_TEXT	ENDS
; Function compile flags: /Odtp
; File c:\users\zhitao li\documents\visual studio 2012\projects\freefalcon\falclib\include\falcsess.h
;	COMDAT ?GetGame@FalconSessionEntity@@QAEPAVFalconGameEntity@@XZ
_TEXT	SEGMENT
_this$ = -4						; size = 4
?GetGame@FalconSessionEntity@@QAEPAVFalconGameEntity@@XZ PROC ; FalconSessionEntity::GetGame, COMDAT
; _this$ = ecx

; 154  : 	FalconGameEntity* GetGame (void)              { return (FalconGameEntity*)VuSessionEntity::Game(); }

	push	ebp
	mov	ebp, esp
	push	ecx
	mov	DWORD PTR _this$[ebp], ecx
	mov	ecx, DWORD PTR _this$[ebp]
	call	?Game@VuSessionEntity@@QAEPAVVuGameEntity@@XZ ; VuSessionEntity::Game
	mov	esp, ebp
	pop	ebp
	ret	0
?GetGame@FalconSessionEntity@@QAEPAVFalconGameEntity@@XZ ENDP ; FalconSessionEntity::GetGame
_TEXT	ENDS
; Function compile flags: /Odtp
; File c:\users\zhitao li\documents\visual studio 2012\projects\freefalcon\campaign\camplib\team.cpp
_TEXT	SEGMENT
_who$ = 8						; size = 1
?AirSuperiority@@YAHE@Z PROC				; AirSuperiority

; 2502 : {

	push	ebp
	mov	ebp, esp

; 2503 : 	return 0;

	xor	eax, eax

; 2504 : }

	pop	ebp
	ret	0
?AirSuperiority@@YAHE@Z ENDP				; AirSuperiority
_TEXT	ENDS
; Function compile flags: /Odtp
; File c:\users\zhitao li\documents\visual studio 2012\projects\freefalcon\campaign\camplib\team.cpp
_TEXT	SEGMENT
_who$ = 8						; size = 1
?NavalSuperiority@@YAHE@Z PROC				; NavalSuperiority

; 2497 : {

	push	ebp
	mov	ebp, esp

; 2498 : 	return 0;

	xor	eax, eax

; 2499 : }

	pop	ebp
	ret	0
?NavalSuperiority@@YAHE@Z ENDP				; NavalSuperiority
_TEXT	ENDS
; Function compile flags: /Odtp
; File c:\users\zhitao li\documents\visual studio 2012\projects\freefalcon\campaign\camplib\team.cpp
_TEXT	SEGMENT
_uit$2 = -252						; size = 12
_uit$3 = -240						; size = 12
_uit$4 = -228						; size = 12
_o$5 = -216						; size = 4
tv342 = -212						; size = 4
tv309 = -208						; size = 4
_thf$ = -204						; size = 4
tv288 = -200						; size = 4
_rating$ = -196						; size = 4
_ths$ = -192						; size = 4
tv186 = -188						; size = 4
tv206 = -184						; size = 4
tv370 = -180						; size = 4
_hist$ = -176						; size = 5
_d$ = -168						; size = 2
_timestamp$ = -164					; size = 4
_count$ = -160						; size = 2
_fp$ = -156						; size = 4
_u$ = -152						; size = 4
_i$ = -148						; size = 4
_fhave$ = -144						; size = 32
_fwant$ = -112						; size = 32
_swant$ = -80						; size = 32
_shave$ = -48						; size = 32
__$ArrayPad$ = -16					; size = 4
__$EHRec$ = -12						; size = 12
?UpdateTeamStatistics@@YAXXZ PROC			; UpdateTeamStatistics

; 2225 : {

	push	ebp
	mov	ebp, esp
	push	-1
	push	__ehhandler$?UpdateTeamStatistics@@YAXXZ
	mov	eax, DWORD PTR fs:0
	push	eax
	sub	esp, 240				; 000000f0H
	mov	eax, DWORD PTR ___security_cookie
	xor	eax, ebp
	mov	DWORD PTR __$ArrayPad$[ebp], eax
	push	ebx
	push	esi
	push	eax
	lea	eax, DWORD PTR __$EHRec$[ebp]
	mov	DWORD PTR fs:0, eax

; 2226 : 	Unit			u;
; 2227 : 	int				i,ths,thf;
; 2228 : 	int				shave[NUM_TEAMS],swant[NUM_TEAMS],fhave[NUM_TEAMS],fwant[NUM_TEAMS];
; 2229 : 
; 2230 : 	// Clear vehicle counts
; 2231 : 	for (i=0; i<NUM_TEAMS; i++)

	mov	DWORD PTR _i$[ebp], 0
	jmp	SHORT $LN62@UpdateTeam
$LN61@UpdateTeam:
	mov	eax, DWORD PTR _i$[ebp]
	add	eax, 1
	mov	DWORD PTR _i$[ebp], eax
$LN62@UpdateTeam:
	cmp	DWORD PTR _i$[ebp], 8
	jge	$LN60@UpdateTeam

; 2232 : 	{
; 2233 : 		if (!TeamInfo[i])

	mov	ecx, DWORD PTR _i$[ebp]
	cmp	DWORD PTR ?TeamInfo@@3PAPAVTeamClass@@A[ecx*4], 0
	jne	SHORT $LN59@UpdateTeam

; 2234 : 			return;

	jmp	$LN63@UpdateTeam
$LN59@UpdateTeam:

; 2235 : 		TeamInfo[i]->SetCurrentStats()->airDefenseVehs = 0;

	mov	edx, DWORD PTR _i$[ebp]
	mov	ecx, DWORD PTR ?TeamInfo@@3PAPAVTeamClass@@A[edx*4]
	call	?SetCurrentStats@TeamClass@@QAEPAUTeamStatusType@@XZ ; TeamClass::SetCurrentStats
	xor	ecx, ecx
	mov	WORD PTR [eax], cx

; 2236 : 		TeamInfo[i]->SetCurrentStats()->aircraft = 0;

	mov	edx, DWORD PTR _i$[ebp]
	mov	ecx, DWORD PTR ?TeamInfo@@3PAPAVTeamClass@@A[edx*4]
	call	?SetCurrentStats@TeamClass@@QAEPAUTeamStatusType@@XZ ; TeamClass::SetCurrentStats
	xor	ecx, ecx
	mov	WORD PTR [eax+2], cx

; 2237 : 		TeamInfo[i]->SetCurrentStats()->groundVehs = 0;

	mov	edx, DWORD PTR _i$[ebp]
	mov	ecx, DWORD PTR ?TeamInfo@@3PAPAVTeamClass@@A[edx*4]
	call	?SetCurrentStats@TeamClass@@QAEPAUTeamStatusType@@XZ ; TeamClass::SetCurrentStats
	xor	ecx, ecx
	mov	WORD PTR [eax+4], cx

; 2238 : 		TeamInfo[i]->SetCurrentStats()->ships = 0;

	mov	edx, DWORD PTR _i$[ebp]
	mov	ecx, DWORD PTR ?TeamInfo@@3PAPAVTeamClass@@A[edx*4]
	call	?SetCurrentStats@TeamClass@@QAEPAUTeamStatusType@@XZ ; TeamClass::SetCurrentStats
	xor	ecx, ecx
	mov	WORD PTR [eax+6], cx

; 2239 : 		TeamInfo[i]->SetCurrentStats()->supply = 0;

	mov	edx, DWORD PTR _i$[ebp]
	mov	ecx, DWORD PTR ?TeamInfo@@3PAPAVTeamClass@@A[edx*4]
	call	?SetCurrentStats@TeamClass@@QAEPAUTeamStatusType@@XZ ; TeamClass::SetCurrentStats
	xor	ecx, ecx
	mov	WORD PTR [eax+8], cx

; 2240 : 		TeamInfo[i]->SetCurrentStats()->fuel = 0;

	mov	edx, DWORD PTR _i$[ebp]
	mov	ecx, DWORD PTR ?TeamInfo@@3PAPAVTeamClass@@A[edx*4]
	call	?SetCurrentStats@TeamClass@@QAEPAUTeamStatusType@@XZ ; TeamClass::SetCurrentStats
	xor	ecx, ecx
	mov	WORD PTR [eax+10], cx

; 2241 : 		shave[i] = swant[i] = fhave[i] = fwant[i] = 0;

	mov	edx, DWORD PTR _i$[ebp]
	mov	DWORD PTR _fwant$[ebp+edx*4], 0
	mov	eax, DWORD PTR _i$[ebp]
	mov	DWORD PTR _fhave$[ebp+eax*4], 0
	mov	ecx, DWORD PTR _i$[ebp]
	mov	DWORD PTR _swant$[ebp+ecx*4], 0
	mov	edx, DWORD PTR _i$[ebp]
	mov	DWORD PTR _shave$[ebp+edx*4], 0

; 2242 : 	}

	jmp	$LN61@UpdateTeam
$LN60@UpdateTeam:

; 2243 : 
; 2244 : 	// Add units to count
; 2245 : 	{
; 2246 : 		VuListIterator	uit(AllUnitList);

	mov	eax, DWORD PTR ?AllUnitList@@3PAVVuLinkedList@@A ; AllUnitList
	push	eax
	lea	ecx, DWORD PTR _uit$4[ebp]
	call	??0VuListIterator@@QAE@PAVVuLinkedList@@@Z ; VuListIterator::VuListIterator
	mov	DWORD PTR __$EHRec$[ebp+8], 0

; 2247 : 		u = GetFirstUnit(&uit);

	lea	ecx, DWORD PTR _uit$4[ebp]
	push	ecx
	call	?GetFirstUnit@@YAPAVUnitClass@@PAVVuListIterator@@@Z ; GetFirstUnit
	add	esp, 4
	mov	DWORD PTR _u$[ebp], eax
$LN58@UpdateTeam:

; 2248 : 		while (u)

	cmp	DWORD PTR _u$[ebp], 0
	je	$LN57@UpdateTeam

; 2249 : 		{
; 2250 : 			// ALFREDs FIX - ignore brigades as they are counted already.
; 2251 : 			if (u->IsBrigade()) {

	mov	edx, DWORD PTR _u$[ebp]
	mov	eax, DWORD PTR [edx]
	mov	ecx, DWORD PTR _u$[ebp]
	mov	edx, DWORD PTR [eax+244]
	call	edx
	test	eax, eax
	je	SHORT $LN56@UpdateTeam

; 2252 : 				u = GetNextUnit(&uit);

	lea	eax, DWORD PTR _uit$4[ebp]
	push	eax
	call	?GetNextUnit@@YAPAVUnitClass@@PAVVuListIterator@@@Z ; GetNextUnit
	add	esp, 4
	mov	DWORD PTR _u$[ebp], eax

; 2253 : 				continue;

	jmp	SHORT $LN58@UpdateTeam
$LN56@UpdateTeam:

; 2254 : 			}
; 2255 : 
; 2256 : 			if (u->GetDomain() == DOMAIN_LAND)

	mov	ecx, DWORD PTR _u$[ebp]
	call	?GetDomain@CampBaseClass@@QBEEXZ	; CampBaseClass::GetDomain
	movzx	ecx, al
	cmp	ecx, 3
	jne	$LN55@UpdateTeam

; 2257 : 			{
; 2258 : 				if (u->GetUnitNormalRole() == GRO_AIRDEFENSE)

	mov	edx, DWORD PTR _u$[ebp]
	mov	eax, DWORD PTR [edx]
	mov	ecx, DWORD PTR _u$[ebp]
	mov	edx, DWORD PTR [eax+668]
	call	edx
	cmp	eax, 5
	jne	SHORT $LN54@UpdateTeam

; 2259 : 					TeamInfo[u->GetTeam()]->SetCurrentStats()->airDefenseVehs += u->GetTotalVehicles();

	mov	eax, DWORD PTR _u$[ebp]
	mov	edx, DWORD PTR [eax]
	mov	ecx, DWORD PTR _u$[ebp]
	mov	eax, DWORD PTR [edx+116]
	call	eax
	movzx	ecx, al
	mov	ecx, DWORD PTR ?TeamInfo@@3PAPAVTeamClass@@A[ecx*4]
	call	?SetCurrentStats@TeamClass@@QAEPAUTeamStatusType@@XZ ; TeamClass::SetCurrentStats
	mov	DWORD PTR tv186[ebp], eax
	mov	ecx, DWORD PTR _u$[ebp]
	call	?GetTotalVehicles@UnitClass@@QAEHXZ	; UnitClass::GetTotalVehicles
	mov	edx, DWORD PTR tv186[ebp]
	movzx	ecx, WORD PTR [edx]
	add	ecx, eax
	mov	edx, DWORD PTR tv186[ebp]
	mov	WORD PTR [edx], cx

; 2260 : 				else

	jmp	SHORT $LN53@UpdateTeam
$LN54@UpdateTeam:

; 2261 : 					TeamInfo[u->GetTeam()]->SetCurrentStats()->groundVehs += u->GetTotalVehicles();

	mov	eax, DWORD PTR _u$[ebp]
	mov	edx, DWORD PTR [eax]
	mov	ecx, DWORD PTR _u$[ebp]
	mov	eax, DWORD PTR [edx+116]
	call	eax
	movzx	ecx, al
	mov	ecx, DWORD PTR ?TeamInfo@@3PAPAVTeamClass@@A[ecx*4]
	call	?SetCurrentStats@TeamClass@@QAEPAUTeamStatusType@@XZ ; TeamClass::SetCurrentStats
	add	eax, 4
	mov	DWORD PTR tv206[ebp], eax
	mov	ecx, DWORD PTR _u$[ebp]
	call	?GetTotalVehicles@UnitClass@@QAEHXZ	; UnitClass::GetTotalVehicles
	mov	edx, DWORD PTR tv206[ebp]
	movzx	ecx, WORD PTR [edx]
	add	ecx, eax
	mov	edx, DWORD PTR tv206[ebp]
	mov	WORD PTR [edx], cx
$LN53@UpdateTeam:
	jmp	$LN52@UpdateTeam
$LN55@UpdateTeam:

; 2262 : 			}
; 2263 : 			else if (u->GetDomain() == DOMAIN_AIR)

	mov	ecx, DWORD PTR _u$[ebp]
	call	?GetDomain@CampBaseClass@@QBEEXZ	; CampBaseClass::GetDomain
	movzx	eax, al
	cmp	eax, 2
	jne	$LN51@UpdateTeam

; 2264 : 			{
; 2265 : 				// RV - Biker - Only count attack AC for statistic
; 2266 : 				if (u->GetType() == TYPE_SQUADRON &&
; 2267 : 			   		(u->GetSType() == STYPE_UNIT_ATTACK ||
; 2268 : 					u->GetSType() == STYPE_UNIT_ATTACK_HELO ||
; 2269 : 					u->GetSType() == STYPE_UNIT_BOMBER ||
; 2270 : 					u->GetSType() == STYPE_UNIT_FIGHTER ||
; 2271 : 					u->GetSType() == STYPE_UNIT_FIGHTER_BOMBER)) {

	mov	ecx, DWORD PTR _u$[ebp]
	call	?GetType@CampBaseClass@@QBEEXZ		; CampBaseClass::GetType
	movzx	ecx, al
	cmp	ecx, 3
	jne	$LN50@UpdateTeam
	mov	ecx, DWORD PTR _u$[ebp]
	call	?GetSType@CampBaseClass@@QBEEXZ		; CampBaseClass::GetSType
	movzx	edx, al
	cmp	edx, 3
	je	SHORT $LN49@UpdateTeam
	mov	ecx, DWORD PTR _u$[ebp]
	call	?GetSType@CampBaseClass@@QBEEXZ		; CampBaseClass::GetSType
	movzx	eax, al
	cmp	eax, 4
	je	SHORT $LN49@UpdateTeam
	mov	ecx, DWORD PTR _u$[ebp]
	call	?GetSType@CampBaseClass@@QBEEXZ		; CampBaseClass::GetSType
	movzx	ecx, al
	cmp	ecx, 6
	je	SHORT $LN49@UpdateTeam
	mov	ecx, DWORD PTR _u$[ebp]
	call	?GetSType@CampBaseClass@@QBEEXZ		; CampBaseClass::GetSType
	movzx	edx, al
	cmp	edx, 8
	je	SHORT $LN49@UpdateTeam
	mov	ecx, DWORD PTR _u$[ebp]
	call	?GetSType@CampBaseClass@@QBEEXZ		; CampBaseClass::GetSType
	movzx	eax, al
	cmp	eax, 9
	jne	$LN50@UpdateTeam
$LN49@UpdateTeam:

; 2272 : 					if (u->GetUnitAirbase() == NULL || u->GetSType() == STYPE_UNIT_ATTACK_HELO || !u->GetUnitAirbase()->IsObjective())

	mov	ecx, DWORD PTR _u$[ebp]
	mov	edx, DWORD PTR [ecx]
	mov	ecx, DWORD PTR _u$[ebp]
	mov	eax, DWORD PTR [edx+704]
	call	eax
	test	eax, eax
	je	SHORT $LN47@UpdateTeam
	mov	ecx, DWORD PTR _u$[ebp]
	call	?GetSType@CampBaseClass@@QBEEXZ		; CampBaseClass::GetSType
	movzx	ecx, al
	cmp	ecx, 4
	je	SHORT $LN47@UpdateTeam
	mov	edx, DWORD PTR _u$[ebp]
	mov	eax, DWORD PTR [edx]
	mov	ecx, DWORD PTR _u$[ebp]
	mov	edx, DWORD PTR [eax+704]
	call	edx
	mov	DWORD PTR tv288[ebp], eax
	mov	eax, DWORD PTR tv288[ebp]
	mov	edx, DWORD PTR [eax]
	mov	ecx, DWORD PTR tv288[ebp]
	mov	eax, DWORD PTR [edx+236]
	call	eax
	test	eax, eax
	jne	SHORT $LN48@UpdateTeam
$LN47@UpdateTeam:

; 2273 : 						TeamInfo[u->GetTeam()]->SetCurrentStats()->aircraft += u->GetTotalVehicles();

	mov	ecx, DWORD PTR _u$[ebp]
	mov	edx, DWORD PTR [ecx]
	mov	ecx, DWORD PTR _u$[ebp]
	mov	eax, DWORD PTR [edx+116]
	call	eax
	movzx	ecx, al
	mov	ecx, DWORD PTR ?TeamInfo@@3PAPAVTeamClass@@A[ecx*4]
	call	?SetCurrentStats@TeamClass@@QAEPAUTeamStatusType@@XZ ; TeamClass::SetCurrentStats
	add	eax, 2
	mov	DWORD PTR tv309[ebp], eax
	mov	ecx, DWORD PTR _u$[ebp]
	call	?GetTotalVehicles@UnitClass@@QAEHXZ	; UnitClass::GetTotalVehicles
	mov	edx, DWORD PTR tv309[ebp]
	movzx	ecx, WORD PTR [edx]
	add	ecx, eax
	mov	edx, DWORD PTR tv309[ebp]
	mov	WORD PTR [edx], cx

; 2274 : 					else {

	jmp	$LN50@UpdateTeam
$LN48@UpdateTeam:

; 2275 : 						Objective o = (Objective)u->GetUnitAirbase();

	mov	eax, DWORD PTR _u$[ebp]
	mov	edx, DWORD PTR [eax]
	mov	ecx, DWORD PTR _u$[ebp]
	mov	eax, DWORD PTR [edx+704]
	call	eax
	mov	DWORD PTR _o$5[ebp], eax

; 2276 : 						TeamInfo[u->GetTeam()]->SetCurrentStats()->aircraft += int(u->GetTotalVehicles()*o->GetObjectiveStatus()/100);

	mov	ecx, DWORD PTR _u$[ebp]
	mov	edx, DWORD PTR [ecx]
	mov	ecx, DWORD PTR _u$[ebp]
	mov	eax, DWORD PTR [edx+116]
	call	eax
	movzx	ecx, al
	mov	ecx, DWORD PTR ?TeamInfo@@3PAPAVTeamClass@@A[ecx*4]
	call	?SetCurrentStats@TeamClass@@QAEPAUTeamStatusType@@XZ ; TeamClass::SetCurrentStats
	add	eax, 2
	mov	DWORD PTR tv342[ebp], eax
	mov	ecx, DWORD PTR _u$[ebp]
	call	?GetTotalVehicles@UnitClass@@QAEHXZ	; UnitClass::GetTotalVehicles
	mov	esi, eax
	mov	ecx, DWORD PTR _o$5[ebp]
	call	?GetObjectiveStatus@ObjectiveClass@@QAEEXZ ; ObjectiveClass::GetObjectiveStatus
	movzx	edx, al
	imul	esi, edx
	mov	eax, esi
	cdq
	mov	ecx, 100				; 00000064H
	idiv	ecx
	mov	edx, DWORD PTR tv342[ebp]
	movzx	ecx, WORD PTR [edx]
	add	ecx, eax
	mov	edx, DWORD PTR tv342[ebp]
	mov	WORD PTR [edx], cx
$LN50@UpdateTeam:

; 2277 : 					}
; 2278 : 				}
; 2279 : 			}

	jmp	SHORT $LN52@UpdateTeam
$LN51@UpdateTeam:

; 2280 : 			else if (u->GetDomain() == DOMAIN_SEA)

	mov	ecx, DWORD PTR _u$[ebp]
	call	?GetDomain@CampBaseClass@@QBEEXZ	; CampBaseClass::GetDomain
	movzx	eax, al
	cmp	eax, 4
	jne	SHORT $LN52@UpdateTeam

; 2281 : 			{
; 2282 : 				TeamInfo[u->GetTeam()]->SetCurrentStats()->ships += u->GetTotalVehicles();

	mov	ecx, DWORD PTR _u$[ebp]
	mov	edx, DWORD PTR [ecx]
	mov	ecx, DWORD PTR _u$[ebp]
	mov	eax, DWORD PTR [edx+116]
	call	eax
	movzx	ecx, al
	mov	ecx, DWORD PTR ?TeamInfo@@3PAPAVTeamClass@@A[ecx*4]
	call	?SetCurrentStats@TeamClass@@QAEPAUTeamStatusType@@XZ ; TeamClass::SetCurrentStats
	add	eax, 6
	mov	DWORD PTR tv370[ebp], eax
	mov	ecx, DWORD PTR _u$[ebp]
	call	?GetTotalVehicles@UnitClass@@QAEHXZ	; UnitClass::GetTotalVehicles
	mov	edx, DWORD PTR tv370[ebp]
	movzx	ecx, WORD PTR [edx]
	add	ecx, eax
	mov	edx, DWORD PTR tv370[ebp]
	mov	WORD PTR [edx], cx
$LN52@UpdateTeam:

; 2283 : 			}
; 2284 : 			if (u->GetDomain() == DOMAIN_LAND || u->IsSquadron())

	mov	ecx, DWORD PTR _u$[ebp]
	call	?GetDomain@CampBaseClass@@QBEEXZ	; CampBaseClass::GetDomain
	movzx	eax, al
	cmp	eax, 3
	je	SHORT $LN42@UpdateTeam
	mov	ecx, DWORD PTR _u$[ebp]
	mov	edx, DWORD PTR [ecx]
	mov	ecx, DWORD PTR _u$[ebp]
	mov	eax, DWORD PTR [edx+252]
	call	eax
	test	eax, eax
	je	$LN43@UpdateTeam
$LN42@UpdateTeam:

; 2285 : 			{
; 2286 : 				i = u->GetTeam();

	mov	ecx, DWORD PTR _u$[ebp]
	mov	edx, DWORD PTR [ecx]
	mov	ecx, DWORD PTR _u$[ebp]
	mov	eax, DWORD PTR [edx+116]
	call	eax
	movzx	ecx, al
	mov	DWORD PTR _i$[ebp], ecx

; 2287 : 				ths = u->GetUnitSupplyNeed(TRUE);

	push	1
	mov	edx, DWORD PTR _u$[ebp]
	mov	eax, DWORD PTR [edx]
	mov	ecx, DWORD PTR _u$[ebp]
	mov	edx, DWORD PTR [eax+536]
	call	edx
	mov	DWORD PTR _ths$[ebp], eax

; 2288 : 				thf = u->GetUnitFuelNeed(TRUE);

	push	1
	mov	eax, DWORD PTR _u$[ebp]
	mov	edx, DWORD PTR [eax]
	mov	ecx, DWORD PTR _u$[ebp]
	mov	eax, DWORD PTR [edx+540]
	call	eax
	mov	DWORD PTR _thf$[ebp], eax

; 2289 : 				shave[i] += ths;

	mov	ecx, DWORD PTR _i$[ebp]
	mov	edx, DWORD PTR _shave$[ebp+ecx*4]
	add	edx, DWORD PTR _ths$[ebp]
	mov	eax, DWORD PTR _i$[ebp]
	mov	DWORD PTR _shave$[ebp+eax*4], edx

; 2290 : 				fhave[i] += thf;

	mov	ecx, DWORD PTR _i$[ebp]
	mov	edx, DWORD PTR _fhave$[ebp+ecx*4]
	add	edx, DWORD PTR _thf$[ebp]
	mov	eax, DWORD PTR _i$[ebp]
	mov	DWORD PTR _fhave$[ebp+eax*4], edx

; 2291 : 				swant[i] += ths + u->GetUnitSupplyNeed(FALSE);

	push	0
	mov	ecx, DWORD PTR _u$[ebp]
	mov	edx, DWORD PTR [ecx]
	mov	ecx, DWORD PTR _u$[ebp]
	mov	eax, DWORD PTR [edx+536]
	call	eax
	add	eax, DWORD PTR _ths$[ebp]
	mov	ecx, DWORD PTR _i$[ebp]
	add	eax, DWORD PTR _swant$[ebp+ecx*4]
	mov	edx, DWORD PTR _i$[ebp]
	mov	DWORD PTR _swant$[ebp+edx*4], eax

; 2292 : 				fwant[i] += thf + u->GetUnitFuelNeed(FALSE);

	push	0
	mov	eax, DWORD PTR _u$[ebp]
	mov	edx, DWORD PTR [eax]
	mov	ecx, DWORD PTR _u$[ebp]
	mov	eax, DWORD PTR [edx+540]
	call	eax
	add	eax, DWORD PTR _thf$[ebp]
	mov	ecx, DWORD PTR _i$[ebp]
	add	eax, DWORD PTR _fwant$[ebp+ecx*4]
	mov	edx, DWORD PTR _i$[ebp]
	mov	DWORD PTR _fwant$[ebp+edx*4], eax
$LN43@UpdateTeam:

; 2293 : 			}
; 2294 : 			u = GetNextUnit(&uit);

	lea	eax, DWORD PTR _uit$4[ebp]
	push	eax
	call	?GetNextUnit@@YAPAVUnitClass@@PAVVuListIterator@@@Z ; GetNextUnit
	add	esp, 4
	mov	DWORD PTR _u$[ebp], eax

; 2295 : 		}

	jmp	$LN58@UpdateTeam
$LN57@UpdateTeam:

; 2296 : 	}

	mov	DWORD PTR __$EHRec$[ebp+8], -1
	lea	ecx, DWORD PTR _uit$4[ebp]
	call	??1VuListIterator@@UAE@XZ		; VuListIterator::~VuListIterator

; 2297 : 
; 2298 : 	// If we havn't gotten a start score yet, set it.
; 2299 : 	for (i=0; i<NUM_TEAMS; i++)

	mov	DWORD PTR _i$[ebp], 0
	jmp	SHORT $LN41@UpdateTeam
$LN40@UpdateTeam:
	mov	ecx, DWORD PTR _i$[ebp]
	add	ecx, 1
	mov	DWORD PTR _i$[ebp], ecx
$LN41@UpdateTeam:
	cmp	DWORD PTR _i$[ebp], 8
	jge	$LN39@UpdateTeam

; 2300 : 	{
; 2301 : 		if (TeamInfo[i]->flags & TEAM_ACTIVE)

	mov	edx, DWORD PTR _i$[ebp]
	mov	eax, DWORD PTR ?TeamInfo@@3PAPAVTeamClass@@A[edx*4]
	movsx	ecx, WORD PTR [eax+350]
	and	ecx, 1
	je	$LN38@UpdateTeam

; 2302 : 		{
; 2303 : 			// Do supply and fuel
; 2304 : 			TeamInfo[i]->SetCurrentStats()->supply = TeamInfo[i]->GetSupplyAvail ();

	mov	edx, DWORD PTR _i$[ebp]
	mov	ecx, DWORD PTR ?TeamInfo@@3PAPAVTeamClass@@A[edx*4]
	call	?GetSupplyAvail@TeamClass@@QAEGXZ	; TeamClass::GetSupplyAvail
	mov	si, ax
	mov	eax, DWORD PTR _i$[ebp]
	mov	ecx, DWORD PTR ?TeamInfo@@3PAPAVTeamClass@@A[eax*4]
	call	?SetCurrentStats@TeamClass@@QAEPAUTeamStatusType@@XZ ; TeamClass::SetCurrentStats
	mov	WORD PTR [eax+8], si

; 2305 : 			TeamInfo[i]->SetCurrentStats()->fuel = TeamInfo[i]->GetFuelAvail ();

	mov	ecx, DWORD PTR _i$[ebp]
	mov	ecx, DWORD PTR ?TeamInfo@@3PAPAVTeamClass@@A[ecx*4]
	call	?GetFuelAvail@TeamClass@@QAEGXZ		; TeamClass::GetFuelAvail
	mov	si, ax
	mov	edx, DWORD PTR _i$[ebp]
	mov	ecx, DWORD PTR ?TeamInfo@@3PAPAVTeamClass@@A[edx*4]
	call	?SetCurrentStats@TeamClass@@QAEPAUTeamStatusType@@XZ ; TeamClass::SetCurrentStats
	mov	WORD PTR [eax+10], si

; 2306 : 
; 2307 : 			if (TeamInfo[i]->startStats.airDefenseVehs < TeamInfo[i]->GetCurrentStats()->airDefenseVehs)

	mov	eax, DWORD PTR _i$[ebp]
	mov	ecx, DWORD PTR ?TeamInfo@@3PAPAVTeamClass@@A[eax*4]
	movzx	esi, WORD PTR [ecx+616]
	mov	edx, DWORD PTR _i$[ebp]
	mov	ecx, DWORD PTR ?TeamInfo@@3PAPAVTeamClass@@A[edx*4]
	call	?GetCurrentStats@TeamClass@@QAEPAUTeamStatusType@@XZ ; TeamClass::GetCurrentStats
	movzx	eax, WORD PTR [eax]
	cmp	esi, eax
	jge	SHORT $LN37@UpdateTeam

; 2308 : 				TeamInfo[i]->startStats.airDefenseVehs = TeamInfo[i]->GetCurrentStats()->airDefenseVehs;

	mov	ecx, DWORD PTR _i$[ebp]
	mov	ecx, DWORD PTR ?TeamInfo@@3PAPAVTeamClass@@A[ecx*4]
	call	?GetCurrentStats@TeamClass@@QAEPAUTeamStatusType@@XZ ; TeamClass::GetCurrentStats
	mov	edx, DWORD PTR _i$[ebp]
	mov	ecx, DWORD PTR ?TeamInfo@@3PAPAVTeamClass@@A[edx*4]
	mov	dx, WORD PTR [eax]
	mov	WORD PTR [ecx+616], dx
$LN37@UpdateTeam:

; 2309 : 			if (TeamInfo[i]->startStats.aircraft < TeamInfo[i]->GetCurrentStats()->aircraft)

	mov	eax, DWORD PTR _i$[ebp]
	mov	ecx, DWORD PTR ?TeamInfo@@3PAPAVTeamClass@@A[eax*4]
	movzx	esi, WORD PTR [ecx+618]
	mov	edx, DWORD PTR _i$[ebp]
	mov	ecx, DWORD PTR ?TeamInfo@@3PAPAVTeamClass@@A[edx*4]
	call	?GetCurrentStats@TeamClass@@QAEPAUTeamStatusType@@XZ ; TeamClass::GetCurrentStats
	movzx	eax, WORD PTR [eax+2]
	cmp	esi, eax
	jge	SHORT $LN36@UpdateTeam

; 2310 : 				TeamInfo[i]->startStats.aircraft = TeamInfo[i]->GetCurrentStats()->aircraft;

	mov	ecx, DWORD PTR _i$[ebp]
	mov	ecx, DWORD PTR ?TeamInfo@@3PAPAVTeamClass@@A[ecx*4]
	call	?GetCurrentStats@TeamClass@@QAEPAUTeamStatusType@@XZ ; TeamClass::GetCurrentStats
	mov	edx, DWORD PTR _i$[ebp]
	mov	ecx, DWORD PTR ?TeamInfo@@3PAPAVTeamClass@@A[edx*4]
	mov	dx, WORD PTR [eax+2]
	mov	WORD PTR [ecx+618], dx
$LN36@UpdateTeam:

; 2311 : 			if (TeamInfo[i]->startStats.groundVehs < TeamInfo[i]->GetCurrentStats()->groundVehs)

	mov	eax, DWORD PTR _i$[ebp]
	mov	ecx, DWORD PTR ?TeamInfo@@3PAPAVTeamClass@@A[eax*4]
	movzx	esi, WORD PTR [ecx+620]
	mov	edx, DWORD PTR _i$[ebp]
	mov	ecx, DWORD PTR ?TeamInfo@@3PAPAVTeamClass@@A[edx*4]
	call	?GetCurrentStats@TeamClass@@QAEPAUTeamStatusType@@XZ ; TeamClass::GetCurrentStats
	movzx	eax, WORD PTR [eax+4]
	cmp	esi, eax
	jge	SHORT $LN35@UpdateTeam

; 2312 : 				TeamInfo[i]->startStats.groundVehs = TeamInfo[i]->GetCurrentStats()->groundVehs;

	mov	ecx, DWORD PTR _i$[ebp]
	mov	ecx, DWORD PTR ?TeamInfo@@3PAPAVTeamClass@@A[ecx*4]
	call	?GetCurrentStats@TeamClass@@QAEPAUTeamStatusType@@XZ ; TeamClass::GetCurrentStats
	mov	edx, DWORD PTR _i$[ebp]
	mov	ecx, DWORD PTR ?TeamInfo@@3PAPAVTeamClass@@A[edx*4]
	mov	dx, WORD PTR [eax+4]
	mov	WORD PTR [ecx+620], dx
$LN35@UpdateTeam:

; 2313 : 			if (TeamInfo[i]->startStats.ships < TeamInfo[i]->GetCurrentStats()->ships)

	mov	eax, DWORD PTR _i$[ebp]
	mov	ecx, DWORD PTR ?TeamInfo@@3PAPAVTeamClass@@A[eax*4]
	movzx	esi, WORD PTR [ecx+622]
	mov	edx, DWORD PTR _i$[ebp]
	mov	ecx, DWORD PTR ?TeamInfo@@3PAPAVTeamClass@@A[edx*4]
	call	?GetCurrentStats@TeamClass@@QAEPAUTeamStatusType@@XZ ; TeamClass::GetCurrentStats
	movzx	eax, WORD PTR [eax+6]
	cmp	esi, eax
	jge	SHORT $LN34@UpdateTeam

; 2314 : 				TeamInfo[i]->startStats.ships = TeamInfo[i]->GetCurrentStats()->ships;

	mov	ecx, DWORD PTR _i$[ebp]
	mov	ecx, DWORD PTR ?TeamInfo@@3PAPAVTeamClass@@A[ecx*4]
	call	?GetCurrentStats@TeamClass@@QAEPAUTeamStatusType@@XZ ; TeamClass::GetCurrentStats
	mov	edx, DWORD PTR _i$[ebp]
	mov	ecx, DWORD PTR ?TeamInfo@@3PAPAVTeamClass@@A[edx*4]
	mov	dx, WORD PTR [eax+6]
	mov	WORD PTR [ecx+622], dx
$LN34@UpdateTeam:

; 2315 : 			if (TeamInfo[i]->startStats.supply < TeamInfo[i]->GetCurrentStats()->supply)

	mov	eax, DWORD PTR _i$[ebp]
	mov	ecx, DWORD PTR ?TeamInfo@@3PAPAVTeamClass@@A[eax*4]
	movzx	esi, WORD PTR [ecx+624]
	mov	edx, DWORD PTR _i$[ebp]
	mov	ecx, DWORD PTR ?TeamInfo@@3PAPAVTeamClass@@A[edx*4]
	call	?GetCurrentStats@TeamClass@@QAEPAUTeamStatusType@@XZ ; TeamClass::GetCurrentStats
	movzx	eax, WORD PTR [eax+8]
	cmp	esi, eax
	jge	SHORT $LN33@UpdateTeam

; 2316 : 				TeamInfo[i]->startStats.supply = TeamInfo[i]->GetCurrentStats()->supply;

	mov	ecx, DWORD PTR _i$[ebp]
	mov	ecx, DWORD PTR ?TeamInfo@@3PAPAVTeamClass@@A[ecx*4]
	call	?GetCurrentStats@TeamClass@@QAEPAUTeamStatusType@@XZ ; TeamClass::GetCurrentStats
	mov	edx, DWORD PTR _i$[ebp]
	mov	ecx, DWORD PTR ?TeamInfo@@3PAPAVTeamClass@@A[edx*4]
	mov	dx, WORD PTR [eax+8]
	mov	WORD PTR [ecx+624], dx
$LN33@UpdateTeam:

; 2317 : 			if (TeamInfo[i]->startStats.fuel < TeamInfo[i]->GetCurrentStats()->fuel)

	mov	eax, DWORD PTR _i$[ebp]
	mov	ecx, DWORD PTR ?TeamInfo@@3PAPAVTeamClass@@A[eax*4]
	movzx	esi, WORD PTR [ecx+626]
	mov	edx, DWORD PTR _i$[ebp]
	mov	ecx, DWORD PTR ?TeamInfo@@3PAPAVTeamClass@@A[edx*4]
	call	?GetCurrentStats@TeamClass@@QAEPAUTeamStatusType@@XZ ; TeamClass::GetCurrentStats
	movzx	eax, WORD PTR [eax+10]
	cmp	esi, eax
	jge	SHORT $LN32@UpdateTeam

; 2318 : 				TeamInfo[i]->startStats.fuel = TeamInfo[i]->GetCurrentStats()->fuel;

	mov	ecx, DWORD PTR _i$[ebp]
	mov	ecx, DWORD PTR ?TeamInfo@@3PAPAVTeamClass@@A[ecx*4]
	call	?GetCurrentStats@TeamClass@@QAEPAUTeamStatusType@@XZ ; TeamClass::GetCurrentStats
	mov	edx, DWORD PTR _i$[ebp]
	mov	ecx, DWORD PTR ?TeamInfo@@3PAPAVTeamClass@@A[edx*4]
	mov	dx, WORD PTR [eax+10]
	mov	WORD PTR [ecx+626], dx
$LN32@UpdateTeam:

; 2319 : 			if (TeamInfo[i]->startStats.airbases < TeamInfo[i]->GetCurrentStats()->airbases)

	mov	eax, DWORD PTR _i$[ebp]
	mov	ecx, DWORD PTR ?TeamInfo@@3PAPAVTeamClass@@A[eax*4]
	movzx	esi, WORD PTR [ecx+628]
	mov	edx, DWORD PTR _i$[ebp]
	mov	ecx, DWORD PTR ?TeamInfo@@3PAPAVTeamClass@@A[edx*4]
	call	?GetCurrentStats@TeamClass@@QAEPAUTeamStatusType@@XZ ; TeamClass::GetCurrentStats
	movzx	eax, WORD PTR [eax+12]
	cmp	esi, eax
	jge	SHORT $LN31@UpdateTeam

; 2320 : 				TeamInfo[i]->startStats.airbases = TeamInfo[i]->GetCurrentStats()->airbases;

	mov	ecx, DWORD PTR _i$[ebp]
	mov	ecx, DWORD PTR ?TeamInfo@@3PAPAVTeamClass@@A[ecx*4]
	call	?GetCurrentStats@TeamClass@@QAEPAUTeamStatusType@@XZ ; TeamClass::GetCurrentStats
	mov	edx, DWORD PTR _i$[ebp]
	mov	ecx, DWORD PTR ?TeamInfo@@3PAPAVTeamClass@@A[edx*4]
	mov	dx, WORD PTR [eax+12]
	mov	WORD PTR [ecx+628], dx
$LN31@UpdateTeam:

; 2321 : 			// A.S. 2001-12-09 
; 2322 : 			if (!NewInitiativePoints) // The new procedure NewInitiativePointSetting does the job.

	cmp	DWORD PTR ?NewInitiativePoints@@3HA, 0	; NewInitiativePoints
	jne	$LN30@UpdateTeam

; 2323 : 			{
; 2324 : 				// same as old code 
; 2325 : 				if (TeamInfo[i]->GetInitiative() < 40)

	mov	eax, DWORD PTR _i$[ebp]
	mov	ecx, DWORD PTR ?TeamInfo@@3PAPAVTeamClass@@A[eax*4]
	call	?GetInitiative@TeamClass@@QAEFXZ	; TeamClass::GetInitiative
	movsx	ecx, ax
	cmp	ecx, 40					; 00000028H
	jge	SHORT $LN29@UpdateTeam

; 2326 : 					TeamInfo[i]->AddInitiative ((INITIATIVE_LEAK_PER_HOUR * MIN_RECALCULATE_STATISTICS) / 60);

	movsx	eax, WORD PTR ?INITIATIVE_LEAK_PER_HOUR@@3FA ; INITIATIVE_LEAK_PER_HOUR
	movsx	edx, WORD PTR ?MIN_RECALCULATE_STATISTICS@@3FA ; MIN_RECALCULATE_STATISTICS
	imul	eax, edx
	cdq
	mov	ecx, 60					; 0000003cH
	idiv	ecx
	push	eax
	mov	edx, DWORD PTR _i$[ebp]
	mov	ecx, DWORD PTR ?TeamInfo@@3PAPAVTeamClass@@A[edx*4]
	call	?AddInitiative@TeamClass@@QAEXF@Z	; TeamClass::AddInitiative
	jmp	SHORT $LN30@UpdateTeam
$LN29@UpdateTeam:

; 2327 : 				else if (TeamInfo[i]->GetInitiative() < 60)

	mov	eax, DWORD PTR _i$[ebp]
	mov	ecx, DWORD PTR ?TeamInfo@@3PAPAVTeamClass@@A[eax*4]
	call	?GetInitiative@TeamClass@@QAEFXZ	; TeamClass::GetInitiative
	movsx	ecx, ax
	cmp	ecx, 60					; 0000003cH
	jge	SHORT $LN30@UpdateTeam

; 2328 : 					TeamInfo[i]->AddInitiative (-(INITIATIVE_LEAK_PER_HOUR * MIN_RECALCULATE_STATISTICS) / 60);

	movsx	eax, WORD PTR ?INITIATIVE_LEAK_PER_HOUR@@3FA ; INITIATIVE_LEAK_PER_HOUR
	movsx	edx, WORD PTR ?MIN_RECALCULATE_STATISTICS@@3FA ; MIN_RECALCULATE_STATISTICS
	imul	eax, edx
	neg	eax
	cdq
	mov	ecx, 60					; 0000003cH
	idiv	ecx
	push	eax
	mov	edx, DWORD PTR _i$[ebp]
	mov	ecx, DWORD PTR ?TeamInfo@@3PAPAVTeamClass@@A[edx*4]
	call	?AddInitiative@TeamClass@@QAEXF@Z	; TeamClass::AddInitiative
$LN30@UpdateTeam:

; 2329 : 			}  
; 2330 : 			// end section	
; 2331 : 
; 2332 : 			/* A.S.
; 2333 : 			// +++ old code +++ begin
; 2334 : 			// Adjust initiative
; 2335 : 			if (TeamInfo[i]->GetInitiative() < 40)
; 2336 : 			TeamInfo[i]->AddInitiative ((INITIATIVE_LEAK_PER_HOUR * MIN_RECALCULATE_STATISTICS) / 60);
; 2337 : 			else if (TeamInfo[i]->GetInitiative() < 60)
; 2338 : 			TeamInfo[i]->AddInitiative (-(INITIATIVE_LEAK_PER_HOUR * MIN_RECALCULATE_STATISTICS) / 60);
; 2339 : 			// +++ old code +++ end
; 2340 : 			 */
; 2341 : 
; 2342 : 			// Calculate current supply percentages
; 2343 : 			if (swant[i])

	mov	eax, DWORD PTR _i$[ebp]
	cmp	DWORD PTR _swant$[ebp+eax*4], 0
	je	SHORT $LN26@UpdateTeam

; 2344 : 				TeamInfo[i]->SetCurrentStats()->supplyLevel = shave[i]*100/swant[i];

	mov	ecx, DWORD PTR _i$[ebp]
	mov	eax, DWORD PTR _shave$[ebp+ecx*4]
	imul	eax, 100				; 00000064H
	mov	ecx, DWORD PTR _i$[ebp]
	cdq
	idiv	DWORD PTR _swant$[ebp+ecx*4]
	mov	ebx, eax
	mov	edx, DWORD PTR _i$[ebp]
	mov	ecx, DWORD PTR ?TeamInfo@@3PAPAVTeamClass@@A[edx*4]
	call	?SetCurrentStats@TeamClass@@QAEPAUTeamStatusType@@XZ ; TeamClass::SetCurrentStats
	mov	BYTE PTR [eax+14], bl
	jmp	SHORT $LN25@UpdateTeam
$LN26@UpdateTeam:

; 2345 : 			else if (shave[i])

	mov	eax, DWORD PTR _i$[ebp]
	cmp	DWORD PTR _shave$[ebp+eax*4], 0
	je	SHORT $LN24@UpdateTeam

; 2346 : 				TeamInfo[i]->SetCurrentStats()->supplyLevel = 100;

	mov	ecx, DWORD PTR _i$[ebp]
	mov	ecx, DWORD PTR ?TeamInfo@@3PAPAVTeamClass@@A[ecx*4]
	call	?SetCurrentStats@TeamClass@@QAEPAUTeamStatusType@@XZ ; TeamClass::SetCurrentStats
	mov	BYTE PTR [eax+14], 100			; 00000064H

; 2347 : 			else

	jmp	SHORT $LN25@UpdateTeam
$LN24@UpdateTeam:

; 2348 : 				TeamInfo[i]->SetCurrentStats()->supplyLevel = 0;

	mov	edx, DWORD PTR _i$[ebp]
	mov	ecx, DWORD PTR ?TeamInfo@@3PAPAVTeamClass@@A[edx*4]
	call	?SetCurrentStats@TeamClass@@QAEPAUTeamStatusType@@XZ ; TeamClass::SetCurrentStats
	mov	BYTE PTR [eax+14], 0
$LN25@UpdateTeam:

; 2349 : 			if (fwant[i])

	mov	eax, DWORD PTR _i$[ebp]
	cmp	DWORD PTR _fwant$[ebp+eax*4], 0
	je	SHORT $LN22@UpdateTeam

; 2350 : 				TeamInfo[i]->SetCurrentStats()->fuelLevel = fhave[i]*100/fwant[i];

	mov	ecx, DWORD PTR _i$[ebp]
	mov	eax, DWORD PTR _fhave$[ebp+ecx*4]
	imul	eax, 100				; 00000064H
	mov	ecx, DWORD PTR _i$[ebp]
	cdq
	idiv	DWORD PTR _fwant$[ebp+ecx*4]
	mov	ebx, eax
	mov	edx, DWORD PTR _i$[ebp]
	mov	ecx, DWORD PTR ?TeamInfo@@3PAPAVTeamClass@@A[edx*4]
	call	?SetCurrentStats@TeamClass@@QAEPAUTeamStatusType@@XZ ; TeamClass::SetCurrentStats
	mov	BYTE PTR [eax+15], bl
	jmp	SHORT $LN21@UpdateTeam
$LN22@UpdateTeam:

; 2351 : 			else if (fhave[i])

	mov	eax, DWORD PTR _i$[ebp]
	cmp	DWORD PTR _fhave$[ebp+eax*4], 0
	je	SHORT $LN20@UpdateTeam

; 2352 : 				TeamInfo[i]->SetCurrentStats()->fuelLevel = 100;

	mov	ecx, DWORD PTR _i$[ebp]
	mov	ecx, DWORD PTR ?TeamInfo@@3PAPAVTeamClass@@A[ecx*4]
	call	?SetCurrentStats@TeamClass@@QAEPAUTeamStatusType@@XZ ; TeamClass::SetCurrentStats
	mov	BYTE PTR [eax+15], 100			; 00000064H

; 2353 : 			else

	jmp	SHORT $LN21@UpdateTeam
$LN20@UpdateTeam:

; 2354 : 				TeamInfo[i]->SetCurrentStats()->fuelLevel = 0;

	mov	edx, DWORD PTR _i$[ebp]
	mov	ecx, DWORD PTR ?TeamInfo@@3PAPAVTeamClass@@A[edx*4]
	call	?SetCurrentStats@TeamClass@@QAEPAUTeamStatusType@@XZ ; TeamClass::SetCurrentStats
	mov	BYTE PTR [eax+15], 0
$LN21@UpdateTeam:

; 2355 : 		}
; 2356 : 		else

	jmp	SHORT $LN18@UpdateTeam
$LN38@UpdateTeam:

; 2357 : 		{
; 2358 : 			// Mark as non-existant
; 2359 : 			TeamInfo[i]->SetCurrentStats()->supplyLevel = 255;

	mov	eax, DWORD PTR _i$[ebp]
	mov	ecx, DWORD PTR ?TeamInfo@@3PAPAVTeamClass@@A[eax*4]
	call	?SetCurrentStats@TeamClass@@QAEPAUTeamStatusType@@XZ ; TeamClass::SetCurrentStats
	mov	BYTE PTR [eax+14], 255			; 000000ffH
$LN18@UpdateTeam:

; 2360 : 		}
; 2361 : 	}

	jmp	$LN40@UpdateTeam
$LN39@UpdateTeam:

; 2362 : 
; 2363 : 	if (FalconLocalSession->GetTeam() < NUM_TEAMS)

	mov	ecx, OFFSET ?vuLocalSessionEntity@@3V?$VuBin@VVuSessionEntity@@@@A ; vuLocalSessionEntity
	call	?get@?$VuBin@VVuSessionEntity@@@@QBEPAVVuSessionEntity@@XZ ; VuBin<VuSessionEntity>::get
	mov	ecx, eax
	call	?GetTeam@FalconSessionEntity@@QAEEXZ	; FalconSessionEntity::GetTeam
	movzx	ecx, al
	cmp	ecx, 8
	jge	SHORT $LN17@UpdateTeam

; 2364 : 		GetTeamSituation (FalconLocalSession->GetTeam());

	mov	ecx, OFFSET ?vuLocalSessionEntity@@3V?$VuBin@VVuSessionEntity@@@@A ; vuLocalSessionEntity
	call	?get@?$VuBin@VVuSessionEntity@@@@QBEPAVVuSessionEntity@@XZ ; VuBin<VuSessionEntity>::get
	mov	ecx, eax
	call	?GetTeam@FalconSessionEntity@@QAEEXZ	; FalconSessionEntity::GetTeam
	movzx	edx, al
	push	edx
	call	?GetTeamSituation@@YAHE@Z		; GetTeamSituation
	add	esp, 4
$LN17@UpdateTeam:

; 2365 : 
; 2366 : 	// A.S. 2001-12-09. Call of the new initiative points procedure
; 2367 : 	if (NewInitiativePoints)   

	cmp	DWORD PTR ?NewInitiativePoints@@3HA, 0	; NewInitiativePoints
	je	SHORT $LN16@UpdateTeam

; 2368 : 		NewInitiativePointSetting(FalconLocalSession->GetTeam());  

	mov	ecx, OFFSET ?vuLocalSessionEntity@@3V?$VuBin@VVuSessionEntity@@@@A ; vuLocalSessionEntity
	call	?get@?$VuBin@VVuSessionEntity@@@@QBEPAVVuSessionEntity@@XZ ; VuBin<VuSessionEntity>::get
	mov	ecx, eax
	call	?GetTeam@FalconSessionEntity@@QAEEXZ	; FalconSessionEntity::GetTeam
	movzx	eax, al
	push	eax
	call	?NewInitiativePointSetting@@YAXE@Z	; NewInitiativePointSetting
	add	esp, 4
$LN16@UpdateTeam:

; 2369 : 	// end added section
; 2370 : 
; 2371 : 	// Write data to file
; 2372 : 	CampaignTime	timestamp;
; 2373 : 	FILE			*fp;
; 2374 : 	short			d,count;
; 2375 : 	UnitHistoryType	hist;
; 2376 : 
; 2377 : 	// SPLIT SAVE FILE into 2 FILES SO I DON'T HAVE TO READ & DISCARD A BUNCH OF DATA
; 2378 : 	// Teaminfo => .frc
; 2379 : 	// History  => .his
; 2380 : 	// PJW
; 2381 : 
; 2382 : 	CampEnterCriticalSection();

	call	?CampEnterCriticalSection@@YAXXZ	; CampEnterCriticalSection

; 2383 : 	TheCampaign.TimeStamp++;

	mov	cx, WORD PTR ?TheCampaign@@3VCampaignClass@@A+70
	add	cx, 1
	mov	WORD PTR ?TheCampaign@@3VCampaignClass@@A+70, cx

; 2384 : 	if (TheCampaign.TimeStamp > 24)

	movsx	edx, WORD PTR ?TheCampaign@@3VCampaignClass@@A+70
	cmp	edx, 24					; 00000018H
	jle	SHORT $LN15@UpdateTeam

; 2385 : 		TheCampaign.TimeStamp = 0;

	xor	eax, eax
	mov	WORD PTR ?TheCampaign@@3VCampaignClass@@A+70, ax
$LN15@UpdateTeam:

; 2386 : 	fp = OpenCampFile("tmp","frc","ab");

	push	OFFSET ??_C@_02BOGAIONP@ab?$AA@
	push	OFFSET ??_C@_03NJFDAMGG@frc?$AA@
	push	OFFSET ??_C@_03FFNGDGKN@tmp?$AA@
	call	?OpenCampFile@@YAPAU_iobuf@@PAD00@Z	; OpenCampFile
	add	esp, 12					; 0000000cH
	mov	DWORD PTR _fp$[ebp], eax

; 2387 : 	if (fp)

	cmp	DWORD PTR _fp$[ebp], 0
	je	$LN14@UpdateTeam

; 2388 : 	{
; 2389 : 		fseek(fp,0,SEEK_END);

	push	2
	push	0
	mov	ecx, DWORD PTR _fp$[ebp]
	push	ecx
	call	_fseek
	add	esp, 12					; 0000000cH

; 2390 : 		timestamp = Camp_GetCurrentTime();

	call	?Camp_GetCurrentTime@@YAKXZ		; Camp_GetCurrentTime
	mov	DWORD PTR _timestamp$[ebp], eax

; 2391 : 		fwrite(&timestamp,sizeof(CampaignTime),1,fp);

	mov	edx, DWORD PTR _fp$[ebp]
	push	edx
	push	1
	push	4
	lea	eax, DWORD PTR _timestamp$[ebp]
	push	eax
	call	_fwrite
	add	esp, 16					; 00000010H

; 2392 : 		d = NUM_TEAMS;

	mov	ecx, 8
	mov	WORD PTR _d$[ebp], cx

; 2393 : 		fwrite(&d,sizeof(short),1,fp);

	mov	edx, DWORD PTR _fp$[ebp]
	push	edx
	push	1
	push	2
	lea	eax, DWORD PTR _d$[ebp]
	push	eax
	call	_fwrite
	add	esp, 16					; 00000010H

; 2394 : 		for (i=0; i<NUM_TEAMS; i++)

	mov	DWORD PTR _i$[ebp], 0
	jmp	SHORT $LN13@UpdateTeam
$LN12@UpdateTeam:
	mov	ecx, DWORD PTR _i$[ebp]
	add	ecx, 1
	mov	DWORD PTR _i$[ebp], ecx
$LN13@UpdateTeam:
	cmp	DWORD PTR _i$[ebp], 8
	jge	SHORT $LN11@UpdateTeam

; 2395 : 			fwrite(TeamInfo[i]->SetCurrentStats(),sizeof(TeamStatusType),1,fp);

	mov	edx, DWORD PTR _fp$[ebp]
	push	edx
	push	1
	push	16					; 00000010H
	mov	eax, DWORD PTR _i$[ebp]
	mov	ecx, DWORD PTR ?TeamInfo@@3PAPAVTeamClass@@A[eax*4]
	call	?SetCurrentStats@TeamClass@@QAEPAUTeamStatusType@@XZ ; TeamClass::SetCurrentStats
	push	eax
	call	_fwrite
	add	esp, 16					; 00000010H
	jmp	SHORT $LN12@UpdateTeam
$LN11@UpdateTeam:

; 2396 : 		CloseCampFile(fp);

	mov	ecx, DWORD PTR _fp$[ebp]
	push	ecx
	call	?CloseCampFile@@YAXPAU_iobuf@@@Z	; CloseCampFile
	add	esp, 4
$LN14@UpdateTeam:

; 2397 : 	}
; 2398 : 
; 2399 : 	fp = OpenCampFile("tmp","his","ab");

	push	OFFSET ??_C@_02BOGAIONP@ab?$AA@
	push	OFFSET ??_C@_03GDDNCFJF@his?$AA@
	push	OFFSET ??_C@_03FFNGDGKN@tmp?$AA@
	call	?OpenCampFile@@YAPAU_iobuf@@PAD00@Z	; OpenCampFile
	add	esp, 12					; 0000000cH
	mov	DWORD PTR _fp$[ebp], eax

; 2400 : 	if (fp)

	cmp	DWORD PTR _fp$[ebp], 0
	je	$LN10@UpdateTeam

; 2401 : 	{
; 2402 : 		fseek(fp,0,SEEK_END);

	push	2
	push	0
	mov	edx, DWORD PTR _fp$[ebp]
	push	edx
	call	_fseek
	add	esp, 12					; 0000000cH

; 2403 : 		timestamp = Camp_GetCurrentTime();

	call	?Camp_GetCurrentTime@@YAKXZ		; Camp_GetCurrentTime
	mov	DWORD PTR _timestamp$[ebp], eax

; 2404 : 		fwrite(&timestamp,sizeof(CampaignTime),1,fp);

	mov	eax, DWORD PTR _fp$[ebp]
	push	eax
	push	1
	push	4
	lea	ecx, DWORD PTR _timestamp$[ebp]
	push	ecx
	call	_fwrite
	add	esp, 16					; 00000010H

; 2405 : 		// Count brigades and write to file
; 2406 : 		count = 0;

	xor	edx, edx
	mov	WORD PTR _count$[ebp], dx

; 2407 : 		{
; 2408 : 			VuListIterator	uit(AllUnitList);

	mov	eax, DWORD PTR ?AllUnitList@@3PAVVuLinkedList@@A ; AllUnitList
	push	eax
	lea	ecx, DWORD PTR _uit$3[ebp]
	call	??0VuListIterator@@QAE@PAVVuLinkedList@@@Z ; VuListIterator::VuListIterator
	mov	DWORD PTR __$EHRec$[ebp+8], 1

; 2409 : 			u = GetFirstUnit(&uit);

	lea	ecx, DWORD PTR _uit$3[ebp]
	push	ecx
	call	?GetFirstUnit@@YAPAVUnitClass@@PAVVuListIterator@@@Z ; GetFirstUnit
	add	esp, 4
	mov	DWORD PTR _u$[ebp], eax
$LN9@UpdateTeam:

; 2410 : 			while (u)

	cmp	DWORD PTR _u$[ebp], 0
	je	SHORT $LN8@UpdateTeam

; 2411 : 			{
; 2412 : 				if (u->IsBattalion())

	mov	edx, DWORD PTR _u$[ebp]
	mov	eax, DWORD PTR [edx]
	mov	ecx, DWORD PTR _u$[ebp]
	mov	edx, DWORD PTR [eax+240]
	call	edx
	test	eax, eax
	je	SHORT $LN7@UpdateTeam

; 2413 : 					count++;

	mov	ax, WORD PTR _count$[ebp]
	add	ax, 1
	mov	WORD PTR _count$[ebp], ax
$LN7@UpdateTeam:

; 2414 : 				u = GetNextUnit(&uit);

	lea	ecx, DWORD PTR _uit$3[ebp]
	push	ecx
	call	?GetNextUnit@@YAPAVUnitClass@@PAVVuListIterator@@@Z ; GetNextUnit
	add	esp, 4
	mov	DWORD PTR _u$[ebp], eax

; 2415 : 			}

	jmp	SHORT $LN9@UpdateTeam
$LN8@UpdateTeam:

; 2416 : 		}

	mov	DWORD PTR __$EHRec$[ebp+8], -1
	lea	ecx, DWORD PTR _uit$3[ebp]
	call	??1VuListIterator@@UAE@XZ		; VuListIterator::~VuListIterator

; 2417 : 
; 2418 : 		fwrite(&count,sizeof(short),1,fp);

	mov	edx, DWORD PTR _fp$[ebp]
	push	edx
	push	1
	push	2
	lea	eax, DWORD PTR _count$[ebp]
	push	eax
	call	_fwrite
	add	esp, 16					; 00000010H

; 2419 : 		{
; 2420 : 			VuListIterator	uit(AllUnitList);

	mov	ecx, DWORD PTR ?AllUnitList@@3PAVVuLinkedList@@A ; AllUnitList
	push	ecx
	lea	ecx, DWORD PTR _uit$2[ebp]
	call	??0VuListIterator@@QAE@PAVVuLinkedList@@@Z ; VuListIterator::VuListIterator
	mov	DWORD PTR __$EHRec$[ebp+8], 2

; 2421 : 			u = GetFirstUnit(&uit);

	lea	edx, DWORD PTR _uit$2[ebp]
	push	edx
	call	?GetFirstUnit@@YAPAVUnitClass@@PAVVuListIterator@@@Z ; GetFirstUnit
	add	esp, 4
	mov	DWORD PTR _u$[ebp], eax
$LN6@UpdateTeam:

; 2422 : 			while (u)

	cmp	DWORD PTR _u$[ebp], 0
	je	$LN5@UpdateTeam

; 2423 : 			{
; 2424 : 				if (u->IsBattalion())

	mov	eax, DWORD PTR _u$[ebp]
	mov	edx, DWORD PTR [eax]
	mov	ecx, DWORD PTR _u$[ebp]
	mov	eax, DWORD PTR [edx+240]
	call	eax
	test	eax, eax
	je	SHORT $LN4@UpdateTeam

; 2425 : 				{
; 2426 : 					u->GetLocation(&hist.x,&hist.y);

	lea	ecx, DWORD PTR _hist$[ebp+3]
	push	ecx
	lea	edx, DWORD PTR _hist$[ebp+1]
	push	edx
	mov	ecx, DWORD PTR _u$[ebp]
	call	?GetLocation@FalconEntity@@QBEXPAF0@Z	; FalconEntity::GetLocation

; 2427 : 					hist.team = u->GetTeam();

	mov	eax, DWORD PTR _u$[ebp]
	mov	edx, DWORD PTR [eax]
	mov	ecx, DWORD PTR _u$[ebp]
	mov	eax, DWORD PTR [edx+116]
	call	eax
	mov	BYTE PTR _hist$[ebp], al

; 2428 : 					fwrite(&hist,sizeof(UnitHistoryType),1,fp);

	mov	ecx, DWORD PTR _fp$[ebp]
	push	ecx
	push	1
	push	5
	lea	edx, DWORD PTR _hist$[ebp]
	push	edx
	call	_fwrite
	add	esp, 16					; 00000010H
$LN4@UpdateTeam:

; 2429 : 				}
; 2430 : 				u = GetNextUnit(&uit);

	lea	eax, DWORD PTR _uit$2[ebp]
	push	eax
	call	?GetNextUnit@@YAPAVUnitClass@@PAVVuListIterator@@@Z ; GetNextUnit
	add	esp, 4
	mov	DWORD PTR _u$[ebp], eax

; 2431 : 			}

	jmp	$LN6@UpdateTeam
$LN5@UpdateTeam:

; 2432 : 		}

	mov	DWORD PTR __$EHRec$[ebp+8], -1
	lea	ecx, DWORD PTR _uit$2[ebp]
	call	??1VuListIterator@@UAE@XZ		; VuListIterator::~VuListIterator

; 2433 : 		CloseCampFile(fp);

	mov	ecx, DWORD PTR _fp$[ebp]
	push	ecx
	call	?CloseCampFile@@YAXPAU_iobuf@@@Z	; CloseCampFile
	add	esp, 4
$LN10@UpdateTeam:

; 2434 : 	}
; 2435 : 	CampLeaveCriticalSection();

	call	?CampLeaveCriticalSection@@YAXXZ	; CampLeaveCriticalSection

; 2436 : 
; 2437 : 	// Apply player input if player hasn't flown any missions in the last hour
; 2438 : 	/*	if (TeamInfo[FalconLocalSession->GetTeam()]->lastPlayerMission - TheCampaign.CurrentTime > g_nNoPlayerPlay*CampaignHours)
; 2439 : 		ApplyPlayerInput(FalconLocalSession->GetTeam(),FalconNullId,-10);*/
; 2440 : 
; 2441 : 	// Fix by Alfred, ApplyPlayerInput is called every hour!
; 2442 : 	int rating;
; 2443 : 	if  (TheCampaign.CurrentTime < CampaignHours*10)

	cmp	DWORD PTR ?TheCampaign@@3VCampaignClass@@A, 36000000 ; 02255100H
	jae	SHORT $LN3@UpdateTeam

; 2444 : 		rating = 0;

	mov	DWORD PTR _rating$[ebp], 0

; 2445 : 	else        // don't apply input at campaign start

	jmp	SHORT $LN2@UpdateTeam
$LN3@UpdateTeam:

; 2446 : 		rating = -10;

	mov	DWORD PTR _rating$[ebp], -10		; fffffff6H
$LN2@UpdateTeam:

; 2447 : 
; 2448 : 	if (TheCampaign.CurrentTime - TeamInfo[FalconLocalSession->GetTeam()]->lastPlayerMission > 
; 2449 : 					(unsigned int)g_nNoPlayerPlay*CampaignHours){

	mov	ecx, OFFSET ?vuLocalSessionEntity@@3V?$VuBin@VVuSessionEntity@@@@A ; vuLocalSessionEntity
	call	?get@?$VuBin@VVuSessionEntity@@@@QBEPAVVuSessionEntity@@XZ ; VuBin<VuSessionEntity>::get
	mov	ecx, eax
	call	?GetTeam@FalconSessionEntity@@QAEEXZ	; FalconSessionEntity::GetTeam
	movzx	edx, al
	mov	eax, DWORD PTR ?TeamInfo@@3PAPAVTeamClass@@A[edx*4]
	mov	ecx, DWORD PTR ?TheCampaign@@3VCampaignClass@@A
	sub	ecx, DWORD PTR [eax+608]
	mov	edx, DWORD PTR ?g_nNoPlayerPlay@@3HA	; g_nNoPlayerPlay
	imul	edx, 3600000				; 0036ee80H
	cmp	ecx, edx
	jbe	SHORT $LN63@UpdateTeam

; 2450 : 		ApplyPlayerInput(FalconLocalSession->GetTeam(),FalconNullId,rating);

	mov	eax, DWORD PTR _rating$[ebp]
	push	eax
	mov	ecx, DWORD PTR ?FalconNullId@@3VVU_ID@@A+4
	push	ecx
	mov	edx, DWORD PTR ?FalconNullId@@3VVU_ID@@A
	push	edx
	mov	ecx, OFFSET ?vuLocalSessionEntity@@3V?$VuBin@VVuSessionEntity@@@@A ; vuLocalSessionEntity
	call	?get@?$VuBin@VVuSessionEntity@@@@QBEPAVVuSessionEntity@@XZ ; VuBin<VuSessionEntity>::get
	mov	ecx, eax
	call	?GetTeam@FalconSessionEntity@@QAEEXZ	; FalconSessionEntity::GetTeam
	movzx	eax, al
	push	eax
	call	?ApplyPlayerInput@@YAXEVVU_ID@@H@Z	; ApplyPlayerInput
	add	esp, 16					; 00000010H
$LN63@UpdateTeam:

; 2451 : 	}
; 2452 : }

	mov	ecx, DWORD PTR __$EHRec$[ebp]
	mov	DWORD PTR fs:0, ecx
	pop	ecx
	pop	esi
	pop	ebx
	mov	ecx, DWORD PTR __$ArrayPad$[ebp]
	xor	ecx, ebp
	call	@__security_check_cookie@4
	mov	esp, ebp
	pop	ebp
	ret	0
_TEXT	ENDS
text$x	SEGMENT
__unwindfunclet$?UpdateTeamStatistics@@YAXXZ$0:
	lea	ecx, DWORD PTR _uit$4[ebp]
	jmp	??1VuListIterator@@UAE@XZ		; VuListIterator::~VuListIterator
__unwindfunclet$?UpdateTeamStatistics@@YAXXZ$1:
	lea	ecx, DWORD PTR _uit$3[ebp]
	jmp	??1VuListIterator@@UAE@XZ		; VuListIterator::~VuListIterator
__unwindfunclet$?UpdateTeamStatistics@@YAXXZ$2:
	lea	ecx, DWORD PTR _uit$2[ebp]
	jmp	??1VuListIterator@@UAE@XZ		; VuListIterator::~VuListIterator
__ehhandler$?UpdateTeamStatistics@@YAXXZ:
	mov	edx, DWORD PTR [esp+8]
	lea	eax, DWORD PTR [edx+12]
	mov	ecx, DWORD PTR [edx-252]
	xor	ecx, eax
	call	@__security_check_cookie@4
	mov	ecx, DWORD PTR [edx-4]
	xor	ecx, eax
	call	@__security_check_cookie@4
	mov	eax, OFFSET __ehfuncinfo$?UpdateTeamStatistics@@YAXXZ
	jmp	___CxxFrameHandler3
text$x	ENDS
?UpdateTeamStatistics@@YAXXZ ENDP			; UpdateTeamStatistics
; Function compile flags: /Odtp
; File c:\users\zhitao li\documents\visual studio 2012\projects\freefalcon\campaign\camplib\team.cpp
_TEXT	SEGMENT
_myit$ = -92						; size = 12
$T2 = -80						; size = 8
$T3 = -72						; size = 8
$T4 = -64						; size = 8
$T5 = -56						; size = 4
tv268 = -52						; size = 4
$T6 = -48						; size = 4
tv257 = -44						; size = 4
_added$ = -40						; size = 4
_o$ = -36						; size = 4
_newEvent$7 = -32					; size = 4
_e$ = -28						; size = 4
_u$ = -24						; size = 4
_x$ = -20						; size = 2
_y$ = -16						; size = 2
__$EHRec$ = -12						; size = 12
_who$ = 8						; size = 1
_inc$ = 12						; size = 4
?AddReinforcements@@YAXEH@Z PROC			; AddReinforcements

; 2164 : {

	push	ebp
	mov	ebp, esp
	push	-1
	push	__ehhandler$?AddReinforcements@@YAXEH@Z
	mov	eax, DWORD PTR fs:0
	push	eax
	sub	esp, 80					; 00000050H
	push	esi
	mov	eax, DWORD PTR ___security_cookie
	xor	eax, ebp
	push	eax
	lea	eax, DWORD PTR __$EHRec$[ebp]
	mov	DWORD PTR fs:0, eax

; 2165 : 	Unit				u,e;
; 2166 : 	Objective			o;
; 2167 : 	GridIndex			x,y;
; 2168 : 	int					added;
; 2169 : 
; 2170 : 	if ((inc <= 0) || (TeamInfo[who] == NULL) || (!(TeamInfo[who]->flags & TEAM_ACTIVE)))

	cmp	DWORD PTR _inc$[ebp], 0
	jle	SHORT $LN14@AddReinfor
	movzx	eax, BYTE PTR _who$[ebp]
	cmp	DWORD PTR ?TeamInfo@@3PAPAVTeamClass@@A[eax*4], 0
	je	SHORT $LN14@AddReinfor
	movzx	ecx, BYTE PTR _who$[ebp]
	mov	edx, DWORD PTR ?TeamInfo@@3PAPAVTeamClass@@A[ecx*4]
	movsx	eax, WORD PTR [edx+350]
	and	eax, 1
	jne	SHORT $LN15@AddReinfor
$LN14@AddReinfor:

; 2171 : 		return;

	jmp	$LN16@AddReinfor
$LN15@AddReinfor:

; 2172 : 	TeamInfo[who]->AddReinforcement (inc);

	movzx	ecx, WORD PTR _inc$[ebp]
	push	ecx
	movzx	edx, BYTE PTR _who$[ebp]
	mov	ecx, DWORD PTR ?TeamInfo@@3PAPAVTeamClass@@A[edx*4]
	call	?AddReinforcement@TeamClass@@QAEXF@Z	; TeamClass::AddReinforcement

; 2173 : 	// Traverse reinforcement list, adding new units
; 2174 : 	VuListIterator		myit(InactiveList);

	mov	eax, DWORD PTR ?InactiveList@@3PAVVuLinkedList@@A ; InactiveList
	push	eax
	lea	ecx, DWORD PTR _myit$[ebp]
	call	??0VuListIterator@@QAE@PAVVuLinkedList@@@Z ; VuListIterator::VuListIterator
	mov	DWORD PTR __$EHRec$[ebp+8], 0

; 2175 : 	u = GetFirstUnit(&myit);

	lea	ecx, DWORD PTR _myit$[ebp]
	push	ecx
	call	?GetFirstUnit@@YAPAVUnitClass@@PAVVuListIterator@@@Z ; GetFirstUnit
	add	esp, 4
	mov	DWORD PTR _u$[ebp], eax
$LN13@AddReinfor:

; 2176 : 	while (u)

	cmp	DWORD PTR _u$[ebp], 0
	je	$LN12@AddReinfor

; 2177 : 	{
; 2178 : 		// Activate any waiting reinforcements (note: cargoed units are inactive too, so keep an eye out)
; 2179 : 		if (u->GetTeam() == who && !u->Cargo() && u->GetUnitReinforcementLevel() <= TeamInfo[who]->GetReinforcement() && u->Parent())

	mov	edx, DWORD PTR _u$[ebp]
	mov	eax, DWORD PTR [edx]
	mov	ecx, DWORD PTR _u$[ebp]
	mov	edx, DWORD PTR [eax+116]
	call	edx
	movzx	eax, al
	movzx	ecx, BYTE PTR _who$[ebp]
	cmp	eax, ecx
	jne	$LN11@AddReinfor
	mov	ecx, DWORD PTR _u$[ebp]
	call	?Cargo@UnitClass@@QBEHXZ		; UnitClass::Cargo
	test	eax, eax
	jne	$LN11@AddReinfor
	mov	ecx, DWORD PTR _u$[ebp]
	call	?GetUnitReinforcementLevel@UnitClass@@QAEHXZ ; UnitClass::GetUnitReinforcementLevel
	mov	esi, eax
	movzx	edx, BYTE PTR _who$[ebp]
	mov	ecx, DWORD PTR ?TeamInfo@@3PAPAVTeamClass@@A[edx*4]
	call	?GetReinforcement@TeamClass@@QAEFXZ	; TeamClass::GetReinforcement
	cwde
	cmp	esi, eax
	jg	$LN11@AddReinfor
	mov	ecx, DWORD PTR _u$[ebp]
	call	?Parent@UnitClass@@QBEHXZ		; UnitClass::Parent
	test	eax, eax
	je	$LN11@AddReinfor

; 2180 : 		{
; 2181 : 			added = 0;

	mov	DWORD PTR _added$[ebp], 0

; 2182 : 			if (u->IsBrigade()){

	mov	ecx, DWORD PTR _u$[ebp]
	mov	edx, DWORD PTR [ecx]
	mov	ecx, DWORD PTR _u$[ebp]
	mov	eax, DWORD PTR [edx+244]
	call	eax
	test	eax, eax
	je	SHORT $LN10@AddReinfor

; 2183 : 				e = u->GetFirstUnitElement();

	mov	ecx, DWORD PTR _u$[ebp]
	mov	edx, DWORD PTR [ecx]
	mov	ecx, DWORD PTR _u$[ebp]
	mov	eax, DWORD PTR [edx+956]
	call	eax
	mov	DWORD PTR _e$[ebp], eax

; 2184 : 			}
; 2185 : 			else {

	jmp	SHORT $LN8@AddReinfor
$LN10@AddReinfor:

; 2186 : 				e = u;

	mov	ecx, DWORD PTR _u$[ebp]
	mov	DWORD PTR _e$[ebp], ecx
$LN8@AddReinfor:

; 2187 : 			}
; 2188 : 			while (e){

	cmp	DWORD PTR _e$[ebp], 0
	je	$LN7@AddReinfor

; 2189 : 				e->GetLocation(&x,&y);

	lea	edx, DWORD PTR _y$[ebp]
	push	edx
	lea	eax, DWORD PTR _x$[ebp]
	push	eax
	mov	ecx, DWORD PTR _e$[ebp]
	call	?GetLocation@FalconEntity@@QBEXPAF0@Z	; FalconEntity::GetLocation

; 2190 : 				// RV - Biker - 100km is too big perimeter (carrier near coast)
; 2191 : 				o = FindNearestObjective(x, y, NULL, 25);

	push	25					; 00000019H
	push	0
	movzx	ecx, WORD PTR _y$[ebp]
	push	ecx
	movzx	edx, WORD PTR _x$[ebp]
	push	edx
	call	?FindNearestObjective@@YAPAVObjectiveClass@@FFPAMF@Z ; FindNearestObjective
	add	esp, 16					; 00000010H
	mov	DWORD PTR _o$[ebp], eax

; 2192 : 				if (!o || o->GetTeam() == who)

	cmp	DWORD PTR _o$[ebp], 0
	je	SHORT $LN5@AddReinfor
	mov	eax, DWORD PTR _o$[ebp]
	mov	edx, DWORD PTR [eax]
	mov	ecx, DWORD PTR _o$[ebp]
	mov	eax, DWORD PTR [edx+116]
	call	eax
	movzx	ecx, al
	movzx	edx, BYTE PTR _who$[ebp]
	cmp	ecx, edx
	jne	SHORT $LN6@AddReinfor
$LN5@AddReinfor:

; 2193 : 				{
; 2194 : 					// Activate this unit && force list reinsertion
; 2195 : 					e->BroadcastUnitMessage(e->Id(), FalconUnitMessage::unitActivate, 0, 0, 0);

	push	0
	push	0
	push	0
	push	7
	lea	eax, DWORD PTR $T4[ebp]
	push	eax
	mov	ecx, DWORD PTR _e$[ebp]
