; Listing generated by Microsoft (R) Optimizing Compiler Version 17.00.51106.1 

	TITLE	C:\Users\Zhitao Li\Documents\Visual Studio 2012\Projects\Freefalcon\CAMPAIGN\CAMPLIB\Unit.cpp
	.686P
	.XMM
	include listing.inc
	.model	flat

INCLUDELIB LIBCMT
INCLUDELIB OLDNAMES

PUBLIC	?digits@?$numeric_limits@G@std@@2HB		; std::numeric_limits<unsigned short>::digits
PUBLIC	?digits10@?$numeric_limits@G@std@@2HB		; std::numeric_limits<unsigned short>::digits10
PUBLIC	?value@?$integral_constant@_N$00@std@@2_NB	; std::integral_constant<bool,1>::value
PUBLIC	?is_signed@?$numeric_limits@H@std@@2_NB		; std::numeric_limits<int>::is_signed
PUBLIC	?value@?$_Sizeof@HU_Nil@std@@U12@U12@U12@U12@U12@U12@@std@@2IB ; std::_Sizeof<int,std::_Nil,std::_Nil,std::_Nil,std::_Nil,std::_Nil,std::_Nil,std::_Nil>::value
PUBLIC	?digits@?$numeric_limits@H@std@@2HB		; std::numeric_limits<int>::digits
PUBLIC	?digits10@?$numeric_limits@H@std@@2HB		; std::numeric_limits<int>::digits10
PUBLIC	?is_signed@?$numeric_limits@I@std@@2_NB		; std::numeric_limits<unsigned int>::is_signed
PUBLIC	?skipws@?$_Iosb@H@std@@2W4_Fmtflags@12@B	; std::_Iosb<int>::skipws
PUBLIC	?digits@?$numeric_limits@I@std@@2HB		; std::numeric_limits<unsigned int>::digits
PUBLIC	?unitbuf@?$_Iosb@H@std@@2W4_Fmtflags@12@B	; std::_Iosb<int>::unitbuf
PUBLIC	?uppercase@?$_Iosb@H@std@@2W4_Fmtflags@12@B	; std::_Iosb<int>::uppercase
PUBLIC	?digits10@?$numeric_limits@I@std@@2HB		; std::numeric_limits<unsigned int>::digits10
PUBLIC	?showbase@?$_Iosb@H@std@@2W4_Fmtflags@12@B	; std::_Iosb<int>::showbase
PUBLIC	?showpoint@?$_Iosb@H@std@@2W4_Fmtflags@12@B	; std::_Iosb<int>::showpoint
PUBLIC	?showpos@?$_Iosb@H@std@@2W4_Fmtflags@12@B	; std::_Iosb<int>::showpos
PUBLIC	?left@?$_Iosb@H@std@@2W4_Fmtflags@12@B		; std::_Iosb<int>::left
PUBLIC	?right@?$_Iosb@H@std@@2W4_Fmtflags@12@B		; std::_Iosb<int>::right
PUBLIC	?internal@?$_Iosb@H@std@@2W4_Fmtflags@12@B	; std::_Iosb<int>::internal
PUBLIC	?dec@?$_Iosb@H@std@@2W4_Fmtflags@12@B		; std::_Iosb<int>::dec
PUBLIC	?oct@?$_Iosb@H@std@@2W4_Fmtflags@12@B		; std::_Iosb<int>::oct
PUBLIC	?hex@?$_Iosb@H@std@@2W4_Fmtflags@12@B		; std::_Iosb<int>::hex
PUBLIC	?scientific@?$_Iosb@H@std@@2W4_Fmtflags@12@B	; std::_Iosb<int>::scientific
PUBLIC	?is_signed@?$numeric_limits@J@std@@2_NB		; std::numeric_limits<long>::is_signed
PUBLIC	?fixed@?$_Iosb@H@std@@2W4_Fmtflags@12@B		; std::_Iosb<int>::fixed
PUBLIC	?digits@?$numeric_limits@J@std@@2HB		; std::numeric_limits<long>::digits
PUBLIC	?hexfloat@?$_Iosb@H@std@@2W4_Fmtflags@12@B	; std::_Iosb<int>::hexfloat
PUBLIC	?boolalpha@?$_Iosb@H@std@@2W4_Fmtflags@12@B	; std::_Iosb<int>::boolalpha
PUBLIC	?digits10@?$numeric_limits@J@std@@2HB		; std::numeric_limits<long>::digits10
PUBLIC	?_Stdio@?$_Iosb@H@std@@2W4_Fmtflags@12@B	; std::_Iosb<int>::_Stdio
PUBLIC	?adjustfield@?$_Iosb@H@std@@2W4_Fmtflags@12@B	; std::_Iosb<int>::adjustfield
PUBLIC	?basefield@?$_Iosb@H@std@@2W4_Fmtflags@12@B	; std::_Iosb<int>::basefield
PUBLIC	?floatfield@?$_Iosb@H@std@@2W4_Fmtflags@12@B	; std::_Iosb<int>::floatfield
PUBLIC	?goodbit@?$_Iosb@H@std@@2W4_Iostate@12@B	; std::_Iosb<int>::goodbit
PUBLIC	?eofbit@?$_Iosb@H@std@@2W4_Iostate@12@B		; std::_Iosb<int>::eofbit
PUBLIC	?failbit@?$_Iosb@H@std@@2W4_Iostate@12@B	; std::_Iosb<int>::failbit
PUBLIC	?badbit@?$_Iosb@H@std@@2W4_Iostate@12@B		; std::_Iosb<int>::badbit
PUBLIC	?_Hardfail@?$_Iosb@H@std@@2W4_Iostate@12@B	; std::_Iosb<int>::_Hardfail
PUBLIC	?is_signed@?$numeric_limits@K@std@@2_NB		; std::numeric_limits<unsigned long>::is_signed
PUBLIC	?in@?$_Iosb@H@std@@2W4_Openmode@12@B		; std::_Iosb<int>::in
PUBLIC	?digits@?$numeric_limits@K@std@@2HB		; std::numeric_limits<unsigned long>::digits
PUBLIC	?out@?$_Iosb@H@std@@2W4_Openmode@12@B		; std::_Iosb<int>::out
PUBLIC	?digits10@?$numeric_limits@K@std@@2HB		; std::numeric_limits<unsigned long>::digits10
PUBLIC	?ate@?$_Iosb@H@std@@2W4_Openmode@12@B		; std::_Iosb<int>::ate
PUBLIC	?app@?$_Iosb@H@std@@2W4_Openmode@12@B		; std::_Iosb<int>::app
PUBLIC	?trunc@?$_Iosb@H@std@@2W4_Openmode@12@B		; std::_Iosb<int>::trunc
PUBLIC	?_Nocreate@?$_Iosb@H@std@@2W4_Openmode@12@B	; std::_Iosb<int>::_Nocreate
PUBLIC	?_Noreplace@?$_Iosb@H@std@@2W4_Openmode@12@B	; std::_Iosb<int>::_Noreplace
PUBLIC	?binary@?$_Iosb@H@std@@2W4_Openmode@12@B	; std::_Iosb<int>::binary
PUBLIC	?beg@?$_Iosb@H@std@@2W4_Seekdir@12@B		; std::_Iosb<int>::beg
PUBLIC	?cur@?$_Iosb@H@std@@2W4_Seekdir@12@B		; std::_Iosb<int>::cur
PUBLIC	?end@?$_Iosb@H@std@@2W4_Seekdir@12@B		; std::_Iosb<int>::end
PUBLIC	?is_signed@?$numeric_limits@_J@std@@2_NB	; std::numeric_limits<__int64>::is_signed
PUBLIC	?digits@?$numeric_limits@_J@std@@2HB		; std::numeric_limits<__int64>::digits
PUBLIC	?digits10@?$numeric_limits@_J@std@@2HB		; std::numeric_limits<__int64>::digits10
PUBLIC	?_Stream_err@failure@ios_base@std@@0W4io_errc@43@B ; std::ios_base::failure::_Stream_err
PUBLIC	?is_signed@?$numeric_limits@_K@std@@2_NB	; std::numeric_limits<unsigned __int64>::is_signed
PUBLIC	?digits@?$numeric_limits@_K@std@@2HB		; std::numeric_limits<unsigned __int64>::digits
PUBLIC	?CollectRad@@3PAHA				; CollectRad
PUBLIC	?digits10@?$numeric_limits@_K@std@@2HB		; std::numeric_limits<unsigned __int64>::digits10
PUBLIC	?LoadingUnits@@3HA				; LoadingUnits
PUBLIC	?save_log@@3PAU_iobuf@@A			; save_log
PUBLIC	?load_log@@3PAU_iobuf@@A			; load_log
PUBLIC	?start_save_stream@@3HA				; start_save_stream
PUBLIC	?start_load_stream@@3HA				; start_load_stream
PUBLIC	?digits@?$numeric_limits@M@std@@2HB		; std::numeric_limits<float>::digits
PUBLIC	?digits10@?$numeric_limits@M@std@@2HB		; std::numeric_limits<float>::digits10
PUBLIC	?max_digits10@?$numeric_limits@M@std@@2HB	; std::numeric_limits<float>::max_digits10
PUBLIC	?max_exponent@?$numeric_limits@M@std@@2HB	; std::numeric_limits<float>::max_exponent
PUBLIC	?max_exponent10@?$numeric_limits@M@std@@2HB	; std::numeric_limits<float>::max_exponent10
PUBLIC	?min_exponent@?$numeric_limits@M@std@@2HB	; std::numeric_limits<float>::min_exponent
PUBLIC	?min_exponent10@?$numeric_limits@M@std@@2HB	; std::numeric_limits<float>::min_exponent10
PUBLIC	?value@?$integral_constant@I$0A@@std@@2IB	; std::integral_constant<unsigned int,0>::value
PUBLIC	?digits@?$numeric_limits@N@std@@2HB		; std::numeric_limits<double>::digits
PUBLIC	?digits10@?$numeric_limits@N@std@@2HB		; std::numeric_limits<double>::digits10
PUBLIC	?max_digits10@?$numeric_limits@N@std@@2HB	; std::numeric_limits<double>::max_digits10
PUBLIC	?max_exponent@?$numeric_limits@N@std@@2HB	; std::numeric_limits<double>::max_exponent
PUBLIC	?max_exponent10@?$numeric_limits@N@std@@2HB	; std::numeric_limits<double>::max_exponent10
PUBLIC	?min_exponent@?$numeric_limits@N@std@@2HB	; std::numeric_limits<double>::min_exponent
PUBLIC	?min_exponent10@?$numeric_limits@N@std@@2HB	; std::numeric_limits<double>::min_exponent10
PUBLIC	?digits@?$numeric_limits@O@std@@2HB		; std::numeric_limits<long double>::digits
PUBLIC	?digits10@?$numeric_limits@O@std@@2HB		; std::numeric_limits<long double>::digits10
PUBLIC	?max_digits10@?$numeric_limits@O@std@@2HB	; std::numeric_limits<long double>::max_digits10
PUBLIC	?max_exponent@?$numeric_limits@O@std@@2HB	; std::numeric_limits<long double>::max_exponent
PUBLIC	?max_exponent10@?$numeric_limits@O@std@@2HB	; std::numeric_limits<long double>::max_exponent10
PUBLIC	?min_exponent@?$numeric_limits@O@std@@2HB	; std::numeric_limits<long double>::min_exponent
PUBLIC	?min_exponent10@?$numeric_limits@O@std@@2HB	; std::numeric_limits<long double>::min_exponent10
PUBLIC	?collate@?$_Locbase@H@std@@2HB			; std::_Locbase<int>::collate
PUBLIC	?ctype@?$_Locbase@H@std@@2HB			; std::_Locbase<int>::ctype
PUBLIC	?monetary@?$_Locbase@H@std@@2HB			; std::_Locbase<int>::monetary
PUBLIC	?numeric@?$_Locbase@H@std@@2HB			; std::_Locbase<int>::numeric
PUBLIC	?time@?$_Locbase@H@std@@2HB			; std::_Locbase<int>::time
PUBLIC	?messages@?$_Locbase@H@std@@2HB			; std::_Locbase<int>::messages
PUBLIC	?all@?$_Locbase@H@std@@2HB			; std::_Locbase<int>::all
PUBLIC	?none@?$_Locbase@H@std@@2HB			; std::_Locbase<int>::none
PUBLIC	?value@?$_Sizeof@U_Nil@std@@U12@U12@U12@U12@U12@U12@U12@@std@@2IB ; std::_Sizeof<std::_Nil,std::_Nil,std::_Nil,std::_Nil,std::_Nil,std::_Nil,std::_Nil,std::_Nil>::value
PUBLIC	?has_denorm@_Num_base@std@@2W4float_denorm_style@2@B ; std::_Num_base::has_denorm
PUBLIC	?has_denorm_loss@_Num_base@std@@2_NB		; std::_Num_base::has_denorm_loss
PUBLIC	?has_infinity@_Num_base@std@@2_NB		; std::_Num_base::has_infinity
PUBLIC	?has_quiet_NaN@_Num_base@std@@2_NB		; std::_Num_base::has_quiet_NaN
PUBLIC	?has_signaling_NaN@_Num_base@std@@2_NB		; std::_Num_base::has_signaling_NaN
PUBLIC	?is_bounded@_Num_base@std@@2_NB			; std::_Num_base::is_bounded
PUBLIC	?is_exact@_Num_base@std@@2_NB			; std::_Num_base::is_exact
PUBLIC	?is_iec559@_Num_base@std@@2_NB			; std::_Num_base::is_iec559
PUBLIC	?table_size@?$ctype@D@std@@2IB			; std::ctype<char>::table_size
PUBLIC	?is_integer@_Num_base@std@@2_NB			; std::_Num_base::is_integer
PUBLIC	?is_modulo@_Num_base@std@@2_NB			; std::_Num_base::is_modulo
PUBLIC	?is_signed@_Num_base@std@@2_NB			; std::_Num_base::is_signed
PUBLIC	?is_specialized@_Num_base@std@@2_NB		; std::_Num_base::is_specialized
PUBLIC	?tinyness_before@_Num_base@std@@2_NB		; std::_Num_base::tinyness_before
PUBLIC	?traps@_Num_base@std@@2_NB			; std::_Num_base::traps
PUBLIC	?round_style@_Num_base@std@@2W4float_round_style@2@B ; std::_Num_base::round_style
PUBLIC	?digits@_Num_base@std@@2HB			; std::_Num_base::digits
PUBLIC	?digits10@_Num_base@std@@2HB			; std::_Num_base::digits10
PUBLIC	?max_digits10@_Num_base@std@@2HB		; std::_Num_base::max_digits10
PUBLIC	?max_exponent@_Num_base@std@@2HB		; std::_Num_base::max_exponent
PUBLIC	?max_exponent10@_Num_base@std@@2HB		; std::_Num_base::max_exponent10
PUBLIC	?min_exponent@_Num_base@std@@2HB		; std::_Num_base::min_exponent
PUBLIC	?min_exponent10@_Num_base@std@@2HB		; std::_Num_base::min_exponent10
PUBLIC	?radix@_Num_base@std@@2HB			; std::_Num_base::radix
PUBLIC	?is_bounded@_Num_int_base@std@@2_NB		; std::_Num_int_base::is_bounded
PUBLIC	?is_exact@_Num_int_base@std@@2_NB		; std::_Num_int_base::is_exact
PUBLIC	?is_integer@_Num_int_base@std@@2_NB		; std::_Num_int_base::is_integer
PUBLIC	?is_modulo@_Num_int_base@std@@2_NB		; std::_Num_int_base::is_modulo
PUBLIC	?is_specialized@_Num_int_base@std@@2_NB		; std::_Num_int_base::is_specialized
PUBLIC	?radix@_Num_int_base@std@@2HB			; std::_Num_int_base::radix
PUBLIC	?has_denorm@_Num_float_base@std@@2W4float_denorm_style@2@B ; std::_Num_float_base::has_denorm
PUBLIC	?has_denorm_loss@_Num_float_base@std@@2_NB	; std::_Num_float_base::has_denorm_loss
PUBLIC	?SIMDIRTYDATA_INTERVAL@FalconEntity@@2KB	; FalconEntity::SIMDIRTYDATA_INTERVAL
PUBLIC	?CMPDIRTYDATA_INTERVAL@FalconEntity@@2KB	; FalconEntity::CMPDIRTYDATA_INTERVAL
PUBLIC	?has_infinity@_Num_float_base@std@@2_NB		; std::_Num_float_base::has_infinity
PUBLIC	?has_quiet_NaN@_Num_float_base@std@@2_NB	; std::_Num_float_base::has_quiet_NaN
PUBLIC	?has_signaling_NaN@_Num_float_base@std@@2_NB	; std::_Num_float_base::has_signaling_NaN
PUBLIC	?is_bounded@_Num_float_base@std@@2_NB		; std::_Num_float_base::is_bounded
PUBLIC	?is_exact@_Num_float_base@std@@2_NB		; std::_Num_float_base::is_exact
PUBLIC	?is_iec559@_Num_float_base@std@@2_NB		; std::_Num_float_base::is_iec559
PUBLIC	?is_integer@_Num_float_base@std@@2_NB		; std::_Num_float_base::is_integer
PUBLIC	?is_modulo@_Num_float_base@std@@2_NB		; std::_Num_float_base::is_modulo
PUBLIC	?is_signed@_Num_float_base@std@@2_NB		; std::_Num_float_base::is_signed
PUBLIC	?is_specialized@_Num_float_base@std@@2_NB	; std::_Num_float_base::is_specialized
PUBLIC	?tinyness_before@_Num_float_base@std@@2_NB	; std::_Num_float_base::tinyness_before
PUBLIC	?traps@_Num_float_base@std@@2_NB		; std::_Num_float_base::traps
PUBLIC	?round_style@_Num_float_base@std@@2W4float_round_style@2@B ; std::_Num_float_base::round_style
PUBLIC	?radix@_Num_float_base@std@@2HB			; std::_Num_float_base::radix
PUBLIC	?is_signed@?$numeric_limits@D@std@@2_NB		; std::numeric_limits<char>::is_signed
PUBLIC	?digits@?$numeric_limits@D@std@@2HB		; std::numeric_limits<char>::digits
PUBLIC	?digits10@?$numeric_limits@D@std@@2HB		; std::numeric_limits<char>::digits10
PUBLIC	?is_signed@?$numeric_limits@_W@std@@2_NB	; std::numeric_limits<wchar_t>::is_signed
PUBLIC	?digits@?$numeric_limits@_W@std@@2HB		; std::numeric_limits<wchar_t>::digits
PUBLIC	?digits10@?$numeric_limits@_W@std@@2HB		; std::numeric_limits<wchar_t>::digits10
PUBLIC	?is_modulo@?$numeric_limits@_N@std@@2_NB	; std::numeric_limits<bool>::is_modulo
PUBLIC	?is_signed@?$numeric_limits@_N@std@@2_NB	; std::numeric_limits<bool>::is_signed
PUBLIC	?digits@?$numeric_limits@_N@std@@2HB		; std::numeric_limits<bool>::digits
PUBLIC	?digits10@?$numeric_limits@_N@std@@2HB		; std::numeric_limits<bool>::digits10
PUBLIC	?is_signed@?$numeric_limits@C@std@@2_NB		; std::numeric_limits<signed char>::is_signed
PUBLIC	?digits@?$numeric_limits@C@std@@2HB		; std::numeric_limits<signed char>::digits
PUBLIC	?digits10@?$numeric_limits@C@std@@2HB		; std::numeric_limits<signed char>::digits10
PUBLIC	?is_signed@?$numeric_limits@E@std@@2_NB		; std::numeric_limits<unsigned char>::is_signed
PUBLIC	?digits@?$numeric_limits@E@std@@2HB		; std::numeric_limits<unsigned char>::digits
PUBLIC	?digits10@?$numeric_limits@E@std@@2HB		; std::numeric_limits<unsigned char>::digits10
PUBLIC	?is_signed@?$numeric_limits@F@std@@2_NB		; std::numeric_limits<short>::is_signed
PUBLIC	?digits@?$numeric_limits@F@std@@2HB		; std::numeric_limits<short>::digits
PUBLIC	?digits10@?$numeric_limits@F@std@@2HB		; std::numeric_limits<short>::digits10
PUBLIC	?is_signed@?$numeric_limits@G@std@@2_NB		; std::numeric_limits<unsigned short>::is_signed
PUBLIC	?value@?$integral_constant@_N$0A@@std@@2_NB	; std::integral_constant<bool,0>::value
_BSS	SEGMENT
?LoadingUnits@@3HA DD 01H DUP (?)			; LoadingUnits
?save_log@@3PAU_iobuf@@A DD 01H DUP (?)			; save_log
?load_log@@3PAU_iobuf@@A DD 01H DUP (?)			; load_log
?start_save_stream@@3HA DD 01H DUP (?)			; start_save_stream
?start_load_stream@@3HA DD 01H DUP (?)			; start_load_stream
_BSS	ENDS
;	COMDAT ?value@?$integral_constant@_N$0A@@std@@2_NB
CONST	SEGMENT
?value@?$integral_constant@_N$0A@@std@@2_NB DB 00H	; std::integral_constant<bool,0>::value
CONST	ENDS
;	COMDAT ?is_signed@?$numeric_limits@G@std@@2_NB
CONST	SEGMENT
?is_signed@?$numeric_limits@G@std@@2_NB DB 00H		; std::numeric_limits<unsigned short>::is_signed
CONST	ENDS
;	COMDAT ?digits10@?$numeric_limits@F@std@@2HB
CONST	SEGMENT
?digits10@?$numeric_limits@F@std@@2HB DD 04H		; std::numeric_limits<short>::digits10
CONST	ENDS
;	COMDAT ?digits@?$numeric_limits@F@std@@2HB
CONST	SEGMENT
?digits@?$numeric_limits@F@std@@2HB DD 0fH		; std::numeric_limits<short>::digits
CONST	ENDS
;	COMDAT ?is_signed@?$numeric_limits@F@std@@2_NB
CONST	SEGMENT
?is_signed@?$numeric_limits@F@std@@2_NB DB 01H		; std::numeric_limits<short>::is_signed
CONST	ENDS
;	COMDAT ?digits10@?$numeric_limits@E@std@@2HB
CONST	SEGMENT
?digits10@?$numeric_limits@E@std@@2HB DD 02H		; std::numeric_limits<unsigned char>::digits10
CONST	ENDS
;	COMDAT ?digits@?$numeric_limits@E@std@@2HB
CONST	SEGMENT
?digits@?$numeric_limits@E@std@@2HB DD 08H		; std::numeric_limits<unsigned char>::digits
CONST	ENDS
;	COMDAT ?is_signed@?$numeric_limits@E@std@@2_NB
CONST	SEGMENT
?is_signed@?$numeric_limits@E@std@@2_NB DB 00H		; std::numeric_limits<unsigned char>::is_signed
CONST	ENDS
;	COMDAT ?digits10@?$numeric_limits@C@std@@2HB
CONST	SEGMENT
?digits10@?$numeric_limits@C@std@@2HB DD 02H		; std::numeric_limits<signed char>::digits10
CONST	ENDS
;	COMDAT ?digits@?$numeric_limits@C@std@@2HB
CONST	SEGMENT
?digits@?$numeric_limits@C@std@@2HB DD 07H		; std::numeric_limits<signed char>::digits
CONST	ENDS
;	COMDAT ?is_signed@?$numeric_limits@C@std@@2_NB
CONST	SEGMENT
?is_signed@?$numeric_limits@C@std@@2_NB DB 01H		; std::numeric_limits<signed char>::is_signed
CONST	ENDS
;	COMDAT ?digits10@?$numeric_limits@_N@std@@2HB
CONST	SEGMENT
?digits10@?$numeric_limits@_N@std@@2HB DD 00H		; std::numeric_limits<bool>::digits10
CONST	ENDS
;	COMDAT ?digits@?$numeric_limits@_N@std@@2HB
CONST	SEGMENT
?digits@?$numeric_limits@_N@std@@2HB DD 01H		; std::numeric_limits<bool>::digits
CONST	ENDS
;	COMDAT ?is_signed@?$numeric_limits@_N@std@@2_NB
CONST	SEGMENT
?is_signed@?$numeric_limits@_N@std@@2_NB DB 00H		; std::numeric_limits<bool>::is_signed
CONST	ENDS
;	COMDAT ?is_modulo@?$numeric_limits@_N@std@@2_NB
CONST	SEGMENT
?is_modulo@?$numeric_limits@_N@std@@2_NB DB 00H		; std::numeric_limits<bool>::is_modulo
CONST	ENDS
;	COMDAT ?digits10@?$numeric_limits@_W@std@@2HB
CONST	SEGMENT
?digits10@?$numeric_limits@_W@std@@2HB DD 04H		; std::numeric_limits<wchar_t>::digits10
CONST	ENDS
;	COMDAT ?digits@?$numeric_limits@_W@std@@2HB
CONST	SEGMENT
?digits@?$numeric_limits@_W@std@@2HB DD 010H		; std::numeric_limits<wchar_t>::digits
CONST	ENDS
;	COMDAT ?is_signed@?$numeric_limits@_W@std@@2_NB
CONST	SEGMENT
?is_signed@?$numeric_limits@_W@std@@2_NB DB 00H		; std::numeric_limits<wchar_t>::is_signed
CONST	ENDS
;	COMDAT ?digits10@?$numeric_limits@D@std@@2HB
CONST	SEGMENT
?digits10@?$numeric_limits@D@std@@2HB DD 02H		; std::numeric_limits<char>::digits10
CONST	ENDS
;	COMDAT ?digits@?$numeric_limits@D@std@@2HB
CONST	SEGMENT
?digits@?$numeric_limits@D@std@@2HB DD 07H		; std::numeric_limits<char>::digits
CONST	ENDS
;	COMDAT ?is_signed@?$numeric_limits@D@std@@2_NB
CONST	SEGMENT
?is_signed@?$numeric_limits@D@std@@2_NB DB 01H		; std::numeric_limits<char>::is_signed
CONST	ENDS
;	COMDAT ?radix@_Num_float_base@std@@2HB
CONST	SEGMENT
?radix@_Num_float_base@std@@2HB DD 02H			; std::_Num_float_base::radix
CONST	ENDS
;	COMDAT ?round_style@_Num_float_base@std@@2W4float_round_style@2@B
CONST	SEGMENT
?round_style@_Num_float_base@std@@2W4float_round_style@2@B DD 01H ; std::_Num_float_base::round_style
CONST	ENDS
;	COMDAT ?traps@_Num_float_base@std@@2_NB
CONST	SEGMENT
?traps@_Num_float_base@std@@2_NB DB 00H			; std::_Num_float_base::traps
CONST	ENDS
;	COMDAT ?tinyness_before@_Num_float_base@std@@2_NB
CONST	SEGMENT
?tinyness_before@_Num_float_base@std@@2_NB DB 01H	; std::_Num_float_base::tinyness_before
CONST	ENDS
;	COMDAT ?is_specialized@_Num_float_base@std@@2_NB
CONST	SEGMENT
?is_specialized@_Num_float_base@std@@2_NB DB 01H	; std::_Num_float_base::is_specialized
CONST	ENDS
;	COMDAT ?is_signed@_Num_float_base@std@@2_NB
CONST	SEGMENT
?is_signed@_Num_float_base@std@@2_NB DB 01H		; std::_Num_float_base::is_signed
CONST	ENDS
;	COMDAT ?is_modulo@_Num_float_base@std@@2_NB
CONST	SEGMENT
?is_modulo@_Num_float_base@std@@2_NB DB 00H		; std::_Num_float_base::is_modulo
CONST	ENDS
;	COMDAT ?is_integer@_Num_float_base@std@@2_NB
CONST	SEGMENT
?is_integer@_Num_float_base@std@@2_NB DB 00H		; std::_Num_float_base::is_integer
CONST	ENDS
;	COMDAT ?is_iec559@_Num_float_base@std@@2_NB
CONST	SEGMENT
?is_iec559@_Num_float_base@std@@2_NB DB 01H		; std::_Num_float_base::is_iec559
CONST	ENDS
;	COMDAT ?is_exact@_Num_float_base@std@@2_NB
CONST	SEGMENT
?is_exact@_Num_float_base@std@@2_NB DB 00H		; std::_Num_float_base::is_exact
CONST	ENDS
;	COMDAT ?is_bounded@_Num_float_base@std@@2_NB
CONST	SEGMENT
?is_bounded@_Num_float_base@std@@2_NB DB 01H		; std::_Num_float_base::is_bounded
CONST	ENDS
;	COMDAT ?has_signaling_NaN@_Num_float_base@std@@2_NB
CONST	SEGMENT
?has_signaling_NaN@_Num_float_base@std@@2_NB DB 01H	; std::_Num_float_base::has_signaling_NaN
CONST	ENDS
;	COMDAT ?has_quiet_NaN@_Num_float_base@std@@2_NB
CONST	SEGMENT
?has_quiet_NaN@_Num_float_base@std@@2_NB DB 01H		; std::_Num_float_base::has_quiet_NaN
CONST	ENDS
;	COMDAT ?has_infinity@_Num_float_base@std@@2_NB
CONST	SEGMENT
?has_infinity@_Num_float_base@std@@2_NB DB 01H		; std::_Num_float_base::has_infinity
CONST	ENDS
;	COMDAT ?CMPDIRTYDATA_INTERVAL@FalconEntity@@2KB
CONST	SEGMENT
?CMPDIRTYDATA_INTERVAL@FalconEntity@@2KB DD 0c8H	; FalconEntity::CMPDIRTYDATA_INTERVAL
CONST	ENDS
;	COMDAT ?SIMDIRTYDATA_INTERVAL@FalconEntity@@2KB
CONST	SEGMENT
?SIMDIRTYDATA_INTERVAL@FalconEntity@@2KB DD 0c8H	; FalconEntity::SIMDIRTYDATA_INTERVAL
CONST	ENDS
;	COMDAT ?has_denorm_loss@_Num_float_base@std@@2_NB
CONST	SEGMENT
?has_denorm_loss@_Num_float_base@std@@2_NB DB 01H	; std::_Num_float_base::has_denorm_loss
CONST	ENDS
;	COMDAT ?has_denorm@_Num_float_base@std@@2W4float_denorm_style@2@B
CONST	SEGMENT
?has_denorm@_Num_float_base@std@@2W4float_denorm_style@2@B DD 01H ; std::_Num_float_base::has_denorm
CONST	ENDS
;	COMDAT ?radix@_Num_int_base@std@@2HB
CONST	SEGMENT
?radix@_Num_int_base@std@@2HB DD 02H			; std::_Num_int_base::radix
CONST	ENDS
;	COMDAT ?is_specialized@_Num_int_base@std@@2_NB
CONST	SEGMENT
?is_specialized@_Num_int_base@std@@2_NB DB 01H		; std::_Num_int_base::is_specialized
CONST	ENDS
;	COMDAT ?is_modulo@_Num_int_base@std@@2_NB
CONST	SEGMENT
?is_modulo@_Num_int_base@std@@2_NB DB 01H		; std::_Num_int_base::is_modulo
CONST	ENDS
;	COMDAT ?is_integer@_Num_int_base@std@@2_NB
CONST	SEGMENT
?is_integer@_Num_int_base@std@@2_NB DB 01H		; std::_Num_int_base::is_integer
CONST	ENDS
;	COMDAT ?is_exact@_Num_int_base@std@@2_NB
CONST	SEGMENT
?is_exact@_Num_int_base@std@@2_NB DB 01H		; std::_Num_int_base::is_exact
CONST	ENDS
;	COMDAT ?is_bounded@_Num_int_base@std@@2_NB
CONST	SEGMENT
?is_bounded@_Num_int_base@std@@2_NB DB 01H		; std::_Num_int_base::is_bounded
CONST	ENDS
;	COMDAT ?radix@_Num_base@std@@2HB
CONST	SEGMENT
?radix@_Num_base@std@@2HB DD 00H			; std::_Num_base::radix
CONST	ENDS
;	COMDAT ?min_exponent10@_Num_base@std@@2HB
CONST	SEGMENT
?min_exponent10@_Num_base@std@@2HB DD 00H		; std::_Num_base::min_exponent10
CONST	ENDS
;	COMDAT ?min_exponent@_Num_base@std@@2HB
CONST	SEGMENT
?min_exponent@_Num_base@std@@2HB DD 00H			; std::_Num_base::min_exponent
CONST	ENDS
;	COMDAT ?max_exponent10@_Num_base@std@@2HB
CONST	SEGMENT
?max_exponent10@_Num_base@std@@2HB DD 00H		; std::_Num_base::max_exponent10
CONST	ENDS
;	COMDAT ?max_exponent@_Num_base@std@@2HB
CONST	SEGMENT
?max_exponent@_Num_base@std@@2HB DD 00H			; std::_Num_base::max_exponent
CONST	ENDS
;	COMDAT ?max_digits10@_Num_base@std@@2HB
CONST	SEGMENT
?max_digits10@_Num_base@std@@2HB DD 00H			; std::_Num_base::max_digits10
CONST	ENDS
;	COMDAT ?digits10@_Num_base@std@@2HB
CONST	SEGMENT
?digits10@_Num_base@std@@2HB DD 00H			; std::_Num_base::digits10
CONST	ENDS
;	COMDAT ?digits@_Num_base@std@@2HB
CONST	SEGMENT
?digits@_Num_base@std@@2HB DD 00H			; std::_Num_base::digits
CONST	ENDS
;	COMDAT ?round_style@_Num_base@std@@2W4float_round_style@2@B
CONST	SEGMENT
?round_style@_Num_base@std@@2W4float_round_style@2@B DD 00H ; std::_Num_base::round_style
CONST	ENDS
;	COMDAT ?traps@_Num_base@std@@2_NB
CONST	SEGMENT
?traps@_Num_base@std@@2_NB DB 00H			; std::_Num_base::traps
CONST	ENDS
;	COMDAT ?tinyness_before@_Num_base@std@@2_NB
CONST	SEGMENT
?tinyness_before@_Num_base@std@@2_NB DB 00H		; std::_Num_base::tinyness_before
CONST	ENDS
;	COMDAT ?is_specialized@_Num_base@std@@2_NB
CONST	SEGMENT
?is_specialized@_Num_base@std@@2_NB DB 00H		; std::_Num_base::is_specialized
CONST	ENDS
;	COMDAT ?is_signed@_Num_base@std@@2_NB
CONST	SEGMENT
?is_signed@_Num_base@std@@2_NB DB 00H			; std::_Num_base::is_signed
CONST	ENDS
;	COMDAT ?is_modulo@_Num_base@std@@2_NB
CONST	SEGMENT
?is_modulo@_Num_base@std@@2_NB DB 00H			; std::_Num_base::is_modulo
CONST	ENDS
;	COMDAT ?is_integer@_Num_base@std@@2_NB
CONST	SEGMENT
?is_integer@_Num_base@std@@2_NB DB 00H			; std::_Num_base::is_integer
CONST	ENDS
;	COMDAT ?table_size@?$ctype@D@std@@2IB
CONST	SEGMENT
?table_size@?$ctype@D@std@@2IB DD 0100H			; std::ctype<char>::table_size
CONST	ENDS
;	COMDAT ?is_iec559@_Num_base@std@@2_NB
CONST	SEGMENT
?is_iec559@_Num_base@std@@2_NB DB 00H			; std::_Num_base::is_iec559
CONST	ENDS
;	COMDAT ?is_exact@_Num_base@std@@2_NB
CONST	SEGMENT
?is_exact@_Num_base@std@@2_NB DB 00H			; std::_Num_base::is_exact
CONST	ENDS
;	COMDAT ?is_bounded@_Num_base@std@@2_NB
CONST	SEGMENT
?is_bounded@_Num_base@std@@2_NB DB 00H			; std::_Num_base::is_bounded
CONST	ENDS
;	COMDAT ?has_signaling_NaN@_Num_base@std@@2_NB
CONST	SEGMENT
?has_signaling_NaN@_Num_base@std@@2_NB DB 00H		; std::_Num_base::has_signaling_NaN
CONST	ENDS
;	COMDAT ?has_quiet_NaN@_Num_base@std@@2_NB
CONST	SEGMENT
?has_quiet_NaN@_Num_base@std@@2_NB DB 00H		; std::_Num_base::has_quiet_NaN
CONST	ENDS
;	COMDAT ?has_infinity@_Num_base@std@@2_NB
CONST	SEGMENT
?has_infinity@_Num_base@std@@2_NB DB 00H		; std::_Num_base::has_infinity
CONST	ENDS
;	COMDAT ?has_denorm_loss@_Num_base@std@@2_NB
CONST	SEGMENT
?has_denorm_loss@_Num_base@std@@2_NB DB 00H		; std::_Num_base::has_denorm_loss
CONST	ENDS
;	COMDAT ?has_denorm@_Num_base@std@@2W4float_denorm_style@2@B
CONST	SEGMENT
?has_denorm@_Num_base@std@@2W4float_denorm_style@2@B DD 00H ; std::_Num_base::has_denorm
CONST	ENDS
CONST	SEGMENT
_NEAR_CLIP DD	03f800000r			; 1
_L_2	DD	03f317218r			; 0.693147
CONST	ENDS
;	COMDAT ?value@?$_Sizeof@U_Nil@std@@U12@U12@U12@U12@U12@U12@U12@@std@@2IB
CONST	SEGMENT
?value@?$_Sizeof@U_Nil@std@@U12@U12@U12@U12@U12@U12@U12@@std@@2IB DD 00H ; std::_Sizeof<std::_Nil,std::_Nil,std::_Nil,std::_Nil,std::_Nil,std::_Nil,std::_Nil,std::_Nil>::value
CONST	ENDS
;	COMDAT ?none@?$_Locbase@H@std@@2HB
CONST	SEGMENT
?none@?$_Locbase@H@std@@2HB DD 00H			; std::_Locbase<int>::none
CONST	ENDS
;	COMDAT ?all@?$_Locbase@H@std@@2HB
CONST	SEGMENT
?all@?$_Locbase@H@std@@2HB DD 03fH			; std::_Locbase<int>::all
CONST	ENDS
;	COMDAT ?messages@?$_Locbase@H@std@@2HB
CONST	SEGMENT
?messages@?$_Locbase@H@std@@2HB DD 020H			; std::_Locbase<int>::messages
CONST	ENDS
;	COMDAT ?time@?$_Locbase@H@std@@2HB
CONST	SEGMENT
?time@?$_Locbase@H@std@@2HB DD 010H			; std::_Locbase<int>::time
CONST	ENDS
;	COMDAT ?numeric@?$_Locbase@H@std@@2HB
CONST	SEGMENT
?numeric@?$_Locbase@H@std@@2HB DD 08H			; std::_Locbase<int>::numeric
CONST	ENDS
;	COMDAT ?monetary@?$_Locbase@H@std@@2HB
CONST	SEGMENT
?monetary@?$_Locbase@H@std@@2HB DD 04H			; std::_Locbase<int>::monetary
CONST	ENDS
;	COMDAT ?ctype@?$_Locbase@H@std@@2HB
CONST	SEGMENT
?ctype@?$_Locbase@H@std@@2HB DD 02H			; std::_Locbase<int>::ctype
CONST	ENDS
;	COMDAT ?collate@?$_Locbase@H@std@@2HB
CONST	SEGMENT
?collate@?$_Locbase@H@std@@2HB DD 01H			; std::_Locbase<int>::collate
CONST	ENDS
;	COMDAT ?min_exponent10@?$numeric_limits@O@std@@2HB
CONST	SEGMENT
?min_exponent10@?$numeric_limits@O@std@@2HB DD 0fffffecdH ; std::numeric_limits<long double>::min_exponent10
CONST	ENDS
;	COMDAT ?min_exponent@?$numeric_limits@O@std@@2HB
CONST	SEGMENT
?min_exponent@?$numeric_limits@O@std@@2HB DD 0fffffc03H	; std::numeric_limits<long double>::min_exponent
CONST	ENDS
;	COMDAT ?max_exponent10@?$numeric_limits@O@std@@2HB
CONST	SEGMENT
?max_exponent10@?$numeric_limits@O@std@@2HB DD 0134H	; std::numeric_limits<long double>::max_exponent10
CONST	ENDS
;	COMDAT ?max_exponent@?$numeric_limits@O@std@@2HB
CONST	SEGMENT
?max_exponent@?$numeric_limits@O@std@@2HB DD 0400H	; std::numeric_limits<long double>::max_exponent
CONST	ENDS
;	COMDAT ?max_digits10@?$numeric_limits@O@std@@2HB
CONST	SEGMENT
?max_digits10@?$numeric_limits@O@std@@2HB DD 011H	; std::numeric_limits<long double>::max_digits10
CONST	ENDS
;	COMDAT ?digits10@?$numeric_limits@O@std@@2HB
CONST	SEGMENT
?digits10@?$numeric_limits@O@std@@2HB DD 0fH		; std::numeric_limits<long double>::digits10
CONST	ENDS
;	COMDAT ?digits@?$numeric_limits@O@std@@2HB
CONST	SEGMENT
?digits@?$numeric_limits@O@std@@2HB DD 035H		; std::numeric_limits<long double>::digits
CONST	ENDS
;	COMDAT ?min_exponent10@?$numeric_limits@N@std@@2HB
CONST	SEGMENT
?min_exponent10@?$numeric_limits@N@std@@2HB DD 0fffffecdH ; std::numeric_limits<double>::min_exponent10
CONST	ENDS
;	COMDAT ?min_exponent@?$numeric_limits@N@std@@2HB
CONST	SEGMENT
?min_exponent@?$numeric_limits@N@std@@2HB DD 0fffffc03H	; std::numeric_limits<double>::min_exponent
CONST	ENDS
;	COMDAT ?max_exponent10@?$numeric_limits@N@std@@2HB
CONST	SEGMENT
?max_exponent10@?$numeric_limits@N@std@@2HB DD 0134H	; std::numeric_limits<double>::max_exponent10
CONST	ENDS
;	COMDAT ?max_exponent@?$numeric_limits@N@std@@2HB
CONST	SEGMENT
?max_exponent@?$numeric_limits@N@std@@2HB DD 0400H	; std::numeric_limits<double>::max_exponent
CONST	ENDS
;	COMDAT ?max_digits10@?$numeric_limits@N@std@@2HB
CONST	SEGMENT
?max_digits10@?$numeric_limits@N@std@@2HB DD 011H	; std::numeric_limits<double>::max_digits10
CONST	ENDS
;	COMDAT ?digits10@?$numeric_limits@N@std@@2HB
CONST	SEGMENT
?digits10@?$numeric_limits@N@std@@2HB DD 0fH		; std::numeric_limits<double>::digits10
CONST	ENDS
;	COMDAT ?digits@?$numeric_limits@N@std@@2HB
CONST	SEGMENT
?digits@?$numeric_limits@N@std@@2HB DD 035H		; std::numeric_limits<double>::digits
CONST	ENDS
;	COMDAT ?value@?$integral_constant@I$0A@@std@@2IB
CONST	SEGMENT
?value@?$integral_constant@I$0A@@std@@2IB DD 00H	; std::integral_constant<unsigned int,0>::value
CONST	ENDS
;	COMDAT ?min_exponent10@?$numeric_limits@M@std@@2HB
CONST	SEGMENT
?min_exponent10@?$numeric_limits@M@std@@2HB DD 0ffffffdbH ; std::numeric_limits<float>::min_exponent10
CONST	ENDS
;	COMDAT ?min_exponent@?$numeric_limits@M@std@@2HB
CONST	SEGMENT
?min_exponent@?$numeric_limits@M@std@@2HB DD 0ffffff83H	; std::numeric_limits<float>::min_exponent
CONST	ENDS
;	COMDAT ?max_exponent10@?$numeric_limits@M@std@@2HB
CONST	SEGMENT
?max_exponent10@?$numeric_limits@M@std@@2HB DD 026H	; std::numeric_limits<float>::max_exponent10
CONST	ENDS
;	COMDAT ?max_exponent@?$numeric_limits@M@std@@2HB
CONST	SEGMENT
?max_exponent@?$numeric_limits@M@std@@2HB DD 080H	; std::numeric_limits<float>::max_exponent
CONST	ENDS
;	COMDAT ?max_digits10@?$numeric_limits@M@std@@2HB
CONST	SEGMENT
?max_digits10@?$numeric_limits@M@std@@2HB DD 09H	; std::numeric_limits<float>::max_digits10
CONST	ENDS
;	COMDAT ?digits10@?$numeric_limits@M@std@@2HB
CONST	SEGMENT
?digits10@?$numeric_limits@M@std@@2HB DD 06H		; std::numeric_limits<float>::digits10
CONST	ENDS
;	COMDAT ?digits@?$numeric_limits@M@std@@2HB
CONST	SEGMENT
?digits@?$numeric_limits@M@std@@2HB DD 018H		; std::numeric_limits<float>::digits
CONST	ENDS
;	COMDAT ?digits10@?$numeric_limits@_K@std@@2HB
CONST	SEGMENT
?digits10@?$numeric_limits@_K@std@@2HB DD 013H		; std::numeric_limits<unsigned __int64>::digits10
CONST	ENDS
_DATA	SEGMENT
?CollectRad@@3PAHA DD 00H				; CollectRad
	DD	014H
	DD	028H
	DD	028H
	DD	050H
	DD	096H
	DD	064H
	ORG $+4
_cloudPntList DD 0c5bcc000r			; -6040
	DD	0c4070000r			; -540
	DD	0c694ac00r			; -19030
	DD	0c6de1c00r			; -28430
	DD	0c4dfc000r			; -1790
	DD	046dcc800r			; 28260
	DD	047104200r			; 36930
	DD	045732000r			; 3890
	DD	04744ea00r			; 50410
	DD	045336000r			; 2870
	DD	0c4d48000r			; -1700
	DD	04736da00r			; 46810
	DD	0c763ee00r			; -58350
	DD	0c4d48000r			; -1700
	DD	0c64c1000r			; -13060
	DD	046f2bc00r			; 31070
	DD	045480000r			; 3200
	DD	0c7293800r			; -43320
	DD	0c7bdc400r			; -97160
	DD	0c4d48000r			; -1700
	DD	04576e000r			; 3950
	DD	0c792e000r			; -75200
	DD	0c4bb8000r			; -1500
	DD	047957400r			; 76520
	DD	04759ee00r			; 55790
	DD	0c5a1e000r			; -5180
	DD	0c7a24e00r			; -83100
	DD	0c7473800r			; -51000
	DD	0c3a00000r			; -320
	DD	0c7829100r			; -66850
	DD	047733400r			; 62260
	DD	0c3a00000r			; -320
	DD	047708200r			; 61570
	DD	0c7710e00r			; -61710
	DD	0c550c000r			; -3340
	DD	046fb7c00r			; 32190
	DD	0c7719a00r			; -61850
	DD	0c7483200r			; -51250
	DD	047543a00r			; 54330
	DD	0c5bcc000r			; -6040
	DD	0c7495400r			; -51540
	DD	0c694ac00r			; -19030
	DD	0c6a7a800r			; -21460
	DD	0c74b0200r			; -51970
	DD	0468e8000r			; 18240
	DD	047298800r			; 43400
	DD	0c74bf200r			; -52210
	DD	046bc7000r			; 24120
	DD	0c749f400r			; -51700
	DD	0c74bc000r			; -52160
	DD	046948400r			; 19010
	DD	0c605e800r			; -8570
	DD	0c7488200r			; -51330
	DD	0c74ca600r			; -52390
	DD	04731bc00r			; 45500
	DD	0c7509800r			; -53400
	DD	0c6725800r			; -15510
	DD	0c7719a00r			; -61850
	DD	0c7483200r			; -51250
	DD	047543a00r			; 54330
	DD	047553400r			; 54580
	DD	0c74ddc00r			; -52700
	DD	0479a5600r			; 79020
	DD	047a7e400r			; 85960
	DD	0c74c5600r			; -52310
	DD	0477d4800r			; 64840
	DD	0c7c44500r			; -100490
	DD	0c74d1400r			; -52500
	DD	047ac2600r			; 88140
	DD	0c7a1ae00r			; -82780
	DD	0c749ea00r			; -51690
	DD	0c7bce300r			; -96710
	DD	0c6126800r			; -9370
	DD	0c7495400r			; -51540
	DD	043cd0000r			; 410
	DD	0c6a7a800r			; -21460
	DD	0c74a8a00r			; -51850
	DD	0473fae00r			; 49070
	DD	0457c8000r			; 4040
	DD	0c74e4a00r			; -52810
	DD	047871e00r			; 69180
	DD	0c6cbc000r			; -26080
	DD	0c74bc000r			; -52160
	DD	046984400r			; 19490
	DD	0452fa000r			; 2810
	DD	0c7488200r			; -51330
	DD	0c7081800r			; -34840
	DD	0c7719a00r			; -61850
	DD	0c749d600r			; -51670
	DD	047b17600r			; 90860
	DD	047553400r			; 54580
	DD	0c74ddc00r			; -52700
	DD	0479a5600r			; 79020
	DD	047a7e400r			; 85960
	DD	0c74c5600r			; -52310
	DD	0477d4800r			; 64840
	DD	0c7c44500r			; -100490
	DD	0c74d1400r			; -52500
	DD	047ac2600r			; 88140
	DD	047c04e00r			; 98460
	DD	0c74d1400r			; -52500
	DD	0c732a200r			; -45730
	DD	0467b9000r			; 16100
	DD	0c7487800r			; -51320
	DD	0c749a400r			; -51620
	DD	047636c00r			; 58220
	DD	0c74e0400r			; -52740
	DD	0c760b000r			; -57520
	DD	0c6126800r			; -9370
	DD	0c4070000r			; -540
	DD	043cd0000r			; 410
	DD	0c4e60000r			; -1840
	DD	0c6a30c00r			; -20870
	DD	0470a6600r			; 35430
	DD	0c7230c00r			; -41740
	DD	046924000r			; 18720
	DD	04797d600r			; 77740
	DD	0460d9000r			; 9060
	DD	0c616c800r			; -9650
	DD	0c7921300r			; -74790
_lightningPosList DD 041300000r			; 11
	DD	000000000r			; 0
	DD	040e00000r			; 7
	DD	040a00000r			; 5
	DD	041100000r			; 9
	DD	041000000r			; 8
	DD	041000000r			; 8
	DD	041600000r			; 14
	DD	041800000r			; 16
	DD	041a00000r			; 20
	DD	041200000r			; 10
	DD	041c00000r			; 24
	DD	041300000r			; 11
	DD	041d80000r			; 27
	DD	040c00000r			; 6
	DD	041f00000r			; 30
	DD	040e00000r			; 7
	DD	042040000r			; 33
	DD	03f800000r			; 1
	DD	042180000r			; 38
	DD	040a00000r			; 5
	DD	042280000r			; 42
	DD	040a00000r			; 5
	DD	042340000r			; 45
	DD	041400000r			; 12
	DD	042400000r			; 48
	DD	041a00000r			; 20
	DD	042500000r			; 52
	DD	041a00000r			; 20
	DD	042680000r			; 58
	DD	041b80000r			; 23
	DD	042740000r			; 61
	DD	041b00000r			; 22
	DD	0427c0000r			; 63
	DD	041b00000r			; 22
	DD	042840000r			; 66
	DD	041c80000r			; 25
	DD	042880000r			; 68
	DD	041a00000r			; 20
	DD	0428c0000r			; 70
	DD	041c00000r			; 24
	DD	042960000r			; 75
	DD	041c00000r			; 24
	DD	0429a0000r			; 77
	DD	041f80000r			; 31
	DD	042a00000r			; 80
	DD	041f80000r			; 31
	DD	042a60000r			; 83
	DD	042040000r			; 33
	DD	042b00000r			; 88
	DD	041f80000r			; 31
	DD	042b80000r			; 92
	DD	0423c0000r			; 47
	DD	042ce0000r			; 103
	DD	042380000r			; 46
	DD	042d20000r			; 105
	DD	0423c0000r			; 47
	DD	042d60000r			; 107
	DD	042340000r			; 45
	DD	042e00000r			; 112
	DD	042400000r			; 48
	DD	042e40000r			; 114
	DD	042380000r			; 46
	DD	042ea0000r			; 117
	DD	0422c0000r			; 43
	DD	043000000r			; 128
_DATA	ENDS
;	COMDAT ?digits@?$numeric_limits@_K@std@@2HB
CONST	SEGMENT
?digits@?$numeric_limits@_K@std@@2HB DD 040H		; std::numeric_limits<unsigned __int64>::digits
CONST	ENDS
;	COMDAT ?is_signed@?$numeric_limits@_K@std@@2_NB
CONST	SEGMENT
?is_signed@?$numeric_limits@_K@std@@2_NB DB 00H		; std::numeric_limits<unsigned __int64>::is_signed
CONST	ENDS
;	COMDAT ?_Stream_err@failure@ios_base@std@@0W4io_errc@43@B
CONST	SEGMENT
?_Stream_err@failure@ios_base@std@@0W4io_errc@43@B DD 01H ; std::ios_base::failure::_Stream_err
CONST	ENDS
;	COMDAT ?digits10@?$numeric_limits@_J@std@@2HB
CONST	SEGMENT
?digits10@?$numeric_limits@_J@std@@2HB DD 012H		; std::numeric_limits<__int64>::digits10
CONST	ENDS
;	COMDAT ?digits@?$numeric_limits@_J@std@@2HB
CONST	SEGMENT
?digits@?$numeric_limits@_J@std@@2HB DD 03fH		; std::numeric_limits<__int64>::digits
CONST	ENDS
;	COMDAT ?is_signed@?$numeric_limits@_J@std@@2_NB
CONST	SEGMENT
?is_signed@?$numeric_limits@_J@std@@2_NB DB 01H		; std::numeric_limits<__int64>::is_signed
CONST	ENDS
;	COMDAT ?end@?$_Iosb@H@std@@2W4_Seekdir@12@B
CONST	SEGMENT
?end@?$_Iosb@H@std@@2W4_Seekdir@12@B DD 02H		; std::_Iosb<int>::end
CONST	ENDS
;	COMDAT ?cur@?$_Iosb@H@std@@2W4_Seekdir@12@B
CONST	SEGMENT
?cur@?$_Iosb@H@std@@2W4_Seekdir@12@B DD 01H		; std::_Iosb<int>::cur
CONST	ENDS
;	COMDAT ?beg@?$_Iosb@H@std@@2W4_Seekdir@12@B
CONST	SEGMENT
?beg@?$_Iosb@H@std@@2W4_Seekdir@12@B DD 00H		; std::_Iosb<int>::beg
CONST	ENDS
;	COMDAT ?binary@?$_Iosb@H@std@@2W4_Openmode@12@B
CONST	SEGMENT
?binary@?$_Iosb@H@std@@2W4_Openmode@12@B DD 020H	; std::_Iosb<int>::binary
CONST	ENDS
;	COMDAT ?_Noreplace@?$_Iosb@H@std@@2W4_Openmode@12@B
CONST	SEGMENT
?_Noreplace@?$_Iosb@H@std@@2W4_Openmode@12@B DD 080H	; std::_Iosb<int>::_Noreplace
CONST	ENDS
;	COMDAT ?_Nocreate@?$_Iosb@H@std@@2W4_Openmode@12@B
CONST	SEGMENT
?_Nocreate@?$_Iosb@H@std@@2W4_Openmode@12@B DD 040H	; std::_Iosb<int>::_Nocreate
CONST	ENDS
;	COMDAT ?trunc@?$_Iosb@H@std@@2W4_Openmode@12@B
CONST	SEGMENT
?trunc@?$_Iosb@H@std@@2W4_Openmode@12@B DD 010H		; std::_Iosb<int>::trunc
CONST	ENDS
;	COMDAT ?app@?$_Iosb@H@std@@2W4_Openmode@12@B
CONST	SEGMENT
?app@?$_Iosb@H@std@@2W4_Openmode@12@B DD 08H		; std::_Iosb<int>::app
CONST	ENDS
;	COMDAT ?ate@?$_Iosb@H@std@@2W4_Openmode@12@B
CONST	SEGMENT
?ate@?$_Iosb@H@std@@2W4_Openmode@12@B DD 04H		; std::_Iosb<int>::ate
CONST	ENDS
;	COMDAT ?digits10@?$numeric_limits@K@std@@2HB
CONST	SEGMENT
?digits10@?$numeric_limits@K@std@@2HB DD 09H		; std::numeric_limits<unsigned long>::digits10
CONST	ENDS
;	COMDAT ?out@?$_Iosb@H@std@@2W4_Openmode@12@B
CONST	SEGMENT
?out@?$_Iosb@H@std@@2W4_Openmode@12@B DD 02H		; std::_Iosb<int>::out
CONST	ENDS
;	COMDAT ?digits@?$numeric_limits@K@std@@2HB
CONST	SEGMENT
?digits@?$numeric_limits@K@std@@2HB DD 020H		; std::numeric_limits<unsigned long>::digits
CONST	ENDS
;	COMDAT ?in@?$_Iosb@H@std@@2W4_Openmode@12@B
CONST	SEGMENT
?in@?$_Iosb@H@std@@2W4_Openmode@12@B DD 01H		; std::_Iosb<int>::in
CONST	ENDS
;	COMDAT ?is_signed@?$numeric_limits@K@std@@2_NB
CONST	SEGMENT
?is_signed@?$numeric_limits@K@std@@2_NB DB 00H		; std::numeric_limits<unsigned long>::is_signed
CONST	ENDS
;	COMDAT ?_Hardfail@?$_Iosb@H@std@@2W4_Iostate@12@B
CONST	SEGMENT
?_Hardfail@?$_Iosb@H@std@@2W4_Iostate@12@B DD 010H	; std::_Iosb<int>::_Hardfail
CONST	ENDS
;	COMDAT ?badbit@?$_Iosb@H@std@@2W4_Iostate@12@B
CONST	SEGMENT
?badbit@?$_Iosb@H@std@@2W4_Iostate@12@B DD 04H		; std::_Iosb<int>::badbit
CONST	ENDS
;	COMDAT ?failbit@?$_Iosb@H@std@@2W4_Iostate@12@B
CONST	SEGMENT
?failbit@?$_Iosb@H@std@@2W4_Iostate@12@B DD 02H		; std::_Iosb<int>::failbit
CONST	ENDS
;	COMDAT ?eofbit@?$_Iosb@H@std@@2W4_Iostate@12@B
CONST	SEGMENT
?eofbit@?$_Iosb@H@std@@2W4_Iostate@12@B DD 01H		; std::_Iosb<int>::eofbit
CONST	ENDS
;	COMDAT ?goodbit@?$_Iosb@H@std@@2W4_Iostate@12@B
CONST	SEGMENT
?goodbit@?$_Iosb@H@std@@2W4_Iostate@12@B DD 00H		; std::_Iosb<int>::goodbit
CONST	ENDS
;	COMDAT ?floatfield@?$_Iosb@H@std@@2W4_Fmtflags@12@B
CONST	SEGMENT
?floatfield@?$_Iosb@H@std@@2W4_Fmtflags@12@B DD 03000H	; std::_Iosb<int>::floatfield
CONST	ENDS
;	COMDAT ?basefield@?$_Iosb@H@std@@2W4_Fmtflags@12@B
CONST	SEGMENT
?basefield@?$_Iosb@H@std@@2W4_Fmtflags@12@B DD 0e00H	; std::_Iosb<int>::basefield
CONST	ENDS
;	COMDAT ?adjustfield@?$_Iosb@H@std@@2W4_Fmtflags@12@B
CONST	SEGMENT
?adjustfield@?$_Iosb@H@std@@2W4_Fmtflags@12@B DD 01c0H	; std::_Iosb<int>::adjustfield
CONST	ENDS
;	COMDAT ?_Stdio@?$_Iosb@H@std@@2W4_Fmtflags@12@B
CONST	SEGMENT
?_Stdio@?$_Iosb@H@std@@2W4_Fmtflags@12@B DD 08000H	; std::_Iosb<int>::_Stdio
CONST	ENDS
;	COMDAT ?digits10@?$numeric_limits@J@std@@2HB
CONST	SEGMENT
?digits10@?$numeric_limits@J@std@@2HB DD 09H		; std::numeric_limits<long>::digits10
CONST	ENDS
;	COMDAT ?boolalpha@?$_Iosb@H@std@@2W4_Fmtflags@12@B
CONST	SEGMENT
?boolalpha@?$_Iosb@H@std@@2W4_Fmtflags@12@B DD 04000H	; std::_Iosb<int>::boolalpha
CONST	ENDS
;	COMDAT ?hexfloat@?$_Iosb@H@std@@2W4_Fmtflags@12@B
CONST	SEGMENT
?hexfloat@?$_Iosb@H@std@@2W4_Fmtflags@12@B DD 03000H	; std::_Iosb<int>::hexfloat
CONST	ENDS
;	COMDAT ?digits@?$numeric_limits@J@std@@2HB
CONST	SEGMENT
?digits@?$numeric_limits@J@std@@2HB DD 01fH		; std::numeric_limits<long>::digits
CONST	ENDS
;	COMDAT ?fixed@?$_Iosb@H@std@@2W4_Fmtflags@12@B
CONST	SEGMENT
?fixed@?$_Iosb@H@std@@2W4_Fmtflags@12@B DD 02000H	; std::_Iosb<int>::fixed
CONST	ENDS
;	COMDAT ?is_signed@?$numeric_limits@J@std@@2_NB
CONST	SEGMENT
?is_signed@?$numeric_limits@J@std@@2_NB DB 01H		; std::numeric_limits<long>::is_signed
CONST	ENDS
;	COMDAT ?scientific@?$_Iosb@H@std@@2W4_Fmtflags@12@B
CONST	SEGMENT
?scientific@?$_Iosb@H@std@@2W4_Fmtflags@12@B DD 01000H	; std::_Iosb<int>::scientific
CONST	ENDS
;	COMDAT ?hex@?$_Iosb@H@std@@2W4_Fmtflags@12@B
CONST	SEGMENT
?hex@?$_Iosb@H@std@@2W4_Fmtflags@12@B DD 0800H		; std::_Iosb<int>::hex
CONST	ENDS
;	COMDAT ?oct@?$_Iosb@H@std@@2W4_Fmtflags@12@B
CONST	SEGMENT
?oct@?$_Iosb@H@std@@2W4_Fmtflags@12@B DD 0400H		; std::_Iosb<int>::oct
CONST	ENDS
;	COMDAT ?dec@?$_Iosb@H@std@@2W4_Fmtflags@12@B
CONST	SEGMENT
?dec@?$_Iosb@H@std@@2W4_Fmtflags@12@B DD 0200H		; std::_Iosb<int>::dec
CONST	ENDS
;	COMDAT ?internal@?$_Iosb@H@std@@2W4_Fmtflags@12@B
CONST	SEGMENT
?internal@?$_Iosb@H@std@@2W4_Fmtflags@12@B DD 0100H	; std::_Iosb<int>::internal
CONST	ENDS
;	COMDAT ?right@?$_Iosb@H@std@@2W4_Fmtflags@12@B
CONST	SEGMENT
?right@?$_Iosb@H@std@@2W4_Fmtflags@12@B DD 080H		; std::_Iosb<int>::right
CONST	ENDS
;	COMDAT ?left@?$_Iosb@H@std@@2W4_Fmtflags@12@B
CONST	SEGMENT
?left@?$_Iosb@H@std@@2W4_Fmtflags@12@B DD 040H		; std::_Iosb<int>::left
CONST	ENDS
;	COMDAT ?showpos@?$_Iosb@H@std@@2W4_Fmtflags@12@B
CONST	SEGMENT
?showpos@?$_Iosb@H@std@@2W4_Fmtflags@12@B DD 020H	; std::_Iosb<int>::showpos
CONST	ENDS
;	COMDAT ?showpoint@?$_Iosb@H@std@@2W4_Fmtflags@12@B
CONST	SEGMENT
?showpoint@?$_Iosb@H@std@@2W4_Fmtflags@12@B DD 010H	; std::_Iosb<int>::showpoint
CONST	ENDS
;	COMDAT ?showbase@?$_Iosb@H@std@@2W4_Fmtflags@12@B
CONST	SEGMENT
?showbase@?$_Iosb@H@std@@2W4_Fmtflags@12@B DD 08H	; std::_Iosb<int>::showbase
CONST	ENDS
;	COMDAT ?digits10@?$numeric_limits@I@std@@2HB
CONST	SEGMENT
?digits10@?$numeric_limits@I@std@@2HB DD 09H		; std::numeric_limits<unsigned int>::digits10
CONST	ENDS
;	COMDAT ?uppercase@?$_Iosb@H@std@@2W4_Fmtflags@12@B
CONST	SEGMENT
?uppercase@?$_Iosb@H@std@@2W4_Fmtflags@12@B DD 04H	; std::_Iosb<int>::uppercase
CONST	ENDS
;	COMDAT ?unitbuf@?$_Iosb@H@std@@2W4_Fmtflags@12@B
CONST	SEGMENT
?unitbuf@?$_Iosb@H@std@@2W4_Fmtflags@12@B DD 02H	; std::_Iosb<int>::unitbuf
CONST	ENDS
;	COMDAT ?digits@?$numeric_limits@I@std@@2HB
CONST	SEGMENT
?digits@?$numeric_limits@I@std@@2HB DD 020H		; std::numeric_limits<unsigned int>::digits
CONST	ENDS
;	COMDAT ?skipws@?$_Iosb@H@std@@2W4_Fmtflags@12@B
CONST	SEGMENT
?skipws@?$_Iosb@H@std@@2W4_Fmtflags@12@B DD 01H		; std::_Iosb<int>::skipws
CONST	ENDS
;	COMDAT ?is_signed@?$numeric_limits@I@std@@2_NB
CONST	SEGMENT
?is_signed@?$numeric_limits@I@std@@2_NB DB 00H		; std::numeric_limits<unsigned int>::is_signed
CONST	ENDS
;	COMDAT ?digits10@?$numeric_limits@H@std@@2HB
CONST	SEGMENT
?digits10@?$numeric_limits@H@std@@2HB DD 09H		; std::numeric_limits<int>::digits10
CONST	ENDS
;	COMDAT ?digits@?$numeric_limits@H@std@@2HB
CONST	SEGMENT
?digits@?$numeric_limits@H@std@@2HB DD 01fH		; std::numeric_limits<int>::digits
CONST	ENDS
;	COMDAT ?value@?$_Sizeof@HU_Nil@std@@U12@U12@U12@U12@U12@U12@@std@@2IB
CONST	SEGMENT
?value@?$_Sizeof@HU_Nil@std@@U12@U12@U12@U12@U12@U12@@std@@2IB DD 01H ; std::_Sizeof<int,std::_Nil,std::_Nil,std::_Nil,std::_Nil,std::_Nil,std::_Nil,std::_Nil>::value
CONST	ENDS
;	COMDAT ?is_signed@?$numeric_limits@H@std@@2_NB
CONST	SEGMENT
?is_signed@?$numeric_limits@H@std@@2_NB DB 01H		; std::numeric_limits<int>::is_signed
CONST	ENDS
;	COMDAT ?value@?$integral_constant@_N$00@std@@2_NB
CONST	SEGMENT
?value@?$integral_constant@_N$00@std@@2_NB DB 01H	; std::integral_constant<bool,1>::value
CONST	ENDS
;	COMDAT ?digits10@?$numeric_limits@G@std@@2HB
CONST	SEGMENT
?digits10@?$numeric_limits@G@std@@2HB DD 04H		; std::numeric_limits<unsigned short>::digits10
CONST	ENDS
;	COMDAT ?digits@?$numeric_limits@G@std@@2HB
CONST	SEGMENT
?digits@?$numeric_limits@G@std@@2HB DD 010H		; std::numeric_limits<unsigned short>::digits
CONST	ENDS
PUBLIC	??_H@YGXPAXIHP6EPAX0@Z@Z			; `vector constructor iterator'
PUBLIC	_fabsf
PUBLIC	?fabs@@YAMM@Z					; fabs
PUBLIC	__tcsnccpy
PUBLIC	??0VU_SESSION_ID@@QAE@XZ			; VU_SESSION_ID::VU_SESSION_ID
PUBLIC	??0VU_SESSION_ID@@QAE@K@Z			; VU_SESSION_ID::VU_SESSION_ID
PUBLIC	??8VU_SESSION_ID@@QBEHABV0@@Z			; VU_SESSION_ID::operator==
PUBLIC	??BVU_SESSION_ID@@QBEKXZ			; VU_SESSION_ID::operator unsigned long
PUBLIC	??0VU_ID@@QAE@XZ				; VU_ID::VU_ID
PUBLIC	??8VU_ID@@QBE_NABV0@@Z				; VU_ID::operator==
PUBLIC	??9VU_ID@@QBE_NABV0@@Z				; VU_ID::operator!=
PUBLIC	??BVU_ID@@QBEKXZ				; VU_ID::operator unsigned long
PUBLIC	?Id@VuEntity@@QBE?AVVU_ID@@XZ			; VuEntity::Id
PUBLIC	?SetSendCreate@VuEntity@@QAEXW4VU_SEND_TYPE@1@@Z ; VuEntity::SetSendCreate
PUBLIC	?OwnerId@VuEntity@@QBE?AVVU_ID@@XZ		; VuEntity::OwnerId
PUBLIC	?VuState@VuEntity@@QBE?AW4VU_MEM@@XZ		; VuEntity::VuState
PUBLIC	?Type@VuEntity@@QBEGXZ				; VuEntity::Type
PUBLIC	?XPos@VuEntity@@QBEMXZ				; VuEntity::XPos
PUBLIC	?YPos@VuEntity@@QBEMXZ				; VuEntity::YPos
PUBLIC	?ZPos@VuEntity@@QBEMXZ				; VuEntity::ZPos
PUBLIC	?Yaw@VuEntity@@QBEMXZ				; VuEntity::Yaw
PUBLIC	?EntityType@VuEntity@@QBEPAUVuEntityType@@XZ	; VuEntity::EntityType
PUBLIC	??2@YAPAXIPAX@Z					; operator new
PUBLIC	??3@YAXPAX0@Z					; operator delete
PUBLIC	?length@?$char_traits@D@std@@SAIPBD@Z		; std::char_traits<char>::length
PUBLIC	?copy@?$char_traits@D@std@@SAPADPADPBDI@Z	; std::char_traits<char>::copy
PUBLIC	?move@?$char_traits@D@std@@SAPADPADPBDI@Z	; std::char_traits<char>::move
PUBLIC	?assign@?$char_traits@D@std@@SAXAADABD@Z	; std::char_traits<char>::assign
PUBLIC	??0logic_error@std@@QAE@PBD@Z			; std::logic_error::logic_error
PUBLIC	??1logic_error@std@@UAE@XZ			; std::logic_error::~logic_error
PUBLIC	??0logic_error@std@@QAE@ABV01@@Z		; std::logic_error::logic_error
PUBLIC	??_Glogic_error@std@@UAEPAXI@Z			; std::logic_error::`scalar deleting destructor'
PUBLIC	??0?$allocator@D@std@@QAE@XZ			; std::allocator<char>::allocator<char>
PUBLIC	?deallocate@?$allocator@D@std@@QAEXPADI@Z	; std::allocator<char>::deallocate
PUBLIC	?allocate@?$allocator@D@std@@QAEPADI@Z		; std::allocator<char>::allocate
PUBLIC	?max_size@?$allocator@D@std@@QBEIXZ		; std::allocator<char>::max_size
PUBLIC	?max_size@?$allocator_traits@V?$allocator@D@std@@@std@@SAIABV?$allocator@D@2@@Z ; std::allocator_traits<std::allocator<char> >::max_size
PUBLIC	??0?$_Wrap_alloc@V?$allocator@D@std@@@std@@QAE@XZ ; std::_Wrap_alloc<std::allocator<char> >::_Wrap_alloc<std::allocator<char> >
PUBLIC	?allocate@?$_Wrap_alloc@V?$allocator@D@std@@@std@@QAEPADI@Z ; std::_Wrap_alloc<std::allocator<char> >::allocate
PUBLIC	?deallocate@?$_Wrap_alloc@V?$allocator@D@std@@@std@@QAEXPADI@Z ; std::_Wrap_alloc<std::allocator<char> >::deallocate
PUBLIC	?max_size@?$_Wrap_alloc@V?$allocator@D@std@@@std@@QBEIXZ ; std::_Wrap_alloc<std::allocator<char> >::max_size
PUBLIC	??0?$_String_val@U?$_Simple_types@D@std@@@std@@QAE@XZ ; std::_String_val<std::_Simple_types<char> >::_String_val<std::_Simple_types<char> >
PUBLIC	?_Myptr@?$_String_val@U?$_Simple_types@D@std@@@std@@QAEPADXZ ; std::_String_val<std::_Simple_types<char> >::_Myptr
PUBLIC	?_Myptr@?$_String_val@U?$_Simple_types@D@std@@@std@@QBEPBDXZ ; std::_String_val<std::_Simple_types<char> >::_Myptr
PUBLIC	??0?$_String_alloc@$0A@U?$_String_base_types@DV?$allocator@D@std@@@std@@@std@@QAE@ABV?$allocator@D@1@@Z ; std::_String_alloc<0,std::_String_base_types<char,std::allocator<char> > >::_String_alloc<0,std::_String_base_types<char,std::allocator<char> > >
PUBLIC	?_Getal@?$_String_alloc@$0A@U?$_String_base_types@DV?$allocator@D@std@@@std@@@std@@QBE?AU?$_Wrap_alloc@V?$allocator@D@std@@@2@XZ ; std::_String_alloc<0,std::_String_base_types<char,std::allocator<char> > >::_Getal
PUBLIC	??0?$basic_string@DU?$char_traits@D@std@@V?$allocator@D@2@@std@@QAE@PBD@Z ; std::basic_string<char,std::char_traits<char>,std::allocator<char> >::basic_string<char,std::char_traits<char>,std::allocator<char> >
PUBLIC	??1?$basic_string@DU?$char_traits@D@std@@V?$allocator@D@2@@std@@QAE@XZ ; std::basic_string<char,std::char_traits<char>,std::allocator<char> >::~basic_string<char,std::char_traits<char>,std::allocator<char> >
PUBLIC	?assign@?$basic_string@DU?$char_traits@D@std@@V?$allocator@D@2@@std@@QAEAAV12@ABV12@II@Z ; std::basic_string<char,std::char_traits<char>,std::allocator<char> >::assign
PUBLIC	?assign@?$basic_string@DU?$char_traits@D@std@@V?$allocator@D@2@@std@@QAEAAV12@PBDI@Z ; std::basic_string<char,std::char_traits<char>,std::allocator<char> >::assign
PUBLIC	?assign@?$basic_string@DU?$char_traits@D@std@@V?$allocator@D@2@@std@@QAEAAV12@PBD@Z ; std::basic_string<char,std::char_traits<char>,std::allocator<char> >::assign
PUBLIC	?erase@?$basic_string@DU?$char_traits@D@std@@V?$allocator@D@2@@std@@QAEAAV12@I@Z ; std::basic_string<char,std::char_traits<char>,std::allocator<char> >::erase
PUBLIC	?erase@?$basic_string@DU?$char_traits@D@std@@V?$allocator@D@2@@std@@QAEAAV12@II@Z ; std::basic_string<char,std::char_traits<char>,std::allocator<char> >::erase
PUBLIC	?c_str@?$basic_string@DU?$char_traits@D@std@@V?$allocator@D@2@@std@@QBEPBDXZ ; std::basic_string<char,std::char_traits<char>,std::allocator<char> >::c_str
PUBLIC	?size@?$basic_string@DU?$char_traits@D@std@@V?$allocator@D@2@@std@@QBEIXZ ; std::basic_string<char,std::char_traits<char>,std::allocator<char> >::size
PUBLIC	?max_size@?$basic_string@DU?$char_traits@D@std@@V?$allocator@D@2@@std@@QBEIXZ ; std::basic_string<char,std::char_traits<char>,std::allocator<char> >::max_size
PUBLIC	?_Copy@?$basic_string@DU?$char_traits@D@std@@V?$allocator@D@2@@std@@QAEXII@Z ; std::basic_string<char,std::char_traits<char>,std::allocator<char> >::_Copy
PUBLIC	?_Eos@?$basic_string@DU?$char_traits@D@std@@V?$allocator@D@2@@std@@QAEXI@Z ; std::basic_string<char,std::char_traits<char>,std::allocator<char> >::_Eos
PUBLIC	?_Grow@?$basic_string@DU?$char_traits@D@std@@V?$allocator@D@2@@std@@QAE_NI_N@Z ; std::basic_string<char,std::char_traits<char>,std::allocator<char> >::_Grow
PUBLIC	?_Inside@?$basic_string@DU?$char_traits@D@std@@V?$allocator@D@2@@std@@QAE_NPBD@Z ; std::basic_string<char,std::char_traits<char>,std::allocator<char> >::_Inside
PUBLIC	?_Tidy@?$basic_string@DU?$char_traits@D@std@@V?$allocator@D@2@@std@@QAEX_NI@Z ; std::basic_string<char,std::char_traits<char>,std::allocator<char> >::_Tidy
PUBLIC	?_Xlen@?$basic_string@DU?$char_traits@D@std@@V?$allocator@D@2@@std@@QBEXXZ ; std::basic_string<char,std::char_traits<char>,std::allocator<char> >::_Xlen
PUBLIC	?_Xran@?$basic_string@DU?$char_traits@D@std@@V?$allocator@D@2@@std@@QBEXXZ ; std::basic_string<char,std::char_traits<char>,std::allocator<char> >::_Xran
PUBLIC	??0out_of_range@std@@QAE@ABV?$basic_string@DU?$char_traits@D@std@@V?$allocator@D@2@@1@@Z ; std::out_of_range::out_of_range
PUBLIC	??1out_of_range@std@@UAE@XZ			; std::out_of_range::~out_of_range
PUBLIC	??0out_of_range@std@@QAE@ABV01@@Z		; std::out_of_range::out_of_range
PUBLIC	??_Gout_of_range@std@@UAEPAXI@Z			; std::out_of_range::`scalar deleting destructor'
PUBLIC	??B?$VuBin@VVuSessionEntity@@@@QBE_NXZ		; VuBin<VuSessionEntity>::operator bool
PUBLIC	??C?$VuBin@VVuSessionEntity@@@@QBEPAVVuSessionEntity@@XZ ; VuBin<VuSessionEntity>::operator->
PUBLIC	?get@?$VuBin@VVuSessionEntity@@@@QBEPAVVuSessionEntity@@XZ ; VuBin<VuSessionEntity>::get
PUBLIC	?get@?$VuBin@VVuEntity@@@@QBEPAVVuEntity@@XZ	; VuBin<VuEntity>::get
PUBLIC	?IsSimBase@FalconEntity@@UAE_NXZ		; FalconEntity::IsSimBase
PUBLIC	?IsCampaign@FalconEntity@@QAEHXZ		; FalconEntity::IsCampaign
PUBLIC	?IsSim@FalconEntity@@QAEHXZ			; FalconEntity::IsSim
PUBLIC	?IsSetFalcFlag@FalconEntity@@QAEHH@Z		; FalconEntity::IsSetFalcFlag
PUBLIC	?GetRadarMode@FalconEntity@@UAEHXZ		; FalconEntity::GetRadarMode
PUBLIC	?SetRadarMode@FalconEntity@@UAEXE@Z		; FalconEntity::SetRadarMode
PUBLIC	?ReturnToSearch@FalconEntity@@UAEXXZ		; FalconEntity::ReturnToSearch
PUBLIC	?SetSearchMode@FalconEntity@@UAEXE@Z		; FalconEntity::SetSearchMode
PUBLIC	?CombatClass@FalconEntity@@UAEHXZ		; FalconEntity::CombatClass
PUBLIC	?IsMissile@FalconEntity@@UAEHXZ			; FalconEntity::IsMissile
PUBLIC	?IsLauncher@FalconEntity@@UAEHXZ		; FalconEntity::IsLauncher
PUBLIC	?IsBomb@FalconEntity@@UAEHXZ			; FalconEntity::IsBomb
PUBLIC	?IsGun@FalconEntity@@UAEHXZ			; FalconEntity::IsGun
PUBLIC	?IsMover@FalconEntity@@UAEHXZ			; FalconEntity::IsMover
PUBLIC	?IsVehicle@FalconEntity@@UAEHXZ			; FalconEntity::IsVehicle
PUBLIC	?IsStatic@FalconEntity@@UAEHXZ			; FalconEntity::IsStatic
PUBLIC	?IsHelicopter@FalconEntity@@UAEHXZ		; FalconEntity::IsHelicopter
PUBLIC	?IsEject@FalconEntity@@UAEHXZ			; FalconEntity::IsEject
PUBLIC	?IsAirplane@FalconEntity@@UAEHXZ		; FalconEntity::IsAirplane
PUBLIC	?IsGroundVehicle@FalconEntity@@UAEHXZ		; FalconEntity::IsGroundVehicle
PUBLIC	?IsShip@FalconEntity@@UAEHXZ			; FalconEntity::IsShip
PUBLIC	?IsWeapon@FalconEntity@@UAEHXZ			; FalconEntity::IsWeapon
PUBLIC	?IsExploding@FalconEntity@@UAEHXZ		; FalconEntity::IsExploding
PUBLIC	?IsDead@FalconEntity@@UAEHXZ			; FalconEntity::IsDead
PUBLIC	?GetMovementType@FalconEntity@@UAE?AW4MoveType@@XZ ; FalconEntity::GetMovementType
PUBLIC	?IsObjective@FalconEntity@@UAEHXZ		; FalconEntity::IsObjective
PUBLIC	?IsBattalion@FalconEntity@@UAEHXZ		; FalconEntity::IsBattalion
PUBLIC	?IsBrigade@FalconEntity@@UAEHXZ			; FalconEntity::IsBrigade
PUBLIC	?IsFlight@FalconEntity@@UBEHXZ			; FalconEntity::IsFlight
PUBLIC	?IsSquadron@FalconEntity@@UAEHXZ		; FalconEntity::IsSquadron
PUBLIC	?IsPackage@FalconEntity@@UAEHXZ			; FalconEntity::IsPackage
PUBLIC	?IsTeam@FalconEntity@@UAEHXZ			; FalconEntity::IsTeam
PUBLIC	?IsTaskForce@FalconEntity@@UAEHXZ		; FalconEntity::IsTaskForce
PUBLIC	?IsSPJamming@FalconEntity@@UAEHXZ		; FalconEntity::IsSPJamming
PUBLIC	?IsAreaJamming@FalconEntity@@UAEHXZ		; FalconEntity::IsAreaJamming
PUBLIC	?HasSPJamming@FalconEntity@@UAEHXZ		; FalconEntity::HasSPJamming
PUBLIC	?HasAreaJamming@FalconEntity@@UAEHXZ		; FalconEntity::HasAreaJamming
PUBLIC	?GetAltitude@FalconEntity@@QBEHXZ		; FalconEntity::GetAltitude
PUBLIC	?SetAQUIREtimer@FalconEntity@@UAEXK@Z		; FalconEntity::SetAQUIREtimer
PUBLIC	?SetSEARCHtimer@FalconEntity@@UAEXK@Z		; FalconEntity::SetSEARCHtimer
PUBLIC	?SetStepSearchMode@FalconEntity@@UAEXE@Z	; FalconEntity::SetStepSearchMode
PUBLIC	?GetAQUIREtimer@FalconEntity@@UAEKXZ		; FalconEntity::GetAQUIREtimer
PUBLIC	?GetSEARCHtimer@FalconEntity@@UAEKXZ		; FalconEntity::GetSEARCHtimer
PUBLIC	?GetWPTargetID@WayPointClass@@QAE?AVVU_ID@@XZ	; WayPointClass::GetWPTargetID
PUBLIC	?GetWPAction@WayPointClass@@QAEHXZ		; WayPointClass::GetWPAction
PUBLIC	?GetWPFlags@WayPointClass@@QAEKXZ		; WayPointClass::GetWPFlags
PUBLIC	?GetNextWP@WayPointClass@@QAEPAV1@XZ		; WayPointClass::GetNextWP
PUBLIC	?GetPrevWP@WayPointClass@@QAEPAV1@XZ		; WayPointClass::GetPrevWP
PUBLIC	?GetWPArrivalTime@WayPointClass@@QAEKXZ		; WayPointClass::GetWPArrivalTime
PUBLIC	?GetWPDepartureTime@WayPointClass@@QAEKXZ	; WayPointClass::GetWPDepartureTime
PUBLIC	?GetWPLocation@WayPointClass@@QBEXPAF0@Z	; WayPointClass::GetWPLocation
PUBLIC	??0InvalidBufferException@@QAE@ABV?$basic_string@DU?$char_traits@D@std@@V?$allocator@D@2@@std@@@Z ; InvalidBufferException::InvalidBufferException
PUBLIC	??1InvalidBufferException@@UAE@XZ		; InvalidBufferException::~InvalidBufferException
PUBLIC	??0InvalidBufferException@@QAE@ABV0@@Z		; InvalidBufferException::InvalidBufferException
PUBLIC	??_GInvalidBufferException@@UAEPAXI@Z		; InvalidBufferException::`scalar deleting destructor'
PUBLIC	?memcpychk@@YAXPAXPAPAEIPAJ@Z			; memcpychk
PUBLIC	?GetSpotTime@CampBaseClass@@QBEKXZ		; CampBaseClass::GetSpotTime
PUBLIC	?GetSpotted@CampBaseClass@@QBEFXZ		; CampBaseClass::GetSpotted
PUBLIC	?GetBaseFlags@CampBaseClass@@QBEFXZ		; CampBaseClass::GetBaseFlags
PUBLIC	?GetCampId@CampBaseClass@@QBEFXZ		; CampBaseClass::GetCampId
PUBLIC	?GetComponents@CampBaseClass@@QBEPAVTailInsertList@@XZ ; CampBaseClass::GetComponents
PUBLIC	?GetDeagOwner@CampBaseClass@@QBE?AVVU_ID@@XZ	; CampBaseClass::GetDeagOwner
PUBLIC	?OnGround@CampBaseClass@@UAEHXZ			; CampBaseClass::OnGround
PUBLIC	?GetCampID@CampBaseClass@@UAEFXZ		; CampBaseClass::GetCampID
PUBLIC	?GetTeam@CampBaseClass@@UAEEXZ			; CampBaseClass::GetTeam
PUBLIC	?GetCountry@CampBaseClass@@UAEEXZ		; CampBaseClass::GetCountry
PUBLIC	?StepRadar@CampBaseClass@@UAEHHHM@Z		; CampBaseClass::StepRadar
PUBLIC	?GetOwner@CampBaseClass@@QAEEXZ			; CampBaseClass::GetOwner
PUBLIC	?GetMissilesFlying@CampBaseClass@@UAEHXZ	; CampBaseClass::GetMissilesFlying
PUBLIC	?IsCampBase@CampBaseClass@@UAE_NXZ		; CampBaseClass::IsCampBase
PUBLIC	?IsEmitting@CampBaseClass@@UAEHXZ		; CampBaseClass::IsEmitting
PUBLIC	?IsAwake@CampBaseClass@@QAEHXZ			; CampBaseClass::IsAwake
PUBLIC	?InSimLists@CampBaseClass@@QAEHXZ		; CampBaseClass::InSimLists
PUBLIC	?IsAggregate@CampBaseClass@@QAEHXZ		; CampBaseClass::IsAggregate
PUBLIC	?HasEntity@CampBaseClass@@UBEHPAVVuEntity@@@Z	; CampBaseClass::HasEntity
PUBLIC	?GetDomain@CampBaseClass@@QBEEXZ		; CampBaseClass::GetDomain
PUBLIC	?GetType@CampBaseClass@@QBEEXZ			; CampBaseClass::GetType
PUBLIC	?GetSType@CampBaseClass@@QBEEXZ			; CampBaseClass::GetSType
PUBLIC	?GetSPType@CampBaseClass@@QBEEXZ		; CampBaseClass::GetSPType
PUBLIC	?SetSpottedTime@CampBaseClass@@QAEXK@Z		; CampBaseClass::SetSpottedTime
PUBLIC	?get@?$VuBin@VCampBaseClass@@@@QBEPAVCampBaseClass@@XZ ; VuBin<CampBaseClass>::get
PUBLIC	??0SimInitDataClass@@QAE@XZ			; SimInitDataClass::SimInitDataClass
PUBLIC	??0LoadoutStruct@@QAE@XZ			; LoadoutStruct::LoadoutStruct
PUBLIC	?CampEnterCriticalSection@@YAXXZ		; CampEnterCriticalSection
PUBLIC	?CampLeaveCriticalSection@@YAXXZ		; CampLeaveCriticalSection
PUBLIC	?IsOnline@CampaignClass@@QAEHXZ			; CampaignClass::IsOnline
PUBLIC	?GetLastCheck@UnitClass@@QAEKXZ			; UnitClass::GetLastCheck
PUBLIC	?GetRoster@UnitClass@@QAEJXZ			; UnitClass::GetRoster
PUBLIC	?GetUnitFlags@UnitClass@@QAEJXZ			; UnitClass::GetUnitFlags
PUBLIC	?GetDestX@UnitClass@@QAEFXZ			; UnitClass::GetDestX
PUBLIC	?GetDestY@UnitClass@@QAEFXZ			; UnitClass::GetDestY
PUBLIC	?GetTargetId@UnitClass@@QAE?AVVU_ID@@XZ		; UnitClass::GetTargetId
PUBLIC	?GetMoved@UnitClass@@QAEEXZ			; UnitClass::GetMoved
PUBLIC	?GetLosses@UnitClass@@QAEEXZ			; UnitClass::GetLosses
PUBLIC	?GetTactic@UnitClass@@QAEEXZ			; UnitClass::GetTactic
PUBLIC	?GetCurrentWaypoint@UnitClass@@QAEGXZ		; UnitClass::GetCurrentWaypoint
PUBLIC	?GetNameId@UnitClass@@QAEFXZ			; UnitClass::GetNameId
PUBLIC	?SetLastCheck@UnitClass@@QAEXK@Z		; UnitClass::SetLastCheck
PUBLIC	?SetRoster@UnitClass@@QAEXJ@Z			; UnitClass::SetRoster
PUBLIC	?SetUnitFlags@UnitClass@@QAEXJ@Z		; UnitClass::SetUnitFlags
PUBLIC	?SetDestX@UnitClass@@QAEXF@Z			; UnitClass::SetDestX
PUBLIC	?SetDestY@UnitClass@@QAEXF@Z			; UnitClass::SetDestY
PUBLIC	?SetCargoId@UnitClass@@QAEXVVU_ID@@@Z		; UnitClass::SetCargoId
PUBLIC	?SetTargetId@UnitClass@@QAEXVVU_ID@@@Z		; UnitClass::SetTargetId
PUBLIC	?SetMoved@UnitClass@@QAEXE@Z			; UnitClass::SetMoved
PUBLIC	?SetLosses@UnitClass@@QAEXE@Z			; UnitClass::SetLosses
PUBLIC	?SetTactic@UnitClass@@QAEXE@Z			; UnitClass::SetTactic
PUBLIC	?SetCurrentWaypoint@UnitClass@@QAEXG@Z		; UnitClass::SetCurrentWaypoint
PUBLIC	?SetNameId@UnitClass@@QAEXF@Z			; UnitClass::SetNameId
PUBLIC	?SetReinforcement@UnitClass@@QAEXF@Z		; UnitClass::SetReinforcement
PUBLIC	?SetOdds@UnitClass@@QAEXF@Z			; UnitClass::SetOdds
PUBLIC	?MakeWaypointsDirty@UnitClass@@QAEXXZ		; UnitClass::MakeWaypointsDirty
PUBLIC	?MakeUnitDirty@UnitClass@@QAEXW4Dirty_Unit@@W4Dirtyness@@@Z ; UnitClass::MakeUnitDirty
PUBLIC	?WriteDirty@UnitClass@@QAEXPAPAE@Z		; UnitClass::WriteDirty
PUBLIC	?ReadDirty@UnitClass@@QAEXPAPAEPAJ@Z		; UnitClass::ReadDirty
PUBLIC	??0UnitClass@@QAE@GK@Z				; UnitClass::UnitClass
PUBLIC	??0UnitClass@@QAE@PAPAEPAJ@Z			; UnitClass::UnitClass
PUBLIC	??1UnitClass@@UAE@XZ				; UnitClass::~UnitClass
PUBLIC	?SaveSize@UnitClass@@UAEHXZ			; UnitClass::SaveSize
PUBLIC	?Save@UnitClass@@UAEHPAPAE@Z			; UnitClass::Save
PUBLIC	?Handle@UnitClass@@UAEHPAVVuFullUpdateEvent@@@Z	; UnitClass::Handle
PUBLIC	?SendDeaggregateData@UnitClass@@UAEXPAVVuTargetEntity@@@Z ; UnitClass::SendDeaggregateData
PUBLIC	?RecordCurrentState@UnitClass@@UAEHPAVFalconSessionEntity@@H@Z ; UnitClass::RecordCurrentState
PUBLIC	?Deaggregate@UnitClass@@UAEHPAVFalconSessionEntity@@@Z ; UnitClass::Deaggregate
PUBLIC	?Reaggregate@UnitClass@@UAEHPAVFalconSessionEntity@@@Z ; UnitClass::Reaggregate
PUBLIC	?TransferOwnership@UnitClass@@UAEHPAVFalconSessionEntity@@@Z ; UnitClass::TransferOwnership
PUBLIC	?Wake@UnitClass@@UAEHXZ				; UnitClass::Wake
PUBLIC	?Sleep@UnitClass@@UAEHXZ			; UnitClass::Sleep
PUBLIC	?InsertInSimLists@UnitClass@@UAEXMM@Z		; UnitClass::InsertInSimLists
PUBLIC	?RemoveFromSimLists@UnitClass@@UAEXXZ		; UnitClass::RemoveFromSimLists
PUBLIC	?DeaggregateFromData@UnitClass@@UAEXPAEJ@Z	; UnitClass::DeaggregateFromData
PUBLIC	?ReaggregateFromData@UnitClass@@UAEXPAEJ@Z	; UnitClass::ReaggregateFromData
PUBLIC	?TransferOwnershipFromData@UnitClass@@UAEXPAEJ@Z ; UnitClass::TransferOwnershipFromData
PUBLIC	?ResetPlayerStatus@UnitClass@@UAEHXZ		; UnitClass::ResetPlayerStatus
PUBLIC	?ApplyDamage@UnitClass@@UAEHPAVFalconCampWeaponsFire@@E@Z ; UnitClass::ApplyDamage
PUBLIC	?ApplyDamage@UnitClass@@UAEHW4DamageDataType@@PAHHF@Z ; UnitClass::ApplyDamage
PUBLIC	?DecodeDamageData@UnitClass@@UAEHPAEPAV1@PAVFalconDeathMessage@@@Z ; UnitClass::DecodeDamageData
PUBLIC	?CollectWeapons@UnitClass@@UAEHPAEW4MoveType@@QAFQAEH@Z ; UnitClass::CollectWeapons
PUBLIC	?GetDamageModifiers@UnitClass@@UAEPAEXZ		; UnitClass::GetDamageModifiers
PUBLIC	?GetName@UnitClass@@UAEPADPADHH@Z		; UnitClass::GetName
PUBLIC	?GetFullName@UnitClass@@UAEPADPADHH@Z		; UnitClass::GetFullName
PUBLIC	?GetDivisionName@UnitClass@@UAEPADPADHH@Z	; UnitClass::GetDivisionName
PUBLIC	?GetHitChance@UnitClass@@UAEHHH@Z		; UnitClass::GetHitChance
PUBLIC	?GetAproxHitChance@UnitClass@@UAEHHH@Z		; UnitClass::GetAproxHitChance
PUBLIC	?GetCombatStrength@UnitClass@@UAEHHH@Z		; UnitClass::GetCombatStrength
PUBLIC	?GetAproxCombatStrength@UnitClass@@UAEHHH@Z	; UnitClass::GetAproxCombatStrength
PUBLIC	?GetWeaponRange@UnitClass@@UAEHHPAVFalconEntity@@@Z ; UnitClass::GetWeaponRange
PUBLIC	?GetAproxWeaponRange@UnitClass@@UAEHH@Z		; UnitClass::GetAproxWeaponRange
PUBLIC	?GetDetectionRange@UnitClass@@UAEHH@Z		; UnitClass::GetDetectionRange
PUBLIC	?GetElectronicDetectionRange@UnitClass@@UAEHH@Z	; UnitClass::GetElectronicDetectionRange
PUBLIC	?CanDetect@UnitClass@@UAEHPAVFalconEntity@@@Z	; UnitClass::CanDetect
PUBLIC	?GetComponentLocation@UnitClass@@UAEXPAF0H@Z	; UnitClass::GetComponentLocation
PUBLIC	?GetComponentAltitude@UnitClass@@UAEHH@Z	; UnitClass::GetComponentAltitude
PUBLIC	?GetRCSFactor@UnitClass@@UAEMXZ			; UnitClass::GetRCSFactor
PUBLIC	?GetIRFactor@UnitClass@@UAEMXZ			; UnitClass::GetIRFactor
PUBLIC	?GetNumberOfArcs@UnitClass@@UAEHXZ		; UnitClass::GetNumberOfArcs
PUBLIC	?GetArcRatio@UnitClass@@UAEMH@Z			; UnitClass::GetArcRatio
PUBLIC	?GetArcRange@UnitClass@@UAEMH@Z			; UnitClass::GetArcRange
PUBLIC	?GetArcAngle@UnitClass@@UAEXHPAM0@Z		; UnitClass::GetArcAngle
PUBLIC	?GetRadarType@UnitClass@@UAEHXZ			; UnitClass::GetRadarType
PUBLIC	?CanShootWeapon@UnitClass@@UAEHH@Z		; UnitClass::CanShootWeapon
PUBLIC	?GetDeaggregationPoint@UnitClass@@UAEHHPAPAVCampBaseClass@@@Z ; UnitClass::GetDeaggregationPoint
PUBLIC	?GetUnitDeaggregationData@UnitClass@@UAEPAVUnitDeaggregationData@@XZ ; UnitClass::GetUnitDeaggregationData
PUBLIC	?ShouldDeaggregate@UnitClass@@UAEHXZ		; UnitClass::ShouldDeaggregate
PUBLIC	?ClearDeaggregationData@UnitClass@@UAEXXZ	; UnitClass::ClearDeaggregationData
PUBLIC	?Reaction@UnitClass@@UAEHPAVCampBaseClass@@HM@Z	; UnitClass::Reaction
PUBLIC	?MoveUnit@UnitClass@@UAEHK@Z			; UnitClass::MoveUnit
PUBLIC	?DoCombat@UnitClass@@UAEHXZ			; UnitClass::DoCombat
PUBLIC	?ChooseTactic@UnitClass@@UAEHXZ			; UnitClass::ChooseTactic
PUBLIC	?CheckTactic@UnitClass@@UAEHH@Z			; UnitClass::CheckTactic
PUBLIC	?Father@UnitClass@@UBEHXZ			; UnitClass::Father
PUBLIC	?Real@UnitClass@@UAEHXZ				; UnitClass::Real
PUBLIC	?AdjustForSupply@UnitClass@@UAEMXZ		; UnitClass::AdjustForSupply
PUBLIC	?GetUnitSpeed@UnitClass@@UBEHXZ			; UnitClass::GetUnitSpeed
PUBLIC	?DetectOnMove@UnitClass@@UAEHXZ			; UnitClass::DetectOnMove
PUBLIC	?ChooseTarget@UnitClass@@UAEHXZ			; UnitClass::ChooseTarget
PUBLIC	?UpdateTime@UnitClass@@QBEKXZ			; UnitClass::UpdateTime
PUBLIC	?CombatTime@UnitClass@@UAEKXZ			; UnitClass::CombatTime
PUBLIC	?GetUnitSupplyNeed@UnitClass@@UAEHH@Z		; UnitClass::GetUnitSupplyNeed
PUBLIC	?GetUnitFuelNeed@UnitClass@@UAEHH@Z		; UnitClass::GetUnitFuelNeed
PUBLIC	?SupplyUnit@UnitClass@@UAEXHH@Z			; UnitClass::SupplyUnit
PUBLIC	?GetVehicleDeagData@UnitClass@@UAEHPAVSimInitDataClass@@H@Z ; UnitClass::GetVehicleDeagData
PUBLIC	?SendUnitMessage@UnitClass@@QAEXVVU_ID@@FFFF@Z	; UnitClass::SendUnitMessage
PUBLIC	?BroadcastUnitMessage@UnitClass@@QAEXVVU_ID@@FFFF@Z ; UnitClass::BroadcastUnitMessage
PUBLIC	?ChangeUnitLocation@UnitClass@@QAEHE@Z		; UnitClass::ChangeUnitLocation
PUBLIC	?MoraleCheck@UnitClass@@QAEHHH@Z		; UnitClass::MoraleCheck
PUBLIC	?IsUnit@UnitClass@@UAEHXZ			; UnitClass::IsUnit
PUBLIC	?SetDead@UnitClass@@QAEXH@Z			; UnitClass::SetDead
PUBLIC	?SetAssigned@UnitClass@@QAEXH@Z			; UnitClass::SetAssigned
PUBLIC	?SetOrdered@UnitClass@@QAEXH@Z			; UnitClass::SetOrdered
PUBLIC	?SetDontPlan@UnitClass@@QAEXH@Z			; UnitClass::SetDontPlan
PUBLIC	?SetParent@UnitClass@@QAEXH@Z			; UnitClass::SetParent
PUBLIC	?SetEngaged@UnitClass@@QAEXH@Z			; UnitClass::SetEngaged
PUBLIC	?SetScripted@UnitClass@@QAEXH@Z			; UnitClass::SetScripted
PUBLIC	?SetCommando@UnitClass@@QAEXH@Z			; UnitClass::SetCommando
PUBLIC	?SetMoving@UnitClass@@QAEXH@Z			; UnitClass::SetMoving
PUBLIC	?SetRefused@UnitClass@@QAEXH@Z			; UnitClass::SetRefused
PUBLIC	?SetHasECM@UnitClass@@QAEXH@Z			; UnitClass::SetHasECM
PUBLIC	?SetCargo@UnitClass@@QAEXH@Z			; UnitClass::SetCargo
PUBLIC	?SetCombat@UnitClass@@QAEXH@Z			; UnitClass::SetCombat
PUBLIC	?SetBroken@UnitClass@@QAEXH@Z			; UnitClass::SetBroken
PUBLIC	?SetAborted@UnitClass@@QAEXH@Z			; UnitClass::SetAborted
PUBLIC	?SetLosses@UnitClass@@QAEXH@Z			; UnitClass::SetLosses
PUBLIC	?SetInactive@UnitClass@@QAEXH@Z			; UnitClass::SetInactive
PUBLIC	?SetFragment@UnitClass@@QAEXH@Z			; UnitClass::SetFragment
PUBLIC	?SetTargeted@UnitClass@@QAEXH@Z			; UnitClass::SetTargeted
PUBLIC	?SetRetreating@UnitClass@@QAEXH@Z		; UnitClass::SetRetreating
PUBLIC	?SetDetached@UnitClass@@QAEXH@Z			; UnitClass::SetDetached
PUBLIC	?SetSupported@UnitClass@@QAEXH@Z		; UnitClass::SetSupported
PUBLIC	?SetTempDest@UnitClass@@QAEXH@Z			; UnitClass::SetTempDest
PUBLIC	?SetFinal@UnitClass@@QAEXH@Z			; UnitClass::SetFinal
PUBLIC	?SetPilots@UnitClass@@QAEXH@Z			; UnitClass::SetPilots
PUBLIC	?SetDiverted@UnitClass@@QAEXH@Z			; UnitClass::SetDiverted
PUBLIC	?SetFired@UnitClass@@QAEXH@Z			; UnitClass::SetFired
PUBLIC	?SetLocked@UnitClass@@QAEXH@Z			; UnitClass::SetLocked
PUBLIC	?SetIAKill@UnitClass@@QAEXH@Z			; UnitClass::SetIAKill
PUBLIC	?SetNoAbort@UnitClass@@QAEXH@Z			; UnitClass::SetNoAbort
PUBLIC	?IsDead@UnitClass@@UBEHXZ			; UnitClass::IsDead
PUBLIC	?Parent@UnitClass@@QBEHXZ			; UnitClass::Parent
PUBLIC	?Moving@UnitClass@@QBEHXZ			; UnitClass::Moving
PUBLIC	?Cargo@UnitClass@@QBEHXZ			; UnitClass::Cargo
PUBLIC	?Broken@UnitClass@@QBEHXZ			; UnitClass::Broken
PUBLIC	?Inactive@UnitClass@@QBEHXZ			; UnitClass::Inactive
PUBLIC	?GetUnitClassData@UnitClass@@QAEPAUUnitClassDataType@@XZ ; UnitClass::GetUnitClassData
PUBLIC	?GetUnitClassName@UnitClass@@QAEPADXZ		; UnitClass::GetUnitClassName
PUBLIC	?SetUnitAltitude@UnitClass@@QAEXH@Z		; UnitClass::SetUnitAltitude
PUBLIC	?SimSetLocation@UnitClass@@UAEXMMM@Z		; UnitClass::SimSetLocation
PUBLIC	?SimSetOrientation@UnitClass@@UAEXMMM@Z		; UnitClass::SimSetOrientation
PUBLIC	?GetRealPosition@UnitClass@@UAEXPAM00@Z		; UnitClass::GetRealPosition
PUBLIC	?GetBestVehicleWeapon@UnitClass@@UAEHHPAEW4MoveType@@HPAH@Z ; UnitClass::GetBestVehicleWeapon
PUBLIC	?GetVehicleHitChance@UnitClass@@UAEHHW4MoveType@@HH@Z ; UnitClass::GetVehicleHitChance
PUBLIC	?GetVehicleCombatStrength@UnitClass@@UAEHHW4MoveType@@H@Z ; UnitClass::GetVehicleCombatStrength
PUBLIC	?GetVehicleRange@UnitClass@@UAEHHHPAVFalconEntity@@@Z ; UnitClass::GetVehicleRange
PUBLIC	?GetUnitWeaponId@UnitClass@@UAEHHH@Z		; UnitClass::GetUnitWeaponId
PUBLIC	?GetUnitWeaponCount@UnitClass@@UAEHHH@Z		; UnitClass::GetUnitWeaponCount
PUBLIC	?SetUnitDestination@UnitClass@@QAEXFF@Z		; UnitClass::SetUnitDestination
PUBLIC	?SetNumVehicles@UnitClass@@QAEXHH@Z		; UnitClass::SetNumVehicles
PUBLIC	?SetTarget@UnitClass@@QAEXPAVFalconEntity@@@Z	; UnitClass::SetTarget
PUBLIC	?SetUnitMoved@UnitClass@@QAEXE@Z		; UnitClass::SetUnitMoved
PUBLIC	?GetUnitDestination@UnitClass@@QAEXPAF0@Z	; UnitClass::GetUnitDestination
PUBLIC	?GetNumVehicles@UnitClass@@QAEHH@Z		; UnitClass::GetNumVehicles
PUBLIC	?GetTarget@UnitClass@@QAEPAVFalconEntity@@XZ	; UnitClass::GetTarget
PUBLIC	?GetTargetID@UnitClass@@QAE?AVVU_ID@@XZ		; UnitClass::GetTargetID
PUBLIC	?GetSimTarget@UnitClass@@QAEPAVSimBaseClass@@XZ	; UnitClass::GetSimTarget
PUBLIC	?GetCampTarget@UnitClass@@QAEPAVCampBaseClass@@XZ ; UnitClass::GetCampTarget
PUBLIC	?GetCargo@UnitClass@@QAEPAVCampBaseClass@@XZ	; UnitClass::GetCargo
PUBLIC	?GetTransport@UnitClass@@QAEPAVCampBaseClass@@XZ ; UnitClass::GetTransport
PUBLIC	?GetCargoID@UnitClass@@QAE?AVVU_ID@@XZ		; UnitClass::GetCargoID
PUBLIC	?GetTransportID@UnitClass@@QAE?AVVU_ID@@XZ	; UnitClass::GetTransportID
PUBLIC	?GetUnitMoved@UnitClass@@QBEHXZ			; UnitClass::GetUnitMoved
PUBLIC	?GetUnitTactic@UnitClass@@QBEHXZ		; UnitClass::GetUnitTactic
PUBLIC	?AssignUnit@UnitClass@@QAEXVVU_ID@@000H@Z	; UnitClass::AssignUnit
PUBLIC	?SetUnitSType@UnitClass@@QAEHD@Z		; UnitClass::SetUnitSType
PUBLIC	?SetUnitSPType@UnitClass@@QAEHD@Z		; UnitClass::SetUnitSPType
PUBLIC	?GetUnitNameID@UnitClass@@QAEHXZ		; UnitClass::GetUnitNameID
PUBLIC	?GetVehicleID@UnitClass@@QAEFH@Z		; UnitClass::GetVehicleID
PUBLIC	?GetTotalVehicles@UnitClass@@QAEHXZ		; UnitClass::GetTotalVehicles
PUBLIC	?GetFullstrengthVehicles@UnitClass@@QAEHXZ	; UnitClass::GetFullstrengthVehicles
PUBLIC	?GetFullstrengthVehicles@UnitClass@@QAEHH@Z	; UnitClass::GetFullstrengthVehicles
PUBLIC	?GetMaxSpeed@UnitClass@@QBEHXZ			; UnitClass::GetMaxSpeed
PUBLIC	?GetCruiseSpeed@UnitClass@@QBEHXZ		; UnitClass::GetCruiseSpeed
PUBLIC	?GetCombatSpeed@UnitClass@@QBEHXZ		; UnitClass::GetCombatSpeed
PUBLIC	?GetUnitEndurance@UnitClass@@QAEHXZ		; UnitClass::GetUnitEndurance
PUBLIC	?GetUnitRange@UnitClass@@QAEHXZ			; UnitClass::GetUnitRange
PUBLIC	?GetRClass@UnitClass@@QAEHXZ			; UnitClass::GetRClass
PUBLIC	?CountUnitElements@UnitClass@@QAEHXZ		; UnitClass::CountUnitElements
PUBLIC	?GetRandomElement@UnitClass@@QAEPAV1@XZ		; UnitClass::GetRandomElement
PUBLIC	?ResetMoves@UnitClass@@QAEXXZ			; UnitClass::ResetMoves
PUBLIC	?ResetLocations@UnitClass@@QAEXFF@Z		; UnitClass::ResetLocations
PUBLIC	?ResetDestinations@UnitClass@@QAEXFF@Z		; UnitClass::ResetDestinations
PUBLIC	?BuildElements@UnitClass@@QAEXXZ		; UnitClass::BuildElements
PUBLIC	?ChangeVehicles@UnitClass@@QAEHH@Z		; UnitClass::ChangeVehicles
PUBLIC	?GetFormationCruiseSpeed@UnitClass@@QBEHXZ	; UnitClass::GetFormationCruiseSpeed
PUBLIC	?KillUnit@UnitClass@@QAEXXZ			; UnitClass::KillUnit
PUBLIC	?NoMission@UnitClass@@QAEHXZ			; UnitClass::NoMission
PUBLIC	?AtDestination@UnitClass@@QAEHXZ		; UnitClass::AtDestination
PUBLIC	?GetUnitFormation@UnitClass@@QBEHXZ		; UnitClass::GetUnitFormation
PUBLIC	?GetUnitRoleScore@UnitClass@@QAEHHHH@Z		; UnitClass::GetUnitRoleScore
PUBLIC	?GetUnitMovementCost@UnitClass@@QAEMFFE@Z	; UnitClass::GetUnitMovementCost
PUBLIC	?GetUnitObjectivePath@UnitClass@@QAEHPAVBasePathClass@@PAVObjectiveClass@@1@Z ; UnitClass::GetUnitObjectivePath
PUBLIC	?GetUnitGridPath@UnitClass@@QAEHPAVBasePathClass@@FFFF@Z ; UnitClass::GetUnitGridPath
PUBLIC	?LoadUnit@UnitClass@@QAEXPAV1@@Z		; UnitClass::LoadUnit
PUBLIC	?UnloadUnit@UnitClass@@QAEXXZ			; UnitClass::UnloadUnit
PUBLIC	?GetUnitSupplyTime@UnitClass@@QAEKXZ		; UnitClass::GetUnitSupplyTime
PUBLIC	?AddUnitWP@UnitClass@@QAEPAVWayPointClass@@FFHHKHE@Z ; UnitClass::AddUnitWP
PUBLIC	?AddWPAfter@UnitClass@@QAEPAVWayPointClass@@PAV2@FFHHKHE@Z ; UnitClass::AddWPAfter
PUBLIC	?DeleteUnitWP@UnitClass@@QAEXPAVWayPointClass@@@Z ; UnitClass::DeleteUnitWP
PUBLIC	?EncodeWaypoints@UnitClass@@QAEHPAPAE@Z		; UnitClass::EncodeWaypoints
PUBLIC	?DecodeWaypoints@UnitClass@@QAEXPAPAEPAJ@Z	; UnitClass::DecodeWaypoints
PUBLIC	?GetFirstUnitWP@UnitClass@@QAEPAVWayPointClass@@XZ ; UnitClass::GetFirstUnitWP
PUBLIC	?GetCurrentUnitWP@UnitClass@@QBEPAVWayPointClass@@XZ ; UnitClass::GetCurrentUnitWP
PUBLIC	?GetUnitMissionWP@UnitClass@@QAEPAVWayPointClass@@XZ ; UnitClass::GetUnitMissionWP
PUBLIC	?FinishUnitWP@UnitClass@@QAEXXZ			; UnitClass::FinishUnitWP
PUBLIC	?DisposeWayPoints@UnitClass@@QAEXXZ		; UnitClass::DisposeWayPoints
PUBLIC	?CheckBroken@UnitClass@@QAEXXZ			; UnitClass::CheckBroken
PUBLIC	?SetCurrentUnitWP@UnitClass@@QAEXPAVWayPointClass@@@Z ; UnitClass::SetCurrentUnitWP
PUBLIC	?AdjustWayPoints@UnitClass@@QAEXXZ		; UnitClass::AdjustWayPoints
PUBLIC	?SetUnitLastMove@UnitClass@@UAEXK@Z		; UnitClass::SetUnitLastMove
PUBLIC	?SetCombatTime@UnitClass@@UAEXK@Z		; UnitClass::SetCombatTime
PUBLIC	?SetBurntFuel@UnitClass@@UAEXJ@Z		; UnitClass::SetBurntFuel
PUBLIC	?SetUnitMission@UnitClass@@UAEXE@Z		; UnitClass::SetUnitMission
PUBLIC	?SetUnitRole@UnitClass@@UAEXE@Z			; UnitClass::SetUnitRole
PUBLIC	?SetUnitPriority@UnitClass@@UAEXH@Z		; UnitClass::SetUnitPriority
PUBLIC	?SetUnitMissionID@UnitClass@@UAEXH@Z		; UnitClass::SetUnitMissionID
PUBLIC	?SetUnitMissionTarget@UnitClass@@UAEXH@Z	; UnitClass::SetUnitMissionTarget
PUBLIC	?SetUnitTOT@UnitClass@@UAEXK@Z			; UnitClass::SetUnitTOT
PUBLIC	?SetUnitSquadron@UnitClass@@UAEXVVU_ID@@@Z	; UnitClass::SetUnitSquadron
PUBLIC	?SetUnitAirbase@UnitClass@@UAEXVVU_ID@@@Z	; UnitClass::SetUnitAirbase
PUBLIC	?SetLoadout@UnitClass@@UAEXPAULoadoutStruct@@H@Z ; UnitClass::SetLoadout
PUBLIC	?GetNumberOfLoadouts@UnitClass@@UAEHXZ		; UnitClass::GetNumberOfLoadouts
PUBLIC	?GetMoveTime@UnitClass@@UAEKXZ			; UnitClass::GetMoveTime
PUBLIC	?GetCombatTime@UnitClass@@UAEKXZ		; UnitClass::GetCombatTime
PUBLIC	?GetAirTargetID@UnitClass@@UAE?AVVU_ID@@XZ	; UnitClass::GetAirTargetID
PUBLIC	?GetAirTarget@UnitClass@@UAEPAVFalconEntity@@XZ	; UnitClass::GetAirTarget
PUBLIC	?GetBurntFuel@UnitClass@@UAEHXZ			; UnitClass::GetBurntFuel
PUBLIC	?GetUnitMission@UnitClass@@UAE?AW4MissionTypeEnum@@XZ ; UnitClass::GetUnitMission
PUBLIC	?GetUnitNormalRole@UnitClass@@UAEHXZ		; UnitClass::GetUnitNormalRole
PUBLIC	?GetUnitCurrentRole@UnitClass@@UBEHXZ		; UnitClass::GetUnitCurrentRole
PUBLIC	?GetUnitPriority@UnitClass@@UAEHXZ		; UnitClass::GetUnitPriority
PUBLIC	?GetUnitMissionTarget@UnitClass@@UAEPAVCampBaseClass@@XZ ; UnitClass::GetUnitMissionTarget
PUBLIC	?GetUnitMissionTargetID@UnitClass@@UAE?AVVU_ID@@XZ ; UnitClass::GetUnitMissionTargetID
PUBLIC	?GetUnitMissionID@UnitClass@@UAEHXZ		; UnitClass::GetUnitMissionID
PUBLIC	?GetUnitTOT@UnitClass@@UAEKXZ			; UnitClass::GetUnitTOT
PUBLIC	?GetUnitSquadron@UnitClass@@UAEPAV1@XZ		; UnitClass::GetUnitSquadron
PUBLIC	?GetUnitSquadronID@UnitClass@@UAE?AVVU_ID@@XZ	; UnitClass::GetUnitSquadronID
PUBLIC	?GetUnitAirbase@UnitClass@@UAEPAVCampBaseClass@@XZ ; UnitClass::GetUnitAirbase
PUBLIC	?GetUnitAirbaseID@UnitClass@@UAE?AVVU_ID@@XZ	; UnitClass::GetUnitAirbaseID
PUBLIC	?LoadWeapons@UnitClass@@UAEHPAXPAEW4MoveType@@HHH@Z ; UnitClass::LoadWeapons
PUBLIC	?DumpWeapons@UnitClass@@UAEHXZ			; UnitClass::DumpWeapons
PUBLIC	?ETA@UnitClass@@UAEKXZ				; UnitClass::ETA
PUBLIC	?GetKnownEmitters@UnitClass@@UAEPAVFalconPrivateList@@XZ ; UnitClass::GetKnownEmitters
PUBLIC	?BuildMission@UnitClass@@UAEHPAVMissionRequestClass@@@Z ; UnitClass::BuildMission
PUBLIC	?IncrementTime@UnitClass@@UAEXK@Z		; UnitClass::IncrementTime
PUBLIC	?UseFuel@UnitClass@@UAEXJ@Z			; UnitClass::UseFuel
PUBLIC	?SetUnitSpecialty@UnitClass@@UAEXH@Z		; UnitClass::SetUnitSpecialty
PUBLIC	?SetUnitSupply@UnitClass@@UAEXH@Z		; UnitClass::SetUnitSupply
PUBLIC	?SetUnitMorale@UnitClass@@UAEXH@Z		; UnitClass::SetUnitMorale
PUBLIC	?SetSquadronFuel@UnitClass@@UAEXJ@Z		; UnitClass::SetSquadronFuel
PUBLIC	?SetUnitStores@UnitClass@@UAEXHE@Z		; UnitClass::SetUnitStores
PUBLIC	?SetLastResupply@UnitClass@@UAEXH@Z		; UnitClass::SetLastResupply
PUBLIC	?SetLastResupplyTime@UnitClass@@UAEXK@Z		; UnitClass::SetLastResupplyTime
PUBLIC	?GetUnitSpecialty@UnitClass@@UAEHXZ		; UnitClass::GetUnitSpecialty
PUBLIC	?GetUnitSupply@UnitClass@@UAEHXZ		; UnitClass::GetUnitSupply
PUBLIC	?GetUnitMorale@UnitClass@@UAEHXZ		; UnitClass::GetUnitMorale
PUBLIC	?GetSquadronFuel@UnitClass@@UAEJXZ		; UnitClass::GetSquadronFuel
PUBLIC	?GetUnitStores@UnitClass@@UAEEH@Z		; UnitClass::GetUnitStores
PUBLIC	?GetLastResupplyTime@UnitClass@@UAEKXZ		; UnitClass::GetLastResupplyTime
PUBLIC	?GetLastResupply@UnitClass@@UAEHXZ		; UnitClass::GetLastResupply
PUBLIC	?BuildPackage@UnitClass@@UAEHPAVMissionRequestClass@@PAVFalconPrivateList@@@Z ; UnitClass::BuildPackage
PUBLIC	?HandleRequestReceipt@UnitClass@@UAEXHHVVU_ID@@@Z ; UnitClass::HandleRequestReceipt
PUBLIC	?SetUnitAssemblyPoint@UnitClass@@UAEXHFF@Z	; UnitClass::SetUnitAssemblyPoint
PUBLIC	?GetUnitAssemblyPoint@UnitClass@@UAEXHPAF0@Z	; UnitClass::GetUnitAssemblyPoint
PUBLIC	?SetUnitPrimaryObj@UnitClass@@UAEXVVU_ID@@@Z	; UnitClass::SetUnitPrimaryObj
PUBLIC	?SetUnitSecondaryObj@UnitClass@@UAEXVVU_ID@@@Z	; UnitClass::SetUnitSecondaryObj
PUBLIC	?SetUnitObjective@UnitClass@@UAEXVVU_ID@@@Z	; UnitClass::SetUnitObjective
PUBLIC	?SetUnitOrders@UnitClass@@UAEXH@Z		; UnitClass::SetUnitOrders
PUBLIC	?SetUnitOrders@UnitClass@@UAEXHVVU_ID@@@Z	; UnitClass::SetUnitOrders
PUBLIC	?SetUnitFatigue@UnitClass@@UAEXH@Z		; UnitClass::SetUnitFatigue
PUBLIC	?SetUnitMode@UnitClass@@UAEXH@Z			; UnitClass::SetUnitMode
PUBLIC	?SetUnitPosition@UnitClass@@UAEXH@Z		; UnitClass::SetUnitPosition
PUBLIC	?SetUnitDivision@UnitClass@@UAEXH@Z		; UnitClass::SetUnitDivision
PUBLIC	?SetUnitHeading@UnitClass@@UAEXH@Z		; UnitClass::SetUnitHeading
PUBLIC	?GetUnitPrimaryObj@UnitClass@@UAEPAVObjectiveClass@@XZ ; UnitClass::GetUnitPrimaryObj
PUBLIC	?GetUnitSecondaryObj@UnitClass@@UAEPAVObjectiveClass@@XZ ; UnitClass::GetUnitSecondaryObj
PUBLIC	?GetUnitObjective@UnitClass@@UAEPAVObjectiveClass@@XZ ; UnitClass::GetUnitObjective
PUBLIC	?GetUnitPrimaryObjID@UnitClass@@UAE?AVVU_ID@@XZ	; UnitClass::GetUnitPrimaryObjID
PUBLIC	?GetUnitSecondaryObjID@UnitClass@@UAE?AVVU_ID@@XZ ; UnitClass::GetUnitSecondaryObjID
PUBLIC	?GetUnitObjectiveID@UnitClass@@UAE?AVVU_ID@@XZ	; UnitClass::GetUnitObjectiveID
PUBLIC	?GetUnitOrders@UnitClass@@UAEHXZ		; UnitClass::GetUnitOrders
PUBLIC	?GetUnitFatigue@UnitClass@@UAEHXZ		; UnitClass::GetUnitFatigue
PUBLIC	?GetUnitElement@UnitClass@@UAEHXZ		; UnitClass::GetUnitElement
PUBLIC	?GetUnitMode@UnitClass@@UAEHXZ			; UnitClass::GetUnitMode
PUBLIC	?GetUnitPosition@UnitClass@@UAEHXZ		; UnitClass::GetUnitPosition
PUBLIC	?GetUnitDivision@UnitClass@@UAEHXZ		; UnitClass::GetUnitDivision
PUBLIC	?GetUnitHeading@UnitClass@@UAEHXZ		; UnitClass::GetUnitHeading
PUBLIC	?SetUnitNextMove@UnitClass@@UAEXXZ		; UnitClass::SetUnitNextMove
PUBLIC	?ClearUnitPath@UnitClass@@UAEXXZ		; UnitClass::ClearUnitPath
PUBLIC	?GetNextMoveDirection@UnitClass@@UAEHXZ		; UnitClass::GetNextMoveDirection
PUBLIC	?SetUnitCurrentDestination@UnitClass@@UAEXFF@Z	; UnitClass::SetUnitCurrentDestination
PUBLIC	?GetUnitCurrentDestination@UnitClass@@UAEXPAF0@Z ; UnitClass::GetUnitCurrentDestination
PUBLIC	?GetObjMovementType@UnitClass@@UAE?AW4MoveType@@PAVObjectiveClass@@H@Z ; UnitClass::GetObjMovementType
PUBLIC	?CheckForSurrender@UnitClass@@UAEHXZ		; UnitClass::CheckForSurrender
PUBLIC	?BuildMission@UnitClass@@UAEHXZ			; UnitClass::BuildMission
PUBLIC	?RallyUnit@UnitClass@@UAEHH@Z			; UnitClass::RallyUnit
PUBLIC	?GetUnitParent@UnitClass@@UBEPAV1@XZ		; UnitClass::GetUnitParent
PUBLIC	?GetUnitParentID@UnitClass@@UAE?AVVU_ID@@XZ	; UnitClass::GetUnitParentID
PUBLIC	?SetUnitParent@UnitClass@@UAEXPAV1@@Z		; UnitClass::SetUnitParent
PUBLIC	?GetFirstUnitElement@UnitClass@@UBEPAV1@XZ	; UnitClass::GetFirstUnitElement
PUBLIC	?GetNextUnitElement@UnitClass@@UBEPAV1@XZ	; UnitClass::GetNextUnitElement
PUBLIC	?GetUnitElement@UnitClass@@UAEPAV1@H@Z		; UnitClass::GetUnitElement
PUBLIC	?GetUnitElementByID@UnitClass@@UAEPAV1@H@Z	; UnitClass::GetUnitElementByID
PUBLIC	?GetPrevUnitElement@UnitClass@@UAEPAV1@PAV1@@Z	; UnitClass::GetPrevUnitElement
PUBLIC	?AddUnitChild@UnitClass@@UAEXPAV1@@Z		; UnitClass::AddUnitChild
PUBLIC	?DisposeChildren@UnitClass@@UAEXXZ		; UnitClass::DisposeChildren
PUBLIC	?RemoveChild@UnitClass@@UAEXVVU_ID@@@Z		; UnitClass::RemoveChild
PUBLIC	?ReorganizeUnit@UnitClass@@UAEXXZ		; UnitClass::ReorganizeUnit
PUBLIC	?UpdateParentStatistics@UnitClass@@UAEHXZ	; UnitClass::UpdateParentStatistics
PUBLIC	?CalculateSOJ@UnitClass@@QAEXAAVVuGridIterator@@@Z ; UnitClass::CalculateSOJ
PUBLIC	??_GUnitClass@@UAEPAXI@Z			; UnitClass::`scalar deleting destructor'
PUBLIC	??0UnitDeaggregationData@@QAE@XZ		; UnitDeaggregationData::UnitDeaggregationData
PUBLIC	??1UnitDeaggregationData@@QAE@XZ		; UnitDeaggregationData::~UnitDeaggregationData
PUBLIC	?StoreDeaggregationData@UnitDeaggregationData@@QAEXPAVUnitClass@@@Z ; UnitDeaggregationData::StoreDeaggregationData
PUBLIC	?SaveUnits@@YAXPAD@Z				; SaveUnits
PUBLIC	?LoadUnits@@YAHPAD@Z				; LoadUnits
PUBLIC	?GetFirstUnit@@YAPAVUnitClass@@PAVVuListIterator@@@Z ; GetFirstUnit
PUBLIC	?GetNextUnit@@YAPAVUnitClass@@PAVVuListIterator@@@Z ; GetNextUnit
PUBLIC	?ConvertUnit@@YAPAVUnitClass@@PAV1@HHHH@Z	; ConvertUnit
PUBLIC	?GetSizeName@@YAPADHHPAD@Z			; GetSizeName
PUBLIC	?GetDivisionName@@YAPADHPADHH@Z			; GetDivisionName
PUBLIC	?FindUnitNameID@@YAHPAVUnitClass@@@Z		; FindUnitNameID
PUBLIC	?NewUnit@@YAPAVUnitClass@@HHHHPAV1@@Z		; NewUnit
PUBLIC	?NewUnit@@YAPAVUnitClass@@FPAPAEPAJ@Z		; NewUnit
PUBLIC	?GetRange@@YAMPAVUnitClass@@PAVCampBaseClass@@@Z ; GetRange
PUBLIC	?EncodeUnitData@@YAHPAPAEPAVFalconSessionEntity@@@Z ; EncodeUnitData
PUBLIC	?DecodeUnitData@@YAHPAPAEPAJPAVFalconSessionEntity@@@Z ; DecodeUnitData
PUBLIC	?MinDeagTime@ATCBrain@@QAEKXZ			; ATCBrain::MinDeagTime
PUBLIC	?GetGroundAction@TeamClass@@QAEPAUTeamGndActionType@@XZ ; TeamClass::GetGroundAction
PUBLIC	?GetColor@TeamClass@@QAEHXZ			; TeamClass::GetColor
PUBLIC	?get@?$VuBin@VFalconEntity@@@@QBEPAVFalconEntity@@XZ ; VuBin<FalconEntity>::get
PUBLIC	??0id@locale@std@@QAE@I@Z			; std::locale::id::id
PUBLIC	?generic_category@std@@YAABVerror_category@1@XZ	; std::generic_category
PUBLIC	?system_category@std@@YAABVerror_category@1@XZ	; std::system_category
PUBLIC	??0error_category@std@@QAE@XZ			; std::error_category::error_category
PUBLIC	??1error_category@std@@UAE@XZ			; std::error_category::~error_category
PUBLIC	?default_error_condition@error_category@std@@UBE?AVerror_condition@2@H@Z ; std::error_category::default_error_condition
PUBLIC	?equivalent@error_category@std@@UBE_NHABVerror_condition@2@@Z ; std::error_category::equivalent
PUBLIC	?equivalent@error_category@std@@UBE_NABVerror_code@2@H@Z ; std::error_category::equivalent
PUBLIC	??8error_category@std@@QBE_NABV01@@Z		; std::error_category::operator==
PUBLIC	??_Gerror_category@std@@UAEPAXI@Z		; std::error_category::`scalar deleting destructor'
PUBLIC	?value@error_code@std@@QBEHXZ			; std::error_code::value
PUBLIC	?category@error_code@std@@QBEABVerror_category@2@XZ ; std::error_code::category
PUBLIC	??0error_condition@std@@QAE@HABVerror_category@1@@Z ; std::error_condition::error_condition
PUBLIC	?value@error_condition@std@@QBEHXZ		; std::error_condition::value
PUBLIC	?category@error_condition@std@@QBEABVerror_category@2@XZ ; std::error_condition::category
PUBLIC	??8error_condition@std@@QBE_NABV01@@Z		; std::error_condition::operator==
PUBLIC	??0_Generic_error_category@std@@QAE@XZ		; std::_Generic_error_category::_Generic_error_category
PUBLIC	?name@_Generic_error_category@std@@UBEPBDXZ	; std::_Generic_error_category::name
PUBLIC	?message@_Generic_error_category@std@@UBE?AV?$basic_string@DU?$char_traits@D@std@@V?$allocator@D@2@@2@H@Z ; std::_Generic_error_category::message
PUBLIC	??1_Generic_error_category@std@@UAE@XZ		; std::_Generic_error_category::~_Generic_error_category
PUBLIC	??_G_Generic_error_category@std@@UAEPAXI@Z	; std::_Generic_error_category::`scalar deleting destructor'
PUBLIC	??0_Iostream_error_category@std@@QAE@XZ		; std::_Iostream_error_category::_Iostream_error_category
PUBLIC	?name@_Iostream_error_category@std@@UBEPBDXZ	; std::_Iostream_error_category::name
PUBLIC	?message@_Iostream_error_category@std@@UBE?AV?$basic_string@DU?$char_traits@D@std@@V?$allocator@D@2@@2@H@Z ; std::_Iostream_error_category::message
PUBLIC	??1_Iostream_error_category@std@@UAE@XZ		; std::_Iostream_error_category::~_Iostream_error_category
PUBLIC	??_G_Iostream_error_category@std@@UAEPAXI@Z	; std::_Iostream_error_category::`scalar deleting destructor'
PUBLIC	??0_System_error_category@std@@QAE@XZ		; std::_System_error_category::_System_error_category
PUBLIC	?name@_System_error_category@std@@UBEPBDXZ	; std::_System_error_category::name
PUBLIC	?message@_System_error_category@std@@UBE?AV?$basic_string@DU?$char_traits@D@std@@V?$allocator@D@2@@2@H@Z ; std::_System_error_category::message
PUBLIC	?default_error_condition@_System_error_category@std@@UBE?AVerror_condition@2@H@Z ; std::_System_error_category::default_error_condition
PUBLIC	??1_System_error_category@std@@UAE@XZ		; std::_System_error_category::~_System_error_category
PUBLIC	??_G_System_error_category@std@@UAEPAXI@Z	; std::_System_error_category::`scalar deleting destructor'
PUBLIC	?get@?$VuBin@VSquadronClass@@@@QBEPAVSquadronClass@@XZ ; VuBin<SquadronClass>::get
PUBLIC	?get@?$VuBin@VFlightClass@@@@QBEPAVFlightClass@@XZ ; VuBin<FlightClass>::get
PUBLIC	?GetPlayerEntity@FalconSessionEntity@@QBEPAVFalconEntity@@XZ ; FalconSessionEntity::GetPlayerEntity
PUBLIC	?GetPlayerFlight@FalconSessionEntity@@QBEPAVFlightClass@@XZ ; FalconSessionEntity::GetPlayerFlight
PUBLIC	?GetPlayerSquadron@FalconSessionEntity@@QBEPAVSquadronClass@@XZ ; FalconSessionEntity::GetPlayerSquadron
PUBLIC	?GetGame@FalconSessionEntity@@QAEPAVFalconGameEntity@@XZ ; FalconSessionEntity::GetGame
PUBLIC	?GetSlot@SimBaseClass@@QAEHXZ			; SimBaseClass::GetSlot
PUBLIC	?IsAwake@SimBaseClass@@QBEHXZ			; SimBaseClass::IsAwake
PUBLIC	?GetCampaignObject@SimBaseClass@@QAEPAVCampBaseClass@@XZ ; SimBaseClass::GetCampaignObject
PUBLIC	?DBrain@AircraftClass@@QAEPAVDigitalBrain@@XZ	; AircraftClass::DBrain
PUBLIC	?NumHardpoints@SMSBaseClass@@QAEHXZ		; SMSBaseClass::NumHardpoints
PUBLIC	?NameTagsOn@PlayerOptionsClass@@QAEHXZ		; PlayerOptionsClass::NameTagsOn
PUBLIC	?GetTaxiPoint@DigitalBrain@@QAEHXZ		; DigitalBrain::GetTaxiPoint
PUBLIC	?GetArrivalSpeed@@YAHPBVUnitClass@@@Z		; GetArrivalSpeed
PUBLIC	?GetUnitByID@@YAPAVUnitClass@@VVU_ID@@@Z	; GetUnitByID
PUBLIC	?GetDivisionName@@YAPADHHPADHH@Z		; GetDivisionName
PUBLIC	?FindTaxiPt@@YAHPAVFlightClass@@PAVObjectiveClass@@H@Z ; FindTaxiPt
PUBLIC	??$construct@PADAAPAD@?$_Wrap_alloc@V?$allocator@D@std@@@std@@QAEXPAPADAAPAD@Z ; std::_Wrap_alloc<std::allocator<char> >::construct<char *,char * &>
PUBLIC	??$destroy@PAD@?$_Wrap_alloc@V?$allocator@D@std@@@std@@QAEXPAPAD@Z ; std::_Wrap_alloc<std::allocator<char> >::destroy<char *>
PUBLIC	??$addressof@D@std@@YAPADAAD@Z			; std::addressof<char>
PUBLIC	??$_Allocate@D@std@@YAPADIPAD@Z			; std::_Allocate<char>
PUBLIC	??$forward@AAPAD@std@@YAAAPADAAPAD@Z		; std::forward<char * &>
PUBLIC	??$construct@PADAAPAD@?$allocator_traits@V?$allocator@D@std@@@std@@SAXAAV?$allocator@D@1@PAPADAAPAD@Z ; std::allocator_traits<std::allocator<char> >::construct<char *,char * &>
PUBLIC	??$destroy@PAD@?$allocator_traits@V?$allocator@D@std@@@std@@SAXAAV?$allocator@D@1@PAPAD@Z ; std::allocator_traits<std::allocator<char> >::destroy<char *>
PUBLIC	??$construct@PADAAPAD@?$allocator@D@std@@QAEXPAPADAAPAD@Z ; std::allocator<char>::construct<char *,char * &>
PUBLIC	??$destroy@PAD@?$allocator@D@std@@QAEXPAPAD@Z	; std::allocator<char>::destroy<char *>
PUBLIC	??_7logic_error@std@@6B@			; std::logic_error::`vftable'
PUBLIC	??_7out_of_range@std@@6B@			; std::out_of_range::`vftable'
PUBLIC	??_7InvalidBufferException@@6B@			; InvalidBufferException::`vftable'
PUBLIC	??_C@_0CI@MPKJAHJH@Trying?5to?5write?5?$CFlu?5bytes?5to?5?$CFld@ ; `string'
PUBLIC	__TI4?AVInvalidBufferException@@
PUBLIC	__CTA4?AVInvalidBufferException@@
PUBLIC	??_R0?AVInvalidBufferException@@@8		; InvalidBufferException `RTTI Type Descriptor'
PUBLIC	__CT??_R0?AVInvalidBufferException@@@8??0InvalidBufferException@@QAE@ABV0@@Z12
PUBLIC	??_R0?AVout_of_range@std@@@8			; std::out_of_range `RTTI Type Descriptor'
PUBLIC	__CT??_R0?AVout_of_range@std@@@8??0out_of_range@std@@QAE@ABV01@@Z12
PUBLIC	??_R0?AVlogic_error@std@@@8			; std::logic_error `RTTI Type Descriptor'
PUBLIC	__CT??_R0?AVlogic_error@std@@@8??0logic_error@std@@QAE@ABV01@@Z12
PUBLIC	??_R0?AVexception@std@@@8			; std::exception `RTTI Type Descriptor'
PUBLIC	__CT??_R0?AVexception@std@@@8??0exception@std@@QAE@ABV01@@Z12
PUBLIC	??_7UnitClass@@6B@				; UnitClass::`vftable'
PUBLIC	??_7error_category@std@@6B@			; std::error_category::`vftable'
PUBLIC	??_7_Generic_error_category@std@@6B@		; std::_Generic_error_category::`vftable'
PUBLIC	??_C@_07DCLBNMLN@generic?$AA@			; `string'
PUBLIC	??_C@_0O@BFJCFAAK@unknown?5error?$AA@		; `string'
PUBLIC	??_7_Iostream_error_category@std@@6B@		; std::_Iostream_error_category::`vftable'
PUBLIC	??_C@_08LLGCOLLL@iostream?$AA@			; `string'
PUBLIC	??_C@_0BG@PADBLCHM@iostream?5stream?5error?$AA@	; `string'
PUBLIC	??_7_System_error_category@std@@6B@		; std::_System_error_category::`vftable'
PUBLIC	??_C@_06FHFOAHML@system?$AA@			; `string'
PUBLIC	?_Generic_object@?$_Error_objects@H@std@@2V_Generic_error_category@2@A ; std::_Error_objects<int>::_Generic_object
PUBLIC	?_Iostream_object@?$_Error_objects@H@std@@2V_Iostream_error_category@2@A ; std::_Error_objects<int>::_Iostream_object
PUBLIC	?_System_object@?$_Error_objects@H@std@@2V_System_error_category@2@A ; std::_Error_objects<int>::_System_object
PUBLIC	?id@?$num_put@DV?$back_insert_iterator@V?$basic_string@DU?$char_traits@D@std@@V?$allocator@D@2@@std@@@std@@@std@@2V0locale@2@A ; std::num_put<char,std::back_insert_iterator<std::basic_string<char,std::char_traits<char>,std::allocator<char> > > >::id
PUBLIC	?id@?$num_put@_WV?$back_insert_iterator@V?$basic_string@_WU?$char_traits@_W@std@@V?$allocator@_W@2@@std@@@std@@@std@@2V0locale@2@A ; std::num_put<wchar_t,std::back_insert_iterator<std::basic_string<wchar_t,std::char_traits<wchar_t>,std::allocator<wchar_t> > > >::id
PUBLIC	??_C@_0BA@NIOPHDFC@?$CF08x?5UnitClass?5?$AA@	; `string'
PUBLIC	??_C@_0BA@BOFFLAKG@?$CF08x?5Waypoints?5?$AA@	; `string'
PUBLIC	??_C@_05DNIIFBMG@?$CFs?5?$CFs?$AA@		; `string'
PUBLIC	??_C@_0BM@JKDKHHG@battalion?5heir?5will?5exceed?6?$AA@ ; `string'
PUBLIC	??_C@_08EPEHIMMI@?$CFs?5?$CFs?5?$CFs?$AA@	; `string'
PUBLIC	??_C@_07LLFIICBM@?$CFs?5?$CFs?$CFs?$AA@		; `string'
PUBLIC	??_C@_01HIHLOKLC@1?$AA@				; `string'
PUBLIC	??_C@_0BD@HHBCIDIG@Cargo?5is?5missing?$CB?6?$AA@ ; `string'
PUBLIC	??_C@_0BN@CFBAPBAH@Unit?5?$CFd?5picking?5up?5unit?5?$CFd?4?6?$AA@ ; `string'
PUBLIC	??_C@_0CI@FIGMOKMC@Unit?5?$CFd?5dropping?5off?5unit?5?$CFd?5at?5@ ; `string'
PUBLIC	??_C@_07MMBOBMNN@Nothing?$AA@			; `string'
PUBLIC	??_C@_02GMLFBBN@wb?$AA@				; `string'
PUBLIC	??_C@_03HECMEGIJ@uni?$AA@			; `string'
PUBLIC	??_C@_05NAOIJFC@Error?$AA@			; `string'
PUBLIC	??_C@_0CD@CMPFCOF@Type?5conflict?5while?5creating?5uni@ ; `string'
PUBLIC	??_C@_01EEMJAFIK@?6?$AA@			; `string'
PUBLIC	??_C@_0BF@JMEEBPII@Count?$DN?$CF1d?0Size?$DN?$CF1ld?6?$AA@ ; `string'
PUBLIC	??_C@_0BL@LACJBFNH@Encode?5Unit?5Data?5?$CFd?5?$DN?$DO?5?$CFd?6?$AA@ ; `string'
PUBLIC	??_C@_03JDANDILB@?$CFd?5?$AA@			; `string'
PUBLIC	?id@?$numpunct@D@std@@2V0locale@2@A		; std::numpunct<char>::id
PUBLIC	?id@?$numpunct@_W@std@@2V0locale@2@A		; std::numpunct<wchar_t>::id
PUBLIC	??_C@_0BI@CFPLBAOH@invalid?5string?5position?$AA@ ; `string'
PUBLIC	??_C@_0BA@JFNIOLAK@string?5too?5long?$AA@	; `string'
PUBLIC	??_R1A@?0A@EA@exception@std@@8			; std::exception::`RTTI Base Class Descriptor at (0,-1,0,64)'
PUBLIC	??_R3exception@std@@8				; std::exception::`RTTI Class Hierarchy Descriptor'
PUBLIC	??_R2exception@std@@8				; std::exception::`RTTI Base Class Array'
PUBLIC	??_R4logic_error@std@@6B@			; std::logic_error::`RTTI Complete Object Locator'
PUBLIC	??_R3logic_error@std@@8				; std::logic_error::`RTTI Class Hierarchy Descriptor'
PUBLIC	??_R2logic_error@std@@8				; std::logic_error::`RTTI Base Class Array'
PUBLIC	??_R1A@?0A@EA@logic_error@std@@8		; std::logic_error::`RTTI Base Class Descriptor at (0,-1,0,64)'
PUBLIC	??_R4out_of_range@std@@6B@			; std::out_of_range::`RTTI Complete Object Locator'
PUBLIC	??_R3out_of_range@std@@8			; std::out_of_range::`RTTI Class Hierarchy Descriptor'
PUBLIC	??_R2out_of_range@std@@8			; std::out_of_range::`RTTI Base Class Array'
PUBLIC	??_R1A@?0A@EA@out_of_range@std@@8		; std::out_of_range::`RTTI Base Class Descriptor at (0,-1,0,64)'
PUBLIC	??_R4UnitClass@@6B@				; UnitClass::`RTTI Complete Object Locator'
PUBLIC	??_R0?AVUnitClass@@@8				; UnitClass `RTTI Type Descriptor'
PUBLIC	??_R3UnitClass@@8				; UnitClass::`RTTI Class Hierarchy Descriptor'
PUBLIC	??_R2UnitClass@@8				; UnitClass::`RTTI Base Class Array'
PUBLIC	??_R1A@?0A@EA@UnitClass@@8			; UnitClass::`RTTI Base Class Descriptor at (0,-1,0,64)'
PUBLIC	??_R1A@?0A@EA@CampBaseClass@@8			; CampBaseClass::`RTTI Base Class Descriptor at (0,-1,0,64)'
PUBLIC	??_R0?AVCampBaseClass@@@8			; CampBaseClass `RTTI Type Descriptor'
PUBLIC	??_R3CampBaseClass@@8				; CampBaseClass::`RTTI Class Hierarchy Descriptor'
PUBLIC	??_R2CampBaseClass@@8				; CampBaseClass::`RTTI Base Class Array'
PUBLIC	??_R1A@?0A@EA@FalconEntity@@8			; FalconEntity::`RTTI Base Class Descriptor at (0,-1,0,64)'
PUBLIC	??_R0?AVFalconEntity@@@8			; FalconEntity `RTTI Type Descriptor'
PUBLIC	??_R3FalconEntity@@8				; FalconEntity::`RTTI Class Hierarchy Descriptor'
PUBLIC	??_R2FalconEntity@@8				; FalconEntity::`RTTI Base Class Array'
PUBLIC	??_R1A@?0A@EA@VuEntity@@8			; VuEntity::`RTTI Base Class Descriptor at (0,-1,0,64)'
PUBLIC	??_R0?AVVuEntity@@@8				; VuEntity `RTTI Type Descriptor'
PUBLIC	??_R3VuEntity@@8				; VuEntity::`RTTI Class Hierarchy Descriptor'
PUBLIC	??_R2VuEntity@@8				; VuEntity::`RTTI Base Class Array'
PUBLIC	??_R4InvalidBufferException@@6B@		; InvalidBufferException::`RTTI Complete Object Locator'
PUBLIC	??_R3InvalidBufferException@@8			; InvalidBufferException::`RTTI Class Hierarchy Descriptor'
PUBLIC	??_R2InvalidBufferException@@8			; InvalidBufferException::`RTTI Base Class Array'
PUBLIC	??_R1A@?0A@EA@InvalidBufferException@@8		; InvalidBufferException::`RTTI Base Class Descriptor at (0,-1,0,64)'
PUBLIC	??_R4error_category@std@@6B@			; std::error_category::`RTTI Complete Object Locator'
PUBLIC	??_R0?AVerror_category@std@@@8			; std::error_category `RTTI Type Descriptor'
PUBLIC	??_R3error_category@std@@8			; std::error_category::`RTTI Class Hierarchy Descriptor'
PUBLIC	??_R2error_category@std@@8			; std::error_category::`RTTI Base Class Array'
PUBLIC	??_R1A@?0A@EA@error_category@std@@8		; std::error_category::`RTTI Base Class Descriptor at (0,-1,0,64)'
PUBLIC	??_R4_Generic_error_category@std@@6B@		; std::_Generic_error_category::`RTTI Complete Object Locator'
PUBLIC	??_R0?AV_Generic_error_category@std@@@8		; std::_Generic_error_category `RTTI Type Descriptor'
PUBLIC	??_R3_Generic_error_category@std@@8		; std::_Generic_error_category::`RTTI Class Hierarchy Descriptor'
PUBLIC	??_R2_Generic_error_category@std@@8		; std::_Generic_error_category::`RTTI Base Class Array'
PUBLIC	??_R1A@?0A@EA@_Generic_error_category@std@@8	; std::_Generic_error_category::`RTTI Base Class Descriptor at (0,-1,0,64)'
PUBLIC	??_R4_Iostream_error_category@std@@6B@		; std::_Iostream_error_category::`RTTI Complete Object Locator'
PUBLIC	??_R0?AV_Iostream_error_category@std@@@8	; std::_Iostream_error_category `RTTI Type Descriptor'
PUBLIC	??_R3_Iostream_error_category@std@@8		; std::_Iostream_error_category::`RTTI Class Hierarchy Descriptor'
PUBLIC	??_R2_Iostream_error_category@std@@8		; std::_Iostream_error_category::`RTTI Base Class Array'
PUBLIC	??_R1A@?0A@EA@_Iostream_error_category@std@@8	; std::_Iostream_error_category::`RTTI Base Class Descriptor at (0,-1,0,64)'
PUBLIC	??_R4_System_error_category@std@@6B@		; std::_System_error_category::`RTTI Complete Object Locator'
PUBLIC	??_R0?AV_System_error_category@std@@@8		; std::_System_error_category `RTTI Type Descriptor'
PUBLIC	??_R3_System_error_category@std@@8		; std::_System_error_category::`RTTI Class Hierarchy Descriptor'
PUBLIC	??_R2_System_error_category@std@@8		; std::_System_error_category::`RTTI Base Class Array'
PUBLIC	??_R1A@?0A@EA@_System_error_category@std@@8	; std::_System_error_category::`RTTI Base Class Descriptor at (0,-1,0,64)'
PUBLIC	__real@00000000
PUBLIC	__real@3f800000
PUBLIC	__real@3f860a91
PUBLIC	__real@3fa00000
PUBLIC	__real@3fb2b8c1
PUBLIC	__real@3fc90fd9
PUBLIC	__real@3fdf66f1
PUBLIC	__real@40100000
PUBLIC	__real@40400000
PUBLIC	__real@40437a13
PUBLIC	__real@40490fd9
PUBLIC	__real@40490fdb
PUBLIC	__real@40c90fdb
PUBLIC	__real@41800000
PUBLIC	__real@42000000
PUBLIC	__real@43000000
PUBLIC	__real@447a0000
PUBLIC	__real@454cffae
PUBLIC	__real@4a5bba00
PUBLIC	__real@bf060a91
PUBLIC	__real@bf800000
PUBLIC	__real@c3fa0000
PUBLIC	__real@c4fa0000
PUBLIC	__real@c65ac000
PUBLIC	__xmm@41f00000000000000000000000000000
EXTRN	__purecall:PROC
EXTRN	??2@YAPAXI@Z:PROC				; operator new
EXTRN	??3@YAXPAX@Z:PROC				; operator delete
EXTRN	_atexit:PROC
EXTRN	___report_rangecheckfailure:PROC
EXTRN	_fclose:PROC
EXTRN	_fflush:PROC
EXTRN	_fprintf:PROC
EXTRN	_fwrite:PROC
EXTRN	_printf:PROC
EXTRN	__snprintf:PROC
EXTRN	_sprintf:PROC
EXTRN	_rand:PROC
EXTRN	_fabs:PROC
EXTRN	_memcpy:PROC
EXTRN	_memset:PROC
EXTRN	_strcpy:PROC
EXTRN	_strcat:PROC
EXTRN	_strlen:PROC
EXTRN	_memmove:PROC
EXTRN	__mbsncpy:PROC
EXTRN	_MonoPrint:PROC
EXTRN	__isnan:PROC
EXTRN	__imp__MessageBoxA@16:PROC
EXTRN	?F4IsBadReadPtr@@YA_NPBXI@Z:PROC		; F4IsBadReadPtr
EXTRN	?F4IsBadCodePtr@@YA_NPAX@Z:PROC			; F4IsBadCodePtr
EXTRN	?SetPosition@VuEntity@@QAEXMMM@Z:PROC		; VuEntity::SetPosition
EXTRN	?SetOwnerId@VuEntity@@QAEXVVU_ID@@@Z:PROC	; VuEntity::SetOwnerId
EXTRN	?SetEntityType@VuEntity@@QAEXG@Z:PROC		; VuEntity::SetEntityType
EXTRN	?IsLocal@VuEntity@@QBEEXZ:PROC			; VuEntity::IsLocal
EXTRN	?CustomCollisionCheck@VuEntity@@UAEEPAV1@M@Z:PROC ; VuEntity::CustomCollisionCheck
EXTRN	?TerrainCollisionCheck@VuEntity@@UAEEXZ:PROC	; VuEntity::TerrainCollisionCheck
EXTRN	?IsTarget@VuEntity@@UAEEXZ:PROC			; VuEntity::IsTarget
EXTRN	?IsSession@VuEntity@@UAEEXZ:PROC		; VuEntity::IsSession
EXTRN	?IsGroup@VuEntity@@UAEEXZ:PROC			; VuEntity::IsGroup
EXTRN	?IsGame@VuEntity@@UAEEXZ:PROC			; VuEntity::IsGame
EXTRN	?IsCamera@VuEntity@@UBEEXZ:PROC			; VuEntity::IsCamera
EXTRN	?Handle@VuEntity@@UAEHPAVVuErrorMessage@@@Z:PROC ; VuEntity::Handle
EXTRN	?Handle@VuEntity@@UAEHPAVVuPushRequest@@@Z:PROC	; VuEntity::Handle
EXTRN	?Handle@VuEntity@@UAEHPAVVuPullRequest@@@Z:PROC	; VuEntity::Handle
EXTRN	?InsertionCallback@VuEntity@@MAEHXZ:PROC	; VuEntity::InsertionCallback
EXTRN	??0exception@std@@QAE@ABQBD@Z:PROC		; std::exception::exception
EXTRN	??0exception@std@@QAE@ABV01@@Z:PROC		; std::exception::exception
EXTRN	??1exception@std@@UAE@XZ:PROC			; std::exception::~exception
EXTRN	?what@exception@std@@UBEPBDXZ:PROC		; std::exception::what
EXTRN	??_V@YAXPAX@Z:PROC				; operator delete[]
EXTRN	??_U@YAPAXI@Z:PROC				; operator new[]
EXTRN	?_Xbad_alloc@std@@YAXXZ:PROC			; std::_Xbad_alloc
EXTRN	?_Xlength_error@std@@YAXPBD@Z:PROC		; std::_Xlength_error
EXTRN	?_Xout_of_range@std@@YAXPBD@Z:PROC		; std::_Xout_of_range
EXTRN	??_Elogic_error@std@@UAEPAXI@Z:PROC		; std::logic_error::`vector deleting destructor'
EXTRN	??_Eout_of_range@std@@UAEPAXI@Z:PROC		; std::out_of_range::`vector deleting destructor'
EXTRN	?Register@VuCollection@@QAEXXZ:PROC		; VuCollection::Register
EXTRN	?Unregister@VuCollection@@QAEXXZ:PROC		; VuCollection::Unregister
EXTRN	?Insert@VuCollection@@QAEHPAVVuEntity@@@Z:PROC	; VuCollection::Insert
EXTRN	?ForcedInsert@VuCollection@@QAEHPAVVuEntity@@@Z:PROC ; VuCollection::ForcedInsert
EXTRN	?Remove@VuCollection@@QAEHPAVVuEntity@@@Z:PROC	; VuCollection::Remove
EXTRN	?Find@VuCollection@@QBE_NPAVVuEntity@@@Z:PROC	; VuCollection::Find
EXTRN	?Insert@VuDatabase@@QAEHPAVVuEntity@@@Z:PROC	; VuDatabase::Insert
EXTRN	?Find@VuDatabase@@QBEPAVVuEntity@@VVU_ID@@@Z:PROC ; VuDatabase::Find
EXTRN	?Game@VuSessionEntity@@QAEPAVVuGameEntity@@XZ:PROC ; VuSessionEntity::Game
EXTRN	??0VuListIterator@@QAE@PAVVuLinkedList@@@Z:PROC	; VuListIterator::VuListIterator
EXTRN	??1VuListIterator@@UAE@XZ:PROC			; VuListIterator::~VuListIterator
EXTRN	?GetFirst@VuListIterator@@QAEPAVVuEntity@@XZ:PROC ; VuListIterator::GetFirst
EXTRN	?GetNext@VuListIterator@@QAEPAVVuEntity@@XZ:PROC ; VuListIterator::GetNext
EXTRN	?GetFirst@VuGridIterator@@QAEPAVVuEntity@@XZ:PROC ; VuGridIterator::GetFirst
EXTRN	?GetNext@VuGridIterator@@QAEPAVVuEntity@@XZ:PROC ; VuGridIterator::GetNext
EXTRN	?Save@FalconEntity@@UAEHPAU_iobuf@@@Z:PROC	; FalconEntity::Save
EXTRN	?CleanupData@FalconEntity@@UAEXXZ:PROC		; FalconEntity::CleanupData
EXTRN	?RemovalCallback@FalconEntity@@UAEHXZ:PROC	; FalconEntity::RemovalCallback
EXTRN	?GetDomain@FalconEntity@@UAEEXZ:PROC		; FalconEntity::GetDomain
EXTRN	?GetLocation@FalconEntity@@QBEXPAF0@Z:PROC	; FalconEntity::GetLocation
EXTRN	?MakeDirty@FalconEntity@@QAEXW4Dirty_Class@@W4Dirtyness@@@Z:PROC ; FalconEntity::MakeDirty
EXTRN	??0TailInsertList@@QAE@PAVVuFilter@@@Z:PROC	; TailInsertList::TailInsertList
EXTRN	?ForcedInsert@TailInsertList@@QAEHPAVVuEntity@@@Z:PROC ; TailInsertList::ForcedInsert
EXTRN	?Camp_GetCurrentTime@@YAKXZ:PROC		; Camp_GetCurrentTime
EXTRN	?OpenCampFile@@YAPAU_iobuf@@PAD00@Z:PROC	; OpenCampFile
EXTRN	?GetWeaponStrength@@YAHH@Z:PROC			; GetWeaponStrength
EXTRN	?GetWeaponRange@@YAHHH@Z:PROC			; GetWeaponRange
EXTRN	?GetWeaponFireRate@@YAHH@Z:PROC			; GetWeaponFireRate
EXTRN	?GetWeaponHitChance@@YAHHH@Z:PROC		; GetWeaponHitChance
EXTRN	?GetWeaponHitChance@@YAHHHH@Z:PROC		; GetWeaponHitChance
EXTRN	?GetWeaponScore@@YAHHHH@Z:PROC			; GetWeaponScore
EXTRN	?GetWeaponScore@@YAHHPAEHH@Z:PROC		; GetWeaponScore
EXTRN	?GetWeaponDamageType@@YAHH@Z:PROC		; GetWeaponDamageType
EXTRN	?GetWeaponFlags@@YAHH@Z:PROC			; GetWeaponFlags
EXTRN	?GetClassID@@YAHEEEEEEEE@Z:PROC			; GetClassID
EXTRN	?FalconSendMessage@@YAXPAVVuMessage@@H@Z:PROC	; FalconSendMessage
EXTRN	?GetGroundCover@@YA?AW4CoverType@@PAE@Z:PROC	; GetGroundCover
EXTRN	?GetCell@@YAPAEFF@Z:PROC			; GetCell
EXTRN	??0WayPointClass@@QAE@FFHHKKEH@Z:PROC		; WayPointClass::WayPointClass
EXTRN	??0WayPointClass@@QAE@PAPAEPAJ@Z:PROC		; WayPointClass::WayPointClass
EXTRN	?SaveSize@WayPointClass@@QAEHXZ:PROC		; WayPointClass::SaveSize
EXTRN	?Save@WayPointClass@@QAEHPAPAE@Z:PROC		; WayPointClass::Save
EXTRN	?SetNextWP@WayPointClass@@QAEXPAV1@@Z:PROC	; WayPointClass::SetNextWP
EXTRN	?UnlinkNextWP@WayPointClass@@QAEXXZ:PROC	; WayPointClass::UnlinkNextWP
EXTRN	?InsertWP@WayPointClass@@QAEXPAV1@@Z:PROC	; WayPointClass::InsertWP
EXTRN	?DeleteWP@WayPointClass@@QAEXXZ:PROC		; WayPointClass::DeleteWP
EXTRN	?CloneWP@WayPointClass@@QAEXPAV1@@Z:PROC	; WayPointClass::CloneWP
EXTRN	?DeleteWPList@@YAXPAVWayPointClass@@@Z:PROC	; DeleteWPList
EXTRN	?SetWPTimes@@YAKPAVWayPointClass@@FFHH@Z:PROC	; SetWPTimes
EXTRN	?SetWPSpeed@@YAMPAVWayPointClass@@@Z:PROC	; SetWPSpeed
EXTRN	??_EInvalidBufferException@@UAEPAXI@Z:PROC	; InvalidBufferException::`vector deleting destructor'
EXTRN	?GetTeam@@YAEE@Z:PROC				; GetTeam
EXTRN	?SetBaseFlags@CampBaseClass@@QAEXF@Z:PROC	; CampBaseClass::SetBaseFlags
EXTRN	?SetOwner@CampBaseClass@@UAEXE@Z:PROC		; CampBaseClass::SetOwner
EXTRN	?SetCampId@CampBaseClass@@QAEXF@Z:PROC		; CampBaseClass::SetCampId
EXTRN	?SetComponents@CampBaseClass@@QAEXPAVTailInsertList@@@Z:PROC ; CampBaseClass::SetComponents
EXTRN	?SetDeagOwner@CampBaseClass@@QAEXVVU_ID@@@Z:PROC ; CampBaseClass::SetDeagOwner
EXTRN	?MakeCampBaseDirty@CampBaseClass@@QAEXW4Dirty_Campaign_Base@@W4Dirtyness@@@Z:PROC ; CampBaseClass::MakeCampBaseDirty
EXTRN	??0CampBaseClass@@QAE@GK@Z:PROC			; CampBaseClass::CampBaseClass
EXTRN	??0CampBaseClass@@QAE@PAPAEPAJ@Z:PROC		; CampBaseClass::CampBaseClass
EXTRN	??1CampBaseClass@@UAE@XZ:PROC			; CampBaseClass::~CampBaseClass
EXTRN	?InitData@CampBaseClass@@UAEXXZ:PROC		; CampBaseClass::InitData
EXTRN	?SaveSize@CampBaseClass@@UAEHXZ:PROC		; CampBaseClass::SaveSize
EXTRN	?Save@CampBaseClass@@UAEHPAPAE@Z:PROC		; CampBaseClass::Save
EXTRN	?Handle@CampBaseClass@@UAEHPAVVuEvent@@@Z:PROC	; CampBaseClass::Handle
EXTRN	?Handle@CampBaseClass@@UAEHPAVVuFullUpdateEvent@@@Z:PROC ; CampBaseClass::Handle
EXTRN	?Handle@CampBaseClass@@UAEHPAVVuPositionUpdateEvent@@@Z:PROC ; CampBaseClass::Handle
EXTRN	?Handle@CampBaseClass@@UAEHPAVVuEntityCollisionEvent@@@Z:PROC ; CampBaseClass::Handle
EXTRN	?Handle@CampBaseClass@@UAEHPAVVuTransferEvent@@@Z:PROC ; CampBaseClass::Handle
EXTRN	?Handle@CampBaseClass@@UAEHPAVVuSessionEvent@@@Z:PROC ; CampBaseClass::Handle
EXTRN	?Remove@CampBaseClass@@QAEHXZ:PROC		; CampBaseClass::Remove
EXTRN	?GetComponentEntity@CampBaseClass@@QAEPAVSimBaseClass@@H@Z:PROC ; CampBaseClass::GetComponentEntity
EXTRN	?GetComponentNumber@CampBaseClass@@QAEPAVSimBaseClass@@H@Z:PROC ; CampBaseClass::GetComponentNumber
EXTRN	?SetLocation@CampBaseClass@@QAEXFF@Z:PROC	; CampBaseClass::SetLocation
EXTRN	?SetAltitude@CampBaseClass@@QAEXH@Z:PROC	; CampBaseClass::SetAltitude
EXTRN	?SetSpotted@CampBaseClass@@QAEXEKH@Z:PROC	; CampBaseClass::SetSpotted
EXTRN	?SetEmitting@CampBaseClass@@QAEXH@Z:PROC	; CampBaseClass::SetEmitting
EXTRN	?SetAggregate@CampBaseClass@@QAEX_N@Z:PROC	; CampBaseClass::SetAggregate
EXTRN	?SetAwake@CampBaseClass@@QAEXH@Z:PROC		; CampBaseClass::SetAwake
EXTRN	?SetInSimLists@CampBaseClass@@QAEXH@Z:PROC	; CampBaseClass::SetInSimLists
EXTRN	?GetEntityClass@@YAFPAVVuEntity@@@Z:PROC	; GetEntityClass
EXTRN	?GetVisualDetectionRange@@YAHH@Z:PROC		; GetVisualDetectionRange
EXTRN	?GetVehicleClassData@@YAPAUVehicleClassDataType@@H@Z:PROC ; GetVehicleClassData
EXTRN	_F4EnterCriticalSection:PROC
EXTRN	_F4LeaveCriticalSection:PROC
EXTRN	?GetGameType@FalconGameEntity@@QAE?AW4FalconGameType@@XZ:PROC ; FalconGameEntity::GetGameType
EXTRN	?CloseCampFile@@YAXPAU_iobuf@@@Z:PROC		; CloseCampFile
EXTRN	?ReadCampFile@@YA?AUCampaignData@@PAD0@Z:PROC	; ReadCampFile
EXTRN	?GetTacticFormation@@YAHH@Z:PROC		; GetTacticFormation
EXTRN	??0FalconUnitMessage@@QAE@VVU_ID@@PAVVuTargetEntity@@E@Z:PROC ; FalconUnitMessage::FalconUnitMessage
EXTRN	??0FalconUnitAssignmentMessage@@QAE@VVU_ID@@PAVVuTargetEntity@@E@Z:PROC ; FalconUnitAssignmentMessage::FalconUnitAssignmentMessage
EXTRN	??0FalconCampEventMessage@@QAE@VVU_ID@@PAVVuTargetEntity@@E@Z:PROC ; FalconCampEventMessage::FalconCampEventMessage
EXTRN	?SendCampUIMessage@@YAXPAVFalconCampEventMessage@@@Z:PROC ; SendCampUIMessage
EXTRN	??_EUnitClass@@UAEPAXI@Z:PROC			; UnitClass::`vector deleting destructor'
EXTRN	?InList@ATCBrain@@QAEPAUrunwayQueueStruct@@VVU_ID@@@Z:PROC ; ATCBrain::InList
EXTRN	?AddTraffic@ATCBrain@@QAEPAUrunwayQueueStruct@@VVU_ID@@W4AtcStatusEnum@@HJ@Z:PROC ; ATCBrain::AddTraffic
EXTRN	?FindFlightTakeoffTime@ATCBrain@@QAEKPAVFlightClass@@H@Z:PROC ; ATCBrain::FindFlightTakeoffTime
EXTRN	?FindBestTakeoffRunway@ATCBrain@@QAEHH@Z:PROC	; ATCBrain::FindBestTakeoffRunway
EXTRN	?GetSiteRange@ObjectiveClass@@QAEMPAVFalconEntity@@@Z:PROC ; ObjectiveClass::GetSiteRange
EXTRN	?HasRadarRanges@ObjectiveClass@@QAEHXZ:PROC	; ObjectiveClass::HasRadarRanges
EXTRN	?GetGridPath@@YAHPAVBasePathClass@@FFFFHHH@Z:PROC ; GetGridPath
EXTRN	?GetObjectivePath@@YAHPAVBasePathClass@@PAVObjectiveClass@@1HHH@Z:PROC ; GetObjectivePath
EXTRN	?GetMovementCost@@YAMFFW4MoveType@@HE@Z:PROC	; GetMovementCost
EXTRN	?DistSqu@@YAHFFFF@Z:PROC			; DistSqu
EXTRN	?Distance@@YAMFFFF@Z:PROC			; Distance
EXTRN	?DistSqu@@YAMMMMM@Z:PROC			; DistSqu
EXTRN	?OctantTo@@YAHMMMM@Z:PROC			; OctantTo
EXTRN	?FindNearestObjective@@YAPAVObjectiveClass@@FFPAMF@Z:PROC ; FindNearestObjective
EXTRN	?ConvertSimToGrid@@YAXPAUvector@@PAF1@Z:PROC	; ConvertSimToGrid
EXTRN	?GetRoE@@YAHEEH@Z:PROC				; GetRoE
EXTRN	?TransferInitiative@@YAXEEH@Z:PROC		; TransferInitiative
EXTRN	?AirExperienceAdjustment@@YAME@Z:PROC		; AirExperienceAdjustment
EXTRN	?AirDefenseExperienceAdjustment@@YAME@Z:PROC	; AirDefenseExperienceAdjustment
EXTRN	?GroundExperienceAdjustment@@YAME@Z:PROC	; GroundExperienceAdjustment
EXTRN	?NavalExperienceAdjustment@@YAME@Z:PROC		; NavalExperienceAdjustment
EXTRN	?CombatBonus@@YAMEVVU_ID@@@Z:PROC		; CombatBonus
EXTRN	?GetEnemyTeam@@YAEE@Z:PROC			; GetEnemyTeam
EXTRN	?GetName@DivisionClass@@QAEPADPADHH@Z:PROC	; DivisionClass::GetName
EXTRN	?GetDivisionByUnit@@YAPAVDivisionClass@@PAVUnitClass@@@Z:PROC ; GetDivisionByUnit
EXTRN	??0BattalionClass@@QAE@PAPAEPAJ@Z:PROC		; BattalionClass::BattalionClass
EXTRN	?NewBattalion@@YAPAVBattalionClass@@HPAVUnitClass@@@Z:PROC ; NewBattalion
EXTRN	??0BrigadeClass@@QAE@PAPAEPAJ@Z:PROC		; BrigadeClass::BrigadeClass
EXTRN	?NewBrigade@@YAPAVBrigadeClass@@H@Z:PROC	; NewBrigade
EXTRN	??0PackageClass@@QAE@PAPAEPAJ@Z:PROC		; PackageClass::PackageClass
EXTRN	?NewPackage@@YAPAVPackageClass@@H@Z:PROC	; NewPackage
EXTRN	?MakeFlightDirty@FlightClass@@QAEXW4Dirty_Flight@@W4Dirtyness@@@Z:PROC ; FlightClass::MakeFlightDirty
EXTRN	??0FlightClass@@QAE@PAPAEPAJ@Z:PROC		; FlightClass::FlightClass
EXTRN	?DetectVs@FlightClass@@QAEHPAVCampBaseClass@@PAMPAH22@Z:PROC ; FlightClass::DetectVs
EXTRN	?PickRandomPilot@FlightClass@@QAEHH@Z:PROC	; FlightClass::PickRandomPilot
EXTRN	?GetAdjustedPlayerSlot@FlightClass@@QAEHH@Z:PROC ; FlightClass::GetAdjustedPlayerSlot
EXTRN	?GetFlightLeadCallNumber@FlightClass@@QAEHXZ:PROC ; FlightClass::GetFlightLeadCallNumber
EXTRN	?GetFlightLeadVoiceID@FlightClass@@QAEEXZ:PROC	; FlightClass::GetFlightLeadVoiceID
EXTRN	?CalculateFuelAvailable@FlightClass@@QAEJH@Z:PROC ; FlightClass::CalculateFuelAvailable
EXTRN	?GetECMFlight@FlightClass@@QAEPAV1@XZ:PROC	; FlightClass::GetECMFlight
EXTRN	?NewFlight@@YAPAVFlightClass@@HPAVUnitClass@@0@Z:PROC ; NewFlight
EXTRN	?RegroupFlight@@YAHPAVFlightClass@@@Z:PROC	; RegroupFlight
EXTRN	?CancelFlight@@YAXPAVFlightClass@@@Z:PROC	; CancelFlight
EXTRN	?UpdateSquadronStatus@@YAXPAVFlightClass@@HH@Z:PROC ; UpdateSquadronStatus
EXTRN	??0SquadronClass@@QAE@PAPAEPAJ@Z:PROC		; SquadronClass::SquadronClass
EXTRN	?NewSquadron@@YAPAVSquadronClass@@H@Z:PROC	; NewSquadron
EXTRN	?SendATMMessage@AirTaskingManagerClass@@QAEXVVU_ID@@EFFFPAXH@Z:PROC ; AirTaskingManagerClass::SendATMMessage
EXTRN	?TimeToMove@@YAKPAVUnitClass@@E@Z:PROC		; TimeToMove
EXTRN	??0TaskForceClass@@QAE@PAPAEPAJ@Z:PROC		; TaskForceClass::TaskForceClass
EXTRN	?NewTaskForce@@YAPAVTaskForceClass@@H@Z:PROC	; NewTaskForce
EXTRN	??_Eerror_category@std@@UAEPAXI@Z:PROC		; std::error_category::`vector deleting destructor'
EXTRN	?_Syserror_map@std@@YAPBDH@Z:PROC		; std::_Syserror_map
EXTRN	?_Winerror_map@std@@YAPBDH@Z:PROC		; std::_Winerror_map
EXTRN	??_E_Generic_error_category@std@@UAEPAXI@Z:PROC	; std::_Generic_error_category::`vector deleting destructor'
EXTRN	??_E_Iostream_error_category@std@@UAEPAXI@Z:PROC ; std::_Iostream_error_category::`vector deleting destructor'
EXTRN	??_E_System_error_category@std@@UAEPAXI@Z:PROC	; std::_System_error_category::`vector deleting destructor'
EXTRN	?GetFirstPt@@YAHH@Z:PROC			; GetFirstPt
EXTRN	?GetNextPt@@YAHH@Z:PROC				; GetNextPt
EXTRN	?GetQueue@@YAHH@Z:PROC				; GetQueue
EXTRN	??0FalconCampDataMessage@@QAE@VVU_ID@@PAVVuTargetEntity@@E@Z:PROC ; FalconCampDataMessage::FalconCampDataMessage
EXTRN	?SetPlayerSquadron@FalconSessionEntity@@QAEXPAVSquadronClass@@@Z:PROC ; FalconSessionEntity::SetPlayerSquadron
EXTRN	?SetPlayerFlight@FalconSessionEntity@@QAEXPAVFlightClass@@@Z:PROC ; FalconSessionEntity::SetPlayerFlight
EXTRN	?InSessionBubble@FalconSessionEntity@@QAEHPAVFalconEntity@@M@Z:PROC ; FalconSessionEntity::InSessionBubble
EXTRN	?TargetAz@@YAMPAVFalconEntity@@0@Z:PROC		; TargetAz
EXTRN	?TargetEl@@YAMPAVFalconEntity@@0@Z:PROC		; TargetEl
EXTRN	?AddObjectToSim@@YAPAVSimBaseClass@@PAVSimInitDataClass@@H@Z:PROC ; AddObjectToSim
EXTRN	?SetRemoveFlag@SimBaseClass@@QAEXXZ:PROC	; SimBaseClass::SetRemoveFlag
EXTRN	??0FalconRadioChatterMessage@@QAE@VVU_ID@@PAVVuTargetEntity@@E@Z:PROC ; FalconRadioChatterMessage::FalconRadioChatterMessage
EXTRN	??0FalconSimCampMessage@@QAE@VVU_ID@@PAVVuTargetEntity@@E@Z:PROC ; FalconSimCampMessage::FalconSimCampMessage
EXTRN	??0FalconFlightPlanMessage@@QAE@VVU_ID@@PAVVuTargetEntity@@E@Z:PROC ; FalconFlightPlanMessage::FalconFlightPlanMessage
EXTRN	?AddMissCraters@@YAXPAVFalconEntity@@H@Z:PROC	; AddMissCraters
EXTRN	?AddHulk@@YAXPAVFalconEntity@@H@Z:PROC		; AddHulk
EXTRN	?GetSTypeName@@YAPADHHHQAD@Z:PROC		; GetSTypeName
EXTRN	?GetNumberName@@YAPADHPAD@Z:PROC		; GetNumberName
EXTRN	?ReadIndexedString@@YAXHPADH@Z:PROC		; ReadIndexedString
EXTRN	_LZSS_Compress:PROC
EXTRN	_LZSS_Expand:PROC
EXTRN	?AddToCampUnitList@SimulationDriver@@QAEXPAVVuEntity@@@Z:PROC ; SimulationDriver::AddToCampUnitList
EXTRN	?RemoveFromCampUnitList@SimulationDriver@@QAEXPAVVuEntity@@@Z:PROC ; SimulationDriver::RemoveFromCampUnitList
EXTRN	?WakeCampaignBase@SimulationDriver@@QAEXHPAVCampBaseClass@@PAVTailInsertList@@@Z:PROC ; SimulationDriver::WakeCampaignBase
EXTRN	?SleepCampaignFlight@SimulationDriver@@QAEXPAVTailInsertList@@@Z:PROC ; SimulationDriver::SleepCampaignFlight
EXTRN	?InsertObject@OTWDriverClass@@QAEXPAVDrawableObject@@@Z:PROC ; OTWDriverClass::InsertObject
EXTRN	?RemoveObject@OTWDriverClass@@QAEXPAVDrawableObject@@H@Z:PROC ; OTWDriverClass::RemoveObject
EXTRN	??0DrawablePoint@@QAE@KHPBUTpoint@@M@Z:PROC	; DrawablePoint::DrawablePoint
EXTRN	?GetMEA@TMap@@QAEMMM@Z:PROC			; TMap::GetMEA
EXTRN	?AdjustClassId@DogfightClass@@QAEHHH@Z:PROC	; DogfightClass::AdjustClassId
EXTRN	?CheckPlayerStatus@GameManagerClass@@QAEHPAVFalconEntity@@@Z:PROC ; GameManagerClass::CheckPlayerStatus
EXTRN	?UI_Refresh@@YAXXZ:PROC				; UI_Refresh
EXTRN	?update_active_flight@@YAXPAVUnitClass@@@Z:PROC	; update_active_flight
EXTRN	?EvaluateKill@@YAXPAVFalconDeathMessage@@PAVSimBaseClass@@PAVCampBaseClass@@12@Z:PROC ; EvaluateKill
EXTRN	@__security_check_cookie@4:PROC
EXTRN	__CxxThrowException@8:PROC
EXTRN	___CxxFrameHandler3:PROC
EXTRN	_memset:PROC
EXTRN	?vuDatabase@@3PAVVuDatabase@@A:DWORD		; vuDatabase
EXTRN	?vuLocalSessionEntity@@3V?$VuBin@VVuSessionEntity@@@@A:DWORD ; vuLocalSessionEntity
EXTRN	?vuLocalSession@@3VVU_ID@@A:QWORD		; vuLocalSession
EXTRN	?FalconNullId@@3VVU_ID@@A:QWORD			; FalconNullId
EXTRN	?FalconNothingFilter@@3VFalconNothingFilterType@@A:DWORD ; FalconNothingFilter
EXTRN	?WeaponDataTable@@3PAUWeaponClassDataType@@A:DWORD ; WeaponDataTable
EXTRN	?PtHeaderDataTable@@3PAUPtHeaderDataType@@A:DWORD ; PtHeaderDataTable
EXTRN	?PtDataTable@@3PAUPtDataType@@A:DWORD		; PtDataTable
EXTRN	?SimWeaponDataTable@@3PAUSimWeaponDataType@@A:DWORD ; SimWeaponDataTable
EXTRN	?DDP@@3PAUDirtyDataClassType@@A:DWORD		; DDP
EXTRN	?Falcon4ClassTable@@3PAUFalcon4EntityClassType@@A:DWORD ; Falcon4ClassTable
EXTRN	?SimLibElapsedTime@@3KA:DWORD			; SimLibElapsedTime
EXTRN	?Map_Max_X@@3FA:WORD				; Map_Max_X
EXTRN	?Map_Max_Y@@3FA:WORD				; Map_Max_Y
EXTRN	??_7type_info@@6B@:QWORD			; type_info::`vftable'
EXTRN	?gDamageStatusBuffer@@3PAEA:BYTE		; gDamageStatusBuffer
EXTRN	?gDamageStatusPtr@@3PAEA:DWORD			; gDamageStatusPtr
EXTRN	?dx@@3PAFA:BYTE					; dx
EXTRN	?dy@@3PAFA:BYTE					; dy
EXTRN	?campCritical@@3PAUF4CSECTIONHANDLE@@A:DWORD	; campCritical
EXTRN	?VisualDetectionRange@@3PAHA:BYTE		; VisualDetectionRange
EXTRN	?DefaultDamageMods@@3PAEA:BYTE			; DefaultDamageMods
EXTRN	?TheCampaign@@3VCampaignClass@@A:BYTE		; TheCampaign
EXTRN	?gCampDataVersion@@3HA:DWORD			; gCampDataVersion
EXTRN	?AllUnitList@@3PAVVuLinkedList@@A:DWORD		; AllUnitList
EXTRN	?AllAirList@@3PAVVuLinkedList@@A:DWORD		; AllAirList
EXTRN	?AllParentList@@3PAVVuLinkedList@@A:DWORD	; AllParentList
EXTRN	?AllRealList@@3PAVVuLinkedList@@A:DWORD		; AllRealList
EXTRN	?InactiveList@@3PAVVuLinkedList@@A:DWORD	; InactiveList
EXTRN	?deaggregatedEntities@@3PAVVuHashTable@@A:DWORD	; deaggregatedEntities
EXTRN	?RealUnitProxList@@3PAVVuGridTree@@A:DWORD	; RealUnitProxList
EXTRN	?TeamInfo@@3PAPAVTeamClass@@A:BYTE		; TeamInfo
EXTRN	?GROUND_PATH_MAX@@3FA:WORD			; GROUND_PATH_MAX
EXTRN	?OBJ_GROUND_PATH_MAX_SEARCH@@3FA:WORD		; OBJ_GROUND_PATH_MAX_SEARCH
EXTRN	?MINIMUM_STRENGTH@@3FA:WORD			; MINIMUM_STRENGTH
EXTRN	?MAX_DAMAGE_TRIES@@3FA:WORD			; MAX_DAMAGE_TRIES
EXTRN	?REAGREGATION_RATIO@@3MA:DWORD			; REAGREGATION_RATIO
EXTRN	?ActionTimeOut@@3HA:DWORD			; ActionTimeOut
EXTRN	?CampBugFixes@@3HA:DWORD			; CampBugFixes
EXTRN	?HitChanceAir@@3MA:DWORD			; HitChanceAir
EXTRN	?HitChanceGround@@3MA:DWORD			; HitChanceGround
EXTRN	?gUnitNameFormat@@3PADA:BYTE			; gUnitNameFormat
EXTRN	?SimDriver@@3VSimulationDriver@@A:BYTE		; SimDriver
EXTRN	?PlayerOptions@@3VPlayerOptionsClass@@A:BYTE	; PlayerOptions
EXTRN	?OTWDriver@@3VOTWDriverClass@@A:BYTE		; OTWDriver
EXTRN	?TheMap@@3VTMap@@A:BYTE				; TheMap
EXTRN	?SimDogfight@@3VDogfightClass@@A:BYTE		; SimDogfight
EXTRN	?GameManager@@3VGameManagerClass@@A:BYTE	; GameManager
EXTRN	?gLangIDNum@@3HA:DWORD				; gLangIDNum
EXTRN	?RadarDataTable@@3PAURadarDataType@@A:DWORD	; RadarDataTable
EXTRN	?missileDataset@@3PAVMissileDataSetClass@@A:DWORD ; missileDataset
EXTRN	?numMissileDatasets@@3HA:DWORD			; numMissileDatasets
EXTRN	?g_bLimit2DRadarFight@@3_NA:BYTE		; g_bLimit2DRadarFight
EXTRN	?g_nDeagTimer@@3HA:DWORD			; g_nDeagTimer
EXTRN	?MIN_DEAD_PCT@@3MA:DWORD			; MIN_DEAD_PCT
EXTRN	?theirDomain@@3HA:DWORD				; theirDomain
EXTRN	?maxSearch@@3HA:DWORD				; maxSearch
EXTRN	?gRocketId@@3FA:WORD				; gRocketId
EXTRN	?TeamSimColorList@@3PAJA:BYTE			; TeamSimColorList
EXTRN	?g_bFireOntheMove@@3_NA:BYTE			; g_bFireOntheMove
EXTRN	?g_bRealisticAttrition@@3_NA:BYTE		; g_bRealisticAttrition
EXTRN	___security_cookie:DWORD
EXTRN	__fltused:DWORD
_BSS	SEGMENT
_piecewise_construct DB 01H DUP (?)
	ALIGN	4

_allocator_arg DB 01H DUP (?)
_BSS	ENDS
;	COMDAT ?_Generic_object@?$_Error_objects@H@std@@2V_Generic_error_category@2@A
_BSS	SEGMENT
?_Generic_object@?$_Error_objects@H@std@@2V_Generic_error_category@2@A DD 01H DUP (?) ; std::_Error_objects<int>::_Generic_object
_BSS	ENDS
;	COMDAT ?_Iostream_object@?$_Error_objects@H@std@@2V_Iostream_error_category@2@A
_BSS	SEGMENT
?_Iostream_object@?$_Error_objects@H@std@@2V_Iostream_error_category@2@A DD 01H DUP (?) ; std::_Error_objects<int>::_Iostream_object
_BSS	ENDS
;	COMDAT ?_System_object@?$_Error_objects@H@std@@2V_System_error_category@2@A
_BSS	SEGMENT
?_System_object@?$_Error_objects@H@std@@2V_System_error_category@2@A DD 01H DUP (?) ; std::_Error_objects<int>::_System_object
_BSS	ENDS
;	COMDAT ?id@?$num_put@DV?$back_insert_iterator@V?$basic_string@DU?$char_traits@D@std@@V?$allocator@D@2@@std@@@std@@@std@@2V0locale@2@A
_BSS	SEGMENT
?id@?$num_put@DV?$back_insert_iterator@V?$basic_string@DU?$char_traits@D@std@@V?$allocator@D@2@@std@@@std@@@std@@2V0locale@2@A DD 01H DUP (?) ; std::num_put<char,std::back_insert_iterator<std::basic_string<char,std::char_traits<char>,std::allocator<char> > > >::id
_BSS	ENDS
;	COMDAT ?id@?$num_put@_WV?$back_insert_iterator@V?$basic_string@_WU?$char_traits@_W@std@@V?$allocator@_W@2@@std@@@std@@@std@@2V0locale@2@A
_BSS	SEGMENT
?id@?$num_put@_WV?$back_insert_iterator@V?$basic_string@_WU?$char_traits@_W@std@@V?$allocator@_W@2@@std@@@std@@@std@@2V0locale@2@A DD 01H DUP (?) ; std::num_put<wchar_t,std::back_insert_iterator<std::basic_string<wchar_t,std::char_traits<wchar_t>,std::allocator<wchar_t> > > >::id
_BSS	ENDS
;	COMDAT ?id@?$numpunct@D@std@@2V0locale@2@A
_BSS	SEGMENT
?id@?$numpunct@D@std@@2V0locale@2@A DD 01H DUP (?)	; std::numpunct<char>::id
_BSS	ENDS
;	COMDAT ?id@?$numpunct@_W@std@@2V0locale@2@A
_BSS	SEGMENT
?id@?$numpunct@_W@std@@2V0locale@2@A DD 01H DUP (?)	; std::numpunct<wchar_t>::id
_BSS	ENDS
CRT$XCU	SEGMENT
_piecewise_construct$initializer$ DD FLAT:??__Epiecewise_construct@std@@YAXXZ
CRT$XCU	ENDS
;	COMDAT __xmm@41f00000000000000000000000000000
CONST	SEGMENT
__xmm@41f00000000000000000000000000000 DB 00H, 00H, 00H, 00H, 00H, 00H, 00H
	DB	00H, 00H, 00H, 00H, 00H, 00H, 00H, 0f0H, 'A'
CONST	ENDS
;	COMDAT __real@c65ac000
CONST	SEGMENT
__real@c65ac000 DD 0c65ac000r			; -14000
CONST	ENDS
;	COMDAT __real@c4fa0000
CONST	SEGMENT
__real@c4fa0000 DD 0c4fa0000r			; -2000
CONST	ENDS
;	COMDAT __real@c3fa0000
CONST	SEGMENT
__real@c3fa0000 DD 0c3fa0000r			; -500
CONST	ENDS
;	COMDAT __real@bf800000
CONST	SEGMENT
__real@bf800000 DD 0bf800000r			; -1
CONST	ENDS
;	COMDAT __real@bf060a91
CONST	SEGMENT
__real@bf060a91 DD 0bf060a91r			; -0.523599
CONST	ENDS
;	COMDAT __real@4a5bba00
CONST	SEGMENT
__real@4a5bba00 DD 04a5bba00r			; 3.6e+006
CONST	ENDS
;	COMDAT __real@454cffae
CONST	SEGMENT
__real@454cffae DD 0454cffaer			; 3279.98
CONST	ENDS
;	COMDAT __real@447a0000
CONST	SEGMENT
__real@447a0000 DD 0447a0000r			; 1000
CONST	ENDS
;	COMDAT __real@43000000
CONST	SEGMENT
__real@43000000 DD 043000000r			; 128
CONST	ENDS
;	COMDAT __real@42000000
CONST	SEGMENT
__real@42000000 DD 042000000r			; 32
CONST	ENDS
;	COMDAT __real@41800000
CONST	SEGMENT
__real@41800000 DD 041800000r			; 16
CONST	ENDS
;	COMDAT __real@40c90fdb
CONST	SEGMENT
__real@40c90fdb DD 040c90fdbr			; 6.28319
CONST	ENDS
;	COMDAT __real@40490fdb
CONST	SEGMENT
__real@40490fdb DD 040490fdbr			; 3.14159
CONST	ENDS
;	COMDAT __real@40490fd9
CONST	SEGMENT
__real@40490fd9 DD 040490fd9r			; 3.14159
CONST	ENDS
;	COMDAT __real@40437a13
CONST	SEGMENT
__real@40437a13 DD 040437a13r			; 3.05433
CONST	ENDS
;	COMDAT __real@40400000
CONST	SEGMENT
__real@40400000 DD 040400000r			; 3
CONST	ENDS
;	COMDAT __real@40100000
CONST	SEGMENT
__real@40100000 DD 040100000r			; 2.25
CONST	ENDS
;	COMDAT __real@3fdf66f1
CONST	SEGMENT
__real@3fdf66f1 DD 03fdf66f1r			; 1.74533
CONST	ENDS
;	COMDAT __real@3fc90fd9
CONST	SEGMENT
__real@3fc90fd9 DD 03fc90fd9r			; 1.5708
CONST	ENDS
;	COMDAT __real@3fb2b8c1
CONST	SEGMENT
__real@3fb2b8c1 DD 03fb2b8c1r			; 1.39626
CONST	ENDS
;	COMDAT __real@3fa00000
CONST	SEGMENT
__real@3fa00000 DD 03fa00000r			; 1.25
CONST	ENDS
;	COMDAT __real@3f860a91
CONST	SEGMENT
__real@3f860a91 DD 03f860a91r			; 1.0472
CONST	ENDS
;	COMDAT __real@3f800000
CONST	SEGMENT
__real@3f800000 DD 03f800000r			; 1
CONST	ENDS
;	COMDAT __real@00000000
CONST	SEGMENT
__real@00000000 DD 000000000r			; 0
CONST	ENDS
;	COMDAT ??_R1A@?0A@EA@_System_error_category@std@@8
rdata$r	SEGMENT
??_R1A@?0A@EA@_System_error_category@std@@8 DD FLAT:??_R0?AV_System_error_category@std@@@8 ; std::_System_error_category::`RTTI Base Class Descriptor at (0,-1,0,64)'
	DD	02H
	DD	00H
	DD	0ffffffffH
	DD	00H
	DD	040H
	DD	FLAT:??_R3_System_error_category@std@@8
rdata$r	ENDS
;	COMDAT ??_R2_System_error_category@std@@8
rdata$r	SEGMENT
??_R2_System_error_category@std@@8 DD FLAT:??_R1A@?0A@EA@_System_error_category@std@@8 ; std::_System_error_category::`RTTI Base Class Array'
	DD	FLAT:??_R1A@?0A@EA@_Generic_error_category@std@@8
	DD	FLAT:??_R1A@?0A@EA@error_category@std@@8
rdata$r	ENDS
;	COMDAT ??_R3_System_error_category@std@@8
rdata$r	SEGMENT
??_R3_System_error_category@std@@8 DD 00H		; std::_System_error_category::`RTTI Class Hierarchy Descriptor'
	DD	00H
	DD	03H
	DD	FLAT:??_R2_System_error_category@std@@8
rdata$r	ENDS
;	COMDAT ??_R0?AV_System_error_category@std@@@8
_DATA	SEGMENT
??_R0?AV_System_error_category@std@@@8 DD FLAT:??_7type_info@@6B@ ; std::_System_error_category `RTTI Type Descriptor'
	DD	00H
	DB	'.?AV_System_error_category@std@@', 00H
_DATA	ENDS
;	COMDAT ??_R4_System_error_category@std@@6B@
rdata$r	SEGMENT
??_R4_System_error_category@std@@6B@ DD 00H		; std::_System_error_category::`RTTI Complete Object Locator'
	DD	00H
	DD	00H
	DD	FLAT:??_R0?AV_System_error_category@std@@@8
	DD	FLAT:??_R3_System_error_category@std@@8
rdata$r	ENDS
;	COMDAT ??_R1A@?0A@EA@_Iostream_error_category@std@@8
rdata$r	SEGMENT
??_R1A@?0A@EA@_Iostream_error_category@std@@8 DD FLAT:??_R0?AV_Iostream_error_category@std@@@8 ; std::_Iostream_error_category::`RTTI Base Class Descriptor at (0,-1,0,64)'
	DD	02H
	DD	00H
	DD	0ffffffffH
	DD	00H
	DD	040H
	DD	FLAT:??_R3_Iostream_error_category@std@@8
rdata$r	ENDS
;	COMDAT ??_R2_Iostream_error_category@std@@8
rdata$r	SEGMENT
??_R2_Iostream_error_category@std@@8 DD FLAT:??_R1A@?0A@EA@_Iostream_error_category@std@@8 ; std::_Iostream_error_category::`RTTI Base Class Array'
	DD	FLAT:??_R1A@?0A@EA@_Generic_error_category@std@@8
	DD	FLAT:??_R1A@?0A@EA@error_category@std@@8
rdata$r	ENDS
;	COMDAT ??_R3_Iostream_error_category@std@@8
rdata$r	SEGMENT
??_R3_Iostream_error_category@std@@8 DD 00H		; std::_Iostream_error_category::`RTTI Class Hierarchy Descriptor'
	DD	00H
	DD	03H
	DD	FLAT:??_R2_Iostream_error_category@std@@8
rdata$r	ENDS
;	COMDAT ??_R0?AV_Iostream_error_category@std@@@8
_DATA	SEGMENT
??_R0?AV_Iostream_error_category@std@@@8 DD FLAT:??_7type_info@@6B@ ; std::_Iostream_error_category `RTTI Type Descriptor'
	DD	00H
	DB	'.?AV_Iostream_error_category@std@@', 00H
_DATA	ENDS
;	COMDAT ??_R4_Iostream_error_category@std@@6B@
rdata$r	SEGMENT
??_R4_Iostream_error_category@std@@6B@ DD 00H		; std::_Iostream_error_category::`RTTI Complete Object Locator'
	DD	00H
	DD	00H
	DD	FLAT:??_R0?AV_Iostream_error_category@std@@@8
	DD	FLAT:??_R3_Iostream_error_category@std@@8
rdata$r	ENDS
;	COMDAT ??_R1A@?0A@EA@_Generic_error_category@std@@8
rdata$r	SEGMENT
??_R1A@?0A@EA@_Generic_error_category@std@@8 DD FLAT:??_R0?AV_Generic_error_category@std@@@8 ; std::_Generic_error_category::`RTTI Base Class Descriptor at (0,-1,0,64)'
	DD	01H
	DD	00H
	DD	0ffffffffH
	DD	00H
	DD	040H
	DD	FLAT:??_R3_Generic_error_category@std@@8
rdata$r	ENDS
;	COMDAT ??_R2_Generic_error_category@std@@8
rdata$r	SEGMENT
??_R2_Generic_error_category@std@@8 DD FLAT:??_R1A@?0A@EA@_Generic_error_category@std@@8 ; std::_Generic_error_category::`RTTI Base Class Array'
	DD	FLAT:??_R1A@?0A@EA@error_category@std@@8
rdata$r	ENDS
;	COMDAT ??_R3_Generic_error_category@std@@8
rdata$r	SEGMENT
??_R3_Generic_error_category@std@@8 DD 00H		; std::_Generic_error_category::`RTTI Class Hierarchy Descriptor'
	DD	00H
	DD	02H
	DD	FLAT:??_R2_Generic_error_category@std@@8
rdata$r	ENDS
;	COMDAT ??_R0?AV_Generic_error_category@std@@@8
_DATA	SEGMENT
??_R0?AV_Generic_error_category@std@@@8 DD FLAT:??_7type_info@@6B@ ; std::_Generic_error_category `RTTI Type Descriptor'
	DD	00H
	DB	'.?AV_Generic_error_category@std@@', 00H
_DATA	ENDS
;	COMDAT ??_R4_Generic_error_category@std@@6B@
rdata$r	SEGMENT
??_R4_Generic_error_category@std@@6B@ DD 00H		; std::_Generic_error_category::`RTTI Complete Object Locator'
	DD	00H
	DD	00H
	DD	FLAT:??_R0?AV_Generic_error_category@std@@@8
	DD	FLAT:??_R3_Generic_error_category@std@@8
rdata$r	ENDS
;	COMDAT ??_R1A@?0A@EA@error_category@std@@8
rdata$r	SEGMENT
??_R1A@?0A@EA@error_category@std@@8 DD FLAT:??_R0?AVerror_category@std@@@8 ; std::error_category::`RTTI Base Class Descriptor at (0,-1,0,64)'
	DD	00H
	DD	00H
	DD	0ffffffffH
	DD	00H
	DD	040H
	DD	FLAT:??_R3error_category@std@@8
rdata$r	ENDS
;	COMDAT ??_R2error_category@std@@8
rdata$r	SEGMENT
??_R2error_category@std@@8 DD FLAT:??_R1A@?0A@EA@error_category@std@@8 ; std::error_category::`RTTI Base Class Array'
rdata$r	ENDS
;	COMDAT ??_R3error_category@std@@8
rdata$r	SEGMENT
??_R3error_category@std@@8 DD 00H			; std::error_category::`RTTI Class Hierarchy Descriptor'
	DD	00H
	DD	01H
	DD	FLAT:??_R2error_category@std@@8
rdata$r	ENDS
;	COMDAT ??_R0?AVerror_category@std@@@8
_DATA	SEGMENT
??_R0?AVerror_category@std@@@8 DD FLAT:??_7type_info@@6B@ ; std::error_category `RTTI Type Descriptor'
	DD	00H
	DB	'.?AVerror_category@std@@', 00H
_DATA	ENDS
;	COMDAT ??_R4error_category@std@@6B@
rdata$r	SEGMENT
??_R4error_category@std@@6B@ DD 00H			; std::error_category::`RTTI Complete Object Locator'
	DD	00H
	DD	00H
	DD	FLAT:??_R0?AVerror_category@std@@@8
	DD	FLAT:??_R3error_category@std@@8
rdata$r	ENDS
;	COMDAT ??_R1A@?0A@EA@InvalidBufferException@@8
rdata$r	SEGMENT
??_R1A@?0A@EA@InvalidBufferException@@8 DD FLAT:??_R0?AVInvalidBufferException@@@8 ; InvalidBufferException::`RTTI Base Class Descriptor at (0,-1,0,64)'
	DD	03H
	DD	00H
	DD	0ffffffffH
	DD	00H
	DD	040H
	DD	FLAT:??_R3InvalidBufferException@@8
rdata$r	ENDS
;	COMDAT ??_R2InvalidBufferException@@8
rdata$r	SEGMENT
??_R2InvalidBufferException@@8 DD FLAT:??_R1A@?0A@EA@InvalidBufferException@@8 ; InvalidBufferException::`RTTI Base Class Array'
	DD	FLAT:??_R1A@?0A@EA@out_of_range@std@@8
	DD	FLAT:??_R1A@?0A@EA@logic_error@std@@8
	DD	FLAT:??_R1A@?0A@EA@exception@std@@8
rdata$r	ENDS
;	COMDAT ??_R3InvalidBufferException@@8
rdata$r	SEGMENT
??_R3InvalidBufferException@@8 DD 00H			; InvalidBufferException::`RTTI Class Hierarchy Descriptor'
	DD	00H
	DD	04H
	DD	FLAT:??_R2InvalidBufferException@@8
rdata$r	ENDS
;	COMDAT ??_R4InvalidBufferException@@6B@
rdata$r	SEGMENT
??_R4InvalidBufferException@@6B@ DD 00H			; InvalidBufferException::`RTTI Complete Object Locator'
	DD	00H
	DD	00H
	DD	FLAT:??_R0?AVInvalidBufferException@@@8
	DD	FLAT:??_R3InvalidBufferException@@8
rdata$r	ENDS
;	COMDAT ??_R2VuEntity@@8
rdata$r	SEGMENT
??_R2VuEntity@@8 DD FLAT:??_R1A@?0A@EA@VuEntity@@8	; VuEntity::`RTTI Base Class Array'
rdata$r	ENDS
;	COMDAT ??_R3VuEntity@@8
rdata$r	SEGMENT
??_R3VuEntity@@8 DD 00H					; VuEntity::`RTTI Class Hierarchy Descriptor'
	DD	00H
	DD	01H
	DD	FLAT:??_R2VuEntity@@8
rdata$r	ENDS
;	COMDAT ??_R0?AVVuEntity@@@8
_DATA	SEGMENT
??_R0?AVVuEntity@@@8 DD FLAT:??_7type_info@@6B@		; VuEntity `RTTI Type Descriptor'
	DD	00H
	DB	'.?AVVuEntity@@', 00H
_DATA	ENDS
;	COMDAT ??_R1A@?0A@EA@VuEntity@@8
rdata$r	SEGMENT
??_R1A@?0A@EA@VuEntity@@8 DD FLAT:??_R0?AVVuEntity@@@8	; VuEntity::`RTTI Base Class Descriptor at (0,-1,0,64)'
	DD	00H
	DD	00H
	DD	0ffffffffH
	DD	00H
	DD	040H
	DD	FLAT:??_R3VuEntity@@8
rdata$r	ENDS
;	COMDAT ??_R2FalconEntity@@8
rdata$r	SEGMENT
??_R2FalconEntity@@8 DD FLAT:??_R1A@?0A@EA@FalconEntity@@8 ; FalconEntity::`RTTI Base Class Array'
	DD	FLAT:??_R1A@?0A@EA@VuEntity@@8
rdata$r	ENDS
;	COMDAT ??_R3FalconEntity@@8
rdata$r	SEGMENT
??_R3FalconEntity@@8 DD 00H				; FalconEntity::`RTTI Class Hierarchy Descriptor'
	DD	00H
	DD	02H
	DD	FLAT:??_R2FalconEntity@@8
rdata$r	ENDS
;	COMDAT ??_R0?AVFalconEntity@@@8
_DATA	SEGMENT
??_R0?AVFalconEntity@@@8 DD FLAT:??_7type_info@@6B@	; FalconEntity `RTTI Type Descriptor'
	DD	00H
	DB	'.?AVFalconEntity@@', 00H
_DATA	ENDS
;	COMDAT ??_R1A@?0A@EA@FalconEntity@@8
rdata$r	SEGMENT
??_R1A@?0A@EA@FalconEntity@@8 DD FLAT:??_R0?AVFalconEntity@@@8 ; FalconEntity::`RTTI Base Class Descriptor at (0,-1,0,64)'
	DD	01H
	DD	00H
	DD	0ffffffffH
	DD	00H
	DD	040H
	DD	FLAT:??_R3FalconEntity@@8
rdata$r	ENDS
;	COMDAT ??_R2CampBaseClass@@8
rdata$r	SEGMENT
??_R2CampBaseClass@@8 DD FLAT:??_R1A@?0A@EA@CampBaseClass@@8 ; CampBaseClass::`RTTI Base Class Array'
	DD	FLAT:??_R1A@?0A@EA@FalconEntity@@8
	DD	FLAT:??_R1A@?0A@EA@VuEntity@@8
rdata$r	ENDS
;	COMDAT ??_R3CampBaseClass@@8
rdata$r	SEGMENT
??_R3CampBaseClass@@8 DD 00H				; CampBaseClass::`RTTI Class Hierarchy Descriptor'
	DD	00H
	DD	03H
	DD	FLAT:??_R2CampBaseClass@@8
rdata$r	ENDS
;	COMDAT ??_R0?AVCampBaseClass@@@8
_DATA	SEGMENT
??_R0?AVCampBaseClass@@@8 DD FLAT:??_7type_info@@6B@	; CampBaseClass `RTTI Type Descriptor'
	DD	00H
	DB	'.?AVCampBaseClass@@', 00H
_DATA	ENDS
;	COMDAT ??_R1A@?0A@EA@CampBaseClass@@8
rdata$r	SEGMENT
??_R1A@?0A@EA@CampBaseClass@@8 DD FLAT:??_R0?AVCampBaseClass@@@8 ; CampBaseClass::`RTTI Base Class Descriptor at (0,-1,0,64)'
	DD	02H
	DD	00H
	DD	0ffffffffH
	DD	00H
	DD	040H
	DD	FLAT:??_R3CampBaseClass@@8
rdata$r	ENDS
;	COMDAT ??_R1A@?0A@EA@UnitClass@@8
rdata$r	SEGMENT
??_R1A@?0A@EA@UnitClass@@8 DD FLAT:??_R0?AVUnitClass@@@8 ; UnitClass::`RTTI Base Class Descriptor at (0,-1,0,64)'
	DD	03H
	DD	00H
	DD	0ffffffffH
	DD	00H
	DD	040H
	DD	FLAT:??_R3UnitClass@@8
rdata$r	ENDS
;	COMDAT ??_R2UnitClass@@8
rdata$r	SEGMENT
??_R2UnitClass@@8 DD FLAT:??_R1A@?0A@EA@UnitClass@@8	; UnitClass::`RTTI Base Class Array'
	DD	FLAT:??_R1A@?0A@EA@CampBaseClass@@8
	DD	FLAT:??_R1A@?0A@EA@FalconEntity@@8
	DD	FLAT:??_R1A@?0A@EA@VuEntity@@8
rdata$r	ENDS
;	COMDAT ??_R3UnitClass@@8
rdata$r	SEGMENT
??_R3UnitClass@@8 DD 00H				; UnitClass::`RTTI Class Hierarchy Descriptor'
	DD	00H
	DD	04H
	DD	FLAT:??_R2UnitClass@@8
rdata$r	ENDS
;	COMDAT ??_R0?AVUnitClass@@@8
_DATA	SEGMENT
??_R0?AVUnitClass@@@8 DD FLAT:??_7type_info@@6B@	; UnitClass `RTTI Type Descriptor'
	DD	00H
	DB	'.?AVUnitClass@@', 00H
_DATA	ENDS
;	COMDAT ??_R4UnitClass@@6B@
rdata$r	SEGMENT
??_R4UnitClass@@6B@ DD 00H				; UnitClass::`RTTI Complete Object Locator'
	DD	00H
	DD	00H
	DD	FLAT:??_R0?AVUnitClass@@@8
	DD	FLAT:??_R3UnitClass@@8
rdata$r	ENDS
;	COMDAT ??_R1A@?0A@EA@out_of_range@std@@8
rdata$r	SEGMENT
??_R1A@?0A@EA@out_of_range@std@@8 DD FLAT:??_R0?AVout_of_range@std@@@8 ; std::out_of_range::`RTTI Base Class Descriptor at (0,-1,0,64)'
	DD	02H
	DD	00H
	DD	0ffffffffH
	DD	00H
	DD	040H
	DD	FLAT:??_R3out_of_range@std@@8
rdata$r	ENDS
;	COMDAT ??_R2out_of_range@std@@8
rdata$r	SEGMENT
??_R2out_of_range@std@@8 DD FLAT:??_R1A@?0A@EA@out_of_range@std@@8 ; std::out_of_range::`RTTI Base Class Array'
	DD	FLAT:??_R1A@?0A@EA@logic_error@std@@8
	DD	FLAT:??_R1A@?0A@EA@exception@std@@8
rdata$r	ENDS
;	COMDAT ??_R3out_of_range@std@@8
rdata$r	SEGMENT
??_R3out_of_range@std@@8 DD 00H				; std::out_of_range::`RTTI Class Hierarchy Descriptor'
	DD	00H
	DD	03H
	DD	FLAT:??_R2out_of_range@std@@8
rdata$r	ENDS
;	COMDAT ??_R4out_of_range@std@@6B@
rdata$r	SEGMENT
??_R4out_of_range@std@@6B@ DD 00H			; std::out_of_range::`RTTI Complete Object Locator'
	DD	00H
	DD	00H
	DD	FLAT:??_R0?AVout_of_range@std@@@8
	DD	FLAT:??_R3out_of_range@std@@8
rdata$r	ENDS
;	COMDAT ??_R1A@?0A@EA@logic_error@std@@8
rdata$r	SEGMENT
??_R1A@?0A@EA@logic_error@std@@8 DD FLAT:??_R0?AVlogic_error@std@@@8 ; std::logic_error::`RTTI Base Class Descriptor at (0,-1,0,64)'
	DD	01H
	DD	00H
	DD	0ffffffffH
	DD	00H
	DD	040H
	DD	FLAT:??_R3logic_error@std@@8
rdata$r	ENDS
;	COMDAT ??_R2logic_error@std@@8
rdata$r	SEGMENT
??_R2logic_error@std@@8 DD FLAT:??_R1A@?0A@EA@logic_error@std@@8 ; std::logic_error::`RTTI Base Class Array'
	DD	FLAT:??_R1A@?0A@EA@exception@std@@8
rdata$r	ENDS
;	COMDAT ??_R3logic_error@std@@8
rdata$r	SEGMENT
??_R3logic_error@std@@8 DD 00H				; std::logic_error::`RTTI Class Hierarchy Descriptor'
	DD	00H
	DD	02H
	DD	FLAT:??_R2logic_error@std@@8
rdata$r	ENDS
;	COMDAT ??_R4logic_error@std@@6B@
rdata$r	SEGMENT
??_R4logic_error@std@@6B@ DD 00H			; std::logic_error::`RTTI Complete Object Locator'
	DD	00H
	DD	00H
	DD	FLAT:??_R0?AVlogic_error@std@@@8
	DD	FLAT:??_R3logic_error@std@@8
rdata$r	ENDS
;	COMDAT ??_R2exception@std@@8
rdata$r	SEGMENT
??_R2exception@std@@8 DD FLAT:??_R1A@?0A@EA@exception@std@@8 ; std::exception::`RTTI Base Class Array'
rdata$r	ENDS
;	COMDAT ??_R3exception@std@@8
rdata$r	SEGMENT
??_R3exception@std@@8 DD 00H				; std::exception::`RTTI Class Hierarchy Descriptor'
	DD	00H
	DD	01H
	DD	FLAT:??_R2exception@std@@8
rdata$r	ENDS
;	COMDAT ??_R1A@?0A@EA@exception@std@@8
rdata$r	SEGMENT
??_R1A@?0A@EA@exception@std@@8 DD FLAT:??_R0?AVexception@std@@@8 ; std::exception::`RTTI Base Class Descriptor at (0,-1,0,64)'
	DD	00H
	DD	00H
	DD	0ffffffffH
	DD	00H
	DD	040H
	DD	FLAT:??_R3exception@std@@8
rdata$r	ENDS
;	COMDAT ??_C@_0BA@JFNIOLAK@string?5too?5long?$AA@
CONST	SEGMENT
??_C@_0BA@JFNIOLAK@string?5too?5long?$AA@ DB 'string too long', 00H ; `string'
CONST	ENDS
;	COMDAT ??_C@_0BI@CFPLBAOH@invalid?5string?5position?$AA@
CONST	SEGMENT
??_C@_0BI@CFPLBAOH@invalid?5string?5position?$AA@ DB 'invalid string posi'
	DB	'tion', 00H					; `string'
CONST	ENDS
;	COMDAT ??_C@_03JDANDILB@?$CFd?5?$AA@
CONST	SEGMENT
??_C@_03JDANDILB@?$CFd?5?$AA@ DB '%d ', 00H		; `string'
CONST	ENDS
;	COMDAT ??_C@_0BL@LACJBFNH@Encode?5Unit?5Data?5?$CFd?5?$DN?$DO?5?$CFd?6?$AA@
CONST	SEGMENT
??_C@_0BL@LACJBFNH@Encode?5Unit?5Data?5?$CFd?5?$DN?$DO?5?$CFd?6?$AA@ DB 'E'
	DB	'ncode Unit Data %d => %d', 0aH, 00H		; `string'
CONST	ENDS
;	COMDAT ??_C@_0BF@JMEEBPII@Count?$DN?$CF1d?0Size?$DN?$CF1ld?6?$AA@
CONST	SEGMENT
??_C@_0BF@JMEEBPII@Count?$DN?$CF1d?0Size?$DN?$CF1ld?6?$AA@ DB 'Count=%1d,'
	DB	'Size=%1ld', 0aH, 00H			; `string'
CONST	ENDS
;	COMDAT ??_C@_01EEMJAFIK@?6?$AA@
CONST	SEGMENT
??_C@_01EEMJAFIK@?6?$AA@ DB 0aH, 00H			; `string'
CONST	ENDS
;	COMDAT ??_C@_0CD@CMPFCOF@Type?5conflict?5while?5creating?5uni@
CONST	SEGMENT
??_C@_0CD@CMPFCOF@Type?5conflict?5while?5creating?5uni@ DB 'Type conflict'
	DB	' while creating unit.', 00H			; `string'
CONST	ENDS
;	COMDAT ??_C@_05NAOIJFC@Error?$AA@
CONST	SEGMENT
??_C@_05NAOIJFC@Error?$AA@ DB 'Error', 00H		; `string'
CONST	ENDS
;	COMDAT ??_C@_03HECMEGIJ@uni?$AA@
CONST	SEGMENT
??_C@_03HECMEGIJ@uni?$AA@ DB 'uni', 00H			; `string'
CONST	ENDS
;	COMDAT ??_C@_02GMLFBBN@wb?$AA@
CONST	SEGMENT
??_C@_02GMLFBBN@wb?$AA@ DB 'wb', 00H			; `string'
CONST	ENDS
;	COMDAT ??_C@_07MMBOBMNN@Nothing?$AA@
CONST	SEGMENT
??_C@_07MMBOBMNN@Nothing?$AA@ DB 'Nothing', 00H		; `string'
CONST	ENDS
;	COMDAT ??_C@_0CI@FIGMOKMC@Unit?5?$CFd?5dropping?5off?5unit?5?$CFd?5at?5@
CONST	SEGMENT
??_C@_0CI@FIGMOKMC@Unit?5?$CFd?5dropping?5off?5unit?5?$CFd?5at?5@ DB 'Uni'
	DB	't %d dropping off unit %d at %d,%d.', 0aH, 00H ; `string'
CONST	ENDS
;	COMDAT ??_C@_0BN@CFBAPBAH@Unit?5?$CFd?5picking?5up?5unit?5?$CFd?4?6?$AA@
CONST	SEGMENT
??_C@_0BN@CFBAPBAH@Unit?5?$CFd?5picking?5up?5unit?5?$CFd?4?6?$AA@ DB 'Uni'
	DB	't %d picking up unit %d.', 0aH, 00H		; `string'
CONST	ENDS
;	COMDAT ??_C@_0BD@HHBCIDIG@Cargo?5is?5missing?$CB?6?$AA@
CONST	SEGMENT
??_C@_0BD@HHBCIDIG@Cargo?5is?5missing?$CB?6?$AA@ DB 'Cargo is missing!', 0aH
	DB	00H						; `string'
CONST	ENDS
;	COMDAT ??_C@_01HIHLOKLC@1?$AA@
CONST	SEGMENT
??_C@_01HIHLOKLC@1?$AA@ DB '1', 00H			; `string'
CONST	ENDS
;	COMDAT ??_C@_07LLFIICBM@?$CFs?5?$CFs?$CFs?$AA@
CONST	SEGMENT
??_C@_07LLFIICBM@?$CFs?5?$CFs?$CFs?$AA@ DB '%s %s%s', 00H ; `string'
CONST	ENDS
;	COMDAT ??_C@_08EPEHIMMI@?$CFs?5?$CFs?5?$CFs?$AA@
CONST	SEGMENT
??_C@_08EPEHIMMI@?$CFs?5?$CFs?5?$CFs?$AA@ DB '%s %s %s', 00H ; `string'
CONST	ENDS
;	COMDAT ??_C@_0BM@JKDKHHG@battalion?5heir?5will?5exceed?6?$AA@
CONST	SEGMENT
??_C@_0BM@JKDKHHG@battalion?5heir?5will?5exceed?6?$AA@ DB 'battalion heir'
	DB	' will exceed', 0aH, 00H			; `string'
CONST	ENDS
;	COMDAT ??_C@_05DNIIFBMG@?$CFs?5?$CFs?$AA@
CONST	SEGMENT
??_C@_05DNIIFBMG@?$CFs?5?$CFs?$AA@ DB '%s %s', 00H	; `string'
CONST	ENDS
;	COMDAT ??_C@_0BA@BOFFLAKG@?$CF08x?5Waypoints?5?$AA@
CONST	SEGMENT
??_C@_0BA@BOFFLAKG@?$CF08x?5Waypoints?5?$AA@ DB '%08x Waypoints ', 00H ; `string'
CONST	ENDS
;	COMDAT ??_C@_0BA@NIOPHDFC@?$CF08x?5UnitClass?5?$AA@
CONST	SEGMENT
??_C@_0BA@NIOPHDFC@?$CF08x?5UnitClass?5?$AA@ DB '%08x UnitClass ', 00H ; `string'
CONST	ENDS
;	COMDAT ??_C@_06FHFOAHML@system?$AA@
CONST	SEGMENT
??_C@_06FHFOAHML@system?$AA@ DB 'system', 00H		; `string'
CONST	ENDS
;	COMDAT ??_7_System_error_category@std@@6B@
CONST	SEGMENT
??_7_System_error_category@std@@6B@ DD FLAT:??_R4_System_error_category@std@@6B@ ; std::_System_error_category::`vftable'
	DD	FLAT:??_E_System_error_category@std@@UAEPAXI@Z
	DD	FLAT:?name@_System_error_category@std@@UBEPBDXZ
	DD	FLAT:?message@_System_error_category@std@@UBE?AV?$basic_string@DU?$char_traits@D@std@@V?$allocator@D@2@@2@H@Z
	DD	FLAT:?default_error_condition@_System_error_category@std@@UBE?AVerror_condition@2@H@Z
	DD	FLAT:?equivalent@error_category@std@@UBE_NABVerror_code@2@H@Z
	DD	FLAT:?equivalent@error_category@std@@UBE_NHABVerror_condition@2@@Z
CONST	ENDS
;	COMDAT ??_C@_0BG@PADBLCHM@iostream?5stream?5error?$AA@
CONST	SEGMENT
??_C@_0BG@PADBLCHM@iostream?5stream?5error?$AA@ DB 'iostream stream error'
	DB	00H						; `string'
CONST	ENDS
;	COMDAT ??_C@_08LLGCOLLL@iostream?$AA@
CONST	SEGMENT
??_C@_08LLGCOLLL@iostream?$AA@ DB 'iostream', 00H	; `string'
CONST	ENDS
;	COMDAT ??_7_Iostream_error_category@std@@6B@
CONST	SEGMENT
??_7_Iostream_error_category@std@@6B@ DD FLAT:??_R4_Iostream_error_category@std@@6B@ ; std::_Iostream_error_category::`vftable'
	DD	FLAT:??_E_Iostream_error_category@std@@UAEPAXI@Z
	DD	FLAT:?name@_Iostream_error_category@std@@UBEPBDXZ
	DD	FLAT:?message@_Iostream_error_category@std@@UBE?AV?$basic_string@DU?$char_traits@D@std@@V?$allocator@D@2@@2@H@Z
	DD	FLAT:?default_error_condition@error_category@std@@UBE?AVerror_condition@2@H@Z
	DD	FLAT:?equivalent@error_category@std@@UBE_NABVerror_code@2@H@Z
	DD	FLAT:?equivalent@error_category@std@@UBE_NHABVerror_condition@2@@Z
CONST	ENDS
;	COMDAT ??_C@_0O@BFJCFAAK@unknown?5error?$AA@
CONST	SEGMENT
??_C@_0O@BFJCFAAK@unknown?5error?$AA@ DB 'unknown error', 00H ; `string'
CONST	ENDS
;	COMDAT ??_C@_07DCLBNMLN@generic?$AA@
CONST	SEGMENT
??_C@_07DCLBNMLN@generic?$AA@ DB 'generic', 00H		; `string'
CONST	ENDS
;	COMDAT ??_7_Generic_error_category@std@@6B@
CONST	SEGMENT
??_7_Generic_error_category@std@@6B@ DD FLAT:??_R4_Generic_error_category@std@@6B@ ; std::_Generic_error_category::`vftable'
	DD	FLAT:??_E_Generic_error_category@std@@UAEPAXI@Z
	DD	FLAT:?name@_Generic_error_category@std@@UBEPBDXZ
	DD	FLAT:?message@_Generic_error_category@std@@UBE?AV?$basic_string@DU?$char_traits@D@std@@V?$allocator@D@2@@2@H@Z
	DD	FLAT:?default_error_condition@error_category@std@@UBE?AVerror_condition@2@H@Z
	DD	FLAT:?equivalent@error_category@std@@UBE_NABVerror_code@2@H@Z
	DD	FLAT:?equivalent@error_category@std@@UBE_NHABVerror_condition@2@@Z
CONST	ENDS
;	COMDAT ??_7error_category@std@@6B@
CONST	SEGMENT
??_7error_category@std@@6B@ DD FLAT:??_R4error_category@std@@6B@ ; std::error_category::`vftable'
	DD	FLAT:??_Eerror_category@std@@UAEPAXI@Z
	DD	FLAT:__purecall
	DD	FLAT:__purecall
	DD	FLAT:?default_error_condition@error_category@std@@UBE?AVerror_condition@2@H@Z
	DD	FLAT:?equivalent@error_category@std@@UBE_NABVerror_code@2@H@Z
	DD	FLAT:?equivalent@error_category@std@@UBE_NHABVerror_condition@2@@Z
CONST	ENDS
;	COMDAT ??_7UnitClass@@6B@
CONST	SEGMENT
??_7UnitClass@@6B@ DD FLAT:??_R4UnitClass@@6B@		; UnitClass::`vftable'
	DD	FLAT:?CustomCollisionCheck@VuEntity@@UAEEPAV1@M@Z
	DD	FLAT:?TerrainCollisionCheck@VuEntity@@UAEEXZ
	DD	FLAT:?IsTarget@VuEntity@@UAEEXZ
	DD	FLAT:?IsSession@VuEntity@@UAEEXZ
	DD	FLAT:?IsGroup@VuEntity@@UAEEXZ
	DD	FLAT:?IsGame@VuEntity@@UAEEXZ
	DD	FLAT:?IsCamera@VuEntity@@UBEEXZ
	DD	FLAT:?SaveSize@UnitClass@@UAEHXZ
	DD	FLAT:?Save@FalconEntity@@UAEHPAU_iobuf@@@Z
	DD	FLAT:?Save@UnitClass@@UAEHPAPAE@Z
	DD	FLAT:?Handle@CampBaseClass@@UAEHPAVVuSessionEvent@@@Z
	DD	FLAT:?Handle@CampBaseClass@@UAEHPAVVuTransferEvent@@@Z
	DD	FLAT:?Handle@CampBaseClass@@UAEHPAVVuEntityCollisionEvent@@@Z
	DD	FLAT:?Handle@CampBaseClass@@UAEHPAVVuPositionUpdateEvent@@@Z
	DD	FLAT:?Handle@UnitClass@@UAEHPAVVuFullUpdateEvent@@@Z
	DD	FLAT:?Handle@CampBaseClass@@UAEHPAVVuEvent@@@Z
	DD	FLAT:?Handle@VuEntity@@UAEHPAVVuPullRequest@@@Z
	DD	FLAT:?Handle@VuEntity@@UAEHPAVVuPushRequest@@@Z
	DD	FLAT:?Handle@VuEntity@@UAEHPAVVuErrorMessage@@@Z
	DD	FLAT:??_EUnitClass@@UAEPAXI@Z
	DD	FLAT:?InsertionCallback@VuEntity@@MAEHXZ
	DD	FLAT:?RemovalCallback@FalconEntity@@UAEHXZ
	DD	FLAT:?InitData@CampBaseClass@@UAEXXZ
	DD	FLAT:?CleanupData@FalconEntity@@UAEXXZ
	DD	FLAT:?IsSimBase@FalconEntity@@UAE_NXZ
	DD	FLAT:?IsCampBase@CampBaseClass@@UAE_NXZ
	DD	FLAT:?Wake@UnitClass@@UAEHXZ
	DD	FLAT:?Sleep@UnitClass@@UAEHXZ
	DD	FLAT:?GetCampID@CampBaseClass@@UAEFXZ
	DD	FLAT:?GetTeam@CampBaseClass@@UAEEXZ
	DD	FLAT:?GetCountry@CampBaseClass@@UAEEXZ
	DD	FLAT:?GetDomain@FalconEntity@@UAEEXZ
	DD	FLAT:?GetRadarMode@FalconEntity@@UAEHXZ
	DD	FLAT:?SetRadarMode@FalconEntity@@UAEXE@Z
	DD	FLAT:?ReturnToSearch@FalconEntity@@UAEXXZ
	DD	FLAT:?SetSearchMode@FalconEntity@@UAEXE@Z
	DD	FLAT:?CombatClass@FalconEntity@@UAEHXZ
	DD	FLAT:?OnGround@CampBaseClass@@UAEHXZ
	DD	FLAT:?HasEntity@CampBaseClass@@UBEHPAVVuEntity@@@Z
	DD	FLAT:?IsMissile@FalconEntity@@UAEHXZ
	DD	FLAT:?IsLauncher@FalconEntity@@UAEHXZ
	DD	FLAT:?IsBomb@FalconEntity@@UAEHXZ
	DD	FLAT:?IsGun@FalconEntity@@UAEHXZ
	DD	FLAT:?IsMover@FalconEntity@@UAEHXZ
	DD	FLAT:?IsVehicle@FalconEntity@@UAEHXZ
	DD	FLAT:?IsStatic@FalconEntity@@UAEHXZ
	DD	FLAT:?IsHelicopter@FalconEntity@@UAEHXZ
	DD	FLAT:?IsEject@FalconEntity@@UAEHXZ
	DD	FLAT:?IsAirplane@FalconEntity@@UAEHXZ
	DD	FLAT:?IsGroundVehicle@FalconEntity@@UAEHXZ
	DD	FLAT:?IsShip@FalconEntity@@UAEHXZ
	DD	FLAT:?IsWeapon@FalconEntity@@UAEHXZ
	DD	FLAT:?IsExploding@FalconEntity@@UAEHXZ
	DD	FLAT:?IsDead@FalconEntity@@UAEHXZ
	DD	FLAT:?IsEmitting@CampBaseClass@@UAEHXZ
	DD	FLAT:__purecall
	DD	FLAT:__purecall
	DD	FLAT:?GetMovementType@FalconEntity@@UAE?AW4MoveType@@XZ
	DD	FLAT:?IsUnit@UnitClass@@UAEHXZ
	DD	FLAT:?IsObjective@FalconEntity@@UAEHXZ
	DD	FLAT:?IsBattalion@FalconEntity@@UAEHXZ
	DD	FLAT:?IsBrigade@FalconEntity@@UAEHXZ
	DD	FLAT:?IsFlight@FalconEntity@@UBEHXZ
	DD	FLAT:?IsSquadron@FalconEntity@@UAEHXZ
	DD	FLAT:?IsPackage@FalconEntity@@UAEHXZ
	DD	FLAT:?IsTeam@FalconEntity@@UAEHXZ
	DD	FLAT:?IsTaskForce@FalconEntity@@UAEHXZ
	DD	FLAT:?IsSPJamming@FalconEntity@@UAEHXZ
	DD	FLAT:?IsAreaJamming@FalconEntity@@UAEHXZ
	DD	FLAT:?HasSPJamming@FalconEntity@@UAEHXZ
	DD	FLAT:?HasAreaJamming@FalconEntity@@UAEHXZ
	DD	FLAT:?GetRCSFactor@UnitClass@@UAEMXZ
	DD	FLAT:?GetIRFactor@UnitClass@@UAEMXZ
	DD	FLAT:?GetRadarType@UnitClass@@UAEHXZ
	DD	FLAT:?GetDamageModifiers@UnitClass@@UAEPAEXZ
	DD	FLAT:?SetAQUIREtimer@FalconEntity@@UAEXK@Z
	DD	FLAT:?SetSEARCHtimer@FalconEntity@@UAEXK@Z
	DD	FLAT:?SetStepSearchMode@FalconEntity@@UAEXE@Z
	DD	FLAT:?GetAQUIREtimer@FalconEntity@@UAEKXZ
	DD	FLAT:?GetSEARCHtimer@FalconEntity@@UAEKXZ
	DD	FLAT:?SetOwner@CampBaseClass@@UAEXE@Z
	DD	FLAT:?SendDeaggregateData@UnitClass@@UAEXPAVVuTargetEntity@@@Z
	DD	FLAT:?RecordCurrentState@UnitClass@@UAEHPAVFalconSessionEntity@@H@Z
	DD	FLAT:?Deaggregate@UnitClass@@UAEHPAVFalconSessionEntity@@@Z
	DD	FLAT:?Reaggregate@UnitClass@@UAEHPAVFalconSessionEntity@@@Z
	DD	FLAT:?TransferOwnership@UnitClass@@UAEHPAVFalconSessionEntity@@@Z
	DD	FLAT:?InsertInSimLists@UnitClass@@UAEXMM@Z
	DD	FLAT:?RemoveFromSimLists@UnitClass@@UAEXXZ
	DD	FLAT:?DeaggregateFromData@UnitClass@@UAEXPAEJ@Z
	DD	FLAT:?ReaggregateFromData@UnitClass@@UAEXPAEJ@Z
	DD	FLAT:?TransferOwnershipFromData@UnitClass@@UAEXPAEJ@Z
	DD	FLAT:?ApplyDamage@UnitClass@@UAEHW4DamageDataType@@PAHHF@Z
	DD	FLAT:?ApplyDamage@UnitClass@@UAEHPAVFalconCampWeaponsFire@@E@Z
	DD	FLAT:?DecodeDamageData@UnitClass@@UAEHPAEPAV1@PAVFalconDeathMessage@@@Z
	DD	FLAT:?CollectWeapons@UnitClass@@UAEHPAEW4MoveType@@QAFQAEH@Z
	DD	FLAT:?GetName@UnitClass@@UAEPADPADHH@Z
	DD	FLAT:?GetFullName@UnitClass@@UAEPADPADHH@Z
	DD	FLAT:?GetDivisionName@UnitClass@@UAEPADPADHH@Z
	DD	FLAT:?GetHitChance@UnitClass@@UAEHHH@Z
	DD	FLAT:?GetAproxHitChance@UnitClass@@UAEHHH@Z
	DD	FLAT:?GetCombatStrength@UnitClass@@UAEHHH@Z
	DD	FLAT:?GetAproxCombatStrength@UnitClass@@UAEHHH@Z
	DD	FLAT:?GetWeaponRange@UnitClass@@UAEHHPAVFalconEntity@@@Z
	DD	FLAT:?GetAproxWeaponRange@UnitClass@@UAEHH@Z
	DD	FLAT:?GetDetectionRange@UnitClass@@UAEHH@Z
	DD	FLAT:?GetElectronicDetectionRange@UnitClass@@UAEHH@Z
	DD	FLAT:?CanDetect@UnitClass@@UAEHPAVFalconEntity@@@Z
	DD	FLAT:?StepRadar@CampBaseClass@@UAEHHHM@Z
	DD	FLAT:?GetNumberOfArcs@UnitClass@@UAEHXZ
	DD	FLAT:?GetArcRatio@UnitClass@@UAEMH@Z
	DD	FLAT:?GetArcRange@UnitClass@@UAEMH@Z
	DD	FLAT:?GetArcAngle@UnitClass@@UAEXHPAM0@Z
	DD	FLAT:?GetMissilesFlying@CampBaseClass@@UAEHXZ
	DD	FLAT:?ResetPlayerStatus@UnitClass@@UAEHXZ
	DD	FLAT:?GetComponentLocation@UnitClass@@UAEXPAF0H@Z
	DD	FLAT:?GetComponentAltitude@UnitClass@@UAEHH@Z
	DD	FLAT:?CanShootWeapon@UnitClass@@UAEHH@Z
	DD	FLAT:?GetDeaggregationPoint@UnitClass@@UAEHHPAPAVCampBaseClass@@@Z
	DD	FLAT:?GetUnitDeaggregationData@UnitClass@@UAEPAVUnitDeaggregationData@@XZ
	DD	FLAT:?ShouldDeaggregate@UnitClass@@UAEHXZ
	DD	FLAT:?ClearDeaggregationData@UnitClass@@UAEXXZ
	DD	FLAT:?Reaction@UnitClass@@UAEHPAVCampBaseClass@@HM@Z
	DD	FLAT:?MoveUnit@UnitClass@@UAEHK@Z
	DD	FLAT:?DoCombat@UnitClass@@UAEHXZ
	DD	FLAT:?ChooseTactic@UnitClass@@UAEHXZ
	DD	FLAT:?CheckTactic@UnitClass@@UAEHH@Z
	DD	FLAT:?Father@UnitClass@@UBEHXZ
	DD	FLAT:?Real@UnitClass@@UAEHXZ
	DD	FLAT:?AdjustForSupply@UnitClass@@UAEMXZ
	DD	FLAT:?GetUnitSpeed@UnitClass@@UBEHXZ
	DD	FLAT:?DetectOnMove@UnitClass@@UAEHXZ
	DD	FLAT:?ChooseTarget@UnitClass@@UAEHXZ
	DD	FLAT:__purecall
	DD	FLAT:?CombatTime@UnitClass@@UAEKXZ
	DD	FLAT:?GetUnitSupplyNeed@UnitClass@@UAEHH@Z
	DD	FLAT:?GetUnitFuelNeed@UnitClass@@UAEHH@Z
	DD	FLAT:?SupplyUnit@UnitClass@@UAEXHH@Z
	DD	FLAT:?GetVehicleDeagData@UnitClass@@UAEHPAVSimInitDataClass@@H@Z
	DD	FLAT:?IsDead@UnitClass@@UBEHXZ
	DD	FLAT:?SimSetLocation@UnitClass@@UAEXMMM@Z
	DD	FLAT:?SimSetOrientation@UnitClass@@UAEXMMM@Z
	DD	FLAT:?GetRealPosition@UnitClass@@UAEXPAM00@Z
	DD	FLAT:?GetBestVehicleWeapon@UnitClass@@UAEHHPAEW4MoveType@@HPAH@Z
	DD	FLAT:?GetVehicleHitChance@UnitClass@@UAEHHW4MoveType@@HH@Z
	DD	FLAT:?GetVehicleCombatStrength@UnitClass@@UAEHHW4MoveType@@H@Z
	DD	FLAT:?GetVehicleRange@UnitClass@@UAEHHHPAVFalconEntity@@@Z
	DD	FLAT:?GetUnitWeaponId@UnitClass@@UAEHHH@Z
	DD	FLAT:?GetUnitWeaponCount@UnitClass@@UAEHHH@Z
	DD	FLAT:?SetUnitLastMove@UnitClass@@UAEXK@Z
	DD	FLAT:?SetCombatTime@UnitClass@@UAEXK@Z
	DD	FLAT:?SetBurntFuel@UnitClass@@UAEXJ@Z
	DD	FLAT:?SetUnitMission@UnitClass@@UAEXE@Z
	DD	FLAT:?SetUnitRole@UnitClass@@UAEXE@Z
	DD	FLAT:?SetUnitPriority@UnitClass@@UAEXH@Z
	DD	FLAT:?SetUnitMissionID@UnitClass@@UAEXH@Z
	DD	FLAT:?SetUnitMissionTarget@UnitClass@@UAEXH@Z
	DD	FLAT:?SetUnitTOT@UnitClass@@UAEXK@Z
	DD	FLAT:?SetUnitSquadron@UnitClass@@UAEXVVU_ID@@@Z
	DD	FLAT:?SetUnitAirbase@UnitClass@@UAEXVVU_ID@@@Z
	DD	FLAT:?SetLoadout@UnitClass@@UAEXPAULoadoutStruct@@H@Z
	DD	FLAT:?GetNumberOfLoadouts@UnitClass@@UAEHXZ
	DD	FLAT:?GetMoveTime@UnitClass@@UAEKXZ
	DD	FLAT:?GetCombatTime@UnitClass@@UAEKXZ
	DD	FLAT:?GetAirTargetID@UnitClass@@UAE?AVVU_ID@@XZ
	DD	FLAT:?GetAirTarget@UnitClass@@UAEPAVFalconEntity@@XZ
	DD	FLAT:?GetBurntFuel@UnitClass@@UAEHXZ
	DD	FLAT:?GetUnitMission@UnitClass@@UAE?AW4MissionTypeEnum@@XZ
	DD	FLAT:?GetUnitNormalRole@UnitClass@@UAEHXZ
	DD	FLAT:?GetUnitCurrentRole@UnitClass@@UBEHXZ
	DD	FLAT:?GetUnitPriority@UnitClass@@UAEHXZ
	DD	FLAT:?GetUnitMissionTarget@UnitClass@@UAEPAVCampBaseClass@@XZ
	DD	FLAT:?GetUnitMissionTargetID@UnitClass@@UAE?AVVU_ID@@XZ
	DD	FLAT:?GetUnitMissionID@UnitClass@@UAEHXZ
	DD	FLAT:?GetUnitTOT@UnitClass@@UAEKXZ
	DD	FLAT:?GetUnitSquadron@UnitClass@@UAEPAV1@XZ
	DD	FLAT:?GetUnitSquadronID@UnitClass@@UAE?AVVU_ID@@XZ
	DD	FLAT:?GetUnitAirbase@UnitClass@@UAEPAVCampBaseClass@@XZ
	DD	FLAT:?GetUnitAirbaseID@UnitClass@@UAE?AVVU_ID@@XZ
	DD	FLAT:?LoadWeapons@UnitClass@@UAEHPAXPAEW4MoveType@@HHH@Z
	DD	FLAT:?DumpWeapons@UnitClass@@UAEHXZ
	DD	FLAT:?ETA@UnitClass@@UAEKXZ
	DD	FLAT:?GetKnownEmitters@UnitClass@@UAEPAVFalconPrivateList@@XZ
	DD	FLAT:?BuildMission@UnitClass@@UAEHXZ
	DD	FLAT:?BuildMission@UnitClass@@UAEHPAVMissionRequestClass@@@Z
	DD	FLAT:?IncrementTime@UnitClass@@UAEXK@Z
	DD	FLAT:?UseFuel@UnitClass@@UAEXJ@Z
	DD	FLAT:?SetUnitSpecialty@UnitClass@@UAEXH@Z
	DD	FLAT:?SetUnitSupply@UnitClass@@UAEXH@Z
	DD	FLAT:?SetUnitMorale@UnitClass@@UAEXH@Z
	DD	FLAT:?SetSquadronFuel@UnitClass@@UAEXJ@Z
	DD	FLAT:?SetUnitStores@UnitClass@@UAEXHE@Z
	DD	FLAT:?SetLastResupply@UnitClass@@UAEXH@Z
	DD	FLAT:?SetLastResupplyTime@UnitClass@@UAEXK@Z
	DD	FLAT:?GetUnitSpecialty@UnitClass@@UAEHXZ
	DD	FLAT:?GetUnitSupply@UnitClass@@UAEHXZ
	DD	FLAT:?GetUnitMorale@UnitClass@@UAEHXZ
	DD	FLAT:?GetSquadronFuel@UnitClass@@UAEJXZ
	DD	FLAT:?GetUnitStores@UnitClass@@UAEEH@Z
	DD	FLAT:?GetLastResupplyTime@UnitClass@@UAEKXZ
	DD	FLAT:?GetLastResupply@UnitClass@@UAEHXZ
	DD	FLAT:?BuildPackage@UnitClass@@UAEHPAVMissionRequestClass@@PAVFalconPrivateList@@@Z
	DD	FLAT:?HandleRequestReceipt@UnitClass@@UAEXHHVVU_ID@@@Z
	DD	FLAT:?SetUnitAssemblyPoint@UnitClass@@UAEXHFF@Z
	DD	FLAT:?GetUnitAssemblyPoint@UnitClass@@UAEXHPAF0@Z
	DD	FLAT:?SetUnitPrimaryObj@UnitClass@@UAEXVVU_ID@@@Z
	DD	FLAT:?SetUnitSecondaryObj@UnitClass@@UAEXVVU_ID@@@Z
	DD	FLAT:?SetUnitObjective@UnitClass@@UAEXVVU_ID@@@Z
	DD	FLAT:?SetUnitOrders@UnitClass@@UAEXHVVU_ID@@@Z
	DD	FLAT:?SetUnitOrders@UnitClass@@UAEXH@Z
	DD	FLAT:?SetUnitFatigue@UnitClass@@UAEXH@Z
	DD	FLAT:?SetUnitMode@UnitClass@@UAEXH@Z
	DD	FLAT:?SetUnitPosition@UnitClass@@UAEXH@Z
	DD	FLAT:?SetUnitDivision@UnitClass@@UAEXH@Z
	DD	FLAT:?SetUnitHeading@UnitClass@@UAEXH@Z
	DD	FLAT:?GetUnitPrimaryObj@UnitClass@@UAEPAVObjectiveClass@@XZ
	DD	FLAT:?GetUnitSecondaryObj@UnitClass@@UAEPAVObjectiveClass@@XZ
	DD	FLAT:?GetUnitObjective@UnitClass@@UAEPAVObjectiveClass@@XZ
	DD	FLAT:?GetUnitPrimaryObjID@UnitClass@@UAE?AVVU_ID@@XZ
	DD	FLAT:?GetUnitSecondaryObjID@UnitClass@@UAE?AVVU_ID@@XZ
	DD	FLAT:?GetUnitObjectiveID@UnitClass@@UAE?AVVU_ID@@XZ
	DD	FLAT:?GetUnitOrders@UnitClass@@UAEHXZ
	DD	FLAT:?GetUnitFatigue@UnitClass@@UAEHXZ
	DD	FLAT:?GetUnitElement@UnitClass@@UAEPAV1@H@Z
	DD	FLAT:?GetUnitElement@UnitClass@@UAEHXZ
	DD	FLAT:?GetUnitMode@UnitClass@@UAEHXZ
	DD	FLAT:?GetUnitPosition@UnitClass@@UAEHXZ
	DD	FLAT:?GetUnitDivision@UnitClass@@UAEHXZ
	DD	FLAT:?GetUnitHeading@UnitClass@@UAEHXZ
	DD	FLAT:?SetUnitNextMove@UnitClass@@UAEXXZ
	DD	FLAT:?ClearUnitPath@UnitClass@@UAEXXZ
	DD	FLAT:?GetNextMoveDirection@UnitClass@@UAEHXZ
	DD	FLAT:?SetUnitCurrentDestination@UnitClass@@UAEXFF@Z
	DD	FLAT:?GetUnitCurrentDestination@UnitClass@@UAEXPAF0@Z
	DD	FLAT:?GetObjMovementType@UnitClass@@UAE?AW4MoveType@@PAVObjectiveClass@@H@Z
	DD	FLAT:?CheckForSurrender@UnitClass@@UAEHXZ
	DD	FLAT:?RallyUnit@UnitClass@@UAEHH@Z
	DD	FLAT:?GetUnitParent@UnitClass@@UBEPAV1@XZ
	DD	FLAT:?GetUnitParentID@UnitClass@@UAE?AVVU_ID@@XZ
	DD	FLAT:?SetUnitParent@UnitClass@@UAEXPAV1@@Z
	DD	FLAT:?GetFirstUnitElement@UnitClass@@UBEPAV1@XZ
	DD	FLAT:?GetNextUnitElement@UnitClass@@UBEPAV1@XZ
	DD	FLAT:?GetUnitElementByID@UnitClass@@UAEPAV1@H@Z
	DD	FLAT:?GetPrevUnitElement@UnitClass@@UAEPAV1@PAV1@@Z
	DD	FLAT:?AddUnitChild@UnitClass@@UAEXPAV1@@Z
	DD	FLAT:?DisposeChildren@UnitClass@@UAEXXZ
	DD	FLAT:?RemoveChild@UnitClass@@UAEXVVU_ID@@@Z
	DD	FLAT:?ReorganizeUnit@UnitClass@@UAEXXZ
	DD	FLAT:?UpdateParentStatistics@UnitClass@@UAEHXZ
CONST	ENDS
;	COMDAT __CT??_R0?AVexception@std@@@8??0exception@std@@QAE@ABV01@@Z12
xdata$x	SEGMENT
__CT??_R0?AVexception@std@@@8??0exception@std@@QAE@ABV01@@Z12 DD 00H
	DD	FLAT:??_R0?AVexception@std@@@8
	DD	00H
	DD	0ffffffffH
	ORG $+4
	DD	0cH
	DD	FLAT:??0exception@std@@QAE@ABV01@@Z
xdata$x	ENDS
;	COMDAT ??_R0?AVexception@std@@@8
_DATA	SEGMENT
??_R0?AVexception@std@@@8 DD FLAT:??_7type_info@@6B@	; std::exception `RTTI Type Descriptor'
	DD	00H
	DB	'.?AVexception@std@@', 00H
_DATA	ENDS
;	COMDAT __CT??_R0?AVlogic_error@std@@@8??0logic_error@std@@QAE@ABV01@@Z12
xdata$x	SEGMENT
__CT??_R0?AVlogic_error@std@@@8??0logic_error@std@@QAE@ABV01@@Z12 DD 00H
	DD	FLAT:??_R0?AVlogic_error@std@@@8
	DD	00H
	DD	0ffffffffH
	ORG $+4
	DD	0cH
	DD	FLAT:??0logic_error@std@@QAE@ABV01@@Z
xdata$x	ENDS
;	COMDAT ??_R0?AVlogic_error@std@@@8
_DATA	SEGMENT
??_R0?AVlogic_error@std@@@8 DD FLAT:??_7type_info@@6B@	; std::logic_error `RTTI Type Descriptor'
	DD	00H
	DB	'.?AVlogic_error@std@@', 00H
_DATA	ENDS
;	COMDAT __CT??_R0?AVout_of_range@std@@@8??0out_of_range@std@@QAE@ABV01@@Z12
xdata$x	SEGMENT
__CT??_R0?AVout_of_range@std@@@8??0out_of_range@std@@QAE@ABV01@@Z12 DD 00H
	DD	FLAT:??_R0?AVout_of_range@std@@@8
	DD	00H
	DD	0ffffffffH
	ORG $+4
	DD	0cH
	DD	FLAT:??0out_of_range@std@@QAE@ABV01@@Z
xdata$x	ENDS
;	COMDAT ??_R0?AVout_of_range@std@@@8
_DATA	SEGMENT
??_R0?AVout_of_range@std@@@8 DD FLAT:??_7type_info@@6B@	; std::out_of_range `RTTI Type Descriptor'
	DD	00H
	DB	'.?AVout_of_range@std@@', 00H
_DATA	ENDS
;	COMDAT __CT??_R0?AVInvalidBufferException@@@8??0InvalidBufferException@@QAE@ABV0@@Z12
xdata$x	SEGMENT
__CT??_R0?AVInvalidBufferException@@@8??0InvalidBufferException@@QAE@ABV0@@Z12 DD 00H
	DD	FLAT:??_R0?AVInvalidBufferException@@@8
	DD	00H
	DD	0ffffffffH
	ORG $+4
	DD	0cH
	DD	FLAT:??0InvalidBufferException@@QAE@ABV0@@Z
xdata$x	ENDS
;	COMDAT ??_R0?AVInvalidBufferException@@@8
_DATA	SEGMENT
??_R0?AVInvalidBufferException@@@8 DD FLAT:??_7type_info@@6B@ ; InvalidBufferException `RTTI Type Descriptor'
	DD	00H
	DB	'.?AVInvalidBufferException@@', 00H
_DATA	ENDS
;	COMDAT __CTA4?AVInvalidBufferException@@
xdata$x	SEGMENT
__CTA4?AVInvalidBufferException@@ DD 04H
	DD	FLAT:__CT??_R0?AVInvalidBufferException@@@8??0InvalidBufferException@@QAE@ABV0@@Z12
	DD	FLAT:__CT??_R0?AVout_of_range@std@@@8??0out_of_range@std@@QAE@ABV01@@Z12
	DD	FLAT:__CT??_R0?AVlogic_error@std@@@8??0logic_error@std@@QAE@ABV01@@Z12
	DD	FLAT:__CT??_R0?AVexception@std@@@8??0exception@std@@QAE@ABV01@@Z12
xdata$x	ENDS
;	COMDAT __TI4?AVInvalidBufferException@@
xdata$x	SEGMENT
__TI4?AVInvalidBufferException@@ DD 00H
	DD	FLAT:??1InvalidBufferException@@UAE@XZ
	DD	00H
	DD	FLAT:__CTA4?AVInvalidBufferException@@
xdata$x	ENDS
;	COMDAT ??_C@_0CI@MPKJAHJH@Trying?5to?5write?5?$CFlu?5bytes?5to?5?$CFld@
CONST	SEGMENT
??_C@_0CI@MPKJAHJH@Trying?5to?5write?5?$CFlu?5bytes?5to?5?$CFld@ DB 'Tryi'
	DB	'ng to write %lu bytes to %ld buffer', 00H	; `string'
CONST	ENDS
;	COMDAT ??_7InvalidBufferException@@6B@
CONST	SEGMENT
??_7InvalidBufferException@@6B@ DD FLAT:??_R4InvalidBufferException@@6B@ ; InvalidBufferException::`vftable'
	DD	FLAT:??_EInvalidBufferException@@UAEPAXI@Z
	DD	FLAT:?what@exception@std@@UBEPBDXZ
CONST	ENDS
;	COMDAT ??_7out_of_range@std@@6B@
CONST	SEGMENT
??_7out_of_range@std@@6B@ DD FLAT:??_R4out_of_range@std@@6B@ ; std::out_of_range::`vftable'
	DD	FLAT:??_Eout_of_range@std@@UAEPAXI@Z
	DD	FLAT:?what@exception@std@@UBEPBDXZ
CONST	ENDS
;	COMDAT ??_7logic_error@std@@6B@
CONST	SEGMENT
??_7logic_error@std@@6B@ DD FLAT:??_R4logic_error@std@@6B@ ; std::logic_error::`vftable'
	DD	FLAT:??_Elogic_error@std@@UAEPAXI@Z
	DD	FLAT:?what@exception@std@@UBEPBDXZ
CONST	ENDS
;	COMDAT xdata$x
xdata$x	SEGMENT
__unwindtable$??$construct@PADAAPAD@?$allocator@D@std@@QAEXPAPADAAPAD@Z DD 0ffffffffH
	DD	FLAT:__unwindfunclet$??$construct@PADAAPAD@?$allocator@D@std@@QAEXPAPADAAPAD@Z$0
__ehfuncinfo$??$construct@PADAAPAD@?$allocator@D@std@@QAEXPAPADAAPAD@Z DD 019930522H
	DD	01H
	DD	FLAT:__unwindtable$??$construct@PADAAPAD@?$allocator@D@std@@QAEXPAPADAAPAD@Z
	DD	2 DUP(00H)
	DD	2 DUP(00H)
	DD	00H
	DD	01H
xdata$x	ENDS
xdata$x	SEGMENT
__unwindtable$?GetUnitByID@@YAPAVUnitClass@@VVU_ID@@@Z DD 0ffffffffH
	DD	FLAT:__unwindfunclet$?GetUnitByID@@YAPAVUnitClass@@VVU_ID@@@Z$0
__unwindtable$?FindUnitNameID@@YAHPAVUnitClass@@@Z DD 0ffffffffH
	DD	FLAT:__unwindfunclet$?FindUnitNameID@@YAHPAVUnitClass@@@Z$0
__unwindtable$?GetDivisionName@@YAPADHPADHH@Z DD 0ffffffffH
	DD	FLAT:__unwindfunclet$?GetDivisionName@@YAPADHPADHH@Z$0
__unwindtable$?LoadUnits@@YAHPAD@Z DD 0ffffffffH
	DD	FLAT:__unwindfunclet$?LoadUnits@@YAHPAD@Z$0
__unwindtable$?StoreDeaggregationData@UnitDeaggregationData@@QAEXPAVUnitClass@@@Z DD 0ffffffffH
	DD	FLAT:__unwindfunclet$?StoreDeaggregationData@UnitDeaggregationData@@QAEXPAVUnitClass@@@Z$0
__unwindtable$?DecodeWaypoints@UnitClass@@QAEXPAPAEPAJ@Z DD 0ffffffffH
	DD	FLAT:__unwindfunclet$?DecodeWaypoints@UnitClass@@QAEXPAPAEPAJ@Z$0
__unwindtable$?AddWPAfter@UnitClass@@QAEPAVWayPointClass@@PAV2@FFHHKHE@Z DD 0ffffffffH
	DD	FLAT:__unwindfunclet$?AddWPAfter@UnitClass@@QAEPAVWayPointClass@@PAV2@FFHHKHE@Z$0
__unwindtable$?AddUnitWP@UnitClass@@QAEPAVWayPointClass@@FFHHKHE@Z DD 0ffffffffH
	DD	FLAT:__unwindfunclet$?AddUnitWP@UnitClass@@QAEPAVWayPointClass@@FFHHKHE@Z$0
__unwindtable$?KillUnit@UnitClass@@QAEXXZ DD 0ffffffffH
	DD	FLAT:__unwindfunclet$?KillUnit@UnitClass@@QAEXXZ$0
__unwindtable$?AssignUnit@UnitClass@@QAEXVVU_ID@@000H@Z DD 0ffffffffH
	DD	FLAT:__unwindfunclet$?AssignUnit@UnitClass@@QAEXVVU_ID@@000H@Z$0
__unwindtable$?SetBroken@UnitClass@@QAEXH@Z DD 0ffffffffH
	DD	FLAT:__unwindfunclet$?SetBroken@UnitClass@@QAEXH@Z$0
__unwindtable$?SetDead@UnitClass@@QAEXH@Z DD 0ffffffffH
	DD	FLAT:__unwindfunclet$?SetDead@UnitClass@@QAEXH@Z$0
__unwindtable$?BroadcastUnitMessage@UnitClass@@QAEXVVU_ID@@FFFF@Z DD 0ffffffffH
	DD	FLAT:__unwindfunclet$?BroadcastUnitMessage@UnitClass@@QAEXVVU_ID@@FFFF@Z$0
__unwindtable$?SendUnitMessage@UnitClass@@QAEXVVU_ID@@FFFF@Z DD 0ffffffffH
	DD	FLAT:__unwindfunclet$?SendUnitMessage@UnitClass@@QAEXVVU_ID@@FFFF@Z$0
__unwindtable$?TransferOwnershipFromData@UnitClass@@UAEXPAEJ@Z DD 0ffffffffH
	DD	FLAT:__unwindfunclet$?TransferOwnershipFromData@UnitClass@@UAEXPAEJ@Z$0
__unwindtable$?ReaggregateFromData@UnitClass@@UAEXPAEJ@Z DD 0ffffffffH
	DD	FLAT:__unwindfunclet$?ReaggregateFromData@UnitClass@@UAEXPAEJ@Z$0
__unwindtable$?TransferOwnership@UnitClass@@UAEHPAVFalconSessionEntity@@@Z DD 0ffffffffH
	DD	FLAT:__unwindfunclet$?TransferOwnership@UnitClass@@UAEHPAVFalconSessionEntity@@@Z$0
__unwindtable$?Deaggregate@UnitClass@@UAEHPAVFalconSessionEntity@@@Z DD 0ffffffffH
	DD	FLAT:__unwindfunclet$?Deaggregate@UnitClass@@UAEHPAVFalconSessionEntity@@@Z$0
__unwindtable$??1UnitClass@@UAE@XZ DD 0ffffffffH
	DD	FLAT:__unwindfunclet$??1UnitClass@@UAE@XZ$0
__unwindtable$??0UnitClass@@QAE@PAPAEPAJ@Z DD 0ffffffffH
	DD	FLAT:__unwindfunclet$??0UnitClass@@QAE@PAPAEPAJ@Z$0
__unwindtable$??0UnitClass@@QAE@GK@Z DD 0ffffffffH
	DD	FLAT:__unwindfunclet$??0UnitClass@@QAE@GK@Z$0
__unwindtable$?MakeWaypointsDirty@UnitClass@@QAEXXZ DD 0ffffffffH
	DD	FLAT:__unwindfunclet$?MakeWaypointsDirty@UnitClass@@QAEXXZ$0
__unwindtable$?UnloadUnit@UnitClass@@QAEXXZ DD 0ffffffffH
	DD	FLAT:__unwindfunclet$?UnloadUnit@UnitClass@@QAEXXZ$0
	DD	0ffffffffH
	DD	FLAT:__unwindfunclet$?UnloadUnit@UnitClass@@QAEXXZ$1
__unwindtable$?InsertInSimLists@UnitClass@@UAEXMM@Z DD 0ffffffffH
	DD	FLAT:__unwindfunclet$?InsertInSimLists@UnitClass@@UAEXMM@Z$0
	DD	0ffffffffH
	DD	FLAT:__unwindfunclet$?InsertInSimLists@UnitClass@@UAEXMM@Z$1
__unwindtable$?SendDeaggregateData@UnitClass@@UAEXPAVVuTargetEntity@@@Z DD 0ffffffffH
	DD	FLAT:__unwindfunclet$?SendDeaggregateData@UnitClass@@UAEXPAVVuTargetEntity@@@Z$0
	DD	0ffffffffH
	DD	FLAT:__unwindfunclet$?SendDeaggregateData@UnitClass@@UAEXPAVVuTargetEntity@@@Z$1
__unwindtable$?DeaggregateFromData@UnitClass@@UAEXPAEJ@Z DD 0ffffffffH
	DD	FLAT:__unwindfunclet$?DeaggregateFromData@UnitClass@@UAEXPAEJ@Z$0
	DD	0ffffffffH
	DD	FLAT:__unwindfunclet$?DeaggregateFromData@UnitClass@@UAEXPAEJ@Z$1
	DD	0ffffffffH
	DD	FLAT:__unwindfunclet$?DeaggregateFromData@UnitClass@@UAEXPAEJ@Z$2
__unwindtable$?Reaggregate@UnitClass@@UAEHPAVFalconSessionEntity@@@Z DD 0ffffffffH
	DD	FLAT:__unwindfunclet$?Reaggregate@UnitClass@@UAEHPAVFalconSessionEntity@@@Z$0
	DD	0ffffffffH
	DD	FLAT:__unwindfunclet$?Reaggregate@UnitClass@@UAEHPAVFalconSessionEntity@@@Z$1
	DD	0ffffffffH
	DD	FLAT:__unwindfunclet$?Reaggregate@UnitClass@@UAEHPAVFalconSessionEntity@@@Z$2
__unwindtable$?RecordCurrentState@UnitClass@@UAEHPAVFalconSessionEntity@@H@Z DD 0ffffffffH
	DD	FLAT:__unwindfunclet$?RecordCurrentState@UnitClass@@UAEHPAVFalconSessionEntity@@H@Z$0
	DD	00H
	DD	FLAT:__unwindfunclet$?RecordCurrentState@UnitClass@@UAEHPAVFalconSessionEntity@@H@Z$1
	DD	0ffffffffH
	DD	FLAT:__unwindfunclet$?RecordCurrentState@UnitClass@@UAEHPAVFalconSessionEntity@@H@Z$2
__unwindtable$?EncodeUnitData@@YAHPAPAEPAVFalconSessionEntity@@@Z DD 0ffffffffH
	DD	FLAT:__unwindfunclet$?EncodeUnitData@@YAHPAPAEPAVFalconSessionEntity@@@Z$0
	DD	0ffffffffH
	DD	FLAT:__unwindfunclet$?EncodeUnitData@@YAHPAPAEPAVFalconSessionEntity@@@Z$1
	DD	0ffffffffH
	DD	FLAT:__unwindfunclet$?EncodeUnitData@@YAHPAPAEPAVFalconSessionEntity@@@Z$2
	DD	0ffffffffH
	DD	FLAT:__unwindfunclet$?EncodeUnitData@@YAHPAPAEPAVFalconSessionEntity@@@Z$3
__ehfuncinfo$?GetUnitByID@@YAPAVUnitClass@@VVU_ID@@@Z DD 019930522H
	DD	01H
	DD	FLAT:__unwindtable$?GetUnitByID@@YAPAVUnitClass@@VVU_ID@@@Z
	DD	2 DUP(00H)
	DD	2 DUP(00H)
	DD	00H
	DD	01H
__ehfuncinfo$?EncodeUnitData@@YAHPAPAEPAVFalconSessionEntity@@@Z DD 019930522H
	DD	04H
	DD	FLAT:__unwindtable$?EncodeUnitData@@YAHPAPAEPAVFalconSessionEntity@@@Z
	DD	2 DUP(00H)
	DD	2 DUP(00H)
	DD	00H
	DD	01H
__ehfuncinfo$?NewUnit@@YAPAVUnitClass@@FPAPAEPAJ@Z DD 019930522H
	DD	06H
	DD	FLAT:__unwindtable$?NewUnit@@YAPAVUnitClass@@FPAPAEPAJ@Z
	DD	2 DUP(00H)
	DD	2 DUP(00H)
	DD	00H
	DD	01H
__ehfuncinfo$?FindUnitNameID@@YAHPAVUnitClass@@@Z DD 019930522H
	DD	01H
	DD	FLAT:__unwindtable$?FindUnitNameID@@YAHPAVUnitClass@@@Z
	DD	2 DUP(00H)
	DD	2 DUP(00H)
	DD	00H
	DD	01H
__ehfuncinfo$?GetDivisionName@@YAPADHPADHH@Z DD 019930522H
	DD	01H
	DD	FLAT:__unwindtable$?GetDivisionName@@YAPADHPADHH@Z
	DD	2 DUP(00H)
	DD	2 DUP(00H)
	DD	00H
	DD	01H
__ehfuncinfo$?LoadUnits@@YAHPAD@Z DD 019930522H
	DD	01H
	DD	FLAT:__unwindtable$?LoadUnits@@YAHPAD@Z
	DD	2 DUP(00H)
	DD	2 DUP(00H)
	DD	00H
	DD	01H
__ehfuncinfo$?StoreDeaggregationData@UnitDeaggregationData@@QAEXPAVUnitClass@@@Z DD 019930522H
	DD	01H
	DD	FLAT:__unwindtable$?StoreDeaggregationData@UnitDeaggregationData@@QAEXPAVUnitClass@@@Z
	DD	2 DUP(00H)
	DD	2 DUP(00H)
	DD	00H
	DD	01H
__ehfuncinfo$?DecodeWaypoints@UnitClass@@QAEXPAPAEPAJ@Z DD 019930522H
	DD	01H
	DD	FLAT:__unwindtable$?DecodeWaypoints@UnitClass@@QAEXPAPAEPAJ@Z
	DD	2 DUP(00H)
	DD	2 DUP(00H)
	DD	00H
	DD	01H
__ehfuncinfo$?AddWPAfter@UnitClass@@QAEPAVWayPointClass@@PAV2@FFHHKHE@Z DD 019930522H
	DD	01H
	DD	FLAT:__unwindtable$?AddWPAfter@UnitClass@@QAEPAVWayPointClass@@PAV2@FFHHKHE@Z
	DD	2 DUP(00H)
	DD	2 DUP(00H)
	DD	00H
	DD	01H
__ehfuncinfo$?AddUnitWP@UnitClass@@QAEPAVWayPointClass@@FFHHKHE@Z DD 019930522H
	DD	01H
	DD	FLAT:__unwindtable$?AddUnitWP@UnitClass@@QAEPAVWayPointClass@@FFHHKHE@Z
	DD	2 DUP(00H)
	DD	2 DUP(00H)
	DD	00H
	DD	01H
__ehfuncinfo$?UnloadUnit@UnitClass@@QAEXXZ DD 019930522H
	DD	02H
	DD	FLAT:__unwindtable$?UnloadUnit@UnitClass@@QAEXXZ
	DD	2 DUP(00H)
	DD	2 DUP(00H)
	DD	00H
	DD	01H
__ehfuncinfo$?KillUnit@UnitClass@@QAEXXZ DD 019930522H
	DD	01H
	DD	FLAT:__unwindtable$?KillUnit@UnitClass@@QAEXXZ
	DD	2 DUP(00H)
	DD	2 DUP(00H)
	DD	00H
	DD	01H
__ehfuncinfo$?AssignUnit@UnitClass@@QAEXVVU_ID@@000H@Z DD 019930522H
	DD	01H
	DD	FLAT:__unwindtable$?AssignUnit@UnitClass@@QAEXVVU_ID@@000H@Z
	DD	2 DUP(00H)
	DD	2 DUP(00H)
	DD	00H
	DD	01H
__ehfuncinfo$?SetBroken@UnitClass@@QAEXH@Z DD 019930522H
	DD	01H
	DD	FLAT:__unwindtable$?SetBroken@UnitClass@@QAEXH@Z
	DD	2 DUP(00H)
	DD	2 DUP(00H)
	DD	00H
	DD	01H
__ehfuncinfo$?SetDead@UnitClass@@QAEXH@Z DD 019930522H
	DD	01H
	DD	FLAT:__unwindtable$?SetDead@UnitClass@@QAEXH@Z
	DD	2 DUP(00H)
	DD	2 DUP(00H)
	DD	00H
	DD	01H
__ehfuncinfo$?BroadcastUnitMessage@UnitClass@@QAEXVVU_ID@@FFFF@Z DD 019930522H
	DD	01H
	DD	FLAT:__unwindtable$?BroadcastUnitMessage@UnitClass@@QAEXVVU_ID@@FFFF@Z
	DD	2 DUP(00H)
	DD	2 DUP(00H)
	DD	00H
	DD	01H
__ehfuncinfo$?SendUnitMessage@UnitClass@@QAEXVVU_ID@@FFFF@Z DD 019930522H
	DD	01H
	DD	FLAT:__unwindtable$?SendUnitMessage@UnitClass@@QAEXVVU_ID@@FFFF@Z
	DD	2 DUP(00H)
	DD	2 DUP(00H)
	DD	00H
	DD	01H
__ehfuncinfo$?TransferOwnershipFromData@UnitClass@@UAEXPAEJ@Z DD 019930522H
	DD	01H
	DD	FLAT:__unwindtable$?TransferOwnershipFromData@UnitClass@@UAEXPAEJ@Z
	DD	2 DUP(00H)
	DD	2 DUP(00H)
	DD	00H
	DD	01H
__ehfuncinfo$?ReaggregateFromData@UnitClass@@UAEXPAEJ@Z DD 019930522H
	DD	01H
	DD	FLAT:__unwindtable$?ReaggregateFromData@UnitClass@@UAEXPAEJ@Z
	DD	2 DUP(00H)
	DD	2 DUP(00H)
	DD	00H
	DD	01H
__ehfuncinfo$?DeaggregateFromData@UnitClass@@UAEXPAEJ@Z DD 019930522H
	DD	03H
	DD	FLAT:__unwindtable$?DeaggregateFromData@UnitClass@@UAEXPAEJ@Z
	DD	2 DUP(00H)
	DD	2 DUP(00H)
	DD	00H
	DD	01H
__ehfuncinfo$?InsertInSimLists@UnitClass@@UAEXMM@Z DD 019930522H
	DD	02H
	DD	FLAT:__unwindtable$?InsertInSimLists@UnitClass@@UAEXMM@Z
	DD	2 DUP(00H)
	DD	2 DUP(00H)
	DD	00H
	DD	01H
__ehfuncinfo$?TransferOwnership@UnitClass@@UAEHPAVFalconSessionEntity@@@Z DD 019930522H
	DD	01H
	DD	FLAT:__unwindtable$?TransferOwnership@UnitClass@@UAEHPAVFalconSessionEntity@@@Z
	DD	2 DUP(00H)
	DD	2 DUP(00H)
	DD	00H
	DD	01H
__ehfuncinfo$?Reaggregate@UnitClass@@UAEHPAVFalconSessionEntity@@@Z DD 019930522H
	DD	03H
	DD	FLAT:__unwindtable$?Reaggregate@UnitClass@@UAEHPAVFalconSessionEntity@@@Z
	DD	2 DUP(00H)
	DD	2 DUP(00H)
	DD	00H
	DD	01H
__ehfuncinfo$?Deaggregate@UnitClass@@UAEHPAVFalconSessionEntity@@@Z DD 019930522H
	DD	01H
	DD	FLAT:__unwindtable$?Deaggregate@UnitClass@@UAEHPAVFalconSessionEntity@@@Z
	DD	2 DUP(00H)
	DD	2 DUP(00H)
	DD	00H
	DD	01H
__ehfuncinfo$?RecordCurrentState@UnitClass@@UAEHPAVFalconSessionEntity@@H@Z DD 019930522H
	DD	03H
	DD	FLAT:__unwindtable$?RecordCurrentState@UnitClass@@UAEHPAVFalconSessionEntity@@H@Z
	DD	2 DUP(00H)
	DD	2 DUP(00H)
	DD	00H
	DD	01H
__ehfuncinfo$?SendDeaggregateData@UnitClass@@UAEXPAVVuTargetEntity@@@Z DD 019930522H
	DD	02H
	DD	FLAT:__unwindtable$?SendDeaggregateData@UnitClass@@UAEXPAVVuTargetEntity@@@Z
	DD	2 DUP(00H)
	DD	2 DUP(00H)
	DD	00H
	DD	01H
__ehfuncinfo$??1UnitClass@@UAE@XZ DD 019930522H
	DD	01H
	DD	FLAT:__unwindtable$??1UnitClass@@UAE@XZ
	DD	2 DUP(00H)
	DD	2 DUP(00H)
	DD	00H
	DD	01H
__ehfuncinfo$??0UnitClass@@QAE@PAPAEPAJ@Z DD 019930522H
	DD	01H
	DD	FLAT:__unwindtable$??0UnitClass@@QAE@PAPAEPAJ@Z
	DD	2 DUP(00H)
	DD	2 DUP(00H)
	DD	00H
	DD	01H
__ehfuncinfo$??0UnitClass@@QAE@GK@Z DD 019930522H
	DD	01H
	DD	FLAT:__unwindtable$??0UnitClass@@QAE@GK@Z
	DD	2 DUP(00H)
	DD	2 DUP(00H)
	DD	00H
	DD	01H
__ehfuncinfo$?MakeWaypointsDirty@UnitClass@@QAEXXZ DD 019930522H
	DD	01H
	DD	FLAT:__unwindtable$?MakeWaypointsDirty@UnitClass@@QAEXXZ
	DD	2 DUP(00H)
	DD	2 DUP(00H)
	DD	00H
	DD	01H
__unwindtable$?NewUnit@@YAPAVUnitClass@@FPAPAEPAJ@Z DD 0ffffffffH
	DD	FLAT:__unwindfunclet$?NewUnit@@YAPAVUnitClass@@FPAPAEPAJ@Z$0
	DD	0ffffffffH
	DD	FLAT:__unwindfunclet$?NewUnit@@YAPAVUnitClass@@FPAPAEPAJ@Z$1
	DD	0ffffffffH
	DD	FLAT:__unwindfunclet$?NewUnit@@YAPAVUnitClass@@FPAPAEPAJ@Z$2
	DD	0ffffffffH
	DD	FLAT:__unwindfunclet$?NewUnit@@YAPAVUnitClass@@FPAPAEPAJ@Z$3
	DD	0ffffffffH
	DD	FLAT:__unwindfunclet$?NewUnit@@YAPAVUnitClass@@FPAPAEPAJ@Z$4
	DD	0ffffffffH
	DD	FLAT:__unwindfunclet$?NewUnit@@YAPAVUnitClass@@FPAPAEPAJ@Z$5
xdata$x	ENDS
;	COMDAT xdata$x
xdata$x	SEGMENT
__unwindtable$?memcpychk@@YAXPAXPAPAEIPAJ@Z DD 0ffffffffH
	DD	FLAT:__unwindfunclet$?memcpychk@@YAXPAXPAPAEIPAJ@Z$0
__ehfuncinfo$?memcpychk@@YAXPAXPAPAEIPAJ@Z DD 019930522H
	DD	01H
	DD	FLAT:__unwindtable$?memcpychk@@YAXPAXPAPAEIPAJ@Z
	DD	2 DUP(00H)
	DD	2 DUP(00H)
	DD	00H
	DD	01H
xdata$x	ENDS
;	COMDAT xdata$x
xdata$x	SEGMENT
__catchsym$?_Copy@?$basic_string@DU?$char_traits@D@std@@V?$allocator@D@2@@std@@QAEXII@Z$5 DD 040H
	DD	00H
	DD	00H
	DD	FLAT:__catch$?_Copy@?$basic_string@DU?$char_traits@D@std@@V?$allocator@D@2@@std@@QAEXII@Z$0
__catchsym$?_Copy@?$basic_string@DU?$char_traits@D@std@@V?$allocator@D@2@@std@@QAEXII@Z$4 DD 040H
	DD	00H
	DD	00H
	DD	FLAT:__catch$?_Copy@?$basic_string@DU?$char_traits@D@std@@V?$allocator@D@2@@std@@QAEXII@Z$1
__unwindtable$?_Copy@?$basic_string@DU?$char_traits@D@std@@V?$allocator@D@2@@std@@QAEXII@Z DD 0ffffffffH
	DD	00H
	DD	0ffffffffH
	DD	00H
	DD	01H
	DD	00H
	DD	01H
	DD	00H
__ehfuncinfo$?_Copy@?$basic_string@DU?$char_traits@D@std@@V?$allocator@D@2@@std@@QAEXII@Z DD 019930522H
	DD	04H
	DD	FLAT:__unwindtable$?_Copy@?$basic_string@DU?$char_traits@D@std@@V?$allocator@D@2@@std@@QAEXII@Z
	DD	02H
	DD	FLAT:__tryblocktable$?_Copy@?$basic_string@DU?$char_traits@D@std@@V?$allocator@D@2@@std@@QAEXII@Z
	DD	2 DUP(00H)
	DD	00H
	DD	01H
__tryblocktable$?_Copy@?$basic_string@DU?$char_traits@D@std@@V?$allocator@D@2@@std@@QAEXII@Z DD 02H
	DD	02H
	DD	03H
	DD	01H
	DD	FLAT:__catchsym$?_Copy@?$basic_string@DU?$char_traits@D@std@@V?$allocator@D@2@@std@@QAEXII@Z$4
	DD	00H
	DD	00H
	DD	03H
	DD	01H
	DD	FLAT:__catchsym$?_Copy@?$basic_string@DU?$char_traits@D@std@@V?$allocator@D@2@@std@@QAEXII@Z$5
xdata$x	ENDS
CRT$XCU	SEGMENT
_allocator_arg$initializer$ DD FLAT:??__Eallocator_arg@std@@YAXXZ
CRT$XCU	ENDS
;	COMDAT CRT$XCU
CRT$XCU	SEGMENT
?_Generic_object$initializer$@?$_Error_objects@H@std@@2P6AXXZA DD FLAT:??__E?_Generic_object@?$_Error_objects@H@std@@2V_Generic_error_category@2@A@@YAXXZ ; std::_Error_objects<int>::_Generic_object$initializer$
CRT$XCU	ENDS
;	COMDAT CRT$XCU
CRT$XCU	SEGMENT
?_Iostream_object$initializer$@?$_Error_objects@H@std@@2P6AXXZA DD FLAT:??__E?_Iostream_object@?$_Error_objects@H@std@@2V_Iostream_error_category@2@A@@YAXXZ ; std::_Error_objects<int>::_Iostream_object$initializer$
CRT$XCU	ENDS
;	COMDAT CRT$XCU
CRT$XCU	SEGMENT
?_System_object$initializer$@?$_Error_objects@H@std@@2P6AXXZA DD FLAT:??__E?_System_object@?$_Error_objects@H@std@@2V_System_error_category@2@A@@YAXXZ ; std::_Error_objects<int>::_System_object$initializer$
CRT$XCU	ENDS
;	COMDAT CRT$XCU
CRT$XCU	SEGMENT
?id$initializer$@?$num_put@DV?$back_insert_iterator@V?$basic_string@DU?$char_traits@D@std@@V?$allocator@D@2@@std@@@std@@@std@@2P6AXXZA DD FLAT:??__E?id@?$num_put@DV?$back_insert_iterator@V?$basic_string@DU?$char_traits@D@std@@V?$allocator@D@2@@std@@@std@@@std@@2V0locale@2@A@@YAXXZ ; std::num_put<char,std::back_insert_iterator<std::basic_string<char,std::char_traits<char>,std::allocator<char> > > >::id$initializer$
CRT$XCU	ENDS
;	COMDAT CRT$XCU
CRT$XCU	SEGMENT
?id$initializer$@?$num_put@_WV?$back_insert_iterator@V?$basic_string@_WU?$char_traits@_W@std@@V?$allocator@_W@2@@std@@@std@@@std@@2P6AXXZA DD FLAT:??__E?id@?$num_put@_WV?$back_insert_iterator@V?$basic_string@_WU?$char_traits@_W@std@@V?$allocator@_W@2@@std@@@std@@@std@@2V0locale@2@A@@YAXXZ ; std::num_put<wchar_t,std::back_insert_iterator<std::basic_string<wchar_t,std::char_traits<wchar_t>,std::allocator<wchar_t> > > >::id$initializer$
CRT$XCU	ENDS
;	COMDAT CRT$XCU
CRT$XCU	SEGMENT
?id$initializer$@?$numpunct@D@std@@2P6AXXZA DD FLAT:??__E?id@?$numpunct@D@std@@2V0locale@2@A@@YAXXZ ; std::numpunct<char>::id$initializer$
CRT$XCU	ENDS
;	COMDAT CRT$XCU
CRT$XCU	SEGMENT
?id$initializer$@?$numpunct@_W@std@@2P6AXXZA DD FLAT:??__E?id@?$numpunct@_W@std@@2V0locale@2@A@@YAXXZ ; std::numpunct<wchar_t>::id$initializer$
CRT$XCU	ENDS
; Function compile flags: /Odtp
; File c:\program files (x86)\microsoft visual studio 11.0\vc\include\xmemory0
;	COMDAT ??$destroy@PAD@?$allocator@D@std@@QAEXPAPAD@Z
_TEXT	SEGMENT
_this$ = -4						; size = 4
__Ptr$ = 8						; size = 4
??$destroy@PAD@?$allocator@D@std@@QAEXPAPAD@Z PROC	; std::allocator<char>::destroy<char *>, COMDAT
; _this$ = ecx

; 621  : 		void destroy(_Uty *_Ptr)

	push	ebp
	mov	ebp, esp
	push	ecx
	mov	DWORD PTR _this$[ebp], ecx

; 622  : 		{	// destroy object at _Ptr
; 623  : 		_Ptr->~_Uty();
; 624  : 		}

	mov	esp, ebp
	pop	ebp
	ret	4
??$destroy@PAD@?$allocator@D@std@@QAEXPAPAD@Z ENDP	; std::allocator<char>::destroy<char *>
_TEXT	ENDS
; Function compile flags: /Odtp
; File c:\program files (x86)\microsoft visual studio 11.0\vc\include\xmemory0
;	COMDAT ??$construct@PADAAPAD@?$allocator@D@std@@QAEXPAPADAAPAD@Z
_TEXT	SEGMENT
$T2 = -28						; size = 4
_this$ = -24						; size = 4
tv73 = -20						; size = 4
$T3 = -16						; size = 4
__$EHRec$ = -12						; size = 12
__Ptr$ = 8						; size = 4
__V0$ = 12						; size = 4
??$construct@PADAAPAD@?$allocator@D@std@@QAEXPAPADAAPAD@Z PROC ; std::allocator<char>::construct<char *,char * &>, COMDAT
; _this$ = ecx

; 617  : _VARIADIC_EXPAND_0X(_ALLOC_MEMBER_CONSTRUCT, , , , )

	push	ebp
	mov	ebp, esp
	push	-1
	push	__ehhandler$??$construct@PADAAPAD@?$allocator@D@std@@QAEXPAPADAAPAD@Z
	mov	eax, DWORD PTR fs:0
	push	eax
	sub	esp, 16					; 00000010H
	mov	eax, DWORD PTR ___security_cookie
	xor	eax, ebp
	push	eax
	lea	eax, DWORD PTR __$EHRec$[ebp]
	mov	DWORD PTR fs:0, eax
	mov	DWORD PTR _this$[ebp], ecx
	mov	eax, DWORD PTR __Ptr$[ebp]
	push	eax
	push	4
	call	??2@YAPAXIPAX@Z				; operator new
	add	esp, 8
	mov	DWORD PTR $T3[ebp], eax
	mov	DWORD PTR __$EHRec$[ebp+8], 0
	cmp	DWORD PTR $T3[ebp], 0
	je	SHORT $LN3@construct
	mov	ecx, DWORD PTR __V0$[ebp]
	push	ecx
	call	??$forward@AAPAD@std@@YAAAPADAAPAD@Z	; std::forward<char * &>
	add	esp, 4
	mov	edx, DWORD PTR $T3[ebp]
	mov	eax, DWORD PTR [eax]
	mov	DWORD PTR [edx], eax
	mov	ecx, DWORD PTR $T3[ebp]
	mov	DWORD PTR tv73[ebp], ecx
	jmp	SHORT $LN4@construct
$LN3@construct:
	mov	DWORD PTR tv73[ebp], 0
$LN4@construct:
	mov	edx, DWORD PTR tv73[ebp]
	mov	DWORD PTR $T2[ebp], edx
	mov	DWORD PTR __$EHRec$[ebp+8], -1
	mov	ecx, DWORD PTR __$EHRec$[ebp]
	mov	DWORD PTR fs:0, ecx
	pop	ecx
	mov	esp, ebp
	pop	ebp
	ret	8
_TEXT	ENDS
;	COMDAT text$x
text$x	SEGMENT
__unwindfunclet$??$construct@PADAAPAD@?$allocator@D@std@@QAEXPAPADAAPAD@Z$0:
	mov	eax, DWORD PTR __Ptr$[ebp]
	push	eax
	mov	eax, DWORD PTR $T3[ebp]
	push	eax
	call	??3@YAXPAX0@Z				; operator delete
	add	esp, 8
	ret	0
__ehhandler$??$construct@PADAAPAD@?$allocator@D@std@@QAEXPAPADAAPAD@Z:
	mov	edx, DWORD PTR [esp+8]
	lea	eax, DWORD PTR [edx+12]
	mov	ecx, DWORD PTR [edx-20]
	xor	ecx, eax
	call	@__security_check_cookie@4
	mov	eax, OFFSET __ehfuncinfo$??$construct@PADAAPAD@?$allocator@D@std@@QAEXPAPADAAPAD@Z
	jmp	___CxxFrameHandler3
text$x	ENDS
??$construct@PADAAPAD@?$allocator@D@std@@QAEXPAPADAAPAD@Z ENDP ; std::allocator<char>::construct<char *,char * &>
; Function compile flags: /Odtp
; File c:\program files (x86)\microsoft visual studio 11.0\vc\include\xlocnum
;	COMDAT ??__E?id@?$numpunct@_W@std@@2V0locale@2@A@@YAXXZ
text$yc	SEGMENT
??__E?id@?$numpunct@_W@std@@2V0locale@2@A@@YAXXZ PROC	; `dynamic initializer for 'std::numpunct<wchar_t>::id'', COMDAT

; 155  : 		void _Getvals(wchar_t, const lconv *_Ptr, _Locinfo::_Cvtvec)

	push	ebp
	mov	ebp, esp
	push	0
	mov	ecx, OFFSET ?id@?$numpunct@_W@std@@2V0locale@2@A ; std::numpunct<wchar_t>::id
	call	??0id@locale@std@@QAE@I@Z		; std::locale::id::id
	pop	ebp
	ret	0
??__E?id@?$numpunct@_W@std@@2V0locale@2@A@@YAXXZ ENDP	; `dynamic initializer for 'std::numpunct<wchar_t>::id''
text$yc	ENDS
; Function compile flags: /Odtp
; File c:\program files (x86)\microsoft visual studio 11.0\vc\include\xlocnum
;	COMDAT ??__E?id@?$numpunct@D@std@@2V0locale@2@A@@YAXXZ
text$yc	SEGMENT
??__E?id@?$numpunct@D@std@@2V0locale@2@A@@YAXXZ PROC	; `dynamic initializer for 'std::numpunct<char>::id'', COMDAT

; 155  : 		void _Getvals(wchar_t, const lconv *_Ptr, _Locinfo::_Cvtvec)

	push	ebp
	mov	ebp, esp
	push	0
	mov	ecx, OFFSET ?id@?$numpunct@D@std@@2V0locale@2@A ; std::numpunct<char>::id
	call	??0id@locale@std@@QAE@I@Z		; std::locale::id::id
	pop	ebp
	ret	0
??__E?id@?$numpunct@D@std@@2V0locale@2@A@@YAXXZ ENDP	; `dynamic initializer for 'std::numpunct<char>::id''
text$yc	ENDS
; Function compile flags: /Odtp
; File c:\program files (x86)\microsoft visual studio 11.0\vc\include\xlocnum
;	COMDAT ??__E?id@?$num_put@_WV?$back_insert_iterator@V?$basic_string@_WU?$char_traits@_W@std@@V?$allocator@_W@2@@std@@@std@@@std@@2V0locale@2@A@@YAXXZ
text$yc	SEGMENT
??__E?id@?$num_put@_WV?$back_insert_iterator@V?$basic_string@_WU?$char_traits@_W@std@@V?$allocator@_W@2@@std@@@std@@@std@@2V0locale@2@A@@YAXXZ PROC ; `dynamic initializer for 'std::num_put<wchar_t,std::back_insert_iterator<std::basic_string<wchar_t,std::char_traits<wchar_t>,std::allocator<wchar_t> > > >::id'', COMDAT

; 155  : 		void _Getvals(wchar_t, const lconv *_Ptr, _Locinfo::_Cvtvec)

	push	ebp
	mov	ebp, esp
	push	0
	mov	ecx, OFFSET ?id@?$num_put@_WV?$back_insert_iterator@V?$basic_string@_WU?$char_traits@_W@std@@V?$allocator@_W@2@@std@@@std@@@std@@2V0locale@2@A ; std::num_put<wchar_t,std::back_insert_iterator<std::basic_string<wchar_t,std::char_traits<wchar_t>,std::allocator<wchar_t> > > >::id
	call	??0id@locale@std@@QAE@I@Z		; std::locale::id::id
	pop	ebp
	ret	0
??__E?id@?$num_put@_WV?$back_insert_iterator@V?$basic_string@_WU?$char_traits@_W@std@@V?$allocator@_W@2@@std@@@std@@@std@@2V0locale@2@A@@YAXXZ ENDP ; `dynamic initializer for 'std::num_put<wchar_t,std::back_insert_iterator<std::basic_string<wchar_t,std::char_traits<wchar_t>,std::allocator<wchar_t> > > >::id''
text$yc	ENDS
; Function compile flags: /Odtp
; File c:\program files (x86)\microsoft visual studio 11.0\vc\include\xlocnum
;	COMDAT ??__E?id@?$num_put@DV?$back_insert_iterator@V?$basic_string@DU?$char_traits@D@std@@V?$allocator@D@2@@std@@@std@@@std@@2V0locale@2@A@@YAXXZ
text$yc	SEGMENT
??__E?id@?$num_put@DV?$back_insert_iterator@V?$basic_string@DU?$char_traits@D@std@@V?$allocator@D@2@@std@@@std@@@std@@2V0locale@2@A@@YAXXZ PROC ; `dynamic initializer for 'std::num_put<char,std::back_insert_iterator<std::basic_string<char,std::char_traits<char>,std::allocator<char> > > >::id'', COMDAT

; 155  : 		void _Getvals(wchar_t, const lconv *_Ptr, _Locinfo::_Cvtvec)

	push	ebp
	mov	ebp, esp
	push	0
	mov	ecx, OFFSET ?id@?$num_put@DV?$back_insert_iterator@V?$basic_string@DU?$char_traits@D@std@@V?$allocator@D@2@@std@@@std@@@std@@2V0locale@2@A ; std::num_put<char,std::back_insert_iterator<std::basic_string<char,std::char_traits<char>,std::allocator<char> > > >::id
	call	??0id@locale@std@@QAE@I@Z		; std::locale::id::id
	pop	ebp
	ret	0
??__E?id@?$num_put@DV?$back_insert_iterator@V?$basic_string@DU?$char_traits@D@std@@V?$allocator@D@2@@std@@@std@@@std@@2V0locale@2@A@@YAXXZ ENDP ; `dynamic initializer for 'std::num_put<char,std::back_insert_iterator<std::basic_string<char,std::char_traits<char>,std::allocator<char> > > >::id''
text$yc	ENDS
; Function compile flags: /Odtp
; File c:\program files (x86)\microsoft visual studio 11.0\vc\include\xmemory0
;	COMDAT ??$destroy@PAD@?$allocator_traits@V?$allocator@D@std@@@std@@SAXAAV?$allocator@D@1@PAPAD@Z
_TEXT	SEGMENT
__Al$ = 8						; size = 4
__Ptr$ = 12						; size = 4
??$destroy@PAD@?$allocator_traits@V?$allocator@D@std@@@std@@SAXAAV?$allocator@D@1@PAPAD@Z PROC ; std::allocator_traits<std::allocator<char> >::destroy<char *>, COMDAT

; 755  : 		static void destroy(_Alloc& _Al, _Uty *_Ptr)

	push	ebp
	mov	ebp, esp

; 756  : 		{	// destroy object at _Ptr
; 757  : 		_Al.destroy(_Ptr);

	mov	eax, DWORD PTR __Ptr$[ebp]
	push	eax
	mov	ecx, DWORD PTR __Al$[ebp]
	call	??$destroy@PAD@?$allocator@D@std@@QAEXPAPAD@Z ; std::allocator<char>::destroy<char *>

; 758  : 		}

	pop	ebp
	ret	0
??$destroy@PAD@?$allocator_traits@V?$allocator@D@std@@@std@@SAXAAV?$allocator@D@1@PAPAD@Z ENDP ; std::allocator_traits<std::allocator<char> >::destroy<char *>
_TEXT	ENDS
; Function compile flags: /Odtp
; File c:\program files (x86)\microsoft visual studio 11.0\vc\include\xmemory0
;	COMDAT ??$construct@PADAAPAD@?$allocator_traits@V?$allocator@D@std@@@std@@SAXAAV?$allocator@D@1@PAPADAAPAD@Z
_TEXT	SEGMENT
__Al$ = 8						; size = 4
__Ptr$ = 12						; size = 4
__V0$ = 16						; size = 4
??$construct@PADAAPAD@?$allocator_traits@V?$allocator@D@std@@@std@@SAXAAV?$allocator@D@1@PAPADAAPAD@Z PROC ; std::allocator_traits<std::allocator<char> >::construct<char *,char * &>, COMDAT

; 751  : _VARIADIC_EXPAND_0X(_ALLOC_TRAITS_SPECIAL_CONSTRUCT, , , , )

	push	ebp
	mov	ebp, esp
	mov	eax, DWORD PTR __V0$[ebp]
	push	eax
	call	??$forward@AAPAD@std@@YAAAPADAAPAD@Z	; std::forward<char * &>
	add	esp, 4
	push	eax
	mov	ecx, DWORD PTR __Ptr$[ebp]
	push	ecx
	mov	ecx, DWORD PTR __Al$[ebp]
	call	??$construct@PADAAPAD@?$allocator@D@std@@QAEXPAPADAAPAD@Z ; std::allocator<char>::construct<char *,char * &>
	pop	ebp
	ret	0
??$construct@PADAAPAD@?$allocator_traits@V?$allocator@D@std@@@std@@SAXAAV?$allocator@D@1@PAPADAAPAD@Z ENDP ; std::allocator_traits<std::allocator<char> >::construct<char *,char * &>
_TEXT	ENDS
; Function compile flags: /Odtp
; File c:\program files (x86)\microsoft visual studio 11.0\vc\include\type_traits
;	COMDAT ??$forward@AAPAD@std@@YAAAPADAAPAD@Z
_TEXT	SEGMENT
__Arg$ = 8						; size = 4
??$forward@AAPAD@std@@YAAAPADAAPAD@Z PROC		; std::forward<char * &>, COMDAT

; 1775 : 	{	// forward an lvalue

	push	ebp
	mov	ebp, esp

; 1776 : 	return (static_cast<_Ty&&>(_Arg));

	mov	eax, DWORD PTR __Arg$[ebp]

; 1777 : 	}

	pop	ebp
	ret	0
??$forward@AAPAD@std@@YAAAPADAAPAD@Z ENDP		; std::forward<char * &>
_TEXT	ENDS
; Function compile flags: /Odtp
;	COMDAT ??__F?_System_object@?$_Error_objects@H@std@@2V_System_error_category@2@A@@YAXXZ
text$yd	SEGMENT
??__F?_System_object@?$_Error_objects@H@std@@2V_System_error_category@2@A@@YAXXZ PROC ; `dynamic atexit destructor for 'std::_Error_objects<int>::_System_object'', COMDAT
	push	ebp
	mov	ebp, esp
	mov	ecx, OFFSET ?_System_object@?$_Error_objects@H@std@@2V_System_error_category@2@A ; std::_Error_objects<int>::_System_object
	call	??1_System_error_category@std@@UAE@XZ
	pop	ebp
	ret	0
??__F?_System_object@?$_Error_objects@H@std@@2V_System_error_category@2@A@@YAXXZ ENDP ; `dynamic atexit destructor for 'std::_Error_objects<int>::_System_object''
text$yd	ENDS
; Function compile flags: /Odtp
; File c:\program files (x86)\microsoft visual studio 11.0\vc\include\xmemory0
;	COMDAT ??__E?_System_object@?$_Error_objects@H@std@@2V_System_error_category@2@A@@YAXXZ
text$yc	SEGMENT
??__E?_System_object@?$_Error_objects@H@std@@2V_System_error_category@2@A@@YAXXZ PROC ; `dynamic initializer for 'std::_Error_objects<int>::_System_object'', COMDAT

; 627  : 		{	// estimate maximum array size

	push	ebp
	mov	ebp, esp
	mov	ecx, OFFSET ?_System_object@?$_Error_objects@H@std@@2V_System_error_category@2@A ; std::_Error_objects<int>::_System_object
	call	??0_System_error_category@std@@QAE@XZ	; std::_System_error_category::_System_error_category
	push	OFFSET ??__F?_System_object@?$_Error_objects@H@std@@2V_System_error_category@2@A@@YAXXZ ; `dynamic atexit destructor for 'std::_Error_objects<int>::_System_object''
	call	_atexit
	add	esp, 4
	pop	ebp
	ret	0
??__E?_System_object@?$_Error_objects@H@std@@2V_System_error_category@2@A@@YAXXZ ENDP ; `dynamic initializer for 'std::_Error_objects<int>::_System_object''
text$yc	ENDS
; Function compile flags: /Odtp
;	COMDAT ??__F?_Iostream_object@?$_Error_objects@H@std@@2V_Iostream_error_category@2@A@@YAXXZ
text$yd	SEGMENT
??__F?_Iostream_object@?$_Error_objects@H@std@@2V_Iostream_error_category@2@A@@YAXXZ PROC ; `dynamic atexit destructor for 'std::_Error_objects<int>::_Iostream_object'', COMDAT
	push	ebp
	mov	ebp, esp
	mov	ecx, OFFSET ?_Iostream_object@?$_Error_objects@H@std@@2V_Iostream_error_category@2@A ; std::_Error_objects<int>::_Iostream_object
	call	??1_Iostream_error_category@std@@UAE@XZ
	pop	ebp
	ret	0
??__F?_Iostream_object@?$_Error_objects@H@std@@2V_Iostream_error_category@2@A@@YAXXZ ENDP ; `dynamic atexit destructor for 'std::_Error_objects<int>::_Iostream_object''
text$yd	ENDS
; Function compile flags: /Odtp
; File c:\program files (x86)\microsoft visual studio 11.0\vc\include\xmemory0
;	COMDAT ??__E?_Iostream_object@?$_Error_objects@H@std@@2V_Iostream_error_category@2@A@@YAXXZ
text$yc	SEGMENT
??__E?_Iostream_object@?$_Error_objects@H@std@@2V_Iostream_error_category@2@A@@YAXXZ PROC ; `dynamic initializer for 'std::_Error_objects<int>::_Iostream_object'', COMDAT

; 627  : 		{	// estimate maximum array size

	push	ebp
	mov	ebp, esp
	mov	ecx, OFFSET ?_Iostream_object@?$_Error_objects@H@std@@2V_Iostream_error_category@2@A ; std::_Error_objects<int>::_Iostream_object
	call	??0_Iostream_error_category@std@@QAE@XZ	; std::_Iostream_error_category::_Iostream_error_category
	push	OFFSET ??__F?_Iostream_object@?$_Error_objects@H@std@@2V_Iostream_error_category@2@A@@YAXXZ ; `dynamic atexit destructor for 'std::_Error_objects<int>::_Iostream_object''
	call	_atexit
	add	esp, 4
	pop	ebp
	ret	0
??__E?_Iostream_object@?$_Error_objects@H@std@@2V_Iostream_error_category@2@A@@YAXXZ ENDP ; `dynamic initializer for 'std::_Error_objects<int>::_Iostream_object''
text$yc	ENDS
; Function compile flags: /Odtp
;	COMDAT ??__F?_Generic_object@?$_Error_objects@H@std@@2V_Generic_error_category@2@A@@YAXXZ
text$yd	SEGMENT
??__F?_Generic_object@?$_Error_objects@H@std@@2V_Generic_error_category@2@A@@YAXXZ PROC ; `dynamic atexit destructor for 'std::_Error_objects<int>::_Generic_object'', COMDAT
	push	ebp
	mov	ebp, esp
	mov	ecx, OFFSET ?_Generic_object@?$_Error_objects@H@std@@2V_Generic_error_category@2@A ; std::_Error_objects<int>::_Generic_object
	call	??1_Generic_error_category@std@@UAE@XZ
	pop	ebp
	ret	0
??__F?_Generic_object@?$_Error_objects@H@std@@2V_Generic_error_category@2@A@@YAXXZ ENDP ; `dynamic atexit destructor for 'std::_Error_objects<int>::_Generic_object''
text$yd	ENDS
; Function compile flags: /Odtp
; File c:\program files (x86)\microsoft visual studio 11.0\vc\include\xmemory0
;	COMDAT ??__E?_Generic_object@?$_Error_objects@H@std@@2V_Generic_error_category@2@A@@YAXXZ
text$yc	SEGMENT
??__E?_Generic_object@?$_Error_objects@H@std@@2V_Generic_error_category@2@A@@YAXXZ PROC ; `dynamic initializer for 'std::_Error_objects<int>::_Generic_object'', COMDAT

; 627  : 		{	// estimate maximum array size

	push	ebp
	mov	ebp, esp
	mov	ecx, OFFSET ?_Generic_object@?$_Error_objects@H@std@@2V_Generic_error_category@2@A ; std::_Error_objects<int>::_Generic_object
	call	??0_Generic_error_category@std@@QAE@XZ	; std::_Generic_error_category::_Generic_error_category
	push	OFFSET ??__F?_Generic_object@?$_Error_objects@H@std@@2V_Generic_error_category@2@A@@YAXXZ ; `dynamic atexit destructor for 'std::_Error_objects<int>::_Generic_object''
	call	_atexit
	add	esp, 4
	pop	ebp
	ret	0
??__E?_Generic_object@?$_Error_objects@H@std@@2V_Generic_error_category@2@A@@YAXXZ ENDP ; `dynamic initializer for 'std::_Error_objects<int>::_Generic_object''
text$yc	ENDS
; Function compile flags: /Odtp
; File c:\program files (x86)\microsoft visual studio 11.0\vc\include\xmemory0
;	COMDAT ??$_Allocate@D@std@@YAPADIPAD@Z
_TEXT	SEGMENT
__Ptr$ = -4						; size = 4
__Count$ = 8						; size = 4
___formal$ = 12						; size = 4
??$_Allocate@D@std@@YAPADIPAD@Z PROC			; std::_Allocate<char>, COMDAT

; 22   : 	{	// allocate storage for _Count elements of type _Ty

	push	ebp
	mov	ebp, esp
	push	ecx

; 23   : 	void *_Ptr = 0;

	mov	DWORD PTR __Ptr$[ebp], 0

; 24   : 
; 25   : 	if (_Count == 0)

	cmp	DWORD PTR __Count$[ebp], 0
	jne	SHORT $LN4@Allocate

; 26   : 		;
; 27   : 	else if (((size_t)(-1) / sizeof (_Ty) < _Count)

	jmp	SHORT $LN3@Allocate
$LN4@Allocate:

; 28   : 		|| (_Ptr = ::operator new(_Count * sizeof (_Ty))) == 0)

	cmp	DWORD PTR __Count$[ebp], -1
	ja	SHORT $LN1@Allocate
	mov	eax, DWORD PTR __Count$[ebp]
	push	eax
	call	??2@YAPAXI@Z				; operator new
	add	esp, 4
	mov	DWORD PTR __Ptr$[ebp], eax
	cmp	DWORD PTR __Ptr$[ebp], 0
	jne	SHORT $LN3@Allocate
$LN1@Allocate:

; 29   : 		_Xbad_alloc();	// report no memory

	call	?_Xbad_alloc@std@@YAXXZ			; std::_Xbad_alloc
$LN3@Allocate:

; 30   : 
; 31   : 	return ((_Ty *)_Ptr);

	mov	eax, DWORD PTR __Ptr$[ebp]
$LN6@Allocate:

; 32   : 	}

	mov	esp, ebp
	pop	ebp
	ret	0
??$_Allocate@D@std@@YAPADIPAD@Z ENDP			; std::_Allocate<char>
_TEXT	ENDS
; Function compile flags: /Odtp
; File c:\program files (x86)\microsoft visual studio 11.0\vc\include\xstddef
;	COMDAT ??$addressof@D@std@@YAPADAAD@Z
_TEXT	SEGMENT
__Val$ = 8						; size = 4
??$addressof@D@std@@YAPADAAD@Z PROC			; std::addressof<char>, COMDAT

; 85   : 	{	// return address of _Val

	push	ebp
	mov	ebp, esp

; 86   : 	return (reinterpret_cast<_Ty *>(
; 87   : 		(&const_cast<char&>(
; 88   : 		reinterpret_cast<const volatile char&>(_Val)))));

	mov	eax, DWORD PTR __Val$[ebp]

; 89   : 	}

	pop	ebp
	ret	0
??$addressof@D@std@@YAPADAAD@Z ENDP			; std::addressof<char>
_TEXT	ENDS
; Function compile flags: /Odtp
; File c:\program files (x86)\microsoft visual studio 11.0\vc\include\xmemory0
;	COMDAT ??$destroy@PAD@?$_Wrap_alloc@V?$allocator@D@std@@@std@@QAEXPAPAD@Z
_TEXT	SEGMENT
_this$ = -4						; size = 4
__Ptr$ = 8						; size = 4
??$destroy@PAD@?$_Wrap_alloc@V?$allocator@D@std@@@std@@QAEXPAPAD@Z PROC ; std::_Wrap_alloc<std::allocator<char> >::destroy<char *>, COMDAT
; _this$ = ecx

; 907  : 		void destroy(_Ty *_Ptr)

	push	ebp
	mov	ebp, esp
	push	ecx
	mov	DWORD PTR _this$[ebp], ecx

; 908  : 		{	// destroy object at _Ptr
; 909  : 		_Mytraits::destroy(*this, _Ptr);

	mov	eax, DWORD PTR __Ptr$[ebp]
	push	eax
	mov	ecx, DWORD PTR _this$[ebp]
	push	ecx
	call	??$destroy@PAD@?$allocator_traits@V?$allocator@D@std@@@std@@SAXAAV?$allocator@D@1@PAPAD@Z ; std::allocator_traits<std::allocator<char> >::destroy<char *>
	add	esp, 8

; 910  : 		}

	mov	esp, ebp
	pop	ebp
	ret	4
??$destroy@PAD@?$_Wrap_alloc@V?$allocator@D@std@@@std@@QAEXPAPAD@Z ENDP ; std::_Wrap_alloc<std::allocator<char> >::destroy<char *>
_TEXT	ENDS
; Function compile flags: /Odtp
; File c:\program files (x86)\microsoft visual studio 11.0\vc\include\xmemory0
;	COMDAT ??$construct@PADAAPAD@?$_Wrap_alloc@V?$allocator@D@std@@@std@@QAEXPAPADAAPAD@Z
_TEXT	SEGMENT
_this$ = -4						; size = 4
__Ptr$ = 8						; size = 4
__V0$ = 12						; size = 4
??$construct@PADAAPAD@?$_Wrap_alloc@V?$allocator@D@std@@@std@@QAEXPAPADAAPAD@Z PROC ; std::_Wrap_alloc<std::allocator<char> >::construct<char *,char * &>, COMDAT
; _this$ = ecx

; 903  : _VARIADIC_EXPAND_0X(_WRAP_ALLOC_CONSTRUCT, , , , )

	push	ebp
	mov	ebp, esp
	push	ecx
	mov	DWORD PTR _this$[ebp], ecx
	mov	eax, DWORD PTR __V0$[ebp]
	push	eax
	call	??$forward@AAPAD@std@@YAAAPADAAPAD@Z	; std::forward<char * &>
	add	esp, 4
	push	eax
	mov	ecx, DWORD PTR __Ptr$[ebp]
	push	ecx
	mov	edx, DWORD PTR _this$[ebp]
	push	edx
	call	??$construct@PADAAPAD@?$allocator_traits@V?$allocator@D@std@@@std@@SAXAAV?$allocator@D@1@PAPADAAPAD@Z ; std::allocator_traits<std::allocator<char> >::construct<char *,char * &>
	add	esp, 12					; 0000000cH
	mov	esp, ebp
	pop	ebp
	ret	8
??$construct@PADAAPAD@?$_Wrap_alloc@V?$allocator@D@std@@@std@@QAEXPAPADAAPAD@Z ENDP ; std::_Wrap_alloc<std::allocator<char> >::construct<char *,char * &>
_TEXT	ENDS
; Function compile flags: /Odtp
; File c:\users\zhitao li\documents\visual studio 2012\projects\freefalcon\campaign\camplib\unit.cpp
_TEXT	SEGMENT
$T1 = -48						; size = 8
_pt$ = -40						; size = 4
_prevPt$ = -36						; size = 4
_parkPt$ = -32						; size = 4
_w$ = -28						; size = 4
_takeoff_time$ = -24					; size = 4
_info$ = -20						; size = 4
_rwindex$ = -16						; size = 4
_time_til_takeoff$ = -12				; size = 4
_tp$ = -8						; size = 4
_goanyway$ = -1						; size = 1
_flight$ = 8						; size = 4
_airbase$ = 12						; size = 4
_checklist$ = 16					; size = 4
?FindTaxiPt@@YAHPAVFlightClass@@PAVObjectiveClass@@H@Z PROC ; FindTaxiPt

; 5066 : {

	push	ebp
	mov	ebp, esp
	sub	esp, 48					; 00000030H
	push	esi

; 5067 : 	int		time_til_takeoff=0,tp,rwindex = 0, pt, parkPt;			// in 10 second blocks

	mov	DWORD PTR _time_til_takeoff$[ebp], 0
	mov	DWORD PTR _rwindex$[ebp], 0

; 5068 : 	bool goanyway = false;

	mov	BYTE PTR _goanyway$[ebp], 0

; 5069 : 	ulong		takeoff_time;
; 5070 : 	pt = 0; // Cobra

	mov	DWORD PTR _pt$[ebp], 0

; 5071 : 
; 5072 : 	WayPoint	w;
; 5073 : 	runwayQueueStruct *info = NULL;	

	mov	DWORD PTR _info$[ebp], 0

; 5074 : 
; 5075 : 	w = flight->GetCurrentUnitWP();

	mov	ecx, DWORD PTR _flight$[ebp]
	call	?GetCurrentUnitWP@UnitClass@@QBEPAVWayPointClass@@XZ ; UnitClass::GetCurrentUnitWP
	mov	DWORD PTR _w$[ebp], eax

; 5076 : 	if(checklist && airbase && airbase->brain)

	cmp	DWORD PTR _checklist$[ebp], 0
	je	SHORT $LN21@FindTaxiPt
	cmp	DWORD PTR _airbase$[ebp], 0
	je	SHORT $LN21@FindTaxiPt
	mov	eax, DWORD PTR _airbase$[ebp]
	cmp	DWORD PTR [eax+240], 0
	je	SHORT $LN21@FindTaxiPt

; 5077 : 		info = airbase->brain->InList(flight->Id());

	lea	ecx, DWORD PTR $T1[ebp]
	push	ecx
	mov	ecx, DWORD PTR _flight$[ebp]
	call	?Id@VuEntity@@QBE?AVVU_ID@@XZ		; VuEntity::Id
	mov	edx, DWORD PTR [eax+4]
	push	edx
	mov	eax, DWORD PTR [eax]
	push	eax
	mov	ecx, DWORD PTR _airbase$[ebp]
	mov	ecx, DWORD PTR [ecx+240]
	call	?InList@ATCBrain@@QAEPAUrunwayQueueStruct@@VVU_ID@@@Z ; ATCBrain::InList
	mov	DWORD PTR _info$[ebp], eax
$LN21@FindTaxiPt:

; 5078 : 	if(info)

	cmp	DWORD PTR _info$[ebp], 0
	je	SHORT $LN20@FindTaxiPt

; 5079 : 	{
; 5080 : 		rwindex = info->rwindex;

	mov	edx, DWORD PTR _info$[ebp]
	mov	eax, DWORD PTR [edx+20]
	mov	DWORD PTR _rwindex$[ebp], eax

; 5081 : 		takeoff_time = info->schedTime;

	mov	ecx, DWORD PTR _info$[ebp]
	mov	edx, DWORD PTR [ecx+12]
	mov	DWORD PTR _takeoff_time$[ebp], edx

; 5082 : 	}
; 5083 : 	else

	jmp	SHORT $LN19@FindTaxiPt
$LN20@FindTaxiPt:

; 5084 : 	{
; 5085 : 		if (airbase && airbase->brain)

	cmp	DWORD PTR _airbase$[ebp], 0
	je	SHORT $LN18@FindTaxiPt
	mov	eax, DWORD PTR _airbase$[ebp]
	cmp	DWORD PTR [eax+240], 0
	je	SHORT $LN18@FindTaxiPt

; 5086 : 			rwindex = airbase->brain->FindBestTakeoffRunway(checklist);

	mov	ecx, DWORD PTR _checklist$[ebp]
	push	ecx
	mov	edx, DWORD PTR _airbase$[ebp]
	mov	ecx, DWORD PTR [edx+240]
	call	?FindBestTakeoffRunway@ATCBrain@@QAEHH@Z ; ATCBrain::FindBestTakeoffRunway
	mov	DWORD PTR _rwindex$[ebp], eax
$LN18@FindTaxiPt:

; 5087 : 		takeoff_time = w->GetWPDepartureTime();

	mov	ecx, DWORD PTR _w$[ebp]
	call	?GetWPDepartureTime@WayPointClass@@QAEKXZ ; WayPointClass::GetWPDepartureTime
	mov	DWORD PTR _takeoff_time$[ebp], eax
$LN19@FindTaxiPt:

; 5088 : 	}
; 5089 : 
; 5090 : 	if(!rwindex)

	cmp	DWORD PTR _rwindex$[ebp], 0
	jne	SHORT $LN17@FindTaxiPt

; 5091 : 		return DPT_ERROR_CANT_PLACE; // Error, runway is toast

	mov	eax, -2					; fffffffeH
	jmp	$LN22@FindTaxiPt
$LN17@FindTaxiPt:

; 5092 : 
; 5093 : 	if (takeoff_time > SimLibElapsedTime && w->GetWPAction() == WP_TAKEOFF)

	mov	eax, DWORD PTR _takeoff_time$[ebp]
	cmp	eax, DWORD PTR ?SimLibElapsedTime@@3KA	; SimLibElapsedTime
	jbe	SHORT $LN16@FindTaxiPt
	mov	ecx, DWORD PTR _w$[ebp]
	call	?GetWPAction@WayPointClass@@QAEHXZ	; WayPointClass::GetWPAction
	cmp	eax, 1
	jne	SHORT $LN16@FindTaxiPt

; 5094 : 		time_til_takeoff = (takeoff_time - SimLibElapsedTime) / (TAKEOFF_TIME_DELTA);

	mov	eax, DWORD PTR _takeoff_time$[ebp]
	sub	eax, DWORD PTR ?SimLibElapsedTime@@3KA	; SimLibElapsedTime
	xor	edx, edx
	mov	ecx, 10000				; 00002710H
	div	ecx
	mov	DWORD PTR _time_til_takeoff$[ebp], eax
$LN16@FindTaxiPt:

; 5095 : 	// JPO - if this is true, we should be able to go anyway.as were after the min deag time.
; 5096 : 	if (g_nDeagTimer > 0 && airbase && airbase->brain && SimLibElapsedTime > w->GetWPArrivalTime() - airbase->brain->MinDeagTime() - CampaignMinutes * g_nDeagTimer)

	cmp	DWORD PTR ?g_nDeagTimer@@3HA, 0		; g_nDeagTimer
	jle	SHORT $LN15@FindTaxiPt
	cmp	DWORD PTR _airbase$[ebp], 0
	je	SHORT $LN15@FindTaxiPt
	mov	edx, DWORD PTR _airbase$[ebp]
	cmp	DWORD PTR [edx+240], 0
	je	SHORT $LN15@FindTaxiPt
	mov	ecx, DWORD PTR _w$[ebp]
	call	?GetWPArrivalTime@WayPointClass@@QAEKXZ	; WayPointClass::GetWPArrivalTime
	mov	esi, eax
	mov	eax, DWORD PTR _airbase$[ebp]
	mov	ecx, DWORD PTR [eax+240]
	call	?MinDeagTime@ATCBrain@@QAEKXZ		; ATCBrain::MinDeagTime
	sub	esi, eax
	mov	ecx, DWORD PTR ?g_nDeagTimer@@3HA	; g_nDeagTimer
	imul	ecx, 60000				; 0000ea60H
	sub	esi, ecx
	cmp	DWORD PTR ?SimLibElapsedTime@@3KA, esi	; SimLibElapsedTime
	jbe	SHORT $LN15@FindTaxiPt

; 5097 : 		goanyway = true;

	mov	BYTE PTR _goanyway$[ebp], 1
	jmp	SHORT $LN14@FindTaxiPt
$LN15@FindTaxiPt:

; 5098 : 	else if (flight->IsSetFalcFlag(FEC_PLAYER_ENTERING|FEC_HASPLAYERS)) // players go too

	push	20					; 00000014H
	mov	ecx, DWORD PTR _flight$[ebp]
	call	?IsSetFalcFlag@FalconEntity@@QAEHH@Z	; FalconEntity::IsSetFalcFlag
	test	eax, eax
	je	SHORT $LN14@FindTaxiPt

; 5099 : 		goanyway = true;

	mov	BYTE PTR _goanyway$[ebp], 1
$LN14@FindTaxiPt:

; 5100 : 
; 5101 : 	// Cobra - Determine parking/spawning spots later in Aircraft.cpp FindBestSpawningPoint()
; 5102 : 	if (time_til_takeoff > PtHeaderDataTable[rwindex].count) 

	mov	edx, DWORD PTR _rwindex$[ebp]
	imul	edx, 28					; 0000001cH
	mov	eax, DWORD PTR ?PtHeaderDataTable@@3PAUPtHeaderDataType@@A ; PtHeaderDataTable
	movzx	ecx, BYTE PTR [eax+edx+3]
	cmp	DWORD PTR _time_til_takeoff$[ebp], ecx
	jle	SHORT $LN12@FindTaxiPt

; 5103 : 	{
; 5104 : 		if (!checklist)

	cmp	DWORD PTR _checklist$[ebp], 0
	jne	SHORT $LN11@FindTaxiPt

; 5105 : 			return 0;								// Takeoff longer away than we have taxi pts for

	xor	eax, eax
	jmp	$LN22@FindTaxiPt
$LN11@FindTaxiPt:

; 5106 : 		time_til_takeoff = PtHeaderDataTable[rwindex].count; // JPO - just go in this case

	mov	edx, DWORD PTR _rwindex$[ebp]
	imul	edx, 28					; 0000001cH
	mov	eax, DWORD PTR ?PtHeaderDataTable@@3PAUPtHeaderDataType@@A ; PtHeaderDataTable
	movzx	ecx, BYTE PTR [eax+edx+3]
	mov	DWORD PTR _time_til_takeoff$[ebp], ecx
$LN12@FindTaxiPt:

; 5107 : 	}
; 5108 : 	// Cobra - FRB - Replaced with my landme.cpp code		
; 5109 : 	if (time_til_takeoff < 0)

	cmp	DWORD PTR _time_til_takeoff$[ebp], 0
	jge	SHORT $LN10@FindTaxiPt

; 5110 : 		time_til_takeoff = 0;

	mov	DWORD PTR _time_til_takeoff$[ebp], 0
$LN10@FindTaxiPt:

; 5111 : 	tp = GetFirstPt(rwindex);

	mov	edx, DWORD PTR _rwindex$[ebp]
	push	edx
	call	?GetFirstPt@@YAHH@Z			; GetFirstPt
	add	esp, 4
	mov	DWORD PTR _tp$[ebp], eax

; 5112 : 	int prevPt = tp;

	mov	eax, DWORD PTR _tp$[ebp]
	mov	DWORD PTR _prevPt$[ebp], eax

; 5113 : 	parkPt = -1; // FRB

	mov	DWORD PTR _parkPt$[ebp], -1

; 5114 : 	tp = GetNextPt(tp);	

	mov	ecx, DWORD PTR _tp$[ebp]
	push	ecx
	call	?GetNextPt@@YAHH@Z			; GetNextPt
	add	esp, 4
	mov	DWORD PTR _tp$[ebp], eax
$LN9@FindTaxiPt:

; 5115 : 	while (tp && time_til_takeoff){

	cmp	DWORD PTR _tp$[ebp], 0
	je	$LN8@FindTaxiPt
	cmp	DWORD PTR _time_til_takeoff$[ebp], 0
	je	$LN8@FindTaxiPt

; 5116 : 		prevPt = tp;

	mov	edx, DWORD PTR _tp$[ebp]
	mov	DWORD PTR _prevPt$[ebp], edx

; 5117 : 		tp = GetNextPt(tp);	// FRB - Look at all of them

	mov	eax, DWORD PTR _tp$[ebp]
	push	eax
	call	?GetNextPt@@YAHH@Z			; GetNextPt
	add	esp, 4
	mov	DWORD PTR _tp$[ebp], eax

; 5118 : 		if(PtDataTable[tp].type == CritTaxiPt){

	mov	ecx, DWORD PTR _tp$[ebp]
	imul	ecx, 12					; 0000000cH
	mov	edx, DWORD PTR ?PtDataTable@@3PAUPtDataType@@A ; PtDataTable
	movzx	eax, BYTE PTR [edx+ecx+8]
	cmp	eax, 19					; 00000013H
	jne	SHORT $LN7@FindTaxiPt

; 5119 : 			break;

	jmp	SHORT $LN8@FindTaxiPt
$LN7@FindTaxiPt:

; 5120 : 		}
; 5121 : 
; 5122 : 		// 17JAN04 - FRB - Locate a suitable parking spot
; 5123 : 		if ((PtDataTable[tp].type == SmallParkPt) || (PtDataTable[tp].type == LargeParkPt)){

	mov	ecx, DWORD PTR _tp$[ebp]
	imul	ecx, 12					; 0000000cH
	mov	edx, DWORD PTR ?PtDataTable@@3PAUPtDataType@@A ; PtDataTable
	movzx	eax, BYTE PTR [edx+ecx+8]
	cmp	eax, 11					; 0000000bH
	je	SHORT $LN5@FindTaxiPt
	mov	ecx, DWORD PTR _tp$[ebp]
	imul	ecx, 12					; 0000000cH
	mov	edx, DWORD PTR ?PtDataTable@@3PAUPtDataType@@A ; PtDataTable
	movzx	eax, BYTE PTR [edx+ecx+8]
	cmp	eax, 12					; 0000000cH
	jne	SHORT $LN6@FindTaxiPt
$LN5@FindTaxiPt:

; 5124 : 			if (PtDataTable[tp].flags & PT_OCCUPIED){

	mov	ecx, DWORD PTR _tp$[ebp]
	imul	ecx, 12					; 0000000cH
	mov	edx, DWORD PTR ?PtDataTable@@3PAUPtDataType@@A ; PtDataTable
	movzx	eax, BYTE PTR [edx+ecx+9]
	and	eax, 4
	je	SHORT $LN4@FindTaxiPt

; 5125 : 				time_til_takeoff--;

	mov	ecx, DWORD PTR _time_til_takeoff$[ebp]
	sub	ecx, 1
	mov	DWORD PTR _time_til_takeoff$[ebp], ecx

; 5126 : 				continue;  // Taken

	jmp	$LN9@FindTaxiPt

; 5127 : 			}
; 5128 : 			else {

	jmp	SHORT $LN6@FindTaxiPt
$LN4@FindTaxiPt:

; 5129 : 				parkPt = tp; 

	mov	edx, DWORD PTR _tp$[ebp]
	mov	DWORD PTR _parkPt$[ebp], edx

; 5130 : 				time_til_takeoff--;

	mov	eax, DWORD PTR _time_til_takeoff$[ebp]
	sub	eax, 1
	mov	DWORD PTR _time_til_takeoff$[ebp], eax

; 5131 : 				continue;

	jmp	$LN9@FindTaxiPt
$LN6@FindTaxiPt:

; 5132 : 			}
; 5133 : 		}
; 5134 : 
; 5135 : 		time_til_takeoff--;

	mov	ecx, DWORD PTR _time_til_takeoff$[ebp]
	sub	ecx, 1
	mov	DWORD PTR _time_til_takeoff$[ebp], ecx

; 5136 : 	}

	jmp	$LN9@FindTaxiPt
$LN8@FindTaxiPt:

; 5137 : 	// 17JAN04 - FRB - Use nearest Parking spot
; 5138 : 	if (parkPt >= 0){

	cmp	DWORD PTR _parkPt$[ebp], 0
	jl	SHORT $LN2@FindTaxiPt

; 5139 : 		tp = parkPt;

	mov	edx, DWORD PTR _parkPt$[ebp]
	mov	DWORD PTR _tp$[ebp], edx

; 5140 : 		return tp;

	mov	eax, DWORD PTR _tp$[ebp]
	jmp	SHORT $LN22@FindTaxiPt
$LN2@FindTaxiPt:

; 5141 : 	}
; 5142 : 
; 5143 : 	if(tp){

	cmp	DWORD PTR _tp$[ebp], 0
	je	SHORT $LN1@FindTaxiPt

; 5144 : 		return tp;

	mov	eax, DWORD PTR _tp$[ebp]
	jmp	SHORT $LN22@FindTaxiPt
$LN1@FindTaxiPt:

; 5145 : 	}
; 5146 : 
; 5147 : 	return prevPt;

	mov	eax, DWORD PTR _prevPt$[ebp]
$LN22@FindTaxiPt:

; 5148 : }

	pop	esi
	mov	esp, ebp
	pop	ebp
	ret	0
?FindTaxiPt@@YAHPAVFlightClass@@PAVObjectiveClass@@H@Z ENDP ; FindTaxiPt
_TEXT	ENDS
; Function compile flags: /Odtp
; File c:\users\zhitao li\documents\visual studio 2012\projects\freefalcon\campaign\camplib\unit.cpp
_TEXT	SEGMENT
_temp3$ = -68						; size = 20
_temp2$ = -48						; size = 20
_temp1$ = -28						; size = 10
_format$ = -16						; size = 10
__$ArrayPad$ = -4					; size = 4
_div$ = 8						; size = 4
_type$ = 12						; size = 4
_buffer$ = 16						; size = 4
_size$ = 20						; size = 4
_object$ = 24						; size = 4
?GetDivisionName@@YAPADHHPADHH@Z PROC			; GetDivisionName

; 4821 : {

	push	ebp
	mov	ebp, esp
	sub	esp, 68					; 00000044H
	mov	eax, DWORD PTR ___security_cookie
	xor	eax, ebp
	mov	DWORD PTR __$ArrayPad$[ebp], eax

; 4822 : 	_TCHAR		temp1[10],temp2[20],temp3[20],format[10];
; 4823 : 
; 4824 : 	GetNumberName(div,temp1);

	lea	eax, DWORD PTR _temp1$[ebp]
	push	eax
	mov	ecx, DWORD PTR _div$[ebp]
	push	ecx
	call	?GetNumberName@@YAPADHPAD@Z		; GetNumberName
	add	esp, 8

; 4825 : 	GetSTypeName(DOMAIN_LAND,0,type,temp2);

	lea	edx, DWORD PTR _temp2$[ebp]
	push	edx
	mov	eax, DWORD PTR _type$[ebp]
	push	eax
	push	0
	push	3
	call	?GetSTypeName@@YAPADHHHQAD@Z		; GetSTypeName
	add	esp, 16					; 00000010H

; 4826 : 	_tcscpy(format,"%s %s %s");

	push	OFFSET ??_C@_08EPEHIMMI@?$CFs?5?$CFs?5?$CFs?$AA@
	lea	ecx, DWORD PTR _format$[ebp]
	push	ecx
	call	_strcpy
	add	esp, 8

; 4827 : 
; 4828 : 	if (gLangIDNum == F4LANG_GERMAN)

	cmp	DWORD PTR ?gLangIDNum@@3HA, 3		; gLangIDNum
	jne	SHORT $LN4@GetDivisio

; 4829 : 	{
; 4830 : 		// Replace space with hyphen, if necessary
; 4831 : 		if (temp2[_tcslen(temp2)-1] == '-')

	lea	edx, DWORD PTR _temp2$[ebp]
	push	edx
	call	_strlen
	add	esp, 4
	movsx	eax, BYTE PTR _temp2$[ebp+eax-1]
	cmp	eax, 45					; 0000002dH
	jne	SHORT $LN4@GetDivisio

; 4832 : 			_tcscpy(format,"%s %s%s");

	push	OFFSET ??_C@_07LLFIICBM@?$CFs?5?$CFs?$CFs?$AA@
	lea	ecx, DWORD PTR _format$[ebp]
	push	ecx
	call	_strcpy
	add	esp, 8
$LN4@GetDivisio:

; 4833 : 	}
; 4834 : 
; 4835 : 	ReadIndexedString(613, temp3, 19);

	push	19					; 00000013H
	lea	edx, DWORD PTR _temp3$[ebp]
	push	edx
	push	613					; 00000265H
	call	?ReadIndexedString@@YAXHPADH@Z		; ReadIndexedString
	add	esp, 12					; 0000000cH

; 4836 : 
; 4837 : 	ShiAssert(((int) _tcslen(temp1)+_tcslen(temp2)+_tcslen(temp3)+3) < static_cast<unsigned long>(size));
; 4838 : 
; 4839 : 	if (gLangIDNum >= F4LANG_SPANISH)

	cmp	DWORD PTR ?gLangIDNum@@3HA, 5		; gLangIDNum
	jl	SHORT $LN2@GetDivisio

; 4840 : 		_sntprintf(buffer,size,format,temp1,temp3,temp2);

	lea	eax, DWORD PTR _temp2$[ebp]
	push	eax
	lea	ecx, DWORD PTR _temp3$[ebp]
	push	ecx
	lea	edx, DWORD PTR _temp1$[ebp]
	push	edx
	lea	eax, DWORD PTR _format$[ebp]
	push	eax
	mov	ecx, DWORD PTR _size$[ebp]
	push	ecx
	mov	edx, DWORD PTR _buffer$[ebp]
	push	edx
	call	__snprintf
	add	esp, 24					; 00000018H

; 4841 : 	else

	jmp	SHORT $LN1@GetDivisio
$LN2@GetDivisio:

; 4842 : 		_sntprintf(buffer,size,format,temp1,temp2,temp3);

	lea	eax, DWORD PTR _temp3$[ebp]
	push	eax
	lea	ecx, DWORD PTR _temp2$[ebp]
	push	ecx
	lea	edx, DWORD PTR _temp1$[ebp]
	push	edx
	lea	eax, DWORD PTR _format$[ebp]
	push	eax
	mov	ecx, DWORD PTR _size$[ebp]
	push	ecx
	mov	edx, DWORD PTR _buffer$[ebp]
	push	edx
	call	__snprintf
	add	esp, 24					; 00000018H
$LN1@GetDivisio:

; 4843 : 
; 4844 : 	// _sntprintf should do this for us, but for some reason it sometimes doesn't
; 4845 : 	buffer[size-1] = 0;

	mov	eax, DWORD PTR _buffer$[ebp]
	add	eax, DWORD PTR _size$[ebp]
	mov	BYTE PTR [eax-1], 0

; 4846 : 
; 4847 : 	return buffer;

	mov	eax, DWORD PTR _buffer$[ebp]

; 4848 : }

	mov	ecx, DWORD PTR __$ArrayPad$[ebp]
	xor	ecx, ebp
	call	@__security_check_cookie@4
	mov	esp, ebp
	pop	ebp
	ret	0
?GetDivisionName@@YAPADHHPADHH@Z ENDP			; GetDivisionName
_TEXT	ENDS
; Function compile flags: /Odtp
; File c:\users\zhitao li\documents\visual studio 2012\projects\freefalcon\campaign\camplib\unit.cpp
_TEXT	SEGMENT
_it$ = -44						; size = 12
$T2 = -32						; size = 8
$T3 = -24						; size = 4
$T4 = -20						; size = 4
_u$5 = -16						; size = 4
__$EHRec$ = -12						; size = 12
_id$ = 8						; size = 8
?GetUnitByID@@YAPAVUnitClass@@VVU_ID@@@Z PROC		; GetUnitByID

; 4713 : Unit GetUnitByID(VU_ID id){

	push	ebp
	mov	ebp, esp
	push	-1
	push	__ehhandler$?GetUnitByID@@YAPAVUnitClass@@VVU_ID@@@Z
	mov	eax, DWORD PTR fs:0
	push	eax
	sub	esp, 32					; 00000020H
	mov	eax, DWORD PTR ___security_cookie
	xor	eax, ebp
	push	eax
	lea	eax, DWORD PTR __$EHRec$[ebp]
	mov	DWORD PTR fs:0, eax

; 4714 : #if VU_ALL_FILTERED
; 4715 : 	VuListIterator it(AllUnitList);

	mov	eax, DWORD PTR ?AllUnitList@@3PAVVuLinkedList@@A ; AllUnitList
	push	eax
	lea	ecx, DWORD PTR _it$[ebp]
	call	??0VuListIterator@@QAE@PAVVuLinkedList@@@Z ; VuListIterator::VuListIterator
	mov	DWORD PTR __$EHRec$[ebp+8], 0

; 4716 : 	for (VuEntity *u = it.GetFirst(); u != NULL; u = it.GetNext()){

	lea	ecx, DWORD PTR _it$[ebp]
	call	?GetFirst@VuListIterator@@QAEPAVVuEntity@@XZ ; VuListIterator::GetFirst
	mov	DWORD PTR _u$5[ebp], eax
	jmp	SHORT $LN4@GetUnitByI
$LN3@GetUnitByI:
	lea	ecx, DWORD PTR _it$[ebp]
	call	?GetNext@VuListIterator@@QAEPAVVuEntity@@XZ ; VuListIterator::GetNext
	mov	DWORD PTR _u$5[ebp], eax
$LN4@GetUnitByI:
	cmp	DWORD PTR _u$5[ebp], 0
	je	SHORT $LN2@GetUnitByI

; 4717 : 		if (u->Id() == id){ return static_cast<Unit>(u); }

	lea	ecx, DWORD PTR _id$[ebp]
	push	ecx
	lea	edx, DWORD PTR $T2[ebp]
	push	edx
	mov	ecx, DWORD PTR _u$5[ebp]
	call	?Id@VuEntity@@QBE?AVVU_ID@@XZ		; VuEntity::Id
	mov	ecx, eax
	call	??8VU_ID@@QBE_NABV0@@Z			; VU_ID::operator==
	movzx	eax, al
	test	eax, eax
	je	SHORT $LN1@GetUnitByI
	mov	ecx, DWORD PTR _u$5[ebp]
	mov	DWORD PTR $T4[ebp], ecx
	mov	DWORD PTR __$EHRec$[ebp+8], -1
	lea	ecx, DWORD PTR _it$[ebp]
	call	??1VuListIterator@@UAE@XZ		; VuListIterator::~VuListIterator
	mov	eax, DWORD PTR $T4[ebp]
	jmp	SHORT $LN5@GetUnitByI
$LN1@GetUnitByI:

; 4718 : 	}

	jmp	SHORT $LN3@GetUnitByI
$LN2@GetUnitByI:

; 4719 : 	return NULL;

	mov	DWORD PTR $T3[ebp], 0
	mov	DWORD PTR __$EHRec$[ebp+8], -1
	lea	ecx, DWORD PTR _it$[ebp]
	call	??1VuListIterator@@UAE@XZ		; VuListIterator::~VuListIterator
	mov	eax, DWORD PTR $T3[ebp]
$LN5@GetUnitByI:

; 4720 : #else
; 4721 : 	return (Unit)AllUnitList->Find(id);
; 4722 : #endif
; 4723 : }

	mov	ecx, DWORD PTR __$EHRec$[ebp]
	mov	DWORD PTR fs:0, ecx
	pop	ecx
	mov	esp, ebp
	pop	ebp
	ret	0
_TEXT	ENDS
text$x	SEGMENT
__unwindfunclet$?GetUnitByID@@YAPAVUnitClass@@VVU_ID@@@Z$0:
	lea	ecx, DWORD PTR _it$[ebp]
	jmp	??1VuListIterator@@UAE@XZ		; VuListIterator::~VuListIterator
__ehhandler$?GetUnitByID@@YAPAVUnitClass@@VVU_ID@@@Z:
	mov	edx, DWORD PTR [esp+8]
	lea	eax, DWORD PTR [edx+12]
	mov	ecx, DWORD PTR [edx-36]
	xor	ecx, eax
	call	@__security_check_cookie@4
	mov	eax, OFFSET __ehfuncinfo$?GetUnitByID@@YAPAVUnitClass@@VVU_ID@@@Z
	jmp	___CxxFrameHandler3
text$x	ENDS
?GetUnitByID@@YAPAVUnitClass@@VVU_ID@@@Z ENDP		; GetUnitByID
; Function compile flags: /Odtp
; File c:\users\zhitao li\documents\visual studio 2012\projects\freefalcon\campaign\camplib\unit.cpp
_TEXT	SEGMENT
tv177 = -52						; size = 8
_d$ = -44						; size = 4
tv174 = -40						; size = 4
_c$ = -36						; size = 4
_t$ = -32						; size = 4
_w$ = -28						; size = 4
_reqs$ = -24						; size = 4
_maxs$ = -20						; size = 4
_x$ = -16						; size = 2
_y$ = -12						; size = 2
_wx$ = -8						; size = 2
_wy$ = -4						; size = 2
_u$ = 8							; size = 4
?GetArrivalSpeed@@YAHPBVUnitClass@@@Z PROC		; GetArrivalSpeed

; 4765 : {

	push	ebp
	mov	ebp, esp
	sub	esp, 52					; 00000034H

; 4766 : 	WayPoint		w;
; 4767 : 	GridIndex		x,y,wx,wy;
; 4768 : 	float			d;
; 4769 : 	CampaignTime	t,c;
; 4770 : 	int				maxs,reqs;
; 4771 : 
; 4772 : 	if (u->Father())

	mov	eax, DWORD PTR _u$[ebp]
	mov	edx, DWORD PTR [eax]
	mov	ecx, DWORD PTR _u$[ebp]
	mov	eax, DWORD PTR [edx+504]
	call	eax
	test	eax, eax
	je	SHORT $LN6@GetArrival

; 4773 : 		maxs = u->GetFormationCruiseSpeed();

	mov	ecx, DWORD PTR _u$[ebp]
	call	?GetFormationCruiseSpeed@UnitClass@@QBEHXZ ; UnitClass::GetFormationCruiseSpeed
	mov	DWORD PTR _maxs$[ebp], eax

; 4774 : 	else

	jmp	SHORT $LN5@GetArrival
$LN6@GetArrival:

; 4775 : 		maxs = u->GetMaxSpeed();

	mov	ecx, DWORD PTR _u$[ebp]
	call	?GetMaxSpeed@UnitClass@@QBEHXZ		; UnitClass::GetMaxSpeed
	mov	DWORD PTR _maxs$[ebp], eax
$LN5@GetArrival:

; 4776 : 	w = u->GetCurrentUnitWP();

	mov	ecx, DWORD PTR _u$[ebp]
	call	?GetCurrentUnitWP@UnitClass@@QBEPAVWayPointClass@@XZ ; UnitClass::GetCurrentUnitWP
	mov	DWORD PTR _w$[ebp], eax

; 4777 : 	if (!w)

	cmp	DWORD PTR _w$[ebp], 0
	jne	SHORT $LN4@GetArrival

; 4778 : 		return maxs;

	mov	eax, DWORD PTR _maxs$[ebp]
	jmp	$LN7@GetArrival
$LN4@GetArrival:

; 4779 : 	u->GetLocation(&x,&y);

	lea	ecx, DWORD PTR _y$[ebp]
	push	ecx
	lea	edx, DWORD PTR _x$[ebp]
	push	edx
	mov	ecx, DWORD PTR _u$[ebp]
	call	?GetLocation@FalconEntity@@QBEXPAF0@Z	; FalconEntity::GetLocation

; 4780 : 	w->GetWPLocation(&wx,&wy);

	lea	eax, DWORD PTR _wy$[ebp]
	push	eax
	lea	ecx, DWORD PTR _wx$[ebp]
	push	ecx
	mov	ecx, DWORD PTR _w$[ebp]
	call	?GetWPLocation@WayPointClass@@QBEXPAF0@Z ; WayPointClass::GetWPLocation

; 4781 : 	d = Distance(x,y,wx,wy);

	movzx	edx, WORD PTR _wy$[ebp]
	push	edx
	movzx	eax, WORD PTR _wx$[ebp]
	push	eax
	movzx	ecx, WORD PTR _y$[ebp]
	push	ecx
	movzx	edx, WORD PTR _x$[ebp]
	push	edx
	call	?Distance@@YAMFFFF@Z			; Distance
	add	esp, 16					; 00000010H
	fstp	DWORD PTR _d$[ebp]

; 4782 : 	t = w->GetWPArrivalTime();

	mov	ecx, DWORD PTR _w$[ebp]
	call	?GetWPArrivalTime@WayPointClass@@QAEKXZ	; WayPointClass::GetWPArrivalTime
	mov	DWORD PTR _t$[ebp], eax

; 4783 : 	c = Camp_GetCurrentTime();

	call	?Camp_GetCurrentTime@@YAKXZ		; Camp_GetCurrentTime
	mov	DWORD PTR _c$[ebp], eax

; 4784 : 	if (t > c)

	mov	eax, DWORD PTR _t$[ebp]
	cmp	eax, DWORD PTR _c$[ebp]
	jbe	$LN1@GetArrival

; 4785 : 	{
; 4786 : 		reqs = FloatToInt32(d*CampaignHours/(t-c));

	movss	xmm0, DWORD PTR _d$[ebp]
	mulss	xmm0, DWORD PTR __real@4a5bba00
	mov	ecx, DWORD PTR _t$[ebp]
	sub	ecx, DWORD PTR _c$[ebp]
	mov	DWORD PTR tv174[ebp], ecx
	cvtsi2sd xmm1, DWORD PTR tv174[ebp]
	mov	edx, DWORD PTR tv174[ebp]
	shr	edx, 31					; 0000001fH
	addsd	xmm1, QWORD PTR __xmm@41f00000000000000000000000000000[edx*8]
	movsd	QWORD PTR tv177[ebp], xmm1
	cvtsd2ss xmm1, QWORD PTR tv177[ebp]
	divss	xmm0, xmm1
	push	ecx
	movss	DWORD PTR [esp], xmm0
	call	?FloatToInt32@@YAHM@Z			; FloatToInt32
	add	esp, 4
	mov	DWORD PTR _reqs$[ebp], eax

; 4787 : 		if (u->IsFlight() && reqs < maxs/2)

	mov	eax, DWORD PTR _u$[ebp]
	mov	edx, DWORD PTR [eax]
	mov	ecx, DWORD PTR _u$[ebp]
	mov	eax, DWORD PTR [edx+248]
	call	eax
	test	eax, eax
	je	SHORT $LN2@GetArrival
	mov	eax, DWORD PTR _maxs$[ebp]
	cdq
	sub	eax, edx
	sar	eax, 1
	cmp	DWORD PTR _reqs$[ebp], eax
	jge	SHORT $LN2@GetArrival

; 4788 : 			reqs = maxs/2;					// Minimal speed

	mov	eax, DWORD PTR _maxs$[ebp]
	cdq
	sub	eax, edx
	sar	eax, 1
	mov	DWORD PTR _reqs$[ebp], eax
$LN2@GetArrival:

; 4789 : 		if (reqs < maxs)

	mov	ecx, DWORD PTR _reqs$[ebp]
	cmp	ecx, DWORD PTR _maxs$[ebp]
	jge	SHORT $LN1@GetArrival

; 4790 : 			return reqs;

	mov	eax, DWORD PTR _reqs$[ebp]
	jmp	SHORT $LN7@GetArrival
$LN1@GetArrival:

; 4791 : 	}
; 4792 : 	return maxs;

	mov	eax, DWORD PTR _maxs$[ebp]
$LN7@GetArrival:

; 4793 : }

	mov	esp, ebp
	pop	ebp
	ret	0
?GetArrivalSpeed@@YAHPBVUnitClass@@@Z ENDP		; GetArrivalSpeed
_TEXT	ENDS
; Function compile flags: /Odtp
; File c:\users\zhitao li\documents\visual studio 2012\projects\freefalcon\sim\include\digi.h
;	COMDAT ?GetTaxiPoint@DigitalBrain@@QAEHXZ
_TEXT	SEGMENT
_this$ = -4						; size = 4
?GetTaxiPoint@DigitalBrain@@QAEHXZ PROC			; DigitalBrain::GetTaxiPoint, COMDAT
; _this$ = ecx

; 691  : 	int		GetTaxiPoint(void)								{return curTaxiPoint;}

	push	ebp
	mov	ebp, esp
	push	ecx
	mov	DWORD PTR _this$[ebp], ecx
	mov	eax, DWORD PTR _this$[ebp]
	mov	eax, DWORD PTR [eax+332]
	mov	esp, ebp
	pop	ebp
	ret	0
?GetTaxiPoint@DigitalBrain@@QAEHXZ ENDP			; DigitalBrain::GetTaxiPoint
_TEXT	ENDS
; Function compile flags: /Odtp
; File c:\users\zhitao li\documents\visual studio 2012\projects\freefalcon\falclib\include\playerop.h
;	COMDAT ?NameTagsOn@PlayerOptionsClass@@QAEHXZ
_TEXT	SEGMENT
_this$ = -8						; size = 4
tv68 = -4						; size = 4
?NameTagsOn@PlayerOptionsClass@@QAEHXZ PROC		; PlayerOptionsClass::NameTagsOn, COMDAT
; _this$ = ecx

; 155  : 	int NameTagsOn (void)									{ return (SimFlags & SIM_NAMETAGS) && TRUE; }

	push	ebp
	mov	ebp, esp
	sub	esp, 8
	mov	DWORD PTR _this$[ebp], ecx
	mov	eax, DWORD PTR _this$[ebp]
	mov	ecx, DWORD PTR [eax+52]
	and	ecx, 64					; 00000040H
	je	SHORT $LN3@NameTagsOn
	mov	edx, 1
	test	edx, edx
	je	SHORT $LN3@NameTagsOn
	mov	DWORD PTR tv68[ebp], 1
	jmp	SHORT $LN4@NameTagsOn
$LN3@NameTagsOn:
	mov	DWORD PTR tv68[ebp], 0
$LN4@NameTagsOn:
	mov	eax, DWORD PTR tv68[ebp]
	mov	esp, ebp
	pop	ebp
	ret	0
?NameTagsOn@PlayerOptionsClass@@QAEHXZ ENDP		; PlayerOptionsClass::NameTagsOn
_TEXT	ENDS
; Function compile flags: /Odtp
; File c:\users\zhitao li\documents\visual studio 2012\projects\freefalcon\sim\include\sms.h
;	COMDAT ?NumHardpoints@SMSBaseClass@@QAEHXZ
_TEXT	SEGMENT
_this$ = -4						; size = 4
?NumHardpoints@SMSBaseClass@@QAEHXZ PROC		; SMSBaseClass::NumHardpoints, COMDAT
; _this$ = ecx

; 87   : 	int NumHardpoints (void) {return numHardpoints;};

	push	ebp
	mov	ebp, esp
	push	ecx
	mov	DWORD PTR _this$[ebp], ecx
	mov	eax, DWORD PTR _this$[ebp]
	mov	eax, DWORD PTR [eax+40]
	mov	esp, ebp
	pop	ebp
	ret	0
?NumHardpoints@SMSBaseClass@@QAEHXZ ENDP		; SMSBaseClass::NumHardpoints
_TEXT	ENDS
; Function compile flags: /Odtp
; File c:\users\zhitao li\documents\visual studio 2012\projects\freefalcon\sim\include\aircrft.h
;	COMDAT ?DBrain@AircraftClass@@QAEPAVDigitalBrain@@XZ
_TEXT	SEGMENT
_this$ = -4						; size = 4
?DBrain@AircraftClass@@QAEPAVDigitalBrain@@XZ PROC	; AircraftClass::DBrain, COMDAT
; _this$ = ecx

; 624  : 	DigitalBrain *DBrain(void)			{return (DigitalBrain *)theBrain;}

	push	ebp
	mov	ebp, esp
	push	ecx
	mov	DWORD PTR _this$[ebp], ecx
	mov	eax, DWORD PTR _this$[ebp]
	mov	eax, DWORD PTR [eax+672]
	mov	esp, ebp
	pop	ebp
	ret	0
?DBrain@AircraftClass@@QAEPAVDigitalBrain@@XZ ENDP	; AircraftClass::DBrain
_TEXT	ENDS
; Function compile flags: /Odtp
; File c:\users\zhitao li\documents\visual studio 2012\projects\freefalcon\sim\include\simbase.h
;	COMDAT ?GetCampaignObject@SimBaseClass@@QAEPAVCampBaseClass@@XZ
_TEXT	SEGMENT
_this$ = -4						; size = 4
?GetCampaignObject@SimBaseClass@@QAEPAVCampBaseClass@@XZ PROC ; SimBaseClass::GetCampaignObject, COMDAT
; _this$ = ecx

; 212  : 	CampBaseClass *GetCampaignObject (void) { return campaignObject.get(); }

	push	ebp
	mov	ebp, esp
	push	ecx
	mov	DWORD PTR _this$[ebp], ecx
	mov	ecx, DWORD PTR _this$[ebp]
	add	ecx, 144				; 00000090H
	call	?get@?$VuBin@VCampBaseClass@@@@QBEPAVCampBaseClass@@XZ ; VuBin<CampBaseClass>::get
	mov	esp, ebp
	pop	ebp
	ret	0
?GetCampaignObject@SimBaseClass@@QAEPAVCampBaseClass@@XZ ENDP ; SimBaseClass::GetCampaignObject
_TEXT	ENDS
; Function compile flags: /Odtp
; File c:\users\zhitao li\documents\visual studio 2012\projects\freefalcon\sim\include\simbase.h
;	COMDAT ?IsAwake@SimBaseClass@@QBEHXZ
_TEXT	SEGMENT
_this$ = -4						; size = 4
?IsAwake@SimBaseClass@@QBEHXZ PROC			; SimBaseClass::IsAwake, COMDAT
; _this$ = ecx

; 177  : 	int IsAwake() const { return localFlags & OBJ_AWAKE; }

	push	ebp
	mov	ebp, esp
	push	ecx
	mov	DWORD PTR _this$[ebp], ecx
	mov	eax, DWORD PTR _this$[ebp]
	movzx	eax, BYTE PTR [eax+284]
	and	eax, 1
	mov	esp, ebp
	pop	ebp
	ret	0
?IsAwake@SimBaseClass@@QBEHXZ ENDP			; SimBaseClass::IsAwake
_TEXT	ENDS
; Function compile flags: /Odtp
; File c:\users\zhitao li\documents\visual studio 2012\projects\freefalcon\sim\include\simbase.h
;	COMDAT ?GetSlot@SimBaseClass@@QAEHXZ
_TEXT	SEGMENT
_this$ = -4						; size = 4
?GetSlot@SimBaseClass@@QAEHXZ PROC			; SimBaseClass::GetSlot, COMDAT
; _this$ = ecx

; 155  : 	int GetSlot () { return slotNumber;};

	push	ebp
	mov	ebp, esp
	push	ecx
	mov	DWORD PTR _this$[ebp], ecx
	mov	eax, DWORD PTR _this$[ebp]
	mov	eax, DWORD PTR [eax+236]
	mov	esp, ebp
	pop	ebp
	ret	0
?GetSlot@SimBaseClass@@QAEHXZ ENDP			; SimBaseClass::GetSlot
_TEXT	ENDS
; Function compile flags: /Odtp
; File c:\users\zhitao li\documents\visual studio 2012\projects\freefalcon\falclib\include\falcsess.h
;	COMDAT ?GetGame@FalconSessionEntity@@QAEPAVFalconGameEntity@@XZ
_TEXT	SEGMENT
_this$ = -4						; size = 4
?GetGame@FalconSessionEntity@@QAEPAVFalconGameEntity@@XZ PROC ; FalconSessionEntity::GetGame, COMDAT
; _this$ = ecx

; 154  : 	FalconGameEntity* GetGame (void)              { return (FalconGameEntity*)VuSessionEntity::Game(); }

	push	ebp
	mov	ebp, esp
	push	ecx
	mov	DWORD PTR _this$[ebp], ecx
	mov	ecx, DWORD PTR _this$[ebp]
	call	?Game@VuSessionEntity@@QAEPAVVuGameEntity@@XZ ; VuSessionEntity::Game
	mov	esp, ebp
	pop	ebp
	ret	0
?GetGame@FalconSessionEntity@@QAEPAVFalconGameEntity@@XZ ENDP ; FalconSessionEntity::GetGame
_TEXT	ENDS
; Function compile flags: /Odtp
; File c:\users\zhitao li\documents\visual studio 2012\projects\freefalcon\falclib\include\falcsess.h
;	COMDAT ?GetPlayerSquadron@FalconSessionEntity@@QBEPAVSquadronClass@@XZ
_TEXT	SEGMENT
_this$ = -4						; size = 4
?GetPlayerSquadron@FalconSessionEntity@@QBEPAVSquadronClass@@XZ PROC ; FalconSessionEntity::GetPlayerSquadron, COMDAT
; _this$ = ecx

; 140  : 	SquadronClass* GetPlayerSquadron(void)	const { return playerSquadronPtr.get(); }

	push	ebp
	mov	ebp, esp
	push	ecx
	mov	DWORD PTR _this$[ebp], ecx
	mov	ecx, DWORD PTR _this$[ebp]
	add	ecx, 476				; 000001dcH
	call	?get@?$VuBin@VSquadronClass@@@@QBEPAVSquadronClass@@XZ ; VuBin<SquadronClass>::get
	mov	esp, ebp
	pop	ebp
	ret	0
?GetPlayerSquadron@FalconSessionEntity@@QBEPAVSquadronClass@@XZ ENDP ; FalconSessionEntity::GetPlayerSquadron
_TEXT	ENDS
; Function compile flags: /Odtp
; File c:\users\zhitao li\documents\visual studio 2012\projects\freefalcon\falclib\include\falcsess.h
;	COMDAT ?GetPlayerFlight@FalconSessionEntity@@QBEPAVFlightClass@@XZ
_TEXT	SEGMENT
_this$ = -4						; size = 4
?GetPlayerFlight@FalconSessionEntity@@QBEPAVFlightClass@@XZ PROC ; FalconSessionEntity::GetPlayerFlight, COMDAT
; _this$ = ecx

; 139  : 	FlightClass* GetPlayerFlight(void) const      { return playerFlightPtr.get(); }

	push	ebp
	mov	ebp, esp
	push	ecx
	mov	DWORD PTR _this$[ebp], ecx
	mov	ecx, DWORD PTR _this$[ebp]
	add	ecx, 480				; 000001e0H
	call	?get@?$VuBin@VFlightClass@@@@QBEPAVFlightClass@@XZ ; VuBin<FlightClass>::get
	mov	esp, ebp
	pop	ebp
	ret	0
?GetPlayerFlight@FalconSessionEntity@@QBEPAVFlightClass@@XZ ENDP ; FalconSessionEntity::GetPlayerFlight
_TEXT	ENDS
; Function compile flags: /Odtp
; File c:\users\zhitao li\documents\visual studio 2012\projects\freefalcon\falclib\include\falcsess.h
;	COMDAT ?GetPlayerEntity@FalconSessionEntity@@QBEPAVFalconEntity@@XZ
_TEXT	SEGMENT
_this$ = -4						; size = 4
?GetPlayerEntity@FalconSessionEntity@@QBEPAVFalconEntity@@XZ PROC ; FalconSessionEntity::GetPlayerEntity, COMDAT
; _this$ = ecx

; 138  : 	FalconEntity* GetPlayerEntity(void) const     { return playerEntityPtr.get(); }

	push	ebp
	mov	ebp, esp
	push	ecx
	mov	DWORD PTR _this$[ebp], ecx
	mov	ecx, DWORD PTR _this$[ebp]
	add	ecx, 484				; 000001e4H
	call	?get@?$VuBin@VFalconEntity@@@@QBEPAVFalconEntity@@XZ ; VuBin<FalconEntity>::get
	mov	esp, ebp
	pop	ebp
	ret	0
?GetPlayerEntity@FalconSessionEntity@@QBEPAVFalconEntity@@XZ ENDP ; FalconSessionEntity::GetPlayerEntity
_TEXT	ENDS
; Function compile flags: /Odtp
; File c:\users\zhitao li\documents\visual studio 2012\projects\freefalcon\vu2\include\vu_templates.h
;	COMDAT ?get@?$VuBin@VFlightClass@@@@QBEPAVFlightClass@@XZ
_TEXT	SEGMENT
_this$ = -4						; size = 4
?get@?$VuBin@VFlightClass@@@@QBEPAVFlightClass@@XZ PROC	; VuBin<FlightClass>::get, COMDAT
; _this$ = ecx

; 55   : 	E *get() const{

	push	ebp
	mov	ebp, esp
	push	ecx
	mov	DWORD PTR _this$[ebp], ecx

; 56   : 		return e;

	mov	eax, DWORD PTR _this$[ebp]
	mov	eax, DWORD PTR [eax]

; 57   : 	}

	mov	esp, ebp
	pop	ebp
	ret	0
?get@?$VuBin@VFlightClass@@@@QBEPAVFlightClass@@XZ ENDP	; VuBin<FlightClass>::get
_TEXT	ENDS
; Function compile flags: /Odtp
; File c:\users\zhitao li\documents\visual studio 2012\projects\freefalcon\vu2\include\vu_templates.h
;	COMDAT ?get@?$VuBin@VSquadronClass@@@@QBEPAVSquadronClass@@XZ
_TEXT	SEGMENT
_this$ = -4						; size = 4
?get@?$VuBin@VSquadronClass@@@@QBEPAVSquadronClass@@XZ PROC ; VuBin<SquadronClass>::get, COMDAT
; _this$ = ecx

; 55   : 	E *get() const{

	push	ebp
	mov	ebp, esp
	push	ecx
	mov	DWORD PTR _this$[ebp], ecx

; 56   : 		return e;

	mov	eax, DWORD PTR _this$[ebp]
	mov	eax, DWORD PTR [eax]

; 57   : 	}

	mov	esp, ebp
	pop	ebp
	ret	0
?get@?$VuBin@VSquadronClass@@@@QBEPAVSquadronClass@@XZ ENDP ; VuBin<SquadronClass>::get
_TEXT	ENDS
; Function compile flags: /Odtp
;	COMDAT ??_G_System_error_category@std@@UAEPAXI@Z
_TEXT	SEGMENT
_this$ = -4						; size = 4
___flags$ = 8						; size = 4
??_G_System_error_category@std@@UAEPAXI@Z PROC		; std::_System_error_category::`scalar deleting destructor', COMDAT
; _this$ = ecx
	push	ebp
	mov	ebp, esp
	push	ecx
	mov	DWORD PTR _this$[ebp], ecx
	mov	ecx, DWORD PTR _this$[ebp]
	call	??1_System_error_category@std@@UAE@XZ
	mov	eax, DWORD PTR ___flags$[ebp]
	and	eax, 1
	je	SHORT $LN1@scalar
	mov	ecx, DWORD PTR _this$[ebp]
	push	ecx
	call	??3@YAXPAX@Z				; operator delete
	add	esp, 4
$LN1@scalar:
	mov	eax, DWORD PTR _this$[ebp]
	mov	esp, ebp
	pop	ebp
	ret	4
??_G_System_error_category@std@@UAEPAXI@Z ENDP		; std::_System_error_category::`scalar deleting destructor'
_TEXT	ENDS
; Function compile flags: /Odtp
;	COMDAT ??1_System_error_category@std@@UAE@XZ
_TEXT	SEGMENT
_this$ = -4						; size = 4
??1_System_error_category@std@@UAE@XZ PROC		; std::_System_error_category::~_System_error_category, COMDAT
; _this$ = ecx
	push	ebp
	mov	ebp, esp
	push	ecx
	mov	DWORD PTR _this$[ebp], ecx
	mov	ecx, DWORD PTR _this$[ebp]
	call	??1_Generic_error_category@std@@UAE@XZ
	mov	esp, ebp
	pop	ebp
	ret	0
??1_System_error_category@std@@UAE@XZ ENDP		; std::_System_error_category::~_System_error_category
_TEXT	ENDS
; Function compile flags: /Odtp
; File c:\program files (x86)\microsoft visual studio 11.0\vc\include\system_error
;	COMDAT ?default_error_condition@_System_error_category@std@@UBE?AVerror_condition@2@H@Z
_TEXT	SEGMENT
_this$ = -4						; size = 4
___$ReturnUdt$ = 8					; size = 4
__Errval$ = 12						; size = 4
?default_error_condition@_System_error_category@std@@UBE?AVerror_condition@2@H@Z PROC ; std::_System_error_category::default_error_condition, COMDAT
; _this$ = ecx

; 641  : 		{	// make error_condition for error code (generic if possible)

	push	ebp
	mov	ebp, esp
	push	ecx
	mov	DWORD PTR _this$[ebp], ecx

; 642  : 		if (_Syserror_map(_Errval))

	mov	eax, DWORD PTR __Errval$[ebp]
	push	eax
	call	?_Syserror_map@std@@YAPBDH@Z		; std::_Syserror_map
	add	esp, 4
	test	eax, eax
	je	SHORT $LN2@default_er

; 643  : 			return (error_condition(_Errval, generic_category()));

	call	?generic_category@std@@YAABVerror_category@1@XZ ; std::generic_category
	push	eax
	mov	ecx, DWORD PTR __Errval$[ebp]
	push	ecx
	mov	ecx, DWORD PTR ___$ReturnUdt$[ebp]
	call	??0error_condition@std@@QAE@HABVerror_category@1@@Z ; std::error_condition::error_condition
	mov	eax, DWORD PTR ___$ReturnUdt$[ebp]
	jmp	SHORT $LN3@default_er

; 644  : 		else

	jmp	SHORT $LN3@default_er
$LN2@default_er:

; 645  : 			return (error_condition(_Errval, system_category()));

	call	?system_category@std@@YAABVerror_category@1@XZ ; std::system_category
	push	eax
	mov	edx, DWORD PTR __Errval$[ebp]
	push	edx
	mov	ecx, DWORD PTR ___$ReturnUdt$[ebp]
	call	??0error_condition@std@@QAE@HABVerror_category@1@@Z ; std::error_condition::error_condition
	mov	eax, DWORD PTR ___$ReturnUdt$[ebp]
$LN3@default_er:

; 646  : 		}

	mov	esp, ebp
	pop	ebp
	ret	8
?default_error_condition@_System_error_category@std@@UBE?AVerror_condition@2@H@Z ENDP ; std::_System_error_category::default_error_condition
_TEXT	ENDS
; Function compile flags: /Odtp
; File c:\program files (x86)\microsoft visual studio 11.0\vc\include\system_error
;	COMDAT ?message@_System_error_category@std@@UBE?AV?$basic_string@DU?$char_traits@D@std@@V?$allocator@D@2@@2@H@Z
_TEXT	SEGMENT
_this$ = -16						; size = 4
$T1 = -12						; size = 4
tv69 = -8						; size = 4
__Name$ = -4						; size = 4
___$ReturnUdt$ = 8					; size = 4
__Errcode$ = 12						; size = 4
?message@_System_error_category@std@@UBE?AV?$basic_string@DU?$char_traits@D@std@@V?$allocator@D@2@@2@H@Z PROC ; std::_System_error_category::message, COMDAT
; _this$ = ecx

; 634  : 		{	// convert to name of error

	push	ebp
	mov	ebp, esp
	sub	esp, 16					; 00000010H
	mov	DWORD PTR _this$[ebp], ecx
	mov	DWORD PTR $T1[ebp], 0

; 635  : 		const char *_Name = _Winerror_map(_Errcode);

	mov	eax, DWORD PTR __Errcode$[ebp]
	push	eax
	call	?_Winerror_map@std@@YAPBDH@Z		; std::_Winerror_map
	add	esp, 4
	mov	DWORD PTR __Name$[ebp], eax

; 636  : 		return (string(_Name != 0 ? _Name : "unknown error"));

	cmp	DWORD PTR __Name$[ebp], 0
	je	SHORT $LN3@message
	mov	ecx, DWORD PTR __Name$[ebp]
	mov	DWORD PTR tv69[ebp], ecx
	jmp	SHORT $LN4@message
$LN3@message:
	mov	DWORD PTR tv69[ebp], OFFSET ??_C@_0O@BFJCFAAK@unknown?5error?$AA@
$LN4@message:
	mov	edx, DWORD PTR tv69[ebp]
	push	edx
	mov	ecx, DWORD PTR ___$ReturnUdt$[ebp]
	call	??0?$basic_string@DU?$char_traits@D@std@@V?$allocator@D@2@@std@@QAE@PBD@Z ; std::basic_string<char,std::char_traits<char>,std::allocator<char> >::basic_string<char,std::char_traits<char>,std::allocator<char> >
	mov	eax, DWORD PTR $T1[ebp]
	or	eax, 1
	mov	DWORD PTR $T1[ebp], eax
	mov	eax, DWORD PTR ___$ReturnUdt$[ebp]

; 637  : 		}

	mov	esp, ebp
	pop	ebp
	ret	8
?message@_System_error_category@std@@UBE?AV?$basic_string@DU?$char_traits@D@std@@V?$allocator@D@2@@2@H@Z ENDP ; std::_System_error_category::message
_TEXT	ENDS
; Function compile flags: /Odtp
; File c:\program files (x86)\microsoft visual studio 11.0\vc\include\system_error
;	COMDAT ?name@_System_error_category@std@@UBEPBDXZ
_TEXT	SEGMENT
_this$ = -4						; size = 4
?name@_System_error_category@std@@UBEPBDXZ PROC		; std::_System_error_category::name, COMDAT
; _this$ = ecx

; 629  : 		{	// get name of category

	push	ebp
	mov	ebp, esp
	push	ecx
	mov	DWORD PTR _this$[ebp], ecx

; 630  : 		return ("system");

	mov	eax, OFFSET ??_C@_06FHFOAHML@system?$AA@

; 631  : 		}

	mov	esp, ebp
	pop	ebp
	ret	0
?name@_System_error_category@std@@UBEPBDXZ ENDP		; std::_System_error_category::name
_TEXT	ENDS
; Function compile flags: /Odtp
; File c:\program files (x86)\microsoft visual studio 11.0\vc\include\system_error
;	COMDAT ??0_System_error_category@std@@QAE@XZ
_TEXT	SEGMENT
_this$ = -4						; size = 4
??0_System_error_category@std@@QAE@XZ PROC		; std::_System_error_category::_System_error_category, COMDAT
; _this$ = ecx

; 624  : 	_System_error_category()

	push	ebp
	mov	ebp, esp
	push	ecx
	mov	DWORD PTR _this$[ebp], ecx
	mov	ecx, DWORD PTR _this$[ebp]
	call	??0_Generic_error_category@std@@QAE@XZ	; std::_Generic_error_category::_Generic_error_category
	mov	eax, DWORD PTR _this$[ebp]
	mov	DWORD PTR [eax], OFFSET ??_7_System_error_category@std@@6B@

; 625  : 		{	// default constructor
; 626  : 		}

	mov	eax, DWORD PTR _this$[ebp]
	mov	esp, ebp
	pop	ebp
	ret	0
??0_System_error_category@std@@QAE@XZ ENDP		; std::_System_error_category::_System_error_category
_TEXT	ENDS
; Function compile flags: /Odtp
;	COMDAT ??_G_Iostream_error_category@std@@UAEPAXI@Z
_TEXT	SEGMENT
_this$ = -4						; size = 4
___flags$ = 8						; size = 4
??_G_Iostream_error_category@std@@UAEPAXI@Z PROC	; std::_Iostream_error_category::`scalar deleting destructor', COMDAT
; _this$ = ecx
	push	ebp
	mov	ebp, esp
	push	ecx
	mov	DWORD PTR _this$[ebp], ecx
	mov	ecx, DWORD PTR _this$[ebp]
	call	??1_Iostream_error_category@std@@UAE@XZ
	mov	eax, DWORD PTR ___flags$[ebp]
	and	eax, 1
	je	SHORT $LN1@scalar
	mov	ecx, DWORD PTR _this$[ebp]
	push	ecx
	call	??3@YAXPAX@Z				; operator delete
	add	esp, 4
$LN1@scalar:
	mov	eax, DWORD PTR _this$[ebp]
	mov	esp, ebp
	pop	ebp
	ret	4
??_G_Iostream_error_category@std@@UAEPAXI@Z ENDP	; std::_Iostream_error_category::`scalar deleting destructor'
_TEXT	ENDS
; Function compile flags: /Odtp
;	COMDAT ??1_Iostream_error_category@std@@UAE@XZ
_TEXT	SEGMENT
_this$ = -4						; size = 4
??1_Iostream_error_category@std@@UAE@XZ PROC		; std::_Iostream_error_category::~_Iostream_error_category, COMDAT
; _this$ = ecx
	push	ebp
	mov	ebp, esp
	push	ecx
	mov	DWORD PTR _this$[ebp], ecx
	mov	ecx, DWORD PTR _this$[ebp]
	call	??1_Generic_error_category@std@@UAE@XZ
	mov	esp, ebp
	pop	ebp
	ret	0
??1_Iostream_error_category@std@@UAE@XZ ENDP		; std::_Iostream_error_category::~_Iostream_error_category
_TEXT	ENDS
; Function compile flags: /Odtp
; File c:\program files (x86)\microsoft visual studio 11.0\vc\include\system_error
;	COMDAT ?message@_Iostream_error_category@std@@UBE?AV?$basic_string@DU?$char_traits@D@std@@V?$allocator@D@2@@2@H@Z
_TEXT	SEGMENT
_this$ = -8						; size = 4
$T1 = -4						; size = 4
___$ReturnUdt$ = 8					; size = 4
__Errcode$ = 12						; size = 4
?message@_Iostream_error_category@std@@UBE?AV?$basic_string@DU?$char_traits@D@std@@V?$allocator@D@2@@2@H@Z PROC ; std::_Iostream_error_category::message, COMDAT
; _this$ = ecx

; 611  : 		{	// convert to name of error

	push	ebp
	mov	ebp, esp
	sub	esp, 8
	mov	DWORD PTR _this$[ebp], ecx
	mov	DWORD PTR $T1[ebp], 0

; 612  : 		if (_Errcode == (int)io_errc::stream)

	cmp	DWORD PTR __Errcode$[ebp], 1
	jne	SHORT $LN2@message

; 613  : 			return ("iostream stream error");

	push	OFFSET ??_C@_0BG@PADBLCHM@iostream?5stream?5error?$AA@
	mov	ecx, DWORD PTR ___$ReturnUdt$[ebp]
	call	??0?$basic_string@DU?$char_traits@D@std@@V?$allocator@D@2@@std@@QAE@PBD@Z ; std::basic_string<char,std::char_traits<char>,std::allocator<char> >::basic_string<char,std::char_traits<char>,std::allocator<char> >
	mov	eax, DWORD PTR $T1[ebp]
	or	eax, 1
	mov	DWORD PTR $T1[ebp], eax
	mov	eax, DWORD PTR ___$ReturnUdt$[ebp]
	jmp	SHORT $LN3@message

; 614  : 		else

	jmp	SHORT $LN3@message
$LN2@message:

; 615  : 			return (_Generic_error_category::message(_Errcode));

	mov	ecx, DWORD PTR __Errcode$[ebp]
	push	ecx
	mov	edx, DWORD PTR ___$ReturnUdt$[ebp]
	push	edx
	mov	ecx, DWORD PTR _this$[ebp]
	call	?message@_Generic_error_category@std@@UBE?AV?$basic_string@DU?$char_traits@D@std@@V?$allocator@D@2@@2@H@Z ; std::_Generic_error_category::message
	mov	eax, DWORD PTR $T1[ebp]
	or	eax, 1
	mov	DWORD PTR $T1[ebp], eax
	mov	eax, DWORD PTR ___$ReturnUdt$[ebp]
$LN3@message:

; 616  : 		}

	mov	esp, ebp
	pop	ebp
	ret	8
?message@_Iostream_error_category@std@@UBE?AV?$basic_string@DU?$char_traits@D@std@@V?$allocator@D@2@@2@H@Z ENDP ; std::_Iostream_error_category::message
_TEXT	ENDS
; Function compile flags: /Odtp
; File c:\program files (x86)\microsoft visual studio 11.0\vc\include\system_error
;	COMDAT ?name@_Iostream_error_category@std@@UBEPBDXZ
_TEXT	SEGMENT
_this$ = -4						; size = 4
?name@_Iostream_error_category@std@@UBEPBDXZ PROC	; std::_Iostream_error_category::name, COMDAT
; _this$ = ecx

; 606  : 		{	// get name of category

	push	ebp
	mov	ebp, esp
	push	ecx
	mov	DWORD PTR _this$[ebp], ecx

; 607  : 		return ("iostream");

	mov	eax, OFFSET ??_C@_08LLGCOLLL@iostream?$AA@

; 608  : 		}

	mov	esp, ebp
	pop	ebp
	ret	0
?name@_Iostream_error_category@std@@UBEPBDXZ ENDP	; std::_Iostream_error_category::name
_TEXT	ENDS
; Function compile flags: /Odtp
; File c:\program files (x86)\microsoft visual studio 11.0\vc\include\system_error
;	COMDAT ??0_Iostream_error_category@std@@QAE@XZ
_TEXT	SEGMENT
_this$ = -4						; size = 4
??0_Iostream_error_category@std@@QAE@XZ PROC		; std::_Iostream_error_category::_Iostream_error_category, COMDAT
; _this$ = ecx

; 601  : 	_Iostream_error_category()

	push	ebp
	mov	ebp, esp
	push	ecx
	mov	DWORD PTR _this$[ebp], ecx
	mov	ecx, DWORD PTR _this$[ebp]
	call	??0_Generic_error_category@std@@QAE@XZ	; std::_Generic_error_category::_Generic_error_category
	mov	eax, DWORD PTR _this$[ebp]
	mov	DWORD PTR [eax], OFFSET ??_7_Iostream_error_category@std@@6B@

; 602  : 		{	// default constructor
; 603  : 		}

	mov	eax, DWORD PTR _this$[ebp]
	mov	esp, ebp
	pop	ebp
	ret	0
??0_Iostream_error_category@std@@QAE@XZ ENDP		; std::_Iostream_error_category::_Iostream_error_category
_TEXT	ENDS
; Function compile flags: /Odtp
;	COMDAT ??_G_Generic_error_category@std@@UAEPAXI@Z
_TEXT	SEGMENT
_this$ = -4						; size = 4
___flags$ = 8						; size = 4
??_G_Generic_error_category@std@@UAEPAXI@Z PROC		; std::_Generic_error_category::`scalar deleting destructor', COMDAT
; _this$ = ecx
	push	ebp
	mov	ebp, esp
	push	ecx
	mov	DWORD PTR _this$[ebp], ecx
	mov	ecx, DWORD PTR _this$[ebp]
	call	??1_Generic_error_category@std@@UAE@XZ
	mov	eax, DWORD PTR ___flags$[ebp]
	and	eax, 1
	je	SHORT $LN1@scalar
	mov	ecx, DWORD PTR _this$[ebp]
	push	ecx
	call	??3@YAXPAX@Z				; operator delete
	add	esp, 4
$LN1@scalar:
	mov	eax, DWORD PTR _this$[ebp]
	mov	esp, ebp
	pop	ebp
	ret	4
??_G_Generic_error_category@std@@UAEPAXI@Z ENDP		; std::_Generic_error_category::`scalar deleting destructor'
_TEXT	ENDS
; Function compile flags: /Odtp
;	COMDAT ??1_Generic_error_category@std@@UAE@XZ
_TEXT	SEGMENT
_this$ = -4						; size = 4
??1_Generic_error_category@std@@UAE@XZ PROC		; std::_Generic_error_category::~_Generic_error_category, COMDAT
; _this$ = ecx
	push	ebp
	mov	ebp, esp
	push	ecx
	mov	DWORD PTR _this$[ebp], ecx
	mov	ecx, DWORD PTR _this$[ebp]
	call	??1error_category@std@@UAE@XZ		; std::error_category::~error_category
	mov	esp, ebp
	pop	ebp
	ret	0
??1_Generic_error_category@std@@UAE@XZ ENDP		; std::_Generic_error_category::~_Generic_error_category
_TEXT	ENDS
; Function compile flags: /Odtp
; File c:\program files (x86)\microsoft visual studio 11.0\vc\include\system_error
;	COMDAT ?message@_Generic_error_category@std@@UBE?AV?$basic_string@DU?$char_traits@D@std@@V?$allocator@D@2@@2@H@Z
_TEXT	SEGMENT
_this$ = -16						; size = 4
$T1 = -12						; size = 4
tv69 = -8						; size = 4
__Name$ = -4						; size = 4
___$ReturnUdt$ = 8					; size = 4
__Errcode$ = 12						; size = 4
?message@_Generic_error_category@std@@UBE?AV?$basic_string@DU?$char_traits@D@std@@V?$allocator@D@2@@2@H@Z PROC ; std::_Generic_error_category::message, COMDAT
; _this$ = ecx

; 590  : 		{	// convert to name of error

	push	ebp
	mov	ebp, esp
	sub	esp, 16					; 00000010H
	mov	DWORD PTR _this$[ebp], ecx
	mov	DWORD PTR $T1[ebp], 0

; 591  : 		const char *_Name = _Syserror_map(_Errcode);

	mov	eax, DWORD PTR __Errcode$[ebp]
	push	eax
	call	?_Syserror_map@std@@YAPBDH@Z		; std::_Syserror_map
	add	esp, 4
	mov	DWORD PTR __Name$[ebp], eax

; 592  : 		return (string(_Name != 0 ? _Name : "unknown error"));

	cmp	DWORD PTR __Name$[ebp], 0
	je	SHORT $LN3@message
	mov	ecx, DWORD PTR __Name$[ebp]
	mov	DWORD PTR tv69[ebp], ecx
	jmp	SHORT $LN4@message
$LN3@message:
	mov	DWORD PTR tv69[ebp], OFFSET ??_C@_0O@BFJCFAAK@unknown?5error?$AA@
$LN4@message:
	mov	edx, DWORD PTR tv69[ebp]
	push	edx
	mov	ecx, DWORD PTR ___$ReturnUdt$[ebp]
	call	??0?$basic_string@DU?$char_traits@D@std@@V?$allocator@D@2@@std@@QAE@PBD@Z ; std::basic_string<char,std::char_traits<char>,std::allocator<char> >::basic_string<char,std::char_traits<char>,std::allocator<char> >
	mov	eax, DWORD PTR $T1[ebp]
	or	eax, 1
	mov	DWORD PTR $T1[ebp], eax
	mov	eax, DWORD PTR ___$ReturnUdt$[ebp]

; 593  : 		}

	mov	esp, ebp
	pop	ebp
	ret	8
?message@_Generic_error_category@std@@UBE?AV?$basic_string@DU?$char_traits@D@std@@V?$allocator@D@2@@2@H@Z ENDP ; std::_Generic_error_category::message
_TEXT	ENDS
; Function compile flags: /Odtp
; File c:\program files (x86)\microsoft visual studio 11.0\vc\include\system_error
;	COMDAT ?name@_Generic_error_category@std@@UBEPBDXZ
_TEXT	SEGMENT
_this$ = -4						; size = 4
?name@_Generic_error_category@std@@UBEPBDXZ PROC	; std::_Generic_error_category::name, COMDAT
; _this$ = ecx

; 585  : 		{	// get name of category

	push	ebp
	mov	ebp, esp
	push	ecx
	mov	DWORD PTR _this$[ebp], ecx

; 586  : 		return ("generic");

	mov	eax, OFFSET ??_C@_07DCLBNMLN@generic?$AA@

; 587  : 		}

	mov	esp, ebp
	pop	ebp
	ret	0
?name@_Generic_error_category@std@@UBEPBDXZ ENDP	; std::_Generic_error_category::name
_TEXT	ENDS
; Function compile flags: /Odtp
; File c:\program files (x86)\microsoft visual studio 11.0\vc\include\system_error
;	COMDAT ??0_Generic_error_category@std@@QAE@XZ
_TEXT	SEGMENT
_this$ = -4						; size = 4
??0_Generic_error_category@std@@QAE@XZ PROC		; std::_Generic_error_category::_Generic_error_category, COMDAT
; _this$ = ecx

; 580  : 	_Generic_error_category()

	push	ebp
	mov	ebp, esp
	push	ecx
	mov	DWORD PTR _this$[ebp], ecx
	mov	ecx, DWORD PTR _this$[ebp]
	call	??0error_category@std@@QAE@XZ		; std::error_category::error_category
	mov	eax, DWORD PTR _this$[ebp]
	mov	DWORD PTR [eax], OFFSET ??_7_Generic_error_category@std@@6B@

; 581  : 		{	// default constructor
; 582  : 		}

	mov	eax, DWORD PTR _this$[ebp]
	mov	esp, ebp
	pop	ebp
	ret	0
??0_Generic_error_category@std@@QAE@XZ ENDP		; std::_Generic_error_category::_Generic_error_category
_TEXT	ENDS
; Function compile flags: /Odtp
; File c:\program files (x86)\microsoft visual studio 11.0\vc\include\system_error
;	COMDAT ??8error_condition@std@@QBE_NABV01@@Z
_TEXT	SEGMENT
tv78 = -8						; size = 4
_this$ = -4						; size = 4
__Right$ = 8						; size = 4
??8error_condition@std@@QBE_NABV01@@Z PROC		; std::error_condition::operator==, COMDAT
; _this$ = ecx

; 376  : 		{	// test if *this == _Right

	push	ebp
	mov	ebp, esp
	sub	esp, 8
	push	esi
	mov	DWORD PTR _this$[ebp], ecx

; 377  : 		return (category() == _Right.category()
; 378  : 			&& value() == _Right.value());

	mov	ecx, DWORD PTR __Right$[ebp]
	call	?category@error_condition@std@@QBEABVerror_category@2@XZ ; std::error_condition::category
	push	eax
	mov	ecx, DWORD PTR _this$[ebp]
	call	?category@error_condition@std@@QBEABVerror_category@2@XZ ; std::error_condition::category
	mov	ecx, eax
	call	??8error_category@std@@QBE_NABV01@@Z	; std::error_category::operator==
	movzx	eax, al
	test	eax, eax
	je	SHORT $LN3@operator
	mov	ecx, DWORD PTR _this$[ebp]
	call	?value@error_condition@std@@QBEHXZ	; std::error_condition::value
	mov	esi, eax
	mov	ecx, DWORD PTR __Right$[ebp]
	call	?value@error_condition@std@@QBEHXZ	; std::error_condition::value
	cmp	esi, eax
	jne	SHORT $LN3@operator
	mov	DWORD PTR tv78[ebp], 1
	jmp	SHORT $LN4@operator
$LN3@operator:
	mov	DWORD PTR tv78[ebp], 0
$LN4@operator:
	mov	al, BYTE PTR tv78[ebp]

; 379  : 		}

	pop	esi
	mov	esp, ebp
	pop	ebp
	ret	4
??8error_condition@std@@QBE_NABV01@@Z ENDP		; std::error_condition::operator==
_TEXT	ENDS
; Function compile flags: /Odtp
; File c:\program files (x86)\microsoft visual studio 11.0\vc\include\system_error
;	COMDAT ?category@error_condition@std@@QBEABVerror_category@2@XZ
_TEXT	SEGMENT
_this$ = -4						; size = 4
?category@error_condition@std@@QBEABVerror_category@2@XZ PROC ; std::error_condition::category, COMDAT
; _this$ = ecx

; 354  : 		{	// get category

	push	ebp
	mov	ebp, esp
	push	ecx
	mov	DWORD PTR _this$[ebp], ecx

; 355  : 		return (*_Mycat);

	mov	eax, DWORD PTR _this$[ebp]
	mov	eax, DWORD PTR [eax+4]

; 356  : 		}

	mov	esp, ebp
	pop	ebp
	ret	0
?category@error_condition@std@@QBEABVerror_category@2@XZ ENDP ; std::error_condition::category
_TEXT	ENDS
; Function compile flags: /Odtp
; File c:\program files (x86)\microsoft visual studio 11.0\vc\include\system_error
;	COMDAT ?value@error_condition@std@@QBEHXZ
_TEXT	SEGMENT
_this$ = -4						; size = 4
?value@error_condition@std@@QBEHXZ PROC			; std::error_condition::value, COMDAT
; _this$ = ecx

; 349  : 		{	// get error code

	push	ebp
	mov	ebp, esp
	push	ecx
	mov	DWORD PTR _this$[ebp], ecx

; 350  : 		return (_Myval);

	mov	eax, DWORD PTR _this$[ebp]
	mov	eax, DWORD PTR [eax]

; 351  : 		}

	mov	esp, ebp
	pop	ebp
	ret	0
?value@error_condition@std@@QBEHXZ ENDP			; std::error_condition::value
_TEXT	ENDS
; Function compile flags: /Odtp
; File c:\program files (x86)\microsoft visual studio 11.0\vc\include\system_error
;	COMDAT ??0error_condition@std@@QAE@HABVerror_category@1@@Z
_TEXT	SEGMENT
_this$ = -4						; size = 4
__Val$ = 8						; size = 4
__Cat$ = 12						; size = 4
??0error_condition@std@@QAE@HABVerror_category@1@@Z PROC ; std::error_condition::error_condition, COMDAT
; _this$ = ecx

; 316  : 		{	// construct from error code and category

	push	ebp
	mov	ebp, esp
	push	ecx
	mov	DWORD PTR _this$[ebp], ecx
	mov	eax, DWORD PTR _this$[ebp]
	mov	ecx, DWORD PTR __Val$[ebp]
	mov	DWORD PTR [eax], ecx
	mov	edx, DWORD PTR _this$[ebp]
	mov	eax, DWORD PTR __Cat$[ebp]
	mov	DWORD PTR [edx+4], eax

; 317  : 		}

	mov	eax, DWORD PTR _this$[ebp]
	mov	esp, ebp
	pop	ebp
	ret	8
??0error_condition@std@@QAE@HABVerror_category@1@@Z ENDP ; std::error_condition::error_condition
_TEXT	ENDS
; Function compile flags: /Odtp
; File c:\program files (x86)\microsoft visual studio 11.0\vc\include\system_error
;	COMDAT ?category@error_code@std@@QBEABVerror_category@2@XZ
_TEXT	SEGMENT
_this$ = -4						; size = 4
?category@error_code@std@@QBEABVerror_category@2@XZ PROC ; std::error_code::category, COMDAT
; _this$ = ecx

; 256  : 		{	// get category

	push	ebp
	mov	ebp, esp
	push	ecx
	mov	DWORD PTR _this$[ebp], ecx

; 257  : 		return (*_Mycat);

	mov	eax, DWORD PTR _this$[ebp]
	mov	eax, DWORD PTR [eax+4]

; 258  : 		}

	mov	esp, ebp
	pop	ebp
	ret	0
?category@error_code@std@@QBEABVerror_category@2@XZ ENDP ; std::error_code::category
_TEXT	ENDS
; Function compile flags: /Odtp
; File c:\program files (x86)\microsoft visual studio 11.0\vc\include\system_error
;	COMDAT ?value@error_code@std@@QBEHXZ
_TEXT	SEGMENT
_this$ = -4						; size = 4
?value@error_code@std@@QBEHXZ PROC			; std::error_code::value, COMDAT
; _this$ = ecx

; 251  : 		{	// get error code

	push	ebp
	mov	ebp, esp
	push	ecx
	mov	DWORD PTR _this$[ebp], ecx

; 252  : 		return (_Myval);

	mov	eax, DWORD PTR _this$[ebp]
	mov	eax, DWORD PTR [eax]

; 253  : 		}

	mov	esp, ebp
	pop	ebp
	ret	0
?value@error_code@std@@QBEHXZ ENDP			; std::error_code::value
_TEXT	ENDS
; Function compile flags: /Odtp
;	COMDAT ??_Gerror_category@std@@UAEPAXI@Z
_TEXT	SEGMENT
_this$ = -4						; size = 4
___flags$ = 8						; size = 4
??_Gerror_category@std@@UAEPAXI@Z PROC			; std::error_category::`scalar deleting destructor', COMDAT
; _this$ = ecx
	push	ebp
	mov	ebp, esp
	push	ecx
	mov	DWORD PTR _this$[ebp], ecx
	mov	ecx, DWORD PTR _this$[ebp]
	call	??1error_category@std@@UAE@XZ		; std::error_category::~error_category
	mov	eax, DWORD PTR ___flags$[ebp]
	and	eax, 1
	je	SHORT $LN1@scalar
	mov	ecx, DWORD PTR _this$[ebp]
	push	ecx
	call	??3@YAXPAX@Z				; operator delete
	add	esp, 4
$LN1@scalar:
	mov	eax, DWORD PTR _this$[ebp]
	mov	esp, ebp
	pop	ebp
	ret	4
??_Gerror_category@std@@UAEPAXI@Z ENDP			; std::error_category::`scalar deleting destructor'
_TEXT	ENDS
; Function compile flags: /Odtp
; File c:\program files (x86)\microsoft visual studio 11.0\vc\include\system_error
;	COMDAT ??8error_category@std@@QBE_NABV01@@Z
_TEXT	SEGMENT
_this$ = -8						; size = 4
tv65 = -4						; size = 4
__Right$ = 8						; size = 4
??8error_category@std@@QBE_NABV01@@Z PROC		; std::error_category::operator==, COMDAT
; _this$ = ecx

; 184  : 		{	// compare categories for equality

	push	ebp
	mov	ebp, esp
	sub	esp, 8
	mov	DWORD PTR _this$[ebp], ecx

; 185  : 		return (this == &_Right);

	mov	eax, DWORD PTR _this$[ebp]
	cmp	eax, DWORD PTR __Right$[ebp]
	jne	SHORT $LN3@operator
	mov	DWORD PTR tv65[ebp], 1
	jmp	SHORT $LN4@operator
$LN3@operator:
	mov	DWORD PTR tv65[ebp], 0
$LN4@operator:
	mov	al, BYTE PTR tv65[ebp]

; 186  : 		}

	mov	esp, ebp
	pop	ebp
	ret	4
??8error_category@std@@QBE_NABV01@@Z ENDP		; std::error_category::operator==
_TEXT	ENDS
; Function compile flags: /Odtp
; File c:\program files (x86)\microsoft visual studio 11.0\vc\include\system_error
;	COMDAT ?equivalent@error_category@std@@UBE_NABVerror_code@2@H@Z
_TEXT	SEGMENT
_this$ = -8						; size = 4
tv74 = -4						; size = 4
__Code$ = 8						; size = 4
__Errval$ = 12						; size = 4
?equivalent@error_category@std@@UBE_NABVerror_code@2@H@Z PROC ; std::error_category::equivalent, COMDAT
; _this$ = ecx

; 415  : 	{	// test if conditions same for this category

	push	ebp
	mov	ebp, esp
	sub	esp, 8
	mov	DWORD PTR _this$[ebp], ecx

; 416  : 	return (*this == _Code.category() && _Code.value() == _Errval);

	mov	ecx, DWORD PTR __Code$[ebp]
	call	?category@error_code@std@@QBEABVerror_category@2@XZ ; std::error_code::category
	push	eax
	mov	ecx, DWORD PTR _this$[ebp]
	call	??8error_category@std@@QBE_NABV01@@Z	; std::error_category::operator==
	movzx	eax, al
	test	eax, eax
	je	SHORT $LN3@equivalent
	mov	ecx, DWORD PTR __Code$[ebp]
	call	?value@error_code@std@@QBEHXZ		; std::error_code::value
	cmp	eax, DWORD PTR __Errval$[ebp]
	jne	SHORT $LN3@equivalent
	mov	DWORD PTR tv74[ebp], 1
	jmp	SHORT $LN4@equivalent
$LN3@equivalent:
	mov	DWORD PTR tv74[ebp], 0
$LN4@equivalent:
	mov	al, BYTE PTR tv74[ebp]

; 417  : 	}

	mov	esp, ebp
	pop	ebp
	ret	8
?equivalent@error_category@std@@UBE_NABVerror_code@2@H@Z ENDP ; std::error_category::equivalent
_TEXT	ENDS
; Function compile flags: /Odtp
; File c:\program files (x86)\microsoft visual studio 11.0\vc\include\system_error
;	COMDAT ?equivalent@error_category@std@@UBE_NHABVerror_condition@2@@Z
_TEXT	SEGMENT
$T1 = -12						; size = 8
_this$ = -4						; size = 4
__Errval$ = 8						; size = 4
__Cond$ = 12						; size = 4
?equivalent@error_category@std@@UBE_NHABVerror_condition@2@@Z PROC ; std::error_category::equivalent, COMDAT
; _this$ = ecx

; 408  : 	{	// test if error code same condition

	push	ebp
	mov	ebp, esp
	sub	esp, 12					; 0000000cH
	mov	DWORD PTR _this$[ebp], ecx

; 409  : 	return (default_error_condition(_Errval) == _Cond);

	mov	eax, DWORD PTR __Cond$[ebp]
	push	eax
	mov	ecx, DWORD PTR __Errval$[ebp]
	push	ecx
	lea	edx, DWORD PTR $T1[ebp]
	push	edx
	mov	eax, DWORD PTR _this$[ebp]
	mov	edx, DWORD PTR [eax]
	mov	ecx, DWORD PTR _this$[ebp]
	mov	eax, DWORD PTR [edx+12]
	call	eax
	mov	ecx, eax
	call	??8error_condition@std@@QBE_NABV01@@Z	; std::error_condition::operator==

; 410  : 	}

	mov	esp, ebp
	pop	ebp
	ret	8
?equivalent@error_category@std@@UBE_NHABVerror_condition@2@@Z ENDP ; std::error_category::equivalent
_TEXT	ENDS
; Function compile flags: /Odtp
; File c:\program files (x86)\microsoft visual studio 11.0\vc\include\system_error
;	COMDAT ?default_error_condition@error_category@std@@UBE?AVerror_condition@2@H@Z
_TEXT	SEGMENT
_this$ = -4						; size = 4
___$ReturnUdt$ = 8					; size = 4
__Errval$ = 12						; size = 4
?default_error_condition@error_category@std@@UBE?AVerror_condition@2@H@Z PROC ; std::error_category::default_error_condition, COMDAT
; _this$ = ecx

; 401  : 	{	// make error_condition for error code

	push	ebp
	mov	ebp, esp
	push	ecx
	mov	DWORD PTR _this$[ebp], ecx

; 402  : 	return (error_condition(_Errval, *this));

	mov	eax, DWORD PTR _this$[ebp]
	push	eax
	mov	ecx, DWORD PTR __Errval$[ebp]
	push	ecx
	mov	ecx, DWORD PTR ___$ReturnUdt$[ebp]
	call	??0error_condition@std@@QAE@HABVerror_category@1@@Z ; std::error_condition::error_condition
	mov	eax, DWORD PTR ___$ReturnUdt$[ebp]

; 403  : 	}

	mov	esp, ebp
	pop	ebp
	ret	8
?default_error_condition@error_category@std@@UBE?AVerror_condition@2@H@Z ENDP ; std::error_category::default_error_condition
_TEXT	ENDS
; Function compile flags: /Odtp
; File c:\program files (x86)\microsoft visual studio 11.0\vc\include\system_error
;	COMDAT ??1error_category@std@@UAE@XZ
_TEXT	SEGMENT
_this$ = -4						; size = 4
??1error_category@std@@UAE@XZ PROC			; std::error_category::~error_category, COMDAT
; _this$ = ecx

; 167  : 		{	// destroy the object

	push	ebp
	mov	ebp, esp
	push	ecx
	mov	DWORD PTR _this$[ebp], ecx
	mov	eax, DWORD PTR _this$[ebp]
	mov	DWORD PTR [eax], OFFSET ??_7error_category@std@@6B@

; 168  : 		}

	mov	esp, ebp
	pop	ebp
	ret	0
??1error_category@std@@UAE@XZ ENDP			; std::error_category::~error_category
_TEXT	ENDS
; Function compile flags: /Odtp
; File c:\program files (x86)\microsoft visual studio 11.0\vc\include\system_error
;	COMDAT ??0error_category@std@@QAE@XZ
_TEXT	SEGMENT
_this$ = -4						; size = 4
??0error_category@std@@QAE@XZ PROC			; std::error_category::error_category, COMDAT
; _this$ = ecx

; 162  : 	error_category()

	push	ebp
	mov	ebp, esp
	push	ecx
