; Listing generated by Microsoft (R) Optimizing Compiler Version 17.00.51106.1 

	TITLE	C:\Users\Zhitao Li\Documents\Visual Studio 2012\Projects\Freefalcon\SIM\Cockpit\cbbuttons.cpp
	.686P
	.XMM
	include listing.inc
	.model	flat

INCLUDELIB LIBCMT
INCLUDELIB OLDNAMES

PUBLIC	?min_exponent@?$numeric_limits@M@std@@2HB	; std::numeric_limits<float>::min_exponent
PUBLIC	?min_exponent10@?$numeric_limits@M@std@@2HB	; std::numeric_limits<float>::min_exponent10
PUBLIC	?digits@?$numeric_limits@N@std@@2HB		; std::numeric_limits<double>::digits
PUBLIC	?digits10@?$numeric_limits@N@std@@2HB		; std::numeric_limits<double>::digits10
PUBLIC	?max_digits10@?$numeric_limits@N@std@@2HB	; std::numeric_limits<double>::max_digits10
PUBLIC	?max_exponent@?$numeric_limits@N@std@@2HB	; std::numeric_limits<double>::max_exponent
PUBLIC	?max_exponent10@?$numeric_limits@N@std@@2HB	; std::numeric_limits<double>::max_exponent10
PUBLIC	?min_exponent@?$numeric_limits@N@std@@2HB	; std::numeric_limits<double>::min_exponent
PUBLIC	?min_exponent10@?$numeric_limits@N@std@@2HB	; std::numeric_limits<double>::min_exponent10
PUBLIC	?digits@?$numeric_limits@O@std@@2HB		; std::numeric_limits<long double>::digits
PUBLIC	?digits10@?$numeric_limits@O@std@@2HB		; std::numeric_limits<long double>::digits10
PUBLIC	?max_digits10@?$numeric_limits@O@std@@2HB	; std::numeric_limits<long double>::max_digits10
PUBLIC	?max_exponent@?$numeric_limits@O@std@@2HB	; std::numeric_limits<long double>::max_exponent
PUBLIC	?max_exponent10@?$numeric_limits@O@std@@2HB	; std::numeric_limits<long double>::max_exponent10
PUBLIC	?min_exponent@?$numeric_limits@O@std@@2HB	; std::numeric_limits<long double>::min_exponent
PUBLIC	?min_exponent10@?$numeric_limits@O@std@@2HB	; std::numeric_limits<long double>::min_exponent10
PUBLIC	?skipws@?$_Iosb@H@std@@2W4_Fmtflags@12@B	; std::_Iosb<int>::skipws
PUBLIC	?unitbuf@?$_Iosb@H@std@@2W4_Fmtflags@12@B	; std::_Iosb<int>::unitbuf
PUBLIC	?uppercase@?$_Iosb@H@std@@2W4_Fmtflags@12@B	; std::_Iosb<int>::uppercase
PUBLIC	?showbase@?$_Iosb@H@std@@2W4_Fmtflags@12@B	; std::_Iosb<int>::showbase
PUBLIC	?showpoint@?$_Iosb@H@std@@2W4_Fmtflags@12@B	; std::_Iosb<int>::showpoint
PUBLIC	?showpos@?$_Iosb@H@std@@2W4_Fmtflags@12@B	; std::_Iosb<int>::showpos
PUBLIC	?left@?$_Iosb@H@std@@2W4_Fmtflags@12@B		; std::_Iosb<int>::left
PUBLIC	?right@?$_Iosb@H@std@@2W4_Fmtflags@12@B		; std::_Iosb<int>::right
PUBLIC	?internal@?$_Iosb@H@std@@2W4_Fmtflags@12@B	; std::_Iosb<int>::internal
PUBLIC	?dec@?$_Iosb@H@std@@2W4_Fmtflags@12@B		; std::_Iosb<int>::dec
PUBLIC	?oct@?$_Iosb@H@std@@2W4_Fmtflags@12@B		; std::_Iosb<int>::oct
PUBLIC	?hex@?$_Iosb@H@std@@2W4_Fmtflags@12@B		; std::_Iosb<int>::hex
PUBLIC	?scientific@?$_Iosb@H@std@@2W4_Fmtflags@12@B	; std::_Iosb<int>::scientific
PUBLIC	?fixed@?$_Iosb@H@std@@2W4_Fmtflags@12@B		; std::_Iosb<int>::fixed
PUBLIC	?hexfloat@?$_Iosb@H@std@@2W4_Fmtflags@12@B	; std::_Iosb<int>::hexfloat
PUBLIC	?boolalpha@?$_Iosb@H@std@@2W4_Fmtflags@12@B	; std::_Iosb<int>::boolalpha
PUBLIC	?_Stdio@?$_Iosb@H@std@@2W4_Fmtflags@12@B	; std::_Iosb<int>::_Stdio
PUBLIC	?adjustfield@?$_Iosb@H@std@@2W4_Fmtflags@12@B	; std::_Iosb<int>::adjustfield
PUBLIC	?basefield@?$_Iosb@H@std@@2W4_Fmtflags@12@B	; std::_Iosb<int>::basefield
PUBLIC	?floatfield@?$_Iosb@H@std@@2W4_Fmtflags@12@B	; std::_Iosb<int>::floatfield
PUBLIC	?goodbit@?$_Iosb@H@std@@2W4_Iostate@12@B	; std::_Iosb<int>::goodbit
PUBLIC	?eofbit@?$_Iosb@H@std@@2W4_Iostate@12@B		; std::_Iosb<int>::eofbit
PUBLIC	?failbit@?$_Iosb@H@std@@2W4_Iostate@12@B	; std::_Iosb<int>::failbit
PUBLIC	?value@?$_Sizeof@U_Nil@std@@U12@U12@U12@U12@U12@U12@U12@@std@@2IB ; std::_Sizeof<std::_Nil,std::_Nil,std::_Nil,std::_Nil,std::_Nil,std::_Nil,std::_Nil,std::_Nil>::value
PUBLIC	?badbit@?$_Iosb@H@std@@2W4_Iostate@12@B		; std::_Iosb<int>::badbit
PUBLIC	?_Hardfail@?$_Iosb@H@std@@2W4_Iostate@12@B	; std::_Iosb<int>::_Hardfail
PUBLIC	?in@?$_Iosb@H@std@@2W4_Openmode@12@B		; std::_Iosb<int>::in
PUBLIC	?out@?$_Iosb@H@std@@2W4_Openmode@12@B		; std::_Iosb<int>::out
PUBLIC	?ate@?$_Iosb@H@std@@2W4_Openmode@12@B		; std::_Iosb<int>::ate
PUBLIC	?app@?$_Iosb@H@std@@2W4_Openmode@12@B		; std::_Iosb<int>::app
PUBLIC	?trunc@?$_Iosb@H@std@@2W4_Openmode@12@B		; std::_Iosb<int>::trunc
PUBLIC	?_Nocreate@?$_Iosb@H@std@@2W4_Openmode@12@B	; std::_Iosb<int>::_Nocreate
PUBLIC	?_Noreplace@?$_Iosb@H@std@@2W4_Openmode@12@B	; std::_Iosb<int>::_Noreplace
PUBLIC	?binary@?$_Iosb@H@std@@2W4_Openmode@12@B	; std::_Iosb<int>::binary
PUBLIC	?beg@?$_Iosb@H@std@@2W4_Seekdir@12@B		; std::_Iosb<int>::beg
PUBLIC	?cur@?$_Iosb@H@std@@2W4_Seekdir@12@B		; std::_Iosb<int>::cur
PUBLIC	?end@?$_Iosb@H@std@@2W4_Seekdir@12@B		; std::_Iosb<int>::end
PUBLIC	?_Stream_err@failure@ios_base@std@@0W4io_errc@43@B ; std::ios_base::failure::_Stream_err
PUBLIC	?has_denorm@_Num_base@std@@2W4float_denorm_style@2@B ; std::_Num_base::has_denorm
PUBLIC	?has_denorm_loss@_Num_base@std@@2_NB		; std::_Num_base::has_denorm_loss
PUBLIC	?has_infinity@_Num_base@std@@2_NB		; std::_Num_base::has_infinity
PUBLIC	?has_quiet_NaN@_Num_base@std@@2_NB		; std::_Num_base::has_quiet_NaN
PUBLIC	?has_signaling_NaN@_Num_base@std@@2_NB		; std::_Num_base::has_signaling_NaN
PUBLIC	?is_bounded@_Num_base@std@@2_NB			; std::_Num_base::is_bounded
PUBLIC	?is_exact@_Num_base@std@@2_NB			; std::_Num_base::is_exact
PUBLIC	?is_iec559@_Num_base@std@@2_NB			; std::_Num_base::is_iec559
PUBLIC	?is_integer@_Num_base@std@@2_NB			; std::_Num_base::is_integer
PUBLIC	?is_modulo@_Num_base@std@@2_NB			; std::_Num_base::is_modulo
PUBLIC	?is_signed@_Num_base@std@@2_NB			; std::_Num_base::is_signed
PUBLIC	?is_specialized@_Num_base@std@@2_NB		; std::_Num_base::is_specialized
PUBLIC	?tinyness_before@_Num_base@std@@2_NB		; std::_Num_base::tinyness_before
PUBLIC	?traps@_Num_base@std@@2_NB			; std::_Num_base::traps
PUBLIC	?round_style@_Num_base@std@@2W4float_round_style@2@B ; std::_Num_base::round_style
PUBLIC	?digits@_Num_base@std@@2HB			; std::_Num_base::digits
PUBLIC	?digits10@_Num_base@std@@2HB			; std::_Num_base::digits10
PUBLIC	?max_digits10@_Num_base@std@@2HB		; std::_Num_base::max_digits10
PUBLIC	?max_exponent@_Num_base@std@@2HB		; std::_Num_base::max_exponent
PUBLIC	?max_exponent10@_Num_base@std@@2HB		; std::_Num_base::max_exponent10
PUBLIC	?min_exponent@_Num_base@std@@2HB		; std::_Num_base::min_exponent
PUBLIC	?min_exponent10@_Num_base@std@@2HB		; std::_Num_base::min_exponent10
PUBLIC	?radix@_Num_base@std@@2HB			; std::_Num_base::radix
PUBLIC	?is_bounded@_Num_int_base@std@@2_NB		; std::_Num_int_base::is_bounded
PUBLIC	?is_exact@_Num_int_base@std@@2_NB		; std::_Num_int_base::is_exact
PUBLIC	?is_integer@_Num_int_base@std@@2_NB		; std::_Num_int_base::is_integer
PUBLIC	?is_modulo@_Num_int_base@std@@2_NB		; std::_Num_int_base::is_modulo
PUBLIC	?is_specialized@_Num_int_base@std@@2_NB		; std::_Num_int_base::is_specialized
PUBLIC	?radix@_Num_int_base@std@@2HB			; std::_Num_int_base::radix
PUBLIC	?has_denorm@_Num_float_base@std@@2W4float_denorm_style@2@B ; std::_Num_float_base::has_denorm
PUBLIC	?has_denorm_loss@_Num_float_base@std@@2_NB	; std::_Num_float_base::has_denorm_loss
PUBLIC	?has_infinity@_Num_float_base@std@@2_NB		; std::_Num_float_base::has_infinity
PUBLIC	?has_quiet_NaN@_Num_float_base@std@@2_NB	; std::_Num_float_base::has_quiet_NaN
PUBLIC	?has_signaling_NaN@_Num_float_base@std@@2_NB	; std::_Num_float_base::has_signaling_NaN
PUBLIC	?is_bounded@_Num_float_base@std@@2_NB		; std::_Num_float_base::is_bounded
PUBLIC	?is_exact@_Num_float_base@std@@2_NB		; std::_Num_float_base::is_exact
PUBLIC	?is_iec559@_Num_float_base@std@@2_NB		; std::_Num_float_base::is_iec559
PUBLIC	?is_integer@_Num_float_base@std@@2_NB		; std::_Num_float_base::is_integer
PUBLIC	?is_modulo@_Num_float_base@std@@2_NB		; std::_Num_float_base::is_modulo
PUBLIC	?is_signed@_Num_float_base@std@@2_NB		; std::_Num_float_base::is_signed
PUBLIC	?is_specialized@_Num_float_base@std@@2_NB	; std::_Num_float_base::is_specialized
PUBLIC	?tinyness_before@_Num_float_base@std@@2_NB	; std::_Num_float_base::tinyness_before
PUBLIC	?traps@_Num_float_base@std@@2_NB		; std::_Num_float_base::traps
PUBLIC	?round_style@_Num_float_base@std@@2W4float_round_style@2@B ; std::_Num_float_base::round_style
PUBLIC	?radix@_Num_float_base@std@@2HB			; std::_Num_float_base::radix
PUBLIC	?is_signed@?$numeric_limits@D@std@@2_NB		; std::numeric_limits<char>::is_signed
PUBLIC	?digits@?$numeric_limits@D@std@@2HB		; std::numeric_limits<char>::digits
PUBLIC	?digits10@?$numeric_limits@D@std@@2HB		; std::numeric_limits<char>::digits10
PUBLIC	?value@?$integral_constant@_N$0A@@std@@2_NB	; std::integral_constant<bool,0>::value
PUBLIC	?is_signed@?$numeric_limits@_W@std@@2_NB	; std::numeric_limits<wchar_t>::is_signed
PUBLIC	?digits@?$numeric_limits@_W@std@@2HB		; std::numeric_limits<wchar_t>::digits
PUBLIC	?digits10@?$numeric_limits@_W@std@@2HB		; std::numeric_limits<wchar_t>::digits10
PUBLIC	?value@?$integral_constant@_N$00@std@@2_NB	; std::integral_constant<bool,1>::value
PUBLIC	?is_modulo@?$numeric_limits@_N@std@@2_NB	; std::numeric_limits<bool>::is_modulo
PUBLIC	?is_signed@?$numeric_limits@_N@std@@2_NB	; std::numeric_limits<bool>::is_signed
PUBLIC	?digits@?$numeric_limits@_N@std@@2HB		; std::numeric_limits<bool>::digits
PUBLIC	?digits10@?$numeric_limits@_N@std@@2HB		; std::numeric_limits<bool>::digits10
PUBLIC	?collate@?$_Locbase@H@std@@2HB			; std::_Locbase<int>::collate
PUBLIC	?ctype@?$_Locbase@H@std@@2HB			; std::_Locbase<int>::ctype
PUBLIC	?monetary@?$_Locbase@H@std@@2HB			; std::_Locbase<int>::monetary
PUBLIC	?numeric@?$_Locbase@H@std@@2HB			; std::_Locbase<int>::numeric
PUBLIC	?time@?$_Locbase@H@std@@2HB			; std::_Locbase<int>::time
PUBLIC	?messages@?$_Locbase@H@std@@2HB			; std::_Locbase<int>::messages
PUBLIC	?all@?$_Locbase@H@std@@2HB			; std::_Locbase<int>::all
PUBLIC	?none@?$_Locbase@H@std@@2HB			; std::_Locbase<int>::none
PUBLIC	?is_signed@?$numeric_limits@C@std@@2_NB		; std::numeric_limits<signed char>::is_signed
PUBLIC	?digits@?$numeric_limits@C@std@@2HB		; std::numeric_limits<signed char>::digits
PUBLIC	?digits10@?$numeric_limits@C@std@@2HB		; std::numeric_limits<signed char>::digits10
PUBLIC	?is_signed@?$numeric_limits@E@std@@2_NB		; std::numeric_limits<unsigned char>::is_signed
PUBLIC	?digits@?$numeric_limits@E@std@@2HB		; std::numeric_limits<unsigned char>::digits
PUBLIC	?digits10@?$numeric_limits@E@std@@2HB		; std::numeric_limits<unsigned char>::digits10
PUBLIC	?value@?$_Sizeof@HU_Nil@std@@U12@U12@U12@U12@U12@U12@@std@@2IB ; std::_Sizeof<int,std::_Nil,std::_Nil,std::_Nil,std::_Nil,std::_Nil,std::_Nil,std::_Nil>::value
PUBLIC	?is_signed@?$numeric_limits@F@std@@2_NB		; std::numeric_limits<short>::is_signed
PUBLIC	?digits@?$numeric_limits@F@std@@2HB		; std::numeric_limits<short>::digits
PUBLIC	?digits10@?$numeric_limits@F@std@@2HB		; std::numeric_limits<short>::digits10
PUBLIC	?table_size@?$ctype@D@std@@2IB			; std::ctype<char>::table_size
PUBLIC	?is_signed@?$numeric_limits@G@std@@2_NB		; std::numeric_limits<unsigned short>::is_signed
PUBLIC	?digits@?$numeric_limits@G@std@@2HB		; std::numeric_limits<unsigned short>::digits
PUBLIC	?digits10@?$numeric_limits@G@std@@2HB		; std::numeric_limits<unsigned short>::digits10
PUBLIC	__GUID_00000000_0000_0000_0000_000000000000
PUBLIC	?is_signed@?$numeric_limits@H@std@@2_NB		; std::numeric_limits<int>::is_signed
PUBLIC	?digits@?$numeric_limits@H@std@@2HB		; std::numeric_limits<int>::digits
PUBLIC	?digits10@?$numeric_limits@H@std@@2HB		; std::numeric_limits<int>::digits10
PUBLIC	?is_signed@?$numeric_limits@I@std@@2_NB		; std::numeric_limits<unsigned int>::is_signed
PUBLIC	?digits@?$numeric_limits@I@std@@2HB		; std::numeric_limits<unsigned int>::digits
PUBLIC	?digits10@?$numeric_limits@I@std@@2HB		; std::numeric_limits<unsigned int>::digits10
PUBLIC	?SIMDIRTYDATA_INTERVAL@FalconEntity@@2KB	; FalconEntity::SIMDIRTYDATA_INTERVAL
PUBLIC	?CMPDIRTYDATA_INTERVAL@FalconEntity@@2KB	; FalconEntity::CMPDIRTYDATA_INTERVAL
PUBLIC	?is_signed@?$numeric_limits@J@std@@2_NB		; std::numeric_limits<long>::is_signed
PUBLIC	?digits@?$numeric_limits@J@std@@2HB		; std::numeric_limits<long>::digits
PUBLIC	?digits10@?$numeric_limits@J@std@@2HB		; std::numeric_limits<long>::digits10
PUBLIC	?is_signed@?$numeric_limits@K@std@@2_NB		; std::numeric_limits<unsigned long>::is_signed
PUBLIC	?digits@?$numeric_limits@K@std@@2HB		; std::numeric_limits<unsigned long>::digits
PUBLIC	?digits10@?$numeric_limits@K@std@@2HB		; std::numeric_limits<unsigned long>::digits10
PUBLIC	?is_signed@?$numeric_limits@_J@std@@2_NB	; std::numeric_limits<__int64>::is_signed
PUBLIC	?digits@?$numeric_limits@_J@std@@2HB		; std::numeric_limits<__int64>::digits
PUBLIC	?digits10@?$numeric_limits@_J@std@@2HB		; std::numeric_limits<__int64>::digits10
PUBLIC	?value@?$integral_constant@I$0A@@std@@2IB	; std::integral_constant<unsigned int,0>::value
PUBLIC	?is_signed@?$numeric_limits@_K@std@@2_NB	; std::numeric_limits<unsigned __int64>::is_signed
PUBLIC	?digits@?$numeric_limits@_K@std@@2HB		; std::numeric_limits<unsigned __int64>::digits
PUBLIC	?digits10@?$numeric_limits@_K@std@@2HB		; std::numeric_limits<unsigned __int64>::digits10
PUBLIC	?digits@?$numeric_limits@M@std@@2HB		; std::numeric_limits<float>::digits
PUBLIC	?digits10@?$numeric_limits@M@std@@2HB		; std::numeric_limits<float>::digits10
PUBLIC	?max_digits10@?$numeric_limits@M@std@@2HB	; std::numeric_limits<float>::max_digits10
PUBLIC	?max_exponent@?$numeric_limits@M@std@@2HB	; std::numeric_limits<float>::max_exponent
PUBLIC	?max_exponent10@?$numeric_limits@M@std@@2HB	; std::numeric_limits<float>::max_exponent10
;	COMDAT ?max_exponent10@?$numeric_limits@M@std@@2HB
CONST	SEGMENT
?max_exponent10@?$numeric_limits@M@std@@2HB DD 026H	; std::numeric_limits<float>::max_exponent10
CONST	ENDS
;	COMDAT ?max_exponent@?$numeric_limits@M@std@@2HB
CONST	SEGMENT
?max_exponent@?$numeric_limits@M@std@@2HB DD 080H	; std::numeric_limits<float>::max_exponent
CONST	ENDS
;	COMDAT ?max_digits10@?$numeric_limits@M@std@@2HB
CONST	SEGMENT
?max_digits10@?$numeric_limits@M@std@@2HB DD 09H	; std::numeric_limits<float>::max_digits10
CONST	ENDS
;	COMDAT ?digits10@?$numeric_limits@M@std@@2HB
CONST	SEGMENT
?digits10@?$numeric_limits@M@std@@2HB DD 06H		; std::numeric_limits<float>::digits10
CONST	ENDS
;	COMDAT ?digits@?$numeric_limits@M@std@@2HB
CONST	SEGMENT
?digits@?$numeric_limits@M@std@@2HB DD 018H		; std::numeric_limits<float>::digits
CONST	ENDS
;	COMDAT ?digits10@?$numeric_limits@_K@std@@2HB
CONST	SEGMENT
?digits10@?$numeric_limits@_K@std@@2HB DD 013H		; std::numeric_limits<unsigned __int64>::digits10
CONST	ENDS
;	COMDAT ?digits@?$numeric_limits@_K@std@@2HB
CONST	SEGMENT
?digits@?$numeric_limits@_K@std@@2HB DD 040H		; std::numeric_limits<unsigned __int64>::digits
CONST	ENDS
;	COMDAT ?is_signed@?$numeric_limits@_K@std@@2_NB
CONST	SEGMENT
?is_signed@?$numeric_limits@_K@std@@2_NB DB 00H		; std::numeric_limits<unsigned __int64>::is_signed
CONST	ENDS
;	COMDAT ?value@?$integral_constant@I$0A@@std@@2IB
CONST	SEGMENT
?value@?$integral_constant@I$0A@@std@@2IB DD 00H	; std::integral_constant<unsigned int,0>::value
CONST	ENDS
;	COMDAT ?digits10@?$numeric_limits@_J@std@@2HB
CONST	SEGMENT
?digits10@?$numeric_limits@_J@std@@2HB DD 012H		; std::numeric_limits<__int64>::digits10
CONST	ENDS
;	COMDAT ?digits@?$numeric_limits@_J@std@@2HB
CONST	SEGMENT
?digits@?$numeric_limits@_J@std@@2HB DD 03fH		; std::numeric_limits<__int64>::digits
CONST	ENDS
;	COMDAT ?is_signed@?$numeric_limits@_J@std@@2_NB
CONST	SEGMENT
?is_signed@?$numeric_limits@_J@std@@2_NB DB 01H		; std::numeric_limits<__int64>::is_signed
CONST	ENDS
;	COMDAT ?digits10@?$numeric_limits@K@std@@2HB
CONST	SEGMENT
?digits10@?$numeric_limits@K@std@@2HB DD 09H		; std::numeric_limits<unsigned long>::digits10
CONST	ENDS
;	COMDAT ?digits@?$numeric_limits@K@std@@2HB
CONST	SEGMENT
?digits@?$numeric_limits@K@std@@2HB DD 020H		; std::numeric_limits<unsigned long>::digits
CONST	ENDS
;	COMDAT ?is_signed@?$numeric_limits@K@std@@2_NB
CONST	SEGMENT
?is_signed@?$numeric_limits@K@std@@2_NB DB 00H		; std::numeric_limits<unsigned long>::is_signed
CONST	ENDS
;	COMDAT ?digits10@?$numeric_limits@J@std@@2HB
CONST	SEGMENT
?digits10@?$numeric_limits@J@std@@2HB DD 09H		; std::numeric_limits<long>::digits10
CONST	ENDS
;	COMDAT ?digits@?$numeric_limits@J@std@@2HB
CONST	SEGMENT
?digits@?$numeric_limits@J@std@@2HB DD 01fH		; std::numeric_limits<long>::digits
CONST	ENDS
;	COMDAT ?is_signed@?$numeric_limits@J@std@@2_NB
CONST	SEGMENT
?is_signed@?$numeric_limits@J@std@@2_NB DB 01H		; std::numeric_limits<long>::is_signed
CONST	ENDS
;	COMDAT ?CMPDIRTYDATA_INTERVAL@FalconEntity@@2KB
CONST	SEGMENT
?CMPDIRTYDATA_INTERVAL@FalconEntity@@2KB DD 0c8H	; FalconEntity::CMPDIRTYDATA_INTERVAL
CONST	ENDS
;	COMDAT ?SIMDIRTYDATA_INTERVAL@FalconEntity@@2KB
CONST	SEGMENT
?SIMDIRTYDATA_INTERVAL@FalconEntity@@2KB DD 0c8H	; FalconEntity::SIMDIRTYDATA_INTERVAL
CONST	ENDS
;	COMDAT ?digits10@?$numeric_limits@I@std@@2HB
CONST	SEGMENT
?digits10@?$numeric_limits@I@std@@2HB DD 09H		; std::numeric_limits<unsigned int>::digits10
CONST	ENDS
;	COMDAT ?digits@?$numeric_limits@I@std@@2HB
CONST	SEGMENT
?digits@?$numeric_limits@I@std@@2HB DD 020H		; std::numeric_limits<unsigned int>::digits
CONST	ENDS
;	COMDAT ?is_signed@?$numeric_limits@I@std@@2_NB
CONST	SEGMENT
?is_signed@?$numeric_limits@I@std@@2_NB DB 00H		; std::numeric_limits<unsigned int>::is_signed
CONST	ENDS
;	COMDAT ?digits10@?$numeric_limits@H@std@@2HB
CONST	SEGMENT
?digits10@?$numeric_limits@H@std@@2HB DD 09H		; std::numeric_limits<int>::digits10
CONST	ENDS
;	COMDAT ?digits@?$numeric_limits@H@std@@2HB
CONST	SEGMENT
?digits@?$numeric_limits@H@std@@2HB DD 01fH		; std::numeric_limits<int>::digits
CONST	ENDS
;	COMDAT ?is_signed@?$numeric_limits@H@std@@2_NB
CONST	SEGMENT
?is_signed@?$numeric_limits@H@std@@2_NB DB 01H		; std::numeric_limits<int>::is_signed
CONST	ENDS
;	COMDAT __GUID_00000000_0000_0000_0000_000000000000
CONST	SEGMENT
__GUID_00000000_0000_0000_0000_000000000000 DD 00H
	DW	00H
	DW	00H
	DB	00H
	DB	00H
	DB	00H
	DB	00H
	DB	00H
	DB	00H
	DB	00H
	DB	00H
CONST	ENDS
;	COMDAT ?digits10@?$numeric_limits@G@std@@2HB
CONST	SEGMENT
?digits10@?$numeric_limits@G@std@@2HB DD 04H		; std::numeric_limits<unsigned short>::digits10
CONST	ENDS
;	COMDAT ?digits@?$numeric_limits@G@std@@2HB
CONST	SEGMENT
?digits@?$numeric_limits@G@std@@2HB DD 010H		; std::numeric_limits<unsigned short>::digits
CONST	ENDS
;	COMDAT ?is_signed@?$numeric_limits@G@std@@2_NB
CONST	SEGMENT
?is_signed@?$numeric_limits@G@std@@2_NB DB 00H		; std::numeric_limits<unsigned short>::is_signed
CONST	ENDS
;	COMDAT ?table_size@?$ctype@D@std@@2IB
CONST	SEGMENT
?table_size@?$ctype@D@std@@2IB DD 0100H			; std::ctype<char>::table_size
CONST	ENDS
;	COMDAT ?digits10@?$numeric_limits@F@std@@2HB
CONST	SEGMENT
?digits10@?$numeric_limits@F@std@@2HB DD 04H		; std::numeric_limits<short>::digits10
CONST	ENDS
;	COMDAT ?digits@?$numeric_limits@F@std@@2HB
CONST	SEGMENT
?digits@?$numeric_limits@F@std@@2HB DD 0fH		; std::numeric_limits<short>::digits
CONST	ENDS
;	COMDAT ?is_signed@?$numeric_limits@F@std@@2_NB
CONST	SEGMENT
?is_signed@?$numeric_limits@F@std@@2_NB DB 01H		; std::numeric_limits<short>::is_signed
CONST	ENDS
;	COMDAT ?value@?$_Sizeof@HU_Nil@std@@U12@U12@U12@U12@U12@U12@@std@@2IB
CONST	SEGMENT
?value@?$_Sizeof@HU_Nil@std@@U12@U12@U12@U12@U12@U12@@std@@2IB DD 01H ; std::_Sizeof<int,std::_Nil,std::_Nil,std::_Nil,std::_Nil,std::_Nil,std::_Nil,std::_Nil>::value
CONST	ENDS
;	COMDAT ?digits10@?$numeric_limits@E@std@@2HB
CONST	SEGMENT
?digits10@?$numeric_limits@E@std@@2HB DD 02H		; std::numeric_limits<unsigned char>::digits10
CONST	ENDS
;	COMDAT ?digits@?$numeric_limits@E@std@@2HB
CONST	SEGMENT
?digits@?$numeric_limits@E@std@@2HB DD 08H		; std::numeric_limits<unsigned char>::digits
CONST	ENDS
;	COMDAT ?is_signed@?$numeric_limits@E@std@@2_NB
CONST	SEGMENT
?is_signed@?$numeric_limits@E@std@@2_NB DB 00H		; std::numeric_limits<unsigned char>::is_signed
CONST	ENDS
;	COMDAT ?digits10@?$numeric_limits@C@std@@2HB
CONST	SEGMENT
?digits10@?$numeric_limits@C@std@@2HB DD 02H		; std::numeric_limits<signed char>::digits10
CONST	ENDS
;	COMDAT ?digits@?$numeric_limits@C@std@@2HB
CONST	SEGMENT
?digits@?$numeric_limits@C@std@@2HB DD 07H		; std::numeric_limits<signed char>::digits
CONST	ENDS
;	COMDAT ?is_signed@?$numeric_limits@C@std@@2_NB
CONST	SEGMENT
?is_signed@?$numeric_limits@C@std@@2_NB DB 01H		; std::numeric_limits<signed char>::is_signed
CONST	ENDS
_DATA	SEGMENT
_matrix33_ident DD 03f800000r			; 1
	DD	000000000r			; 0
	DD	000000000r			; 0
	DD	000000000r			; 0
	DD	03f800000r			; 1
	DD	000000000r			; 0
	DD	000000000r			; 0
	DD	000000000r			; 0
	DD	03f800000r			; 1
	ORG $+4
_matrix44_ident DD 03f800000r			; 1
	DD	000000000r			; 0
	DD	000000000r			; 0
	DD	000000000r			; 0
	DD	000000000r			; 0
	DD	03f800000r			; 1
	DD	000000000r			; 0
	DD	000000000r			; 0
	DD	000000000r			; 0
	DD	000000000r			; 0
	DD	03f800000r			; 1
	DD	000000000r			; 0
	DD	000000000r			; 0
	DD	000000000r			; 0
	DD	000000000r			; 0
	DD	03f800000r			; 1
_DATA	ENDS
;	COMDAT ?none@?$_Locbase@H@std@@2HB
CONST	SEGMENT
?none@?$_Locbase@H@std@@2HB DD 00H			; std::_Locbase<int>::none
CONST	ENDS
;	COMDAT ?all@?$_Locbase@H@std@@2HB
CONST	SEGMENT
?all@?$_Locbase@H@std@@2HB DD 03fH			; std::_Locbase<int>::all
CONST	ENDS
;	COMDAT ?messages@?$_Locbase@H@std@@2HB
CONST	SEGMENT
?messages@?$_Locbase@H@std@@2HB DD 020H			; std::_Locbase<int>::messages
CONST	ENDS
;	COMDAT ?time@?$_Locbase@H@std@@2HB
CONST	SEGMENT
?time@?$_Locbase@H@std@@2HB DD 010H			; std::_Locbase<int>::time
CONST	ENDS
;	COMDAT ?numeric@?$_Locbase@H@std@@2HB
CONST	SEGMENT
?numeric@?$_Locbase@H@std@@2HB DD 08H			; std::_Locbase<int>::numeric
CONST	ENDS
;	COMDAT ?monetary@?$_Locbase@H@std@@2HB
CONST	SEGMENT
?monetary@?$_Locbase@H@std@@2HB DD 04H			; std::_Locbase<int>::monetary
CONST	ENDS
;	COMDAT ?ctype@?$_Locbase@H@std@@2HB
CONST	SEGMENT
?ctype@?$_Locbase@H@std@@2HB DD 02H			; std::_Locbase<int>::ctype
CONST	ENDS
;	COMDAT ?collate@?$_Locbase@H@std@@2HB
CONST	SEGMENT
?collate@?$_Locbase@H@std@@2HB DD 01H			; std::_Locbase<int>::collate
CONST	ENDS
;	COMDAT ?digits10@?$numeric_limits@_N@std@@2HB
CONST	SEGMENT
?digits10@?$numeric_limits@_N@std@@2HB DD 00H		; std::numeric_limits<bool>::digits10
CONST	ENDS
;	COMDAT ?digits@?$numeric_limits@_N@std@@2HB
CONST	SEGMENT
?digits@?$numeric_limits@_N@std@@2HB DD 01H		; std::numeric_limits<bool>::digits
CONST	ENDS
;	COMDAT ?is_signed@?$numeric_limits@_N@std@@2_NB
CONST	SEGMENT
?is_signed@?$numeric_limits@_N@std@@2_NB DB 00H		; std::numeric_limits<bool>::is_signed
CONST	ENDS
;	COMDAT ?is_modulo@?$numeric_limits@_N@std@@2_NB
CONST	SEGMENT
?is_modulo@?$numeric_limits@_N@std@@2_NB DB 00H		; std::numeric_limits<bool>::is_modulo
CONST	ENDS
;	COMDAT ?value@?$integral_constant@_N$00@std@@2_NB
CONST	SEGMENT
?value@?$integral_constant@_N$00@std@@2_NB DB 01H	; std::integral_constant<bool,1>::value
CONST	ENDS
;	COMDAT ?digits10@?$numeric_limits@_W@std@@2HB
CONST	SEGMENT
?digits10@?$numeric_limits@_W@std@@2HB DD 04H		; std::numeric_limits<wchar_t>::digits10
CONST	ENDS
;	COMDAT ?digits@?$numeric_limits@_W@std@@2HB
CONST	SEGMENT
?digits@?$numeric_limits@_W@std@@2HB DD 010H		; std::numeric_limits<wchar_t>::digits
CONST	ENDS
;	COMDAT ?is_signed@?$numeric_limits@_W@std@@2_NB
CONST	SEGMENT
?is_signed@?$numeric_limits@_W@std@@2_NB DB 00H		; std::numeric_limits<wchar_t>::is_signed
CONST	ENDS
;	COMDAT ?value@?$integral_constant@_N$0A@@std@@2_NB
CONST	SEGMENT
?value@?$integral_constant@_N$0A@@std@@2_NB DB 00H	; std::integral_constant<bool,0>::value
CONST	ENDS
;	COMDAT ?digits10@?$numeric_limits@D@std@@2HB
CONST	SEGMENT
?digits10@?$numeric_limits@D@std@@2HB DD 02H		; std::numeric_limits<char>::digits10
CONST	ENDS
;	COMDAT ?digits@?$numeric_limits@D@std@@2HB
CONST	SEGMENT
?digits@?$numeric_limits@D@std@@2HB DD 07H		; std::numeric_limits<char>::digits
CONST	ENDS
;	COMDAT ?is_signed@?$numeric_limits@D@std@@2_NB
CONST	SEGMENT
?is_signed@?$numeric_limits@D@std@@2_NB DB 01H		; std::numeric_limits<char>::is_signed
CONST	ENDS
CONST	SEGMENT
_L_2	DD	03f317218r			; 0.693147
_NEAR_CLIP DD	03f800000r			; 1
CONST	ENDS
;	COMDAT ?radix@_Num_float_base@std@@2HB
CONST	SEGMENT
?radix@_Num_float_base@std@@2HB DD 02H			; std::_Num_float_base::radix
CONST	ENDS
;	COMDAT ?round_style@_Num_float_base@std@@2W4float_round_style@2@B
CONST	SEGMENT
?round_style@_Num_float_base@std@@2W4float_round_style@2@B DD 01H ; std::_Num_float_base::round_style
CONST	ENDS
;	COMDAT ?traps@_Num_float_base@std@@2_NB
CONST	SEGMENT
?traps@_Num_float_base@std@@2_NB DB 00H			; std::_Num_float_base::traps
CONST	ENDS
;	COMDAT ?tinyness_before@_Num_float_base@std@@2_NB
CONST	SEGMENT
?tinyness_before@_Num_float_base@std@@2_NB DB 01H	; std::_Num_float_base::tinyness_before
CONST	ENDS
;	COMDAT ?is_specialized@_Num_float_base@std@@2_NB
CONST	SEGMENT
?is_specialized@_Num_float_base@std@@2_NB DB 01H	; std::_Num_float_base::is_specialized
CONST	ENDS
;	COMDAT ?is_signed@_Num_float_base@std@@2_NB
CONST	SEGMENT
?is_signed@_Num_float_base@std@@2_NB DB 01H		; std::_Num_float_base::is_signed
CONST	ENDS
;	COMDAT ?is_modulo@_Num_float_base@std@@2_NB
CONST	SEGMENT
?is_modulo@_Num_float_base@std@@2_NB DB 00H		; std::_Num_float_base::is_modulo
CONST	ENDS
;	COMDAT ?is_integer@_Num_float_base@std@@2_NB
CONST	SEGMENT
?is_integer@_Num_float_base@std@@2_NB DB 00H		; std::_Num_float_base::is_integer
CONST	ENDS
;	COMDAT ?is_iec559@_Num_float_base@std@@2_NB
CONST	SEGMENT
?is_iec559@_Num_float_base@std@@2_NB DB 01H		; std::_Num_float_base::is_iec559
CONST	ENDS
;	COMDAT ?is_exact@_Num_float_base@std@@2_NB
CONST	SEGMENT
?is_exact@_Num_float_base@std@@2_NB DB 00H		; std::_Num_float_base::is_exact
CONST	ENDS
;	COMDAT ?is_bounded@_Num_float_base@std@@2_NB
CONST	SEGMENT
?is_bounded@_Num_float_base@std@@2_NB DB 01H		; std::_Num_float_base::is_bounded
CONST	ENDS
;	COMDAT ?has_signaling_NaN@_Num_float_base@std@@2_NB
CONST	SEGMENT
?has_signaling_NaN@_Num_float_base@std@@2_NB DB 01H	; std::_Num_float_base::has_signaling_NaN
CONST	ENDS
;	COMDAT ?has_quiet_NaN@_Num_float_base@std@@2_NB
CONST	SEGMENT
?has_quiet_NaN@_Num_float_base@std@@2_NB DB 01H		; std::_Num_float_base::has_quiet_NaN
CONST	ENDS
;	COMDAT ?has_infinity@_Num_float_base@std@@2_NB
CONST	SEGMENT
?has_infinity@_Num_float_base@std@@2_NB DB 01H		; std::_Num_float_base::has_infinity
CONST	ENDS
;	COMDAT ?has_denorm_loss@_Num_float_base@std@@2_NB
CONST	SEGMENT
?has_denorm_loss@_Num_float_base@std@@2_NB DB 01H	; std::_Num_float_base::has_denorm_loss
CONST	ENDS
;	COMDAT ?has_denorm@_Num_float_base@std@@2W4float_denorm_style@2@B
CONST	SEGMENT
?has_denorm@_Num_float_base@std@@2W4float_denorm_style@2@B DD 01H ; std::_Num_float_base::has_denorm
CONST	ENDS
;	COMDAT ?radix@_Num_int_base@std@@2HB
CONST	SEGMENT
?radix@_Num_int_base@std@@2HB DD 02H			; std::_Num_int_base::radix
CONST	ENDS
;	COMDAT ?is_specialized@_Num_int_base@std@@2_NB
CONST	SEGMENT
?is_specialized@_Num_int_base@std@@2_NB DB 01H		; std::_Num_int_base::is_specialized
CONST	ENDS
;	COMDAT ?is_modulo@_Num_int_base@std@@2_NB
CONST	SEGMENT
?is_modulo@_Num_int_base@std@@2_NB DB 01H		; std::_Num_int_base::is_modulo
CONST	ENDS
;	COMDAT ?is_integer@_Num_int_base@std@@2_NB
CONST	SEGMENT
?is_integer@_Num_int_base@std@@2_NB DB 01H		; std::_Num_int_base::is_integer
CONST	ENDS
;	COMDAT ?is_exact@_Num_int_base@std@@2_NB
CONST	SEGMENT
?is_exact@_Num_int_base@std@@2_NB DB 01H		; std::_Num_int_base::is_exact
CONST	ENDS
;	COMDAT ?is_bounded@_Num_int_base@std@@2_NB
CONST	SEGMENT
?is_bounded@_Num_int_base@std@@2_NB DB 01H		; std::_Num_int_base::is_bounded
CONST	ENDS
;	COMDAT ?radix@_Num_base@std@@2HB
CONST	SEGMENT
?radix@_Num_base@std@@2HB DD 00H			; std::_Num_base::radix
CONST	ENDS
;	COMDAT ?min_exponent10@_Num_base@std@@2HB
CONST	SEGMENT
?min_exponent10@_Num_base@std@@2HB DD 00H		; std::_Num_base::min_exponent10
CONST	ENDS
;	COMDAT ?min_exponent@_Num_base@std@@2HB
CONST	SEGMENT
?min_exponent@_Num_base@std@@2HB DD 00H			; std::_Num_base::min_exponent
CONST	ENDS
;	COMDAT ?max_exponent10@_Num_base@std@@2HB
CONST	SEGMENT
?max_exponent10@_Num_base@std@@2HB DD 00H		; std::_Num_base::max_exponent10
CONST	ENDS
;	COMDAT ?max_exponent@_Num_base@std@@2HB
CONST	SEGMENT
?max_exponent@_Num_base@std@@2HB DD 00H			; std::_Num_base::max_exponent
CONST	ENDS
;	COMDAT ?max_digits10@_Num_base@std@@2HB
CONST	SEGMENT
?max_digits10@_Num_base@std@@2HB DD 00H			; std::_Num_base::max_digits10
CONST	ENDS
;	COMDAT ?digits10@_Num_base@std@@2HB
CONST	SEGMENT
?digits10@_Num_base@std@@2HB DD 00H			; std::_Num_base::digits10
CONST	ENDS
;	COMDAT ?digits@_Num_base@std@@2HB
CONST	SEGMENT
?digits@_Num_base@std@@2HB DD 00H			; std::_Num_base::digits
CONST	ENDS
;	COMDAT ?round_style@_Num_base@std@@2W4float_round_style@2@B
CONST	SEGMENT
?round_style@_Num_base@std@@2W4float_round_style@2@B DD 00H ; std::_Num_base::round_style
CONST	ENDS
;	COMDAT ?traps@_Num_base@std@@2_NB
CONST	SEGMENT
?traps@_Num_base@std@@2_NB DB 00H			; std::_Num_base::traps
CONST	ENDS
;	COMDAT ?tinyness_before@_Num_base@std@@2_NB
CONST	SEGMENT
?tinyness_before@_Num_base@std@@2_NB DB 00H		; std::_Num_base::tinyness_before
CONST	ENDS
;	COMDAT ?is_specialized@_Num_base@std@@2_NB
CONST	SEGMENT
?is_specialized@_Num_base@std@@2_NB DB 00H		; std::_Num_base::is_specialized
CONST	ENDS
;	COMDAT ?is_signed@_Num_base@std@@2_NB
CONST	SEGMENT
?is_signed@_Num_base@std@@2_NB DB 00H			; std::_Num_base::is_signed
CONST	ENDS
;	COMDAT ?is_modulo@_Num_base@std@@2_NB
CONST	SEGMENT
?is_modulo@_Num_base@std@@2_NB DB 00H			; std::_Num_base::is_modulo
CONST	ENDS
;	COMDAT ?is_integer@_Num_base@std@@2_NB
CONST	SEGMENT
?is_integer@_Num_base@std@@2_NB DB 00H			; std::_Num_base::is_integer
CONST	ENDS
;	COMDAT ?is_iec559@_Num_base@std@@2_NB
CONST	SEGMENT
?is_iec559@_Num_base@std@@2_NB DB 00H			; std::_Num_base::is_iec559
CONST	ENDS
;	COMDAT ?is_exact@_Num_base@std@@2_NB
CONST	SEGMENT
?is_exact@_Num_base@std@@2_NB DB 00H			; std::_Num_base::is_exact
CONST	ENDS
;	COMDAT ?is_bounded@_Num_base@std@@2_NB
CONST	SEGMENT
?is_bounded@_Num_base@std@@2_NB DB 00H			; std::_Num_base::is_bounded
CONST	ENDS
;	COMDAT ?has_signaling_NaN@_Num_base@std@@2_NB
CONST	SEGMENT
?has_signaling_NaN@_Num_base@std@@2_NB DB 00H		; std::_Num_base::has_signaling_NaN
CONST	ENDS
;	COMDAT ?has_quiet_NaN@_Num_base@std@@2_NB
CONST	SEGMENT
?has_quiet_NaN@_Num_base@std@@2_NB DB 00H		; std::_Num_base::has_quiet_NaN
CONST	ENDS
;	COMDAT ?has_infinity@_Num_base@std@@2_NB
CONST	SEGMENT
?has_infinity@_Num_base@std@@2_NB DB 00H		; std::_Num_base::has_infinity
CONST	ENDS
;	COMDAT ?has_denorm_loss@_Num_base@std@@2_NB
CONST	SEGMENT
?has_denorm_loss@_Num_base@std@@2_NB DB 00H		; std::_Num_base::has_denorm_loss
CONST	ENDS
;	COMDAT ?has_denorm@_Num_base@std@@2W4float_denorm_style@2@B
CONST	SEGMENT
?has_denorm@_Num_base@std@@2W4float_denorm_style@2@B DD 00H ; std::_Num_base::has_denorm
CONST	ENDS
;	COMDAT ?_Stream_err@failure@ios_base@std@@0W4io_errc@43@B
CONST	SEGMENT
?_Stream_err@failure@ios_base@std@@0W4io_errc@43@B DD 01H ; std::ios_base::failure::_Stream_err
CONST	ENDS
;	COMDAT ?end@?$_Iosb@H@std@@2W4_Seekdir@12@B
CONST	SEGMENT
?end@?$_Iosb@H@std@@2W4_Seekdir@12@B DD 02H		; std::_Iosb<int>::end
CONST	ENDS
;	COMDAT ?cur@?$_Iosb@H@std@@2W4_Seekdir@12@B
CONST	SEGMENT
?cur@?$_Iosb@H@std@@2W4_Seekdir@12@B DD 01H		; std::_Iosb<int>::cur
CONST	ENDS
;	COMDAT ?beg@?$_Iosb@H@std@@2W4_Seekdir@12@B
CONST	SEGMENT
?beg@?$_Iosb@H@std@@2W4_Seekdir@12@B DD 00H		; std::_Iosb<int>::beg
CONST	ENDS
;	COMDAT ?binary@?$_Iosb@H@std@@2W4_Openmode@12@B
CONST	SEGMENT
?binary@?$_Iosb@H@std@@2W4_Openmode@12@B DD 020H	; std::_Iosb<int>::binary
CONST	ENDS
;	COMDAT ?_Noreplace@?$_Iosb@H@std@@2W4_Openmode@12@B
CONST	SEGMENT
?_Noreplace@?$_Iosb@H@std@@2W4_Openmode@12@B DD 080H	; std::_Iosb<int>::_Noreplace
CONST	ENDS
;	COMDAT ?_Nocreate@?$_Iosb@H@std@@2W4_Openmode@12@B
CONST	SEGMENT
?_Nocreate@?$_Iosb@H@std@@2W4_Openmode@12@B DD 040H	; std::_Iosb<int>::_Nocreate
CONST	ENDS
;	COMDAT ?trunc@?$_Iosb@H@std@@2W4_Openmode@12@B
CONST	SEGMENT
?trunc@?$_Iosb@H@std@@2W4_Openmode@12@B DD 010H		; std::_Iosb<int>::trunc
CONST	ENDS
;	COMDAT ?app@?$_Iosb@H@std@@2W4_Openmode@12@B
CONST	SEGMENT
?app@?$_Iosb@H@std@@2W4_Openmode@12@B DD 08H		; std::_Iosb<int>::app
CONST	ENDS
;	COMDAT ?ate@?$_Iosb@H@std@@2W4_Openmode@12@B
CONST	SEGMENT
?ate@?$_Iosb@H@std@@2W4_Openmode@12@B DD 04H		; std::_Iosb<int>::ate
CONST	ENDS
;	COMDAT ?out@?$_Iosb@H@std@@2W4_Openmode@12@B
CONST	SEGMENT
?out@?$_Iosb@H@std@@2W4_Openmode@12@B DD 02H		; std::_Iosb<int>::out
CONST	ENDS
;	COMDAT ?in@?$_Iosb@H@std@@2W4_Openmode@12@B
CONST	SEGMENT
?in@?$_Iosb@H@std@@2W4_Openmode@12@B DD 01H		; std::_Iosb<int>::in
CONST	ENDS
;	COMDAT ?_Hardfail@?$_Iosb@H@std@@2W4_Iostate@12@B
CONST	SEGMENT
?_Hardfail@?$_Iosb@H@std@@2W4_Iostate@12@B DD 010H	; std::_Iosb<int>::_Hardfail
CONST	ENDS
;	COMDAT ?badbit@?$_Iosb@H@std@@2W4_Iostate@12@B
CONST	SEGMENT
?badbit@?$_Iosb@H@std@@2W4_Iostate@12@B DD 04H		; std::_Iosb<int>::badbit
CONST	ENDS
;	COMDAT ?value@?$_Sizeof@U_Nil@std@@U12@U12@U12@U12@U12@U12@U12@@std@@2IB
CONST	SEGMENT
?value@?$_Sizeof@U_Nil@std@@U12@U12@U12@U12@U12@U12@U12@@std@@2IB DD 00H ; std::_Sizeof<std::_Nil,std::_Nil,std::_Nil,std::_Nil,std::_Nil,std::_Nil,std::_Nil,std::_Nil>::value
CONST	ENDS
;	COMDAT ?failbit@?$_Iosb@H@std@@2W4_Iostate@12@B
CONST	SEGMENT
?failbit@?$_Iosb@H@std@@2W4_Iostate@12@B DD 02H		; std::_Iosb<int>::failbit
CONST	ENDS
;	COMDAT ?eofbit@?$_Iosb@H@std@@2W4_Iostate@12@B
CONST	SEGMENT
?eofbit@?$_Iosb@H@std@@2W4_Iostate@12@B DD 01H		; std::_Iosb<int>::eofbit
CONST	ENDS
;	COMDAT ?goodbit@?$_Iosb@H@std@@2W4_Iostate@12@B
CONST	SEGMENT
?goodbit@?$_Iosb@H@std@@2W4_Iostate@12@B DD 00H		; std::_Iosb<int>::goodbit
CONST	ENDS
;	COMDAT ?floatfield@?$_Iosb@H@std@@2W4_Fmtflags@12@B
CONST	SEGMENT
?floatfield@?$_Iosb@H@std@@2W4_Fmtflags@12@B DD 03000H	; std::_Iosb<int>::floatfield
CONST	ENDS
;	COMDAT ?basefield@?$_Iosb@H@std@@2W4_Fmtflags@12@B
CONST	SEGMENT
?basefield@?$_Iosb@H@std@@2W4_Fmtflags@12@B DD 0e00H	; std::_Iosb<int>::basefield
CONST	ENDS
;	COMDAT ?adjustfield@?$_Iosb@H@std@@2W4_Fmtflags@12@B
CONST	SEGMENT
?adjustfield@?$_Iosb@H@std@@2W4_Fmtflags@12@B DD 01c0H	; std::_Iosb<int>::adjustfield
CONST	ENDS
;	COMDAT ?_Stdio@?$_Iosb@H@std@@2W4_Fmtflags@12@B
CONST	SEGMENT
?_Stdio@?$_Iosb@H@std@@2W4_Fmtflags@12@B DD 08000H	; std::_Iosb<int>::_Stdio
CONST	ENDS
;	COMDAT ?boolalpha@?$_Iosb@H@std@@2W4_Fmtflags@12@B
CONST	SEGMENT
?boolalpha@?$_Iosb@H@std@@2W4_Fmtflags@12@B DD 04000H	; std::_Iosb<int>::boolalpha
CONST	ENDS
;	COMDAT ?hexfloat@?$_Iosb@H@std@@2W4_Fmtflags@12@B
CONST	SEGMENT
?hexfloat@?$_Iosb@H@std@@2W4_Fmtflags@12@B DD 03000H	; std::_Iosb<int>::hexfloat
CONST	ENDS
;	COMDAT ?fixed@?$_Iosb@H@std@@2W4_Fmtflags@12@B
CONST	SEGMENT
?fixed@?$_Iosb@H@std@@2W4_Fmtflags@12@B DD 02000H	; std::_Iosb<int>::fixed
CONST	ENDS
;	COMDAT ?scientific@?$_Iosb@H@std@@2W4_Fmtflags@12@B
CONST	SEGMENT
?scientific@?$_Iosb@H@std@@2W4_Fmtflags@12@B DD 01000H	; std::_Iosb<int>::scientific
CONST	ENDS
;	COMDAT ?hex@?$_Iosb@H@std@@2W4_Fmtflags@12@B
CONST	SEGMENT
?hex@?$_Iosb@H@std@@2W4_Fmtflags@12@B DD 0800H		; std::_Iosb<int>::hex
CONST	ENDS
;	COMDAT ?oct@?$_Iosb@H@std@@2W4_Fmtflags@12@B
CONST	SEGMENT
?oct@?$_Iosb@H@std@@2W4_Fmtflags@12@B DD 0400H		; std::_Iosb<int>::oct
CONST	ENDS
;	COMDAT ?dec@?$_Iosb@H@std@@2W4_Fmtflags@12@B
CONST	SEGMENT
?dec@?$_Iosb@H@std@@2W4_Fmtflags@12@B DD 0200H		; std::_Iosb<int>::dec
CONST	ENDS
;	COMDAT ?internal@?$_Iosb@H@std@@2W4_Fmtflags@12@B
CONST	SEGMENT
?internal@?$_Iosb@H@std@@2W4_Fmtflags@12@B DD 0100H	; std::_Iosb<int>::internal
CONST	ENDS
;	COMDAT ?right@?$_Iosb@H@std@@2W4_Fmtflags@12@B
CONST	SEGMENT
?right@?$_Iosb@H@std@@2W4_Fmtflags@12@B DD 080H		; std::_Iosb<int>::right
CONST	ENDS
;	COMDAT ?left@?$_Iosb@H@std@@2W4_Fmtflags@12@B
CONST	SEGMENT
?left@?$_Iosb@H@std@@2W4_Fmtflags@12@B DD 040H		; std::_Iosb<int>::left
CONST	ENDS
;	COMDAT ?showpos@?$_Iosb@H@std@@2W4_Fmtflags@12@B
CONST	SEGMENT
?showpos@?$_Iosb@H@std@@2W4_Fmtflags@12@B DD 020H	; std::_Iosb<int>::showpos
CONST	ENDS
;	COMDAT ?showpoint@?$_Iosb@H@std@@2W4_Fmtflags@12@B
CONST	SEGMENT
?showpoint@?$_Iosb@H@std@@2W4_Fmtflags@12@B DD 010H	; std::_Iosb<int>::showpoint
CONST	ENDS
;	COMDAT ?showbase@?$_Iosb@H@std@@2W4_Fmtflags@12@B
CONST	SEGMENT
?showbase@?$_Iosb@H@std@@2W4_Fmtflags@12@B DD 08H	; std::_Iosb<int>::showbase
CONST	ENDS
;	COMDAT ?uppercase@?$_Iosb@H@std@@2W4_Fmtflags@12@B
CONST	SEGMENT
?uppercase@?$_Iosb@H@std@@2W4_Fmtflags@12@B DD 04H	; std::_Iosb<int>::uppercase
CONST	ENDS
;	COMDAT ?unitbuf@?$_Iosb@H@std@@2W4_Fmtflags@12@B
CONST	SEGMENT
?unitbuf@?$_Iosb@H@std@@2W4_Fmtflags@12@B DD 02H	; std::_Iosb<int>::unitbuf
CONST	ENDS
;	COMDAT ?skipws@?$_Iosb@H@std@@2W4_Fmtflags@12@B
CONST	SEGMENT
?skipws@?$_Iosb@H@std@@2W4_Fmtflags@12@B DD 01H		; std::_Iosb<int>::skipws
CONST	ENDS
;	COMDAT ?min_exponent10@?$numeric_limits@O@std@@2HB
CONST	SEGMENT
?min_exponent10@?$numeric_limits@O@std@@2HB DD 0fffffecdH ; std::numeric_limits<long double>::min_exponent10
CONST	ENDS
;	COMDAT ?min_exponent@?$numeric_limits@O@std@@2HB
CONST	SEGMENT
?min_exponent@?$numeric_limits@O@std@@2HB DD 0fffffc03H	; std::numeric_limits<long double>::min_exponent
CONST	ENDS
;	COMDAT ?max_exponent10@?$numeric_limits@O@std@@2HB
CONST	SEGMENT
?max_exponent10@?$numeric_limits@O@std@@2HB DD 0134H	; std::numeric_limits<long double>::max_exponent10
CONST	ENDS
;	COMDAT ?max_exponent@?$numeric_limits@O@std@@2HB
CONST	SEGMENT
?max_exponent@?$numeric_limits@O@std@@2HB DD 0400H	; std::numeric_limits<long double>::max_exponent
CONST	ENDS
;	COMDAT ?max_digits10@?$numeric_limits@O@std@@2HB
CONST	SEGMENT
?max_digits10@?$numeric_limits@O@std@@2HB DD 011H	; std::numeric_limits<long double>::max_digits10
CONST	ENDS
;	COMDAT ?digits10@?$numeric_limits@O@std@@2HB
CONST	SEGMENT
?digits10@?$numeric_limits@O@std@@2HB DD 0fH		; std::numeric_limits<long double>::digits10
CONST	ENDS
;	COMDAT ?digits@?$numeric_limits@O@std@@2HB
CONST	SEGMENT
?digits@?$numeric_limits@O@std@@2HB DD 035H		; std::numeric_limits<long double>::digits
CONST	ENDS
;	COMDAT ?min_exponent10@?$numeric_limits@N@std@@2HB
CONST	SEGMENT
?min_exponent10@?$numeric_limits@N@std@@2HB DD 0fffffecdH ; std::numeric_limits<double>::min_exponent10
CONST	ENDS
;	COMDAT ?min_exponent@?$numeric_limits@N@std@@2HB
CONST	SEGMENT
?min_exponent@?$numeric_limits@N@std@@2HB DD 0fffffc03H	; std::numeric_limits<double>::min_exponent
CONST	ENDS
;	COMDAT ?max_exponent10@?$numeric_limits@N@std@@2HB
CONST	SEGMENT
?max_exponent10@?$numeric_limits@N@std@@2HB DD 0134H	; std::numeric_limits<double>::max_exponent10
CONST	ENDS
;	COMDAT ?max_exponent@?$numeric_limits@N@std@@2HB
CONST	SEGMENT
?max_exponent@?$numeric_limits@N@std@@2HB DD 0400H	; std::numeric_limits<double>::max_exponent
CONST	ENDS
;	COMDAT ?max_digits10@?$numeric_limits@N@std@@2HB
CONST	SEGMENT
?max_digits10@?$numeric_limits@N@std@@2HB DD 011H	; std::numeric_limits<double>::max_digits10
CONST	ENDS
;	COMDAT ?digits10@?$numeric_limits@N@std@@2HB
CONST	SEGMENT
?digits10@?$numeric_limits@N@std@@2HB DD 0fH		; std::numeric_limits<double>::digits10
CONST	ENDS
;	COMDAT ?digits@?$numeric_limits@N@std@@2HB
CONST	SEGMENT
?digits@?$numeric_limits@N@std@@2HB DD 035H		; std::numeric_limits<double>::digits
CONST	ENDS
;	COMDAT ?min_exponent10@?$numeric_limits@M@std@@2HB
CONST	SEGMENT
?min_exponent10@?$numeric_limits@M@std@@2HB DD 0ffffffdbH ; std::numeric_limits<float>::min_exponent10
CONST	ENDS
;	COMDAT ?min_exponent@?$numeric_limits@M@std@@2HB
CONST	SEGMENT
?min_exponent@?$numeric_limits@M@std@@2HB DD 0ffffff83H	; std::numeric_limits<float>::min_exponent
CONST	ENDS
PUBLIC	??2@YAPAXIPAX@Z					; operator new
PUBLIC	??3@YAXPAX0@Z					; operator delete
PUBLIC	?length@?$char_traits@D@std@@SAIPBD@Z		; std::char_traits<char>::length
PUBLIC	?copy@?$char_traits@D@std@@SAPADPADPBDI@Z	; std::char_traits<char>::copy
PUBLIC	?move@?$char_traits@D@std@@SAPADPADPBDI@Z	; std::char_traits<char>::move
PUBLIC	?assign@?$char_traits@D@std@@SAXAADABD@Z	; std::char_traits<char>::assign
PUBLIC	??0?$allocator@D@std@@QAE@XZ			; std::allocator<char>::allocator<char>
PUBLIC	?deallocate@?$allocator@D@std@@QAEXPADI@Z	; std::allocator<char>::deallocate
PUBLIC	?allocate@?$allocator@D@std@@QAEPADI@Z		; std::allocator<char>::allocate
PUBLIC	?max_size@?$allocator@D@std@@QBEIXZ		; std::allocator<char>::max_size
PUBLIC	?max_size@?$allocator_traits@V?$allocator@D@std@@@std@@SAIABV?$allocator@D@2@@Z ; std::allocator_traits<std::allocator<char> >::max_size
PUBLIC	??0?$_Wrap_alloc@V?$allocator@D@std@@@std@@QAE@XZ ; std::_Wrap_alloc<std::allocator<char> >::_Wrap_alloc<std::allocator<char> >
PUBLIC	?allocate@?$_Wrap_alloc@V?$allocator@D@std@@@std@@QAEPADI@Z ; std::_Wrap_alloc<std::allocator<char> >::allocate
PUBLIC	?deallocate@?$_Wrap_alloc@V?$allocator@D@std@@@std@@QAEXPADI@Z ; std::_Wrap_alloc<std::allocator<char> >::deallocate
PUBLIC	?max_size@?$_Wrap_alloc@V?$allocator@D@std@@@std@@QBEIXZ ; std::_Wrap_alloc<std::allocator<char> >::max_size
PUBLIC	??0?$_String_val@U?$_Simple_types@D@std@@@std@@QAE@XZ ; std::_String_val<std::_Simple_types<char> >::_String_val<std::_Simple_types<char> >
PUBLIC	?_Myptr@?$_String_val@U?$_Simple_types@D@std@@@std@@QAEPADXZ ; std::_String_val<std::_Simple_types<char> >::_Myptr
PUBLIC	?_Myptr@?$_String_val@U?$_Simple_types@D@std@@@std@@QBEPBDXZ ; std::_String_val<std::_Simple_types<char> >::_Myptr
PUBLIC	??0?$_String_alloc@$0A@U?$_String_base_types@DV?$allocator@D@std@@@std@@@std@@QAE@ABV?$allocator@D@1@@Z ; std::_String_alloc<0,std::_String_base_types<char,std::allocator<char> > >::_String_alloc<0,std::_String_base_types<char,std::allocator<char> > >
PUBLIC	?_Getal@?$_String_alloc@$0A@U?$_String_base_types@DV?$allocator@D@std@@@std@@@std@@QBE?AU?$_Wrap_alloc@V?$allocator@D@std@@@2@XZ ; std::_String_alloc<0,std::_String_base_types<char,std::allocator<char> > >::_Getal
PUBLIC	??0?$basic_string@DU?$char_traits@D@std@@V?$allocator@D@2@@std@@QAE@PBD@Z ; std::basic_string<char,std::char_traits<char>,std::allocator<char> >::basic_string<char,std::char_traits<char>,std::allocator<char> >
PUBLIC	?assign@?$basic_string@DU?$char_traits@D@std@@V?$allocator@D@2@@std@@QAEAAV12@ABV12@II@Z ; std::basic_string<char,std::char_traits<char>,std::allocator<char> >::assign
PUBLIC	?assign@?$basic_string@DU?$char_traits@D@std@@V?$allocator@D@2@@std@@QAEAAV12@PBDI@Z ; std::basic_string<char,std::char_traits<char>,std::allocator<char> >::assign
PUBLIC	?assign@?$basic_string@DU?$char_traits@D@std@@V?$allocator@D@2@@std@@QAEAAV12@PBD@Z ; std::basic_string<char,std::char_traits<char>,std::allocator<char> >::assign
PUBLIC	?erase@?$basic_string@DU?$char_traits@D@std@@V?$allocator@D@2@@std@@QAEAAV12@I@Z ; std::basic_string<char,std::char_traits<char>,std::allocator<char> >::erase
PUBLIC	?erase@?$basic_string@DU?$char_traits@D@std@@V?$allocator@D@2@@std@@QAEAAV12@II@Z ; std::basic_string<char,std::char_traits<char>,std::allocator<char> >::erase
PUBLIC	?size@?$basic_string@DU?$char_traits@D@std@@V?$allocator@D@2@@std@@QBEIXZ ; std::basic_string<char,std::char_traits<char>,std::allocator<char> >::size
PUBLIC	?max_size@?$basic_string@DU?$char_traits@D@std@@V?$allocator@D@2@@std@@QBEIXZ ; std::basic_string<char,std::char_traits<char>,std::allocator<char> >::max_size
PUBLIC	?_Copy@?$basic_string@DU?$char_traits@D@std@@V?$allocator@D@2@@std@@QAEXII@Z ; std::basic_string<char,std::char_traits<char>,std::allocator<char> >::_Copy
PUBLIC	?_Eos@?$basic_string@DU?$char_traits@D@std@@V?$allocator@D@2@@std@@QAEXI@Z ; std::basic_string<char,std::char_traits<char>,std::allocator<char> >::_Eos
PUBLIC	?_Grow@?$basic_string@DU?$char_traits@D@std@@V?$allocator@D@2@@std@@QAE_NI_N@Z ; std::basic_string<char,std::char_traits<char>,std::allocator<char> >::_Grow
PUBLIC	?_Inside@?$basic_string@DU?$char_traits@D@std@@V?$allocator@D@2@@std@@QAE_NPBD@Z ; std::basic_string<char,std::char_traits<char>,std::allocator<char> >::_Inside
PUBLIC	?_Tidy@?$basic_string@DU?$char_traits@D@std@@V?$allocator@D@2@@std@@QAEX_NI@Z ; std::basic_string<char,std::char_traits<char>,std::allocator<char> >::_Tidy
PUBLIC	?_Xlen@?$basic_string@DU?$char_traits@D@std@@V?$allocator@D@2@@std@@QBEXXZ ; std::basic_string<char,std::char_traits<char>,std::allocator<char> >::_Xlen
PUBLIC	?_Xran@?$basic_string@DU?$char_traits@D@std@@V?$allocator@D@2@@std@@QBEXXZ ; std::basic_string<char,std::char_traits<char>,std::allocator<char> >::_Xran
PUBLIC	??0id@locale@std@@QAE@I@Z			; std::locale::id::id
PUBLIC	?generic_category@std@@YAABVerror_category@1@XZ	; std::generic_category
PUBLIC	?system_category@std@@YAABVerror_category@1@XZ	; std::system_category
PUBLIC	??0error_category@std@@QAE@XZ			; std::error_category::error_category
PUBLIC	??1error_category@std@@UAE@XZ			; std::error_category::~error_category
PUBLIC	?default_error_condition@error_category@std@@UBE?AVerror_condition@2@H@Z ; std::error_category::default_error_condition
PUBLIC	?equivalent@error_category@std@@UBE_NHABVerror_condition@2@@Z ; std::error_category::equivalent
PUBLIC	?equivalent@error_category@std@@UBE_NABVerror_code@2@H@Z ; std::error_category::equivalent
PUBLIC	??8error_category@std@@QBE_NABV01@@Z		; std::error_category::operator==
PUBLIC	??_Gerror_category@std@@UAEPAXI@Z		; std::error_category::`scalar deleting destructor'
PUBLIC	?value@error_code@std@@QBEHXZ			; std::error_code::value
PUBLIC	?category@error_code@std@@QBEABVerror_category@2@XZ ; std::error_code::category
PUBLIC	??0error_condition@std@@QAE@HABVerror_category@1@@Z ; std::error_condition::error_condition
PUBLIC	?value@error_condition@std@@QBEHXZ		; std::error_condition::value
PUBLIC	?category@error_condition@std@@QBEABVerror_category@2@XZ ; std::error_condition::category
PUBLIC	??8error_condition@std@@QBE_NABV01@@Z		; std::error_condition::operator==
PUBLIC	??0_Generic_error_category@std@@QAE@XZ		; std::_Generic_error_category::_Generic_error_category
PUBLIC	?name@_Generic_error_category@std@@UBEPBDXZ	; std::_Generic_error_category::name
PUBLIC	?message@_Generic_error_category@std@@UBE?AV?$basic_string@DU?$char_traits@D@std@@V?$allocator@D@2@@2@H@Z ; std::_Generic_error_category::message
PUBLIC	??1_Generic_error_category@std@@UAE@XZ		; std::_Generic_error_category::~_Generic_error_category
PUBLIC	??_G_Generic_error_category@std@@UAEPAXI@Z	; std::_Generic_error_category::`scalar deleting destructor'
PUBLIC	??0_Iostream_error_category@std@@QAE@XZ		; std::_Iostream_error_category::_Iostream_error_category
PUBLIC	?name@_Iostream_error_category@std@@UBEPBDXZ	; std::_Iostream_error_category::name
PUBLIC	?message@_Iostream_error_category@std@@UBE?AV?$basic_string@DU?$char_traits@D@std@@V?$allocator@D@2@@2@H@Z ; std::_Iostream_error_category::message
PUBLIC	??1_Iostream_error_category@std@@UAE@XZ		; std::_Iostream_error_category::~_Iostream_error_category
PUBLIC	??_G_Iostream_error_category@std@@UAEPAXI@Z	; std::_Iostream_error_category::`scalar deleting destructor'
PUBLIC	??0_System_error_category@std@@QAE@XZ		; std::_System_error_category::_System_error_category
PUBLIC	?name@_System_error_category@std@@UBEPBDXZ	; std::_System_error_category::name
PUBLIC	?message@_System_error_category@std@@UBE?AV?$basic_string@DU?$char_traits@D@std@@V?$allocator@D@2@@2@H@Z ; std::_System_error_category::message
PUBLIC	?default_error_condition@_System_error_category@std@@UBE?AVerror_condition@2@H@Z ; std::_System_error_category::default_error_condition
PUBLIC	??1_System_error_category@std@@UAE@XZ		; std::_System_error_category::~_System_error_category
PUBLIC	??_G_System_error_category@std@@UAEPAXI@Z	; std::_System_error_category::`scalar deleting destructor'
PUBLIC	?IsSetFlag@SimBaseClass@@QBEHH@Z		; SimBaseClass::IsSetFlag
PUBLIC	?GetSwitch@SimMoverClass@@QAEHH@Z		; SimMoverClass::GetSwitch
PUBLIC	?MasterArm@SMSBaseClass@@QAE?AW4MasterArmState@1@XZ ; SMSBaseClass::MasterArm
PUBLIC	?SetMasterArm@SMSBaseClass@@QAEXW4MasterArmState@1@@Z ; SMSBaseClass::SetMasterArm
PUBLIC	?DidEmergencyJettison@SMSClass@@QAEHXZ		; SMSClass::DidEmergencyJettison
PUBLIC	?GetInteriorLight@AircraftClass@@QBE?AW4LightSwitch@1@XZ ; AircraftClass::GetInteriorLight
PUBLIC	?GetInstrumentLight@AircraftClass@@QBE?AW4LightSwitch@1@XZ ; AircraftClass::GetInstrumentLight
PUBLIC	?GetSpotLight@AircraftClass@@QBE?AW4LightSwitch@1@XZ ; AircraftClass::GetSpotLight
PUBLIC	?IsAcStatusBitsSet@AircraftClass@@QBE_NH@Z	; AircraftClass::IsAcStatusBitsSet
PUBLIC	?ExtlState@AircraftClass@@QBEHW4ExtlLightFlags@1@@Z ; AircraftClass::ExtlState
PUBLIC	?INSState@AircraftClass@@QAEHW4INSAlignFlags@1@@Z ; AircraftClass::INSState
PUBLIC	?AVTRState@AircraftClass@@QAEHW4AVTRStateFlags@1@@Z ; AircraftClass::AVTRState
PUBLIC	?IsOn@AircraftClass@@QAEHW4APFlags@1@@Z		; AircraftClass::IsOn
PUBLIC	?PowerSwitchOn@AircraftClass@@QAEHW4AvionicsPowerFlags@1@@Z ; AircraftClass::PowerSwitchOn
PUBLIC	?MainPower@AircraftClass@@QAE?AW4MainPowerType@1@XZ ; AircraftClass::MainPower
PUBLIC	?EWSPGM@AircraftClass@@QAE?AW4EWSPGMSwitch@1@XZ	; AircraftClass::EWSPGM
PUBLIC	?AVTROn@SimulationDriver@@QAEHXZ		; SimulationDriver::AVTROn
PUBLIC	?GetEpuSwitch@AirframeClass@@QAE?AW4EpuState@1@XZ ; AirframeClass::GetEpuSwitch
PUBLIC	?IsEngineFlag@AirframeClass@@QAEHW4EngineFlags@1@@Z ; AirframeClass::IsEngineFlag
PUBLIC	?ToggleEngineFlag@AirframeClass@@QAEXW4EngineFlags@1@@Z ; AirframeClass::ToggleEngineFlag
PUBLIC	?GetFuelSwitch@AirframeClass@@QAE?AW4FuelSwitch@1@XZ ; AirframeClass::GetFuelSwitch
PUBLIC	?GetFuelPump@AirframeClass@@QAE?AW4FuelPump@1@XZ ; AirframeClass::GetFuelPump
PUBLIC	?GetAirSource@AirframeClass@@QAE?AW4AirSource@1@XZ ; AirframeClass::GetAirSource
PUBLIC	?SetFlag@AirframeClass@@QAEXH@Z			; AirframeClass::SetFlag
PUBLIC	?ClearFlag@AirframeClass@@QAEXH@Z		; AirframeClass::ClearFlag
PUBLIC	?IsSet@AirframeClass@@QBEHH@Z			; AirframeClass::IsSet
PUBLIC	?AutoDrop@VehRwrClass@@QAEHXZ			; VehRwrClass::AutoDrop
PUBLIC	?GetActivePanel@CockpitManager@@QAEPAVCPPanel@@XZ ; CockpitManager::GetActivePanel
PUBLIC	?SetPage@KneeBoard@@QAEXW4Page@1@@Z		; KneeBoard::SetPage
PUBLIC	?AnalogIsUsed@SIMLIB_IO_CLASS@@QAE_NW4GameAxis_t@@@Z ; SIMLIB_IO_CLASS::AnalogIsUsed
PUBLIC	?CBEKneeboardMap@@YAXPAXH@Z			; CBEKneeboardMap
PUBLIC	?CBEKneeboardBrief@@YAXPAXH@Z			; CBEKneeboardBrief
PUBLIC	?CBEKneeboardStpt@@YAXPAXH@Z			; CBEKneeboardStpt
PUBLIC	?CBEAMChaffFlare@@YAXPAXH@Z			; CBEAMChaffFlare
PUBLIC	?CBExAMChaffFlare@@YAXPAXH@Z			; CBExAMChaffFlare
PUBLIC	?CBEHandoffB@@YAXPAXH@Z				; CBEHandoffB
PUBLIC	?CBEPriModeB@@YAXPAXH@Z				; CBEPriModeB
PUBLIC	?CBEUnknownB@@YAXPAXH@Z				; CBEUnknownB
PUBLIC	?CBENavalB@@YAXPAXH@Z				; CBENavalB
PUBLIC	?CBETgtSepB@@YAXPAXH@Z				; CBETgtSepB
PUBLIC	?CBEAuxWarnSearchB@@YAXPAXH@Z			; CBEAuxWarnSearchB
PUBLIC	?CBEAuxWarnAltB@@YAXPAXH@Z			; CBEAuxWarnAltB
PUBLIC	?CBEAuxWarnPwrB@@YAXPAXH@Z			; CBEAuxWarnPwrB
PUBLIC	?CBELandGearSelect@@YAXPAXH@Z			; CBELandGearSelect
PUBLIC	?CBEMasterCaution@@YAXPAXH@Z			; CBEMasterCaution
PUBLIC	?CBEAutoPilot@@YAXPAXH@Z			; CBEAutoPilot
PUBLIC	?CBExAutoPilot@@YAXPAXH@Z			; CBExAutoPilot
PUBLIC	?CBECourseSelect@@YAXPAXH@Z			; CBECourseSelect
PUBLIC	?CBExCourseSelect@@YAXPAXH@Z			; CBExCourseSelect
PUBLIC	?CBEHeadingSelect@@YAXPAXH@Z			; CBEHeadingSelect
PUBLIC	?CBExHeadingSelect@@YAXPAXH@Z			; CBExHeadingSelect
PUBLIC	?CBEChaffDispense@@YAXPAXH@Z			; CBEChaffDispense
PUBLIC	?CBExChaffDispense@@YAXPAXH@Z			; CBExChaffDispense
PUBLIC	?CBEFlareDispense@@YAXPAXH@Z			; CBEFlareDispense
PUBLIC	?CBExFlareDispense@@YAXPAXH@Z			; CBExFlareDispense
PUBLIC	?CBEStoresJettison@@YAXPAXH@Z			; CBEStoresJettison
PUBLIC	?CBExStoresJettison@@YAXPAXH@Z			; CBExStoresJettison
PUBLIC	?CBEAVTRControl@@YAXPAXH@Z			; CBEAVTRControl
PUBLIC	?CBExAVTRControl@@YAXPAXH@Z			; CBExAVTRControl
PUBLIC	?CBExModeSelect@@YAXPAXH@Z			; CBExModeSelect
PUBLIC	?CBEModeSelect@@YAXPAXH@Z			; CBEModeSelect
PUBLIC	?CBExMPO@@YAXPAXH@Z				; CBExMPO
PUBLIC	?CBEMPO@@YAXPAXH@Z				; CBEMPO
PUBLIC	?CBExHornSilencer@@YAXPAXH@Z			; CBExHornSilencer
PUBLIC	?CBEHornSilencer@@YAXPAXH@Z			; CBEHornSilencer
PUBLIC	?CBExHUDColor@@YAXPAXH@Z			; CBExHUDColor
PUBLIC	?CBExMFDButton@@YAXPAXH@Z			; CBExMFDButton
PUBLIC	?CBEOSB_1L@@YAXPAXH@Z				; CBEOSB_1L
PUBLIC	?CBEOSB_2L@@YAXPAXH@Z				; CBEOSB_2L
PUBLIC	?CBEOSB_3L@@YAXPAXH@Z				; CBEOSB_3L
PUBLIC	?CBEOSB_4L@@YAXPAXH@Z				; CBEOSB_4L
PUBLIC	?CBEOSB_5L@@YAXPAXH@Z				; CBEOSB_5L
PUBLIC	?CBEOSB_6L@@YAXPAXH@Z				; CBEOSB_6L
PUBLIC	?CBEOSB_7L@@YAXPAXH@Z				; CBEOSB_7L
PUBLIC	?CBEOSB_8L@@YAXPAXH@Z				; CBEOSB_8L
PUBLIC	?CBEOSB_9L@@YAXPAXH@Z				; CBEOSB_9L
PUBLIC	?CBEOSB_10L@@YAXPAXH@Z				; CBEOSB_10L
PUBLIC	?CBEOSB_11L@@YAXPAXH@Z				; CBEOSB_11L
PUBLIC	?CBEOSB_12L@@YAXPAXH@Z				; CBEOSB_12L
PUBLIC	?CBEOSB_13L@@YAXPAXH@Z				; CBEOSB_13L
PUBLIC	?CBEOSB_14L@@YAXPAXH@Z				; CBEOSB_14L
PUBLIC	?CBEOSB_15L@@YAXPAXH@Z				; CBEOSB_15L
PUBLIC	?CBEOSB_16L@@YAXPAXH@Z				; CBEOSB_16L
PUBLIC	?CBEOSB_17L@@YAXPAXH@Z				; CBEOSB_17L
PUBLIC	?CBEOSB_18L@@YAXPAXH@Z				; CBEOSB_18L
PUBLIC	?CBEOSB_19L@@YAXPAXH@Z				; CBEOSB_19L
PUBLIC	?CBEOSB_20L@@YAXPAXH@Z				; CBEOSB_20L
PUBLIC	?CBEOSB_1R@@YAXPAXH@Z				; CBEOSB_1R
PUBLIC	?CBEOSB_2R@@YAXPAXH@Z				; CBEOSB_2R
PUBLIC	?CBEOSB_3R@@YAXPAXH@Z				; CBEOSB_3R
PUBLIC	?CBEOSB_4R@@YAXPAXH@Z				; CBEOSB_4R
PUBLIC	?CBEOSB_5R@@YAXPAXH@Z				; CBEOSB_5R
PUBLIC	?CBEOSB_6R@@YAXPAXH@Z				; CBEOSB_6R
PUBLIC	?CBEOSB_7R@@YAXPAXH@Z				; CBEOSB_7R
PUBLIC	?CBEOSB_8R@@YAXPAXH@Z				; CBEOSB_8R
PUBLIC	?CBEOSB_9R@@YAXPAXH@Z				; CBEOSB_9R
PUBLIC	?CBEOSB_10R@@YAXPAXH@Z				; CBEOSB_10R
PUBLIC	?CBEOSB_11R@@YAXPAXH@Z				; CBEOSB_11R
PUBLIC	?CBEOSB_12R@@YAXPAXH@Z				; CBEOSB_12R
PUBLIC	?CBEOSB_13R@@YAXPAXH@Z				; CBEOSB_13R
PUBLIC	?CBEOSB_14R@@YAXPAXH@Z				; CBEOSB_14R
PUBLIC	?CBEOSB_15R@@YAXPAXH@Z				; CBEOSB_15R
PUBLIC	?CBEOSB_16R@@YAXPAXH@Z				; CBEOSB_16R
PUBLIC	?CBEOSB_17R@@YAXPAXH@Z				; CBEOSB_17R
PUBLIC	?CBEOSB_18R@@YAXPAXH@Z				; CBEOSB_18R
PUBLIC	?CBEOSB_19R@@YAXPAXH@Z				; CBEOSB_19R
PUBLIC	?CBEOSB_20R@@YAXPAXH@Z				; CBEOSB_20R
PUBLIC	?CBEOSB_1T@@YAXPAXH@Z				; CBEOSB_1T
PUBLIC	?CBEOSB_2T@@YAXPAXH@Z				; CBEOSB_2T
PUBLIC	?CBEOSB_3T@@YAXPAXH@Z				; CBEOSB_3T
PUBLIC	?CBEOSB_4T@@YAXPAXH@Z				; CBEOSB_4T
PUBLIC	?CBEOSB_5T@@YAXPAXH@Z				; CBEOSB_5T
PUBLIC	?CBEOSB_6T@@YAXPAXH@Z				; CBEOSB_6T
PUBLIC	?CBEOSB_7T@@YAXPAXH@Z				; CBEOSB_7T
PUBLIC	?CBEOSB_8T@@YAXPAXH@Z				; CBEOSB_8T
PUBLIC	?CBEOSB_9T@@YAXPAXH@Z				; CBEOSB_9T
PUBLIC	?CBEOSB_10T@@YAXPAXH@Z				; CBEOSB_10T
PUBLIC	?CBEOSB_11T@@YAXPAXH@Z				; CBEOSB_11T
PUBLIC	?CBEOSB_12T@@YAXPAXH@Z				; CBEOSB_12T
PUBLIC	?CBEOSB_13T@@YAXPAXH@Z				; CBEOSB_13T
PUBLIC	?CBEOSB_14T@@YAXPAXH@Z				; CBEOSB_14T
PUBLIC	?CBEOSB_15T@@YAXPAXH@Z				; CBEOSB_15T
PUBLIC	?CBEOSB_16T@@YAXPAXH@Z				; CBEOSB_16T
PUBLIC	?CBEOSB_17T@@YAXPAXH@Z				; CBEOSB_17T
PUBLIC	?CBEOSB_18T@@YAXPAXH@Z				; CBEOSB_18T
PUBLIC	?CBEOSB_19T@@YAXPAXH@Z				; CBEOSB_19T
PUBLIC	?CBEOSB_20T@@YAXPAXH@Z				; CBEOSB_20T
PUBLIC	?CBEOSB_1F@@YAXPAXH@Z				; CBEOSB_1F
PUBLIC	?CBEOSB_2F@@YAXPAXH@Z				; CBEOSB_2F
PUBLIC	?CBEOSB_3F@@YAXPAXH@Z				; CBEOSB_3F
PUBLIC	?CBEOSB_4F@@YAXPAXH@Z				; CBEOSB_4F
PUBLIC	?CBEOSB_5F@@YAXPAXH@Z				; CBEOSB_5F
PUBLIC	?CBEOSB_6F@@YAXPAXH@Z				; CBEOSB_6F
PUBLIC	?CBEOSB_7F@@YAXPAXH@Z				; CBEOSB_7F
PUBLIC	?CBEOSB_8F@@YAXPAXH@Z				; CBEOSB_8F
PUBLIC	?CBEOSB_9F@@YAXPAXH@Z				; CBEOSB_9F
PUBLIC	?CBEOSB_10F@@YAXPAXH@Z				; CBEOSB_10F
PUBLIC	?CBEOSB_11F@@YAXPAXH@Z				; CBEOSB_11F
PUBLIC	?CBEOSB_12F@@YAXPAXH@Z				; CBEOSB_12F
PUBLIC	?CBEOSB_13F@@YAXPAXH@Z				; CBEOSB_13F
PUBLIC	?CBEOSB_14F@@YAXPAXH@Z				; CBEOSB_14F
PUBLIC	?CBEOSB_15F@@YAXPAXH@Z				; CBEOSB_15F
PUBLIC	?CBEOSB_16F@@YAXPAXH@Z				; CBEOSB_16F
PUBLIC	?CBEOSB_17F@@YAXPAXH@Z				; CBEOSB_17F
PUBLIC	?CBEOSB_18F@@YAXPAXH@Z				; CBEOSB_18F
PUBLIC	?CBEOSB_19F@@YAXPAXH@Z				; CBEOSB_19F
PUBLIC	?CBEOSB_20F@@YAXPAXH@Z				; CBEOSB_20F
PUBLIC	?CBEThreeGainUp@@YAXPAXH@Z			; CBEThreeGainUp
PUBLIC	?CBEThreeGainDown@@YAXPAXH@Z			; CBEThreeGainDown
PUBLIC	?CBEFourGainDown@@YAXPAXH@Z			; CBEFourGainDown
PUBLIC	?CBEFourGainUp@@YAXPAXH@Z			; CBEFourGainUp
PUBLIC	?CBEICPTILS@@YAXPAXH@Z				; CBEICPTILS
PUBLIC	?CBEICPALOW@@YAXPAXH@Z				; CBEICPALOW
PUBLIC	?CBEICPFAck@@YAXPAXH@Z				; CBEICPFAck
PUBLIC	?CBEICPPrevious@@YAXPAXH@Z			; CBEICPPrevious
PUBLIC	?CBExICPPrevious@@YAXPAXH@Z			; CBExICPPrevious
PUBLIC	?CBEICPNext@@YAXPAXH@Z				; CBEICPNext
PUBLIC	?CBExICPNext@@YAXPAXH@Z				; CBExICPNext
PUBLIC	?CBEICPLink@@YAXPAXH@Z				; CBEICPLink
PUBLIC	?CBEICPCrus@@YAXPAXH@Z				; CBEICPCrus
PUBLIC	?CBEICPStpt@@YAXPAXH@Z				; CBEICPStpt
PUBLIC	?CBEICPMark@@YAXPAXH@Z				; CBEICPMark
PUBLIC	?CBEICPEnter@@YAXPAXH@Z				; CBEICPEnter
PUBLIC	?CBExICPEnter@@YAXPAXH@Z			; CBExICPEnter
PUBLIC	?CBEICPCom1@@YAXPAXH@Z				; CBEICPCom1
PUBLIC	?CBEICPCom2@@YAXPAXH@Z				; CBEICPCom2
PUBLIC	?CBEICPNav@@YAXPAXH@Z				; CBEICPNav
PUBLIC	?CBEICPAA@@YAXPAXH@Z				; CBEICPAA
PUBLIC	?CBEICPAG@@YAXPAXH@Z				; CBEICPAG
PUBLIC	?CBExICPPrimaryExclusive@@YAXPAXH@Z		; CBExICPPrimaryExclusive
PUBLIC	?CBExICPSecondaryExclusive@@YAXPAXH@Z		; CBExICPSecondaryExclusive
PUBLIC	?CBExICPTertiaryExclusive@@YAXPAXH@Z		; CBExICPTertiaryExclusive
PUBLIC	?CBExHUDScales@@YAXPAXH@Z			; CBExHUDScales
PUBLIC	?CBEHUDScales@@YAXPAXH@Z			; CBEHUDScales
PUBLIC	?CBExHUDFPM@@YAXPAXH@Z				; CBExHUDFPM
PUBLIC	?CBEHUDFPM@@YAXPAXH@Z				; CBEHUDFPM
PUBLIC	?CBExHUDDED@@YAXPAXH@Z				; CBExHUDDED
PUBLIC	?CBEHUDDED@@YAXPAXH@Z				; CBEHUDDED
PUBLIC	?CBExHUDDriftCO@@YAXPAXH@Z			; CBExHUDDriftCO
PUBLIC	?CBEHUDDriftCO@@YAXPAXH@Z			; CBEHUDDriftCO
PUBLIC	?CBExHUDVelocity@@YAXPAXH@Z			; CBExHUDVelocity
PUBLIC	?CBEHUDVelocity@@YAXPAXH@Z			; CBEHUDVelocity
PUBLIC	?CBExHUDRadar@@YAXPAXH@Z			; CBExHUDRadar
PUBLIC	?CBEHUDRadar@@YAXPAXH@Z				; CBEHUDRadar
PUBLIC	?CBExHUDBrightness@@YAXPAXH@Z			; CBExHUDBrightness
PUBLIC	?CBEHUDBrightness@@YAXPAXH@Z			; CBEHUDBrightness
PUBLIC	?CBExECMSwitch@@YAXPAXH@Z			; CBExECMSwitch
PUBLIC	?CBEECMSwitch@@YAXPAXH@Z			; CBEECMSwitch
PUBLIC	?CBExUHFSwitch@@YAXPAXH@Z			; CBExUHFSwitch
PUBLIC	?CBEUHFSwitch@@YAXPAXH@Z			; CBEUHFSwitch
PUBLIC	?CBExAuxCommLeft@@YAXPAXH@Z			; CBExAuxCommLeft
PUBLIC	?CBEAuxCommLeft@@YAXPAXH@Z			; CBEAuxCommLeft
PUBLIC	?CBExAuxCommCenter@@YAXPAXH@Z			; CBExAuxCommCenter
PUBLIC	?CBEAuxCommCenter@@YAXPAXH@Z			; CBEAuxCommCenter
PUBLIC	?CBExAuxCommRight@@YAXPAXH@Z			; CBExAuxCommRight
PUBLIC	?CBEAuxCommRight@@YAXPAXH@Z			; CBEAuxCommRight
PUBLIC	?CBExAuxCommBand@@YAXPAXH@Z			; CBExAuxCommBand
PUBLIC	?CBEAuxCommBand@@YAXPAXH@Z			; CBEAuxCommBand
PUBLIC	?CBExEject@@YAXPAXH@Z				; CBExEject
PUBLIC	?CBEEject@@YAXPAXH@Z				; CBEEject
PUBLIC	?CBExAuxCommMaster@@YAXPAXH@Z			; CBExAuxCommMaster
PUBLIC	?CBEAuxCommMaster@@YAXPAXH@Z			; CBEAuxCommMaster
PUBLIC	?CBExAuxCommAATR@@YAXPAXH@Z			; CBExAuxCommAATR
PUBLIC	?CBEAuxCommAATR@@YAXPAXH@Z			; CBEAuxCommAATR
PUBLIC	?CBExUHFMaster@@YAXPAXH@Z			; CBExUHFMaster
PUBLIC	?CBEUHFMaster@@YAXPAXH@Z			; CBEUHFMaster
PUBLIC	?CBExExteriorLite@@YAXPAXH@Z			; CBExExteriorLite
PUBLIC	?CBEExteriorLite@@YAXPAXH@Z			; CBEExteriorLite
PUBLIC	?CBEMasterArm@@YAXPAXH@Z			; CBEMasterArm
PUBLIC	?CBECatIII@@YAXPAXH@Z				; CBECatIII
PUBLIC	?CBERightGainUp@@YAXPAXH@Z			; CBERightGainUp
PUBLIC	?CBERightGainDown@@YAXPAXH@Z			; CBERightGainDown
PUBLIC	?CBELeftGainDown@@YAXPAXH@Z			; CBELeftGainDown
PUBLIC	?CBELeftGainUp@@YAXPAXH@Z			; CBELeftGainUp
PUBLIC	?CBEHUDColor@@YAXPAXH@Z				; CBEHUDColor
PUBLIC	?CBExMasterArm@@YAXPAXH@Z			; CBExMasterArm
PUBLIC	?CBExCatIII@@YAXPAXH@Z				; CBExCatIII
PUBLIC	?CBEJfs@@YAXPAXH@Z				; CBEJfs
PUBLIC	?CBExJfs@@YAXPAXH@Z				; CBExJfs
PUBLIC	?CBEEpu@@YAXPAXH@Z				; CBEEpu
PUBLIC	?CBExEpu@@YAXPAXH@Z				; CBExEpu
PUBLIC	?CBEAltLGear@@YAXPAXH@Z				; CBEAltLGear
PUBLIC	?CBEAltLGearReset@@YAXPAXH@Z			; CBEAltLGearReset
PUBLIC	?CBExAltLGear@@YAXPAXH@Z			; CBExAltLGear
PUBLIC	?CBEICPIFF@@YAXPAXH@Z				; CBEICPIFF
PUBLIC	?CBEICPLIST@@YAXPAXH@Z				; CBEICPLIST
PUBLIC	?CBETHREEButton@@YAXPAXH@Z			; CBETHREEButton
PUBLIC	?CBESIXButton@@YAXPAXH@Z			; CBESIXButton
PUBLIC	?CBEEIGHTButton@@YAXPAXH@Z			; CBEEIGHTButton
PUBLIC	?CBENINEButton@@YAXPAXH@Z			; CBENINEButton
PUBLIC	?CBEZEROButton@@YAXPAXH@Z			; CBEZEROButton
PUBLIC	?CBEResetDEDPage@@YAXPAXH@Z			; CBEResetDEDPage
PUBLIC	?CBEICPDEDUP@@YAXPAXH@Z				; CBEICPDEDUP
PUBLIC	?CBEICPDEDDOWN@@YAXPAXH@Z			; CBEICPDEDDOWN
PUBLIC	?CBEICPDEDSEQ@@YAXPAXH@Z			; CBEICPDEDSEQ
PUBLIC	?CBEICPCLEAR@@YAXPAXH@Z				; CBEICPCLEAR
PUBLIC	?CBExRALTSwitch@@YAXPAXH@Z			; CBExRALTSwitch
PUBLIC	?CBERALTSTDBY@@YAXPAXH@Z			; CBERALTSTDBY
PUBLIC	?CBERALTON@@YAXPAXH@Z				; CBERALTON
PUBLIC	?CBERALTOFF@@YAXPAXH@Z				; CBERALTOFF
PUBLIC	?CBERALTSwitch@@YAXPAXH@Z			; CBERALTSwitch
PUBLIC	?CBESmsPower@@YAXPAXH@Z				; CBESmsPower
PUBLIC	?CBExSmsPower@@YAXPAXH@Z			; CBExSmsPower
PUBLIC	?CBEFCCPower@@YAXPAXH@Z				; CBEFCCPower
PUBLIC	?CBExFCCPower@@YAXPAXH@Z			; CBExFCCPower
PUBLIC	?CBEMFDPower@@YAXPAXH@Z				; CBEMFDPower
PUBLIC	?CBExMFDPower@@YAXPAXH@Z			; CBExMFDPower
PUBLIC	?CBEUFCPower@@YAXPAXH@Z				; CBEUFCPower
PUBLIC	?CBExUFCPower@@YAXPAXH@Z			; CBExUFCPower
PUBLIC	?CBEGPSPower@@YAXPAXH@Z				; CBEGPSPower
PUBLIC	?CBExGPSPower@@YAXPAXH@Z			; CBExGPSPower
PUBLIC	?CBEDLPower@@YAXPAXH@Z				; CBEDLPower
PUBLIC	?CBExDLPower@@YAXPAXH@Z				; CBExDLPower
PUBLIC	?CBEMAPPower@@YAXPAXH@Z				; CBEMAPPower
PUBLIC	?CBExMAPPower@@YAXPAXH@Z			; CBExMAPPower
PUBLIC	?CBELEFTHPTPower@@YAXPAXH@Z			; CBELEFTHPTPower
PUBLIC	?CBExLEFTHPTPower@@YAXPAXH@Z			; CBExLEFTHPTPower
PUBLIC	?CBERIGHTHPTPower@@YAXPAXH@Z			; CBERIGHTHPTPower
PUBLIC	?CBExRIGHTHPTPower@@YAXPAXH@Z			; CBExRIGHTHPTPower
PUBLIC	?CBETISLPower@@YAXPAXH@Z			; CBETISLPower
PUBLIC	?CBExTISLPower@@YAXPAXH@Z			; CBExTISLPower
PUBLIC	?CBEFCRPower@@YAXPAXH@Z				; CBEFCRPower
PUBLIC	?CBExFCRPower@@YAXPAXH@Z			; CBExFCRPower
PUBLIC	?CBEHUDPower@@YAXPAXH@Z				; CBEHUDPower
PUBLIC	?CBExHUDPower@@YAXPAXH@Z			; CBExHUDPower
PUBLIC	?CBEFuelSwitch@@YAXPAXH@Z			; CBEFuelSwitch
PUBLIC	?CBExFuelDisplay@@YAXPAXH@Z			; CBExFuelDisplay
PUBLIC	?CBEFuelPump@@YAXPAXH@Z				; CBEFuelPump
PUBLIC	?CBExFuelPump@@YAXPAXH@Z			; CBExFuelPump
PUBLIC	?CBEFuelCock@@YAXPAXH@Z				; CBEFuelCock
PUBLIC	?CBExFuelCock@@YAXPAXH@Z			; CBExFuelCock
PUBLIC	?CBEFuelExtTrans@@YAXPAXH@Z			; CBEFuelExtTrans
PUBLIC	?CBExFuelExtTrans@@YAXPAXH@Z			; CBExFuelExtTrans
PUBLIC	?CBEAirSource@@YAXPAXH@Z			; CBEAirSource
PUBLIC	?CBExAirSource@@YAXPAXH@Z			; CBExAirSource
PUBLIC	?CBELandingLightToggle@@YAXPAXH@Z		; CBELandingLightToggle
PUBLIC	?CBExLandingLightToggle@@YAXPAXH@Z		; CBExLandingLightToggle
PUBLIC	?CBEParkingBrakeToggle@@YAXPAXH@Z		; CBEParkingBrakeToggle
PUBLIC	?CBExParkingBrakeToggle@@YAXPAXH@Z		; CBExParkingBrakeToggle
PUBLIC	?CBEHookToggle@@YAXPAXH@Z			; CBEHookToggle
PUBLIC	?CBExHookToggle@@YAXPAXH@Z			; CBExHookToggle
PUBLIC	?CBELaserArmToggle@@YAXPAXH@Z			; CBELaserArmToggle
PUBLIC	?CBExLaserArmToggle@@YAXPAXH@Z			; CBExLaserArmToggle
PUBLIC	?CBEFuelDoorToggle@@YAXPAXH@Z			; CBEFuelDoorToggle
PUBLIC	?CBExFuelDoorToggle@@YAXPAXH@Z			; CBExFuelDoorToggle
PUBLIC	?CBERightAPSwitch@@YAXPAXH@Z			; CBERightAPSwitch
PUBLIC	?CBExRightAPSwitch@@YAXPAXH@Z			; CBExRightAPSwitch
PUBLIC	?CBELeftAPSwitch@@YAXPAXH@Z			; CBELeftAPSwitch
PUBLIC	?CBExLeftAPSwitch@@YAXPAXH@Z			; CBExLeftAPSwitch
PUBLIC	?CBEAPOverride@@YAXPAXH@Z			; CBEAPOverride
PUBLIC	?CBEWarnReset@@YAXPAXH@Z			; CBEWarnReset
PUBLIC	?CBExWarnReset@@YAXPAXH@Z			; CBExWarnReset
PUBLIC	?CBEReticleSwitch@@YAXPAXH@Z			; CBEReticleSwitch
PUBLIC	?CBExReticleSwitch@@YAXPAXH@Z			; CBExReticleSwitch
PUBLIC	?CBEInteriorLightSwitch@@YAXPAXH@Z		; CBEInteriorLightSwitch
PUBLIC	?CBExInteriorLightSwitch@@YAXPAXH@Z		; CBExInteriorLightSwitch
PUBLIC	?CBEInstrumentLightSwitch@@YAXPAXH@Z		; CBEInstrumentLightSwitch
PUBLIC	?CBExInstrumentLightSwitch@@YAXPAXH@Z		; CBExInstrumentLightSwitch
PUBLIC	?CBESpotLightSwitch@@YAXPAXH@Z			; CBESpotLightSwitch
PUBLIC	?CBExSpotLightSwitch@@YAXPAXH@Z			; CBExSpotLightSwitch
PUBLIC	?CBESeatArmSwitch@@YAXPAXH@Z			; CBESeatArmSwitch
PUBLIC	?CBExSeatArmSwitch@@YAXPAXH@Z			; CBExSeatArmSwitch
PUBLIC	?CBExEWSRWRPowerSwitch@@YAXPAXH@Z		; CBExEWSRWRPowerSwitch
PUBLIC	?CBEEWSRWRPower@@YAXPAXH@Z			; CBEEWSRWRPower
PUBLIC	?CBExEWSJammerPowerSwitch@@YAXPAXH@Z		; CBExEWSJammerPowerSwitch
PUBLIC	?CBEEWSJammerPower@@YAXPAXH@Z			; CBEEWSJammerPower
PUBLIC	?CBExEWSChaffPowerSwitch@@YAXPAXH@Z		; CBExEWSChaffPowerSwitch
PUBLIC	?CBEEWSChaffPower@@YAXPAXH@Z			; CBEEWSChaffPower
PUBLIC	?CBExEWSFlarePowerSwitch@@YAXPAXH@Z		; CBExEWSFlarePowerSwitch
PUBLIC	?CBEEWSFlarePower@@YAXPAXH@Z			; CBEEWSFlarePower
PUBLIC	?CBExEWSPGMButton@@YAXPAXH@Z			; CBExEWSPGMButton
PUBLIC	?CBEEWSPGMButton@@YAXPAXH@Z			; CBEEWSPGMButton
PUBLIC	?CBExEWSProgButton@@YAXPAXH@Z			; CBExEWSProgButton
PUBLIC	?CBEEWSProgButton@@YAXPAXH@Z			; CBEEWSProgButton
PUBLIC	?CBEMainPower@@YAXPAXH@Z			; CBEMainPower
PUBLIC	?CBExMainPower@@YAXPAXH@Z			; CBExMainPower
PUBLIC	?CBENwsToggle@@YAXPAXH@Z			; CBENwsToggle
PUBLIC	?CBExNwsToggle@@YAXPAXH@Z			; CBExNwsToggle
PUBLIC	?CBEIdleDetent@@YAXPAXH@Z			; CBEIdleDetent
PUBLIC	?CBExIdleDetent@@YAXPAXH@Z			; CBExIdleDetent
PUBLIC	?CBEInhibitVMS@@YAXPAXH@Z			; CBEInhibitVMS
PUBLIC	?CBExInhibitVMS@@YAXPAXH@Z			; CBExInhibitVMS
PUBLIC	?CBERFSwitch@@YAXPAXH@Z				; CBERFSwitch
PUBLIC	?CBExRFSwitch@@YAXPAXH@Z			; CBExRFSwitch
PUBLIC	?CBEGearHandle@@YAXPAXH@Z			; CBEGearHandle
PUBLIC	?CBExGearHandle@@YAXPAXH@Z			; CBExGearHandle
PUBLIC	?CBEPinkySwitch@@YAXPAXH@Z			; CBEPinkySwitch
PUBLIC	?CBEGndJettEnable@@YAXPAXH@Z			; CBEGndJettEnable
PUBLIC	?CBExGndJettEnable@@YAXPAXH@Z			; CBExGndJettEnable
PUBLIC	?CBEExtlPower@@YAXPAXH@Z			; CBEExtlPower
PUBLIC	?CBExExtlPower@@YAXPAXH@Z			; CBExExtlPower
PUBLIC	?CBEExtlAntiColl@@YAXPAXH@Z			; CBEExtlAntiColl
PUBLIC	?CBExExtlAntiColl@@YAXPAXH@Z			; CBExExtlAntiColl
PUBLIC	?CBEExtlSteady@@YAXPAXH@Z			; CBEExtlSteady
PUBLIC	?CBExExtlSteady@@YAXPAXH@Z			; CBExExtlSteady
PUBLIC	?CBEExtlWing@@YAXPAXH@Z				; CBEExtlWing
PUBLIC	?CBExExtlWing@@YAXPAXH@Z			; CBExExtlWing
PUBLIC	?CBEAVTRSwitch@@YAXPAXH@Z			; CBEAVTRSwitch
PUBLIC	?CBExAVTRSwitch@@YAXPAXH@Z			; CBExAVTRSwitch
PUBLIC	?CBEIFFPower@@YAXPAXH@Z				; CBEIFFPower
PUBLIC	?CBExIFFPower@@YAXPAXH@Z			; CBExIFFPower
PUBLIC	?CBEINSSwitch@@YAXPAXH@Z			; CBEINSSwitch
PUBLIC	?CBExINSSwitch@@YAXPAXH@Z			; CBExINSSwitch
PUBLIC	?CBELEFLockSwitch@@YAXPAXH@Z			; CBELEFLockSwitch
PUBLIC	?CBExLEFLockSwitch@@YAXPAXH@Z			; CBExLEFLockSwitch
PUBLIC	?CBEDigitalBUP@@YAXPAXH@Z			; CBEDigitalBUP
PUBLIC	?CBExDigitalBUP@@YAXPAXH@Z			; CBExDigitalBUP
PUBLIC	?CBEAltFlaps@@YAXPAXH@Z				; CBEAltFlaps
PUBLIC	?CBExAltFlaps@@YAXPAXH@Z			; CBExAltFlaps
PUBLIC	?CBEManualFlyup@@YAXPAXH@Z			; CBEManualFlyup
PUBLIC	?CBExManualFlyup@@YAXPAXH@Z			; CBExManualFlyup
PUBLIC	?CBEFLCSReset@@YAXPAXH@Z			; CBEFLCSReset
PUBLIC	?CBExFLCSReset@@YAXPAXH@Z			; CBExFLCSReset
PUBLIC	?CBEFLTBIT@@YAXPAXH@Z				; CBEFLTBIT
PUBLIC	?CBExFLTBIT@@YAXPAXH@Z				; CBExFLTBIT
PUBLIC	?CBEOBOGSBit@@YAXPAXH@Z				; CBEOBOGSBit
PUBLIC	?CBExOBOGSBit@@YAXPAXH@Z			; CBExOBOGSBit
PUBLIC	?CBEMalIndLights@@YAXPAXH@Z			; CBEMalIndLights
PUBLIC	?CBExMalIndLights@@YAXPAXH@Z			; CBExMalIndLights
PUBLIC	?CBEProbeHeat@@YAXPAXH@Z			; CBEProbeHeat
PUBLIC	?CBExProbeHeat@@YAXPAXH@Z			; CBExProbeHeat
PUBLIC	?CBEEPUGEN@@YAXPAXH@Z				; CBEEPUGEN
PUBLIC	?CBExEPUGEN@@YAXPAXH@Z				; CBExEPUGEN
PUBLIC	?CBETestSwitch@@YAXPAXH@Z			; CBETestSwitch
PUBLIC	?CBExTestSwitch@@YAXPAXH@Z			; CBExTestSwitch
PUBLIC	?CBEOverHeat@@YAXPAXH@Z				; CBEOverHeat
PUBLIC	?CBExOverHeat@@YAXPAXH@Z			; CBExOverHeat
PUBLIC	?CBETrimAPDisc@@YAXPAXH@Z			; CBETrimAPDisc
PUBLIC	?CBExTrimAPDisc@@YAXPAXH@Z			; CBExTrimAPDisc
PUBLIC	?CBEMaxPower@@YAXPAXH@Z				; CBEMaxPower
PUBLIC	?CBExMaxPower@@YAXPAXH@Z			; CBExMaxPower
PUBLIC	?CBEABReset@@YAXPAXH@Z				; CBEABReset
PUBLIC	?CBExABReset@@YAXPAXH@Z				; CBExABReset
PUBLIC	?CBETrimNose@@YAXPAXH@Z				; CBETrimNose
PUBLIC	?CBETrimYaw@@YAXPAXH@Z				; CBETrimYaw
PUBLIC	?CBExTrimYaw@@YAXPAXH@Z				; CBExTrimYaw
PUBLIC	?CBETrimRoll@@YAXPAXH@Z				; CBETrimRoll
PUBLIC	?CBEMissileVol@@YAXPAXH@Z			; CBEMissileVol
PUBLIC	?CBExMissileVol@@YAXPAXH@Z			; CBExMissileVol
PUBLIC	?CBEThreatVol@@YAXPAXH@Z			; CBEThreatVol
PUBLIC	?CBExThreatVol@@YAXPAXH@Z			; CBExThreatVol
PUBLIC	?CBEDeprRet@@YAXPAXH@Z				; CBEDeprRet
PUBLIC	?CBExDeprRet@@YAXPAXH@Z				; CBExDeprRet
PUBLIC	?CBETFRButton@@YAXPAXH@Z			; CBETFRButton
PUBLIC	?CBEThrRevButton@@YAXPAXH@Z			; CBEThrRevButton
PUBLIC	?CBEFlap@@YAXPAXH@Z				; CBEFlap
PUBLIC	?CBExFlap@@YAXPAXH@Z				; CBExFlap
PUBLIC	?CBELef@@YAXPAXH@Z				; CBELef
PUBLIC	?CBEDragChute@@YAXPAXH@Z			; CBEDragChute
PUBLIC	?CBExDragChute@@YAXPAXH@Z			; CBExDragChute
PUBLIC	?CBECanopy@@YAXPAXH@Z				; CBECanopy
PUBLIC	?CBExCanopy@@YAXPAXH@Z				; CBExCanopy
PUBLIC	?CBEComm1Vol@@YAXPAXH@Z				; CBEComm1Vol
PUBLIC	?CBExComm1Vol@@YAXPAXH@Z			; CBExComm1Vol
PUBLIC	?CBEComm2Vol@@YAXPAXH@Z				; CBEComm2Vol
PUBLIC	?CBExComm2Vol@@YAXPAXH@Z			; CBExComm2Vol
PUBLIC	?CBESymWheel@@YAXPAXH@Z				; CBESymWheel
PUBLIC	?CBExSymWheel@@YAXPAXH@Z			; CBExSymWheel
PUBLIC	?CBESetNightPanel@@YAXPAXH@Z			; CBESetNightPanel
PUBLIC	?CBEDummyCallback@@YAXPAXH@Z			; CBEDummyCallback
PUBLIC	??$construct@PADAAPAD@?$_Wrap_alloc@V?$allocator@D@std@@@std@@QAEXPAPADAAPAD@Z ; std::_Wrap_alloc<std::allocator<char> >::construct<char *,char * &>
PUBLIC	??$destroy@PAD@?$_Wrap_alloc@V?$allocator@D@std@@@std@@QAEXPAPAD@Z ; std::_Wrap_alloc<std::allocator<char> >::destroy<char *>
PUBLIC	??$addressof@D@std@@YAPADAAD@Z			; std::addressof<char>
PUBLIC	??$_Allocate@D@std@@YAPADIPAD@Z			; std::_Allocate<char>
PUBLIC	??$forward@AAPAD@std@@YAAAPADAAPAD@Z		; std::forward<char * &>
PUBLIC	??$construct@PADAAPAD@?$allocator_traits@V?$allocator@D@std@@@std@@SAXAAV?$allocator@D@1@PAPADAAPAD@Z ; std::allocator_traits<std::allocator<char> >::construct<char *,char * &>
PUBLIC	??$destroy@PAD@?$allocator_traits@V?$allocator@D@std@@@std@@SAXAAV?$allocator@D@1@PAPAD@Z ; std::allocator_traits<std::allocator<char> >::destroy<char *>
PUBLIC	??$construct@PADAAPAD@?$allocator@D@std@@QAEXPAPADAAPAD@Z ; std::allocator<char>::construct<char *,char * &>
PUBLIC	??$destroy@PAD@?$allocator@D@std@@QAEXPAPAD@Z	; std::allocator<char>::destroy<char *>
PUBLIC	??_7error_category@std@@6B@			; std::error_category::`vftable'
PUBLIC	??_7_Generic_error_category@std@@6B@		; std::_Generic_error_category::`vftable'
PUBLIC	??_C@_07DCLBNMLN@generic?$AA@			; `string'
PUBLIC	??_C@_0O@BFJCFAAK@unknown?5error?$AA@		; `string'
PUBLIC	??_7_Iostream_error_category@std@@6B@		; std::_Iostream_error_category::`vftable'
PUBLIC	??_C@_08LLGCOLLL@iostream?$AA@			; `string'
PUBLIC	??_C@_0BG@PADBLCHM@iostream?5stream?5error?$AA@	; `string'
PUBLIC	??_7_System_error_category@std@@6B@		; std::_System_error_category::`vftable'
PUBLIC	??_C@_06FHFOAHML@system?$AA@			; `string'
PUBLIC	?_Generic_object@?$_Error_objects@H@std@@2V_Generic_error_category@2@A ; std::_Error_objects<int>::_Generic_object
PUBLIC	?_Iostream_object@?$_Error_objects@H@std@@2V_Iostream_error_category@2@A ; std::_Error_objects<int>::_Iostream_object
PUBLIC	?_System_object@?$_Error_objects@H@std@@2V_System_error_category@2@A ; std::_Error_objects<int>::_System_object
PUBLIC	?id@?$num_put@DV?$back_insert_iterator@V?$basic_string@DU?$char_traits@D@std@@V?$allocator@D@2@@std@@@std@@@std@@2V0locale@2@A ; std::num_put<char,std::back_insert_iterator<std::basic_string<char,std::char_traits<char>,std::allocator<char> > > >::id
PUBLIC	?id@?$num_put@_WV?$back_insert_iterator@V?$basic_string@_WU?$char_traits@_W@std@@V?$allocator@_W@2@@std@@@std@@@std@@2V0locale@2@A ; std::num_put<wchar_t,std::back_insert_iterator<std::basic_string<wchar_t,std::char_traits<wchar_t>,std::allocator<wchar_t> > > >::id
PUBLIC	?id@?$numpunct@D@std@@2V0locale@2@A		; std::numpunct<char>::id
PUBLIC	?id@?$numpunct@_W@std@@2V0locale@2@A		; std::numpunct<wchar_t>::id
PUBLIC	??_C@_0BI@CFPLBAOH@invalid?5string?5position?$AA@ ; `string'
PUBLIC	??_C@_0BA@JFNIOLAK@string?5too?5long?$AA@	; `string'
PUBLIC	??_R4error_category@std@@6B@			; std::error_category::`RTTI Complete Object Locator'
PUBLIC	??_R0?AVerror_category@std@@@8			; std::error_category `RTTI Type Descriptor'
PUBLIC	??_R3error_category@std@@8			; std::error_category::`RTTI Class Hierarchy Descriptor'
PUBLIC	??_R2error_category@std@@8			; std::error_category::`RTTI Base Class Array'
PUBLIC	??_R1A@?0A@EA@error_category@std@@8		; std::error_category::`RTTI Base Class Descriptor at (0,-1,0,64)'
PUBLIC	??_R4_Generic_error_category@std@@6B@		; std::_Generic_error_category::`RTTI Complete Object Locator'
PUBLIC	??_R0?AV_Generic_error_category@std@@@8		; std::_Generic_error_category `RTTI Type Descriptor'
PUBLIC	??_R3_Generic_error_category@std@@8		; std::_Generic_error_category::`RTTI Class Hierarchy Descriptor'
PUBLIC	??_R2_Generic_error_category@std@@8		; std::_Generic_error_category::`RTTI Base Class Array'
PUBLIC	??_R1A@?0A@EA@_Generic_error_category@std@@8	; std::_Generic_error_category::`RTTI Base Class Descriptor at (0,-1,0,64)'
PUBLIC	??_R4_Iostream_error_category@std@@6B@		; std::_Iostream_error_category::`RTTI Complete Object Locator'
PUBLIC	??_R0?AV_Iostream_error_category@std@@@8	; std::_Iostream_error_category `RTTI Type Descriptor'
PUBLIC	??_R3_Iostream_error_category@std@@8		; std::_Iostream_error_category::`RTTI Class Hierarchy Descriptor'
PUBLIC	??_R2_Iostream_error_category@std@@8		; std::_Iostream_error_category::`RTTI Base Class Array'
PUBLIC	??_R1A@?0A@EA@_Iostream_error_category@std@@8	; std::_Iostream_error_category::`RTTI Base Class Descriptor at (0,-1,0,64)'
PUBLIC	??_R4_System_error_category@std@@6B@		; std::_System_error_category::`RTTI Complete Object Locator'
PUBLIC	??_R0?AV_System_error_category@std@@@8		; std::_System_error_category `RTTI Type Descriptor'
PUBLIC	??_R3_System_error_category@std@@8		; std::_System_error_category::`RTTI Class Hierarchy Descriptor'
PUBLIC	??_R2_System_error_category@std@@8		; std::_System_error_category::`RTTI Base Class Array'
PUBLIC	??_R1A@?0A@EA@_System_error_category@std@@8	; std::_System_error_category::`RTTI Base Class Descriptor at (0,-1,0,64)'
PUBLIC	__real@00000000
PUBLIC	__real@41200000
PUBLIC	__real@42c80000
EXTRN	__purecall:PROC
EXTRN	??2@YAPAXI@Z:PROC				; operator new
EXTRN	??3@YAXPAX@Z:PROC				; operator delete
EXTRN	_atexit:PROC
EXTRN	_memcpy:PROC
EXTRN	_strlen:PROC
EXTRN	_memmove:PROC
EXTRN	?_Xbad_alloc@std@@YAXXZ:PROC			; std::_Xbad_alloc
EXTRN	?_Xlength_error@std@@YAXPBD@Z:PROC		; std::_Xlength_error
EXTRN	?_Xout_of_range@std@@YAXPBD@Z:PROC		; std::_Xout_of_range
EXTRN	??_Eerror_category@std@@UAEPAXI@Z:PROC		; std::error_category::`vector deleting destructor'
EXTRN	?_Syserror_map@std@@YAPBDH@Z:PROC		; std::_Syserror_map
EXTRN	?_Winerror_map@std@@YAPBDH@Z:PROC		; std::_Winerror_map
EXTRN	??_E_Generic_error_category@std@@UAEPAXI@Z:PROC	; std::_Generic_error_category::`vector deleting destructor'
EXTRN	??_E_Iostream_error_category@std@@UAEPAXI@Z:PROC ; std::_Iostream_error_category::`vector deleting destructor'
EXTRN	??_E_System_error_category@std@@UAEPAXI@Z:PROC	; std::_System_error_category::`vector deleting destructor'
EXTRN	?F4IsBadReadPtr@@YA_NPBXI@Z:PROC		; F4IsBadReadPtr
EXTRN	?FindSensor@@YAPAVSensorClass@@PAVSimMoverClass@@H@Z:PROC ; FindSensor
EXTRN	?GetPlayerAircraft@SimulationDriver@@QBEPAVAircraftClass@@XZ:PROC ; SimulationDriver::GetPlayerAircraft
EXTRN	?SimHookToggle@@YAXKHPAX@Z:PROC			; SimHookToggle
EXTRN	?SimThrottleIdleDetent@@YAXKHPAX@Z:PROC		; SimThrottleIdleDetent
EXTRN	?SimJfsStart@@YAXKHPAX@Z:PROC			; SimJfsStart
EXTRN	?SimEpuToggle@@YAXKHPAX@Z:PROC			; SimEpuToggle
EXTRN	?AFAlternateGear@@YAXKHPAX@Z:PROC		; AFAlternateGear
EXTRN	?AFAlternateGearReset@@YAXKHPAX@Z:PROC		; AFAlternateGearReset
EXTRN	?SimDecLeftAuxComDigit@@YAXKHPAX@Z:PROC		; SimDecLeftAuxComDigit
EXTRN	?SimDecCenterAuxComDigit@@YAXKHPAX@Z:PROC	; SimDecCenterAuxComDigit
EXTRN	?SimDecRightAuxComDigit@@YAXKHPAX@Z:PROC	; SimDecRightAuxComDigit
EXTRN	?SimInteriorLight@@YAXKHPAX@Z:PROC		; SimInteriorLight
EXTRN	?SimInstrumentLight@@YAXKHPAX@Z:PROC		; SimInstrumentLight
EXTRN	?SimSpotLight@@YAXKHPAX@Z:PROC			; SimSpotLight
EXTRN	?SimToggleTFR@@YAXKHPAX@Z:PROC			; SimToggleTFR
EXTRN	?SimMainPowerDec@@YAXKHPAX@Z:PROC		; SimMainPowerDec
EXTRN	?SimMainPowerInc@@YAXKHPAX@Z:PROC		; SimMainPowerInc
EXTRN	?AFIncFlap@@YAXKHPAX@Z:PROC			; AFIncFlap
EXTRN	?AFDecFlap@@YAXKHPAX@Z:PROC			; AFDecFlap
EXTRN	?AFIncLEF@@YAXKHPAX@Z:PROC			; AFIncLEF
EXTRN	?AFDecLEF@@YAXKHPAX@Z:PROC			; AFDecLEF
EXTRN	?AFDragChute@@YAXKHPAX@Z:PROC			; AFDragChute
EXTRN	?AFCanopyToggle@@YAXKHPAX@Z:PROC		; AFCanopyToggle
EXTRN	?SimReverseThrusterToggle@@YAXKHPAX@Z:PROC	; SimReverseThrusterToggle
EXTRN	?SimICPIFF@@YAXKHPAX@Z:PROC			; SimICPIFF
EXTRN	?SimICPLIST@@YAXKHPAX@Z:PROC			; SimICPLIST
EXTRN	?SimICPTHREE@@YAXKHPAX@Z:PROC			; SimICPTHREE
EXTRN	?SimICPSIX@@YAXKHPAX@Z:PROC			; SimICPSIX
EXTRN	?SimICPEIGHT@@YAXKHPAX@Z:PROC			; SimICPEIGHT
EXTRN	?SimICPNINE@@YAXKHPAX@Z:PROC			; SimICPNINE
EXTRN	?SimICPZERO@@YAXKHPAX@Z:PROC			; SimICPZERO
EXTRN	?SimICPResetDED@@YAXKHPAX@Z:PROC		; SimICPResetDED
EXTRN	?SimICPDEDUP@@YAXKHPAX@Z:PROC			; SimICPDEDUP
EXTRN	?SimICPDEDDOWN@@YAXKHPAX@Z:PROC			; SimICPDEDDOWN
EXTRN	?SimICPCLEAR@@YAXKHPAX@Z:PROC			; SimICPCLEAR
EXTRN	?SimICPDEDSEQ@@YAXKHPAX@Z:PROC			; SimICPDEDSEQ
EXTRN	?SimRALTSTDBY@@YAXKHPAX@Z:PROC			; SimRALTSTDBY
EXTRN	?SimRALTON@@YAXKHPAX@Z:PROC			; SimRALTON
EXTRN	?SimRALTOFF@@YAXKHPAX@Z:PROC			; SimRALTOFF
EXTRN	?SimLandingLightToggle@@YAXKHPAX@Z:PROC		; SimLandingLightToggle
EXTRN	?SimParkingBrakeToggle@@YAXKHPAX@Z:PROC		; SimParkingBrakeToggle
EXTRN	?SimLaserArmToggle@@YAXKHPAX@Z:PROC		; SimLaserArmToggle
EXTRN	?SimFuelDoorToggle@@YAXKHPAX@Z:PROC		; SimFuelDoorToggle
EXTRN	?SimRightAPSwitch@@YAXKHPAX@Z:PROC		; SimRightAPSwitch
EXTRN	?SimLeftAPSwitch@@YAXKHPAX@Z:PROC		; SimLeftAPSwitch
EXTRN	?SimAPOverride@@YAXKHPAX@Z:PROC			; SimAPOverride
EXTRN	?SimWarnReset@@YAXKHPAX@Z:PROC			; SimWarnReset
EXTRN	?SimReticleSwitch@@YAXKHPAX@Z:PROC		; SimReticleSwitch
EXTRN	?SimSeatArm@@YAXKHPAX@Z:PROC			; SimSeatArm
EXTRN	?SimEWSRWRPower@@YAXKHPAX@Z:PROC		; SimEWSRWRPower
EXTRN	?SimEWSJammerPower@@YAXKHPAX@Z:PROC		; SimEWSJammerPower
EXTRN	?SimEWSChaffPower@@YAXKHPAX@Z:PROC		; SimEWSChaffPower
EXTRN	?SimEWSFlarePower@@YAXKHPAX@Z:PROC		; SimEWSFlarePower
EXTRN	?SimEWSPGMDec@@YAXKHPAX@Z:PROC			; SimEWSPGMDec
EXTRN	?SimEWSPGMInc@@YAXKHPAX@Z:PROC			; SimEWSPGMInc
EXTRN	?SimEWSProgDec@@YAXKHPAX@Z:PROC			; SimEWSProgDec
EXTRN	?SimEWSProgInc@@YAXKHPAX@Z:PROC			; SimEWSProgInc
EXTRN	?SimInhibitVMS@@YAXKHPAX@Z:PROC			; SimInhibitVMS
EXTRN	?SimRFSwitch@@YAXKHPAX@Z:PROC			; SimRFSwitch
EXTRN	?SimPinkySwitch@@YAXKHPAX@Z:PROC		; SimPinkySwitch
EXTRN	?SimGndJettEnable@@YAXKHPAX@Z:PROC		; SimGndJettEnable
EXTRN	?SimExtlPower@@YAXKHPAX@Z:PROC			; SimExtlPower
EXTRN	?SimExtlAntiColl@@YAXKHPAX@Z:PROC		; SimExtlAntiColl
EXTRN	?SimExtlSteady@@YAXKHPAX@Z:PROC			; SimExtlSteady
EXTRN	?SimExtlWing@@YAXKHPAX@Z:PROC			; SimExtlWing
EXTRN	?SimAVTRSwitch@@YAXKHPAX@Z:PROC			; SimAVTRSwitch
EXTRN	?SimIFFPower@@YAXKHPAX@Z:PROC			; SimIFFPower
EXTRN	?SimINSInc@@YAXKHPAX@Z:PROC			; SimINSInc
EXTRN	?SimINSDec@@YAXKHPAX@Z:PROC			; SimINSDec
EXTRN	?SimLEFLockSwitch@@YAXKHPAX@Z:PROC		; SimLEFLockSwitch
EXTRN	?SimDigitalBUP@@YAXKHPAX@Z:PROC			; SimDigitalBUP
EXTRN	?SimAltFlaps@@YAXKHPAX@Z:PROC			; SimAltFlaps
EXTRN	?SimManualFlyup@@YAXKHPAX@Z:PROC		; SimManualFlyup
EXTRN	?SimFLCSReset@@YAXKHPAX@Z:PROC			; SimFLCSReset
EXTRN	?SimFLTBIT@@YAXKHPAX@Z:PROC			; SimFLTBIT
EXTRN	?SimOBOGSBit@@YAXKHPAX@Z:PROC			; SimOBOGSBit
EXTRN	?SimMalIndLights@@YAXKHPAX@Z:PROC		; SimMalIndLights
EXTRN	?SimProbeHeat@@YAXKHPAX@Z:PROC			; SimProbeHeat
EXTRN	?SimEPUGEN@@YAXKHPAX@Z:PROC			; SimEPUGEN
EXTRN	?SimTestSwitch@@YAXKHPAX@Z:PROC			; SimTestSwitch
EXTRN	?SimOverHeat@@YAXKHPAX@Z:PROC			; SimOverHeat
EXTRN	?SimTrimAPDisc@@YAXKHPAX@Z:PROC			; SimTrimAPDisc
EXTRN	?SimMaxPower@@YAXKHPAX@Z:PROC			; SimMaxPower
EXTRN	?SimABReset@@YAXKHPAX@Z:PROC			; SimABReset
EXTRN	?SimTrimNoseUp@@YAXKHPAX@Z:PROC			; SimTrimNoseUp
EXTRN	?SimTrimNoseDown@@YAXKHPAX@Z:PROC		; SimTrimNoseDown
EXTRN	?SimTrimYawLeft@@YAXKHPAX@Z:PROC		; SimTrimYawLeft
EXTRN	?SimTrimYawRight@@YAXKHPAX@Z:PROC		; SimTrimYawRight
EXTRN	?SimTrimRollLeft@@YAXKHPAX@Z:PROC		; SimTrimRollLeft
EXTRN	?SimTrimRollRight@@YAXKHPAX@Z:PROC		; SimTrimRollRight
EXTRN	?SimStepMissileVolumeDown@@YAXKHPAX@Z:PROC	; SimStepMissileVolumeDown
EXTRN	?SimStepMissileVolumeUp@@YAXKHPAX@Z:PROC	; SimStepMissileVolumeUp
EXTRN	?SimStepThreatVolumeDown@@YAXKHPAX@Z:PROC	; SimStepThreatVolumeDown
EXTRN	?SimStepThreatVolumeUp@@YAXKHPAX@Z:PROC		; SimStepThreatVolumeUp
EXTRN	?SimRetUp@@YAXKHPAX@Z:PROC			; SimRetUp
EXTRN	?SimRetDn@@YAXKHPAX@Z:PROC			; SimRetDn
EXTRN	?SimStepComm1VolumeUp@@YAXKHPAX@Z:PROC		; SimStepComm1VolumeUp
EXTRN	?SimStepComm1VolumeDown@@YAXKHPAX@Z:PROC	; SimStepComm1VolumeDown
EXTRN	?SimStepComm2VolumeUp@@YAXKHPAX@Z:PROC		; SimStepComm2VolumeUp
EXTRN	?SimStepComm2VolumeDown@@YAXKHPAX@Z:PROC	; SimStepComm2VolumeDown
EXTRN	?SimSymWheelUp@@YAXKHPAX@Z:PROC			; SimSymWheelUp
EXTRN	?SimSymWheelDn@@YAXKHPAX@Z:PROC			; SimSymWheelDn
EXTRN	?SimSMSPower@@YAXKHPAX@Z:PROC			; SimSMSPower
EXTRN	?SimFCCPower@@YAXKHPAX@Z:PROC			; SimFCCPower
EXTRN	?SimMFDPower@@YAXKHPAX@Z:PROC			; SimMFDPower
EXTRN	?SimUFCPower@@YAXKHPAX@Z:PROC			; SimUFCPower
EXTRN	?SimGPSPower@@YAXKHPAX@Z:PROC			; SimGPSPower
EXTRN	?SimDLPower@@YAXKHPAX@Z:PROC			; SimDLPower
EXTRN	?SimMAPPower@@YAXKHPAX@Z:PROC			; SimMAPPower
EXTRN	?SimTISLPower@@YAXKHPAX@Z:PROC			; SimTISLPower
EXTRN	?SimRightHptPower@@YAXKHPAX@Z:PROC		; SimRightHptPower
EXTRN	?SimLeftHptPower@@YAXKHPAX@Z:PROC		; SimLeftHptPower
EXTRN	?SimFCRPower@@YAXKHPAX@Z:PROC			; SimFCRPower
EXTRN	?SimHUDPower@@YAXKHPAX@Z:PROC			; SimHUDPower
EXTRN	?SimHUDOn@@YAXKHPAX@Z:PROC			; SimHUDOn
EXTRN	?SimHUDOff@@YAXKHPAX@Z:PROC			; SimHUDOff
EXTRN	?SimToggleAutopilot@@YAXKHPAX@Z:PROC		; SimToggleAutopilot
EXTRN	?SimDropChaff@@YAXKHPAX@Z:PROC			; SimDropChaff
EXTRN	?SimDropFlare@@YAXKHPAX@Z:PROC			; SimDropFlare
EXTRN	?SimToggleDropPattern@@YAXKHPAX@Z:PROC		; SimToggleDropPattern
EXTRN	?SimEject@@YAXKHPAX@Z:PROC			; SimEject
EXTRN	?AFGearToggle@@YAXKHPAX@Z:PROC			; AFGearToggle
EXTRN	?SimDriftCO@@YAXKHPAX@Z:PROC			; SimDriftCO
EXTRN	?SimCATSwitch@@YAXKHPAX@Z:PROC			; SimCATSwitch
EXTRN	?SimEmergencyJettison@@YAXKHPAX@Z:PROC		; SimEmergencyJettison
EXTRN	?SimECMOn@@YAXKHPAX@Z:PROC			; SimECMOn
EXTRN	?SimHsiCourseInc@@YAXKHPAX@Z:PROC		; SimHsiCourseInc
EXTRN	?SimHsiCourseDec@@YAXKHPAX@Z:PROC		; SimHsiCourseDec
EXTRN	?SimHsiHeadingInc@@YAXKHPAX@Z:PROC		; SimHsiHeadingInc
EXTRN	?SimHsiHeadingDec@@YAXKHPAX@Z:PROC		; SimHsiHeadingDec
EXTRN	?SimAVTRToggle@@YAXKHPAX@Z:PROC			; SimAVTRToggle
EXTRN	?SimMPOToggle@@YAXKHPAX@Z:PROC			; SimMPOToggle
EXTRN	?SimSilenceHorn@@YAXKHPAX@Z:PROC		; SimSilenceHorn
EXTRN	?SimStepHSIMode@@YAXKHPAX@Z:PROC		; SimStepHSIMode
EXTRN	?SimCBEOSB_1L@@YAXKHPAX@Z:PROC			; SimCBEOSB_1L
EXTRN	?SimCBEOSB_2L@@YAXKHPAX@Z:PROC			; SimCBEOSB_2L
EXTRN	?SimCBEOSB_3L@@YAXKHPAX@Z:PROC			; SimCBEOSB_3L
EXTRN	?SimCBEOSB_4L@@YAXKHPAX@Z:PROC			; SimCBEOSB_4L
EXTRN	?SimCBEOSB_5L@@YAXKHPAX@Z:PROC			; SimCBEOSB_5L
EXTRN	?SimCBEOSB_6L@@YAXKHPAX@Z:PROC			; SimCBEOSB_6L
EXTRN	?SimCBEOSB_7L@@YAXKHPAX@Z:PROC			; SimCBEOSB_7L
EXTRN	?SimCBEOSB_8L@@YAXKHPAX@Z:PROC			; SimCBEOSB_8L
EXTRN	?SimCBEOSB_9L@@YAXKHPAX@Z:PROC			; SimCBEOSB_9L
EXTRN	?SimCBEOSB_10L@@YAXKHPAX@Z:PROC			; SimCBEOSB_10L
EXTRN	?SimCBEOSB_11L@@YAXKHPAX@Z:PROC			; SimCBEOSB_11L
EXTRN	?SimCBEOSB_12L@@YAXKHPAX@Z:PROC			; SimCBEOSB_12L
EXTRN	?SimCBEOSB_13L@@YAXKHPAX@Z:PROC			; SimCBEOSB_13L
EXTRN	?SimCBEOSB_14L@@YAXKHPAX@Z:PROC			; SimCBEOSB_14L
EXTRN	?SimCBEOSB_15L@@YAXKHPAX@Z:PROC			; SimCBEOSB_15L
EXTRN	?SimCBEOSB_16L@@YAXKHPAX@Z:PROC			; SimCBEOSB_16L
EXTRN	?SimCBEOSB_17L@@YAXKHPAX@Z:PROC			; SimCBEOSB_17L
EXTRN	?SimCBEOSB_18L@@YAXKHPAX@Z:PROC			; SimCBEOSB_18L
EXTRN	?SimCBEOSB_19L@@YAXKHPAX@Z:PROC			; SimCBEOSB_19L
EXTRN	?SimCBEOSB_20L@@YAXKHPAX@Z:PROC			; SimCBEOSB_20L
EXTRN	?SimCBEOSB_1R@@YAXKHPAX@Z:PROC			; SimCBEOSB_1R
EXTRN	?SimCBEOSB_2R@@YAXKHPAX@Z:PROC			; SimCBEOSB_2R
EXTRN	?SimCBEOSB_3R@@YAXKHPAX@Z:PROC			; SimCBEOSB_3R
EXTRN	?SimCBEOSB_4R@@YAXKHPAX@Z:PROC			; SimCBEOSB_4R
EXTRN	?SimCBEOSB_5R@@YAXKHPAX@Z:PROC			; SimCBEOSB_5R
EXTRN	?SimCBEOSB_6R@@YAXKHPAX@Z:PROC			; SimCBEOSB_6R
EXTRN	?SimCBEOSB_7R@@YAXKHPAX@Z:PROC			; SimCBEOSB_7R
EXTRN	?SimCBEOSB_8R@@YAXKHPAX@Z:PROC			; SimCBEOSB_8R
EXTRN	?SimCBEOSB_9R@@YAXKHPAX@Z:PROC			; SimCBEOSB_9R
EXTRN	?SimCBEOSB_10R@@YAXKHPAX@Z:PROC			; SimCBEOSB_10R
EXTRN	?SimCBEOSB_11R@@YAXKHPAX@Z:PROC			; SimCBEOSB_11R
EXTRN	?SimCBEOSB_12R@@YAXKHPAX@Z:PROC			; SimCBEOSB_12R
EXTRN	?SimCBEOSB_13R@@YAXKHPAX@Z:PROC			; SimCBEOSB_13R
EXTRN	?SimCBEOSB_14R@@YAXKHPAX@Z:PROC			; SimCBEOSB_14R
EXTRN	?SimCBEOSB_15R@@YAXKHPAX@Z:PROC			; SimCBEOSB_15R
EXTRN	?SimCBEOSB_16R@@YAXKHPAX@Z:PROC			; SimCBEOSB_16R
EXTRN	?SimCBEOSB_17R@@YAXKHPAX@Z:PROC			; SimCBEOSB_17R
EXTRN	?SimCBEOSB_18R@@YAXKHPAX@Z:PROC			; SimCBEOSB_18R
EXTRN	?SimCBEOSB_19R@@YAXKHPAX@Z:PROC			; SimCBEOSB_19R
EXTRN	?SimCBEOSB_20R@@YAXKHPAX@Z:PROC			; SimCBEOSB_20R
EXTRN	?SimCBEOSB_1T@@YAXKHPAX@Z:PROC			; SimCBEOSB_1T
EXTRN	?SimCBEOSB_2T@@YAXKHPAX@Z:PROC			; SimCBEOSB_2T
EXTRN	?SimCBEOSB_3T@@YAXKHPAX@Z:PROC			; SimCBEOSB_3T
EXTRN	?SimCBEOSB_4T@@YAXKHPAX@Z:PROC			; SimCBEOSB_4T
EXTRN	?SimCBEOSB_5T@@YAXKHPAX@Z:PROC			; SimCBEOSB_5T
EXTRN	?SimCBEOSB_6T@@YAXKHPAX@Z:PROC			; SimCBEOSB_6T
EXTRN	?SimCBEOSB_7T@@YAXKHPAX@Z:PROC			; SimCBEOSB_7T
EXTRN	?SimCBEOSB_8T@@YAXKHPAX@Z:PROC			; SimCBEOSB_8T
EXTRN	?SimCBEOSB_9T@@YAXKHPAX@Z:PROC			; SimCBEOSB_9T
EXTRN	?SimCBEOSB_10T@@YAXKHPAX@Z:PROC			; SimCBEOSB_10T
EXTRN	?SimCBEOSB_11T@@YAXKHPAX@Z:PROC			; SimCBEOSB_11T
EXTRN	?SimCBEOSB_12T@@YAXKHPAX@Z:PROC			; SimCBEOSB_12T
EXTRN	?SimCBEOSB_13T@@YAXKHPAX@Z:PROC			; SimCBEOSB_13T
EXTRN	?SimCBEOSB_14T@@YAXKHPAX@Z:PROC			; SimCBEOSB_14T
EXTRN	?SimCBEOSB_15T@@YAXKHPAX@Z:PROC			; SimCBEOSB_15T
EXTRN	?SimCBEOSB_16T@@YAXKHPAX@Z:PROC			; SimCBEOSB_16T
EXTRN	?SimCBEOSB_17T@@YAXKHPAX@Z:PROC			; SimCBEOSB_17T
EXTRN	?SimCBEOSB_18T@@YAXKHPAX@Z:PROC			; SimCBEOSB_18T
EXTRN	?SimCBEOSB_19T@@YAXKHPAX@Z:PROC			; SimCBEOSB_19T
EXTRN	?SimCBEOSB_20T@@YAXKHPAX@Z:PROC			; SimCBEOSB_20T
EXTRN	?SimCBEOSB_1F@@YAXKHPAX@Z:PROC			; SimCBEOSB_1F
EXTRN	?SimCBEOSB_2F@@YAXKHPAX@Z:PROC			; SimCBEOSB_2F
EXTRN	?SimCBEOSB_3F@@YAXKHPAX@Z:PROC			; SimCBEOSB_3F
EXTRN	?SimCBEOSB_4F@@YAXKHPAX@Z:PROC			; SimCBEOSB_4F
EXTRN	?SimCBEOSB_5F@@YAXKHPAX@Z:PROC			; SimCBEOSB_5F
EXTRN	?SimCBEOSB_6F@@YAXKHPAX@Z:PROC			; SimCBEOSB_6F
EXTRN	?SimCBEOSB_7F@@YAXKHPAX@Z:PROC			; SimCBEOSB_7F
EXTRN	?SimCBEOSB_8F@@YAXKHPAX@Z:PROC			; SimCBEOSB_8F
EXTRN	?SimCBEOSB_9F@@YAXKHPAX@Z:PROC			; SimCBEOSB_9F
EXTRN	?SimCBEOSB_10F@@YAXKHPAX@Z:PROC			; SimCBEOSB_10F
EXTRN	?SimCBEOSB_11F@@YAXKHPAX@Z:PROC			; SimCBEOSB_11F
EXTRN	?SimCBEOSB_12F@@YAXKHPAX@Z:PROC			; SimCBEOSB_12F
EXTRN	?SimCBEOSB_13F@@YAXKHPAX@Z:PROC			; SimCBEOSB_13F
EXTRN	?SimCBEOSB_14F@@YAXKHPAX@Z:PROC			; SimCBEOSB_14F
EXTRN	?SimCBEOSB_15F@@YAXKHPAX@Z:PROC			; SimCBEOSB_15F
EXTRN	?SimCBEOSB_16F@@YAXKHPAX@Z:PROC			; SimCBEOSB_16F
EXTRN	?SimCBEOSB_17F@@YAXKHPAX@Z:PROC			; SimCBEOSB_17F
EXTRN	?SimCBEOSB_18F@@YAXKHPAX@Z:PROC			; SimCBEOSB_18F
EXTRN	?SimCBEOSB_19F@@YAXKHPAX@Z:PROC			; SimCBEOSB_19F
EXTRN	?SimCBEOSB_20F@@YAXKHPAX@Z:PROC			; SimCBEOSB_20F
EXTRN	?SimCBEOSB_GAINUP_T@@YAXKHPAX@Z:PROC		; SimCBEOSB_GAINUP_T
EXTRN	?SimCBEOSB_GAINUP_F@@YAXKHPAX@Z:PROC		; SimCBEOSB_GAINUP_F
EXTRN	?SimCBEOSB_GAINDOWN_T@@YAXKHPAX@Z:PROC		; SimCBEOSB_GAINDOWN_T
EXTRN	?SimCBEOSB_GAINDOWN_F@@YAXKHPAX@Z:PROC		; SimCBEOSB_GAINDOWN_F
EXTRN	?SimCBEOSB_GAINUP_R@@YAXKHPAX@Z:PROC		; SimCBEOSB_GAINUP_R
EXTRN	?SimCBEOSB_GAINUP_L@@YAXKHPAX@Z:PROC		; SimCBEOSB_GAINUP_L
EXTRN	?SimCBEOSB_GAINDOWN_R@@YAXKHPAX@Z:PROC		; SimCBEOSB_GAINDOWN_R
EXTRN	?SimCBEOSB_GAINDOWN_L@@YAXKHPAX@Z:PROC		; SimCBEOSB_GAINDOWN_L
EXTRN	?SimICPTILS@@YAXKHPAX@Z:PROC			; SimICPTILS
EXTRN	?SimICPALOW@@YAXKHPAX@Z:PROC			; SimICPALOW
EXTRN	?SimICPFAck@@YAXKHPAX@Z:PROC			; SimICPFAck
EXTRN	?SimICPPrevious@@YAXKHPAX@Z:PROC		; SimICPPrevious
EXTRN	?SimICPNext@@YAXKHPAX@Z:PROC			; SimICPNext
EXTRN	?SimICPLink@@YAXKHPAX@Z:PROC			; SimICPLink
EXTRN	?SimICPCrus@@YAXKHPAX@Z:PROC			; SimICPCrus
EXTRN	?SimICPStpt@@YAXKHPAX@Z:PROC			; SimICPStpt
EXTRN	?SimICPMark@@YAXKHPAX@Z:PROC			; SimICPMark
EXTRN	?SimICPEnter@@YAXKHPAX@Z:PROC			; SimICPEnter
EXTRN	?SimICPCom1@@YAXKHPAX@Z:PROC			; SimICPCom1
EXTRN	?SimICPCom2@@YAXKHPAX@Z:PROC			; SimICPCom2
EXTRN	?SimICPNav@@YAXKHPAX@Z:PROC			; SimICPNav
EXTRN	?SimICPAA@@YAXKHPAX@Z:PROC			; SimICPAA
EXTRN	?SimICPAG@@YAXKHPAX@Z:PROC			; SimICPAG
EXTRN	?SimHUDScales@@YAXKHPAX@Z:PROC			; SimHUDScales
EXTRN	?SimHUDFPM@@YAXKHPAX@Z:PROC			; SimHUDFPM
EXTRN	?SimHUDDED@@YAXKHPAX@Z:PROC			; SimHUDDED
EXTRN	?SimHUDVelocity@@YAXKHPAX@Z:PROC		; SimHUDVelocity
EXTRN	?SimHUDRadar@@YAXKHPAX@Z:PROC			; SimHUDRadar
EXTRN	?SimHUDBrightness@@YAXKHPAX@Z:PROC		; SimHUDBrightness
EXTRN	?SimCycleRadioChannel@@YAXKHPAX@Z:PROC		; SimCycleRadioChannel
EXTRN	?ExtinguishMasterCaution@@YAXKHPAX@Z:PROC	; ExtinguishMasterCaution
EXTRN	?SimCycleLeftAuxComDigit@@YAXKHPAX@Z:PROC	; SimCycleLeftAuxComDigit
EXTRN	?SimCycleCenterAuxComDigit@@YAXKHPAX@Z:PROC	; SimCycleCenterAuxComDigit
EXTRN	?SimCycleRightAuxComDigit@@YAXKHPAX@Z:PROC	; SimCycleRightAuxComDigit
EXTRN	?SimCycleBandAuxComDigit@@YAXKHPAX@Z:PROC	; SimCycleBandAuxComDigit
EXTRN	?SimToggleAuxComMaster@@YAXKHPAX@Z:PROC		; SimToggleAuxComMaster
EXTRN	?SimToggleAuxComAATR@@YAXKHPAX@Z:PROC		; SimToggleAuxComAATR
EXTRN	?SimToggleUHFMaster@@YAXKHPAX@Z:PROC		; SimToggleUHFMaster
EXTRN	?SimToggleExtLights@@YAXKHPAX@Z:PROC		; SimToggleExtLights
EXTRN	?OTWStepHudContrastDn@@YAXKHPAX@Z:PROC		; OTWStepHudContrastDn
EXTRN	?OTWStepHudContrastUp@@YAXKHPAX@Z:PROC		; OTWStepHudContrastUp
EXTRN	?IncFuelSwitch@AirframeClass@@QAEXXZ:PROC	; AirframeClass::IncFuelSwitch
EXTRN	?DecFuelSwitch@AirframeClass@@QAEXXZ:PROC	; AirframeClass::DecFuelSwitch
EXTRN	?IncFuelPump@AirframeClass@@QAEXXZ:PROC		; AirframeClass::IncFuelPump
EXTRN	?DecFuelPump@AirframeClass@@QAEXXZ:PROC		; AirframeClass::DecFuelPump
EXTRN	?IncAirSource@AirframeClass@@QAEXXZ:PROC	; AirframeClass::IncAirSource
EXTRN	?DecAirSource@AirframeClass@@QAEXXZ:PROC	; AirframeClass::DecAirSource
EXTRN	?GetTertiaryExclusiveButton@ICPClass@@QAEPAVCPButtonObject@@XZ:PROC ; ICPClass::GetTertiaryExclusiveButton
EXTRN	?GetSecondaryExclusiveButton@ICPClass@@QAEPAVCPButtonObject@@XZ:PROC ; ICPClass::GetSecondaryExclusiveButton
EXTRN	?GetPrimaryExclusiveButton@ICPClass@@QAEPAVCPButtonObject@@XZ:PROC ; ICPClass::GetPrimaryExclusiveButton
EXTRN	?StepUHFPostion@CPMisc@@QAEXXZ:PROC		; CPMisc::StepUHFPostion
EXTRN	?SetEjectButtonState@CPMisc@@QAEXH@Z:PROC	; CPMisc::SetEjectButtonState
EXTRN	?GetEjectButtonState@CPMisc@@QAEHXZ:PROC	; CPMisc::GetEjectButtonState
EXTRN	?SetActivePanel@CockpitManager@@QAE_NH@Z:PROC	; CockpitManager::SetActivePanel
EXTRN	?SetCurrentState@CPButtonObject@@QAEXH@Z:PROC	; CPButtonObject::SetCurrentState
EXTRN	?IncrementState@CPButtonObject@@QAEXXZ:PROC	; CPButtonObject::IncrementState
EXTRN	?DecrementState@CPButtonObject@@QAEXXZ:PROC	; CPButtonObject::DecrementState
EXTRN	?GetScalesSwitch@HudClass@@QAEHXZ:PROC		; HudClass::GetScalesSwitch
EXTRN	?GetFPMSwitch@HudClass@@QAEHXZ:PROC		; HudClass::GetFPMSwitch
EXTRN	?GetDriftCOSwitch@HudClass@@QAEHXZ:PROC		; HudClass::GetDriftCOSwitch
EXTRN	?GetDEDSwitch@HudClass@@QAEHXZ:PROC		; HudClass::GetDEDSwitch
EXTRN	?GetVelocitySwitch@HudClass@@QAEHXZ:PROC	; HudClass::GetVelocitySwitch
EXTRN	?GetRadarSwitch@HudClass@@QAEHXZ:PROC		; HudClass::GetRadarSwitch
EXTRN	?GetBrightnessSwitch@HudClass@@QAEHXZ:PROC	; HudClass::GetBrightnessSwitch
EXTRN	?GetUHFSrc@NavigationSystem@@QAE?AW4UHF_Mode_Type@1@XZ:PROC ; NavigationSystem::GetUHFSrc
EXTRN	?GetDomain@NavigationSystem@@QAE?AW4Domain@TacanList@@W4Tacan_Channel_Src@1@@Z:PROC ; NavigationSystem::GetDomain
EXTRN	?GetControlSrc@NavigationSystem@@QAE?AW4Tacan_Channel_Src@1@XZ:PROC ; NavigationSystem::GetControlSrc
EXTRN	?GetInstrumentMode@NavigationSystem@@QAE?AW4Instrument_Mode@1@XZ:PROC ; NavigationSystem::GetInstrumentMode
EXTRN	?GetTacanChannel@NavigationSystem@@QAEHW4Tacan_Channel_Src@1@H@Z:PROC ; NavigationSystem::GetTacanChannel
EXTRN	?GetTacanBand@NavigationSystem@@QAE?AW4StationSet@TacanList@@W4Tacan_Channel_Src@1@@Z:PROC ; NavigationSystem::GetTacanBand
EXTRN	?GetState@CPHsi@@QAEHW4HSIButtonStates@1@@Z:PROC ; CPHsi::GetState
EXTRN	@__security_check_cookie@4:PROC
EXTRN	__CxxThrowException@8:PROC
EXTRN	___CxxFrameHandler3:PROC
EXTRN	??_7type_info@@6B@:QWORD			; type_info::`vftable'
EXTRN	?OTWDriver@@3VOTWDriverClass@@A:BYTE		; OTWDriver
EXTRN	?g_bRealisticAvionics@@3_NA:BYTE		; g_bRealisticAvionics
EXTRN	?SimDriver@@3VSimulationDriver@@A:BYTE		; SimDriver
EXTRN	?TheHud@@3PAVHudClass@@A:DWORD			; TheHud
EXTRN	?gNavigationSys@@3PAVNavigationSystem@@A:DWORD	; gNavigationSys
EXTRN	?UserStickInputs@@3VPilotInputs@@A:BYTE		; UserStickInputs
EXTRN	?IO@@3VSIMLIB_IO_CLASS@@A:BYTE			; IO
EXTRN	?g_bIFF@@3_NA:BYTE				; g_bIFF
EXTRN	?g_bMLU@@3_NA:BYTE				; g_bMLU
EXTRN	___security_cookie:DWORD
EXTRN	__fltused:DWORD
_BSS	SEGMENT
_piecewise_construct DB 01H DUP (?)
_allocator_arg DB 01H DUP (?)
_BSS	ENDS
;	COMDAT ?_Generic_object@?$_Error_objects@H@std@@2V_Generic_error_category@2@A
_BSS	SEGMENT
?_Generic_object@?$_Error_objects@H@std@@2V_Generic_error_category@2@A DD 01H DUP (?) ; std::_Error_objects<int>::_Generic_object
_BSS	ENDS
;	COMDAT ?_Iostream_object@?$_Error_objects@H@std@@2V_Iostream_error_category@2@A
_BSS	SEGMENT
?_Iostream_object@?$_Error_objects@H@std@@2V_Iostream_error_category@2@A DD 01H DUP (?) ; std::_Error_objects<int>::_Iostream_object
_BSS	ENDS
;	COMDAT ?_System_object@?$_Error_objects@H@std@@2V_System_error_category@2@A
_BSS	SEGMENT
?_System_object@?$_Error_objects@H@std@@2V_System_error_category@2@A DD 01H DUP (?) ; std::_Error_objects<int>::_System_object
_BSS	ENDS
;	COMDAT ?id@?$num_put@DV?$back_insert_iterator@V?$basic_string@DU?$char_traits@D@std@@V?$allocator@D@2@@std@@@std@@@std@@2V0locale@2@A
_BSS	SEGMENT
?id@?$num_put@DV?$back_insert_iterator@V?$basic_string@DU?$char_traits@D@std@@V?$allocator@D@2@@std@@@std@@@std@@2V0locale@2@A DD 01H DUP (?) ; std::num_put<char,std::back_insert_iterator<std::basic_string<char,std::char_traits<char>,std::allocator<char> > > >::id
_BSS	ENDS
;	COMDAT ?id@?$num_put@_WV?$back_insert_iterator@V?$basic_string@_WU?$char_traits@_W@std@@V?$allocator@_W@2@@std@@@std@@@std@@2V0locale@2@A
_BSS	SEGMENT
?id@?$num_put@_WV?$back_insert_iterator@V?$basic_string@_WU?$char_traits@_W@std@@V?$allocator@_W@2@@std@@@std@@@std@@2V0locale@2@A DD 01H DUP (?) ; std::num_put<wchar_t,std::back_insert_iterator<std::basic_string<wchar_t,std::char_traits<wchar_t>,std::allocator<wchar_t> > > >::id
_BSS	ENDS
;	COMDAT ?id@?$numpunct@D@std@@2V0locale@2@A
_BSS	SEGMENT
?id@?$numpunct@D@std@@2V0locale@2@A DD 01H DUP (?)	; std::numpunct<char>::id
_BSS	ENDS
;	COMDAT ?id@?$numpunct@_W@std@@2V0locale@2@A
_BSS	SEGMENT
?id@?$numpunct@_W@std@@2V0locale@2@A DD 01H DUP (?)	; std::numpunct<wchar_t>::id
_BSS	ENDS
CRT$XCU	SEGMENT
_piecewise_construct$initializer$ DD FLAT:??__Epiecewise_construct@std@@YAXXZ
CRT$XCU	ENDS
;	COMDAT __real@42c80000
CONST	SEGMENT
__real@42c80000 DD 042c80000r			; 100
CONST	ENDS
;	COMDAT __real@41200000
CONST	SEGMENT
__real@41200000 DD 041200000r			; 10
CONST	ENDS
;	COMDAT __real@00000000
CONST	SEGMENT
__real@00000000 DD 000000000r			; 0
CONST	ENDS
;	COMDAT ??_R1A@?0A@EA@_System_error_category@std@@8
rdata$r	SEGMENT
??_R1A@?0A@EA@_System_error_category@std@@8 DD FLAT:??_R0?AV_System_error_category@std@@@8 ; std::_System_error_category::`RTTI Base Class Descriptor at (0,-1,0,64)'
	DD	02H
	DD	00H
	DD	0ffffffffH
	DD	00H
	DD	040H
	DD	FLAT:??_R3_System_error_category@std@@8
rdata$r	ENDS
;	COMDAT ??_R2_System_error_category@std@@8
rdata$r	SEGMENT
??_R2_System_error_category@std@@8 DD FLAT:??_R1A@?0A@EA@_System_error_category@std@@8 ; std::_System_error_category::`RTTI Base Class Array'
	DD	FLAT:??_R1A@?0A@EA@_Generic_error_category@std@@8
	DD	FLAT:??_R1A@?0A@EA@error_category@std@@8
rdata$r	ENDS
;	COMDAT ??_R3_System_error_category@std@@8
rdata$r	SEGMENT
??_R3_System_error_category@std@@8 DD 00H		; std::_System_error_category::`RTTI Class Hierarchy Descriptor'
	DD	00H
	DD	03H
	DD	FLAT:??_R2_System_error_category@std@@8
rdata$r	ENDS
;	COMDAT ??_R0?AV_System_error_category@std@@@8
_DATA	SEGMENT
??_R0?AV_System_error_category@std@@@8 DD FLAT:??_7type_info@@6B@ ; std::_System_error_category `RTTI Type Descriptor'
	DD	00H
	DB	'.?AV_System_error_category@std@@', 00H
_DATA	ENDS
;	COMDAT ??_R4_System_error_category@std@@6B@
rdata$r	SEGMENT
??_R4_System_error_category@std@@6B@ DD 00H		; std::_System_error_category::`RTTI Complete Object Locator'
	DD	00H
	DD	00H
	DD	FLAT:??_R0?AV_System_error_category@std@@@8
	DD	FLAT:??_R3_System_error_category@std@@8
rdata$r	ENDS
;	COMDAT ??_R1A@?0A@EA@_Iostream_error_category@std@@8
rdata$r	SEGMENT
??_R1A@?0A@EA@_Iostream_error_category@std@@8 DD FLAT:??_R0?AV_Iostream_error_category@std@@@8 ; std::_Iostream_error_category::`RTTI Base Class Descriptor at (0,-1,0,64)'
	DD	02H
	DD	00H
	DD	0ffffffffH
	DD	00H
	DD	040H
	DD	FLAT:??_R3_Iostream_error_category@std@@8
rdata$r	ENDS
;	COMDAT ??_R2_Iostream_error_category@std@@8
rdata$r	SEGMENT
??_R2_Iostream_error_category@std@@8 DD FLAT:??_R1A@?0A@EA@_Iostream_error_category@std@@8 ; std::_Iostream_error_category::`RTTI Base Class Array'
	DD	FLAT:??_R1A@?0A@EA@_Generic_error_category@std@@8
	DD	FLAT:??_R1A@?0A@EA@error_category@std@@8
rdata$r	ENDS
;	COMDAT ??_R3_Iostream_error_category@std@@8
rdata$r	SEGMENT
??_R3_Iostream_error_category@std@@8 DD 00H		; std::_Iostream_error_category::`RTTI Class Hierarchy Descriptor'
	DD	00H
	DD	03H
	DD	FLAT:??_R2_Iostream_error_category@std@@8
rdata$r	ENDS
;	COMDAT ??_R0?AV_Iostream_error_category@std@@@8
_DATA	SEGMENT
??_R0?AV_Iostream_error_category@std@@@8 DD FLAT:??_7type_info@@6B@ ; std::_Iostream_error_category `RTTI Type Descriptor'
	DD	00H
	DB	'.?AV_Iostream_error_category@std@@', 00H
_DATA	ENDS
;	COMDAT ??_R4_Iostream_error_category@std@@6B@
rdata$r	SEGMENT
??_R4_Iostream_error_category@std@@6B@ DD 00H		; std::_Iostream_error_category::`RTTI Complete Object Locator'
	DD	00H
	DD	00H
	DD	FLAT:??_R0?AV_Iostream_error_category@std@@@8
	DD	FLAT:??_R3_Iostream_error_category@std@@8
rdata$r	ENDS
;	COMDAT ??_R1A@?0A@EA@_Generic_error_category@std@@8
rdata$r	SEGMENT
??_R1A@?0A@EA@_Generic_error_category@std@@8 DD FLAT:??_R0?AV_Generic_error_category@std@@@8 ; std::_Generic_error_category::`RTTI Base Class Descriptor at (0,-1,0,64)'
	DD	01H
	DD	00H
	DD	0ffffffffH
	DD	00H
	DD	040H
	DD	FLAT:??_R3_Generic_error_category@std@@8
rdata$r	ENDS
;	COMDAT ??_R2_Generic_error_category@std@@8
rdata$r	SEGMENT
??_R2_Generic_error_category@std@@8 DD FLAT:??_R1A@?0A@EA@_Generic_error_category@std@@8 ; std::_Generic_error_category::`RTTI Base Class Array'
	DD	FLAT:??_R1A@?0A@EA@error_category@std@@8
rdata$r	ENDS
;	COMDAT ??_R3_Generic_error_category@std@@8
rdata$r	SEGMENT
??_R3_Generic_error_category@std@@8 DD 00H		; std::_Generic_error_category::`RTTI Class Hierarchy Descriptor'
	DD	00H
	DD	02H
	DD	FLAT:??_R2_Generic_error_category@std@@8
rdata$r	ENDS
;	COMDAT ??_R0?AV_Generic_error_category@std@@@8
_DATA	SEGMENT
??_R0?AV_Generic_error_category@std@@@8 DD FLAT:??_7type_info@@6B@ ; std::_Generic_error_category `RTTI Type Descriptor'
	DD	00H
	DB	'.?AV_Generic_error_category@std@@', 00H
_DATA	ENDS
;	COMDAT ??_R4_Generic_error_category@std@@6B@
rdata$r	SEGMENT
??_R4_Generic_error_category@std@@6B@ DD 00H		; std::_Generic_error_category::`RTTI Complete Object Locator'
	DD	00H
	DD	00H
	DD	FLAT:??_R0?AV_Generic_error_category@std@@@8
	DD	FLAT:??_R3_Generic_error_category@std@@8
rdata$r	ENDS
;	COMDAT ??_R1A@?0A@EA@error_category@std@@8
rdata$r	SEGMENT
??_R1A@?0A@EA@error_category@std@@8 DD FLAT:??_R0?AVerror_category@std@@@8 ; std::error_category::`RTTI Base Class Descriptor at (0,-1,0,64)'
	DD	00H
	DD	00H
	DD	0ffffffffH
	DD	00H
	DD	040H
	DD	FLAT:??_R3error_category@std@@8
rdata$r	ENDS
;	COMDAT ??_R2error_category@std@@8
rdata$r	SEGMENT
??_R2error_category@std@@8 DD FLAT:??_R1A@?0A@EA@error_category@std@@8 ; std::error_category::`RTTI Base Class Array'
rdata$r	ENDS
;	COMDAT ??_R3error_category@std@@8
rdata$r	SEGMENT
??_R3error_category@std@@8 DD 00H			; std::error_category::`RTTI Class Hierarchy Descriptor'
	DD	00H
	DD	01H
	DD	FLAT:??_R2error_category@std@@8
rdata$r	ENDS
;	COMDAT ??_R0?AVerror_category@std@@@8
_DATA	SEGMENT
??_R0?AVerror_category@std@@@8 DD FLAT:??_7type_info@@6B@ ; std::error_category `RTTI Type Descriptor'
	DD	00H
	DB	'.?AVerror_category@std@@', 00H
_DATA	ENDS
;	COMDAT ??_R4error_category@std@@6B@
rdata$r	SEGMENT
??_R4error_category@std@@6B@ DD 00H			; std::error_category::`RTTI Complete Object Locator'
	DD	00H
	DD	00H
	DD	FLAT:??_R0?AVerror_category@std@@@8
	DD	FLAT:??_R3error_category@std@@8
rdata$r	ENDS
;	COMDAT ??_C@_0BA@JFNIOLAK@string?5too?5long?$AA@
CONST	SEGMENT
??_C@_0BA@JFNIOLAK@string?5too?5long?$AA@ DB 'string too long', 00H ; `string'
CONST	ENDS
;	COMDAT ??_C@_0BI@CFPLBAOH@invalid?5string?5position?$AA@
CONST	SEGMENT
??_C@_0BI@CFPLBAOH@invalid?5string?5position?$AA@ DB 'invalid string posi'
	DB	'tion', 00H					; `string'
CONST	ENDS
;	COMDAT ??_C@_06FHFOAHML@system?$AA@
CONST	SEGMENT
??_C@_06FHFOAHML@system?$AA@ DB 'system', 00H		; `string'
CONST	ENDS
;	COMDAT ??_7_System_error_category@std@@6B@
CONST	SEGMENT
??_7_System_error_category@std@@6B@ DD FLAT:??_R4_System_error_category@std@@6B@ ; std::_System_error_category::`vftable'
	DD	FLAT:??_E_System_error_category@std@@UAEPAXI@Z
	DD	FLAT:?name@_System_error_category@std@@UBEPBDXZ
	DD	FLAT:?message@_System_error_category@std@@UBE?AV?$basic_string@DU?$char_traits@D@std@@V?$allocator@D@2@@2@H@Z
	DD	FLAT:?default_error_condition@_System_error_category@std@@UBE?AVerror_condition@2@H@Z
	DD	FLAT:?equivalent@error_category@std@@UBE_NABVerror_code@2@H@Z
	DD	FLAT:?equivalent@error_category@std@@UBE_NHABVerror_condition@2@@Z
CONST	ENDS
;	COMDAT ??_C@_0BG@PADBLCHM@iostream?5stream?5error?$AA@
CONST	SEGMENT
??_C@_0BG@PADBLCHM@iostream?5stream?5error?$AA@ DB 'iostream stream error'
	DB	00H						; `string'
CONST	ENDS
;	COMDAT ??_C@_08LLGCOLLL@iostream?$AA@
CONST	SEGMENT
??_C@_08LLGCOLLL@iostream?$AA@ DB 'iostream', 00H	; `string'
CONST	ENDS
;	COMDAT ??_7_Iostream_error_category@std@@6B@
CONST	SEGMENT
??_7_Iostream_error_category@std@@6B@ DD FLAT:??_R4_Iostream_error_category@std@@6B@ ; std::_Iostream_error_category::`vftable'
	DD	FLAT:??_E_Iostream_error_category@std@@UAEPAXI@Z
	DD	FLAT:?name@_Iostream_error_category@std@@UBEPBDXZ
	DD	FLAT:?message@_Iostream_error_category@std@@UBE?AV?$basic_string@DU?$char_traits@D@std@@V?$allocator@D@2@@2@H@Z
	DD	FLAT:?default_error_condition@error_category@std@@UBE?AVerror_condition@2@H@Z
	DD	FLAT:?equivalent@error_category@std@@UBE_NABVerror_code@2@H@Z
	DD	FLAT:?equivalent@error_category@std@@UBE_NHABVerror_condition@2@@Z
CONST	ENDS
;	COMDAT ??_C@_0O@BFJCFAAK@unknown?5error?$AA@
CONST	SEGMENT
??_C@_0O@BFJCFAAK@unknown?5error?$AA@ DB 'unknown error', 00H ; `string'
CONST	ENDS
;	COMDAT ??_C@_07DCLBNMLN@generic?$AA@
CONST	SEGMENT
??_C@_07DCLBNMLN@generic?$AA@ DB 'generic', 00H		; `string'
CONST	ENDS
;	COMDAT ??_7_Generic_error_category@std@@6B@
CONST	SEGMENT
??_7_Generic_error_category@std@@6B@ DD FLAT:??_R4_Generic_error_category@std@@6B@ ; std::_Generic_error_category::`vftable'
	DD	FLAT:??_E_Generic_error_category@std@@UAEPAXI@Z
	DD	FLAT:?name@_Generic_error_category@std@@UBEPBDXZ
	DD	FLAT:?message@_Generic_error_category@std@@UBE?AV?$basic_string@DU?$char_traits@D@std@@V?$allocator@D@2@@2@H@Z
	DD	FLAT:?default_error_condition@error_category@std@@UBE?AVerror_condition@2@H@Z
	DD	FLAT:?equivalent@error_category@std@@UBE_NABVerror_code@2@H@Z
	DD	FLAT:?equivalent@error_category@std@@UBE_NHABVerror_condition@2@@Z
CONST	ENDS
;	COMDAT ??_7error_category@std@@6B@
CONST	SEGMENT
??_7error_category@std@@6B@ DD FLAT:??_R4error_category@std@@6B@ ; std::error_category::`vftable'
	DD	FLAT:??_Eerror_category@std@@UAEPAXI@Z
	DD	FLAT:__purecall
	DD	FLAT:__purecall
	DD	FLAT:?default_error_condition@error_category@std@@UBE?AVerror_condition@2@H@Z
	DD	FLAT:?equivalent@error_category@std@@UBE_NABVerror_code@2@H@Z
	DD	FLAT:?equivalent@error_category@std@@UBE_NHABVerror_condition@2@@Z
CONST	ENDS
;	COMDAT xdata$x
xdata$x	SEGMENT
__unwindtable$??$construct@PADAAPAD@?$allocator@D@std@@QAEXPAPADAAPAD@Z DD 0ffffffffH
	DD	FLAT:__unwindfunclet$??$construct@PADAAPAD@?$allocator@D@std@@QAEXPAPADAAPAD@Z$0
__ehfuncinfo$??$construct@PADAAPAD@?$allocator@D@std@@QAEXPAPADAAPAD@Z DD 019930522H
	DD	01H
	DD	FLAT:__unwindtable$??$construct@PADAAPAD@?$allocator@D@std@@QAEXPAPADAAPAD@Z
	DD	2 DUP(00H)
	DD	2 DUP(00H)
	DD	00H
	DD	01H
xdata$x	ENDS
;	COMDAT xdata$x
xdata$x	SEGMENT
__catchsym$?_Copy@?$basic_string@DU?$char_traits@D@std@@V?$allocator@D@2@@std@@QAEXII@Z$5 DD 040H
	DD	00H
	DD	00H
	DD	FLAT:__catch$?_Copy@?$basic_string@DU?$char_traits@D@std@@V?$allocator@D@2@@std@@QAEXII@Z$0
__catchsym$?_Copy@?$basic_string@DU?$char_traits@D@std@@V?$allocator@D@2@@std@@QAEXII@Z$4 DD 040H
	DD	00H
	DD	00H
	DD	FLAT:__catch$?_Copy@?$basic_string@DU?$char_traits@D@std@@V?$allocator@D@2@@std@@QAEXII@Z$1
__unwindtable$?_Copy@?$basic_string@DU?$char_traits@D@std@@V?$allocator@D@2@@std@@QAEXII@Z DD 0ffffffffH
	DD	00H
	DD	0ffffffffH
	DD	00H
	DD	01H
	DD	00H
	DD	01H
	DD	00H
__ehfuncinfo$?_Copy@?$basic_string@DU?$char_traits@D@std@@V?$allocator@D@2@@std@@QAEXII@Z DD 019930522H
	DD	04H
	DD	FLAT:__unwindtable$?_Copy@?$basic_string@DU?$char_traits@D@std@@V?$allocator@D@2@@std@@QAEXII@Z
	DD	02H
	DD	FLAT:__tryblocktable$?_Copy@?$basic_string@DU?$char_traits@D@std@@V?$allocator@D@2@@std@@QAEXII@Z
	DD	2 DUP(00H)
	DD	00H
	DD	01H
__tryblocktable$?_Copy@?$basic_string@DU?$char_traits@D@std@@V?$allocator@D@2@@std@@QAEXII@Z DD 02H
	DD	02H
	DD	03H
	DD	01H
	DD	FLAT:__catchsym$?_Copy@?$basic_string@DU?$char_traits@D@std@@V?$allocator@D@2@@std@@QAEXII@Z$4
	DD	00H
	DD	00H
	DD	03H
	DD	01H
	DD	FLAT:__catchsym$?_Copy@?$basic_string@DU?$char_traits@D@std@@V?$allocator@D@2@@std@@QAEXII@Z$5
xdata$x	ENDS
CRT$XCU	SEGMENT
_allocator_arg$initializer$ DD FLAT:??__Eallocator_arg@std@@YAXXZ
CRT$XCU	ENDS
;	COMDAT CRT$XCU
CRT$XCU	SEGMENT
?_Generic_object$initializer$@?$_Error_objects@H@std@@2P6AXXZA DD FLAT:??__E?_Generic_object@?$_Error_objects@H@std@@2V_Generic_error_category@2@A@@YAXXZ ; std::_Error_objects<int>::_Generic_object$initializer$
CRT$XCU	ENDS
;	COMDAT CRT$XCU
CRT$XCU	SEGMENT
?_Iostream_object$initializer$@?$_Error_objects@H@std@@2P6AXXZA DD FLAT:??__E?_Iostream_object@?$_Error_objects@H@std@@2V_Iostream_error_category@2@A@@YAXXZ ; std::_Error_objects<int>::_Iostream_object$initializer$
CRT$XCU	ENDS
;	COMDAT CRT$XCU
CRT$XCU	SEGMENT
?_System_object$initializer$@?$_Error_objects@H@std@@2P6AXXZA DD FLAT:??__E?_System_object@?$_Error_objects@H@std@@2V_System_error_category@2@A@@YAXXZ ; std::_Error_objects<int>::_System_object$initializer$
CRT$XCU	ENDS
;	COMDAT CRT$XCU
CRT$XCU	SEGMENT
?id$initializer$@?$num_put@DV?$back_insert_iterator@V?$basic_string@DU?$char_traits@D@std@@V?$allocator@D@2@@std@@@std@@@std@@2P6AXXZA DD FLAT:??__E?id@?$num_put@DV?$back_insert_iterator@V?$basic_string@DU?$char_traits@D@std@@V?$allocator@D@2@@std@@@std@@@std@@2V0locale@2@A@@YAXXZ ; std::num_put<char,std::back_insert_iterator<std::basic_string<char,std::char_traits<char>,std::allocator<char> > > >::id$initializer$
CRT$XCU	ENDS
;	COMDAT CRT$XCU
CRT$XCU	SEGMENT
?id$initializer$@?$num_put@_WV?$back_insert_iterator@V?$basic_string@_WU?$char_traits@_W@std@@V?$allocator@_W@2@@std@@@std@@@std@@2P6AXXZA DD FLAT:??__E?id@?$num_put@_WV?$back_insert_iterator@V?$basic_string@_WU?$char_traits@_W@std@@V?$allocator@_W@2@@std@@@std@@@std@@2V0locale@2@A@@YAXXZ ; std::num_put<wchar_t,std::back_insert_iterator<std::basic_string<wchar_t,std::char_traits<wchar_t>,std::allocator<wchar_t> > > >::id$initializer$
CRT$XCU	ENDS
;	COMDAT CRT$XCU
CRT$XCU	SEGMENT
?id$initializer$@?$numpunct@D@std@@2P6AXXZA DD FLAT:??__E?id@?$numpunct@D@std@@2V0locale@2@A@@YAXXZ ; std::numpunct<char>::id$initializer$
CRT$XCU	ENDS
;	COMDAT CRT$XCU
CRT$XCU	SEGMENT
?id$initializer$@?$numpunct@_W@std@@2P6AXXZA DD FLAT:??__E?id@?$numpunct@_W@std@@2V0locale@2@A@@YAXXZ ; std::numpunct<wchar_t>::id$initializer$
CRT$XCU	ENDS
; Function compile flags: /Odtp
; File c:\program files (x86)\microsoft visual studio 11.0\vc\include\xmemory0
;	COMDAT ??$destroy@PAD@?$allocator@D@std@@QAEXPAPAD@Z
_TEXT	SEGMENT
_this$ = -4						; size = 4
__Ptr$ = 8						; size = 4
??$destroy@PAD@?$allocator@D@std@@QAEXPAPAD@Z PROC	; std::allocator<char>::destroy<char *>, COMDAT
; _this$ = ecx

; 621  : 		void destroy(_Uty *_Ptr)

	push	ebp
	mov	ebp, esp
	push	ecx
	mov	DWORD PTR _this$[ebp], ecx

; 622  : 		{	// destroy object at _Ptr
; 623  : 		_Ptr->~_Uty();
; 624  : 		}

	mov	esp, ebp
	pop	ebp
	ret	4
??$destroy@PAD@?$allocator@D@std@@QAEXPAPAD@Z ENDP	; std::allocator<char>::destroy<char *>
_TEXT	ENDS
; Function compile flags: /Odtp
; File c:\program files (x86)\microsoft visual studio 11.0\vc\include\xmemory0
;	COMDAT ??$construct@PADAAPAD@?$allocator@D@std@@QAEXPAPADAAPAD@Z
_TEXT	SEGMENT
$T2 = -28						; size = 4
_this$ = -24						; size = 4
tv73 = -20						; size = 4
$T3 = -16						; size = 4
__$EHRec$ = -12						; size = 12
__Ptr$ = 8						; size = 4
__V0$ = 12						; size = 4
??$construct@PADAAPAD@?$allocator@D@std@@QAEXPAPADAAPAD@Z PROC ; std::allocator<char>::construct<char *,char * &>, COMDAT
; _this$ = ecx

; 617  : _VARIADIC_EXPAND_0X(_ALLOC_MEMBER_CONSTRUCT, , , , )

	push	ebp
	mov	ebp, esp
	push	-1
	push	__ehhandler$??$construct@PADAAPAD@?$allocator@D@std@@QAEXPAPADAAPAD@Z
	mov	eax, DWORD PTR fs:0
	push	eax
	sub	esp, 16					; 00000010H
	mov	eax, DWORD PTR ___security_cookie
	xor	eax, ebp
	push	eax
	lea	eax, DWORD PTR __$EHRec$[ebp]
	mov	DWORD PTR fs:0, eax
	mov	DWORD PTR _this$[ebp], ecx
	mov	eax, DWORD PTR __Ptr$[ebp]
	push	eax
	push	4
	call	??2@YAPAXIPAX@Z				; operator new
	add	esp, 8
	mov	DWORD PTR $T3[ebp], eax
	mov	DWORD PTR __$EHRec$[ebp+8], 0
	cmp	DWORD PTR $T3[ebp], 0
	je	SHORT $LN3@construct
	mov	ecx, DWORD PTR __V0$[ebp]
	push	ecx
	call	??$forward@AAPAD@std@@YAAAPADAAPAD@Z	; std::forward<char * &>
	add	esp, 4
	mov	edx, DWORD PTR $T3[ebp]
	mov	eax, DWORD PTR [eax]
	mov	DWORD PTR [edx], eax
	mov	ecx, DWORD PTR $T3[ebp]
	mov	DWORD PTR tv73[ebp], ecx
	jmp	SHORT $LN4@construct
$LN3@construct:
	mov	DWORD PTR tv73[ebp], 0
$LN4@construct:
	mov	edx, DWORD PTR tv73[ebp]
	mov	DWORD PTR $T2[ebp], edx
	mov	DWORD PTR __$EHRec$[ebp+8], -1
	mov	ecx, DWORD PTR __$EHRec$[ebp]
	mov	DWORD PTR fs:0, ecx
	pop	ecx
	mov	esp, ebp
	pop	ebp
	ret	8
_TEXT	ENDS
;	COMDAT text$x
text$x	SEGMENT
__unwindfunclet$??$construct@PADAAPAD@?$allocator@D@std@@QAEXPAPADAAPAD@Z$0:
	mov	eax, DWORD PTR __Ptr$[ebp]
	push	eax
	mov	eax, DWORD PTR $T3[ebp]
	push	eax
	call	??3@YAXPAX0@Z				; operator delete
	add	esp, 8
	ret	0
__ehhandler$??$construct@PADAAPAD@?$allocator@D@std@@QAEXPAPADAAPAD@Z:
	mov	edx, DWORD PTR [esp+8]
	lea	eax, DWORD PTR [edx+12]
	mov	ecx, DWORD PTR [edx-20]
	xor	ecx, eax
	call	@__security_check_cookie@4
	mov	eax, OFFSET __ehfuncinfo$??$construct@PADAAPAD@?$allocator@D@std@@QAEXPAPADAAPAD@Z
	jmp	___CxxFrameHandler3
text$x	ENDS
??$construct@PADAAPAD@?$allocator@D@std@@QAEXPAPADAAPAD@Z ENDP ; std::allocator<char>::construct<char *,char * &>
; Function compile flags: /Odtp
; File c:\program files (x86)\microsoft visual studio 11.0\vc\include\xlocnum
;	COMDAT ??__E?id@?$numpunct@_W@std@@2V0locale@2@A@@YAXXZ
text$yc	SEGMENT
??__E?id@?$numpunct@_W@std@@2V0locale@2@A@@YAXXZ PROC	; `dynamic initializer for 'std::numpunct<wchar_t>::id'', COMDAT

; 155  : 		void _Getvals(wchar_t, const lconv *_Ptr, _Locinfo::_Cvtvec)

	push	ebp
	mov	ebp, esp
	push	0
	mov	ecx, OFFSET ?id@?$numpunct@_W@std@@2V0locale@2@A ; std::numpunct<wchar_t>::id
	call	??0id@locale@std@@QAE@I@Z		; std::locale::id::id
	pop	ebp
	ret	0
??__E?id@?$numpunct@_W@std@@2V0locale@2@A@@YAXXZ ENDP	; `dynamic initializer for 'std::numpunct<wchar_t>::id''
text$yc	ENDS
; Function compile flags: /Odtp
; File c:\program files (x86)\microsoft visual studio 11.0\vc\include\xlocnum
;	COMDAT ??__E?id@?$numpunct@D@std@@2V0locale@2@A@@YAXXZ
text$yc	SEGMENT
??__E?id@?$numpunct@D@std@@2V0locale@2@A@@YAXXZ PROC	; `dynamic initializer for 'std::numpunct<char>::id'', COMDAT

; 155  : 		void _Getvals(wchar_t, const lconv *_Ptr, _Locinfo::_Cvtvec)

	push	ebp
	mov	ebp, esp
	push	0
	mov	ecx, OFFSET ?id@?$numpunct@D@std@@2V0locale@2@A ; std::numpunct<char>::id
	call	??0id@locale@std@@QAE@I@Z		; std::locale::id::id
	pop	ebp
	ret	0
??__E?id@?$numpunct@D@std@@2V0locale@2@A@@YAXXZ ENDP	; `dynamic initializer for 'std::numpunct<char>::id''
text$yc	ENDS
; Function compile flags: /Odtp
; File c:\program files (x86)\microsoft visual studio 11.0\vc\include\xlocnum
;	COMDAT ??__E?id@?$num_put@_WV?$back_insert_iterator@V?$basic_string@_WU?$char_traits@_W@std@@V?$allocator@_W@2@@std@@@std@@@std@@2V0locale@2@A@@YAXXZ
text$yc	SEGMENT
??__E?id@?$num_put@_WV?$back_insert_iterator@V?$basic_string@_WU?$char_traits@_W@std@@V?$allocator@_W@2@@std@@@std@@@std@@2V0locale@2@A@@YAXXZ PROC ; `dynamic initializer for 'std::num_put<wchar_t,std::back_insert_iterator<std::basic_string<wchar_t,std::char_traits<wchar_t>,std::allocator<wchar_t> > > >::id'', COMDAT

; 155  : 		void _Getvals(wchar_t, const lconv *_Ptr, _Locinfo::_Cvtvec)

	push	ebp
	mov	ebp, esp
	push	0
	mov	ecx, OFFSET ?id@?$num_put@_WV?$back_insert_iterator@V?$basic_string@_WU?$char_traits@_W@std@@V?$allocator@_W@2@@std@@@std@@@std@@2V0locale@2@A ; std::num_put<wchar_t,std::back_insert_iterator<std::basic_string<wchar_t,std::char_traits<wchar_t>,std::allocator<wchar_t> > > >::id
	call	??0id@locale@std@@QAE@I@Z		; std::locale::id::id
	pop	ebp
	ret	0
??__E?id@?$num_put@_WV?$back_insert_iterator@V?$basic_string@_WU?$char_traits@_W@std@@V?$allocator@_W@2@@std@@@std@@@std@@2V0locale@2@A@@YAXXZ ENDP ; `dynamic initializer for 'std::num_put<wchar_t,std::back_insert_iterator<std::basic_string<wchar_t,std::char_traits<wchar_t>,std::allocator<wchar_t> > > >::id''
text$yc	ENDS
; Function compile flags: /Odtp
; File c:\program files (x86)\microsoft visual studio 11.0\vc\include\xlocnum
;	COMDAT ??__E?id@?$num_put@DV?$back_insert_iterator@V?$basic_string@DU?$char_traits@D@std@@V?$allocator@D@2@@std@@@std@@@std@@2V0locale@2@A@@YAXXZ
text$yc	SEGMENT
??__E?id@?$num_put@DV?$back_insert_iterator@V?$basic_string@DU?$char_traits@D@std@@V?$allocator@D@2@@std@@@std@@@std@@2V0locale@2@A@@YAXXZ PROC ; `dynamic initializer for 'std::num_put<char,std::back_insert_iterator<std::basic_string<char,std::char_traits<char>,std::allocator<char> > > >::id'', COMDAT

; 155  : 		void _Getvals(wchar_t, const lconv *_Ptr, _Locinfo::_Cvtvec)

	push	ebp
	mov	ebp, esp
	push	0
	mov	ecx, OFFSET ?id@?$num_put@DV?$back_insert_iterator@V?$basic_string@DU?$char_traits@D@std@@V?$allocator@D@2@@std@@@std@@@std@@2V0locale@2@A ; std::num_put<char,std::back_insert_iterator<std::basic_string<char,std::char_traits<char>,std::allocator<char> > > >::id
	call	??0id@locale@std@@QAE@I@Z		; std::locale::id::id
	pop	ebp
	ret	0
??__E?id@?$num_put@DV?$back_insert_iterator@V?$basic_string@DU?$char_traits@D@std@@V?$allocator@D@2@@std@@@std@@@std@@2V0locale@2@A@@YAXXZ ENDP ; `dynamic initializer for 'std::num_put<char,std::back_insert_iterator<std::basic_string<char,std::char_traits<char>,std::allocator<char> > > >::id''
text$yc	ENDS
; Function compile flags: /Odtp
; File c:\program files (x86)\microsoft visual studio 11.0\vc\include\xmemory0
;	COMDAT ??$destroy@PAD@?$allocator_traits@V?$allocator@D@std@@@std@@SAXAAV?$allocator@D@1@PAPAD@Z
_TEXT	SEGMENT
__Al$ = 8						; size = 4
__Ptr$ = 12						; size = 4
??$destroy@PAD@?$allocator_traits@V?$allocator@D@std@@@std@@SAXAAV?$allocator@D@1@PAPAD@Z PROC ; std::allocator_traits<std::allocator<char> >::destroy<char *>, COMDAT

; 755  : 		static void destroy(_Alloc& _Al, _Uty *_Ptr)

	push	ebp
	mov	ebp, esp

; 756  : 		{	// destroy object at _Ptr
; 757  : 		_Al.destroy(_Ptr);

	mov	eax, DWORD PTR __Ptr$[ebp]
	push	eax
	mov	ecx, DWORD PTR __Al$[ebp]
	call	??$destroy@PAD@?$allocator@D@std@@QAEXPAPAD@Z ; std::allocator<char>::destroy<char *>

; 758  : 		}

	pop	ebp
	ret	0
??$destroy@PAD@?$allocator_traits@V?$allocator@D@std@@@std@@SAXAAV?$allocator@D@1@PAPAD@Z ENDP ; std::allocator_traits<std::allocator<char> >::destroy<char *>
_TEXT	ENDS
; Function compile flags: /Odtp
; File c:\program files (x86)\microsoft visual studio 11.0\vc\include\xmemory0
;	COMDAT ??$construct@PADAAPAD@?$allocator_traits@V?$allocator@D@std@@@std@@SAXAAV?$allocator@D@1@PAPADAAPAD@Z
_TEXT	SEGMENT
__Al$ = 8						; size = 4
__Ptr$ = 12						; size = 4
__V0$ = 16						; size = 4
??$construct@PADAAPAD@?$allocator_traits@V?$allocator@D@std@@@std@@SAXAAV?$allocator@D@1@PAPADAAPAD@Z PROC ; std::allocator_traits<std::allocator<char> >::construct<char *,char * &>, COMDAT

; 751  : _VARIADIC_EXPAND_0X(_ALLOC_TRAITS_SPECIAL_CONSTRUCT, , , , )

	push	ebp
	mov	ebp, esp
	mov	eax, DWORD PTR __V0$[ebp]
	push	eax
	call	??$forward@AAPAD@std@@YAAAPADAAPAD@Z	; std::forward<char * &>
	add	esp, 4
	push	eax
	mov	ecx, DWORD PTR __Ptr$[ebp]
	push	ecx
	mov	ecx, DWORD PTR __Al$[ebp]
	call	??$construct@PADAAPAD@?$allocator@D@std@@QAEXPAPADAAPAD@Z ; std::allocator<char>::construct<char *,char * &>
	pop	ebp
	ret	0
??$construct@PADAAPAD@?$allocator_traits@V?$allocator@D@std@@@std@@SAXAAV?$allocator@D@1@PAPADAAPAD@Z ENDP ; std::allocator_traits<std::allocator<char> >::construct<char *,char * &>
_TEXT	ENDS
; Function compile flags: /Odtp
; File c:\program files (x86)\microsoft visual studio 11.0\vc\include\type_traits
;	COMDAT ??$forward@AAPAD@std@@YAAAPADAAPAD@Z
_TEXT	SEGMENT
__Arg$ = 8						; size = 4
??$forward@AAPAD@std@@YAAAPADAAPAD@Z PROC		; std::forward<char * &>, COMDAT

; 1775 : 	{	// forward an lvalue

	push	ebp
	mov	ebp, esp

; 1776 : 	return (static_cast<_Ty&&>(_Arg));

	mov	eax, DWORD PTR __Arg$[ebp]

; 1777 : 	}

	pop	ebp
	ret	0
??$forward@AAPAD@std@@YAAAPADAAPAD@Z ENDP		; std::forward<char * &>
_TEXT	ENDS
; Function compile flags: /Odtp
;	COMDAT ??__F?_System_object@?$_Error_objects@H@std@@2V_System_error_category@2@A@@YAXXZ
text$yd	SEGMENT
??__F?_System_object@?$_Error_objects@H@std@@2V_System_error_category@2@A@@YAXXZ PROC ; `dynamic atexit destructor for 'std::_Error_objects<int>::_System_object'', COMDAT
	push	ebp
	mov	ebp, esp
	mov	ecx, OFFSET ?_System_object@?$_Error_objects@H@std@@2V_System_error_category@2@A ; std::_Error_objects<int>::_System_object
	call	??1_System_error_category@std@@UAE@XZ
	pop	ebp
	ret	0
??__F?_System_object@?$_Error_objects@H@std@@2V_System_error_category@2@A@@YAXXZ ENDP ; `dynamic atexit destructor for 'std::_Error_objects<int>::_System_object''
text$yd	ENDS
; Function compile flags: /Odtp
; File c:\program files (x86)\microsoft visual studio 11.0\vc\include\xmemory0
;	COMDAT ??__E?_System_object@?$_Error_objects@H@std@@2V_System_error_category@2@A@@YAXXZ
text$yc	SEGMENT
??__E?_System_object@?$_Error_objects@H@std@@2V_System_error_category@2@A@@YAXXZ PROC ; `dynamic initializer for 'std::_Error_objects<int>::_System_object'', COMDAT

; 627  : 		{	// estimate maximum array size

	push	ebp
	mov	ebp, esp
	mov	ecx, OFFSET ?_System_object@?$_Error_objects@H@std@@2V_System_error_category@2@A ; std::_Error_objects<int>::_System_object
	call	??0_System_error_category@std@@QAE@XZ	; std::_System_error_category::_System_error_category
	push	OFFSET ??__F?_System_object@?$_Error_objects@H@std@@2V_System_error_category@2@A@@YAXXZ ; `dynamic atexit destructor for 'std::_Error_objects<int>::_System_object''
	call	_atexit
	add	esp, 4
	pop	ebp
	ret	0
??__E?_System_object@?$_Error_objects@H@std@@2V_System_error_category@2@A@@YAXXZ ENDP ; `dynamic initializer for 'std::_Error_objects<int>::_System_object''
text$yc	ENDS
; Function compile flags: /Odtp
;	COMDAT ??__F?_Iostream_object@?$_Error_objects@H@std@@2V_Iostream_error_category@2@A@@YAXXZ
text$yd	SEGMENT
??__F?_Iostream_object@?$_Error_objects@H@std@@2V_Iostream_error_category@2@A@@YAXXZ PROC ; `dynamic atexit destructor for 'std::_Error_objects<int>::_Iostream_object'', COMDAT
	push	ebp
	mov	ebp, esp
	mov	ecx, OFFSET ?_Iostream_object@?$_Error_objects@H@std@@2V_Iostream_error_category@2@A ; std::_Error_objects<int>::_Iostream_object
	call	??1_Iostream_error_category@std@@UAE@XZ
	pop	ebp
	ret	0
??__F?_Iostream_object@?$_Error_objects@H@std@@2V_Iostream_error_category@2@A@@YAXXZ ENDP ; `dynamic atexit destructor for 'std::_Error_objects<int>::_Iostream_object''
text$yd	ENDS
; Function compile flags: /Odtp
; File c:\program files (x86)\microsoft visual studio 11.0\vc\include\xmemory0
;	COMDAT ??__E?_Iostream_object@?$_Error_objects@H@std@@2V_Iostream_error_category@2@A@@YAXXZ
text$yc	SEGMENT
??__E?_Iostream_object@?$_Error_objects@H@std@@2V_Iostream_error_category@2@A@@YAXXZ PROC ; `dynamic initializer for 'std::_Error_objects<int>::_Iostream_object'', COMDAT

; 627  : 		{	// estimate maximum array size

	push	ebp
	mov	ebp, esp
	mov	ecx, OFFSET ?_Iostream_object@?$_Error_objects@H@std@@2V_Iostream_error_category@2@A ; std::_Error_objects<int>::_Iostream_object
	call	??0_Iostream_error_category@std@@QAE@XZ	; std::_Iostream_error_category::_Iostream_error_category
	push	OFFSET ??__F?_Iostream_object@?$_Error_objects@H@std@@2V_Iostream_error_category@2@A@@YAXXZ ; `dynamic atexit destructor for 'std::_Error_objects<int>::_Iostream_object''
	call	_atexit
	add	esp, 4
	pop	ebp
	ret	0
??__E?_Iostream_object@?$_Error_objects@H@std@@2V_Iostream_error_category@2@A@@YAXXZ ENDP ; `dynamic initializer for 'std::_Error_objects<int>::_Iostream_object''
text$yc	ENDS
; Function compile flags: /Odtp
;	COMDAT ??__F?_Generic_object@?$_Error_objects@H@std@@2V_Generic_error_category@2@A@@YAXXZ
text$yd	SEGMENT
??__F?_Generic_object@?$_Error_objects@H@std@@2V_Generic_error_category@2@A@@YAXXZ PROC ; `dynamic atexit destructor for 'std::_Error_objects<int>::_Generic_object'', COMDAT
	push	ebp
	mov	ebp, esp
	mov	ecx, OFFSET ?_Generic_object@?$_Error_objects@H@std@@2V_Generic_error_category@2@A ; std::_Error_objects<int>::_Generic_object
	call	??1_Generic_error_category@std@@UAE@XZ
	pop	ebp
	ret	0
??__F?_Generic_object@?$_Error_objects@H@std@@2V_Generic_error_category@2@A@@YAXXZ ENDP ; `dynamic atexit destructor for 'std::_Error_objects<int>::_Generic_object''
text$yd	ENDS
; Function compile flags: /Odtp
; File c:\program files (x86)\microsoft visual studio 11.0\vc\include\xmemory0
;	COMDAT ??__E?_Generic_object@?$_Error_objects@H@std@@2V_Generic_error_category@2@A@@YAXXZ
text$yc	SEGMENT
??__E?_Generic_object@?$_Error_objects@H@std@@2V_Generic_error_category@2@A@@YAXXZ PROC ; `dynamic initializer for 'std::_Error_objects<int>::_Generic_object'', COMDAT

; 627  : 		{	// estimate maximum array size

	push	ebp
	mov	ebp, esp
	mov	ecx, OFFSET ?_Generic_object@?$_Error_objects@H@std@@2V_Generic_error_category@2@A ; std::_Error_objects<int>::_Generic_object
	call	??0_Generic_error_category@std@@QAE@XZ	; std::_Generic_error_category::_Generic_error_category
	push	OFFSET ??__F?_Generic_object@?$_Error_objects@H@std@@2V_Generic_error_category@2@A@@YAXXZ ; `dynamic atexit destructor for 'std::_Error_objects<int>::_Generic_object''
	call	_atexit
	add	esp, 4
	pop	ebp
	ret	0
??__E?_Generic_object@?$_Error_objects@H@std@@2V_Generic_error_category@2@A@@YAXXZ ENDP ; `dynamic initializer for 'std::_Error_objects<int>::_Generic_object''
text$yc	ENDS
; Function compile flags: /Odtp
; File c:\program files (x86)\microsoft visual studio 11.0\vc\include\xmemory0
;	COMDAT ??$_Allocate@D@std@@YAPADIPAD@Z
_TEXT	SEGMENT
__Ptr$ = -4						; size = 4
__Count$ = 8						; size = 4
___formal$ = 12						; size = 4
??$_Allocate@D@std@@YAPADIPAD@Z PROC			; std::_Allocate<char>, COMDAT

; 22   : 	{	// allocate storage for _Count elements of type _Ty

	push	ebp
	mov	ebp, esp
	push	ecx

; 23   : 	void *_Ptr = 0;

	mov	DWORD PTR __Ptr$[ebp], 0

; 24   : 
; 25   : 	if (_Count == 0)

	cmp	DWORD PTR __Count$[ebp], 0
	jne	SHORT $LN4@Allocate

; 26   : 		;
; 27   : 	else if (((size_t)(-1) / sizeof (_Ty) < _Count)

	jmp	SHORT $LN3@Allocate
$LN4@Allocate:

; 28   : 		|| (_Ptr = ::operator new(_Count * sizeof (_Ty))) == 0)

	cmp	DWORD PTR __Count$[ebp], -1
	ja	SHORT $LN1@Allocate
	mov	eax, DWORD PTR __Count$[ebp]
	push	eax
	call	??2@YAPAXI@Z				; operator new
	add	esp, 4
	mov	DWORD PTR __Ptr$[ebp], eax
	cmp	DWORD PTR __Ptr$[ebp], 0
	jne	SHORT $LN3@Allocate
$LN1@Allocate:

; 29   : 		_Xbad_alloc();	// report no memory

	call	?_Xbad_alloc@std@@YAXXZ			; std::_Xbad_alloc
$LN3@Allocate:

; 30   : 
; 31   : 	return ((_Ty *)_Ptr);

	mov	eax, DWORD PTR __Ptr$[ebp]
$LN6@Allocate:

; 32   : 	}

	mov	esp, ebp
	pop	ebp
	ret	0
??$_Allocate@D@std@@YAPADIPAD@Z ENDP			; std::_Allocate<char>
_TEXT	ENDS
; Function compile flags: /Odtp
; File c:\program files (x86)\microsoft visual studio 11.0\vc\include\xstddef
;	COMDAT ??$addressof@D@std@@YAPADAAD@Z
_TEXT	SEGMENT
__Val$ = 8						; size = 4
??$addressof@D@std@@YAPADAAD@Z PROC			; std::addressof<char>, COMDAT

; 85   : 	{	// return address of _Val

	push	ebp
	mov	ebp, esp

; 86   : 	return (reinterpret_cast<_Ty *>(
; 87   : 		(&const_cast<char&>(
; 88   : 		reinterpret_cast<const volatile char&>(_Val)))));

	mov	eax, DWORD PTR __Val$[ebp]

; 89   : 	}

	pop	ebp
	ret	0
??$addressof@D@std@@YAPADAAD@Z ENDP			; std::addressof<char>
_TEXT	ENDS
; Function compile flags: /Odtp
; File c:\program files (x86)\microsoft visual studio 11.0\vc\include\xmemory0
;	COMDAT ??$destroy@PAD@?$_Wrap_alloc@V?$allocator@D@std@@@std@@QAEXPAPAD@Z
_TEXT	SEGMENT
_this$ = -4						; size = 4
__Ptr$ = 8						; size = 4
??$destroy@PAD@?$_Wrap_alloc@V?$allocator@D@std@@@std@@QAEXPAPAD@Z PROC ; std::_Wrap_alloc<std::allocator<char> >::destroy<char *>, COMDAT
; _this$ = ecx

; 907  : 		void destroy(_Ty *_Ptr)

	push	ebp
	mov	ebp, esp
	push	ecx
	mov	DWORD PTR _this$[ebp], ecx

; 908  : 		{	// destroy object at _Ptr
; 909  : 		_Mytraits::destroy(*this, _Ptr);

	mov	eax, DWORD PTR __Ptr$[ebp]
	push	eax
	mov	ecx, DWORD PTR _this$[ebp]
	push	ecx
	call	??$destroy@PAD@?$allocator_traits@V?$allocator@D@std@@@std@@SAXAAV?$allocator@D@1@PAPAD@Z ; std::allocator_traits<std::allocator<char> >::destroy<char *>
	add	esp, 8

; 910  : 		}

	mov	esp, ebp
	pop	ebp
	ret	4
??$destroy@PAD@?$_Wrap_alloc@V?$allocator@D@std@@@std@@QAEXPAPAD@Z ENDP ; std::_Wrap_alloc<std::allocator<char> >::destroy<char *>
_TEXT	ENDS
; Function compile flags: /Odtp
; File c:\program files (x86)\microsoft visual studio 11.0\vc\include\xmemory0
;	COMDAT ??$construct@PADAAPAD@?$_Wrap_alloc@V?$allocator@D@std@@@std@@QAEXPAPADAAPAD@Z
_TEXT	SEGMENT
_this$ = -4						; size = 4
__Ptr$ = 8						; size = 4
__V0$ = 12						; size = 4
??$construct@PADAAPAD@?$_Wrap_alloc@V?$allocator@D@std@@@std@@QAEXPAPADAAPAD@Z PROC ; std::_Wrap_alloc<std::allocator<char> >::construct<char *,char * &>, COMDAT
; _this$ = ecx

; 903  : _VARIADIC_EXPAND_0X(_WRAP_ALLOC_CONSTRUCT, , , , )

	push	ebp
	mov	ebp, esp
	push	ecx
	mov	DWORD PTR _this$[ebp], ecx
	mov	eax, DWORD PTR __V0$[ebp]
	push	eax
	call	??$forward@AAPAD@std@@YAAAPADAAPAD@Z	; std::forward<char * &>
	add	esp, 4
	push	eax
	mov	ecx, DWORD PTR __Ptr$[ebp]
	push	ecx
	mov	edx, DWORD PTR _this$[ebp]
	push	edx
	call	??$construct@PADAAPAD@?$allocator_traits@V?$allocator@D@std@@@std@@SAXAAV?$allocator@D@1@PAPADAAPAD@Z ; std::allocator_traits<std::allocator<char> >::construct<char *,char * &>
	add	esp, 12					; 0000000cH
	mov	esp, ebp
	pop	ebp
	ret	8
??$construct@PADAAPAD@?$_Wrap_alloc@V?$allocator@D@std@@@std@@QAEXPAPADAAPAD@Z ENDP ; std::_Wrap_alloc<std::allocator<char> >::construct<char *,char * &>
_TEXT	ENDS
; Function compile flags: /Odtp
; File c:\users\zhitao li\documents\visual studio 2012\projects\freefalcon\sim\cockpit\cbbuttons.cpp
_TEXT	SEGMENT
_pCPButton$ = -4					; size = 4
_pButton$ = 8						; size = 4
_event$ = 12						; size = 4
?CBEDummyCallback@@YAXPAXH@Z PROC			; CBEDummyCallback

; 3990 : void CBEDummyCallback(void *pButton, int event){

	push	ebp
	mov	ebp, esp
	push	ecx

; 3991 : 	CPButtonObject *pCPButton	= (CPButtonObject*) pButton;

	mov	eax, DWORD PTR _pButton$[ebp]
	mov	DWORD PTR _pCPButton$[ebp], eax

; 3992 : 	if (event == CP_MOUSE_BUTTON0){

	cmp	DWORD PTR _event$[ebp], 3
	jne	SHORT $LN3@CBEDummyCa

; 3993 : 		pCPButton->IncrementState();

	mov	ecx, DWORD PTR _pCPButton$[ebp]
	call	?IncrementState@CPButtonObject@@QAEXXZ	; CPButtonObject::IncrementState
	jmp	SHORT $LN4@CBEDummyCa
$LN3@CBEDummyCa:

; 3994 : 	}
; 3995 : 	else if (event == CP_MOUSE_BUTTON1){

	cmp	DWORD PTR _event$[ebp], 4
	jne	SHORT $LN4@CBEDummyCa

; 3996 : 		pCPButton->DecrementState();

	mov	ecx, DWORD PTR _pCPButton$[ebp]
	call	?DecrementState@CPButtonObject@@QAEXXZ	; CPButtonObject::DecrementState
$LN4@CBEDummyCa:

; 3997 : 	}
; 3998 : }

	mov	esp, ebp
	pop	ebp
	ret	0
?CBEDummyCallback@@YAXPAXH@Z ENDP			; CBEDummyCallback
_TEXT	ENDS
; Function compile flags: /Odtp
; File c:\users\zhitao li\documents\visual studio 2012\projects\freefalcon\sim\cockpit\cbbuttons.cpp
_TEXT	SEGMENT
_curPanel$1 = -8					; size = 4
_playerAC$ = -4						; size = 4
_pButton$ = 8						; size = 4
_event$ = 12						; size = 4
?CBESetNightPanel@@YAXPAXH@Z PROC			; CBESetNightPanel

; 3953 : {

	push	ebp
	mov	ebp, esp
	sub	esp, 8

; 3954 : 	AircraftClass *playerAC = SimDriver.GetPlayerAircraft();

	mov	ecx, OFFSET ?SimDriver@@3VSimulationDriver@@A ; SimDriver
	call	?GetPlayerAircraft@SimulationDriver@@QBEPAVAircraftClass@@XZ ; SimulationDriver::GetPlayerAircraft
	mov	DWORD PTR _playerAC$[ebp], eax

; 3955 : 	if (playerAC == NULL){

	cmp	DWORD PTR _playerAC$[ebp], 0
	jne	SHORT $LN4@CBESetNigh

; 3956 : 		return;

	jmp	SHORT $LN5@CBESetNigh
$LN4@CBESetNigh:

; 3957 : 	}
; 3958 : 
; 3959 : 	if(OTWDriver.pCockpitManager)

	cmp	DWORD PTR ?OTWDriver@@3VOTWDriverClass@@A+33684, 0
	je	SHORT $LN5@CBESetNigh

; 3960 : 	{
; 3961 : 		CPPanel* curPanel = OTWDriver.pCockpitManager->GetActivePanel();

	mov	ecx, DWORD PTR ?OTWDriver@@3VOTWDriverClass@@A+33684
	call	?GetActivePanel@CockpitManager@@QAEPAVCPPanel@@XZ ; CockpitManager::GetActivePanel
	mov	DWORD PTR _curPanel$1[ebp], eax

; 3962 : 
; 3963 : 		if(curPanel->mIdNum == 94700)

	mov	eax, DWORD PTR _curPanel$1[ebp]
	cmp	DWORD PTR [eax+4], 94700		; 000171ecH
	jne	SHORT $LN2@CBESetNigh

; 3964 : 		{
; 3965 : 			OTWDriver.pCockpitManager->SetActivePanel(4700);

	push	4700					; 0000125cH
	mov	ecx, DWORD PTR ?OTWDriver@@3VOTWDriverClass@@A+33684
	call	?SetActivePanel@CockpitManager@@QAE_NH@Z ; CockpitManager::SetActivePanel

; 3966 : 			playerAC->NightLight = FALSE;

	mov	ecx, DWORD PTR _playerAC$[ebp]
	mov	BYTE PTR [ecx+1817], 0

; 3967 : 		}
; 3968 : 		else

	jmp	SHORT $LN5@CBESetNigh
$LN2@CBESetNigh:

; 3969 : 		{
; 3970 : 			OTWDriver.pCockpitManager->SetActivePanel(94700);

	push	94700					; 000171ecH
	mov	ecx, DWORD PTR ?OTWDriver@@3VOTWDriverClass@@A+33684
	call	?SetActivePanel@CockpitManager@@QAE_NH@Z ; CockpitManager::SetActivePanel

; 3971 : 			playerAC->NightLight = TRUE;

	mov	edx, DWORD PTR _playerAC$[ebp]
	mov	BYTE PTR [edx+1817], 1
$LN5@CBESetNigh:

; 3972 : 		}
; 3973 : 	}
; 3974 : }

	mov	esp, ebp
	pop	ebp
	ret	0
?CBESetNightPanel@@YAXPAXH@Z ENDP			; CBESetNightPanel
_TEXT	ENDS
; Function compile flags: /Odtp
; File c:\users\zhitao li\documents\visual studio 2012\projects\freefalcon\sim\cockpit\cbbuttons.cpp
_TEXT	SEGMENT
_playerAC$ = -16					; size = 4
_pos$ = -12						; size = 4
tv72 = -8						; size = 4
_pCPButton$ = -4					; size = 4
_pButton$ = 8						; size = 4
_event$ = 12						; size = 4
?CBExSymWheel@@YAXPAXH@Z PROC				; CBExSymWheel

; 3916 : {

	push	ebp
	mov	ebp, esp
	sub	esp, 16					; 00000010H

; 3917 : 	int pos = 0;

	mov	DWORD PTR _pos$[ebp], 0

; 3918 : 	if(TheHud)

	cmp	DWORD PTR ?TheHud@@3PAVHudClass@@A, 0	; TheHud
	je	SHORT $LN11@CBExSymWhe

; 3919 : 		pos = (int)(TheHud->SymWheelPos * 10);

	mov	eax, DWORD PTR ?TheHud@@3PAVHudClass@@A	; TheHud
	movss	xmm0, DWORD PTR [eax+5136]
	mulss	xmm0, DWORD PTR __real@41200000
	cvttss2si ecx, xmm0
	mov	DWORD PTR _pos$[ebp], ecx
$LN11@CBExSymWhe:

; 3920 : 
; 3921 : 	AircraftClass *playerAC = SimDriver.GetPlayerAircraft();

	mov	ecx, OFFSET ?SimDriver@@3VSimulationDriver@@A ; SimDriver
	call	?GetPlayerAircraft@SimulationDriver@@QBEPAVAircraftClass@@XZ ; SimulationDriver::GetPlayerAircraft
	mov	DWORD PTR _playerAC$[ebp], eax

; 3922 : 	if (playerAC == NULL){

	cmp	DWORD PTR _playerAC$[ebp], 0
	jne	SHORT $LN10@CBExSymWhe

; 3923 : 		return;

	jmp	SHORT $LN12@CBExSymWhe
$LN10@CBExSymWhe:

; 3924 : 	}
; 3925 : 	CPButtonObject *pCPButton	= (CPButtonObject*) pButton;

	mov	edx, DWORD PTR _pButton$[ebp]
	mov	DWORD PTR _pCPButton$[ebp], edx

; 3926 : 	switch(pos)

	mov	eax, DWORD PTR _pos$[ebp]
	mov	DWORD PTR tv72[ebp], eax
	mov	ecx, DWORD PTR tv72[ebp]
	sub	ecx, 5
	mov	DWORD PTR tv72[ebp], ecx
	cmp	DWORD PTR tv72[ebp], 5
	ja	SHORT $LN1@CBExSymWhe
	mov	edx, DWORD PTR tv72[ebp]
	jmp	DWORD PTR $LN14@CBExSymWhe[edx*4]
$LN7@CBExSymWhe:

; 3927 : 	{
; 3928 : 		case 10:	//max vol
; 3929 : 			pCPButton->SetCurrentState(5);

	push	5
	mov	ecx, DWORD PTR _pCPButton$[ebp]
	call	?SetCurrentState@CPButtonObject@@QAEXH@Z ; CPButtonObject::SetCurrentState

; 3930 : 			break;

	jmp	SHORT $LN8@CBExSymWhe
$LN6@CBExSymWhe:

; 3931 : 		case 9:
; 3932 : 			pCPButton->SetCurrentState(4);

	push	4
	mov	ecx, DWORD PTR _pCPButton$[ebp]
	call	?SetCurrentState@CPButtonObject@@QAEXH@Z ; CPButtonObject::SetCurrentState

; 3933 : 			break;

	jmp	SHORT $LN8@CBExSymWhe
$LN5@CBExSymWhe:

; 3934 : 		case 8:
; 3935 : 			pCPButton->SetCurrentState(3);

	push	3
	mov	ecx, DWORD PTR _pCPButton$[ebp]
	call	?SetCurrentState@CPButtonObject@@QAEXH@Z ; CPButtonObject::SetCurrentState

; 3936 : 			break;

	jmp	SHORT $LN8@CBExSymWhe
$LN4@CBExSymWhe:

; 3937 : 		case 7:
; 3938 : 			pCPButton->SetCurrentState(2);

	push	2
	mov	ecx, DWORD PTR _pCPButton$[ebp]
	call	?SetCurrentState@CPButtonObject@@QAEXH@Z ; CPButtonObject::SetCurrentState

; 3939 : 			break;

	jmp	SHORT $LN8@CBExSymWhe
$LN3@CBExSymWhe:

; 3940 : 		case 6:
; 3941 : 			pCPButton->SetCurrentState(1);

	push	1
	mov	ecx, DWORD PTR _pCPButton$[ebp]
	call	?SetCurrentState@CPButtonObject@@QAEXH@Z ; CPButtonObject::SetCurrentState

; 3942 : 			break;

	jmp	SHORT $LN8@CBExSymWhe
$LN2@CBExSymWhe:

; 3943 : 		case 5:
; 3944 : 			pCPButton->SetCurrentState(0);

	push	0
	mov	ecx, DWORD PTR _pCPButton$[ebp]
	call	?SetCurrentState@CPButtonObject@@QAEXH@Z ; CPButtonObject::SetCurrentState
$LN1@CBExSymWhe:
$LN8@CBExSymWhe:
$LN12@CBExSymWhe:

; 3945 : 			break;
; 3946 : 		default:
; 3947 : //			ShiWarning("No good state!");
; 3948 : 		break;
; 3949 : 	}
; 3950 : }

	mov	esp, ebp
	pop	ebp
	ret	0
	npad	2
$LN14@CBExSymWhe:
	DD	$LN2@CBExSymWhe
	DD	$LN3@CBExSymWhe
	DD	$LN4@CBExSymWhe
	DD	$LN5@CBExSymWhe
	DD	$LN6@CBExSymWhe
	DD	$LN7@CBExSymWhe
?CBExSymWheel@@YAXPAXH@Z ENDP				; CBExSymWheel
_TEXT	ENDS
; Function compile flags: /Odtp
; File c:\users\zhitao li\documents\visual studio 2012\projects\freefalcon\sim\cockpit\cbbuttons.cpp
_TEXT	SEGMENT
_pButton$ = 8						; size = 4
_event$ = 12						; size = 4
?CBESymWheel@@YAXPAXH@Z PROC				; CBESymWheel

; 3898 : {

	push	ebp
	mov	ebp, esp

; 3899 : 	// MD -- 20040703: if analog control is mapped, then change this
; 3900 : 	// mouse behavior to be a power on/off toggle instead of changing
; 3901 : 	// both power on/off and brightness.
; 3902 : 	if (IO.AnalogIsUsed(AXIS_HUD_BRIGHTNESS) == true) {

	push	18					; 00000012H
	mov	ecx, OFFSET ?IO@@3VSIMLIB_IO_CLASS@@A	; IO
	call	?AnalogIsUsed@SIMLIB_IO_CLASS@@QAE_NW4GameAxis_t@@@Z ; SIMLIB_IO_CLASS::AnalogIsUsed
	movzx	eax, al
	cmp	eax, 1
	jne	SHORT $LN6@CBESymWhee

; 3903 : 		if(event == CP_MOUSE_BUTTON0)

	cmp	DWORD PTR _event$[ebp], 3
	jne	SHORT $LN5@CBESymWhee

; 3904 : 			SimHUDOn(0, KEY_DOWN, NULL);

	push	0
	push	8
	push	0
	call	?SimHUDOn@@YAXKHPAX@Z			; SimHUDOn
	add	esp, 12					; 0000000cH

; 3905 : 		else

	jmp	SHORT $LN4@CBESymWhee
$LN5@CBESymWhee:

; 3906 : 			SimHUDOff(0, KEY_DOWN, NULL);

	push	0
	push	8
	push	0
	call	?SimHUDOff@@YAXKHPAX@Z			; SimHUDOff
	add	esp, 12					; 0000000cH
$LN4@CBESymWhee:

; 3907 : 	}
; 3908 : 	else {

	jmp	SHORT $LN7@CBESymWhee
$LN6@CBESymWhee:

; 3909 : 		if(event == CP_MOUSE_BUTTON0)

	cmp	DWORD PTR _event$[ebp], 3
	jne	SHORT $LN2@CBESymWhee

; 3910 : 			SimSymWheelUp(0, KEY_DOWN, NULL);

	push	0
	push	8
	push	0
	call	?SimSymWheelUp@@YAXKHPAX@Z		; SimSymWheelUp
	add	esp, 12					; 0000000cH

; 3911 : 		else

	jmp	SHORT $LN7@CBESymWhee
$LN2@CBESymWhee:

; 3912 : 			SimSymWheelDn(0, KEY_DOWN, NULL);	

	push	0
	push	8
	push	0
	call	?SimSymWheelDn@@YAXKHPAX@Z		; SimSymWheelDn
	add	esp, 12					; 0000000cH
$LN7@CBESymWhee:

; 3913 : 	}
; 3914 : }

	pop	ebp
	ret	0
?CBESymWheel@@YAXPAXH@Z ENDP				; CBESymWheel
_TEXT	ENDS
; Function compile flags: /Odtp
; File c:\users\zhitao li\documents\visual studio 2012\projects\freefalcon\sim\cockpit\cbbuttons.cpp
_TEXT	SEGMENT
_playerAC$ = -16					; size = 4
tv72 = -12						; size = 4
_pos$ = -8						; size = 4
_pCPButton$ = -4					; size = 4
_pButton$ = 8						; size = 4
_event$ = 12						; size = 4
?CBExComm2Vol@@YAXPAXH@Z PROC				; CBExComm2Vol

; 3854 : {

	push	ebp
	mov	ebp, esp
	sub	esp, 16					; 00000010H

; 3855 : 	int pos = 0;

	mov	DWORD PTR _pos$[ebp], 0

; 3856 : 	if(OTWDriver.pCockpitManager && OTWDriver.pCockpitManager->mpIcp)

	cmp	DWORD PTR ?OTWDriver@@3VOTWDriverClass@@A+33684, 0
	je	SHORT $LN14@CBExComm2V
	mov	eax, DWORD PTR ?OTWDriver@@3VOTWDriverClass@@A+33684
	cmp	DWORD PTR [eax+688], 0
	je	SHORT $LN14@CBExComm2V

; 3857 : 		pos = OTWDriver.pCockpitManager->mpIcp->Comm2Volume;

	mov	ecx, DWORD PTR ?OTWDriver@@3VOTWDriverClass@@A+33684
	mov	edx, DWORD PTR [ecx+688]
	mov	eax, DWORD PTR [edx+1672]
	mov	DWORD PTR _pos$[ebp], eax
$LN14@CBExComm2V:

; 3858 : 
; 3859 : 	AircraftClass *playerAC = SimDriver.GetPlayerAircraft();

	mov	ecx, OFFSET ?SimDriver@@3VSimulationDriver@@A ; SimDriver
	call	?GetPlayerAircraft@SimulationDriver@@QBEPAVAircraftClass@@XZ ; SimulationDriver::GetPlayerAircraft
	mov	DWORD PTR _playerAC$[ebp], eax

; 3860 : 	if (playerAC == NULL){

	cmp	DWORD PTR _playerAC$[ebp], 0
	jne	SHORT $LN13@CBExComm2V

; 3861 : 		return;

	jmp	$LN15@CBExComm2V
$LN13@CBExComm2V:

; 3862 : 	}
; 3863 : 	CPButtonObject *pCPButton	= (CPButtonObject*) pButton;

	mov	ecx, DWORD PTR _pButton$[ebp]
	mov	DWORD PTR _pCPButton$[ebp], ecx

; 3864 : 	switch(pos)

	mov	edx, DWORD PTR _pos$[ebp]
	mov	DWORD PTR tv72[ebp], edx
	cmp	DWORD PTR tv72[ebp], 8
	ja	SHORT $LN15@CBExComm2V
	mov	eax, DWORD PTR tv72[ebp]
	jmp	DWORD PTR $LN17@CBExComm2V[eax*4]
$LN10@CBExComm2V:

; 3865 : 	{
; 3866 : 		case 0:	//max vol
; 3867 : 			pCPButton->SetCurrentState(8);

	push	8
	mov	ecx, DWORD PTR _pCPButton$[ebp]
	call	?SetCurrentState@CPButtonObject@@QAEXH@Z ; CPButtonObject::SetCurrentState

; 3868 : 			break;

	jmp	SHORT $LN15@CBExComm2V
$LN9@CBExComm2V:

; 3869 : 		case 1:
; 3870 : 			pCPButton->SetCurrentState(7);

	push	7
	mov	ecx, DWORD PTR _pCPButton$[ebp]
	call	?SetCurrentState@CPButtonObject@@QAEXH@Z ; CPButtonObject::SetCurrentState

; 3871 : 			break;

	jmp	SHORT $LN15@CBExComm2V
$LN8@CBExComm2V:

; 3872 : 		case 2:
; 3873 : 			pCPButton->SetCurrentState(6);

	push	6
	mov	ecx, DWORD PTR _pCPButton$[ebp]
	call	?SetCurrentState@CPButtonObject@@QAEXH@Z ; CPButtonObject::SetCurrentState

; 3874 : 			break;

	jmp	SHORT $LN15@CBExComm2V
$LN7@CBExComm2V:

; 3875 : 		case 3:
; 3876 : 			pCPButton->SetCurrentState(5);

	push	5
	mov	ecx, DWORD PTR _pCPButton$[ebp]
	call	?SetCurrentState@CPButtonObject@@QAEXH@Z ; CPButtonObject::SetCurrentState

; 3877 : 			break;

	jmp	SHORT $LN15@CBExComm2V
$LN6@CBExComm2V:

; 3878 : 		case 4:
; 3879 : 			pCPButton->SetCurrentState(4);

	push	4
	mov	ecx, DWORD PTR _pCPButton$[ebp]
	call	?SetCurrentState@CPButtonObject@@QAEXH@Z ; CPButtonObject::SetCurrentState

; 3880 : 			break;

	jmp	SHORT $LN15@CBExComm2V
$LN5@CBExComm2V:

; 3881 : 		case 5:
; 3882 : 			pCPButton->SetCurrentState(3);

	push	3
	mov	ecx, DWORD PTR _pCPButton$[ebp]
	call	?SetCurrentState@CPButtonObject@@QAEXH@Z ; CPButtonObject::SetCurrentState

; 3883 : 			break;

	jmp	SHORT $LN15@CBExComm2V
$LN4@CBExComm2V:

; 3884 : 		case 6:
; 3885 : 			pCPButton->SetCurrentState(2);

	push	2
	mov	ecx, DWORD PTR _pCPButton$[ebp]
	call	?SetCurrentState@CPButtonObject@@QAEXH@Z ; CPButtonObject::SetCurrentState

; 3886 : 			break;

	jmp	SHORT $LN15@CBExComm2V
$LN3@CBExComm2V:

; 3887 : 		case 7:
; 3888 : 			pCPButton->SetCurrentState(1);

	push	1
	mov	ecx, DWORD PTR _pCPButton$[ebp]
	call	?SetCurrentState@CPButtonObject@@QAEXH@Z ; CPButtonObject::SetCurrentState

; 3889 : 			break;

	jmp	SHORT $LN15@CBExComm2V
$LN2@CBExComm2V:

; 3890 : 		case 8:
; 3891 : 			pCPButton->SetCurrentState(0);

	push	0
	mov	ecx, DWORD PTR _pCPButton$[ebp]
	call	?SetCurrentState@CPButtonObject@@QAEXH@Z ; CPButtonObject::SetCurrentState
$LN15@CBExComm2V:

; 3892 : 			break;
; 3893 : 		default:
; 3894 : 			break;
; 3895 : 	}
; 3896 : }

	mov	esp, ebp
	pop	ebp
	ret	0
	npad	1
$LN17@CBExComm2V:
	DD	$LN10@CBExComm2V
	DD	$LN9@CBExComm2V
	DD	$LN8@CBExComm2V
	DD	$LN7@CBExComm2V
	DD	$LN6@CBExComm2V
	DD	$LN5@CBExComm2V
	DD	$LN4@CBExComm2V
	DD	$LN3@CBExComm2V
	DD	$LN2@CBExComm2V
?CBExComm2Vol@@YAXPAXH@Z ENDP				; CBExComm2Vol
_TEXT	ENDS
; Function compile flags: /Odtp
; File c:\users\zhitao li\documents\visual studio 2012\projects\freefalcon\sim\cockpit\cbbuttons.cpp
_TEXT	SEGMENT
_pButton$ = 8						; size = 4
_event$ = 12						; size = 4
?CBEComm2Vol@@YAXPAXH@Z PROC				; CBEComm2Vol

; 3847 : {

	push	ebp
	mov	ebp, esp

; 3848 : 	if(event == CP_MOUSE_BUTTON0)

	cmp	DWORD PTR _event$[ebp], 3
	jne	SHORT $LN2@CBEComm2Vo

; 3849 : 		SimStepComm2VolumeUp(0, KEY_DOWN, NULL);

	push	0
	push	8
	push	0
	call	?SimStepComm2VolumeUp@@YAXKHPAX@Z	; SimStepComm2VolumeUp
	add	esp, 12					; 0000000cH

; 3850 : 	else

	jmp	SHORT $LN3@CBEComm2Vo
$LN2@CBEComm2Vo:

; 3851 : 		SimStepComm2VolumeDown(0, KEY_DOWN, NULL);

	push	0
	push	8
	push	0
	call	?SimStepComm2VolumeDown@@YAXKHPAX@Z	; SimStepComm2VolumeDown
	add	esp, 12					; 0000000cH
$LN3@CBEComm2Vo:

; 3852 : }

	pop	ebp
	ret	0
?CBEComm2Vol@@YAXPAXH@Z ENDP				; CBEComm2Vol
_TEXT	ENDS
; Function compile flags: /Odtp
; File c:\users\zhitao li\documents\visual studio 2012\projects\freefalcon\sim\cockpit\cbbuttons.cpp
_TEXT	SEGMENT
_playerAC$ = -16					; size = 4
tv72 = -12						; size = 4
_pos$ = -8						; size = 4
_pCPButton$ = -4					; size = 4
_pButton$ = 8						; size = 4
_event$ = 12						; size = 4
?CBExComm1Vol@@YAXPAXH@Z PROC				; CBExComm1Vol

; 3798 : {

	push	ebp
	mov	ebp, esp
	sub	esp, 16					; 00000010H

; 3799 : 	int pos = 0;

	mov	DWORD PTR _pos$[ebp], 0

; 3800 : 	if(OTWDriver.pCockpitManager && OTWDriver.pCockpitManager->mpIcp){

	cmp	DWORD PTR ?OTWDriver@@3VOTWDriverClass@@A+33684, 0
	je	SHORT $LN14@CBExComm1V
	mov	eax, DWORD PTR ?OTWDriver@@3VOTWDriverClass@@A+33684
	cmp	DWORD PTR [eax+688], 0
	je	SHORT $LN14@CBExComm1V

; 3801 : 		pos = OTWDriver.pCockpitManager->mpIcp->Comm1Volume;

	mov	ecx, DWORD PTR ?OTWDriver@@3VOTWDriverClass@@A+33684
	mov	edx, DWORD PTR [ecx+688]
	mov	eax, DWORD PTR [edx+1668]
	mov	DWORD PTR _pos$[ebp], eax
$LN14@CBExComm1V:

; 3802 : 	}
; 3803 : 
; 3804 : 	AircraftClass *playerAC = SimDriver.GetPlayerAircraft();

	mov	ecx, OFFSET ?SimDriver@@3VSimulationDriver@@A ; SimDriver
	call	?GetPlayerAircraft@SimulationDriver@@QBEPAVAircraftClass@@XZ ; SimulationDriver::GetPlayerAircraft
	mov	DWORD PTR _playerAC$[ebp], eax

; 3805 : 	if (playerAC == NULL){

	cmp	DWORD PTR _playerAC$[ebp], 0
	jne	SHORT $LN13@CBExComm1V

; 3806 : 		return;

	jmp	$LN15@CBExComm1V
$LN13@CBExComm1V:

; 3807 : 	}
; 3808 : 
; 3809 : 	CPButtonObject *pCPButton	= (CPButtonObject*) pButton;

	mov	ecx, DWORD PTR _pButton$[ebp]
	mov	DWORD PTR _pCPButton$[ebp], ecx

; 3810 : 	switch(pos)

	mov	edx, DWORD PTR _pos$[ebp]
	mov	DWORD PTR tv72[ebp], edx
	cmp	DWORD PTR tv72[ebp], 8
	ja	SHORT $LN15@CBExComm1V
	mov	eax, DWORD PTR tv72[ebp]
	jmp	DWORD PTR $LN17@CBExComm1V[eax*4]
$LN10@CBExComm1V:

; 3811 : 	{
; 3812 : 		case 0:	//max vol
; 3813 : 			pCPButton->SetCurrentState(8);

	push	8
	mov	ecx, DWORD PTR _pCPButton$[ebp]
	call	?SetCurrentState@CPButtonObject@@QAEXH@Z ; CPButtonObject::SetCurrentState

; 3814 : 			break;

	jmp	SHORT $LN15@CBExComm1V
$LN9@CBExComm1V:

; 3815 : 		case 1:
; 3816 : 			pCPButton->SetCurrentState(7);

	push	7
	mov	ecx, DWORD PTR _pCPButton$[ebp]
	call	?SetCurrentState@CPButtonObject@@QAEXH@Z ; CPButtonObject::SetCurrentState

; 3817 : 			break;

	jmp	SHORT $LN15@CBExComm1V
$LN8@CBExComm1V:

; 3818 : 		case 2:
; 3819 : 			pCPButton->SetCurrentState(6);

	push	6
	mov	ecx, DWORD PTR _pCPButton$[ebp]
	call	?SetCurrentState@CPButtonObject@@QAEXH@Z ; CPButtonObject::SetCurrentState

; 3820 : 			break;

	jmp	SHORT $LN15@CBExComm1V
$LN7@CBExComm1V:

; 3821 : 		case 3:
; 3822 : 			pCPButton->SetCurrentState(5);

	push	5
	mov	ecx, DWORD PTR _pCPButton$[ebp]
	call	?SetCurrentState@CPButtonObject@@QAEXH@Z ; CPButtonObject::SetCurrentState

; 3823 : 			break;

	jmp	SHORT $LN15@CBExComm1V
$LN6@CBExComm1V:

; 3824 : 		case 4:
; 3825 : 			pCPButton->SetCurrentState(4);

	push	4
	mov	ecx, DWORD PTR _pCPButton$[ebp]
	call	?SetCurrentState@CPButtonObject@@QAEXH@Z ; CPButtonObject::SetCurrentState

; 3826 : 			break;

	jmp	SHORT $LN15@CBExComm1V
$LN5@CBExComm1V:

; 3827 : 		case 5:
; 3828 : 			pCPButton->SetCurrentState(3);

	push	3
	mov	ecx, DWORD PTR _pCPButton$[ebp]
	call	?SetCurrentState@CPButtonObject@@QAEXH@Z ; CPButtonObject::SetCurrentState

; 3829 : 			break;

	jmp	SHORT $LN15@CBExComm1V
$LN4@CBExComm1V:

; 3830 : 		case 6:
; 3831 : 			pCPButton->SetCurrentState(2);

	push	2
	mov	ecx, DWORD PTR _pCPButton$[ebp]
	call	?SetCurrentState@CPButtonObject@@QAEXH@Z ; CPButtonObject::SetCurrentState

; 3832 : 			break;

	jmp	SHORT $LN15@CBExComm1V
$LN3@CBExComm1V:

; 3833 : 		case 7:
; 3834 : 			pCPButton->SetCurrentState(1);

	push	1
	mov	ecx, DWORD PTR _pCPButton$[ebp]
	call	?SetCurrentState@CPButtonObject@@QAEXH@Z ; CPButtonObject::SetCurrentState

; 3835 : 			break;

	jmp	SHORT $LN15@CBExComm1V
$LN2@CBExComm1V:

; 3836 : 		case 8:
; 3837 : 			pCPButton->SetCurrentState(0);

	push	0
	mov	ecx, DWORD PTR _pCPButton$[ebp]
	call	?SetCurrentState@CPButtonObject@@QAEXH@Z ; CPButtonObject::SetCurrentState
$LN15@CBExComm1V:

; 3838 : 			break;
; 3839 : 		default:
; 3840 : 			break;
; 3841 : 	}
; 3842 : }

	mov	esp, ebp
	pop	ebp
	ret	0
	npad	1
$LN17@CBExComm1V:
	DD	$LN10@CBExComm1V
	DD	$LN9@CBExComm1V
	DD	$LN8@CBExComm1V
	DD	$LN7@CBExComm1V
	DD	$LN6@CBExComm1V
	DD	$LN5@CBExComm1V
	DD	$LN4@CBExComm1V
	DD	$LN3@CBExComm1V
	DD	$LN2@CBExComm1V
?CBExComm1Vol@@YAXPAXH@Z ENDP				; CBExComm1Vol
_TEXT	ENDS
; Function compile flags: /Odtp
; File c:\users\zhitao li\documents\visual studio 2012\projects\freefalcon\sim\cockpit\cbbuttons.cpp
_TEXT	SEGMENT
_pButton$ = 8						; size = 4
_event$ = 12						; size = 4
?CBEComm1Vol@@YAXPAXH@Z PROC				; CBEComm1Vol

; 3791 : {

	push	ebp
	mov	ebp, esp

; 3792 : 	if(event == CP_MOUSE_BUTTON0)

	cmp	DWORD PTR _event$[ebp], 3
	jne	SHORT $LN2@CBEComm1Vo

; 3793 : 		SimStepComm1VolumeUp(0, KEY_DOWN, NULL);

	push	0
	push	8
	push	0
	call	?SimStepComm1VolumeUp@@YAXKHPAX@Z	; SimStepComm1VolumeUp
	add	esp, 12					; 0000000cH

; 3794 : 	else

	jmp	SHORT $LN3@CBEComm1Vo
$LN2@CBEComm1Vo:

; 3795 : 		SimStepComm1VolumeDown(0, KEY_DOWN, NULL);

	push	0
	push	8
	push	0
	call	?SimStepComm1VolumeDown@@YAXKHPAX@Z	; SimStepComm1VolumeDown
	add	esp, 12					; 0000000cH
$LN3@CBEComm1Vo:

; 3796 : }

	pop	ebp
	ret	0
?CBEComm1Vol@@YAXPAXH@Z ENDP				; CBEComm1Vol
_TEXT	ENDS
; Function compile flags: /Odtp
; File c:\users\zhitao li\documents\visual studio 2012\projects\freefalcon\sim\cockpit\cbbuttons.cpp
_TEXT	SEGMENT
_pCPButton$ = -8					; size = 4
_playerAC$ = -4						; size = 4
_pButton$ = 8						; size = 4
_event$ = 12						; size = 4
?CBExCanopy@@YAXPAXH@Z PROC				; CBExCanopy

; 3775 : {

	push	ebp
	mov	ebp, esp
	sub	esp, 8

; 3776 : 	AircraftClass *playerAC = SimDriver.GetPlayerAircraft();

	mov	ecx, OFFSET ?SimDriver@@3VSimulationDriver@@A ; SimDriver
	call	?GetPlayerAircraft@SimulationDriver@@QBEPAVAircraftClass@@XZ ; SimulationDriver::GetPlayerAircraft
	mov	DWORD PTR _playerAC$[ebp], eax

; 3777 : 	if (playerAC == NULL){

	cmp	DWORD PTR _playerAC$[ebp], 0
	jne	SHORT $LN3@CBExCanopy

; 3778 : 		return;

	jmp	SHORT $LN4@CBExCanopy
$LN3@CBExCanopy:

; 3779 : 	}
; 3780 : 
; 3781 : 	CPButtonObject *pCPButton	= (CPButtonObject*) pButton;

	mov	eax, DWORD PTR _pButton$[ebp]
	mov	DWORD PTR _pCPButton$[ebp], eax

; 3782 : 	if(playerAC->af->canopyState)

	mov	ecx, DWORD PTR _playerAC$[ebp]
	mov	edx, DWORD PTR [ecx+932]
	movzx	eax, BYTE PTR [edx+1588]
	test	eax, eax
	je	SHORT $LN2@CBExCanopy

; 3783 : 	    pCPButton->SetCurrentState(1);

	push	1
	mov	ecx, DWORD PTR _pCPButton$[ebp]
	call	?SetCurrentState@CPButtonObject@@QAEXH@Z ; CPButtonObject::SetCurrentState

; 3784 : 	else

	jmp	SHORT $LN4@CBExCanopy
$LN2@CBExCanopy:

; 3785 : 	    pCPButton->SetCurrentState(0);

	push	0
	mov	ecx, DWORD PTR _pCPButton$[ebp]
	call	?SetCurrentState@CPButtonObject@@QAEXH@Z ; CPButtonObject::SetCurrentState
$LN4@CBExCanopy:

; 3786 : }

	mov	esp, ebp
	pop	ebp
	ret	0
?CBExCanopy@@YAXPAXH@Z ENDP				; CBExCanopy
_TEXT	ENDS
; Function compile flags: /Odtp
; File c:\users\zhitao li\documents\visual studio 2012\projects\freefalcon\sim\cockpit\cbbuttons.cpp
_TEXT	SEGMENT
_pButton$ = 8						; size = 4
_event$ = 12						; size = 4
?CBECanopy@@YAXPAXH@Z PROC				; CBECanopy

; 3770 : {

	push	ebp
	mov	ebp, esp

; 3771 :     AFCanopyToggle(0, KEY_DOWN, NULL);

	push	0
	push	8
	push	0
	call	?AFCanopyToggle@@YAXKHPAX@Z		; AFCanopyToggle
	add	esp, 12					; 0000000cH

; 3772 : }

	pop	ebp
	ret	0
?CBECanopy@@YAXPAXH@Z ENDP				; CBECanopy
_TEXT	ENDS
; Function compile flags: /Odtp
; File c:\users\zhitao li\documents\visual studio 2012\projects\freefalcon\sim\cockpit\cbbuttons.cpp
_TEXT	SEGMENT
_pCPButton$ = -8					; size = 4
_playerAC$ = -4						; size = 4
_pButton$ = 8						; size = 4
_event$ = 12						; size = 4
?CBExDragChute@@YAXPAXH@Z PROC				; CBExDragChute

; 3751 : {

	push	ebp
	mov	ebp, esp
	sub	esp, 8

; 3752 : 	AircraftClass *playerAC = SimDriver.GetPlayerAircraft();

	mov	ecx, OFFSET ?SimDriver@@3VSimulationDriver@@A ; SimDriver
	call	?GetPlayerAircraft@SimulationDriver@@QBEPAVAircraftClass@@XZ ; SimulationDriver::GetPlayerAircraft
	mov	DWORD PTR _playerAC$[ebp], eax

; 3753 : 	if (playerAC == NULL){

	cmp	DWORD PTR _playerAC$[ebp], 0
	jne	SHORT $LN3@CBExDragCh

; 3754 : 		return;

	jmp	SHORT $LN4@CBExDragCh
$LN3@CBExDragCh:

; 3755 : 	}
; 3756 : 
; 3757 : 	CPButtonObject *pCPButton	= (CPButtonObject*) pButton;

	mov	eax, DWORD PTR _pButton$[ebp]
	mov	DWORD PTR _pCPButton$[ebp], eax

; 3758 : 	if(playerAC->af->dragChute != AirframeClass::DRAGC_STOWED){

	mov	ecx, DWORD PTR _playerAC$[ebp]
	mov	edx, DWORD PTR [ecx+932]
	cmp	DWORD PTR [edx+1584], 0
	je	SHORT $LN2@CBExDragCh

; 3759 : 	    pCPButton->SetCurrentState(1);

	push	1
	mov	ecx, DWORD PTR _pCPButton$[ebp]
	call	?SetCurrentState@CPButtonObject@@QAEXH@Z ; CPButtonObject::SetCurrentState

; 3760 : 	}
; 3761 : 	else{

	jmp	SHORT $LN4@CBExDragCh
$LN2@CBExDragCh:

; 3762 : 	    pCPButton->SetCurrentState(0);

	push	0
	mov	ecx, DWORD PTR _pCPButton$[ebp]
	call	?SetCurrentState@CPButtonObject@@QAEXH@Z ; CPButtonObject::SetCurrentState
$LN4@CBExDragCh:

; 3763 : 	}
; 3764 : }

	mov	esp, ebp
	pop	ebp
	ret	0
?CBExDragChute@@YAXPAXH@Z ENDP				; CBExDragChute
_TEXT	ENDS
; Function compile flags: /Odtp
; File c:\users\zhitao li\documents\visual studio 2012\projects\freefalcon\sim\cockpit\cbbuttons.cpp
_TEXT	SEGMENT
_pButton$ = 8						; size = 4
_event$ = 12						; size = 4
?CBEDragChute@@YAXPAXH@Z PROC				; CBEDragChute

; 3746 : {

	push	ebp
	mov	ebp, esp

; 3747 :     AFDragChute(0, KEY_DOWN, NULL);

	push	0
	push	8
	push	0
	call	?AFDragChute@@YAXKHPAX@Z		; AFDragChute
	add	esp, 12					; 0000000cH

; 3748 : }

	pop	ebp
	ret	0
?CBEDragChute@@YAXPAXH@Z ENDP				; CBEDragChute
_TEXT	ENDS
; Function compile flags: /Odtp
; File c:\users\zhitao li\documents\visual studio 2012\projects\freefalcon\sim\cockpit\cbbuttons.cpp
_TEXT	SEGMENT
_pCPButton$ = -4					; size = 4
_pButton$ = 8						; size = 4
_event$ = 12						; size = 4
?CBELef@@YAXPAXH@Z PROC					; CBELef

; 3730 : void CBELef(void * pButton, int event){

	push	ebp
	mov	ebp, esp
	push	ecx

; 3731 : 	CPButtonObject *pCPButton	= static_cast<CPButtonObject*>(pButton);

	mov	eax, DWORD PTR _pButton$[ebp]
	mov	DWORD PTR _pCPButton$[ebp], eax

; 3732 : 	if (event == CP_MOUSE_BUTTON0){

	cmp	DWORD PTR _event$[ebp], 3
	jne	SHORT $LN2@CBELef

; 3733 : 	    AFIncLEF(0, KEY_DOWN, NULL);

	push	0
	push	8
	push	0
	call	?AFIncLEF@@YAXKHPAX@Z			; AFIncLEF
	add	esp, 12					; 0000000cH

; 3734 : 		//if (pCPButton != NULL){ pCPButton->IncrementState(); }
; 3735 : 	}
; 3736 : 	else {

	jmp	SHORT $LN3@CBELef
$LN2@CBELef:

; 3737 : 	    AFDecLEF(0, KEY_DOWN, NULL);

	push	0
	push	8
	push	0
	call	?AFDecLEF@@YAXKHPAX@Z			; AFDecLEF
	add	esp, 12					; 0000000cH
$LN3@CBELef:

; 3738 : 		//if (pCPButton != NULL){ pCPButton->DecrementState(); }
; 3739 : 	}
; 3740 : }

	mov	esp, ebp
	pop	ebp
	ret	0
?CBELef@@YAXPAXH@Z ENDP					; CBELef
_TEXT	ENDS
; Function compile flags: /Odtp
; File c:\users\zhitao li\documents\visual studio 2012\projects\freefalcon\sim\cockpit\cbbuttons.cpp
_TEXT	SEGMENT
_pCPButton$ = -4					; size = 4
_pButton$ = 8						; size = 4
_event$ = 12						; size = 4
?CBExFlap@@YAXPAXH@Z PROC				; CBExFlap

; 3712 : void CBExFlap(void * pButton, int event){

	push	ebp
	mov	ebp, esp
	push	ecx

; 3713 : 	return;

	jmp	SHORT $LN5@CBExFlap

; 3714 : 	CPButtonObject *pCPButton	= static_cast<CPButtonObject*>(pButton);

	mov	eax, DWORD PTR _pButton$[ebp]
	mov	DWORD PTR _pCPButton$[ebp], eax

; 3715 : 	if (pCPButton == NULL){ return; }

	cmp	DWORD PTR _pCPButton$[ebp], 0
	jne	SHORT $LN4@CBExFlap
	jmp	SHORT $LN5@CBExFlap
$LN4@CBExFlap:

; 3716 : 
; 3717 : 	if(event == CP_MOUSE_BUTTON0){

	cmp	DWORD PTR _event$[ebp], 3
	jne	SHORT $LN3@CBExFlap

; 3718 : 		pCPButton->SetCurrentState(1);

	push	1
	mov	ecx, DWORD PTR _pCPButton$[ebp]
	call	?SetCurrentState@CPButtonObject@@QAEXH@Z ; CPButtonObject::SetCurrentState
	jmp	SHORT $LN5@CBExFlap
$LN3@CBExFlap:

; 3719 : 	}
; 3720 : 	else if (event == CP_MOUSE_BUTTON1){

	cmp	DWORD PTR _event$[ebp], 4
	jne	SHORT $LN5@CBExFlap

; 3721 : 		pCPButton->SetCurrentState(2);

	push	2
	mov	ecx, DWORD PTR _pCPButton$[ebp]
	call	?SetCurrentState@CPButtonObject@@QAEXH@Z ; CPButtonObject::SetCurrentState
$LN5@CBExFlap:

; 3722 : 	}
; 3723 : }

	mov	esp, ebp
	pop	ebp
	ret	0
?CBExFlap@@YAXPAXH@Z ENDP				; CBExFlap
_TEXT	ENDS
; Function compile flags: /Odtp
; File c:\users\zhitao li\documents\visual studio 2012\projects\freefalcon\sim\cockpit\cbbuttons.cpp
_TEXT	SEGMENT
_pCPButton$ = -4					; size = 4
_pButton$ = 8						; size = 4
_event$ = 12						; size = 4
?CBEFlap@@YAXPAXH@Z PROC				; CBEFlap

; 3698 : void CBEFlap(void * pButton, int event){

	push	ebp
	mov	ebp, esp
	push	ecx

; 3699 : 	CPButtonObject *pCPButton	= static_cast<CPButtonObject*>(pButton);

	mov	eax, DWORD PTR _pButton$[ebp]
	mov	DWORD PTR _pCPButton$[ebp], eax

; 3700 : 	if(event == CP_MOUSE_BUTTON0){

	cmp	DWORD PTR _event$[ebp], 3
	jne	SHORT $LN2@CBEFlap

; 3701 : 	    AFIncFlap(0, KEY_DOWN, NULL);

	push	0
	push	8
	push	0
	call	?AFIncFlap@@YAXKHPAX@Z			; AFIncFlap
	add	esp, 12					; 0000000cH

; 3702 : 		pCPButton->SetCurrentState(1);

	push	1
	mov	ecx, DWORD PTR _pCPButton$[ebp]
	call	?SetCurrentState@CPButtonObject@@QAEXH@Z ; CPButtonObject::SetCurrentState

; 3703 : 		//if (pCPButton != NULL){ pCPButton->IncrementState(); }
; 3704 : 	}
; 3705 : 	else{

	jmp	SHORT $LN3@CBEFlap
$LN2@CBEFlap:

; 3706 : 	    AFDecFlap(0, KEY_DOWN, NULL);

	push	0
	push	8
	push	0
	call	?AFDecFlap@@YAXKHPAX@Z			; AFDecFlap
	add	esp, 12					; 0000000cH

; 3707 : 		pCPButton->SetCurrentState(2);

	push	2
	mov	ecx, DWORD PTR _pCPButton$[ebp]
	call	?SetCurrentState@CPButtonObject@@QAEXH@Z ; CPButtonObject::SetCurrentState
$LN3@CBEFlap:

; 3708 : 		//if (pCPButton != NULL){ pCPButton->DecrementState(); }
; 3709 : 	}
; 3710 : }

	mov	esp, ebp
	pop	ebp
	ret	0
?CBEFlap@@YAXPAXH@Z ENDP				; CBEFlap
_TEXT	ENDS
; Function compile flags: /Odtp
; File c:\users\zhitao li\documents\visual studio 2012\projects\freefalcon\sim\cockpit\cbbuttons.cpp
_TEXT	SEGMENT
_pButton$ = 8						; size = 4
_event$ = 12						; size = 4
?CBEThrRevButton@@YAXPAXH@Z PROC			; CBEThrRevButton

; 3690 : {

	push	ebp
	mov	ebp, esp

; 3691 : 	SimReverseThrusterToggle(0, KEY_DOWN, NULL);

	push	0
	push	8
	push	0
	call	?SimReverseThrusterToggle@@YAXKHPAX@Z	; SimReverseThrusterToggle
	add	esp, 12					; 0000000cH

; 3692 : }

	pop	ebp
	ret	0
?CBEThrRevButton@@YAXPAXH@Z ENDP			; CBEThrRevButton
_TEXT	ENDS
; Function compile flags: /Odtp
; File c:\users\zhitao li\documents\visual studio 2012\projects\freefalcon\sim\cockpit\cbbuttons.cpp
_TEXT	SEGMENT
_pButton$ = 8						; size = 4
_event$ = 12						; size = 4
?CBETFRButton@@YAXPAXH@Z PROC				; CBETFRButton

; 3682 : {

	push	ebp
	mov	ebp, esp

; 3683 : 	SimToggleTFR(0, KEY_DOWN, NULL);

	push	0
	push	8
	push	0
	call	?SimToggleTFR@@YAXKHPAX@Z		; SimToggleTFR
	add	esp, 12					; 0000000cH

; 3684 : }

	pop	ebp
	ret	0
?CBETFRButton@@YAXPAXH@Z ENDP				; CBETFRButton
_TEXT	ENDS
; Function compile flags: /Odtp
; File c:\users\zhitao li\documents\visual studio 2012\projects\freefalcon\sim\cockpit\cbbuttons.cpp
_TEXT	SEGMENT
_pCPButton$ = -8					; size = 4
_Pos$1 = -4						; size = 4
_pButton$ = 8						; size = 4
_event$ = 12						; size = 4
?CBExDeprRet@@YAXPAXH@Z PROC				; CBExDeprRet

; 3670 : {

	push	ebp
	mov	ebp, esp
	sub	esp, 8

; 3671 : 	CPButtonObject *pCPButton	= (CPButtonObject*) pButton;

	mov	eax, DWORD PTR _pButton$[ebp]
	mov	DWORD PTR _pCPButton$[ebp], eax

; 3672 : 	if(TheHud)

	cmp	DWORD PTR ?TheHud@@3PAVHudClass@@A, 0	; TheHud
	je	SHORT $LN2@CBExDeprRe

; 3673 : 	{
; 3674 : 		int Pos = -TheHud->ReticlePosition;

	mov	ecx, DWORD PTR ?TheHud@@3PAVHudClass@@A	; TheHud
	mov	edx, DWORD PTR [ecx+5128]
	neg	edx
	mov	DWORD PTR _Pos$1[ebp], edx

; 3675 : 		pCPButton->SetCurrentState(Pos);

	mov	eax, DWORD PTR _Pos$1[ebp]
	push	eax
	mov	ecx, DWORD PTR _pCPButton$[ebp]
	call	?SetCurrentState@CPButtonObject@@QAEXH@Z ; CPButtonObject::SetCurrentState
$LN2@CBExDeprRe:

; 3676 : 	}
; 3677 : }

	mov	esp, ebp
	pop	ebp
	ret	0
?CBExDeprRet@@YAXPAXH@Z ENDP				; CBExDeprRet
_TEXT	ENDS
; Function compile flags: /Odtp
; File c:\users\zhitao li\documents\visual studio 2012\projects\freefalcon\sim\cockpit\cbbuttons.cpp
_TEXT	SEGMENT
_pButton$ = 8						; size = 4
_event$ = 12						; size = 4
?CBEDeprRet@@YAXPAXH@Z PROC				; CBEDeprRet

; 3661 : {

	push	ebp
	mov	ebp, esp

; 3662 : 	if(event == CP_MOUSE_BUTTON0){

	cmp	DWORD PTR _event$[ebp], 3
	jne	SHORT $LN2@CBEDeprRet

; 3663 : 		SimRetUp(0, KEY_DOWN, NULL);

	push	0
	push	8
	push	0
	call	?SimRetUp@@YAXKHPAX@Z			; SimRetUp
	add	esp, 12					; 0000000cH

; 3664 : 	}
; 3665 : 	else{

	jmp	SHORT $LN3@CBEDeprRet
$LN2@CBEDeprRet:

; 3666 : 		SimRetDn(0, KEY_DOWN, NULL);

	push	0
	push	8
	push	0
	call	?SimRetDn@@YAXKHPAX@Z			; SimRetDn
	add	esp, 12					; 0000000cH
$LN3@CBEDeprRet:

; 3667 : 	}
; 3668 : }

	pop	ebp
	ret	0
?CBEDeprRet@@YAXPAXH@Z ENDP				; CBEDeprRet
_TEXT	ENDS
; Function compile flags: /Odtp
; File c:\users\zhitao li\documents\visual studio 2012\projects\freefalcon\sim\cockpit\cbbuttons.cpp
_TEXT	SEGMENT
_pos$ = -16						; size = 4
tv68 = -12						; size = 4
_playerAC$ = -8						; size = 4
_pCPButton$ = -4					; size = 4
_pButton$ = 8						; size = 4
_event$ = 12						; size = 4
?CBExThreatVol@@YAXPAXH@Z PROC				; CBExThreatVol

; 3616 : {

	push	ebp
	mov	ebp, esp
	sub	esp, 16					; 00000010H

; 3617 : 	AircraftClass *playerAC = SimDriver.GetPlayerAircraft();

	mov	ecx, OFFSET ?SimDriver@@3VSimulationDriver@@A ; SimDriver
	call	?GetPlayerAircraft@SimulationDriver@@QBEPAVAircraftClass@@XZ ; SimulationDriver::GetPlayerAircraft
	mov	DWORD PTR _playerAC$[ebp], eax

; 3618 : 	if (playerAC == NULL){

	cmp	DWORD PTR _playerAC$[ebp], 0
	jne	SHORT $LN13@CBExThreat

; 3619 : 		return;

	jmp	$LN14@CBExThreat
$LN13@CBExThreat:

; 3620 : 	}
; 3621 : 
; 3622 : 	CPButtonObject *pCPButton	= (CPButtonObject*) pButton;

	mov	eax, DWORD PTR _pButton$[ebp]
	mov	DWORD PTR _pCPButton$[ebp], eax

; 3623 : 	int pos = playerAC->ThreatVolume;

	mov	ecx, DWORD PTR _playerAC$[ebp]
	mov	edx, DWORD PTR [ecx+880]
	mov	DWORD PTR _pos$[ebp], edx

; 3624 : 	switch(pos)

	mov	eax, DWORD PTR _pos$[ebp]
	mov	DWORD PTR tv68[ebp], eax
	cmp	DWORD PTR tv68[ebp], 8
	ja	SHORT $LN14@CBExThreat
	mov	ecx, DWORD PTR tv68[ebp]
	jmp	DWORD PTR $LN16@CBExThreat[ecx*4]
$LN10@CBExThreat:

; 3625 : 	{
; 3626 : 		case 0:	//max vol
; 3627 : 			pCPButton->SetCurrentState(8);

	push	8
	mov	ecx, DWORD PTR _pCPButton$[ebp]
	call	?SetCurrentState@CPButtonObject@@QAEXH@Z ; CPButtonObject::SetCurrentState

; 3628 : 			break;

	jmp	SHORT $LN14@CBExThreat
$LN9@CBExThreat:

; 3629 : 		case 1:
; 3630 : 			pCPButton->SetCurrentState(7);

	push	7
	mov	ecx, DWORD PTR _pCPButton$[ebp]
	call	?SetCurrentState@CPButtonObject@@QAEXH@Z ; CPButtonObject::SetCurrentState

; 3631 : 			break;

	jmp	SHORT $LN14@CBExThreat
$LN8@CBExThreat:

; 3632 : 		case 2:
; 3633 : 			pCPButton->SetCurrentState(6);

	push	6
	mov	ecx, DWORD PTR _pCPButton$[ebp]
	call	?SetCurrentState@CPButtonObject@@QAEXH@Z ; CPButtonObject::SetCurrentState

; 3634 : 			break;

	jmp	SHORT $LN14@CBExThreat
$LN7@CBExThreat:

; 3635 : 		case 3:
; 3636 : 			pCPButton->SetCurrentState(5);

	push	5
	mov	ecx, DWORD PTR _pCPButton$[ebp]
	call	?SetCurrentState@CPButtonObject@@QAEXH@Z ; CPButtonObject::SetCurrentState

; 3637 : 			break;

	jmp	SHORT $LN14@CBExThreat
$LN6@CBExThreat:

; 3638 : 		case 4:
; 3639 : 			pCPButton->SetCurrentState(4);

	push	4
	mov	ecx, DWORD PTR _pCPButton$[ebp]
	call	?SetCurrentState@CPButtonObject@@QAEXH@Z ; CPButtonObject::SetCurrentState

; 3640 : 			break;

	jmp	SHORT $LN14@CBExThreat
$LN5@CBExThreat:

; 3641 : 		case 5:
; 3642 : 			pCPButton->SetCurrentState(3);

	push	3
	mov	ecx, DWORD PTR _pCPButton$[ebp]
	call	?SetCurrentState@CPButtonObject@@QAEXH@Z ; CPButtonObject::SetCurrentState

; 3643 : 			break;

	jmp	SHORT $LN14@CBExThreat
$LN4@CBExThreat:

; 3644 : 		case 6:
; 3645 : 			pCPButton->SetCurrentState(2);

	push	2
	mov	ecx, DWORD PTR _pCPButton$[ebp]
	call	?SetCurrentState@CPButtonObject@@QAEXH@Z ; CPButtonObject::SetCurrentState

; 3646 : 			break;

	jmp	SHORT $LN14@CBExThreat
$LN3@CBExThreat:

; 3647 : 		case 7:
; 3648 : 			pCPButton->SetCurrentState(1);

	push	1
	mov	ecx, DWORD PTR _pCPButton$[ebp]
	call	?SetCurrentState@CPButtonObject@@QAEXH@Z ; CPButtonObject::SetCurrentState

; 3649 : 			break;

	jmp	SHORT $LN14@CBExThreat
$LN2@CBExThreat:

; 3650 : 		case 8:
; 3651 : 			pCPButton->SetCurrentState(0);

	push	0
	mov	ecx, DWORD PTR _pCPButton$[ebp]
	call	?SetCurrentState@CPButtonObject@@QAEXH@Z ; CPButtonObject::SetCurrentState
$LN14@CBExThreat:

; 3652 : 			break;
; 3653 : 		default:
; 3654 : 			break;
; 3655 : 	}
; 3656 : }

	mov	esp, ebp
	pop	ebp
	ret	0
$LN16@CBExThreat:
	DD	$LN10@CBExThreat
	DD	$LN9@CBExThreat
	DD	$LN8@CBExThreat
	DD	$LN7@CBExThreat
	DD	$LN6@CBExThreat
	DD	$LN5@CBExThreat
	DD	$LN4@CBExThreat
	DD	$LN3@CBExThreat
	DD	$LN2@CBExThreat
?CBExThreatVol@@YAXPAXH@Z ENDP				; CBExThreatVol
_TEXT	ENDS
; Function compile flags: /Odtp
; File c:\users\zhitao li\documents\visual studio 2012\projects\freefalcon\sim\cockpit\cbbuttons.cpp
_TEXT	SEGMENT
_pButton$ = 8						; size = 4
_event$ = 12						; size = 4
?CBEThreatVol@@YAXPAXH@Z PROC				; CBEThreatVol

; 3607 : {

	push	ebp
	mov	ebp, esp

; 3608 : 	if(event == CP_MOUSE_BUTTON0){

	cmp	DWORD PTR _event$[ebp], 3
	jne	SHORT $LN2@CBEThreatV

; 3609 : 		SimStepThreatVolumeUp(0, KEY_DOWN, NULL);

	push	0
	push	8
	push	0
	call	?SimStepThreatVolumeUp@@YAXKHPAX@Z	; SimStepThreatVolumeUp
	add	esp, 12					; 0000000cH

; 3610 : 	}
; 3611 : 	else{

	jmp	SHORT $LN3@CBEThreatV
$LN2@CBEThreatV:

; 3612 : 		SimStepThreatVolumeDown(0, KEY_DOWN, NULL);

	push	0
	push	8
	push	0
	call	?SimStepThreatVolumeDown@@YAXKHPAX@Z	; SimStepThreatVolumeDown
	add	esp, 12					; 0000000cH
$LN3@CBEThreatV:

; 3613 : 	}
; 3614 : }

	pop	ebp
	ret	0
?CBEThreatVol@@YAXPAXH@Z ENDP				; CBEThreatVol
_TEXT	ENDS
; Function compile flags: /Odtp
; File c:\users\zhitao li\documents\visual studio 2012\projects\freefalcon\sim\cockpit\cbbuttons.cpp
_TEXT	SEGMENT
_pos$ = -16						; size = 4
tv68 = -12						; size = 4
_playerAC$ = -8						; size = 4
_pCPButton$ = -4					; size = 4
_pButton$ = 8						; size = 4
_event$ = 12						; size = 4
?CBExMissileVol@@YAXPAXH@Z PROC				; CBExMissileVol

; 3562 : {

	push	ebp
	mov	ebp, esp
	sub	esp, 16					; 00000010H

; 3563 : 	AircraftClass *playerAC = SimDriver.GetPlayerAircraft();

	mov	ecx, OFFSET ?SimDriver@@3VSimulationDriver@@A ; SimDriver
	call	?GetPlayerAircraft@SimulationDriver@@QBEPAVAircraftClass@@XZ ; SimulationDriver::GetPlayerAircraft
	mov	DWORD PTR _playerAC$[ebp], eax

; 3564 : 	if (playerAC == NULL){

	cmp	DWORD PTR _playerAC$[ebp], 0
	jne	SHORT $LN13@CBExMissil

; 3565 : 		return;

	jmp	$LN14@CBExMissil
$LN13@CBExMissil:

; 3566 : 	}
; 3567 : 
; 3568 : 	CPButtonObject *pCPButton	= (CPButtonObject*) pButton;

	mov	eax, DWORD PTR _pButton$[ebp]
	mov	DWORD PTR _pCPButton$[ebp], eax

; 3569 : 	int pos = playerAC->MissileVolume;

	mov	ecx, DWORD PTR _playerAC$[ebp]
	mov	edx, DWORD PTR [ecx+876]
	mov	DWORD PTR _pos$[ebp], edx

; 3570 : 	switch(pos)

	mov	eax, DWORD PTR _pos$[ebp]
	mov	DWORD PTR tv68[ebp], eax
	cmp	DWORD PTR tv68[ebp], 8
	ja	SHORT $LN14@CBExMissil
	mov	ecx, DWORD PTR tv68[ebp]
	jmp	DWORD PTR $LN16@CBExMissil[ecx*4]
$LN10@CBExMissil:

; 3571 : 	{
; 3572 : 		case 0:	//max vol
; 3573 : 			pCPButton->SetCurrentState(8);

	push	8
	mov	ecx, DWORD PTR _pCPButton$[ebp]
	call	?SetCurrentState@CPButtonObject@@QAEXH@Z ; CPButtonObject::SetCurrentState

; 3574 : 			break;

	jmp	SHORT $LN14@CBExMissil
$LN9@CBExMissil:

; 3575 : 		case 1:
; 3576 : 			pCPButton->SetCurrentState(7);

	push	7
	mov	ecx, DWORD PTR _pCPButton$[ebp]
	call	?SetCurrentState@CPButtonObject@@QAEXH@Z ; CPButtonObject::SetCurrentState

; 3577 : 			break;

	jmp	SHORT $LN14@CBExMissil
$LN8@CBExMissil:

; 3578 : 		case 2:
; 3579 : 			pCPButton->SetCurrentState(6);

	push	6
	mov	ecx, DWORD PTR _pCPButton$[ebp]
	call	?SetCurrentState@CPButtonObject@@QAEXH@Z ; CPButtonObject::SetCurrentState

; 3580 : 			break;

	jmp	SHORT $LN14@CBExMissil
$LN7@CBExMissil:

; 3581 : 		case 3:
; 3582 : 			pCPButton->SetCurrentState(5);

	push	5
	mov	ecx, DWORD PTR _pCPButton$[ebp]
	call	?SetCurrentState@CPButtonObject@@QAEXH@Z ; CPButtonObject::SetCurrentState

; 3583 : 			break;

	jmp	SHORT $LN14@CBExMissil
$LN6@CBExMissil:

; 3584 : 		case 4:
; 3585 : 			pCPButton->SetCurrentState(4);

	push	4
	mov	ecx, DWORD PTR _pCPButton$[ebp]
	call	?SetCurrentState@CPButtonObject@@QAEXH@Z ; CPButtonObject::SetCurrentState

; 3586 : 			break;

	jmp	SHORT $LN14@CBExMissil
$LN5@CBExMissil:

; 3587 : 		case 5:
; 3588 : 			pCPButton->SetCurrentState(3);

	push	3
	mov	ecx, DWORD PTR _pCPButton$[ebp]
	call	?SetCurrentState@CPButtonObject@@QAEXH@Z ; CPButtonObject::SetCurrentState

; 3589 : 			break;

	jmp	SHORT $LN14@CBExMissil
$LN4@CBExMissil:

; 3590 : 		case 6:
; 3591 : 			pCPButton->SetCurrentState(2);

	push	2
	mov	ecx, DWORD PTR _pCPButton$[ebp]
	call	?SetCurrentState@CPButtonObject@@QAEXH@Z ; CPButtonObject::SetCurrentState

; 3592 : 			break;

	jmp	SHORT $LN14@CBExMissil
$LN3@CBExMissil:

; 3593 : 		case 7:
; 3594 : 			pCPButton->SetCurrentState(1);

	push	1
	mov	ecx, DWORD PTR _pCPButton$[ebp]
	call	?SetCurrentState@CPButtonObject@@QAEXH@Z ; CPButtonObject::SetCurrentState

; 3595 : 			break;

	jmp	SHORT $LN14@CBExMissil
$LN2@CBExMissil:

; 3596 : 		case 8:
; 3597 : 			pCPButton->SetCurrentState(0);

	push	0
	mov	ecx, DWORD PTR _pCPButton$[ebp]
	call	?SetCurrentState@CPButtonObject@@QAEXH@Z ; CPButtonObject::SetCurrentState
$LN14@CBExMissil:

; 3598 : 			break;
; 3599 : 		default:
; 3600 : 			break;
; 3601 : 	}
; 3602 : }

	mov	esp, ebp
	pop	ebp
	ret	0
$LN16@CBExMissil:
	DD	$LN10@CBExMissil
	DD	$LN9@CBExMissil
	DD	$LN8@CBExMissil
	DD	$LN7@CBExMissil
	DD	$LN6@CBExMissil
	DD	$LN5@CBExMissil
	DD	$LN4@CBExMissil
	DD	$LN3@CBExMissil
	DD	$LN2@CBExMissil
?CBExMissileVol@@YAXPAXH@Z ENDP				; CBExMissileVol
_TEXT	ENDS
; Function compile flags: /Odtp
; File c:\users\zhitao li\documents\visual studio 2012\projects\freefalcon\sim\cockpit\cbbuttons.cpp
_TEXT	SEGMENT
_pButton$ = 8						; size = 4
_event$ = 12						; size = 4
?CBEMissileVol@@YAXPAXH@Z PROC				; CBEMissileVol

; 3553 : {

	push	ebp
	mov	ebp, esp

; 3554 : 	if (event == CP_MOUSE_BUTTON0){

	cmp	DWORD PTR _event$[ebp], 3
	jne	SHORT $LN2@CBEMissile

; 3555 : 		SimStepMissileVolumeUp(0, KEY_DOWN, NULL);

	push	0
	push	8
	push	0
	call	?SimStepMissileVolumeUp@@YAXKHPAX@Z	; SimStepMissileVolumeUp
	add	esp, 12					; 0000000cH

; 3556 : 	}
; 3557 : 	else {

	jmp	SHORT $LN3@CBEMissile
$LN2@CBEMissile:

; 3558 : 		SimStepMissileVolumeDown(0, KEY_DOWN, NULL);

	push	0
	push	8
	push	0
	call	?SimStepMissileVolumeDown@@YAXKHPAX@Z	; SimStepMissileVolumeDown
	add	esp, 12					; 0000000cH
$LN3@CBEMissile:

; 3559 : 	}
; 3560 : }

	pop	ebp
	ret	0
?CBEMissileVol@@YAXPAXH@Z ENDP				; CBEMissileVol
_TEXT	ENDS
; Function compile flags: /Odtp
; File c:\users\zhitao li\documents\visual studio 2012\projects\freefalcon\sim\cockpit\cbbuttons.cpp
_TEXT	SEGMENT
_pButton$ = 8						; size = 4
_event$ = 12						; size = 4
?CBETrimRoll@@YAXPAXH@Z PROC				; CBETrimRoll

; 3540 : {

	push	ebp
	mov	ebp, esp

; 3541 : 	if (event == CP_MOUSE_BUTTON0){

	cmp	DWORD PTR _event$[ebp], 3
	jne	SHORT $LN2@CBETrimRol

; 3542 : 		SimTrimRollLeft(0, KEY_DOWN, NULL);

	push	0
	push	8
	push	0
	call	?SimTrimRollLeft@@YAXKHPAX@Z		; SimTrimRollLeft
	add	esp, 12					; 0000000cH

; 3543 : 	}
; 3544 : 	else {

	jmp	SHORT $LN3@CBETrimRol
$LN2@CBETrimRol:

; 3545 : 		SimTrimRollRight(0, KEY_DOWN, NULL);

	push	0
	push	8
	push	0
	call	?SimTrimRollRight@@YAXKHPAX@Z		; SimTrimRollRight
	add	esp, 12					; 0000000cH
$LN3@CBETrimRol:

; 3546 : 	}
; 3547 : }

	pop	ebp
	ret	0
?CBETrimRoll@@YAXPAXH@Z ENDP				; CBETrimRoll
_TEXT	ENDS
; Function compile flags: /Odtp
; File c:\users\zhitao li\documents\visual studio 2012\projects\freefalcon\sim\cockpit\cbbuttons.cpp
_TEXT	SEGMENT
_pCPButton$ = -8					; size = 4
_state$ = -4						; size = 4
_pButton$ = 8						; size = 4
_event$ = 12						; size = 4
?CBExTrimYaw@@YAXPAXH@Z PROC				; CBExTrimYaw

; 3510 : {

	push	ebp
	mov	ebp, esp
	sub	esp, 8

; 3511 : 	CPButtonObject *pCPButton	= (CPButtonObject*) pButton;

	mov	eax, DWORD PTR _pButton$[ebp]
	mov	DWORD PTR _pCPButton$[ebp], eax

; 3512 : 	int state = -(int)(UserStickInputs.ytrim * 100);

	movss	xmm0, DWORD PTR ?UserStickInputs@@3VPilotInputs@@A+92
	mulss	xmm0, DWORD PTR __real@42c80000
	cvttss2si ecx, xmm0
	neg	ecx
	mov	DWORD PTR _state$[ebp], ecx

; 3513 : 	if(state <= -50)

	cmp	DWORD PTR _state$[ebp], -50		; ffffffceH
	jg	SHORT $LN21@CBExTrimYa

; 3514 : 		pCPButton->SetCurrentState(1);

	push	1
	mov	ecx, DWORD PTR _pCPButton$[ebp]
	call	?SetCurrentState@CPButtonObject@@QAEXH@Z ; CPButtonObject::SetCurrentState
	jmp	$LN1@CBExTrimYa
$LN21@CBExTrimYa:

; 3515 : 	else if(state <= -40 && state > -50)

	cmp	DWORD PTR _state$[ebp], -40		; ffffffd8H
	jg	SHORT $LN19@CBExTrimYa
	cmp	DWORD PTR _state$[ebp], -50		; ffffffceH
	jle	SHORT $LN19@CBExTrimYa

; 3516 : 		pCPButton->SetCurrentState(2);

	push	2
	mov	ecx, DWORD PTR _pCPButton$[ebp]
	call	?SetCurrentState@CPButtonObject@@QAEXH@Z ; CPButtonObject::SetCurrentState
	jmp	$LN1@CBExTrimYa
$LN19@CBExTrimYa:

; 3517 : 	else if(state <= -30 && state > -40)

	cmp	DWORD PTR _state$[ebp], -30		; ffffffe2H
	jg	SHORT $LN17@CBExTrimYa
	cmp	DWORD PTR _state$[ebp], -40		; ffffffd8H
	jle	SHORT $LN17@CBExTrimYa

; 3518 : 		pCPButton->SetCurrentState(3);

	push	3
	mov	ecx, DWORD PTR _pCPButton$[ebp]
	call	?SetCurrentState@CPButtonObject@@QAEXH@Z ; CPButtonObject::SetCurrentState
	jmp	$LN1@CBExTrimYa
$LN17@CBExTrimYa:

; 3519 : 	else if(state <= -20 && state > -30)

	cmp	DWORD PTR _state$[ebp], -20		; ffffffecH
	jg	SHORT $LN15@CBExTrimYa
	cmp	DWORD PTR _state$[ebp], -30		; ffffffe2H
	jle	SHORT $LN15@CBExTrimYa

; 3520 : 		pCPButton->SetCurrentState(4);

	push	4
	mov	ecx, DWORD PTR _pCPButton$[ebp]
	call	?SetCurrentState@CPButtonObject@@QAEXH@Z ; CPButtonObject::SetCurrentState
	jmp	$LN1@CBExTrimYa
$LN15@CBExTrimYa:

; 3521 : 	else if(state <= -10 && state > -20)

	cmp	DWORD PTR _state$[ebp], -10		; fffffff6H
	jg	SHORT $LN13@CBExTrimYa
	cmp	DWORD PTR _state$[ebp], -20		; ffffffecH
	jle	SHORT $LN13@CBExTrimYa

; 3522 : 		pCPButton->SetCurrentState(5);

	push	5
	mov	ecx, DWORD PTR _pCPButton$[ebp]
	call	?SetCurrentState@CPButtonObject@@QAEXH@Z ; CPButtonObject::SetCurrentState
	jmp	$LN1@CBExTrimYa
$LN13@CBExTrimYa:

; 3523 : 	else if(state <= 9 && state > -10)

	cmp	DWORD PTR _state$[ebp], 9
	jg	SHORT $LN11@CBExTrimYa
	cmp	DWORD PTR _state$[ebp], -10		; fffffff6H
	jle	SHORT $LN11@CBExTrimYa

; 3524 : 		pCPButton->SetCurrentState(6);

	push	6
	mov	ecx, DWORD PTR _pCPButton$[ebp]
	call	?SetCurrentState@CPButtonObject@@QAEXH@Z ; CPButtonObject::SetCurrentState
	jmp	SHORT $LN1@CBExTrimYa
$LN11@CBExTrimYa:

; 3525 : 	else if(state >= 10 && state < 20)

	cmp	DWORD PTR _state$[ebp], 10		; 0000000aH
	jl	SHORT $LN9@CBExTrimYa
	cmp	DWORD PTR _state$[ebp], 20		; 00000014H
	jge	SHORT $LN9@CBExTrimYa

; 3526 : 		pCPButton->SetCurrentState(7);

	push	7
	mov	ecx, DWORD PTR _pCPButton$[ebp]
	call	?SetCurrentState@CPButtonObject@@QAEXH@Z ; CPButtonObject::SetCurrentState
	jmp	SHORT $LN1@CBExTrimYa
$LN9@CBExTrimYa:

; 3527 : 	else if(state >= 20 && state < 30)

	cmp	DWORD PTR _state$[ebp], 20		; 00000014H
	jl	SHORT $LN7@CBExTrimYa
	cmp	DWORD PTR _state$[ebp], 30		; 0000001eH
	jge	SHORT $LN7@CBExTrimYa

; 3528 : 		pCPButton->SetCurrentState(8);

	push	8
	mov	ecx, DWORD PTR _pCPButton$[ebp]
	call	?SetCurrentState@CPButtonObject@@QAEXH@Z ; CPButtonObject::SetCurrentState
	jmp	SHORT $LN1@CBExTrimYa
$LN7@CBExTrimYa:

; 3529 : 	else if(state >= 30 && state < 40)

	cmp	DWORD PTR _state$[ebp], 30		; 0000001eH
	jl	SHORT $LN5@CBExTrimYa
	cmp	DWORD PTR _state$[ebp], 40		; 00000028H
	jge	SHORT $LN5@CBExTrimYa

; 3530 : 		pCPButton->SetCurrentState(9);

	push	9
	mov	ecx, DWORD PTR _pCPButton$[ebp]
	call	?SetCurrentState@CPButtonObject@@QAEXH@Z ; CPButtonObject::SetCurrentState
	jmp	SHORT $LN1@CBExTrimYa
$LN5@CBExTrimYa:

; 3531 : 	else if(state >= 40 && state < 50)

	cmp	DWORD PTR _state$[ebp], 40		; 00000028H
	jl	SHORT $LN3@CBExTrimYa
	cmp	DWORD PTR _state$[ebp], 50		; 00000032H
	jge	SHORT $LN3@CBExTrimYa

; 3532 : 		pCPButton->SetCurrentState(10);

	push	10					; 0000000aH
	mov	ecx, DWORD PTR _pCPButton$[ebp]
	call	?SetCurrentState@CPButtonObject@@QAEXH@Z ; CPButtonObject::SetCurrentState
	jmp	SHORT $LN1@CBExTrimYa
$LN3@CBExTrimYa:

; 3533 : 	else if(state >= 50)

	cmp	DWORD PTR _state$[ebp], 50		; 00000032H
	jl	SHORT $LN1@CBExTrimYa

; 3534 : 		pCPButton->SetCurrentState(11);

	push	11					; 0000000bH
	mov	ecx, DWORD PTR _pCPButton$[ebp]
	call	?SetCurrentState@CPButtonObject@@QAEXH@Z ; CPButtonObject::SetCurrentState
$LN1@CBExTrimYa:

; 3535 : }

	mov	esp, ebp
	pop	ebp
	ret	0
?CBExTrimYaw@@YAXPAXH@Z ENDP				; CBExTrimYaw
_TEXT	ENDS
; Function compile flags: /Odtp
; File c:\users\zhitao li\documents\visual studio 2012\projects\freefalcon\sim\cockpit\cbbuttons.cpp
_TEXT	SEGMENT
_pButton$ = 8						; size = 4
_event$ = 12						; size = 4
?CBETrimYaw@@YAXPAXH@Z PROC				; CBETrimYaw

; 3500 : {

	push	ebp
	mov	ebp, esp

; 3501 : 	if(event == CP_MOUSE_BUTTON0){

	cmp	DWORD PTR _event$[ebp], 3
	jne	SHORT $LN2@CBETrimYaw

; 3502 : 		SimTrimYawLeft(0, KEY_DOWN, NULL);

	push	0
	push	8
	push	0
	call	?SimTrimYawLeft@@YAXKHPAX@Z		; SimTrimYawLeft
	add	esp, 12					; 0000000cH

; 3503 : 	}
; 3504 : 	else{

	jmp	SHORT $LN3@CBETrimYaw
$LN2@CBETrimYaw:

; 3505 : 		SimTrimYawRight(0, KEY_DOWN, NULL);

	push	0
	push	8
	push	0
	call	?SimTrimYawRight@@YAXKHPAX@Z		; SimTrimYawRight
	add	esp, 12					; 0000000cH
$LN3@CBETrimYaw:

; 3506 : 	}
; 3507 : }

	pop	ebp
	ret	0
?CBETrimYaw@@YAXPAXH@Z ENDP				; CBETrimYaw
_TEXT	ENDS
; Function compile flags: /Odtp
; File c:\users\zhitao li\documents\visual studio 2012\projects\freefalcon\sim\cockpit\cbbuttons.cpp
_TEXT	SEGMENT
_pButton$ = 8						; size = 4
_event$ = 12						; size = 4
?CBETrimNose@@YAXPAXH@Z PROC				; CBETrimNose

; 3488 : {

	push	ebp
	mov	ebp, esp

; 3489 : 	if(event == CP_MOUSE_BUTTON0){

	cmp	DWORD PTR _event$[ebp], 3
	jne	SHORT $LN2@CBETrimNos

; 3490 : 		SimTrimNoseUp(0, KEY_DOWN, NULL);

	push	0
	push	8
	push	0
	call	?SimTrimNoseUp@@YAXKHPAX@Z		; SimTrimNoseUp
	add	esp, 12					; 0000000cH

; 3491 : 	}
; 3492 : 	else{

	jmp	SHORT $LN3@CBETrimNos
$LN2@CBETrimNos:

; 3493 : 		SimTrimNoseDown(0, KEY_DOWN, NULL);

	push	0
	push	8
	push	0
	call	?SimTrimNoseDown@@YAXKHPAX@Z		; SimTrimNoseDown
	add	esp, 12					; 0000000cH
$LN3@CBETrimNos:

; 3494 : 	}
; 3495 : }

	pop	ebp
	ret	0
?CBETrimNose@@YAXPAXH@Z ENDP				; CBETrimNose
_TEXT	ENDS
; Function compile flags: /Odtp
; File c:\users\zhitao li\documents\visual studio 2012\projects\freefalcon\sim\cockpit\cbbuttons.cpp
_TEXT	SEGMENT
_pCPButton$ = -4					; size = 4
_pButton$ = 8						; size = 4
_event$ = 12						; size = 4
?CBExABReset@@YAXPAXH@Z PROC				; CBExABReset

; 3481 : {

	push	ebp
	mov	ebp, esp
	push	ecx

; 3482 : 	CPButtonObject *pCPButton	= (CPButtonObject*) pButton;

	mov	eax, DWORD PTR _pButton$[ebp]
	mov	DWORD PTR _pCPButton$[ebp], eax

; 3483 : }

	mov	esp, ebp
	pop	ebp
	ret	0
?CBExABReset@@YAXPAXH@Z ENDP				; CBExABReset
_TEXT	ENDS
; Function compile flags: /Odtp
; File c:\users\zhitao li\documents\visual studio 2012\projects\freefalcon\sim\cockpit\cbbuttons.cpp
_TEXT	SEGMENT
_pButton$ = 8						; size = 4
_event$ = 12						; size = 4
?CBEABReset@@YAXPAXH@Z PROC				; CBEABReset

; 3476 : {

	push	ebp
	mov	ebp, esp

; 3477 :     SimABReset(0, KEY_DOWN, NULL);

	push	0
	push	8
	push	0
	call	?SimABReset@@YAXKHPAX@Z			; SimABReset
	add	esp, 12					; 0000000cH

; 3478 : }

	pop	ebp
	ret	0
?CBEABReset@@YAXPAXH@Z ENDP				; CBEABReset
_TEXT	ENDS
; Function compile flags: /Odtp
; File c:\users\zhitao li\documents\visual studio 2012\projects\freefalcon\sim\cockpit\cbbuttons.cpp
_TEXT	SEGMENT
_pCPButton$ = -4					; size = 4
_pButton$ = 8						; size = 4
_event$ = 12						; size = 4
?CBExMaxPower@@YAXPAXH@Z PROC				; CBExMaxPower

; 3469 : {

	push	ebp
	mov	ebp, esp
	push	ecx

; 3470 : 	CPButtonObject *pCPButton	= (CPButtonObject*) pButton;

	mov	eax, DWORD PTR _pButton$[ebp]
	mov	DWORD PTR _pCPButton$[ebp], eax

; 3471 : }

	mov	esp, ebp
	pop	ebp
	ret	0
?CBExMaxPower@@YAXPAXH@Z ENDP				; CBExMaxPower
_TEXT	ENDS
; Function compile flags: /Odtp
; File c:\users\zhitao li\documents\visual studio 2012\projects\freefalcon\sim\cockpit\cbbuttons.cpp
_TEXT	SEGMENT
_pButton$ = 8						; size = 4
_event$ = 12						; size = 4
?CBEMaxPower@@YAXPAXH@Z PROC				; CBEMaxPower

; 3464 : {

	push	ebp
	mov	ebp, esp

; 3465 :     SimMaxPower(0, KEY_DOWN, NULL);

	push	0
	push	8
	push	0
	call	?SimMaxPower@@YAXKHPAX@Z		; SimMaxPower
	add	esp, 12					; 0000000cH

; 3466 : }

	pop	ebp
	ret	0
?CBEMaxPower@@YAXPAXH@Z ENDP				; CBEMaxPower
_TEXT	ENDS
; Function compile flags: /Odtp
; File c:\users\zhitao li\documents\visual studio 2012\projects\freefalcon\sim\cockpit\cbbuttons.cpp
_TEXT	SEGMENT
_pCPButton$ = -8					; size = 4
_playerAC$ = -4						; size = 4
_pButton$ = 8						; size = 4
_event$ = 12						; size = 4
?CBExTrimAPDisc@@YAXPAXH@Z PROC				; CBExTrimAPDisc

; 3445 : {

	push	ebp
	mov	ebp, esp
	sub	esp, 8

; 3446 : 	AircraftClass *playerAC = SimDriver.GetPlayerAircraft();

	mov	ecx, OFFSET ?SimDriver@@3VSimulationDriver@@A ; SimDriver
	call	?GetPlayerAircraft@SimulationDriver@@QBEPAVAircraftClass@@XZ ; SimulationDriver::GetPlayerAircraft
	mov	DWORD PTR _playerAC$[ebp], eax

; 3447 : 	if (playerAC == NULL){

	cmp	DWORD PTR _playerAC$[ebp], 0
	jne	SHORT $LN3@CBExTrimAP

; 3448 : 		return;

	jmp	SHORT $LN4@CBExTrimAP
$LN3@CBExTrimAP:

; 3449 : 	}
; 3450 : 
; 3451 : 	CPButtonObject *pCPButton	= (CPButtonObject*) pButton;

	mov	eax, DWORD PTR _pButton$[ebp]
	mov	DWORD PTR _pCPButton$[ebp], eax

; 3452 : 
; 3453 : 	if(playerAC->TrimAPDisc){

	mov	ecx, DWORD PTR _playerAC$[ebp]
	movzx	edx, BYTE PTR [ecx+850]
	test	edx, edx
	je	SHORT $LN2@CBExTrimAP

; 3454 : 		pCPButton->SetCurrentState(1);

	push	1
	mov	ecx, DWORD PTR _pCPButton$[ebp]
	call	?SetCurrentState@CPButtonObject@@QAEXH@Z ; CPButtonObject::SetCurrentState

; 3455 : 	}
; 3456 : 	else{

	jmp	SHORT $LN4@CBExTrimAP
$LN2@CBExTrimAP:

; 3457 : 		pCPButton->SetCurrentState(0);

	push	0
	mov	ecx, DWORD PTR _pCPButton$[ebp]
	call	?SetCurrentState@CPButtonObject@@QAEXH@Z ; CPButtonObject::SetCurrentState
$LN4@CBExTrimAP:

; 3458 : 	}
; 3459 : }

	mov	esp, ebp
	pop	ebp
	ret	0
?CBExTrimAPDisc@@YAXPAXH@Z ENDP				; CBExTrimAPDisc
_TEXT	ENDS
; Function compile flags: /Odtp
; File c:\users\zhitao li\documents\visual studio 2012\projects\freefalcon\sim\cockpit\cbbuttons.cpp
_TEXT	SEGMENT
_pButton$ = 8						; size = 4
_event$ = 12						; size = 4
?CBETrimAPDisc@@YAXPAXH@Z PROC				; CBETrimAPDisc

; 3440 : {

	push	ebp
	mov	ebp, esp

; 3441 :     SimTrimAPDisc(0, KEY_DOWN, NULL);

	push	0
	push	8
	push	0
	call	?SimTrimAPDisc@@YAXKHPAX@Z		; SimTrimAPDisc
	add	esp, 12					; 0000000cH

; 3442 : }

	pop	ebp
	ret	0
?CBETrimAPDisc@@YAXPAXH@Z ENDP				; CBETrimAPDisc
_TEXT	ENDS
; Function compile flags: /Odtp
; File c:\users\zhitao li\documents\visual studio 2012\projects\freefalcon\sim\cockpit\cbbuttons.cpp
_TEXT	SEGMENT
_pCPButton$ = -4					; size = 4
_pButton$ = 8						; size = 4
_event$ = 12						; size = 4
?CBExOverHeat@@YAXPAXH@Z PROC				; CBExOverHeat

; 3433 : {

	push	ebp
	mov	ebp, esp
	push	ecx

; 3434 : 	CPButtonObject *pCPButton	= (CPButtonObject*) pButton;

	mov	eax, DWORD PTR _pButton$[ebp]
	mov	DWORD PTR _pCPButton$[ebp], eax

; 3435 : }		

	mov	esp, ebp
	pop	ebp
	ret	0
?CBExOverHeat@@YAXPAXH@Z ENDP				; CBExOverHeat
_TEXT	ENDS
; Function compile flags: /Odtp
; File c:\users\zhitao li\documents\visual studio 2012\projects\freefalcon\sim\cockpit\cbbuttons.cpp
_TEXT	SEGMENT
_pButton$ = 8						; size = 4
_event$ = 12						; size = 4
?CBEOverHeat@@YAXPAXH@Z PROC				; CBEOverHeat

; 3428 : {

	push	ebp
	mov	ebp, esp

; 3429 : 	SimOverHeat(0, KEY_DOWN, NULL);

	push	0
	push	8
	push	0
	call	?SimOverHeat@@YAXKHPAX@Z		; SimOverHeat
	add	esp, 12					; 0000000cH

; 3430 : }

	pop	ebp
	ret	0
?CBEOverHeat@@YAXPAXH@Z ENDP				; CBEOverHeat
_TEXT	ENDS
; Function compile flags: /Odtp
; File c:\users\zhitao li\documents\visual studio 2012\projects\freefalcon\sim\cockpit\cbbuttons.cpp
_TEXT	SEGMENT
_pCPButton$ = -4					; size = 4
_pButton$ = 8						; size = 4
_event$ = 12						; size = 4
?CBExTestSwitch@@YAXPAXH@Z PROC				; CBExTestSwitch

; 3421 : {

	push	ebp
	mov	ebp, esp
	push	ecx

; 3422 : 	CPButtonObject *pCPButton	= (CPButtonObject*) pButton;

	mov	eax, DWORD PTR _pButton$[ebp]
	mov	DWORD PTR _pCPButton$[ebp], eax

; 3423 : }

	mov	esp, ebp
	pop	ebp
	ret	0
?CBExTestSwitch@@YAXPAXH@Z ENDP				; CBExTestSwitch
_TEXT	ENDS
; Function compile flags: /Odtp
; File c:\users\zhitao li\documents\visual studio 2012\projects\freefalcon\sim\cockpit\cbbuttons.cpp
_TEXT	SEGMENT
_pButton$ = 8						; size = 4
_event$ = 12						; size = 4
?CBETestSwitch@@YAXPAXH@Z PROC				; CBETestSwitch

; 3416 : {

	push	ebp
	mov	ebp, esp

; 3417 :     SimTestSwitch(0, KEY_DOWN, NULL);

	push	0
	push	8
	push	0
	call	?SimTestSwitch@@YAXKHPAX@Z		; SimTestSwitch
	add	esp, 12					; 0000000cH

; 3418 : }

	pop	ebp
	ret	0
?CBETestSwitch@@YAXPAXH@Z ENDP				; CBETestSwitch
_TEXT	ENDS
; Function compile flags: /Odtp
; File c:\users\zhitao li\documents\visual studio 2012\projects\freefalcon\sim\cockpit\cbbuttons.cpp
_TEXT	SEGMENT
_pCPButton$ = -4					; size = 4
_pButton$ = 8						; size = 4
_event$ = 12						; size = 4
?CBExEPUGEN@@YAXPAXH@Z PROC				; CBExEPUGEN

; 3409 : {

	push	ebp
	mov	ebp, esp
	push	ecx

; 3410 : 	CPButtonObject *pCPButton	= (CPButtonObject*) pButton;

	mov	eax, DWORD PTR _pButton$[ebp]
	mov	DWORD PTR _pCPButton$[ebp], eax

; 3411 : }

	mov	esp, ebp
	pop	ebp
	ret	0
?CBExEPUGEN@@YAXPAXH@Z ENDP				; CBExEPUGEN
_TEXT	ENDS
; Function compile flags: /Odtp
; File c:\users\zhitao li\documents\visual studio 2012\projects\freefalcon\sim\cockpit\cbbuttons.cpp
_TEXT	SEGMENT
_pButton$ = 8						; size = 4
_event$ = 12						; size = 4
?CBEEPUGEN@@YAXPAXH@Z PROC				; CBEEPUGEN

; 3404 : {

	push	ebp
	mov	ebp, esp

; 3405 :     SimEPUGEN(0, KEY_DOWN, NULL);

	push	0
	push	8
	push	0
	call	?SimEPUGEN@@YAXKHPAX@Z			; SimEPUGEN
	add	esp, 12					; 0000000cH

; 3406 : }

	pop	ebp
	ret	0
?CBEEPUGEN@@YAXPAXH@Z ENDP				; CBEEPUGEN
_TEXT	ENDS
; Function compile flags: /Odtp
; File c:\users\zhitao li\documents\visual studio 2012\projects\freefalcon\sim\cockpit\cbbuttons.cpp
_TEXT	SEGMENT
_pCPButton$ = -4					; size = 4
_pButton$ = 8						; size = 4
_event$ = 12						; size = 4
?CBExProbeHeat@@YAXPAXH@Z PROC				; CBExProbeHeat

; 3397 : {

	push	ebp
	mov	ebp, esp
	push	ecx

; 3398 : 	CPButtonObject *pCPButton	= (CPButtonObject*) pButton;

	mov	eax, DWORD PTR _pButton$[ebp]
	mov	DWORD PTR _pCPButton$[ebp], eax

; 3399 : }

	mov	esp, ebp
	pop	ebp
	ret	0
?CBExProbeHeat@@YAXPAXH@Z ENDP				; CBExProbeHeat
_TEXT	ENDS
; Function compile flags: /Odtp
; File c:\users\zhitao li\documents\visual studio 2012\projects\freefalcon\sim\cockpit\cbbuttons.cpp
_TEXT	SEGMENT
_pButton$ = 8						; size = 4
_event$ = 12						; size = 4
?CBEProbeHeat@@YAXPAXH@Z PROC				; CBEProbeHeat

; 3392 : {

	push	ebp
	mov	ebp, esp

; 3393 :     SimProbeHeat(0, KEY_DOWN, NULL);

	push	0
	push	8
	push	0
	call	?SimProbeHeat@@YAXKHPAX@Z		; SimProbeHeat
	add	esp, 12					; 0000000cH

; 3394 : }

	pop	ebp
	ret	0
?CBEProbeHeat@@YAXPAXH@Z ENDP				; CBEProbeHeat
_TEXT	ENDS
; Function compile flags: /Odtp
; File c:\users\zhitao li\documents\visual studio 2012\projects\freefalcon\sim\cockpit\cbbuttons.cpp
_TEXT	SEGMENT
_pCPButton$ = -8					; size = 4
_playerAC$ = -4						; size = 4
_pButton$ = 8						; size = 4
_event$ = 12						; size = 4
?CBExMalIndLights@@YAXPAXH@Z PROC			; CBExMalIndLights

; 3373 : {

	push	ebp
	mov	ebp, esp
	sub	esp, 8

; 3374 : 	AircraftClass *playerAC = SimDriver.GetPlayerAircraft();

	mov	ecx, OFFSET ?SimDriver@@3VSimulationDriver@@A ; SimDriver
	call	?GetPlayerAircraft@SimulationDriver@@QBEPAVAircraftClass@@XZ ; SimulationDriver::GetPlayerAircraft
	mov	DWORD PTR _playerAC$[ebp], eax

; 3375 : 	if (playerAC == NULL){

	cmp	DWORD PTR _playerAC$[ebp], 0
	jne	SHORT $LN3@CBExMalInd

; 3376 : 		return;

	jmp	SHORT $LN4@CBExMalInd
$LN3@CBExMalInd:

; 3377 : 	}
; 3378 : 
; 3379 : 	CPButtonObject *pCPButton	= (CPButtonObject*) pButton;

	mov	eax, DWORD PTR _pButton$[ebp]
	mov	DWORD PTR _pCPButton$[ebp], eax

; 3380 : 
; 3381 : 	if(playerAC->TestLights){

	mov	ecx, DWORD PTR _playerAC$[ebp]
	movzx	edx, BYTE PTR [ecx+849]
	test	edx, edx
	je	SHORT $LN2@CBExMalInd

; 3382 : 		pCPButton->SetCurrentState(1);

	push	1
	mov	ecx, DWORD PTR _pCPButton$[ebp]
	call	?SetCurrentState@CPButtonObject@@QAEXH@Z ; CPButtonObject::SetCurrentState

; 3383 : 	}
; 3384 : 	else{

	jmp	SHORT $LN4@CBExMalInd
$LN2@CBExMalInd:

; 3385 : 		pCPButton->SetCurrentState(0);

	push	0
	mov	ecx, DWORD PTR _pCPButton$[ebp]
	call	?SetCurrentState@CPButtonObject@@QAEXH@Z ; CPButtonObject::SetCurrentState
$LN4@CBExMalInd:

; 3386 : 	}
; 3387 : }

	mov	esp, ebp
	pop	ebp
	ret	0
?CBExMalIndLights@@YAXPAXH@Z ENDP			; CBExMalIndLights
_TEXT	ENDS
; Function compile flags: /Odtp
; File c:\users\zhitao li\documents\visual studio 2012\projects\freefalcon\sim\cockpit\cbbuttons.cpp
_TEXT	SEGMENT
_pButton$ = 8						; size = 4
_event$ = 12						; size = 4
?CBEMalIndLights@@YAXPAXH@Z PROC			; CBEMalIndLights

; 3365 : {

	push	ebp
	mov	ebp, esp

; 3366 : 	if(event == CP_MOUSE_BUTTON0)

	cmp	DWORD PTR _event$[ebp], 3
	jne	SHORT $LN2@CBEMalIndL

; 3367 : 		SimMalIndLights(0, KEY_DOWN, NULL);

	push	0
	push	8
	push	0
	call	?SimMalIndLights@@YAXKHPAX@Z		; SimMalIndLights
	add	esp, 12					; 0000000cH

; 3368 : 	else

	jmp	SHORT $LN3@CBEMalIndL
$LN2@CBEMalIndL:

; 3369 : 		SimMalIndLights(0, 0, NULL);

	push	0
	push	0
	push	0
	call	?SimMalIndLights@@YAXKHPAX@Z		; SimMalIndLights
	add	esp, 12					; 0000000cH
$LN3@CBEMalIndL:

; 3370 : }

	pop	ebp
	ret	0
?CBEMalIndLights@@YAXPAXH@Z ENDP			; CBEMalIndLights
_TEXT	ENDS
; Function compile flags: /Odtp
; File c:\users\zhitao li\documents\visual studio 2012\projects\freefalcon\sim\cockpit\cbbuttons.cpp
_TEXT	SEGMENT
_pCPButton$ = -4					; size = 4
_pButton$ = 8						; size = 4
_event$ = 12						; size = 4
?CBExOBOGSBit@@YAXPAXH@Z PROC				; CBExOBOGSBit

; 3358 : {

	push	ebp
	mov	ebp, esp
	push	ecx

; 3359 : 	CPButtonObject *pCPButton	= (CPButtonObject*) pButton;

	mov	eax, DWORD PTR _pButton$[ebp]
	mov	DWORD PTR _pCPButton$[ebp], eax

; 3360 : }

	mov	esp, ebp
	pop	ebp
	ret	0
?CBExOBOGSBit@@YAXPAXH@Z ENDP				; CBExOBOGSBit
_TEXT	ENDS
; Function compile flags: /Odtp
; File c:\users\zhitao li\documents\visual studio 2012\projects\freefalcon\sim\cockpit\cbbuttons.cpp
_TEXT	SEGMENT
_pButton$ = 8						; size = 4
_event$ = 12						; size = 4
?CBEOBOGSBit@@YAXPAXH@Z PROC				; CBEOBOGSBit

; 3353 : {

	push	ebp
	mov	ebp, esp

; 3354 :     SimOBOGSBit(0, KEY_DOWN, NULL);

	push	0
	push	8
	push	0
	call	?SimOBOGSBit@@YAXKHPAX@Z		; SimOBOGSBit
	add	esp, 12					; 0000000cH

; 3355 : }

	pop	ebp
	ret	0
?CBEOBOGSBit@@YAXPAXH@Z ENDP				; CBEOBOGSBit
_TEXT	ENDS
; Function compile flags: /Odtp
; File c:\users\zhitao li\documents\visual studio 2012\projects\freefalcon\sim\cockpit\cbbuttons.cpp
_TEXT	SEGMENT
_pCPButton$ = -4					; size = 4
_pButton$ = 8						; size = 4
_event$ = 12						; size = 4
?CBExFLTBIT@@YAXPAXH@Z PROC				; CBExFLTBIT

; 3346 : {

	push	ebp
	mov	ebp, esp
	push	ecx

; 3347 : 	CPButtonObject *pCPButton	= (CPButtonObject*) pButton;

	mov	eax, DWORD PTR _pButton$[ebp]
	mov	DWORD PTR _pCPButton$[ebp], eax

; 3348 : }

	mov	esp, ebp
	pop	ebp
	ret	0
?CBExFLTBIT@@YAXPAXH@Z ENDP				; CBExFLTBIT
_TEXT	ENDS
; Function compile flags: /Odtp
; File c:\users\zhitao li\documents\visual studio 2012\projects\freefalcon\sim\cockpit\cbbuttons.cpp
_TEXT	SEGMENT
_pButton$ = 8						; size = 4
_event$ = 12						; size = 4
?CBEFLTBIT@@YAXPAXH@Z PROC				; CBEFLTBIT

; 3341 : {

	push	ebp
	mov	ebp, esp

; 3342 :     SimFLTBIT(0, KEY_DOWN, NULL);

	push	0
	push	8
	push	0
	call	?SimFLTBIT@@YAXKHPAX@Z			; SimFLTBIT
	add	esp, 12					; 0000000cH

; 3343 : }

	pop	ebp
	ret	0
?CBEFLTBIT@@YAXPAXH@Z ENDP				; CBEFLTBIT
_TEXT	ENDS
; Function compile flags: /Odtp
; File c:\users\zhitao li\documents\visual studio 2012\projects\freefalcon\sim\cockpit\cbbuttons.cpp
_TEXT	SEGMENT
_pCPButton$ = -4					; size = 4
_pButton$ = 8						; size = 4
_event$ = 12						; size = 4
?CBExFLCSReset@@YAXPAXH@Z PROC				; CBExFLCSReset

; 3334 : {

	push	ebp
	mov	ebp, esp
	push	ecx

; 3335 : 	CPButtonObject *pCPButton	= (CPButtonObject*) pButton;

	mov	eax, DWORD PTR _pButton$[ebp]
	mov	DWORD PTR _pCPButton$[ebp], eax

; 3336 : }			

	mov	esp, ebp
	pop	ebp
	ret	0
?CBExFLCSReset@@YAXPAXH@Z ENDP				; CBExFLCSReset
_TEXT	ENDS
; Function compile flags: /Odtp
; File c:\users\zhitao li\documents\visual studio 2012\projects\freefalcon\sim\cockpit\cbbuttons.cpp
_TEXT	SEGMENT
_pButton$ = 8						; size = 4
_event$ = 12						; size = 4
?CBEFLCSReset@@YAXPAXH@Z PROC				; CBEFLCSReset

; 3329 : {

	push	ebp
	mov	ebp, esp

; 3330 :     SimFLCSReset(0, KEY_DOWN, NULL);

	push	0
	push	8
	push	0
	call	?SimFLCSReset@@YAXKHPAX@Z		; SimFLCSReset
	add	esp, 12					; 0000000cH

; 3331 : }

	pop	ebp
	ret	0
?CBEFLCSReset@@YAXPAXH@Z ENDP				; CBEFLCSReset
_TEXT	ENDS
; Function compile flags: /Odtp
; File c:\users\zhitao li\documents\visual studio 2012\projects\freefalcon\sim\cockpit\cbbuttons.cpp
_TEXT	SEGMENT
_pCPButton$ = -4					; size = 4
_pButton$ = 8						; size = 4
_event$ = 12						; size = 4
?CBExManualFlyup@@YAXPAXH@Z PROC			; CBExManualFlyup

; 3322 : {

	push	ebp
	mov	ebp, esp
	push	ecx

; 3323 : 	CPButtonObject *pCPButton	= (CPButtonObject*) pButton;

	mov	eax, DWORD PTR _pButton$[ebp]
	mov	DWORD PTR _pCPButton$[ebp], eax

; 3324 : }

	mov	esp, ebp
	pop	ebp
	ret	0
?CBExManualFlyup@@YAXPAXH@Z ENDP			; CBExManualFlyup
_TEXT	ENDS
; Function compile flags: /Odtp
; File c:\users\zhitao li\documents\visual studio 2012\projects\freefalcon\sim\cockpit\cbbuttons.cpp
_TEXT	SEGMENT
_pButton$ = 8						; size = 4
_event$ = 12						; size = 4
?CBEManualFlyup@@YAXPAXH@Z PROC				; CBEManualFlyup

; 3317 : {

	push	ebp
	mov	ebp, esp

; 3318 :     SimManualFlyup(0, KEY_DOWN, NULL);

	push	0
	push	8
	push	0
	call	?SimManualFlyup@@YAXKHPAX@Z		; SimManualFlyup
	add	esp, 12					; 0000000cH

; 3319 : }

	pop	ebp
	ret	0
?CBEManualFlyup@@YAXPAXH@Z ENDP				; CBEManualFlyup
_TEXT	ENDS
; Function compile flags: /Odtp
; File c:\users\zhitao li\documents\visual studio 2012\projects\freefalcon\sim\cockpit\cbbuttons.cpp
_TEXT	SEGMENT
_pCPButton$ = -8					; size = 4
_playerAC$ = -4						; size = 4
_pButton$ = 8						; size = 4
_event$ = 12						; size = 4
?CBExAltFlaps@@YAXPAXH@Z PROC				; CBExAltFlaps

; 3298 : void CBExAltFlaps(void * pButton, int event){

	push	ebp
	mov	ebp, esp
	sub	esp, 8

; 3299 : 	AircraftClass *playerAC = SimDriver.GetPlayerAircraft();

	mov	ecx, OFFSET ?SimDriver@@3VSimulationDriver@@A ; SimDriver
	call	?GetPlayerAircraft@SimulationDriver@@QBEPAVAircraftClass@@XZ ; SimulationDriver::GetPlayerAircraft
	mov	DWORD PTR _playerAC$[ebp], eax

; 3300 : 	if (playerAC == NULL){

	cmp	DWORD PTR _playerAC$[ebp], 0
	jne	SHORT $LN3@CBExAltFla

; 3301 : 		return;

	jmp	SHORT $LN4@CBExAltFla
$LN3@CBExAltFla:

; 3302 : 	}
; 3303 : 
; 3304 : 	CPButtonObject *pCPButton	= (CPButtonObject*) pButton;

	mov	eax, DWORD PTR _pButton$[ebp]
	mov	DWORD PTR _pCPButton$[ebp], eax

; 3305 : 
; 3306 : 	if (playerAC->TEFExtend){

	mov	ecx, DWORD PTR _playerAC$[ebp]
	movzx	edx, BYTE PTR [ecx+851]
	test	edx, edx
	je	SHORT $LN2@CBExAltFla

; 3307 : 		pCPButton->SetCurrentState(1);

	push	1
	mov	ecx, DWORD PTR _pCPButton$[ebp]
	call	?SetCurrentState@CPButtonObject@@QAEXH@Z ; CPButtonObject::SetCurrentState

; 3308 : 	}
; 3309 : 	else{

	jmp	SHORT $LN4@CBExAltFla
$LN2@CBExAltFla:

; 3310 : 		pCPButton->SetCurrentState(0);

	push	0
	mov	ecx, DWORD PTR _pCPButton$[ebp]
	call	?SetCurrentState@CPButtonObject@@QAEXH@Z ; CPButtonObject::SetCurrentState
$LN4@CBExAltFla:

; 3311 : 	}
; 3312 : }

	mov	esp, ebp
	pop	ebp
	ret	0
?CBExAltFlaps@@YAXPAXH@Z ENDP				; CBExAltFlaps
_TEXT	ENDS
; Function compile flags: /Odtp
; File c:\users\zhitao li\documents\visual studio 2012\projects\freefalcon\sim\cockpit\cbbuttons.cpp
_TEXT	SEGMENT
_pButton$ = 8						; size = 4
_event$ = 12						; size = 4
?CBEAltFlaps@@YAXPAXH@Z PROC				; CBEAltFlaps

; 3294 : void CBEAltFlaps(void * pButton, int event){

	push	ebp
	mov	ebp, esp

; 3295 :     SimAltFlaps(0, KEY_DOWN, NULL);

	push	0
	push	8
	push	0
	call	?SimAltFlaps@@YAXKHPAX@Z		; SimAltFlaps
	add	esp, 12					; 0000000cH

; 3296 : }

	pop	ebp
	ret	0
?CBEAltFlaps@@YAXPAXH@Z ENDP				; CBEAltFlaps
_TEXT	ENDS
; Function compile flags: /Odtp
; File c:\users\zhitao li\documents\visual studio 2012\projects\freefalcon\sim\cockpit\cbbuttons.cpp
_TEXT	SEGMENT
_pCPButton$ = -4					; size = 4
_pButton$ = 8						; size = 4
_event$ = 12						; size = 4
?CBExDigitalBUP@@YAXPAXH@Z PROC				; CBExDigitalBUP

; 3288 : {

	push	ebp
	mov	ebp, esp
	push	ecx

; 3289 : 	CPButtonObject *pCPButton	= (CPButtonObject*) pButton;

	mov	eax, DWORD PTR _pButton$[ebp]
	mov	DWORD PTR _pCPButton$[ebp], eax

; 3290 : }

	mov	esp, ebp
	pop	ebp
	ret	0
?CBExDigitalBUP@@YAXPAXH@Z ENDP				; CBExDigitalBUP
_TEXT	ENDS
; Function compile flags: /Odtp
; File c:\users\zhitao li\documents\visual studio 2012\projects\freefalcon\sim\cockpit\cbbuttons.cpp
_TEXT	SEGMENT
_pButton$ = 8						; size = 4
_event$ = 12						; size = 4
?CBEDigitalBUP@@YAXPAXH@Z PROC				; CBEDigitalBUP

; 3283 : {

	push	ebp
	mov	ebp, esp

; 3284 :     SimDigitalBUP(0, KEY_DOWN, NULL);

	push	0
	push	8
	push	0
	call	?SimDigitalBUP@@YAXKHPAX@Z		; SimDigitalBUP
	add	esp, 12					; 0000000cH

; 3285 : }

	pop	ebp
	ret	0
?CBEDigitalBUP@@YAXPAXH@Z ENDP				; CBEDigitalBUP
_TEXT	ENDS
; Function compile flags: /Odtp
; File c:\users\zhitao li\documents\visual studio 2012\projects\freefalcon\sim\cockpit\cbbuttons.cpp
_TEXT	SEGMENT
_pCPButton$ = -8					; size = 4
_playerAC$ = -4						; size = 4
_pButton$ = 8						; size = 4
_event$ = 12						; size = 4
?CBExLEFLockSwitch@@YAXPAXH@Z PROC			; CBExLEFLockSwitch

; 3265 : {

	push	ebp
	mov	ebp, esp
	sub	esp, 8

; 3266 : 	AircraftClass *playerAC = SimDriver.GetPlayerAircraft();

	mov	ecx, OFFSET ?SimDriver@@3VSimulationDriver@@A ; SimDriver
	call	?GetPlayerAircraft@SimulationDriver@@QBEPAVAircraftClass@@XZ ; SimulationDriver::GetPlayerAircraft
	mov	DWORD PTR _playerAC$[ebp], eax

; 3267 : 	if (playerAC == NULL){

	cmp	DWORD PTR _playerAC$[ebp], 0
	jne	SHORT $LN3@CBExLEFLoc

; 3268 : 		return;

	jmp	SHORT $LN4@CBExLEFLoc
$LN3@CBExLEFLoc:

; 3269 : 	}
; 3270 : 	CPButtonObject *pCPButton	= (CPButtonObject*) pButton;

	mov	eax, DWORD PTR _pButton$[ebp]
	mov	DWORD PTR _pCPButton$[ebp], eax

; 3271 : 
; 3272 : 	if(playerAC->LEFLocked){

	mov	ecx, DWORD PTR _playerAC$[ebp]
	movzx	edx, BYTE PTR [ecx+853]
	test	edx, edx
	je	SHORT $LN2@CBExLEFLoc

; 3273 : 		pCPButton->SetCurrentState(1);

	push	1
	mov	ecx, DWORD PTR _pCPButton$[ebp]
	call	?SetCurrentState@CPButtonObject@@QAEXH@Z ; CPButtonObject::SetCurrentState

; 3274 : 	}
; 3275 : 	else{

	jmp	SHORT $LN4@CBExLEFLoc
$LN2@CBExLEFLoc:

; 3276 : 		pCPButton->SetCurrentState(0);

	push	0
	mov	ecx, DWORD PTR _pCPButton$[ebp]
	call	?SetCurrentState@CPButtonObject@@QAEXH@Z ; CPButtonObject::SetCurrentState
$LN4@CBExLEFLoc:

; 3277 : 	}
; 3278 : }

	mov	esp, ebp
	pop	ebp
	ret	0
?CBExLEFLockSwitch@@YAXPAXH@Z ENDP			; CBExLEFLockSwitch
_TEXT	ENDS
; Function compile flags: /Odtp
; File c:\users\zhitao li\documents\visual studio 2012\projects\freefalcon\sim\cockpit\cbbuttons.cpp
_TEXT	SEGMENT
_pButton$ = 8						; size = 4
_event$ = 12						; size = 4
?CBELEFLockSwitch@@YAXPAXH@Z PROC			; CBELEFLockSwitch

; 3260 : {

	push	ebp
	mov	ebp, esp

; 3261 :     SimLEFLockSwitch(0, KEY_DOWN, NULL);

	push	0
	push	8
	push	0
	call	?SimLEFLockSwitch@@YAXKHPAX@Z		; SimLEFLockSwitch
	add	esp, 12					; 0000000cH

; 3262 : }

	pop	ebp
	ret	0
?CBELEFLockSwitch@@YAXPAXH@Z ENDP			; CBELEFLockSwitch
_TEXT	ENDS
; Function compile flags: /Odtp
; File c:\users\zhitao li\documents\visual studio 2012\projects\freefalcon\sim\cockpit\cbbuttons.cpp
_TEXT	SEGMENT
_pCPButton$ = -8					; size = 4
_playerAC$ = -4						; size = 4
_pButton$ = 8						; size = 4
_event$ = 12						; size = 4
?CBExINSSwitch@@YAXPAXH@Z PROC				; CBExINSSwitch

; 3235 : {

	push	ebp
	mov	ebp, esp
	sub	esp, 8

; 3236 : 	AircraftClass *playerAC = SimDriver.GetPlayerAircraft();

	mov	ecx, OFFSET ?SimDriver@@3VSimulationDriver@@A ; SimDriver
	call	?GetPlayerAircraft@SimulationDriver@@QBEPAVAircraftClass@@XZ ; SimulationDriver::GetPlayerAircraft
	mov	DWORD PTR _playerAC$[ebp], eax

; 3237 : 	if (playerAC == NULL){

	cmp	DWORD PTR _playerAC$[ebp], 0
	jne	SHORT $LN8@CBExINSSwi

; 3238 : 		return;

	jmp	SHORT $LN9@CBExINSSwi
$LN8@CBExINSSwi:

; 3239 : 	}
; 3240 : 
; 3241 : 	CPButtonObject *pCPButton	= (CPButtonObject*) pButton;

	mov	eax, DWORD PTR _pButton$[ebp]
	mov	DWORD PTR _pCPButton$[ebp], eax

; 3242 : 
; 3243 : 	if(playerAC->INSState(AircraftClass::INS_PowerOff)){

	push	1
	mov	ecx, DWORD PTR _playerAC$[ebp]
	call	?INSState@AircraftClass@@QAEHW4INSAlignFlags@1@@Z ; AircraftClass::INSState
	test	eax, eax
	je	SHORT $LN7@CBExINSSwi

; 3244 : 		pCPButton->SetCurrentState(0);

	push	0
	mov	ecx, DWORD PTR _pCPButton$[ebp]
	call	?SetCurrentState@CPButtonObject@@QAEXH@Z ; CPButtonObject::SetCurrentState
	jmp	SHORT $LN9@CBExINSSwi
$LN7@CBExINSSwi:

; 3245 : 	}
; 3246 : 	else if(playerAC->INSState(AircraftClass::INS_AlignNorm)){

	push	2
	mov	ecx, DWORD PTR _playerAC$[ebp]
	call	?INSState@AircraftClass@@QAEHW4INSAlignFlags@1@@Z ; AircraftClass::INSState
	test	eax, eax
	je	SHORT $LN5@CBExINSSwi

; 3247 : 		pCPButton->SetCurrentState(1);

	push	1
	mov	ecx, DWORD PTR _pCPButton$[ebp]
	call	?SetCurrentState@CPButtonObject@@QAEXH@Z ; CPButtonObject::SetCurrentState
	jmp	SHORT $LN9@CBExINSSwi
$LN5@CBExINSSwi:

; 3248 : 	}
; 3249 : 	else if(playerAC->INSState(AircraftClass::INS_Nav)){

	push	32					; 00000020H
	mov	ecx, DWORD PTR _playerAC$[ebp]
	call	?INSState@AircraftClass@@QAEHW4INSAlignFlags@1@@Z ; AircraftClass::INSState
	test	eax, eax
	je	SHORT $LN3@CBExINSSwi

; 3250 : 		pCPButton->SetCurrentState(2);

	push	2
	mov	ecx, DWORD PTR _pCPButton$[ebp]
	call	?SetCurrentState@CPButtonObject@@QAEXH@Z ; CPButtonObject::SetCurrentState
	jmp	SHORT $LN9@CBExINSSwi
$LN3@CBExINSSwi:

; 3251 : 	}
; 3252 : 	else if(playerAC->INSState(AircraftClass::INS_AlignFlight)){

	push	16					; 00000010H
	mov	ecx, DWORD PTR _playerAC$[ebp]
	call	?INSState@AircraftClass@@QAEHW4INSAlignFlags@1@@Z ; AircraftClass::INSState
	test	eax, eax
	je	SHORT $LN9@CBExINSSwi

; 3253 : 		pCPButton->SetCurrentState(3);

	push	3
	mov	ecx, DWORD PTR _pCPButton$[ebp]
	call	?SetCurrentState@CPButtonObject@@QAEXH@Z ; CPButtonObject::SetCurrentState
$LN9@CBExINSSwi:

; 3254 : 	}
; 3255 : }

	mov	esp, ebp
	pop	ebp
	ret	0
?CBExINSSwitch@@YAXPAXH@Z ENDP				; CBExINSSwitch
_TEXT	ENDS
; Function compile flags: /Odtp
; File c:\users\zhitao li\documents\visual studio 2012\projects\freefalcon\sim\cockpit\cbbuttons.cpp
_TEXT	SEGMENT
_pButton$ = 8						; size = 4
_event$ = 12						; size = 4
?CBEINSSwitch@@YAXPAXH@Z PROC				; CBEINSSwitch

; 3225 : {

	push	ebp
	mov	ebp, esp

; 3226 : 	if (event == CP_MOUSE_BUTTON0){

	cmp	DWORD PTR _event$[ebp], 3
	jne	SHORT $LN2@CBEINSSwit

; 3227 : 		SimINSInc(0, KEY_DOWN, NULL);

	push	0
	push	8
	push	0
	call	?SimINSInc@@YAXKHPAX@Z			; SimINSInc
	add	esp, 12					; 0000000cH

; 3228 : 	}
; 3229 : 	else {

	jmp	SHORT $LN3@CBEINSSwit
$LN2@CBEINSSwit:

; 3230 : 		SimINSDec(0, KEY_DOWN, NULL);

	push	0
	push	8
	push	0
	call	?SimINSDec@@YAXKHPAX@Z			; SimINSDec
	add	esp, 12					; 0000000cH
$LN3@CBEINSSwit:

; 3231 : 	}
; 3232 : }

	pop	ebp
	ret	0
?CBEINSSwitch@@YAXPAXH@Z ENDP				; CBEINSSwitch
_TEXT	ENDS
; Function compile flags: /Odtp
; File c:\users\zhitao li\documents\visual studio 2012\projects\freefalcon\sim\cockpit\cbbuttons.cpp
_TEXT	SEGMENT
_playerAC$ = -8						; size = 4
_pCPButton$ = -4					; size = 4
_pButton$ = 8						; size = 4
_event$ = 12						; size = 4
?CBExIFFPower@@YAXPAXH@Z PROC				; CBExIFFPower

; 3202 : {

	push	ebp
	mov	ebp, esp
	sub	esp, 8

; 3203 : 	AircraftClass *playerAC = SimDriver.GetPlayerAircraft();

	mov	ecx, OFFSET ?SimDriver@@3VSimulationDriver@@A ; SimDriver
	call	?GetPlayerAircraft@SimulationDriver@@QBEPAVAircraftClass@@XZ ; SimulationDriver::GetPlayerAircraft
	mov	DWORD PTR _playerAC$[ebp], eax

; 3204 : 	if (playerAC == NULL){

	cmp	DWORD PTR _playerAC$[ebp], 0
	jne	SHORT $LN6@CBExIFFPow

; 3205 : 		return;

	jmp	SHORT $LN7@CBExIFFPow
$LN6@CBExIFFPow:

; 3206 : 	}
; 3207 : 
; 3208 : 	CPButtonObject *pCPButton	= (CPButtonObject*) pButton;

	mov	eax, DWORD PTR _pButton$[ebp]
	mov	DWORD PTR _pCPButton$[ebp], eax

; 3209 : 	if(g_bIFF || g_bMLU){

	movzx	ecx, BYTE PTR ?g_bIFF@@3_NA		; g_bIFF
	test	ecx, ecx
	jne	SHORT $LN4@CBExIFFPow
	movzx	edx, BYTE PTR ?g_bMLU@@3_NA		; g_bMLU
	test	edx, edx
	je	SHORT $LN5@CBExIFFPow
$LN4@CBExIFFPow:

; 3210 : 		if(playerAC->PowerSwitchOn(AircraftClass::IFFPower)){

	push	2097152					; 00200000H
	mov	ecx, DWORD PTR _playerAC$[ebp]
	call	?PowerSwitchOn@AircraftClass@@QAEHW4AvionicsPowerFlags@1@@Z ; AircraftClass::PowerSwitchOn
	test	eax, eax
	je	SHORT $LN3@CBExIFFPow

; 3211 : 			pCPButton->SetCurrentState(1);

	push	1
	mov	ecx, DWORD PTR _pCPButton$[ebp]
	call	?SetCurrentState@CPButtonObject@@QAEXH@Z ; CPButtonObject::SetCurrentState

; 3212 : 		}
; 3213 : 		else {

	jmp	SHORT $LN2@CBExIFFPow
$LN3@CBExIFFPow:

; 3214 : 			pCPButton->SetCurrentState(0);

	push	0
	mov	ecx, DWORD PTR _pCPButton$[ebp]
	call	?SetCurrentState@CPButtonObject@@QAEXH@Z ; CPButtonObject::SetCurrentState
$LN2@CBExIFFPow:

; 3215 : 		}
; 3216 : 	}
; 3217 : 	else{

	jmp	SHORT $LN7@CBExIFFPow
$LN5@CBExIFFPow:

; 3218 : 		pCPButton->SetCurrentState(0);

	push	0
	mov	ecx, DWORD PTR _pCPButton$[ebp]
	call	?SetCurrentState@CPButtonObject@@QAEXH@Z ; CPButtonObject::SetCurrentState
$LN7@CBExIFFPow:

; 3219 : 	}
; 3220 : }

	mov	esp, ebp
	pop	ebp
	ret	0
?CBExIFFPower@@YAXPAXH@Z ENDP				; CBExIFFPower
_TEXT	ENDS
; Function compile flags: /Odtp
; File c:\users\zhitao li\documents\visual studio 2012\projects\freefalcon\sim\cockpit\cbbuttons.cpp
_TEXT	SEGMENT
_pButton$ = 8						; size = 4
_event$ = 12						; size = 4
?CBEIFFPower@@YAXPAXH@Z PROC				; CBEIFFPower

; 3197 : {

	push	ebp
	mov	ebp, esp

; 3198 :     SimIFFPower(0, KEY_DOWN, NULL);

	push	0
	push	8
	push	0
	call	?SimIFFPower@@YAXKHPAX@Z		; SimIFFPower
	add	esp, 12					; 0000000cH

; 3199 : }

	pop	ebp
	ret	0
?CBEIFFPower@@YAXPAXH@Z ENDP				; CBEIFFPower
_TEXT	ENDS
; Function compile flags: /Odtp
; File c:\users\zhitao li\documents\visual studio 2012\projects\freefalcon\sim\cockpit\cbbuttons.cpp
_TEXT	SEGMENT
_pCPButton$ = -8					; size = 4
_playerAC$ = -4						; size = 4
_pButton$ = 8						; size = 4
_event$ = 12						; size = 4
?CBExAVTRSwitch@@YAXPAXH@Z PROC				; CBExAVTRSwitch

; 3176 : {

	push	ebp
	mov	ebp, esp
	sub	esp, 8

; 3177 : 	AircraftClass *playerAC = SimDriver.GetPlayerAircraft();

	mov	ecx, OFFSET ?SimDriver@@3VSimulationDriver@@A ; SimDriver
	call	?GetPlayerAircraft@SimulationDriver@@QBEPAVAircraftClass@@XZ ; SimulationDriver::GetPlayerAircraft
	mov	DWORD PTR _playerAC$[ebp], eax

; 3178 : 	if (playerAC == NULL){

	cmp	DWORD PTR _playerAC$[ebp], 0
	jne	SHORT $LN5@CBExAVTRSw

; 3179 : 		return;

	jmp	SHORT $LN6@CBExAVTRSw
$LN5@CBExAVTRSw:

; 3180 : 	}
; 3181 : 
; 3182 : 	CPButtonObject *pCPButton	= (CPButtonObject*) pButton;

	mov	eax, DWORD PTR _pButton$[ebp]
	mov	DWORD PTR _pCPButton$[ebp], eax

; 3183 : 	if(playerAC->AVTRState(AircraftClass::AVTRStateFlags::AVTR_ON)){

	push	1
	mov	ecx, DWORD PTR _playerAC$[ebp]
	call	?AVTRState@AircraftClass@@QAEHW4AVTRStateFlags@1@@Z ; AircraftClass::AVTRState
	test	eax, eax
	je	SHORT $LN4@CBExAVTRSw

; 3184 : 		pCPButton->SetCurrentState(1);	//up

	push	1
	mov	ecx, DWORD PTR _pCPButton$[ebp]
	call	?SetCurrentState@CPButtonObject@@QAEXH@Z ; CPButtonObject::SetCurrentState
	jmp	SHORT $LN6@CBExAVTRSw
$LN4@CBExAVTRSw:

; 3185 : 	}
; 3186 : 	else if(playerAC->AVTRState(AircraftClass::AVTRStateFlags::AVTR_AUTO)){

	push	2
	mov	ecx, DWORD PTR _playerAC$[ebp]
	call	?AVTRState@AircraftClass@@QAEHW4AVTRStateFlags@1@@Z ; AircraftClass::AVTRState
	test	eax, eax
	je	SHORT $LN2@CBExAVTRSw

; 3187 : 		pCPButton->SetCurrentState(2);	//middle

	push	2
	mov	ecx, DWORD PTR _pCPButton$[ebp]
	call	?SetCurrentState@CPButtonObject@@QAEXH@Z ; CPButtonObject::SetCurrentState

; 3188 : 	}
; 3189 : 	else{

	jmp	SHORT $LN6@CBExAVTRSw
$LN2@CBExAVTRSw:

; 3190 : 		pCPButton->SetCurrentState(0);	//down

	push	0
	mov	ecx, DWORD PTR _pCPButton$[ebp]
	call	?SetCurrentState@CPButtonObject@@QAEXH@Z ; CPButtonObject::SetCurrentState
$LN6@CBExAVTRSw:

; 3191 : 	}
; 3192 : }

	mov	esp, ebp
	pop	ebp
	ret	0
?CBExAVTRSwitch@@YAXPAXH@Z ENDP				; CBExAVTRSwitch
_TEXT	ENDS
; Function compile flags: /Odtp
; File c:\users\zhitao li\documents\visual studio 2012\projects\freefalcon\sim\cockpit\cbbuttons.cpp
_TEXT	SEGMENT
_pButton$ = 8						; size = 4
_event$ = 12						; size = 4
?CBEAVTRSwitch@@YAXPAXH@Z PROC				; CBEAVTRSwitch

; 3171 : {

	push	ebp
	mov	ebp, esp

; 3172 :     SimAVTRSwitch(0, KEY_DOWN, NULL);

	push	0
	push	8
	push	0
	call	?SimAVTRSwitch@@YAXKHPAX@Z		; SimAVTRSwitch
	add	esp, 12					; 0000000cH

; 3173 : }

	pop	ebp
	ret	0
?CBEAVTRSwitch@@YAXPAXH@Z ENDP				; CBEAVTRSwitch
_TEXT	ENDS
; Function compile flags: /Odtp
; File c:\users\zhitao li\documents\visual studio 2012\projects\freefalcon\sim\cockpit\cbbuttons.cpp
_TEXT	SEGMENT
_pCPButton$ = -8					; size = 4
_playerAC$ = -4						; size = 4
_pButton$ = 8						; size = 4
_event$ = 12						; size = 4
?CBExExtlWing@@YAXPAXH@Z PROC				; CBExExtlWing

; 3153 : {

	push	ebp
	mov	ebp, esp
	sub	esp, 8

; 3154 : 	CPButtonObject *pCPButton	= (CPButtonObject*) pButton;

	mov	eax, DWORD PTR _pButton$[ebp]
	mov	DWORD PTR _pCPButton$[ebp], eax

; 3155 : 	AircraftClass *playerAC = SimDriver.GetPlayerAircraft();

	mov	ecx, OFFSET ?SimDriver@@3VSimulationDriver@@A ; SimDriver
	call	?GetPlayerAircraft@SimulationDriver@@QBEPAVAircraftClass@@XZ ; SimulationDriver::GetPlayerAircraft
	mov	DWORD PTR _playerAC$[ebp], eax

; 3156 : 	if (playerAC == NULL){

	cmp	DWORD PTR _playerAC$[ebp], 0
	jne	SHORT $LN3@CBExExtlWi

; 3157 : 		return;

	jmp	SHORT $LN4@CBExExtlWi
$LN3@CBExExtlWi:

; 3158 : 	}
; 3159 : 
; 3160 : 	if (playerAC->ExtlState(AircraftClass::ExtlLightFlags::Extl_Wing_Tail)){

	push	8
	mov	ecx, DWORD PTR _playerAC$[ebp]
	call	?ExtlState@AircraftClass@@QBEHW4ExtlLightFlags@1@@Z ; AircraftClass::ExtlState
	test	eax, eax
	je	SHORT $LN2@CBExExtlWi

; 3161 : 		pCPButton->SetCurrentState(1);	//up

	push	1
	mov	ecx, DWORD PTR _pCPButton$[ebp]
	call	?SetCurrentState@CPButtonObject@@QAEXH@Z ; CPButtonObject::SetCurrentState

; 3162 : 	}
; 3163 : 	else {

	jmp	SHORT $LN4@CBExExtlWi
$LN2@CBExExtlWi:

; 3164 : 		pCPButton->SetCurrentState(0);	//down

	push	0
	mov	ecx, DWORD PTR _pCPButton$[ebp]
	call	?SetCurrentState@CPButtonObject@@QAEXH@Z ; CPButtonObject::SetCurrentState
$LN4@CBExExtlWi:

; 3165 : 	}
; 3166 : }

	mov	esp, ebp
	pop	ebp
	ret	0
?CBExExtlWing@@YAXPAXH@Z ENDP				; CBExExtlWing
_TEXT	ENDS
; Function compile flags: /Odtp
; File c:\users\zhitao li\documents\visual studio 2012\projects\freefalcon\sim\cockpit\cbbuttons.cpp
_TEXT	SEGMENT
_pButton$ = 8						; size = 4
_event$ = 12						; size = 4
?CBEExtlWing@@YAXPAXH@Z PROC				; CBEExtlWing

; 3148 : {

	push	ebp
	mov	ebp, esp

; 3149 :     SimExtlWing(0, KEY_DOWN, NULL);

	push	0
	push	8
	push	0
	call	?SimExtlWing@@YAXKHPAX@Z		; SimExtlWing
	add	esp, 12					; 0000000cH

; 3150 : }

	pop	ebp
	ret	0
?CBEExtlWing@@YAXPAXH@Z ENDP				; CBEExtlWing
_TEXT	ENDS
; Function compile flags: /Odtp
; File c:\users\zhitao li\documents\visual studio 2012\projects\freefalcon\sim\cockpit\cbbuttons.cpp
_TEXT	SEGMENT
_pCPButton$ = -8					; size = 4
_playerAC$ = -4						; size = 4
_pButton$ = 8						; size = 4
_event$ = 12						; size = 4
?CBExExtlSteady@@YAXPAXH@Z PROC				; CBExExtlSteady

; 3131 : {

	push	ebp
	mov	ebp, esp
	sub	esp, 8

; 3132 : 	CPButtonObject *pCPButton	= (CPButtonObject*) pButton;

	mov	eax, DWORD PTR _pButton$[ebp]
	mov	DWORD PTR _pCPButton$[ebp], eax

; 3133 : 	AircraftClass *playerAC = SimDriver.GetPlayerAircraft();

	mov	ecx, OFFSET ?SimDriver@@3VSimulationDriver@@A ; SimDriver
	call	?GetPlayerAircraft@SimulationDriver@@QBEPAVAircraftClass@@XZ ; SimulationDriver::GetPlayerAircraft
	mov	DWORD PTR _playerAC$[ebp], eax

; 3134 : 	if (playerAC == NULL){

	cmp	DWORD PTR _playerAC$[ebp], 0
	jne	SHORT $LN3@CBExExtlSt

; 3135 : 		return;

	jmp	SHORT $LN4@CBExExtlSt
$LN3@CBExExtlSt:

; 3136 : 	}
; 3137 : 	if (playerAC->ExtlState(AircraftClass::ExtlLightFlags::Extl_Flash)){

	push	64					; 00000040H
	mov	ecx, DWORD PTR _playerAC$[ebp]
	call	?ExtlState@AircraftClass@@QBEHW4ExtlLightFlags@1@@Z ; AircraftClass::ExtlState
	test	eax, eax
	je	SHORT $LN2@CBExExtlSt

; 3138 : 		pCPButton->SetCurrentState(1);	//up

	push	1
	mov	ecx, DWORD PTR _pCPButton$[ebp]
	call	?SetCurrentState@CPButtonObject@@QAEXH@Z ; CPButtonObject::SetCurrentState

; 3139 : 	}
; 3140 : 	else{

	jmp	SHORT $LN4@CBExExtlSt
$LN2@CBExExtlSt:

; 3141 : 		pCPButton->SetCurrentState(0);	//down

	push	0
	mov	ecx, DWORD PTR _pCPButton$[ebp]
	call	?SetCurrentState@CPButtonObject@@QAEXH@Z ; CPButtonObject::SetCurrentState
$LN4@CBExExtlSt:

; 3142 : 	}
; 3143 : }

	mov	esp, ebp
	pop	ebp
	ret	0
?CBExExtlSteady@@YAXPAXH@Z ENDP				; CBExExtlSteady
_TEXT	ENDS
; Function compile flags: /Odtp
; File c:\users\zhitao li\documents\visual studio 2012\projects\freefalcon\sim\cockpit\cbbuttons.cpp
_TEXT	SEGMENT
_pButton$ = 8						; size = 4
_event$ = 12						; size = 4
?CBEExtlSteady@@YAXPAXH@Z PROC				; CBEExtlSteady

; 3126 : {

	push	ebp
	mov	ebp, esp

; 3127 :     SimExtlSteady(0, KEY_DOWN, NULL);

	push	0
	push	8
	push	0
	call	?SimExtlSteady@@YAXKHPAX@Z		; SimExtlSteady
	add	esp, 12					; 0000000cH

; 3128 : }

	pop	ebp
	ret	0
?CBEExtlSteady@@YAXPAXH@Z ENDP				; CBEExtlSteady
_TEXT	ENDS
; Function compile flags: /Odtp
; File c:\users\zhitao li\documents\visual studio 2012\projects\freefalcon\sim\cockpit\cbbuttons.cpp
_TEXT	SEGMENT
_pCPButton$ = -8					; size = 4
_playerAC$ = -4						; size = 4
_pButton$ = 8						; size = 4
_event$ = 12						; size = 4
?CBExExtlAntiColl@@YAXPAXH@Z PROC			; CBExExtlAntiColl

; 3108 : {

	push	ebp
	mov	ebp, esp
	sub	esp, 8

; 3109 : 	CPButtonObject *pCPButton	= (CPButtonObject*) pButton;

	mov	eax, DWORD PTR _pButton$[ebp]
	mov	DWORD PTR _pCPButton$[ebp], eax

; 3110 : 	AircraftClass *playerAC = SimDriver.GetPlayerAircraft();

	mov	ecx, OFFSET ?SimDriver@@3VSimulationDriver@@A ; SimDriver
	call	?GetPlayerAircraft@SimulationDriver@@QBEPAVAircraftClass@@XZ ; SimulationDriver::GetPlayerAircraft
	mov	DWORD PTR _playerAC$[ebp], eax

; 3111 : 	if (playerAC == NULL){

	cmp	DWORD PTR _playerAC$[ebp], 0
	jne	SHORT $LN3@CBExExtlAn

; 3112 : 		return;

	jmp	SHORT $LN4@CBExExtlAn
$LN3@CBExExtlAn:

; 3113 : 	}
; 3114 : 
; 3115 : 	if (playerAC->ExtlState(AircraftClass::ExtlLightFlags::Extl_Anti_Coll)){

	push	16					; 00000010H
	mov	ecx, DWORD PTR _playerAC$[ebp]
	call	?ExtlState@AircraftClass@@QBEHW4ExtlLightFlags@1@@Z ; AircraftClass::ExtlState
	test	eax, eax
	je	SHORT $LN2@CBExExtlAn

; 3116 : 		pCPButton->SetCurrentState(1);	//up

	push	1
	mov	ecx, DWORD PTR _pCPButton$[ebp]
	call	?SetCurrentState@CPButtonObject@@QAEXH@Z ; CPButtonObject::SetCurrentState

; 3117 : 	}
; 3118 : 	else {

	jmp	SHORT $LN4@CBExExtlAn
$LN2@CBExExtlAn:

; 3119 : 		pCPButton->SetCurrentState(0);	//down

	push	0
	mov	ecx, DWORD PTR _pCPButton$[ebp]
	call	?SetCurrentState@CPButtonObject@@QAEXH@Z ; CPButtonObject::SetCurrentState
$LN4@CBExExtlAn:

; 3120 : 	}
; 3121 : }

	mov	esp, ebp
	pop	ebp
	ret	0
?CBExExtlAntiColl@@YAXPAXH@Z ENDP			; CBExExtlAntiColl
_TEXT	ENDS
; Function compile flags: /Odtp
; File c:\users\zhitao li\documents\visual studio 2012\projects\freefalcon\sim\cockpit\cbbuttons.cpp
_TEXT	SEGMENT
_pButton$ = 8						; size = 4
_event$ = 12						; size = 4
?CBEExtlAntiColl@@YAXPAXH@Z PROC			; CBEExtlAntiColl

; 3103 : {

	push	ebp
	mov	ebp, esp

; 3104 :     SimExtlAntiColl(0, KEY_DOWN, NULL);

	push	0
	push	8
	push	0
	call	?SimExtlAntiColl@@YAXKHPAX@Z		; SimExtlAntiColl
	add	esp, 12					; 0000000cH

; 3105 : }

	pop	ebp
	ret	0
?CBEExtlAntiColl@@YAXPAXH@Z ENDP			; CBEExtlAntiColl
_TEXT	ENDS
; Function compile flags: /Odtp
; File c:\users\zhitao li\documents\visual studio 2012\projects\freefalcon\sim\cockpit\cbbuttons.cpp
_TEXT	SEGMENT
_pCPButton$ = -8					; size = 4
_playerAC$ = -4						; size = 4
_pButton$ = 8						; size = 4
_event$ = 12						; size = 4
?CBExExtlPower@@YAXPAXH@Z PROC				; CBExExtlPower

; 3085 : {

	push	ebp
	mov	ebp, esp
	sub	esp, 8

; 3086 : 	CPButtonObject *pCPButton	= (CPButtonObject*) pButton;

	mov	eax, DWORD PTR _pButton$[ebp]
	mov	DWORD PTR _pCPButton$[ebp], eax

; 3087 : 	AircraftClass *playerAC = SimDriver.GetPlayerAircraft();

	mov	ecx, OFFSET ?SimDriver@@3VSimulationDriver@@A ; SimDriver
	call	?GetPlayerAircraft@SimulationDriver@@QBEPAVAircraftClass@@XZ ; SimulationDriver::GetPlayerAircraft
	mov	DWORD PTR _playerAC$[ebp], eax

; 3088 : 	if (playerAC == NULL){

	cmp	DWORD PTR _playerAC$[ebp], 0
	jne	SHORT $LN3@CBExExtlPo

; 3089 : 		return;

	jmp	SHORT $LN4@CBExExtlPo
$LN3@CBExExtlPo:

; 3090 : 	}
; 3091 : 
; 3092 : 	if (playerAC->ExtlState(AircraftClass::ExtlLightFlags::Extl_Main_Power)){

	push	4
	mov	ecx, DWORD PTR _playerAC$[ebp]
	call	?ExtlState@AircraftClass@@QBEHW4ExtlLightFlags@1@@Z ; AircraftClass::ExtlState
	test	eax, eax
	je	SHORT $LN2@CBExExtlPo

; 3093 : 		pCPButton->SetCurrentState(1);	//up

	push	1
	mov	ecx, DWORD PTR _pCPButton$[ebp]
	call	?SetCurrentState@CPButtonObject@@QAEXH@Z ; CPButtonObject::SetCurrentState

; 3094 : 	}
; 3095 : 	else {

	jmp	SHORT $LN4@CBExExtlPo
$LN2@CBExExtlPo:

; 3096 : 		pCPButton->SetCurrentState(0);	//down

	push	0
	mov	ecx, DWORD PTR _pCPButton$[ebp]
	call	?SetCurrentState@CPButtonObject@@QAEXH@Z ; CPButtonObject::SetCurrentState
$LN4@CBExExtlPo:

; 3097 : 	}
; 3098 : }

	mov	esp, ebp
	pop	ebp
	ret	0
?CBExExtlPower@@YAXPAXH@Z ENDP				; CBExExtlPower
_TEXT	ENDS
; Function compile flags: /Odtp
; File c:\users\zhitao li\documents\visual studio 2012\projects\freefalcon\sim\cockpit\cbbuttons.cpp
_TEXT	SEGMENT
_pButton$ = 8						; size = 4
_event$ = 12						; size = 4
?CBEExtlPower@@YAXPAXH@Z PROC				; CBEExtlPower

; 3080 : {

	push	ebp
	mov	ebp, esp

; 3081 :     SimExtlPower(0, KEY_DOWN, NULL);

	push	0
	push	8
	push	0
	call	?SimExtlPower@@YAXKHPAX@Z		; SimExtlPower
	add	esp, 12					; 0000000cH

; 3082 : }

	pop	ebp
	ret	0
?CBEExtlPower@@YAXPAXH@Z ENDP				; CBEExtlPower
_TEXT	ENDS
; Function compile flags: /Odtp
; File c:\users\zhitao li\documents\visual studio 2012\projects\freefalcon\sim\cockpit\cbbuttons.cpp
_TEXT	SEGMENT
_pCPButton$ = -8					; size = 4
_playerAC$ = -4						; size = 4
_pButton$ = 8						; size = 4
_event$ = 12						; size = 4
?CBExGndJettEnable@@YAXPAXH@Z PROC			; CBExGndJettEnable

; 3062 : {

	push	ebp
	mov	ebp, esp
	sub	esp, 8

; 3063 : 	CPButtonObject *pCPButton	= (CPButtonObject*) pButton;

	mov	eax, DWORD PTR _pButton$[ebp]
	mov	DWORD PTR _pCPButton$[ebp], eax

; 3064 : 	AircraftClass *playerAC = SimDriver.GetPlayerAircraft();

	mov	ecx, OFFSET ?SimDriver@@3VSimulationDriver@@A ; SimDriver
	call	?GetPlayerAircraft@SimulationDriver@@QBEPAVAircraftClass@@XZ ; SimulationDriver::GetPlayerAircraft
	mov	DWORD PTR _playerAC$[ebp], eax

; 3065 : 	if (playerAC == NULL || playerAC->Sms == NULL){

	cmp	DWORD PTR _playerAC$[ebp], 0
	je	SHORT $LN3@CBExGndJet
	mov	ecx, DWORD PTR _playerAC$[ebp]
	cmp	DWORD PTR [ecx+940], 0
	jne	SHORT $LN4@CBExGndJet
$LN3@CBExGndJet:

; 3066 : 		return;

	jmp	SHORT $LN5@CBExGndJet
$LN4@CBExGndJet:

; 3067 : 	}
; 3068 : 
; 3069 : 	if (playerAC->Sms->GndJett){

	mov	edx, DWORD PTR _playerAC$[ebp]
	mov	eax, DWORD PTR [edx+940]
	movzx	ecx, BYTE PTR [eax+13]
	test	ecx, ecx
	je	SHORT $LN2@CBExGndJet

; 3070 : 		pCPButton->SetCurrentState(1);

	push	1
	mov	ecx, DWORD PTR _pCPButton$[ebp]
	call	?SetCurrentState@CPButtonObject@@QAEXH@Z ; CPButtonObject::SetCurrentState

; 3071 : 	}
; 3072 : 	else {

	jmp	SHORT $LN5@CBExGndJet
$LN2@CBExGndJet:

; 3073 : 		pCPButton->SetCurrentState(0);

	push	0
	mov	ecx, DWORD PTR _pCPButton$[ebp]
	call	?SetCurrentState@CPButtonObject@@QAEXH@Z ; CPButtonObject::SetCurrentState
$LN5@CBExGndJet:

; 3074 : 	}
; 3075 : }

	mov	esp, ebp
	pop	ebp
	ret	0
?CBExGndJettEnable@@YAXPAXH@Z ENDP			; CBExGndJettEnable
_TEXT	ENDS
; Function compile flags: /Odtp
; File c:\users\zhitao li\documents\visual studio 2012\projects\freefalcon\sim\cockpit\cbbuttons.cpp
_TEXT	SEGMENT
_pButton$ = 8						; size = 4
_event$ = 12						; size = 4
?CBEGndJettEnable@@YAXPAXH@Z PROC			; CBEGndJettEnable

; 3057 : {

	push	ebp
	mov	ebp, esp

; 3058 :     SimGndJettEnable(0, KEY_DOWN, NULL);

	push	0
	push	8
	push	0
	call	?SimGndJettEnable@@YAXKHPAX@Z		; SimGndJettEnable
	add	esp, 12					; 0000000cH

; 3059 : }

	pop	ebp
	ret	0
?CBEGndJettEnable@@YAXPAXH@Z ENDP			; CBEGndJettEnable
_TEXT	ENDS
; Function compile flags: /Odtp
; File c:\users\zhitao li\documents\visual studio 2012\projects\freefalcon\sim\cockpit\cbbuttons.cpp
_TEXT	SEGMENT
_pButton$ = 8						; size = 4
_event$ = 12						; size = 4
?CBEPinkySwitch@@YAXPAXH@Z PROC				; CBEPinkySwitch

; 3050 : {

	push	ebp
	mov	ebp, esp

; 3051 :     SimPinkySwitch(0, KEY_DOWN, pButton);

	mov	eax, DWORD PTR _pButton$[ebp]
	push	eax
	push	8
	push	0
	call	?SimPinkySwitch@@YAXKHPAX@Z		; SimPinkySwitch
	add	esp, 12					; 0000000cH

; 3052 : }

	pop	ebp
	ret	0
?CBEPinkySwitch@@YAXPAXH@Z ENDP				; CBEPinkySwitch
_TEXT	ENDS
; Function compile flags: /Odtp
; File c:\users\zhitao li\documents\visual studio 2012\projects\freefalcon\sim\cockpit\cbbuttons.cpp
_TEXT	SEGMENT
_pCPButton$ = -8					; size = 4
_playerAC$ = -4						; size = 4
_pButton$ = 8						; size = 4
_event$ = 12						; size = 4
?CBExGearHandle@@YAXPAXH@Z PROC				; CBExGearHandle

; 3032 : {

	push	ebp
	mov	ebp, esp
	sub	esp, 8

; 3033 : 	CPButtonObject *pCPButton	= (CPButtonObject*) pButton;

	mov	eax, DWORD PTR _pButton$[ebp]
	mov	DWORD PTR _pCPButton$[ebp], eax

; 3034 : 	AircraftClass *playerAC = SimDriver.GetPlayerAircraft();

	mov	ecx, OFFSET ?SimDriver@@3VSimulationDriver@@A ; SimDriver
	call	?GetPlayerAircraft@SimulationDriver@@QBEPAVAircraftClass@@XZ ; SimulationDriver::GetPlayerAircraft
	mov	DWORD PTR _playerAC$[ebp], eax

; 3035 : 	if (playerAC == NULL){

	cmp	DWORD PTR _playerAC$[ebp], 0
	jne	SHORT $LN4@CBExGearHa

; 3036 : 		return;

	jmp	SHORT $LN5@CBExGearHa
$LN4@CBExGearHa:

; 3037 : 	}
; 3038 : 
; 3039 : 	if (playerAC->af->gearHandle <= 0.0F){

	mov	ecx, DWORD PTR _playerAC$[ebp]
	mov	edx, DWORD PTR [ecx+932]
	movss	xmm0, DWORD PTR __real@00000000
	comiss	xmm0, DWORD PTR [edx+1556]
	jb	SHORT $LN3@CBExGearHa

; 3040 : 		pCPButton->SetCurrentState(0);	//Gear up

	push	0
	mov	ecx, DWORD PTR _pCPButton$[ebp]
	call	?SetCurrentState@CPButtonObject@@QAEXH@Z ; CPButtonObject::SetCurrentState
	jmp	SHORT $LN1@CBExGearHa
$LN3@CBExGearHa:

; 3041 : 	}
; 3042 : 	else if (playerAC->af->gearHandle > 0.0F){

	mov	eax, DWORD PTR _playerAC$[ebp]
	mov	ecx, DWORD PTR [eax+932]
	movss	xmm0, DWORD PTR [ecx+1556]
	comiss	xmm0, DWORD PTR __real@00000000
	jbe	SHORT $LN1@CBExGearHa

; 3043 :         pCPButton->SetCurrentState(1);	//Gear Down	

	push	1
	mov	ecx, DWORD PTR _pCPButton$[ebp]
	call	?SetCurrentState@CPButtonObject@@QAEXH@Z ; CPButtonObject::SetCurrentState
$LN1@CBExGearHa:
$LN5@CBExGearHa:

; 3044 : 	}
; 3045 : }

	mov	esp, ebp
	pop	ebp
	ret	0
?CBExGearHandle@@YAXPAXH@Z ENDP				; CBExGearHandle
_TEXT	ENDS
; Function compile flags: /Odtp
; File c:\users\zhitao li\documents\visual studio 2012\projects\freefalcon\sim\cockpit\cbbuttons.cpp
_TEXT	SEGMENT
_pButton$ = 8						; size = 4
_event$ = 12						; size = 4
?CBEGearHandle@@YAXPAXH@Z PROC				; CBEGearHandle

; 3027 : {

	push	ebp
	mov	ebp, esp

; 3028 :     AFGearToggle(0, KEY_DOWN, NULL);

	push	0
	push	8
	push	0
	call	?AFGearToggle@@YAXKHPAX@Z		; AFGearToggle
	add	esp, 12					; 0000000cH

; 3029 : }

	pop	ebp
	ret	0
?CBEGearHandle@@YAXPAXH@Z ENDP				; CBEGearHandle
_TEXT	ENDS
; Function compile flags: /Odtp
; File c:\users\zhitao li\documents\visual studio 2012\projects\freefalcon\sim\cockpit\cbbuttons.cpp
_TEXT	SEGMENT
_playerAC$ = -12					; size = 4
_pCPButton$ = -8					; size = 4
tv68 = -4						; size = 4
_pButton$ = 8						; size = 4
_event$ = 12						; size = 4
?CBExRFSwitch@@YAXPAXH@Z PROC				; CBExRFSwitch

; 2998 : {

	push	ebp
	mov	ebp, esp
	sub	esp, 12					; 0000000cH

; 2999 : 	AircraftClass *playerAC = SimDriver.GetPlayerAircraft();

	mov	ecx, OFFSET ?SimDriver@@3VSimulationDriver@@A ; SimDriver
	call	?GetPlayerAircraft@SimulationDriver@@QBEPAVAircraftClass@@XZ ; SimulationDriver::GetPlayerAircraft
	mov	DWORD PTR _playerAC$[ebp], eax

; 3000 :     if (playerAC == NULL){

	cmp	DWORD PTR _playerAC$[ebp], 0
	jne	SHORT $LN7@CBExRFSwit

; 3001 : 		return;

	jmp	SHORT $LN8@CBExRFSwit
$LN7@CBExRFSwit:

; 3002 : 	}
; 3003 : 
; 3004 :     CPButtonObject *pCPButton	= (CPButtonObject*) pButton;

	mov	eax, DWORD PTR _pButton$[ebp]
	mov	DWORD PTR _pCPButton$[ebp], eax

; 3005 : 	switch (playerAC->RFState){

	mov	ecx, DWORD PTR _playerAC$[ebp]
	mov	edx, DWORD PTR [ecx+1520]
	mov	DWORD PTR tv68[ebp], edx
	cmp	DWORD PTR tv68[ebp], 0
	je	SHORT $LN4@CBExRFSwit
	cmp	DWORD PTR tv68[ebp], 1
	je	SHORT $LN3@CBExRFSwit
	cmp	DWORD PTR tv68[ebp], 2
	je	SHORT $LN2@CBExRFSwit
	jmp	SHORT $LN8@CBExRFSwit
$LN4@CBExRFSwit:

; 3006 : 		case 0:
; 3007 : 			//NORM
; 3008 : 			pCPButton->SetCurrentState(0);

	push	0
	mov	ecx, DWORD PTR _pCPButton$[ebp]
	call	?SetCurrentState@CPButtonObject@@QAEXH@Z ; CPButtonObject::SetCurrentState

; 3009 : 		break;

	jmp	SHORT $LN8@CBExRFSwit
$LN3@CBExRFSwit:

; 3010 : 		case 1:
; 3011 : 			//QUIET
; 3012 : 			pCPButton->SetCurrentState(1);

	push	1
	mov	ecx, DWORD PTR _pCPButton$[ebp]
	call	?SetCurrentState@CPButtonObject@@QAEXH@Z ; CPButtonObject::SetCurrentState

; 3013 : 		break;

	jmp	SHORT $LN8@CBExRFSwit
$LN2@CBExRFSwit:

; 3014 : 		case 2:
; 3015 : 			//SILENT
; 3016 : 			pCPButton->SetCurrentState(2);

	push	2
	mov	ecx, DWORD PTR _pCPButton$[ebp]
	call	?SetCurrentState@CPButtonObject@@QAEXH@Z ; CPButtonObject::SetCurrentState
$LN8@CBExRFSwit:

; 3017 : 		break;
; 3018 : 		default:
; 3019 : 			;
; 3020 : 	}
; 3021 : }

	mov	esp, ebp
	pop	ebp
	ret	0
?CBExRFSwitch@@YAXPAXH@Z ENDP				; CBExRFSwitch
_TEXT	ENDS
; Function compile flags: /Odtp
; File c:\users\zhitao li\documents\visual studio 2012\projects\freefalcon\sim\cockpit\cbbuttons.cpp
_TEXT	SEGMENT
_pButton$ = 8						; size = 4
_event$ = 12						; size = 4
?CBERFSwitch@@YAXPAXH@Z PROC				; CBERFSwitch

; 2993 : {

	push	ebp
	mov	ebp, esp

; 2994 :     SimRFSwitch(0, KEY_DOWN, pButton);

	mov	eax, DWORD PTR _pButton$[ebp]
	push	eax
	push	8
	push	0
	call	?SimRFSwitch@@YAXKHPAX@Z		; SimRFSwitch
	add	esp, 12					; 0000000cH

; 2995 : }

	pop	ebp
	ret	0
?CBERFSwitch@@YAXPAXH@Z ENDP				; CBERFSwitch
_TEXT	ENDS
; Function compile flags: /Odtp
; File c:\users\zhitao li\documents\visual studio 2012\projects\freefalcon\sim\cockpit\cbbuttons.cpp
_TEXT	SEGMENT
_pCPButton$ = -8					; size = 4
_playerAC$ = -4						; size = 4
_pButton$ = 8						; size = 4
_event$ = 12						; size = 4
?CBExInhibitVMS@@YAXPAXH@Z PROC				; CBExInhibitVMS

; 2975 : {

	push	ebp
	mov	ebp, esp
	sub	esp, 8

; 2976 : 	AircraftClass *playerAC = SimDriver.GetPlayerAircraft();

	mov	ecx, OFFSET ?SimDriver@@3VSimulationDriver@@A ; SimDriver
	call	?GetPlayerAircraft@SimulationDriver@@QBEPAVAircraftClass@@XZ ; SimulationDriver::GetPlayerAircraft
	mov	DWORD PTR _playerAC$[ebp], eax

; 2977 :     if (playerAC == NULL){

	cmp	DWORD PTR _playerAC$[ebp], 0
	jne	SHORT $LN3@CBExInhibi

; 2978 : 		return;

	jmp	SHORT $LN4@CBExInhibi
$LN3@CBExInhibi:

; 2979 : 	}
; 2980 :     CPButtonObject *pCPButton	= (CPButtonObject*) pButton;

	mov	eax, DWORD PTR _pButton$[ebp]
	mov	DWORD PTR _pCPButton$[ebp], eax

; 2981 : 	if(!playerAC->playBetty){

	mov	ecx, DWORD PTR _playerAC$[ebp]
	movzx	edx, BYTE PTR [ecx+1516]
	test	edx, edx
	jne	SHORT $LN2@CBExInhibi

; 2982 : 		pCPButton->SetCurrentState(1); // Betty Off

	push	1
	mov	ecx, DWORD PTR _pCPButton$[ebp]
	call	?SetCurrentState@CPButtonObject@@QAEXH@Z ; CPButtonObject::SetCurrentState

; 2983 : 	}
; 2984 : 	else{

	jmp	SHORT $LN4@CBExInhibi
$LN2@CBExInhibi:

; 2985 : 		pCPButton->SetCurrentState(0);

	push	0
	mov	ecx, DWORD PTR _pCPButton$[ebp]
	call	?SetCurrentState@CPButtonObject@@QAEXH@Z ; CPButtonObject::SetCurrentState
$LN4@CBExInhibi:

; 2986 : 	}
; 2987 : 
; 2988 : }

	mov	esp, ebp
	pop	ebp
	ret	0
?CBExInhibitVMS@@YAXPAXH@Z ENDP				; CBExInhibitVMS
_TEXT	ENDS
; Function compile flags: /Odtp
; File c:\users\zhitao li\documents\visual studio 2012\projects\freefalcon\sim\cockpit\cbbuttons.cpp
_TEXT	SEGMENT
_pButton$ = 8						; size = 4
_event$ = 12						; size = 4
?CBEInhibitVMS@@YAXPAXH@Z PROC				; CBEInhibitVMS

; 2970 : {

	push	ebp
	mov	ebp, esp

; 2971 :     SimInhibitVMS(0, KEY_DOWN, pButton);

	mov	eax, DWORD PTR _pButton$[ebp]
	push	eax
	push	8
	push	0
	call	?SimInhibitVMS@@YAXKHPAX@Z		; SimInhibitVMS
	add	esp, 12					; 0000000cH

; 2972 : }

	pop	ebp
	ret	0
?CBEInhibitVMS@@YAXPAXH@Z ENDP				; CBEInhibitVMS
_TEXT	ENDS
; Function compile flags: /Odtp
; File c:\users\zhitao li\documents\visual studio 2012\projects\freefalcon\sim\cockpit\cbbuttons.cpp
_TEXT	SEGMENT
_pCPButton$ = -8					; size = 4
tv66 = -4						; size = 4
_pButton$ = 8						; size = 4
_event$ = 12						; size = 4
?CBExIdleDetent@@YAXPAXH@Z PROC				; CBExIdleDetent

; 2962 : {

	push	ebp
	mov	ebp, esp
	sub	esp, 8

; 2963 :     CPButtonObject *pCPButton	= (CPButtonObject*) pButton;

	mov	eax, DWORD PTR _pButton$[ebp]
	mov	DWORD PTR _pCPButton$[ebp], eax

; 2964 :     pCPButton->SetCurrentState(event == CP_CHECK_EVENT ? 0 : 1); // JPO

	cmp	DWORD PTR _event$[ebp], -1
	jne	SHORT $LN3@CBExIdleDe
	mov	DWORD PTR tv66[ebp], 0
	jmp	SHORT $LN4@CBExIdleDe
$LN3@CBExIdleDe:
	mov	DWORD PTR tv66[ebp], 1
$LN4@CBExIdleDe:
	mov	ecx, DWORD PTR tv66[ebp]
	push	ecx
	mov	ecx, DWORD PTR _pCPButton$[ebp]
	call	?SetCurrentState@CPButtonObject@@QAEXH@Z ; CPButtonObject::SetCurrentState

; 2965 : }

	mov	esp, ebp
	pop	ebp
	ret	0
?CBExIdleDetent@@YAXPAXH@Z ENDP				; CBExIdleDetent
_TEXT	ENDS
; Function compile flags: /Odtp
; File c:\users\zhitao li\documents\visual studio 2012\projects\freefalcon\sim\cockpit\cbbuttons.cpp
_TEXT	SEGMENT
_pButton$ = 8						; size = 4
_event$ = 12						; size = 4
?CBEIdleDetent@@YAXPAXH@Z PROC				; CBEIdleDetent

; 2957 : {

	push	ebp
	mov	ebp, esp

; 2958 :     SimThrottleIdleDetent(0, KEY_DOWN, pButton);

	mov	eax, DWORD PTR _pButton$[ebp]
	push	eax
	push	8
	push	0
	call	?SimThrottleIdleDetent@@YAXKHPAX@Z	; SimThrottleIdleDetent
	add	esp, 12					; 0000000cH

; 2959 : }

	pop	ebp
	ret	0
?CBEIdleDetent@@YAXPAXH@Z ENDP				; CBEIdleDetent
_TEXT	ENDS
; Function compile flags: /Odtp
; File c:\users\zhitao li\documents\visual studio 2012\projects\freefalcon\sim\cockpit\cbbuttons.cpp
_TEXT	SEGMENT
_pCPButton$ = -8					; size = 4
_playerAC$ = -4						; size = 4
_pButton$ = 8						; size = 4
___formal$ = 12						; size = 4
?CBExNwsToggle@@YAXPAXH@Z PROC				; CBExNwsToggle

; 2938 : {

	push	ebp
	mov	ebp, esp
	sub	esp, 8

; 2939 : 	AircraftClass *playerAC = SimDriver.GetPlayerAircraft();

	mov	ecx, OFFSET ?SimDriver@@3VSimulationDriver@@A ; SimDriver
	call	?GetPlayerAircraft@SimulationDriver@@QBEPAVAircraftClass@@XZ ; SimulationDriver::GetPlayerAircraft
	mov	DWORD PTR _playerAC$[ebp], eax

; 2940 :     if (playerAC == NULL){

	cmp	DWORD PTR _playerAC$[ebp], 0
	jne	SHORT $LN3@CBExNwsTog

; 2941 : 		return;

	jmp	SHORT $LN4@CBExNwsTog
$LN3@CBExNwsTog:

; 2942 : 	}
; 2943 : 
; 2944 :     CPButtonObject *pCPButton	= (CPButtonObject*) pButton;

	mov	eax, DWORD PTR _pButton$[ebp]
	mov	DWORD PTR _pCPButton$[ebp], eax

; 2945 : 	if(playerAC->af->IsSet(AirframeClass::NoseSteerOn)) {

	push	4194304					; 00400000H
	mov	ecx, DWORD PTR _playerAC$[ebp]
	mov	ecx, DWORD PTR [ecx+932]
	call	?IsSet@AirframeClass@@QBEHH@Z		; AirframeClass::IsSet
	test	eax, eax
	je	SHORT $LN2@CBExNwsTog

; 2946 : 	    pCPButton->SetCurrentState(1);

	push	1
	mov	ecx, DWORD PTR _pCPButton$[ebp]
	call	?SetCurrentState@CPButtonObject@@QAEXH@Z ; CPButtonObject::SetCurrentState

; 2947 : 	}
; 2948 : 	else {

	jmp	SHORT $LN4@CBExNwsTog
$LN2@CBExNwsTog:

; 2949 : 	    pCPButton->SetCurrentState(0);

	push	0
	mov	ecx, DWORD PTR _pCPButton$[ebp]
	call	?SetCurrentState@CPButtonObject@@QAEXH@Z ; CPButtonObject::SetCurrentState
$LN4@CBExNwsTog:

; 2950 : 	}
; 2951 : }

	mov	esp, ebp
	pop	ebp
	ret	0
?CBExNwsToggle@@YAXPAXH@Z ENDP				; CBExNwsToggle
_TEXT	ENDS
; Function compile flags: /Odtp
; File c:\users\zhitao li\documents\visual studio 2012\projects\freefalcon\sim\cockpit\cbbuttons.cpp
_TEXT	SEGMENT
_playerAC$ = -4						; size = 4
_pButton$ = 8						; size = 4
_event$ = 12						; size = 4
?CBENwsToggle@@YAXPAXH@Z PROC				; CBENwsToggle

; 2923 : {

	push	ebp
	mov	ebp, esp
	push	ecx

; 2924 : 	AircraftClass *playerAC = SimDriver.GetPlayerAircraft();

	mov	ecx, OFFSET ?SimDriver@@3VSimulationDriver@@A ; SimDriver
	call	?GetPlayerAircraft@SimulationDriver@@QBEPAVAircraftClass@@XZ ; SimulationDriver::GetPlayerAircraft
	mov	DWORD PTR _playerAC$[ebp], eax

; 2925 :     if (playerAC == NULL){

	cmp	DWORD PTR _playerAC$[ebp], 0
	jne	SHORT $LN3@CBENwsTogg

; 2926 : 		return;

	jmp	SHORT $LN4@CBENwsTogg
$LN3@CBENwsTogg:

; 2927 : 	}
; 2928 : 
; 2929 : 	if (!playerAC->af->IsSet(AirframeClass::NoseSteerOn)){

	push	4194304					; 00400000H
	mov	eax, DWORD PTR _playerAC$[ebp]
	mov	ecx, DWORD PTR [eax+932]
	call	?IsSet@AirframeClass@@QBEHH@Z		; AirframeClass::IsSet
	test	eax, eax
	jne	SHORT $LN2@CBENwsTogg

; 2930 : 		playerAC->af->SetFlag(AirframeClass::NoseSteerOn);

	push	4194304					; 00400000H
	mov	ecx, DWORD PTR _playerAC$[ebp]
	mov	ecx, DWORD PTR [ecx+932]
	call	?SetFlag@AirframeClass@@QAEXH@Z		; AirframeClass::SetFlag

; 2931 : 	}
; 2932 : 	else {

	jmp	SHORT $LN4@CBENwsTogg
$LN2@CBENwsTogg:

; 2933 : 		playerAC->af->ClearFlag(AirframeClass::NoseSteerOn);

	push	4194304					; 00400000H
	mov	edx, DWORD PTR _playerAC$[ebp]
	mov	ecx, DWORD PTR [edx+932]
	call	?ClearFlag@AirframeClass@@QAEXH@Z	; AirframeClass::ClearFlag
$LN4@CBENwsTogg:

; 2934 : 	}
; 2935 : }

	mov	esp, ebp
	pop	ebp
	ret	0
?CBENwsToggle@@YAXPAXH@Z ENDP				; CBENwsToggle
_TEXT	ENDS
; Function compile flags: /Odtp
; File c:\users\zhitao li\documents\visual studio 2012\projects\freefalcon\sim\cockpit\cbbuttons.cpp
_TEXT	SEGMENT
_playerAC$ = -12					; size = 4
_pCPButton$ = -8					; size = 4
tv69 = -4						; size = 4
_pButton$ = 8						; size = 4
_event$ = 12						; size = 4
?CBExMainPower@@YAXPAXH@Z PROC				; CBExMainPower

; 2893 : {

	push	ebp
	mov	ebp, esp
	sub	esp, 12					; 0000000cH

; 2894 : 	AircraftClass *playerAC = SimDriver.GetPlayerAircraft();

	mov	ecx, OFFSET ?SimDriver@@3VSimulationDriver@@A ; SimDriver
	call	?GetPlayerAircraft@SimulationDriver@@QBEPAVAircraftClass@@XZ ; SimulationDriver::GetPlayerAircraft
	mov	DWORD PTR _playerAC$[ebp], eax

; 2895 :     if (playerAC == NULL){

	cmp	DWORD PTR _playerAC$[ebp], 0
	jne	SHORT $LN7@CBExMainPo

; 2896 : 		return;

	jmp	SHORT $LN8@CBExMainPo
$LN7@CBExMainPo:

; 2897 : 	}
; 2898 : 
; 2899 :     CPButtonObject *pCPButton	= (CPButtonObject*) pButton;

	mov	eax, DWORD PTR _pButton$[ebp]
	mov	DWORD PTR _pCPButton$[ebp], eax

; 2900 : 	switch(playerAC->MainPower())

	mov	ecx, DWORD PTR _playerAC$[ebp]
	call	?MainPower@AircraftClass@@QAE?AW4MainPowerType@1@XZ ; AircraftClass::MainPower
	mov	DWORD PTR tv69[ebp], eax
	cmp	DWORD PTR tv69[ebp], 0
	je	SHORT $LN4@CBExMainPo
	cmp	DWORD PTR tv69[ebp], 1
	je	SHORT $LN3@CBExMainPo
	cmp	DWORD PTR tv69[ebp], 2
	je	SHORT $LN2@CBExMainPo
	jmp	SHORT $LN8@CBExMainPo
$LN4@CBExMainPo:

; 2901 : 	{
; 2902 : 		case AircraftClass::MainPowerOff:
; 2903 : 			pCPButton->SetCurrentState(0);

	push	0
	mov	ecx, DWORD PTR _pCPButton$[ebp]
	call	?SetCurrentState@CPButtonObject@@QAEXH@Z ; CPButtonObject::SetCurrentState

; 2904 : 			break;

	jmp	SHORT $LN8@CBExMainPo
$LN3@CBExMainPo:

; 2905 : 		case AircraftClass::MainPowerBatt:
; 2906 : 			pCPButton->SetCurrentState(1);

	push	1
	mov	ecx, DWORD PTR _pCPButton$[ebp]
	call	?SetCurrentState@CPButtonObject@@QAEXH@Z ; CPButtonObject::SetCurrentState

; 2907 : 			break;

	jmp	SHORT $LN8@CBExMainPo
$LN2@CBExMainPo:

; 2908 : 		case AircraftClass::MainPowerMain:
; 2909 : 			pCPButton->SetCurrentState(2);

	push	2
	mov	ecx, DWORD PTR _pCPButton$[ebp]
	call	?SetCurrentState@CPButtonObject@@QAEXH@Z ; CPButtonObject::SetCurrentState
$LN8@CBExMainPo:

; 2910 : 			break;
; 2911 : 		default:
; 2912 : 			ShiWarning("Unknown main power state");
; 2913 : 			break;
; 2914 : 	}
; 2915 : 
; 2916 : }

	mov	esp, ebp
	pop	ebp
	ret	0
?CBExMainPower@@YAXPAXH@Z ENDP				; CBExMainPower
_TEXT	ENDS
; Function compile flags: /Odtp
; File c:\users\zhitao li\documents\visual studio 2012\projects\freefalcon\sim\cockpit\cbbuttons.cpp
_TEXT	SEGMENT
_pButton$ = 8						; size = 4
_event$ = 12						; size = 4
?CBEMainPower@@YAXPAXH@Z PROC				; CBEMainPower

; 2883 : {

	push	ebp
	mov	ebp, esp

; 2884 : 	if(event == CP_MOUSE_BUTTON0){

	cmp	DWORD PTR _event$[ebp], 3
	jne	SHORT $LN2@CBEMainPow

; 2885 : 		SimMainPowerInc (0, KEY_DOWN, NULL);

	push	0
	push	8
	push	0
	call	?SimMainPowerInc@@YAXKHPAX@Z		; SimMainPowerInc
	add	esp, 12					; 0000000cH

; 2886 : 	}
; 2887 : 	else {

	jmp	SHORT $LN3@CBEMainPow
$LN2@CBEMainPow:

; 2888 : 		SimMainPowerDec(0, KEY_DOWN, NULL);

	push	0
	push	8
	push	0
	call	?SimMainPowerDec@@YAXKHPAX@Z		; SimMainPowerDec
	add	esp, 12					; 0000000cH
$LN3@CBEMainPow:

; 2889 : 	}
; 2890 : }

	pop	ebp
	ret	0
?CBEMainPower@@YAXPAXH@Z ENDP				; CBEMainPower
_TEXT	ENDS
; Function compile flags: /Odtp
; File c:\users\zhitao li\documents\visual studio 2012\projects\freefalcon\sim\cockpit\cbbuttons.cpp
_TEXT	SEGMENT
_pButton$ = 8						; size = 4
_event$ = 12						; size = 4
?CBEEWSProgButton@@YAXPAXH@Z PROC			; CBEEWSProgButton

; 2872 : {

	push	ebp
	mov	ebp, esp

; 2873 : 	if(event == CP_MOUSE_BUTTON0){

	cmp	DWORD PTR _event$[ebp], 3
	jne	SHORT $LN2@CBEEWSProg

; 2874 : 		SimEWSProgInc (0, KEY_DOWN, NULL);

	push	0
	push	8
	push	0
	call	?SimEWSProgInc@@YAXKHPAX@Z		; SimEWSProgInc
	add	esp, 12					; 0000000cH

; 2875 : 	}
; 2876 : 	else {

	jmp	SHORT $LN3@CBEEWSProg
$LN2@CBEEWSProg:

; 2877 : 		SimEWSProgDec(0, KEY_DOWN, NULL);

	push	0
	push	8
	push	0
	call	?SimEWSProgDec@@YAXKHPAX@Z		; SimEWSProgDec
	add	esp, 12					; 0000000cH
$LN3@CBEEWSProg:

; 2878 : 	}
; 2879 : }

	pop	ebp
	ret	0
?CBEEWSProgButton@@YAXPAXH@Z ENDP			; CBEEWSProgButton
_TEXT	ENDS
; Function compile flags: /Odtp
; File c:\users\zhitao li\documents\visual studio 2012\projects\freefalcon\sim\cockpit\cbbuttons.cpp
_TEXT	SEGMENT
tv68 = -12						; size = 4
_playerAC$ = -8						; size = 4
_pCPButton$ = -4					; size = 4
_pButton$ = 8						; size = 4
_event$ = 12						; size = 4
?CBExEWSProgButton@@YAXPAXH@Z PROC			; CBExEWSProgButton

; 2844 : {

	push	ebp
	mov	ebp, esp
	sub	esp, 12					; 0000000cH

; 2845 : 	AircraftClass *playerAC = SimDriver.GetPlayerAircraft();

	mov	ecx, OFFSET ?SimDriver@@3VSimulationDriver@@A ; SimDriver
	call	?GetPlayerAircraft@SimulationDriver@@QBEPAVAircraftClass@@XZ ; SimulationDriver::GetPlayerAircraft
	mov	DWORD PTR _playerAC$[ebp], eax

; 2846 :     if (playerAC == NULL){

	cmp	DWORD PTR _playerAC$[ebp], 0
	jne	SHORT $LN8@CBExEWSPro

; 2847 : 		return;

	jmp	SHORT $LN9@CBExEWSPro
$LN8@CBExEWSPro:

; 2848 : 	}
; 2849 : 
; 2850 :     CPButtonObject *pCPButton	= (CPButtonObject*) pButton;

	mov	eax, DWORD PTR _pButton$[ebp]
	mov	DWORD PTR _pCPButton$[ebp], eax

; 2851 : 	switch(playerAC->EWSProgNum){

	mov	ecx, DWORD PTR _playerAC$[ebp]
	mov	edx, DWORD PTR [ecx+1500]
	mov	DWORD PTR tv68[ebp], edx
	cmp	DWORD PTR tv68[ebp], 3
	ja	SHORT $LN9@CBExEWSPro
	mov	eax, DWORD PTR tv68[ebp]
	jmp	DWORD PTR $LN11@CBExEWSPro[eax*4]
$LN5@CBExEWSPro:

; 2852 : 		case 0:
; 2853 : 			pCPButton->SetCurrentState(0);

	push	0
	mov	ecx, DWORD PTR _pCPButton$[ebp]
	call	?SetCurrentState@CPButtonObject@@QAEXH@Z ; CPButtonObject::SetCurrentState

; 2854 : 		break;

	jmp	SHORT $LN9@CBExEWSPro
$LN4@CBExEWSPro:

; 2855 : 		case 1:
; 2856 : 			pCPButton->SetCurrentState(1);

	push	1
	mov	ecx, DWORD PTR _pCPButton$[ebp]
	call	?SetCurrentState@CPButtonObject@@QAEXH@Z ; CPButtonObject::SetCurrentState

; 2857 : 		break;

	jmp	SHORT $LN9@CBExEWSPro
$LN3@CBExEWSPro:

; 2858 : 		case 2:
; 2859 : 			pCPButton->SetCurrentState(2);

	push	2
	mov	ecx, DWORD PTR _pCPButton$[ebp]
	call	?SetCurrentState@CPButtonObject@@QAEXH@Z ; CPButtonObject::SetCurrentState

; 2860 : 		break;

	jmp	SHORT $LN9@CBExEWSPro
$LN2@CBExEWSPro:

; 2861 : 		case 3:
; 2862 : 			pCPButton->SetCurrentState(3);

	push	3
	mov	ecx, DWORD PTR _pCPButton$[ebp]
	call	?SetCurrentState@CPButtonObject@@QAEXH@Z ; CPButtonObject::SetCurrentState
$LN9@CBExEWSPro:

; 2863 : 		break;
; 2864 : 		default:
; 2865 : 			ShiWarning("Unknown EWS Program state");
; 2866 : 		break;
; 2867 : 	}
; 2868 : 
; 2869 : }

	mov	esp, ebp
	pop	ebp
	ret	0
	npad	1
$LN11@CBExEWSPro:
	DD	$LN5@CBExEWSPro
	DD	$LN4@CBExEWSPro
	DD	$LN3@CBExEWSPro
	DD	$LN2@CBExEWSPro
?CBExEWSProgButton@@YAXPAXH@Z ENDP			; CBExEWSProgButton
_TEXT	ENDS
; Function compile flags: /Odtp
; File c:\users\zhitao li\documents\visual studio 2012\projects\freefalcon\sim\cockpit\cbbuttons.cpp
_TEXT	SEGMENT
_pButton$ = 8						; size = 4
_event$ = 12						; size = 4
?CBEEWSPGMButton@@YAXPAXH@Z PROC			; CBEEWSPGMButton

; 2833 : {

	push	ebp
	mov	ebp, esp

; 2834 : 	if (event == CP_MOUSE_BUTTON0){

	cmp	DWORD PTR _event$[ebp], 3
	jne	SHORT $LN2@CBEEWSPGMB

; 2835 : 		SimEWSPGMInc (0, KEY_DOWN, NULL);

	push	0
	push	8
	push	0
	call	?SimEWSPGMInc@@YAXKHPAX@Z		; SimEWSPGMInc
	add	esp, 12					; 0000000cH

; 2836 : 	}
; 2837 : 	else {

	jmp	SHORT $LN3@CBEEWSPGMB
$LN2@CBEEWSPGMB:

; 2838 : 		SimEWSPGMDec(0, KEY_DOWN, NULL);

	push	0
	push	8
	push	0
	call	?SimEWSPGMDec@@YAXKHPAX@Z		; SimEWSPGMDec
	add	esp, 12					; 0000000cH
$LN3@CBEEWSPGMB:

; 2839 : 	}
; 2840 : }

	pop	ebp
	ret	0
?CBEEWSPGMButton@@YAXPAXH@Z ENDP			; CBEEWSPGMButton
_TEXT	ENDS
; Function compile flags: /Odtp
; File c:\users\zhitao li\documents\visual studio 2012\projects\freefalcon\sim\cockpit\cbbuttons.cpp
_TEXT	SEGMENT
tv69 = -12						; size = 4
_playerAC$ = -8						; size = 4
_pCPButton$ = -4					; size = 4
_pButton$ = 8						; size = 4
_event$ = 12						; size = 4
?CBExEWSPGMButton@@YAXPAXH@Z PROC			; CBExEWSPGMButton

; 2803 : {

	push	ebp
	mov	ebp, esp
	sub	esp, 12					; 0000000cH

; 2804 :     CPButtonObject *pCPButton	= (CPButtonObject*) pButton;

	mov	eax, DWORD PTR _pButton$[ebp]
	mov	DWORD PTR _pCPButton$[ebp], eax

; 2805 : 	AircraftClass *playerAC = SimDriver.GetPlayerAircraft();

	mov	ecx, OFFSET ?SimDriver@@3VSimulationDriver@@A ; SimDriver
	call	?GetPlayerAircraft@SimulationDriver@@QBEPAVAircraftClass@@XZ ; SimulationDriver::GetPlayerAircraft
	mov	DWORD PTR _playerAC$[ebp], eax

; 2806 :     if (playerAC == NULL){

	cmp	DWORD PTR _playerAC$[ebp], 0
	jne	SHORT $LN9@CBExEWSPGM

; 2807 : 		return;

	jmp	SHORT $LN10@CBExEWSPGM
$LN9@CBExEWSPGM:

; 2808 : 	}
; 2809 : 
; 2810 : 	switch (playerAC->EWSPGM()){

	mov	ecx, DWORD PTR _playerAC$[ebp]
	call	?EWSPGM@AircraftClass@@QAE?AW4EWSPGMSwitch@1@XZ ; AircraftClass::EWSPGM
	mov	DWORD PTR tv69[ebp], eax
	cmp	DWORD PTR tv69[ebp], 4
	ja	SHORT $LN10@CBExEWSPGM
	mov	ecx, DWORD PTR tv69[ebp]
	jmp	DWORD PTR $LN12@CBExEWSPGM[ecx*4]
$LN6@CBExEWSPGM:

; 2811 : 		case AircraftClass::EWSPGMSwitch::Off:
; 2812 : 			pCPButton->SetCurrentState(0);

	push	0
	mov	ecx, DWORD PTR _pCPButton$[ebp]
	call	?SetCurrentState@CPButtonObject@@QAEXH@Z ; CPButtonObject::SetCurrentState

; 2813 : 		break;

	jmp	SHORT $LN10@CBExEWSPGM
$LN5@CBExEWSPGM:

; 2814 : 		case AircraftClass::EWSPGMSwitch::Stby:
; 2815 : 			pCPButton->SetCurrentState(1);

	push	1
	mov	ecx, DWORD PTR _pCPButton$[ebp]
	call	?SetCurrentState@CPButtonObject@@QAEXH@Z ; CPButtonObject::SetCurrentState

; 2816 : 		break;

	jmp	SHORT $LN10@CBExEWSPGM
$LN4@CBExEWSPGM:

; 2817 : 		case AircraftClass::EWSPGMSwitch::Man:
; 2818 : 			pCPButton->SetCurrentState(2);

	push	2
	mov	ecx, DWORD PTR _pCPButton$[ebp]
	call	?SetCurrentState@CPButtonObject@@QAEXH@Z ; CPButtonObject::SetCurrentState

; 2819 : 		break;

	jmp	SHORT $LN10@CBExEWSPGM
$LN3@CBExEWSPGM:

; 2820 : 		case AircraftClass::EWSPGMSwitch::Semi:
; 2821 : 			pCPButton->SetCurrentState(3);

	push	3
	mov	ecx, DWORD PTR _pCPButton$[ebp]
	call	?SetCurrentState@CPButtonObject@@QAEXH@Z ; CPButtonObject::SetCurrentState

; 2822 : 		break;

	jmp	SHORT $LN10@CBExEWSPGM
$LN2@CBExEWSPGM:

; 2823 : 		case AircraftClass::EWSPGMSwitch::Auto:
; 2824 : 			pCPButton->SetCurrentState(4);

	push	4
	mov	ecx, DWORD PTR _pCPButton$[ebp]
	call	?SetCurrentState@CPButtonObject@@QAEXH@Z ; CPButtonObject::SetCurrentState
$LN10@CBExEWSPGM:

; 2825 : 		break;
; 2826 : 		default:
; 2827 : 			ShiWarning("Unknown EWS PGM state");
; 2828 : 		break;
; 2829 : 	}
; 2830 : }

	mov	esp, ebp
	pop	ebp
	ret	0
	npad	2
$LN12@CBExEWSPGM:
	DD	$LN6@CBExEWSPGM
	DD	$LN5@CBExEWSPGM
	DD	$LN4@CBExEWSPGM
	DD	$LN3@CBExEWSPGM
	DD	$LN2@CBExEWSPGM
?CBExEWSPGMButton@@YAXPAXH@Z ENDP			; CBExEWSPGMButton
_TEXT	ENDS
; Function compile flags: /Odtp
; File c:\users\zhitao li\documents\visual studio 2012\projects\freefalcon\sim\cockpit\cbbuttons.cpp
_TEXT	SEGMENT
_pButton$ = 8						; size = 4
_event$ = 12						; size = 4
?CBEEWSFlarePower@@YAXPAXH@Z PROC			; CBEEWSFlarePower

; 2798 : {

	push	ebp
	mov	ebp, esp

; 2799 :     SimEWSFlarePower(0, KEY_DOWN, pButton);

	mov	eax, DWORD PTR _pButton$[ebp]
	push	eax
	push	8
	push	0
	call	?SimEWSFlarePower@@YAXKHPAX@Z		; SimEWSFlarePower
	add	esp, 12					; 0000000cH

; 2800 : }

	pop	ebp
	ret	0
?CBEEWSFlarePower@@YAXPAXH@Z ENDP			; CBEEWSFlarePower
_TEXT	ENDS
; Function compile flags: /Odtp
; File c:\users\zhitao li\documents\visual studio 2012\projects\freefalcon\sim\cockpit\cbbuttons.cpp
_TEXT	SEGMENT
_pCPButton$ = -8					; size = 4
_playerAC$ = -4						; size = 4
_pButton$ = 8						; size = 4
_event$ = 12						; size = 4
?CBExEWSFlarePowerSwitch@@YAXPAXH@Z PROC		; CBExEWSFlarePowerSwitch

; 2776 : {

	push	ebp
	mov	ebp, esp
	sub	esp, 8

; 2777 : 	AircraftClass *playerAC = SimDriver.GetPlayerAircraft();

	mov	ecx, OFFSET ?SimDriver@@3VSimulationDriver@@A ; SimDriver
	call	?GetPlayerAircraft@SimulationDriver@@QBEPAVAircraftClass@@XZ ; SimulationDriver::GetPlayerAircraft
	mov	DWORD PTR _playerAC$[ebp], eax

; 2778 : 	if (playerAC == NULL){

	cmp	DWORD PTR _playerAC$[ebp], 0
	jne	SHORT $LN4@CBExEWSFla

; 2779 : 		return;

	jmp	SHORT $LN5@CBExEWSFla
$LN4@CBExEWSFla:

; 2780 : 	}
; 2781 : 
; 2782 : 	CPButtonObject *pCPButton	= (CPButtonObject*) pButton;

	mov	eax, DWORD PTR _pButton$[ebp]
	mov	DWORD PTR _pCPButton$[ebp], eax

; 2783 : 
; 2784 : 	if(g_bRealisticAvionics)

	movzx	ecx, BYTE PTR ?g_bRealisticAvionics@@3_NA ; g_bRealisticAvionics
	test	ecx, ecx
	je	SHORT $LN5@CBExEWSFla

; 2785 : 	{
; 2786 : 		//MI we need this
; 2787 : 		if(playerAC->PowerSwitchOn(AircraftClass::EWSFlarePower)){

	push	32768					; 00008000H
	mov	ecx, DWORD PTR _playerAC$[ebp]
	call	?PowerSwitchOn@AircraftClass@@QAEHW4AvionicsPowerFlags@1@@Z ; AircraftClass::PowerSwitchOn
	test	eax, eax
	je	SHORT $LN2@CBExEWSFla

; 2788 : 			pCPButton->SetCurrentState(1);

	push	1
	mov	ecx, DWORD PTR _pCPButton$[ebp]
	call	?SetCurrentState@CPButtonObject@@QAEXH@Z ; CPButtonObject::SetCurrentState

; 2789 : 		}
; 2790 : 		else{

	jmp	SHORT $LN5@CBExEWSFla
$LN2@CBExEWSFla:

; 2791 : 			pCPButton->SetCurrentState(0);

	push	0
	mov	ecx, DWORD PTR _pCPButton$[ebp]
	call	?SetCurrentState@CPButtonObject@@QAEXH@Z ; CPButtonObject::SetCurrentState
$LN5@CBExEWSFla:

; 2792 : 		}
; 2793 : 		//pCPButton->SetCurrentState(event == CP_CHECK_EVENT ? 0 : 1); // JPO
; 2794 : 	}
; 2795 : }

	mov	esp, ebp
	pop	ebp
	ret	0
?CBExEWSFlarePowerSwitch@@YAXPAXH@Z ENDP		; CBExEWSFlarePowerSwitch
_TEXT	ENDS
; Function compile flags: /Odtp
; File c:\users\zhitao li\documents\visual studio 2012\projects\freefalcon\sim\cockpit\cbbuttons.cpp
_TEXT	SEGMENT
_pButton$ = 8						; size = 4
_event$ = 12						; size = 4
?CBEEWSChaffPower@@YAXPAXH@Z PROC			; CBEEWSChaffPower

; 2771 : {

	push	ebp
	mov	ebp, esp

; 2772 :     SimEWSChaffPower(0, KEY_DOWN, pButton);

	mov	eax, DWORD PTR _pButton$[ebp]
	push	eax
	push	8
	push	0
	call	?SimEWSChaffPower@@YAXKHPAX@Z		; SimEWSChaffPower
	add	esp, 12					; 0000000cH

; 2773 : }

	pop	ebp
	ret	0
?CBEEWSChaffPower@@YAXPAXH@Z ENDP			; CBEEWSChaffPower
_TEXT	ENDS
; Function compile flags: /Odtp
; File c:\users\zhitao li\documents\visual studio 2012\projects\freefalcon\sim\cockpit\cbbuttons.cpp
_TEXT	SEGMENT
_pCPButton$ = -8					; size = 4
_playerAC$ = -4						; size = 4
_pButton$ = 8						; size = 4
_event$ = 12						; size = 4
?CBExEWSChaffPowerSwitch@@YAXPAXH@Z PROC		; CBExEWSChaffPowerSwitch

; 2749 : {

	push	ebp
	mov	ebp, esp
	sub	esp, 8

; 2750 : 	AircraftClass *playerAC = SimDriver.GetPlayerAircraft();

	mov	ecx, OFFSET ?SimDriver@@3VSimulationDriver@@A ; SimDriver
	call	?GetPlayerAircraft@SimulationDriver@@QBEPAVAircraftClass@@XZ ; SimulationDriver::GetPlayerAircraft
	mov	DWORD PTR _playerAC$[ebp], eax

; 2751 : 	if (playerAC == NULL){

	cmp	DWORD PTR _playerAC$[ebp], 0
	jne	SHORT $LN4@CBExEWSCha

; 2752 : 		return;

	jmp	SHORT $LN5@CBExEWSCha
$LN4@CBExEWSCha:

; 2753 : 	}
; 2754 : 
; 2755 :     CPButtonObject *pCPButton	= (CPButtonObject*) pButton;

	mov	eax, DWORD PTR _pButton$[ebp]
	mov	DWORD PTR _pCPButton$[ebp], eax

; 2756 : 
; 2757 : 	if(g_bRealisticAvionics)

	movzx	ecx, BYTE PTR ?g_bRealisticAvionics@@3_NA ; g_bRealisticAvionics
	test	ecx, ecx
	je	SHORT $LN5@CBExEWSCha

; 2758 : 	{
; 2759 : 		//MI we need this
; 2760 : 		if(playerAC->PowerSwitchOn(AircraftClass::EWSChaffPower)){

	push	16384					; 00004000H
	mov	ecx, DWORD PTR _playerAC$[ebp]
	call	?PowerSwitchOn@AircraftClass@@QAEHW4AvionicsPowerFlags@1@@Z ; AircraftClass::PowerSwitchOn
	test	eax, eax
	je	SHORT $LN2@CBExEWSCha

; 2761 : 			pCPButton->SetCurrentState(1);

	push	1
	mov	ecx, DWORD PTR _pCPButton$[ebp]
	call	?SetCurrentState@CPButtonObject@@QAEXH@Z ; CPButtonObject::SetCurrentState

; 2762 : 		}
; 2763 : 		else{

	jmp	SHORT $LN5@CBExEWSCha
$LN2@CBExEWSCha:

; 2764 : 			pCPButton->SetCurrentState(0);

	push	0
	mov	ecx, DWORD PTR _pCPButton$[ebp]
	call	?SetCurrentState@CPButtonObject@@QAEXH@Z ; CPButtonObject::SetCurrentState
$LN5@CBExEWSCha:

; 2765 : 		}
; 2766 : 		//pCPButton->SetCurrentState(event == CP_CHECK_EVENT ? 0 : 1); // JPO
; 2767 : 	}
; 2768 : }

	mov	esp, ebp
	pop	ebp
	ret	0
?CBExEWSChaffPowerSwitch@@YAXPAXH@Z ENDP		; CBExEWSChaffPowerSwitch
_TEXT	ENDS
; Function compile flags: /Odtp
; File c:\users\zhitao li\documents\visual studio 2012\projects\freefalcon\sim\cockpit\cbbuttons.cpp
_TEXT	SEGMENT
_pButton$ = 8						; size = 4
_event$ = 12						; size = 4
?CBEEWSJammerPower@@YAXPAXH@Z PROC			; CBEEWSJammerPower

; 2744 : {

	push	ebp
	mov	ebp, esp

; 2745 :     SimEWSJammerPower(0, KEY_DOWN, pButton);

	mov	eax, DWORD PTR _pButton$[ebp]
	push	eax
	push	8
	push	0
	call	?SimEWSJammerPower@@YAXKHPAX@Z		; SimEWSJammerPower
	add	esp, 12					; 0000000cH

; 2746 : }

	pop	ebp
	ret	0
?CBEEWSJammerPower@@YAXPAXH@Z ENDP			; CBEEWSJammerPower
_TEXT	ENDS
; Function compile flags: /Odtp
; File c:\users\zhitao li\documents\visual studio 2012\projects\freefalcon\sim\cockpit\cbbuttons.cpp
_TEXT	SEGMENT
_pCPButton$ = -8					; size = 4
_playerAC$ = -4						; size = 4
_pButton$ = 8						; size = 4
_event$ = 12						; size = 4
?CBExEWSJammerPowerSwitch@@YAXPAXH@Z PROC		; CBExEWSJammerPowerSwitch

; 2722 : {

	push	ebp
	mov	ebp, esp
	sub	esp, 8

; 2723 : 	AircraftClass *playerAC = SimDriver.GetPlayerAircraft();

	mov	ecx, OFFSET ?SimDriver@@3VSimulationDriver@@A ; SimDriver
	call	?GetPlayerAircraft@SimulationDriver@@QBEPAVAircraftClass@@XZ ; SimulationDriver::GetPlayerAircraft
	mov	DWORD PTR _playerAC$[ebp], eax

; 2724 : 	if (playerAC == NULL){

	cmp	DWORD PTR _playerAC$[ebp], 0
	jne	SHORT $LN4@CBExEWSJam

; 2725 : 		return;

	jmp	SHORT $LN5@CBExEWSJam
$LN4@CBExEWSJam:

; 2726 : 	}
; 2727 : 
; 2728 :     CPButtonObject *pCPButton	= (CPButtonObject*) pButton;

	mov	eax, DWORD PTR _pButton$[ebp]
	mov	DWORD PTR _pCPButton$[ebp], eax

; 2729 : 
; 2730 : 	if(g_bRealisticAvionics)

	movzx	ecx, BYTE PTR ?g_bRealisticAvionics@@3_NA ; g_bRealisticAvionics
	test	ecx, ecx
	je	SHORT $LN5@CBExEWSJam

; 2731 : 	{
; 2732 : 		//MI we need this
; 2733 : 		if(playerAC->PowerSwitchOn(AircraftClass::EWSJammerPower)){

	push	8192					; 00002000H
	mov	ecx, DWORD PTR _playerAC$[ebp]
