; Listing generated by Microsoft (R) Optimizing Compiler Version 17.00.51106.1 

	TITLE	C:\Users\Zhitao Li\Documents\Visual Studio 2012\Projects\Freefalcon\SIM\Cockpit\cpcb.cpp
	.686P
	.XMM
	include listing.inc
	.model	flat

INCLUDELIB LIBCMT
INCLUDELIB OLDNAMES

PUBLIC	?min_exponent@?$numeric_limits@M@std@@2HB	; std::numeric_limits<float>::min_exponent
PUBLIC	?min_exponent10@?$numeric_limits@M@std@@2HB	; std::numeric_limits<float>::min_exponent10
PUBLIC	?digits@?$numeric_limits@N@std@@2HB		; std::numeric_limits<double>::digits
PUBLIC	?digits10@?$numeric_limits@N@std@@2HB		; std::numeric_limits<double>::digits10
PUBLIC	?max_digits10@?$numeric_limits@N@std@@2HB	; std::numeric_limits<double>::max_digits10
PUBLIC	?max_exponent@?$numeric_limits@N@std@@2HB	; std::numeric_limits<double>::max_exponent
PUBLIC	?max_exponent10@?$numeric_limits@N@std@@2HB	; std::numeric_limits<double>::max_exponent10
PUBLIC	?min_exponent@?$numeric_limits@N@std@@2HB	; std::numeric_limits<double>::min_exponent
PUBLIC	?min_exponent10@?$numeric_limits@N@std@@2HB	; std::numeric_limits<double>::min_exponent10
PUBLIC	?digits@?$numeric_limits@O@std@@2HB		; std::numeric_limits<long double>::digits
PUBLIC	?digits10@?$numeric_limits@O@std@@2HB		; std::numeric_limits<long double>::digits10
PUBLIC	?max_digits10@?$numeric_limits@O@std@@2HB	; std::numeric_limits<long double>::max_digits10
PUBLIC	?max_exponent@?$numeric_limits@O@std@@2HB	; std::numeric_limits<long double>::max_exponent
PUBLIC	?max_exponent10@?$numeric_limits@O@std@@2HB	; std::numeric_limits<long double>::max_exponent10
PUBLIC	?min_exponent@?$numeric_limits@O@std@@2HB	; std::numeric_limits<long double>::min_exponent
PUBLIC	?min_exponent10@?$numeric_limits@O@std@@2HB	; std::numeric_limits<long double>::min_exponent10
PUBLIC	?skipws@?$_Iosb@H@std@@2W4_Fmtflags@12@B	; std::_Iosb<int>::skipws
PUBLIC	?unitbuf@?$_Iosb@H@std@@2W4_Fmtflags@12@B	; std::_Iosb<int>::unitbuf
PUBLIC	?uppercase@?$_Iosb@H@std@@2W4_Fmtflags@12@B	; std::_Iosb<int>::uppercase
PUBLIC	?showbase@?$_Iosb@H@std@@2W4_Fmtflags@12@B	; std::_Iosb<int>::showbase
PUBLIC	?showpoint@?$_Iosb@H@std@@2W4_Fmtflags@12@B	; std::_Iosb<int>::showpoint
PUBLIC	?showpos@?$_Iosb@H@std@@2W4_Fmtflags@12@B	; std::_Iosb<int>::showpos
PUBLIC	?left@?$_Iosb@H@std@@2W4_Fmtflags@12@B		; std::_Iosb<int>::left
PUBLIC	?right@?$_Iosb@H@std@@2W4_Fmtflags@12@B		; std::_Iosb<int>::right
PUBLIC	?internal@?$_Iosb@H@std@@2W4_Fmtflags@12@B	; std::_Iosb<int>::internal
PUBLIC	?dec@?$_Iosb@H@std@@2W4_Fmtflags@12@B		; std::_Iosb<int>::dec
PUBLIC	?oct@?$_Iosb@H@std@@2W4_Fmtflags@12@B		; std::_Iosb<int>::oct
PUBLIC	?hex@?$_Iosb@H@std@@2W4_Fmtflags@12@B		; std::_Iosb<int>::hex
PUBLIC	?scientific@?$_Iosb@H@std@@2W4_Fmtflags@12@B	; std::_Iosb<int>::scientific
PUBLIC	?fixed@?$_Iosb@H@std@@2W4_Fmtflags@12@B		; std::_Iosb<int>::fixed
PUBLIC	?hexfloat@?$_Iosb@H@std@@2W4_Fmtflags@12@B	; std::_Iosb<int>::hexfloat
PUBLIC	?boolalpha@?$_Iosb@H@std@@2W4_Fmtflags@12@B	; std::_Iosb<int>::boolalpha
PUBLIC	?_Stdio@?$_Iosb@H@std@@2W4_Fmtflags@12@B	; std::_Iosb<int>::_Stdio
PUBLIC	?adjustfield@?$_Iosb@H@std@@2W4_Fmtflags@12@B	; std::_Iosb<int>::adjustfield
PUBLIC	?basefield@?$_Iosb@H@std@@2W4_Fmtflags@12@B	; std::_Iosb<int>::basefield
PUBLIC	?floatfield@?$_Iosb@H@std@@2W4_Fmtflags@12@B	; std::_Iosb<int>::floatfield
PUBLIC	?goodbit@?$_Iosb@H@std@@2W4_Iostate@12@B	; std::_Iosb<int>::goodbit
PUBLIC	?eofbit@?$_Iosb@H@std@@2W4_Iostate@12@B		; std::_Iosb<int>::eofbit
PUBLIC	?failbit@?$_Iosb@H@std@@2W4_Iostate@12@B	; std::_Iosb<int>::failbit
PUBLIC	?value@?$_Sizeof@U_Nil@std@@U12@U12@U12@U12@U12@U12@U12@@std@@2IB ; std::_Sizeof<std::_Nil,std::_Nil,std::_Nil,std::_Nil,std::_Nil,std::_Nil,std::_Nil,std::_Nil>::value
PUBLIC	?badbit@?$_Iosb@H@std@@2W4_Iostate@12@B		; std::_Iosb<int>::badbit
PUBLIC	?_Hardfail@?$_Iosb@H@std@@2W4_Iostate@12@B	; std::_Iosb<int>::_Hardfail
PUBLIC	?in@?$_Iosb@H@std@@2W4_Openmode@12@B		; std::_Iosb<int>::in
PUBLIC	?out@?$_Iosb@H@std@@2W4_Openmode@12@B		; std::_Iosb<int>::out
PUBLIC	?ate@?$_Iosb@H@std@@2W4_Openmode@12@B		; std::_Iosb<int>::ate
PUBLIC	?app@?$_Iosb@H@std@@2W4_Openmode@12@B		; std::_Iosb<int>::app
PUBLIC	?trunc@?$_Iosb@H@std@@2W4_Openmode@12@B		; std::_Iosb<int>::trunc
PUBLIC	?_Nocreate@?$_Iosb@H@std@@2W4_Openmode@12@B	; std::_Iosb<int>::_Nocreate
PUBLIC	?_Noreplace@?$_Iosb@H@std@@2W4_Openmode@12@B	; std::_Iosb<int>::_Noreplace
PUBLIC	?binary@?$_Iosb@H@std@@2W4_Openmode@12@B	; std::_Iosb<int>::binary
PUBLIC	?beg@?$_Iosb@H@std@@2W4_Seekdir@12@B		; std::_Iosb<int>::beg
PUBLIC	?cur@?$_Iosb@H@std@@2W4_Seekdir@12@B		; std::_Iosb<int>::cur
PUBLIC	?end@?$_Iosb@H@std@@2W4_Seekdir@12@B		; std::_Iosb<int>::end
PUBLIC	?_Stream_err@failure@ios_base@std@@0W4io_errc@43@B ; std::ios_base::failure::_Stream_err
PUBLIC	?has_denorm@_Num_base@std@@2W4float_denorm_style@2@B ; std::_Num_base::has_denorm
PUBLIC	?has_denorm_loss@_Num_base@std@@2_NB		; std::_Num_base::has_denorm_loss
PUBLIC	?has_infinity@_Num_base@std@@2_NB		; std::_Num_base::has_infinity
PUBLIC	?has_quiet_NaN@_Num_base@std@@2_NB		; std::_Num_base::has_quiet_NaN
PUBLIC	?has_signaling_NaN@_Num_base@std@@2_NB		; std::_Num_base::has_signaling_NaN
PUBLIC	?is_bounded@_Num_base@std@@2_NB			; std::_Num_base::is_bounded
PUBLIC	?is_exact@_Num_base@std@@2_NB			; std::_Num_base::is_exact
PUBLIC	?is_iec559@_Num_base@std@@2_NB			; std::_Num_base::is_iec559
PUBLIC	?is_integer@_Num_base@std@@2_NB			; std::_Num_base::is_integer
PUBLIC	?is_modulo@_Num_base@std@@2_NB			; std::_Num_base::is_modulo
PUBLIC	?is_signed@_Num_base@std@@2_NB			; std::_Num_base::is_signed
PUBLIC	?is_specialized@_Num_base@std@@2_NB		; std::_Num_base::is_specialized
PUBLIC	?tinyness_before@_Num_base@std@@2_NB		; std::_Num_base::tinyness_before
PUBLIC	?traps@_Num_base@std@@2_NB			; std::_Num_base::traps
PUBLIC	?round_style@_Num_base@std@@2W4float_round_style@2@B ; std::_Num_base::round_style
PUBLIC	?digits@_Num_base@std@@2HB			; std::_Num_base::digits
PUBLIC	?digits10@_Num_base@std@@2HB			; std::_Num_base::digits10
PUBLIC	?TOTAL_CPCALLBACK_SLOTS@@3HB			; TOTAL_CPCALLBACK_SLOTS
PUBLIC	?max_digits10@_Num_base@std@@2HB		; std::_Num_base::max_digits10
PUBLIC	?TOTAL_BUTTONCALLBACK_SLOTS@@3HB		; TOTAL_BUTTONCALLBACK_SLOTS
PUBLIC	?max_exponent@_Num_base@std@@2HB		; std::_Num_base::max_exponent
PUBLIC	?max_exponent10@_Num_base@std@@2HB		; std::_Num_base::max_exponent10
PUBLIC	?min_exponent@_Num_base@std@@2HB		; std::_Num_base::min_exponent
PUBLIC	?min_exponent10@_Num_base@std@@2HB		; std::_Num_base::min_exponent10
PUBLIC	?radix@_Num_base@std@@2HB			; std::_Num_base::radix
PUBLIC	?CPCallbackArray@@3PAUCPCallbackStruct@@A	; CPCallbackArray
PUBLIC	?ButtonCallbackArray@@3PAUButtonCallbackStruct@@A ; ButtonCallbackArray
PUBLIC	?is_bounded@_Num_int_base@std@@2_NB		; std::_Num_int_base::is_bounded
PUBLIC	?is_exact@_Num_int_base@std@@2_NB		; std::_Num_int_base::is_exact
PUBLIC	?is_integer@_Num_int_base@std@@2_NB		; std::_Num_int_base::is_integer
PUBLIC	?is_modulo@_Num_int_base@std@@2_NB		; std::_Num_int_base::is_modulo
PUBLIC	?is_specialized@_Num_int_base@std@@2_NB		; std::_Num_int_base::is_specialized
PUBLIC	?radix@_Num_int_base@std@@2HB			; std::_Num_int_base::radix
PUBLIC	?has_denorm@_Num_float_base@std@@2W4float_denorm_style@2@B ; std::_Num_float_base::has_denorm
PUBLIC	?has_denorm_loss@_Num_float_base@std@@2_NB	; std::_Num_float_base::has_denorm_loss
PUBLIC	?has_infinity@_Num_float_base@std@@2_NB		; std::_Num_float_base::has_infinity
PUBLIC	?has_quiet_NaN@_Num_float_base@std@@2_NB	; std::_Num_float_base::has_quiet_NaN
PUBLIC	?has_signaling_NaN@_Num_float_base@std@@2_NB	; std::_Num_float_base::has_signaling_NaN
PUBLIC	?is_bounded@_Num_float_base@std@@2_NB		; std::_Num_float_base::is_bounded
PUBLIC	?is_exact@_Num_float_base@std@@2_NB		; std::_Num_float_base::is_exact
PUBLIC	?is_iec559@_Num_float_base@std@@2_NB		; std::_Num_float_base::is_iec559
PUBLIC	?is_integer@_Num_float_base@std@@2_NB		; std::_Num_float_base::is_integer
PUBLIC	?is_modulo@_Num_float_base@std@@2_NB		; std::_Num_float_base::is_modulo
PUBLIC	?is_signed@_Num_float_base@std@@2_NB		; std::_Num_float_base::is_signed
PUBLIC	?is_specialized@_Num_float_base@std@@2_NB	; std::_Num_float_base::is_specialized
PUBLIC	?tinyness_before@_Num_float_base@std@@2_NB	; std::_Num_float_base::tinyness_before
PUBLIC	?traps@_Num_float_base@std@@2_NB		; std::_Num_float_base::traps
PUBLIC	?round_style@_Num_float_base@std@@2W4float_round_style@2@B ; std::_Num_float_base::round_style
PUBLIC	?radix@_Num_float_base@std@@2HB			; std::_Num_float_base::radix
PUBLIC	?is_signed@?$numeric_limits@D@std@@2_NB		; std::numeric_limits<char>::is_signed
PUBLIC	?digits@?$numeric_limits@D@std@@2HB		; std::numeric_limits<char>::digits
PUBLIC	?digits10@?$numeric_limits@D@std@@2HB		; std::numeric_limits<char>::digits10
PUBLIC	?value@?$integral_constant@_N$0A@@std@@2_NB	; std::integral_constant<bool,0>::value
PUBLIC	?is_signed@?$numeric_limits@_W@std@@2_NB	; std::numeric_limits<wchar_t>::is_signed
PUBLIC	?digits@?$numeric_limits@_W@std@@2HB		; std::numeric_limits<wchar_t>::digits
PUBLIC	?digits10@?$numeric_limits@_W@std@@2HB		; std::numeric_limits<wchar_t>::digits10
PUBLIC	?value@?$integral_constant@_N$00@std@@2_NB	; std::integral_constant<bool,1>::value
PUBLIC	?is_modulo@?$numeric_limits@_N@std@@2_NB	; std::numeric_limits<bool>::is_modulo
PUBLIC	?is_signed@?$numeric_limits@_N@std@@2_NB	; std::numeric_limits<bool>::is_signed
PUBLIC	?digits@?$numeric_limits@_N@std@@2HB		; std::numeric_limits<bool>::digits
PUBLIC	?digits10@?$numeric_limits@_N@std@@2HB		; std::numeric_limits<bool>::digits10
PUBLIC	?collate@?$_Locbase@H@std@@2HB			; std::_Locbase<int>::collate
PUBLIC	?ctype@?$_Locbase@H@std@@2HB			; std::_Locbase<int>::ctype
PUBLIC	?monetary@?$_Locbase@H@std@@2HB			; std::_Locbase<int>::monetary
PUBLIC	?numeric@?$_Locbase@H@std@@2HB			; std::_Locbase<int>::numeric
PUBLIC	?time@?$_Locbase@H@std@@2HB			; std::_Locbase<int>::time
PUBLIC	?messages@?$_Locbase@H@std@@2HB			; std::_Locbase<int>::messages
PUBLIC	?all@?$_Locbase@H@std@@2HB			; std::_Locbase<int>::all
PUBLIC	?none@?$_Locbase@H@std@@2HB			; std::_Locbase<int>::none
PUBLIC	?is_signed@?$numeric_limits@C@std@@2_NB		; std::numeric_limits<signed char>::is_signed
PUBLIC	?digits@?$numeric_limits@C@std@@2HB		; std::numeric_limits<signed char>::digits
PUBLIC	?digits10@?$numeric_limits@C@std@@2HB		; std::numeric_limits<signed char>::digits10
PUBLIC	?is_signed@?$numeric_limits@E@std@@2_NB		; std::numeric_limits<unsigned char>::is_signed
PUBLIC	?digits@?$numeric_limits@E@std@@2HB		; std::numeric_limits<unsigned char>::digits
PUBLIC	?digits10@?$numeric_limits@E@std@@2HB		; std::numeric_limits<unsigned char>::digits10
PUBLIC	?value@?$_Sizeof@HU_Nil@std@@U12@U12@U12@U12@U12@U12@@std@@2IB ; std::_Sizeof<int,std::_Nil,std::_Nil,std::_Nil,std::_Nil,std::_Nil,std::_Nil,std::_Nil>::value
PUBLIC	?is_signed@?$numeric_limits@F@std@@2_NB		; std::numeric_limits<short>::is_signed
PUBLIC	?digits@?$numeric_limits@F@std@@2HB		; std::numeric_limits<short>::digits
PUBLIC	?digits10@?$numeric_limits@F@std@@2HB		; std::numeric_limits<short>::digits10
PUBLIC	?table_size@?$ctype@D@std@@2IB			; std::ctype<char>::table_size
PUBLIC	?is_signed@?$numeric_limits@G@std@@2_NB		; std::numeric_limits<unsigned short>::is_signed
PUBLIC	?digits@?$numeric_limits@G@std@@2HB		; std::numeric_limits<unsigned short>::digits
PUBLIC	?digits10@?$numeric_limits@G@std@@2HB		; std::numeric_limits<unsigned short>::digits10
PUBLIC	__GUID_00000000_0000_0000_0000_000000000000
PUBLIC	?is_signed@?$numeric_limits@H@std@@2_NB		; std::numeric_limits<int>::is_signed
PUBLIC	?digits@?$numeric_limits@H@std@@2HB		; std::numeric_limits<int>::digits
PUBLIC	?digits10@?$numeric_limits@H@std@@2HB		; std::numeric_limits<int>::digits10
PUBLIC	?is_signed@?$numeric_limits@I@std@@2_NB		; std::numeric_limits<unsigned int>::is_signed
PUBLIC	?digits@?$numeric_limits@I@std@@2HB		; std::numeric_limits<unsigned int>::digits
PUBLIC	?digits10@?$numeric_limits@I@std@@2HB		; std::numeric_limits<unsigned int>::digits10
PUBLIC	?SIMDIRTYDATA_INTERVAL@FalconEntity@@2KB	; FalconEntity::SIMDIRTYDATA_INTERVAL
PUBLIC	?CMPDIRTYDATA_INTERVAL@FalconEntity@@2KB	; FalconEntity::CMPDIRTYDATA_INTERVAL
PUBLIC	?is_signed@?$numeric_limits@J@std@@2_NB		; std::numeric_limits<long>::is_signed
PUBLIC	?digits@?$numeric_limits@J@std@@2HB		; std::numeric_limits<long>::digits
PUBLIC	?digits10@?$numeric_limits@J@std@@2HB		; std::numeric_limits<long>::digits10
PUBLIC	?is_signed@?$numeric_limits@K@std@@2_NB		; std::numeric_limits<unsigned long>::is_signed
PUBLIC	?digits@?$numeric_limits@K@std@@2HB		; std::numeric_limits<unsigned long>::digits
PUBLIC	?digits10@?$numeric_limits@K@std@@2HB		; std::numeric_limits<unsigned long>::digits10
PUBLIC	?is_signed@?$numeric_limits@_J@std@@2_NB	; std::numeric_limits<__int64>::is_signed
PUBLIC	?digits@?$numeric_limits@_J@std@@2HB		; std::numeric_limits<__int64>::digits
PUBLIC	?digits10@?$numeric_limits@_J@std@@2HB		; std::numeric_limits<__int64>::digits10
PUBLIC	?value@?$integral_constant@I$0A@@std@@2IB	; std::integral_constant<unsigned int,0>::value
PUBLIC	?is_signed@?$numeric_limits@_K@std@@2_NB	; std::numeric_limits<unsigned __int64>::is_signed
PUBLIC	?digits@?$numeric_limits@_K@std@@2HB		; std::numeric_limits<unsigned __int64>::digits
PUBLIC	?digits10@?$numeric_limits@_K@std@@2HB		; std::numeric_limits<unsigned __int64>::digits10
PUBLIC	?digits@?$numeric_limits@M@std@@2HB		; std::numeric_limits<float>::digits
PUBLIC	?digits10@?$numeric_limits@M@std@@2HB		; std::numeric_limits<float>::digits10
PUBLIC	?max_digits10@?$numeric_limits@M@std@@2HB	; std::numeric_limits<float>::max_digits10
PUBLIC	?max_exponent@?$numeric_limits@M@std@@2HB	; std::numeric_limits<float>::max_exponent
PUBLIC	?max_exponent10@?$numeric_limits@M@std@@2HB	; std::numeric_limits<float>::max_exponent10
EXTRN	?CBEOSB_10F@@YAXPAXH@Z:PROC			; CBEOSB_10F
EXTRN	?CBEOSB_11F@@YAXPAXH@Z:PROC			; CBEOSB_11F
EXTRN	?CBEOSB_12F@@YAXPAXH@Z:PROC			; CBEOSB_12F
EXTRN	?CBEOSB_13F@@YAXPAXH@Z:PROC			; CBEOSB_13F
EXTRN	?CBEOSB_14F@@YAXPAXH@Z:PROC			; CBEOSB_14F
EXTRN	?CBEOSB_15F@@YAXPAXH@Z:PROC			; CBEOSB_15F
EXTRN	?CBEOSB_16F@@YAXPAXH@Z:PROC			; CBEOSB_16F
EXTRN	?CBEOSB_17F@@YAXPAXH@Z:PROC			; CBEOSB_17F
EXTRN	?CBEOSB_18F@@YAXPAXH@Z:PROC			; CBEOSB_18F
EXTRN	?CBEOSB_19F@@YAXPAXH@Z:PROC			; CBEOSB_19F
EXTRN	?CBEOSB_20F@@YAXPAXH@Z:PROC			; CBEOSB_20F
EXTRN	?CBEThreeGainUp@@YAXPAXH@Z:PROC			; CBEThreeGainUp
EXTRN	?CBEThreeGainDown@@YAXPAXH@Z:PROC		; CBEThreeGainDown
EXTRN	?CBEFourGainUp@@YAXPAXH@Z:PROC			; CBEFourGainUp
EXTRN	?CBEFourGainDown@@YAXPAXH@Z:PROC		; CBEFourGainDown
EXTRN	?CBExICPSecondaryExclusive@@YAXPAXH@Z:PROC	; CBExICPSecondaryExclusive
EXTRN	?CBExICPPrimaryExclusive@@YAXPAXH@Z:PROC	; CBExICPPrimaryExclusive
EXTRN	?CBExICPTertiaryExclusive@@YAXPAXH@Z:PROC	; CBExICPTertiaryExclusive
EXTRN	?CBEICPTILS@@YAXPAXH@Z:PROC			; CBEICPTILS
EXTRN	?CBEICPALOW@@YAXPAXH@Z:PROC			; CBEICPALOW
EXTRN	?CBEICPFAck@@YAXPAXH@Z:PROC			; CBEICPFAck
EXTRN	?CBExICPPrevious@@YAXPAXH@Z:PROC		; CBExICPPrevious
EXTRN	?CBEICPPrevious@@YAXPAXH@Z:PROC			; CBEICPPrevious
EXTRN	?CBExICPNext@@YAXPAXH@Z:PROC			; CBExICPNext
EXTRN	?CBEICPNext@@YAXPAXH@Z:PROC			; CBEICPNext
EXTRN	?CBEICPLink@@YAXPAXH@Z:PROC			; CBEICPLink
EXTRN	?CBEICPCrus@@YAXPAXH@Z:PROC			; CBEICPCrus
EXTRN	?CBEICPStpt@@YAXPAXH@Z:PROC			; CBEICPStpt
EXTRN	?CBEICPMark@@YAXPAXH@Z:PROC			; CBEICPMark
EXTRN	?CBExICPEnter@@YAXPAXH@Z:PROC			; CBExICPEnter
EXTRN	?CBEICPEnter@@YAXPAXH@Z:PROC			; CBEICPEnter
EXTRN	?CBEICPCom1@@YAXPAXH@Z:PROC			; CBEICPCom1
EXTRN	?CBEICPCom2@@YAXPAXH@Z:PROC			; CBEICPCom2
EXTRN	?CBEICPNav@@YAXPAXH@Z:PROC			; CBEICPNav
EXTRN	?CBEICPAA@@YAXPAXH@Z:PROC			; CBEICPAA
EXTRN	?CBEICPAG@@YAXPAXH@Z:PROC			; CBEICPAG
EXTRN	?CBExHUDScales@@YAXPAXH@Z:PROC			; CBExHUDScales
EXTRN	?CBEHUDScales@@YAXPAXH@Z:PROC			; CBEHUDScales
EXTRN	?CBExHUDFPM@@YAXPAXH@Z:PROC			; CBExHUDFPM
EXTRN	?CBEHUDFPM@@YAXPAXH@Z:PROC			; CBEHUDFPM
EXTRN	?CBExHUDDED@@YAXPAXH@Z:PROC			; CBExHUDDED
EXTRN	?CBEHUDDED@@YAXPAXH@Z:PROC			; CBEHUDDED
EXTRN	?CBExHUDVelocity@@YAXPAXH@Z:PROC		; CBExHUDVelocity
EXTRN	?CBEHUDVelocity@@YAXPAXH@Z:PROC			; CBEHUDVelocity
EXTRN	?CBExHUDRadar@@YAXPAXH@Z:PROC			; CBExHUDRadar
EXTRN	?CBEHUDRadar@@YAXPAXH@Z:PROC			; CBEHUDRadar
EXTRN	?CBExHUDBrightness@@YAXPAXH@Z:PROC		; CBExHUDBrightness
EXTRN	?CBEHUDBrightness@@YAXPAXH@Z:PROC		; CBEHUDBrightness
EXTRN	?CBExHUDDriftCO@@YAXPAXH@Z:PROC			; CBExHUDDriftCO
EXTRN	?CBEHUDDriftCO@@YAXPAXH@Z:PROC			; CBEHUDDriftCO
EXTRN	?CBExECMSwitch@@YAXPAXH@Z:PROC			; CBExECMSwitch
EXTRN	?CBEECMSwitch@@YAXPAXH@Z:PROC			; CBEECMSwitch
EXTRN	?CBExUHFSwitch@@YAXPAXH@Z:PROC			; CBExUHFSwitch
EXTRN	?CBEUHFSwitch@@YAXPAXH@Z:PROC			; CBEUHFSwitch
EXTRN	?CBExEject@@YAXPAXH@Z:PROC			; CBExEject
EXTRN	?CBEEject@@YAXPAXH@Z:PROC			; CBEEject
EXTRN	?CBELandGearSelect@@YAXPAXH@Z:PROC		; CBELandGearSelect
EXTRN	?CBExAutoPilot@@YAXPAXH@Z:PROC			; CBExAutoPilot
EXTRN	?CBEAutoPilot@@YAXPAXH@Z:PROC			; CBEAutoPilot
EXTRN	?CBEMasterCaution@@YAXPAXH@Z:PROC		; CBEMasterCaution
EXTRN	?CBExAuxCommLeft@@YAXPAXH@Z:PROC		; CBExAuxCommLeft
EXTRN	?CBEAuxCommLeft@@YAXPAXH@Z:PROC			; CBEAuxCommLeft
EXTRN	?CBExAuxCommCenter@@YAXPAXH@Z:PROC		; CBExAuxCommCenter
EXTRN	?CBEAuxCommCenter@@YAXPAXH@Z:PROC		; CBEAuxCommCenter
EXTRN	?CBExAuxCommRight@@YAXPAXH@Z:PROC		; CBExAuxCommRight
EXTRN	?CBEAuxCommRight@@YAXPAXH@Z:PROC		; CBEAuxCommRight
EXTRN	?CBExAuxCommBand@@YAXPAXH@Z:PROC		; CBExAuxCommBand
EXTRN	?CBEAuxCommBand@@YAXPAXH@Z:PROC			; CBEAuxCommBand
EXTRN	?CBExAuxCommMaster@@YAXPAXH@Z:PROC		; CBExAuxCommMaster
EXTRN	?CBEAuxCommMaster@@YAXPAXH@Z:PROC		; CBEAuxCommMaster
EXTRN	?CBExAuxCommAATR@@YAXPAXH@Z:PROC		; CBExAuxCommAATR
EXTRN	?CBEAuxCommAATR@@YAXPAXH@Z:PROC			; CBEAuxCommAATR
EXTRN	?CBExUHFMaster@@YAXPAXH@Z:PROC			; CBExUHFMaster
EXTRN	?CBEUHFMaster@@YAXPAXH@Z:PROC			; CBEUHFMaster
EXTRN	?CBExExteriorLite@@YAXPAXH@Z:PROC		; CBExExteriorLite
EXTRN	?CBEExteriorLite@@YAXPAXH@Z:PROC		; CBEExteriorLite
EXTRN	?CBEHandoffB@@YAXPAXH@Z:PROC			; CBEHandoffB
EXTRN	?CBEPriModeB@@YAXPAXH@Z:PROC			; CBEPriModeB
EXTRN	?CBEUnknownB@@YAXPAXH@Z:PROC			; CBEUnknownB
EXTRN	?CBENavalB@@YAXPAXH@Z:PROC			; CBENavalB
EXTRN	?CBETgtSepB@@YAXPAXH@Z:PROC			; CBETgtSepB
EXTRN	?CBEAuxWarnSearchB@@YAXPAXH@Z:PROC		; CBEAuxWarnSearchB
EXTRN	?CBEAuxWarnAltB@@YAXPAXH@Z:PROC			; CBEAuxWarnAltB
EXTRN	?CBEAuxWarnPwrB@@YAXPAXH@Z:PROC			; CBEAuxWarnPwrB
EXTRN	?CBExAMChaffFlare@@YAXPAXH@Z:PROC		; CBExAMChaffFlare
EXTRN	?CBEAMChaffFlare@@YAXPAXH@Z:PROC		; CBEAMChaffFlare
EXTRN	?CBEKneeboardMap@@YAXPAXH@Z:PROC		; CBEKneeboardMap
EXTRN	?CBEKneeboardBrief@@YAXPAXH@Z:PROC		; CBEKneeboardBrief
EXTRN	?CBEKneeboardStpt@@YAXPAXH@Z:PROC		; CBEKneeboardStpt
EXTRN	?CBExMasterArm@@YAXPAXH@Z:PROC			; CBExMasterArm
EXTRN	?CBEMasterArm@@YAXPAXH@Z:PROC			; CBEMasterArm
EXTRN	?CBERightGainUp@@YAXPAXH@Z:PROC			; CBERightGainUp
EXTRN	?CBERightGainDown@@YAXPAXH@Z:PROC		; CBERightGainDown
EXTRN	?CBELeftGainUp@@YAXPAXH@Z:PROC			; CBELeftGainUp
EXTRN	?CBELeftGainDown@@YAXPAXH@Z:PROC		; CBELeftGainDown
EXTRN	?CBExCatIII@@YAXPAXH@Z:PROC			; CBExCatIII
EXTRN	?CBECatIII@@YAXPAXH@Z:PROC			; CBECatIII
EXTRN	?CBExAltLGear@@YAXPAXH@Z:PROC			; CBExAltLGear
EXTRN	?CBEAltLGear@@YAXPAXH@Z:PROC			; CBEAltLGear
EXTRN	?CBEAltLGearReset@@YAXPAXH@Z:PROC		; CBEAltLGearReset
EXTRN	?CBExJfs@@YAXPAXH@Z:PROC			; CBExJfs
EXTRN	?CBEJfs@@YAXPAXH@Z:PROC				; CBEJfs
EXTRN	?CBExEpu@@YAXPAXH@Z:PROC			; CBExEpu
EXTRN	?CBEEpu@@YAXPAXH@Z:PROC				; CBEEpu
EXTRN	?CBEICPIFF@@YAXPAXH@Z:PROC			; CBEICPIFF
EXTRN	?CBEICPLIST@@YAXPAXH@Z:PROC			; CBEICPLIST
EXTRN	?CBETHREEButton@@YAXPAXH@Z:PROC			; CBETHREEButton
EXTRN	?CBESIXButton@@YAXPAXH@Z:PROC			; CBESIXButton
EXTRN	?CBEEIGHTButton@@YAXPAXH@Z:PROC			; CBEEIGHTButton
EXTRN	?CBENINEButton@@YAXPAXH@Z:PROC			; CBENINEButton
EXTRN	?CBEZEROButton@@YAXPAXH@Z:PROC			; CBEZEROButton
EXTRN	?CBEResetDEDPage@@YAXPAXH@Z:PROC		; CBEResetDEDPage
EXTRN	?CBEICPDEDUP@@YAXPAXH@Z:PROC			; CBEICPDEDUP
EXTRN	?CBEICPDEDDOWN@@YAXPAXH@Z:PROC			; CBEICPDEDDOWN
EXTRN	?CBEICPDEDSEQ@@YAXPAXH@Z:PROC			; CBEICPDEDSEQ
EXTRN	?CBEICPCLEAR@@YAXPAXH@Z:PROC			; CBEICPCLEAR
EXTRN	?CBExRALTSwitch@@YAXPAXH@Z:PROC			; CBExRALTSwitch
EXTRN	?CBERALTSTDBY@@YAXPAXH@Z:PROC			; CBERALTSTDBY
EXTRN	?CBERALTON@@YAXPAXH@Z:PROC			; CBERALTON
EXTRN	?CBERALTOFF@@YAXPAXH@Z:PROC			; CBERALTOFF
EXTRN	?CBERALTSwitch@@YAXPAXH@Z:PROC			; CBERALTSwitch
EXTRN	?CBExLandingLightToggle@@YAXPAXH@Z:PROC		; CBExLandingLightToggle
EXTRN	?CBELandingLightToggle@@YAXPAXH@Z:PROC		; CBELandingLightToggle
EXTRN	?CBExParkingBrakeToggle@@YAXPAXH@Z:PROC		; CBExParkingBrakeToggle
EXTRN	?CBEParkingBrakeToggle@@YAXPAXH@Z:PROC		; CBEParkingBrakeToggle
EXTRN	?CBExHookToggle@@YAXPAXH@Z:PROC			; CBExHookToggle
EXTRN	?CBEHookToggle@@YAXPAXH@Z:PROC			; CBEHookToggle
EXTRN	?CBExLaserArmToggle@@YAXPAXH@Z:PROC		; CBExLaserArmToggle
EXTRN	?CBELaserArmToggle@@YAXPAXH@Z:PROC		; CBELaserArmToggle
EXTRN	?CBExFuelDoorToggle@@YAXPAXH@Z:PROC		; CBExFuelDoorToggle
EXTRN	?CBEFuelDoorToggle@@YAXPAXH@Z:PROC		; CBEFuelDoorToggle
EXTRN	?CBExRightAPSwitch@@YAXPAXH@Z:PROC		; CBExRightAPSwitch
EXTRN	?CBERightAPSwitch@@YAXPAXH@Z:PROC		; CBERightAPSwitch
EXTRN	?CBExLeftAPSwitch@@YAXPAXH@Z:PROC		; CBExLeftAPSwitch
EXTRN	?CBELeftAPSwitch@@YAXPAXH@Z:PROC		; CBELeftAPSwitch
EXTRN	?CBEAPOverride@@YAXPAXH@Z:PROC			; CBEAPOverride
EXTRN	?CBEECMPwrLight@@YAXPAX@Z:PROC			; CBEECMPwrLight
EXTRN	?CBExWarnReset@@YAXPAXH@Z:PROC			; CBExWarnReset
EXTRN	?CBEECMFailLight@@YAXPAX@Z:PROC			; CBEECMFailLight
EXTRN	?CBEAOAIndLight@@YAXPAX@Z:PROC			; CBEAOAIndLight
EXTRN	?CBEWarnReset@@YAXPAXH@Z:PROC			; CBEWarnReset
EXTRN	?CBEAOAFastLight@@YAXPAX@Z:PROC			; CBEAOAFastLight
EXTRN	?CBExReticleSwitch@@YAXPAXH@Z:PROC		; CBExReticleSwitch
EXTRN	?CBERefuelLight@@YAXPAX@Z:PROC			; CBERefuelLight
EXTRN	?CBEDiscLight@@YAXPAX@Z:PROC			; CBEDiscLight
EXTRN	?CBEReticleSwitch@@YAXPAXH@Z:PROC		; CBEReticleSwitch
EXTRN	?CheckLandingGearHandle@@YAXPAX@Z:PROC		; CheckLandingGearHandle
EXTRN	?CBEPinkySwitch@@YAXPAXH@Z:PROC			; CBEPinkySwitch
EXTRN	?CBEAOA@@YAXPAX@Z:PROC				; CBEAOA
EXTRN	?CBDAOA@@YAXPAX@Z:PROC				; CBDAOA
EXTRN	?CBExGndJettEnable@@YAXPAXH@Z:PROC		; CBExGndJettEnable
EXTRN	?CBEVVI@@YAXPAX@Z:PROC				; CBEVVI
EXTRN	?CBEGndJettEnable@@YAXPAXH@Z:PROC		; CBEGndJettEnable
EXTRN	?CBDVVI@@YAXPAX@Z:PROC				; CBDVVI
EXTRN	?CBEFuelFlow@@YAXPAX@Z:PROC			; CBEFuelFlow
EXTRN	?CBExExtlPower@@YAXPAXH@Z:PROC			; CBExExtlPower
EXTRN	?CBEOilPressure@@YAXPAX@Z:PROC			; CBEOilPressure
EXTRN	?CBEExtlPower@@YAXPAXH@Z:PROC			; CBEExtlPower
EXTRN	?CBENozPos@@YAXPAX@Z:PROC			; CBENozPos
EXTRN	?CBExExtlAntiColl@@YAXPAXH@Z:PROC		; CBExExtlAntiColl
EXTRN	?CBERPM@@YAXPAX@Z:PROC				; CBERPM
EXTRN	?CBEInletTemperature@@YAXPAX@Z:PROC		; CBEInletTemperature
EXTRN	?CBEExtlAntiColl@@YAXPAXH@Z:PROC		; CBEExtlAntiColl
EXTRN	?CBECaution1@@YAXPAX@Z:PROC			; CBECaution1
EXTRN	?CBExExtlSteady@@YAXPAXH@Z:PROC			; CBExExtlSteady
EXTRN	?CBECaution2@@YAXPAX@Z:PROC			; CBECaution2
EXTRN	?CBECaution3@@YAXPAX@Z:PROC			; CBECaution3
EXTRN	?CBEExtlSteady@@YAXPAXH@Z:PROC			; CBEExtlSteady
EXTRN	?CBEAltInd@@YAXPAX@Z:PROC			; CBEAltInd
EXTRN	?CBExExtlWing@@YAXPAXH@Z:PROC			; CBExExtlWing
EXTRN	?CBEAltDial@@YAXPAX@Z:PROC			; CBEAltDial
EXTRN	?CBEMachAsi@@YAXPAX@Z:PROC			; CBEMachAsi
EXTRN	?CBEExtlWing@@YAXPAXH@Z:PROC			; CBEExtlWing
EXTRN	?CBEMach@@YAXPAX@Z:PROC				; CBEMach
EXTRN	?CBExAVTRSwitch@@YAXPAXH@Z:PROC			; CBExAVTRSwitch
EXTRN	?CBECaution4@@YAXPAX@Z:PROC			; CBECaution4
EXTRN	?CBECaution5@@YAXPAX@Z:PROC			; CBECaution5
EXTRN	?CBEAVTRSwitch@@YAXPAXH@Z:PROC			; CBEAVTRSwitch
EXTRN	?CBECaution6@@YAXPAX@Z:PROC			; CBECaution6
EXTRN	?CBExIFFPower@@YAXPAXH@Z:PROC			; CBExIFFPower
EXTRN	?CBEThreatWarn7@@YAXPAX@Z:PROC			; CBEThreatWarn7
EXTRN	?CBEThreatWarn8@@YAXPAX@Z:PROC			; CBEThreatWarn8
EXTRN	?CBEIFFPower@@YAXPAXH@Z:PROC			; CBEIFFPower
EXTRN	?CBEThreatWarn9@@YAXPAX@Z:PROC			; CBEThreatWarn9
EXTRN	?CBEThreatWarn10@@YAXPAX@Z:PROC			; CBEThreatWarn10
EXTRN	?CBExINSSwitch@@YAXPAXH@Z:PROC			; CBExINSSwitch
EXTRN	?CBECaution7@@YAXPAX@Z:PROC			; CBECaution7
EXTRN	?CBEINSSwitch@@YAXPAXH@Z:PROC			; CBEINSSwitch
EXTRN	?CBECaution8@@YAXPAX@Z:PROC			; CBECaution8
EXTRN	?CBExLEFLockSwitch@@YAXPAXH@Z:PROC		; CBExLEFLockSwitch
EXTRN	?CBECaution9@@YAXPAX@Z:PROC			; CBECaution9
EXTRN	?CBECaution10@@YAXPAX@Z:PROC			; CBECaution10
EXTRN	?CBELEFLockSwitch@@YAXPAXH@Z:PROC		; CBELEFLockSwitch
EXTRN	?CBECaution11@@YAXPAX@Z:PROC			; CBECaution11
EXTRN	?CBECaution12@@YAXPAX@Z:PROC			; CBECaution12
EXTRN	?CBExDigitalBUP@@YAXPAXH@Z:PROC			; CBExDigitalBUP
EXTRN	?CBECaution13@@YAXPAX@Z:PROC			; CBECaution13
EXTRN	?CBEDigitalBUP@@YAXPAXH@Z:PROC			; CBEDigitalBUP
EXTRN	?CBECaution14@@YAXPAX@Z:PROC			; CBECaution14
EXTRN	?CBExAltFlaps@@YAXPAXH@Z:PROC			; CBExAltFlaps
EXTRN	?CBECaution15@@YAXPAX@Z:PROC			; CBECaution15
EXTRN	?CBECaution16@@YAXPAX@Z:PROC			; CBECaution16
EXTRN	?CBEAltFlaps@@YAXPAXH@Z:PROC			; CBEAltFlaps
EXTRN	?CBECaution17@@YAXPAX@Z:PROC			; CBECaution17
EXTRN	?CBExManualFlyup@@YAXPAXH@Z:PROC		; CBExManualFlyup
EXTRN	?CBEManualFlyup@@YAXPAXH@Z:PROC			; CBEManualFlyup
EXTRN	?CBExFLCSReset@@YAXPAXH@Z:PROC			; CBExFLCSReset
EXTRN	?CBEFLCSReset@@YAXPAXH@Z:PROC			; CBEFLCSReset
EXTRN	?CBExFLTBIT@@YAXPAXH@Z:PROC			; CBExFLTBIT
EXTRN	?CBEFLTBIT@@YAXPAXH@Z:PROC			; CBEFLTBIT
EXTRN	?CBExOBOGSBit@@YAXPAXH@Z:PROC			; CBExOBOGSBit
EXTRN	?CBEOBOGSBit@@YAXPAXH@Z:PROC			; CBEOBOGSBit
EXTRN	?CBExMalIndLights@@YAXPAXH@Z:PROC		; CBExMalIndLights
EXTRN	?CBEMalIndLights@@YAXPAXH@Z:PROC		; CBEMalIndLights
EXTRN	?CBExProbeHeat@@YAXPAXH@Z:PROC			; CBExProbeHeat
EXTRN	?CBEProbeHeat@@YAXPAXH@Z:PROC			; CBEProbeHeat
EXTRN	?CBExEPUGEN@@YAXPAXH@Z:PROC			; CBExEPUGEN
EXTRN	?CBEEPUGEN@@YAXPAXH@Z:PROC			; CBEEPUGEN
EXTRN	?CBEInternalFuel@@YAXPAX@Z:PROC			; CBEInternalFuel
EXTRN	?CBExTestSwitch@@YAXPAXH@Z:PROC			; CBExTestSwitch
EXTRN	?CBEExternalFuel@@YAXPAX@Z:PROC			; CBEExternalFuel
EXTRN	?CBETestSwitch@@YAXPAXH@Z:PROC			; CBETestSwitch
EXTRN	?CBETotalFuel@@YAXPAX@Z:PROC			; CBETotalFuel
EXTRN	?CBExOverHeat@@YAXPAXH@Z:PROC			; CBExOverHeat
EXTRN	?CBEHydPressA@@YAXPAX@Z:PROC			; CBEHydPressA
EXTRN	?CBEHydPressB@@YAXPAX@Z:PROC			; CBEHydPressB
EXTRN	?CBEOverHeat@@YAXPAXH@Z:PROC			; CBEOverHeat
EXTRN	?CBEEPUFuel@@YAXPAX@Z:PROC			; CBEEPUFuel
EXTRN	?CBEClockHours@@YAXPAX@Z:PROC			; CBEClockHours
EXTRN	?CBExTrimAPDisc@@YAXPAXH@Z:PROC			; CBExTrimAPDisc
EXTRN	?CBEClockMinutes@@YAXPAX@Z:PROC			; CBEClockMinutes
EXTRN	?CBETrimAPDisc@@YAXPAXH@Z:PROC			; CBETrimAPDisc
EXTRN	?CBEClockSeconds@@YAXPAX@Z:PROC			; CBEClockSeconds
EXTRN	?CBExMaxPower@@YAXPAXH@Z:PROC			; CBExMaxPower
EXTRN	?CBEMagneticCompass@@YAXPAX@Z:PROC		; CBEMagneticCompass
EXTRN	?CBEChaffCount@@YAXPAX@Z:PROC			; CBEChaffCount
EXTRN	?CBEMaxPower@@YAXPAXH@Z:PROC			; CBEMaxPower
EXTRN	?CBEFlareCount@@YAXPAX@Z:PROC			; CBEFlareCount
EXTRN	?CBExABReset@@YAXPAXH@Z:PROC			; CBExABReset
EXTRN	?CBEHSIRange@@YAXPAX@Z:PROC			; CBEHSIRange
EXTRN	?CBEABReset@@YAXPAXH@Z:PROC			; CBEABReset
EXTRN	?CBEHSISelectedCourse@@YAXPAX@Z:PROC		; CBEHSISelectedCourse
EXTRN	?CBExSpeedAlt@@YAXPAX@Z:PROC			; CBExSpeedAlt
EXTRN	?CBETrimNose@@YAXPAXH@Z:PROC			; CBETrimNose
EXTRN	?CBETrimNose@@YAXPAX@Z:PROC			; CBETrimNose
EXTRN	?CBExTrimYaw@@YAXPAXH@Z:PROC			; CBExTrimYaw
EXTRN	?CBETrimWing@@YAXPAX@Z:PROC			; CBETrimWing
EXTRN	?CBEVVDial@@YAXPAX@Z:PROC			; CBEVVDial
EXTRN	?CBETrimYaw@@YAXPAXH@Z:PROC			; CBETrimYaw
EXTRN	?CBEGDial@@YAXPAX@Z:PROC			; CBEGDial
EXTRN	?CBERPMTape@@YAXPAX@Z:PROC			; CBERPMTape
EXTRN	?CBETrimRoll@@YAXPAXH@Z:PROC			; CBETrimRoll
EXTRN	?CBEWingSweepTape@@YAXPAX@Z:PROC		; CBEWingSweepTape
EXTRN	?CBExMissileVol@@YAXPAXH@Z:PROC			; CBExMissileVol
EXTRN	?CBEWingSweepDial@@YAXPAX@Z:PROC		; CBEWingSweepDial
EXTRN	?CBEAOADial@@YAXPAX@Z:PROC			; CBEAOADial
EXTRN	?CBEMissileVol@@YAXPAXH@Z:PROC			; CBEMissileVol
EXTRN	?CBETEFDial@@YAXPAX@Z:PROC			; CBETEFDial
EXTRN	?CBExThreatVol@@YAXPAXH@Z:PROC			; CBExThreatVol
EXTRN	?CBELEFDial@@YAXPAX@Z:PROC			; CBELEFDial
EXTRN	?CBETotalFuelDial@@YAXPAX@Z:PROC		; CBETotalFuelDial
EXTRN	?CBEThreatVol@@YAXPAXH@Z:PROC			; CBEThreatVol
EXTRN	?CBETotalFuelTape@@YAXPAX@Z:PROC		; CBETotalFuelTape
EXTRN	?CBETFRButton@@YAXPAXH@Z:PROC			; CBETFRButton
EXTRN	?CBEOilPressure2Dial@@YAXPAX@Z:PROC		; CBEOilPressure2Dial
EXTRN	?CBExComm1Vol@@YAXPAXH@Z:PROC			; CBExComm1Vol
EXTRN	?CBERPM2Dial@@YAXPAX@Z:PROC			; CBERPM2Dial
EXTRN	?CBEInletTemperature2Dial@@YAXPAX@Z:PROC	; CBEInletTemperature2Dial
EXTRN	?CBEComm1Vol@@YAXPAXH@Z:PROC			; CBEComm1Vol
EXTRN	?CBENozPos2Dial@@YAXPAX@Z:PROC			; CBENozPos2Dial
EXTRN	?CBExComm2Vol@@YAXPAXH@Z:PROC			; CBExComm2Vol
EXTRN	?CBERPM2Tape@@YAXPAX@Z:PROC			; CBERPM2Tape
EXTRN	?CBEEng2WarningLight@@YAXPAX@Z:PROC		; CBEEng2WarningLight
EXTRN	?CBEComm2Vol@@YAXPAXH@Z:PROC			; CBEComm2Vol
EXTRN	?CBELockLight@@YAXPAX@Z:PROC			; CBELockLight
EXTRN	?CBExSymWheel@@YAXPAXH@Z:PROC			; CBExSymWheel
EXTRN	?CBEShootLight@@YAXPAX@Z:PROC			; CBEShootLight
EXTRN	?CBEMarkerBeacon@@YAXPAX@Z:PROC			; CBEMarkerBeacon
EXTRN	?CBESymWheel@@YAXPAXH@Z:PROC			; CBESymWheel
EXTRN	?CBEFuelFlowLeftTape@@YAXPAX@Z:PROC		; CBEFuelFlowLeftTape
EXTRN	?CBEFuelFlowRightTape@@YAXPAX@Z:PROC		; CBEFuelFlowRightTape
EXTRN	?CBEThrRevButton@@YAXPAXH@Z:PROC		; CBEThrRevButton
EXTRN	?CBEFTITLeftTape@@YAXPAX@Z:PROC			; CBEFTITLeftTape
EXTRN	?CBExSmsPower@@YAXPAXH@Z:PROC			; CBExSmsPower
EXTRN	?CBEFTITRightTape@@YAXPAX@Z:PROC		; CBEFTITRightTape
EXTRN	?CBESmsPower@@YAXPAXH@Z:PROC			; CBESmsPower
EXTRN	?CBEFTITLeftDial@@YAXPAX@Z:PROC			; CBEFTITLeftDial
EXTRN	?CBEFTITRightDial@@YAXPAX@Z:PROC		; CBEFTITRightDial
EXTRN	?CBExFCCPower@@YAXPAXH@Z:PROC			; CBExFCCPower
EXTRN	?CBERoundsRemaining@@YAXPAX@Z:PROC		; CBERoundsRemaining
EXTRN	?CBEFCCPower@@YAXPAXH@Z:PROC			; CBEFCCPower
EXTRN	?CBERoundsRemainingDigits@@YAXPAX@Z:PROC	; CBERoundsRemainingDigits
EXTRN	?CBEFlapPos@@YAXPAX@Z:PROC			; CBEFlapPos
EXTRN	?CBExMFDPower@@YAXPAXH@Z:PROC			; CBExMFDPower
EXTRN	?CBELEFPos@@YAXPAX@Z:PROC			; CBELEFPos
EXTRN	?CBEMFDPower@@YAXPAXH@Z:PROC			; CBEMFDPower
EXTRN	?CBESpeedBreaks@@YAXPAX@Z:PROC			; CBESpeedBreaks
EXTRN	?CBEFrontLandGearLight@@YAXPAX@Z:PROC		; CBEFrontLandGearLight
EXTRN	?CBExUFCPower@@YAXPAXH@Z:PROC			; CBExUFCPower
EXTRN	?CBELeftLandGearLight@@YAXPAX@Z:PROC		; CBELeftLandGearLight
EXTRN	?CBEUFCPower@@YAXPAXH@Z:PROC			; CBEUFCPower
EXTRN	?CBERightLandGearLight@@YAXPAX@Z:PROC		; CBERightLandGearLight
EXTRN	?CBEUHFDigit@@YAXPAX@Z:PROC			; CBEUHFDigit
EXTRN	?CBExGPSPower@@YAXPAXH@Z:PROC			; CBExGPSPower
EXTRN	?CBECheckMasterCaution@@YAXPAX@Z:PROC		; CBECheckMasterCaution
EXTRN	?CBEGPSPower@@YAXPAXH@Z:PROC			; CBEGPSPower
EXTRN	?CBEAuxWarnActL@@YAXPAX@Z:PROC			; CBEAuxWarnActL
EXTRN	?CBELaunchL@@YAXPAX@Z:PROC			; CBELaunchL
EXTRN	?CBExDLPower@@YAXPAXH@Z:PROC			; CBExDLPower
EXTRN	?CBEHandoffL@@YAXPAX@Z:PROC			; CBEHandoffL
EXTRN	?CBEDLPower@@YAXPAXH@Z:PROC			; CBEDLPower
EXTRN	?CBEPriModeL@@YAXPAX@Z:PROC			; CBEPriModeL
EXTRN	?CBEUnknownL@@YAXPAX@Z:PROC			; CBEUnknownL
EXTRN	?CBExMAPPower@@YAXPAXH@Z:PROC			; CBExMAPPower
EXTRN	?CBENavalL@@YAXPAX@Z:PROC			; CBENavalL
EXTRN	?CBETgtSepL@@YAXPAX@Z:PROC			; CBETgtSepL
EXTRN	?CBEMAPPower@@YAXPAXH@Z:PROC			; CBEMAPPower
EXTRN	?CBEAuxWarnSearchL@@YAXPAX@Z:PROC		; CBEAuxWarnSearchL
EXTRN	?CBExRIGHTHPTPower@@YAXPAXH@Z:PROC		; CBExRIGHTHPTPower
EXTRN	?CBEAuxWarnAltL@@YAXPAX@Z:PROC			; CBEAuxWarnAltL
EXTRN	?CBEAuxWarnPwrL@@YAXPAX@Z:PROC			; CBEAuxWarnPwrL
EXTRN	?CBERIGHTHPTPower@@YAXPAXH@Z:PROC		; CBERIGHTHPTPower
EXTRN	?CBEVRPM@@YAXPAX@Z:PROC				; CBEVRPM
EXTRN	?CBExLEFTHPTPower@@YAXPAXH@Z:PROC		; CBExLEFTHPTPower
EXTRN	?CBEVNozPos@@YAXPAX@Z:PROC			; CBEVNozPos
EXTRN	?CBEVInletTemperature@@YAXPAX@Z:PROC		; CBEVInletTemperature
EXTRN	?CBELEFTHPTPower@@YAXPAXH@Z:PROC		; CBELEFTHPTPower
EXTRN	?CBEVOilPressure@@YAXPAX@Z:PROC			; CBEVOilPressure
EXTRN	?CBExTISLPower@@YAXPAXH@Z:PROC			; CBExTISLPower
EXTRN	?CBEVAltDial@@YAXPAX@Z:PROC			; CBEVAltDial
EXTRN	?CBEEpuRun@@YAXPAX@Z:PROC			; CBEEpuRun
EXTRN	?CBETISLPower@@YAXPAXH@Z:PROC			; CBETISLPower
EXTRN	?CBEJfsRun@@YAXPAX@Z:PROC			; CBEJfsRun
EXTRN	?CBExHUDPower@@YAXPAXH@Z:PROC			; CBExHUDPower
EXTRN	?CBEConfigLight@@YAXPAX@Z:PROC			; CBEConfigLight
EXTRN	?CBEInteriorLight@@YAXPAX@Z:PROC		; CBEInteriorLight
EXTRN	?CBEHUDPower@@YAXPAXH@Z:PROC			; CBEHUDPower
EXTRN	?CBECautionFwdFuel@@YAXPAX@Z:PROC		; CBECautionFwdFuel
EXTRN	?CBExFCRPower@@YAXPAXH@Z:PROC			; CBExFCRPower
EXTRN	?CBECautionAftFuel@@YAXPAX@Z:PROC		; CBECautionAftFuel
EXTRN	?CBECautionSec@@YAXPAX@Z:PROC			; CBECautionSec
EXTRN	?CBEFCRPower@@YAXPAXH@Z:PROC			; CBEFCRPower
EXTRN	?CBECautionOxyLow@@YAXPAX@Z:PROC		; CBECautionOxyLow
EXTRN	?CBExFuelDisplay@@YAXPAXH@Z:PROC		; CBExFuelDisplay
EXTRN	?CBECautionProbeHeat@@YAXPAX@Z:PROC		; CBECautionProbeHeat
EXTRN	?CBECautionSeatNotArmed@@YAXPAX@Z:PROC		; CBECautionSeatNotArmed
EXTRN	?CBEFuelSwitch@@YAXPAXH@Z:PROC			; CBEFuelSwitch
EXTRN	?CBECautionBUC@@YAXPAX@Z:PROC			; CBECautionBUC
EXTRN	?CBExFuelPump@@YAXPAXH@Z:PROC			; CBExFuelPump
EXTRN	?CBECautionFuelOilHot@@YAXPAX@Z:PROC		; CBECautionFuelOilHot
EXTRN	?CBEFuelPump@@YAXPAXH@Z:PROC			; CBEFuelPump
EXTRN	?CBECautionAntiSkid@@YAXPAX@Z:PROC		; CBECautionAntiSkid
EXTRN	?CBECautionMainGen@@YAXPAX@Z:PROC		; CBECautionMainGen
EXTRN	?CBExFuelCock@@YAXPAXH@Z:PROC			; CBExFuelCock
EXTRN	?CBECautionStbyGen@@YAXPAX@Z:PROC		; CBECautionStbyGen
EXTRN	?CBEFuelCock@@YAXPAXH@Z:PROC			; CBEFuelCock
EXTRN	?CBEFlcsPMG@@YAXPAX@Z:PROC			; CBEFlcsPMG
EXTRN	?CBEEpuGen@@YAXPAX@Z:PROC			; CBEEpuGen
EXTRN	?CBExFuelExtTrans@@YAXPAXH@Z:PROC		; CBExFuelExtTrans
EXTRN	?CBEEpuPmg@@YAXPAX@Z:PROC			; CBEEpuPmg
EXTRN	?CBEFuelExtTrans@@YAXPAXH@Z:PROC		; CBEFuelExtTrans
EXTRN	?CBEToFlcs@@YAXPAX@Z:PROC			; CBEToFlcs
EXTRN	?CBEFlcsRly@@YAXPAX@Z:PROC			; CBEFlcsRly
EXTRN	?CBExAirSource@@YAXPAXH@Z:PROC			; CBExAirSource
EXTRN	?CBEBatteryFail@@YAXPAX@Z:PROC			; CBEBatteryFail
EXTRN	?CBEEpuAir@@YAXPAX@Z:PROC			; CBEEpuAir
EXTRN	?CBEAirSource@@YAXPAXH@Z:PROC			; CBEAirSource
EXTRN	?CBEEpuHydrazine@@YAXPAX@Z:PROC			; CBEEpuHydrazine
EXTRN	?CBExInteriorLightSwitch@@YAXPAXH@Z:PROC	; CBExInteriorLightSwitch
EXTRN	?CBECautionElectric@@YAXPAX@Z:PROC		; CBECautionElectric
EXTRN	?CBETFFail@@YAXPAX@Z:PROC			; CBETFFail
EXTRN	?CBEInteriorLightSwitch@@YAXPAXH@Z:PROC		; CBEInteriorLightSwitch
EXTRN	?CBEEwsPanelPower@@YAXPAX@Z:PROC		; CBEEwsPanelPower
EXTRN	?CBExSeatArmSwitch@@YAXPAXH@Z:PROC		; CBExSeatArmSwitch
EXTRN	?CBECanopyLight@@YAXPAX@Z:PROC			; CBECanopyLight
EXTRN	?CBESeatArmSwitch@@YAXPAXH@Z:PROC		; CBESeatArmSwitch
EXTRN	?CBEInstrumentLight@@YAXPAX@Z:PROC		; CBEInstrumentLight
EXTRN	?CBESpotLight@@YAXPAX@Z:PROC			; CBESpotLight
EXTRN	?CBExEWSRWRPowerSwitch@@YAXPAXH@Z:PROC		; CBExEWSRWRPowerSwitch
EXTRN	?CBETFRLight@@YAXPAX@Z:PROC			; CBETFRLight
EXTRN	?CBEGearHandleLight@@YAXPAX@Z:PROC		; CBEGearHandleLight
EXTRN	?CBEEWSRWRPower@@YAXPAXH@Z:PROC			; CBEEWSRWRPower
EXTRN	?CBEADIOff@@YAXPAX@Z:PROC			; CBEADIOff
EXTRN	?CBExEWSJammerPowerSwitch@@YAXPAXH@Z:PROC	; CBExEWSJammerPowerSwitch
EXTRN	?CBEADIAux@@YAXPAX@Z:PROC			; CBEADIAux
EXTRN	?CBEHSIOff@@YAXPAX@Z:PROC			; CBEHSIOff
EXTRN	?CBEEWSJammerPower@@YAXPAXH@Z:PROC		; CBEEWSJammerPower
EXTRN	?CBELEFLight@@YAXPAX@Z:PROC			; CBELEFLight
EXTRN	?CBExEWSChaffPowerSwitch@@YAXPAXH@Z:PROC	; CBExEWSChaffPowerSwitch
EXTRN	?CBECanopyDamage@@YAXPAX@Z:PROC			; CBECanopyDamage
EXTRN	?CBEBUPADIFlag@@YAXPAX@Z:PROC			; CBEBUPADIFlag
EXTRN	?CBEEWSChaffPower@@YAXPAXH@Z:PROC		; CBEEWSChaffPower
EXTRN	?CBEAVTRRunLight@@YAXPAX@Z:PROC			; CBEAVTRRunLight
EXTRN	?CBExEWSFlarePowerSwitch@@YAXPAXH@Z:PROC	; CBExEWSFlarePowerSwitch
EXTRN	?CBEGSFlag@@YAXPAX@Z:PROC			; CBEGSFlag
EXTRN	?CBELOCFlag@@YAXPAX@Z:PROC			; CBELOCFlag
EXTRN	?CBEEWSFlarePower@@YAXPAXH@Z:PROC		; CBEEWSFlarePower
EXTRN	?CBEVVIOFF@@YAXPAX@Z:PROC			; CBEVVIOFF
EXTRN	?CBExEWSPGMButton@@YAXPAXH@Z:PROC		; CBExEWSPGMButton
EXTRN	?CBECockpitFeatures@@YAXPAX@Z:PROC		; CBECockpitFeatures
EXTRN	?CBEEWSPGMButton@@YAXPAXH@Z:PROC		; CBEEWSPGMButton
EXTRN	?CBECkptWingLight@@YAXPAX@Z:PROC		; CBECkptWingLight
EXTRN	?CBECkptStrobeLight@@YAXPAX@Z:PROC		; CBECkptStrobeLight
EXTRN	?CBExEWSProgButton@@YAXPAXH@Z:PROC		; CBExEWSProgButton
EXTRN	?CBExChaffDispense@@YAXPAXH@Z:PROC		; CBExChaffDispense
EXTRN	?CBEEWSProgButton@@YAXPAXH@Z:PROC		; CBEEWSProgButton
EXTRN	?CBEChaffDispense@@YAXPAXH@Z:PROC		; CBEChaffDispense
EXTRN	?CBExMainPower@@YAXPAXH@Z:PROC			; CBExMainPower
EXTRN	?CBExCourseSelect@@YAXPAXH@Z:PROC		; CBExCourseSelect
EXTRN	?CBEMainPower@@YAXPAXH@Z:PROC			; CBEMainPower
EXTRN	?CBECourseSelect@@YAXPAXH@Z:PROC		; CBECourseSelect
EXTRN	?CBExInhibitVMS@@YAXPAXH@Z:PROC			; CBExInhibitVMS
EXTRN	?CBExHeadingSelect@@YAXPAXH@Z:PROC		; CBExHeadingSelect
EXTRN	?CBEInhibitVMS@@YAXPAXH@Z:PROC			; CBEInhibitVMS
EXTRN	?CBEHeadingSelect@@YAXPAXH@Z:PROC		; CBEHeadingSelect
EXTRN	?CBExRFSwitch@@YAXPAXH@Z:PROC			; CBExRFSwitch
EXTRN	?CBExFlareDispense@@YAXPAXH@Z:PROC		; CBExFlareDispense
EXTRN	?CBERFSwitch@@YAXPAXH@Z:PROC			; CBERFSwitch
EXTRN	?CBEFlareDispense@@YAXPAXH@Z:PROC		; CBEFlareDispense
EXTRN	?CBExHUDColor@@YAXPAXH@Z:PROC			; CBExHUDColor
EXTRN	?CBExStoresJettison@@YAXPAXH@Z:PROC		; CBExStoresJettison
EXTRN	?CBEHUDColor@@YAXPAXH@Z:PROC			; CBEHUDColor
EXTRN	?CBEStoresJettison@@YAXPAXH@Z:PROC		; CBEStoresJettison
EXTRN	?CBExGearHandle@@YAXPAXH@Z:PROC			; CBExGearHandle
EXTRN	?CBExAVTRControl@@YAXPAXH@Z:PROC		; CBExAVTRControl
EXTRN	?CBEGearHandle@@YAXPAXH@Z:PROC			; CBEGearHandle
EXTRN	?CBEAVTRControl@@YAXPAXH@Z:PROC			; CBEAVTRControl
EXTRN	?CBExDeprRet@@YAXPAXH@Z:PROC			; CBExDeprRet
EXTRN	?CBExModeSelect@@YAXPAXH@Z:PROC			; CBExModeSelect
EXTRN	?CBEDeprRet@@YAXPAXH@Z:PROC			; CBEDeprRet
EXTRN	?CBEModeSelect@@YAXPAXH@Z:PROC			; CBEModeSelect
EXTRN	?CBExNwsToggle@@YAXPAXH@Z:PROC			; CBExNwsToggle
EXTRN	?CBExMPO@@YAXPAXH@Z:PROC			; CBExMPO
EXTRN	?CBENwsToggle@@YAXPAXH@Z:PROC			; CBENwsToggle
EXTRN	?CBEMPO@@YAXPAXH@Z:PROC				; CBEMPO
EXTRN	?CBExIdleDetent@@YAXPAXH@Z:PROC			; CBExIdleDetent
EXTRN	?CBExHornSilencer@@YAXPAXH@Z:PROC		; CBExHornSilencer
EXTRN	?CBEIdleDetent@@YAXPAXH@Z:PROC			; CBEIdleDetent
EXTRN	?CBEHornSilencer@@YAXPAXH@Z:PROC		; CBEHornSilencer
EXTRN	?CBExInstrumentLightSwitch@@YAXPAXH@Z:PROC	; CBExInstrumentLightSwitch
EXTRN	?CBExMFDButton@@YAXPAXH@Z:PROC			; CBExMFDButton
EXTRN	?CBEInstrumentLightSwitch@@YAXPAXH@Z:PROC	; CBEInstrumentLightSwitch
EXTRN	?CBEOSB_1L@@YAXPAXH@Z:PROC			; CBEOSB_1L
EXTRN	?CBExSpotLightSwitch@@YAXPAXH@Z:PROC		; CBExSpotLightSwitch
EXTRN	?CBEOSB_2L@@YAXPAXH@Z:PROC			; CBEOSB_2L
EXTRN	?CBESpotLightSwitch@@YAXPAXH@Z:PROC		; CBESpotLightSwitch
EXTRN	?CBEOSB_3L@@YAXPAXH@Z:PROC			; CBEOSB_3L
EXTRN	?CBEFlap@@YAXPAXH@Z:PROC			; CBEFlap
EXTRN	?CBEOSB_4L@@YAXPAXH@Z:PROC			; CBEOSB_4L
EXTRN	?CBEOSB_5L@@YAXPAXH@Z:PROC			; CBEOSB_5L
EXTRN	?CBELef@@YAXPAXH@Z:PROC				; CBELef
EXTRN	?CBEOSB_6L@@YAXPAXH@Z:PROC			; CBEOSB_6L
EXTRN	?CBExDragChute@@YAXPAXH@Z:PROC			; CBExDragChute
EXTRN	?CBEOSB_7L@@YAXPAXH@Z:PROC			; CBEOSB_7L
EXTRN	?CBEDragChute@@YAXPAXH@Z:PROC			; CBEDragChute
EXTRN	?CBEOSB_8L@@YAXPAXH@Z:PROC			; CBEOSB_8L
EXTRN	?CBExCanopy@@YAXPAXH@Z:PROC			; CBExCanopy
EXTRN	?CBEOSB_9L@@YAXPAXH@Z:PROC			; CBEOSB_9L
EXTRN	?CBECanopy@@YAXPAXH@Z:PROC			; CBECanopy
EXTRN	?CBEOSB_10L@@YAXPAXH@Z:PROC			; CBEOSB_10L
EXTRN	?CBEDummyCallback@@YAXPAXH@Z:PROC		; CBEDummyCallback
EXTRN	?CBEOSB_11L@@YAXPAXH@Z:PROC			; CBEOSB_11L
EXTRN	?CBEOSB_12L@@YAXPAXH@Z:PROC			; CBEOSB_12L
EXTRN	?CBEOSB_13L@@YAXPAXH@Z:PROC			; CBEOSB_13L
EXTRN	?CBEOSB_14L@@YAXPAXH@Z:PROC			; CBEOSB_14L
EXTRN	?CBEOSB_15L@@YAXPAXH@Z:PROC			; CBEOSB_15L
EXTRN	?CBEOSB_16L@@YAXPAXH@Z:PROC			; CBEOSB_16L
EXTRN	?CBEOSB_17L@@YAXPAXH@Z:PROC			; CBEOSB_17L
EXTRN	?CBEOSB_18L@@YAXPAXH@Z:PROC			; CBEOSB_18L
EXTRN	?CBEOSB_19L@@YAXPAXH@Z:PROC			; CBEOSB_19L
EXTRN	?CBEOSB_20L@@YAXPAXH@Z:PROC			; CBEOSB_20L
EXTRN	?CBEOSB_1R@@YAXPAXH@Z:PROC			; CBEOSB_1R
EXTRN	?CBEOSB_2R@@YAXPAXH@Z:PROC			; CBEOSB_2R
EXTRN	?CBEOSB_3R@@YAXPAXH@Z:PROC			; CBEOSB_3R
EXTRN	?CBEOSB_4R@@YAXPAXH@Z:PROC			; CBEOSB_4R
EXTRN	?CBEOSB_5R@@YAXPAXH@Z:PROC			; CBEOSB_5R
EXTRN	?CBEOSB_6R@@YAXPAXH@Z:PROC			; CBEOSB_6R
EXTRN	?CBEOSB_7R@@YAXPAXH@Z:PROC			; CBEOSB_7R
EXTRN	?CBEOSB_8R@@YAXPAXH@Z:PROC			; CBEOSB_8R
EXTRN	?CBEOSB_9R@@YAXPAXH@Z:PROC			; CBEOSB_9R
EXTRN	?CBEOSB_10R@@YAXPAXH@Z:PROC			; CBEOSB_10R
EXTRN	?CBEOSB_11R@@YAXPAXH@Z:PROC			; CBEOSB_11R
EXTRN	?CBEOSB_12R@@YAXPAXH@Z:PROC			; CBEOSB_12R
EXTRN	?CBEOSB_13R@@YAXPAXH@Z:PROC			; CBEOSB_13R
EXTRN	?CBEOSB_14R@@YAXPAXH@Z:PROC			; CBEOSB_14R
EXTRN	?CBEOSB_15R@@YAXPAXH@Z:PROC			; CBEOSB_15R
EXTRN	?CBEOSB_16R@@YAXPAXH@Z:PROC			; CBEOSB_16R
EXTRN	?CBEOSB_17R@@YAXPAXH@Z:PROC			; CBEOSB_17R
EXTRN	?CBEOSB_18R@@YAXPAXH@Z:PROC			; CBEOSB_18R
EXTRN	?CBEOSB_19R@@YAXPAXH@Z:PROC			; CBEOSB_19R
EXTRN	?CBEOSB_20R@@YAXPAXH@Z:PROC			; CBEOSB_20R
EXTRN	?CBEOSB_1T@@YAXPAXH@Z:PROC			; CBEOSB_1T
EXTRN	?CBEOSB_2T@@YAXPAXH@Z:PROC			; CBEOSB_2T
EXTRN	?CBEOSB_3T@@YAXPAXH@Z:PROC			; CBEOSB_3T
EXTRN	?CBEOSB_4T@@YAXPAXH@Z:PROC			; CBEOSB_4T
EXTRN	?CBEOSB_5T@@YAXPAXH@Z:PROC			; CBEOSB_5T
EXTRN	?CBEOSB_6T@@YAXPAXH@Z:PROC			; CBEOSB_6T
EXTRN	?CBEOSB_7T@@YAXPAXH@Z:PROC			; CBEOSB_7T
EXTRN	?CBEOSB_8T@@YAXPAXH@Z:PROC			; CBEOSB_8T
EXTRN	?CBEOSB_9T@@YAXPAXH@Z:PROC			; CBEOSB_9T
EXTRN	?CBEOSB_10T@@YAXPAXH@Z:PROC			; CBEOSB_10T
EXTRN	?CBEOSB_11T@@YAXPAXH@Z:PROC			; CBEOSB_11T
EXTRN	?CBEOSB_12T@@YAXPAXH@Z:PROC			; CBEOSB_12T
EXTRN	?CBEOSB_13T@@YAXPAXH@Z:PROC			; CBEOSB_13T
EXTRN	?CBEOSB_14T@@YAXPAXH@Z:PROC			; CBEOSB_14T
EXTRN	?CBEOSB_15T@@YAXPAXH@Z:PROC			; CBEOSB_15T
EXTRN	?CBEOSB_16T@@YAXPAXH@Z:PROC			; CBEOSB_16T
EXTRN	?CBEOSB_17T@@YAXPAXH@Z:PROC			; CBEOSB_17T
EXTRN	?CBEOSB_18T@@YAXPAXH@Z:PROC			; CBEOSB_18T
EXTRN	?CBEOSB_19T@@YAXPAXH@Z:PROC			; CBEOSB_19T
EXTRN	?CBEOSB_20T@@YAXPAXH@Z:PROC			; CBEOSB_20T
EXTRN	?CBEOSB_1F@@YAXPAXH@Z:PROC			; CBEOSB_1F
EXTRN	?CBEOSB_2F@@YAXPAXH@Z:PROC			; CBEOSB_2F
EXTRN	?CBEOSB_3F@@YAXPAXH@Z:PROC			; CBEOSB_3F
EXTRN	?CBEOSB_4F@@YAXPAXH@Z:PROC			; CBEOSB_4F
EXTRN	?CBEOSB_5F@@YAXPAXH@Z:PROC			; CBEOSB_5F
EXTRN	?CBEOSB_6F@@YAXPAXH@Z:PROC			; CBEOSB_6F
EXTRN	?CBEOSB_7F@@YAXPAXH@Z:PROC			; CBEOSB_7F
EXTRN	?CBEOSB_8F@@YAXPAXH@Z:PROC			; CBEOSB_8F
EXTRN	?CBEOSB_9F@@YAXPAXH@Z:PROC			; CBEOSB_9F
;	COMDAT ?max_exponent10@?$numeric_limits@M@std@@2HB
CONST	SEGMENT
?max_exponent10@?$numeric_limits@M@std@@2HB DD 026H	; std::numeric_limits<float>::max_exponent10
CONST	ENDS
;	COMDAT ?max_exponent@?$numeric_limits@M@std@@2HB
CONST	SEGMENT
?max_exponent@?$numeric_limits@M@std@@2HB DD 080H	; std::numeric_limits<float>::max_exponent
CONST	ENDS
;	COMDAT ?max_digits10@?$numeric_limits@M@std@@2HB
CONST	SEGMENT
?max_digits10@?$numeric_limits@M@std@@2HB DD 09H	; std::numeric_limits<float>::max_digits10
CONST	ENDS
;	COMDAT ?digits10@?$numeric_limits@M@std@@2HB
CONST	SEGMENT
?digits10@?$numeric_limits@M@std@@2HB DD 06H		; std::numeric_limits<float>::digits10
CONST	ENDS
;	COMDAT ?digits@?$numeric_limits@M@std@@2HB
CONST	SEGMENT
?digits@?$numeric_limits@M@std@@2HB DD 018H		; std::numeric_limits<float>::digits
CONST	ENDS
;	COMDAT ?digits10@?$numeric_limits@_K@std@@2HB
CONST	SEGMENT
?digits10@?$numeric_limits@_K@std@@2HB DD 013H		; std::numeric_limits<unsigned __int64>::digits10
CONST	ENDS
;	COMDAT ?digits@?$numeric_limits@_K@std@@2HB
CONST	SEGMENT
?digits@?$numeric_limits@_K@std@@2HB DD 040H		; std::numeric_limits<unsigned __int64>::digits
CONST	ENDS
;	COMDAT ?is_signed@?$numeric_limits@_K@std@@2_NB
CONST	SEGMENT
?is_signed@?$numeric_limits@_K@std@@2_NB DB 00H		; std::numeric_limits<unsigned __int64>::is_signed
CONST	ENDS
;	COMDAT ?value@?$integral_constant@I$0A@@std@@2IB
CONST	SEGMENT
?value@?$integral_constant@I$0A@@std@@2IB DD 00H	; std::integral_constant<unsigned int,0>::value
CONST	ENDS
;	COMDAT ?digits10@?$numeric_limits@_J@std@@2HB
CONST	SEGMENT
?digits10@?$numeric_limits@_J@std@@2HB DD 012H		; std::numeric_limits<__int64>::digits10
CONST	ENDS
;	COMDAT ?digits@?$numeric_limits@_J@std@@2HB
CONST	SEGMENT
?digits@?$numeric_limits@_J@std@@2HB DD 03fH		; std::numeric_limits<__int64>::digits
CONST	ENDS
;	COMDAT ?is_signed@?$numeric_limits@_J@std@@2_NB
CONST	SEGMENT
?is_signed@?$numeric_limits@_J@std@@2_NB DB 01H		; std::numeric_limits<__int64>::is_signed
CONST	ENDS
;	COMDAT ?digits10@?$numeric_limits@K@std@@2HB
CONST	SEGMENT
?digits10@?$numeric_limits@K@std@@2HB DD 09H		; std::numeric_limits<unsigned long>::digits10
CONST	ENDS
;	COMDAT ?digits@?$numeric_limits@K@std@@2HB
CONST	SEGMENT
?digits@?$numeric_limits@K@std@@2HB DD 020H		; std::numeric_limits<unsigned long>::digits
CONST	ENDS
;	COMDAT ?is_signed@?$numeric_limits@K@std@@2_NB
CONST	SEGMENT
?is_signed@?$numeric_limits@K@std@@2_NB DB 00H		; std::numeric_limits<unsigned long>::is_signed
CONST	ENDS
;	COMDAT ?digits10@?$numeric_limits@J@std@@2HB
CONST	SEGMENT
?digits10@?$numeric_limits@J@std@@2HB DD 09H		; std::numeric_limits<long>::digits10
CONST	ENDS
;	COMDAT ?digits@?$numeric_limits@J@std@@2HB
CONST	SEGMENT
?digits@?$numeric_limits@J@std@@2HB DD 01fH		; std::numeric_limits<long>::digits
CONST	ENDS
;	COMDAT ?is_signed@?$numeric_limits@J@std@@2_NB
CONST	SEGMENT
?is_signed@?$numeric_limits@J@std@@2_NB DB 01H		; std::numeric_limits<long>::is_signed
CONST	ENDS
;	COMDAT ?CMPDIRTYDATA_INTERVAL@FalconEntity@@2KB
CONST	SEGMENT
?CMPDIRTYDATA_INTERVAL@FalconEntity@@2KB DD 0c8H	; FalconEntity::CMPDIRTYDATA_INTERVAL
CONST	ENDS
;	COMDAT ?SIMDIRTYDATA_INTERVAL@FalconEntity@@2KB
CONST	SEGMENT
?SIMDIRTYDATA_INTERVAL@FalconEntity@@2KB DD 0c8H	; FalconEntity::SIMDIRTYDATA_INTERVAL
CONST	ENDS
;	COMDAT ?digits10@?$numeric_limits@I@std@@2HB
CONST	SEGMENT
?digits10@?$numeric_limits@I@std@@2HB DD 09H		; std::numeric_limits<unsigned int>::digits10
CONST	ENDS
;	COMDAT ?digits@?$numeric_limits@I@std@@2HB
CONST	SEGMENT
?digits@?$numeric_limits@I@std@@2HB DD 020H		; std::numeric_limits<unsigned int>::digits
CONST	ENDS
;	COMDAT ?is_signed@?$numeric_limits@I@std@@2_NB
CONST	SEGMENT
?is_signed@?$numeric_limits@I@std@@2_NB DB 00H		; std::numeric_limits<unsigned int>::is_signed
CONST	ENDS
;	COMDAT ?digits10@?$numeric_limits@H@std@@2HB
CONST	SEGMENT
?digits10@?$numeric_limits@H@std@@2HB DD 09H		; std::numeric_limits<int>::digits10
CONST	ENDS
;	COMDAT ?digits@?$numeric_limits@H@std@@2HB
CONST	SEGMENT
?digits@?$numeric_limits@H@std@@2HB DD 01fH		; std::numeric_limits<int>::digits
CONST	ENDS
;	COMDAT ?is_signed@?$numeric_limits@H@std@@2_NB
CONST	SEGMENT
?is_signed@?$numeric_limits@H@std@@2_NB DB 01H		; std::numeric_limits<int>::is_signed
CONST	ENDS
;	COMDAT __GUID_00000000_0000_0000_0000_000000000000
CONST	SEGMENT
__GUID_00000000_0000_0000_0000_000000000000 DD 00H
	DW	00H
	DW	00H
	DB	00H
	DB	00H
	DB	00H
	DB	00H
	DB	00H
	DB	00H
	DB	00H
	DB	00H
CONST	ENDS
;	COMDAT ?digits10@?$numeric_limits@G@std@@2HB
CONST	SEGMENT
?digits10@?$numeric_limits@G@std@@2HB DD 04H		; std::numeric_limits<unsigned short>::digits10
CONST	ENDS
;	COMDAT ?digits@?$numeric_limits@G@std@@2HB
CONST	SEGMENT
?digits@?$numeric_limits@G@std@@2HB DD 010H		; std::numeric_limits<unsigned short>::digits
CONST	ENDS
;	COMDAT ?is_signed@?$numeric_limits@G@std@@2_NB
CONST	SEGMENT
?is_signed@?$numeric_limits@G@std@@2_NB DB 00H		; std::numeric_limits<unsigned short>::is_signed
CONST	ENDS
;	COMDAT ?table_size@?$ctype@D@std@@2IB
CONST	SEGMENT
?table_size@?$ctype@D@std@@2IB DD 0100H			; std::ctype<char>::table_size
CONST	ENDS
;	COMDAT ?digits10@?$numeric_limits@F@std@@2HB
CONST	SEGMENT
?digits10@?$numeric_limits@F@std@@2HB DD 04H		; std::numeric_limits<short>::digits10
CONST	ENDS
;	COMDAT ?digits@?$numeric_limits@F@std@@2HB
CONST	SEGMENT
?digits@?$numeric_limits@F@std@@2HB DD 0fH		; std::numeric_limits<short>::digits
CONST	ENDS
;	COMDAT ?is_signed@?$numeric_limits@F@std@@2_NB
CONST	SEGMENT
?is_signed@?$numeric_limits@F@std@@2_NB DB 01H		; std::numeric_limits<short>::is_signed
CONST	ENDS
;	COMDAT ?value@?$_Sizeof@HU_Nil@std@@U12@U12@U12@U12@U12@U12@@std@@2IB
CONST	SEGMENT
?value@?$_Sizeof@HU_Nil@std@@U12@U12@U12@U12@U12@U12@@std@@2IB DD 01H ; std::_Sizeof<int,std::_Nil,std::_Nil,std::_Nil,std::_Nil,std::_Nil,std::_Nil,std::_Nil>::value
CONST	ENDS
;	COMDAT ?digits10@?$numeric_limits@E@std@@2HB
CONST	SEGMENT
?digits10@?$numeric_limits@E@std@@2HB DD 02H		; std::numeric_limits<unsigned char>::digits10
CONST	ENDS
;	COMDAT ?digits@?$numeric_limits@E@std@@2HB
CONST	SEGMENT
?digits@?$numeric_limits@E@std@@2HB DD 08H		; std::numeric_limits<unsigned char>::digits
CONST	ENDS
;	COMDAT ?is_signed@?$numeric_limits@E@std@@2_NB
CONST	SEGMENT
?is_signed@?$numeric_limits@E@std@@2_NB DB 00H		; std::numeric_limits<unsigned char>::is_signed
CONST	ENDS
;	COMDAT ?digits10@?$numeric_limits@C@std@@2HB
CONST	SEGMENT
?digits10@?$numeric_limits@C@std@@2HB DD 02H		; std::numeric_limits<signed char>::digits10
CONST	ENDS
;	COMDAT ?digits@?$numeric_limits@C@std@@2HB
CONST	SEGMENT
?digits@?$numeric_limits@C@std@@2HB DD 07H		; std::numeric_limits<signed char>::digits
CONST	ENDS
;	COMDAT ?is_signed@?$numeric_limits@C@std@@2_NB
CONST	SEGMENT
?is_signed@?$numeric_limits@C@std@@2_NB DB 01H		; std::numeric_limits<signed char>::is_signed
CONST	ENDS
;	COMDAT ?none@?$_Locbase@H@std@@2HB
CONST	SEGMENT
?none@?$_Locbase@H@std@@2HB DD 00H			; std::_Locbase<int>::none
CONST	ENDS
;	COMDAT ?all@?$_Locbase@H@std@@2HB
CONST	SEGMENT
?all@?$_Locbase@H@std@@2HB DD 03fH			; std::_Locbase<int>::all
CONST	ENDS
;	COMDAT ?messages@?$_Locbase@H@std@@2HB
CONST	SEGMENT
?messages@?$_Locbase@H@std@@2HB DD 020H			; std::_Locbase<int>::messages
CONST	ENDS
;	COMDAT ?time@?$_Locbase@H@std@@2HB
CONST	SEGMENT
?time@?$_Locbase@H@std@@2HB DD 010H			; std::_Locbase<int>::time
CONST	ENDS
;	COMDAT ?numeric@?$_Locbase@H@std@@2HB
CONST	SEGMENT
?numeric@?$_Locbase@H@std@@2HB DD 08H			; std::_Locbase<int>::numeric
CONST	ENDS
;	COMDAT ?monetary@?$_Locbase@H@std@@2HB
CONST	SEGMENT
?monetary@?$_Locbase@H@std@@2HB DD 04H			; std::_Locbase<int>::monetary
CONST	ENDS
;	COMDAT ?ctype@?$_Locbase@H@std@@2HB
CONST	SEGMENT
?ctype@?$_Locbase@H@std@@2HB DD 02H			; std::_Locbase<int>::ctype
CONST	ENDS
;	COMDAT ?collate@?$_Locbase@H@std@@2HB
CONST	SEGMENT
?collate@?$_Locbase@H@std@@2HB DD 01H			; std::_Locbase<int>::collate
CONST	ENDS
;	COMDAT ?digits10@?$numeric_limits@_N@std@@2HB
CONST	SEGMENT
?digits10@?$numeric_limits@_N@std@@2HB DD 00H		; std::numeric_limits<bool>::digits10
CONST	ENDS
;	COMDAT ?digits@?$numeric_limits@_N@std@@2HB
CONST	SEGMENT
?digits@?$numeric_limits@_N@std@@2HB DD 01H		; std::numeric_limits<bool>::digits
CONST	ENDS
;	COMDAT ?is_signed@?$numeric_limits@_N@std@@2_NB
CONST	SEGMENT
?is_signed@?$numeric_limits@_N@std@@2_NB DB 00H		; std::numeric_limits<bool>::is_signed
CONST	ENDS
;	COMDAT ?is_modulo@?$numeric_limits@_N@std@@2_NB
CONST	SEGMENT
?is_modulo@?$numeric_limits@_N@std@@2_NB DB 00H		; std::numeric_limits<bool>::is_modulo
CONST	ENDS
;	COMDAT ?value@?$integral_constant@_N$00@std@@2_NB
CONST	SEGMENT
?value@?$integral_constant@_N$00@std@@2_NB DB 01H	; std::integral_constant<bool,1>::value
CONST	ENDS
;	COMDAT ?digits10@?$numeric_limits@_W@std@@2HB
CONST	SEGMENT
?digits10@?$numeric_limits@_W@std@@2HB DD 04H		; std::numeric_limits<wchar_t>::digits10
CONST	ENDS
;	COMDAT ?digits@?$numeric_limits@_W@std@@2HB
CONST	SEGMENT
?digits@?$numeric_limits@_W@std@@2HB DD 010H		; std::numeric_limits<wchar_t>::digits
CONST	ENDS
;	COMDAT ?is_signed@?$numeric_limits@_W@std@@2_NB
CONST	SEGMENT
?is_signed@?$numeric_limits@_W@std@@2_NB DB 00H		; std::numeric_limits<wchar_t>::is_signed
CONST	ENDS
;	COMDAT ?value@?$integral_constant@_N$0A@@std@@2_NB
CONST	SEGMENT
?value@?$integral_constant@_N$0A@@std@@2_NB DB 00H	; std::integral_constant<bool,0>::value
CONST	ENDS
;	COMDAT ?digits10@?$numeric_limits@D@std@@2HB
CONST	SEGMENT
?digits10@?$numeric_limits@D@std@@2HB DD 02H		; std::numeric_limits<char>::digits10
CONST	ENDS
;	COMDAT ?digits@?$numeric_limits@D@std@@2HB
CONST	SEGMENT
?digits@?$numeric_limits@D@std@@2HB DD 07H		; std::numeric_limits<char>::digits
CONST	ENDS
;	COMDAT ?is_signed@?$numeric_limits@D@std@@2_NB
CONST	SEGMENT
?is_signed@?$numeric_limits@D@std@@2_NB DB 01H		; std::numeric_limits<char>::is_signed
CONST	ENDS
;	COMDAT ?radix@_Num_float_base@std@@2HB
CONST	SEGMENT
?radix@_Num_float_base@std@@2HB DD 02H			; std::_Num_float_base::radix
CONST	ENDS
;	COMDAT ?round_style@_Num_float_base@std@@2W4float_round_style@2@B
CONST	SEGMENT
?round_style@_Num_float_base@std@@2W4float_round_style@2@B DD 01H ; std::_Num_float_base::round_style
CONST	ENDS
;	COMDAT ?traps@_Num_float_base@std@@2_NB
CONST	SEGMENT
?traps@_Num_float_base@std@@2_NB DB 00H			; std::_Num_float_base::traps
CONST	ENDS
;	COMDAT ?tinyness_before@_Num_float_base@std@@2_NB
CONST	SEGMENT
?tinyness_before@_Num_float_base@std@@2_NB DB 01H	; std::_Num_float_base::tinyness_before
CONST	ENDS
;	COMDAT ?is_specialized@_Num_float_base@std@@2_NB
CONST	SEGMENT
?is_specialized@_Num_float_base@std@@2_NB DB 01H	; std::_Num_float_base::is_specialized
CONST	ENDS
;	COMDAT ?is_signed@_Num_float_base@std@@2_NB
CONST	SEGMENT
?is_signed@_Num_float_base@std@@2_NB DB 01H		; std::_Num_float_base::is_signed
CONST	ENDS
;	COMDAT ?is_modulo@_Num_float_base@std@@2_NB
CONST	SEGMENT
?is_modulo@_Num_float_base@std@@2_NB DB 00H		; std::_Num_float_base::is_modulo
CONST	ENDS
;	COMDAT ?is_integer@_Num_float_base@std@@2_NB
CONST	SEGMENT
?is_integer@_Num_float_base@std@@2_NB DB 00H		; std::_Num_float_base::is_integer
CONST	ENDS
;	COMDAT ?is_iec559@_Num_float_base@std@@2_NB
CONST	SEGMENT
?is_iec559@_Num_float_base@std@@2_NB DB 01H		; std::_Num_float_base::is_iec559
CONST	ENDS
;	COMDAT ?is_exact@_Num_float_base@std@@2_NB
CONST	SEGMENT
?is_exact@_Num_float_base@std@@2_NB DB 00H		; std::_Num_float_base::is_exact
CONST	ENDS
;	COMDAT ?is_bounded@_Num_float_base@std@@2_NB
CONST	SEGMENT
?is_bounded@_Num_float_base@std@@2_NB DB 01H		; std::_Num_float_base::is_bounded
CONST	ENDS
;	COMDAT ?has_signaling_NaN@_Num_float_base@std@@2_NB
CONST	SEGMENT
?has_signaling_NaN@_Num_float_base@std@@2_NB DB 01H	; std::_Num_float_base::has_signaling_NaN
CONST	ENDS
;	COMDAT ?has_quiet_NaN@_Num_float_base@std@@2_NB
CONST	SEGMENT
?has_quiet_NaN@_Num_float_base@std@@2_NB DB 01H		; std::_Num_float_base::has_quiet_NaN
CONST	ENDS
;	COMDAT ?has_infinity@_Num_float_base@std@@2_NB
CONST	SEGMENT
?has_infinity@_Num_float_base@std@@2_NB DB 01H		; std::_Num_float_base::has_infinity
CONST	ENDS
;	COMDAT ?has_denorm_loss@_Num_float_base@std@@2_NB
CONST	SEGMENT
?has_denorm_loss@_Num_float_base@std@@2_NB DB 01H	; std::_Num_float_base::has_denorm_loss
CONST	ENDS
;	COMDAT ?has_denorm@_Num_float_base@std@@2W4float_denorm_style@2@B
CONST	SEGMENT
?has_denorm@_Num_float_base@std@@2W4float_denorm_style@2@B DD 01H ; std::_Num_float_base::has_denorm
CONST	ENDS
;	COMDAT ?radix@_Num_int_base@std@@2HB
CONST	SEGMENT
?radix@_Num_int_base@std@@2HB DD 02H			; std::_Num_int_base::radix
CONST	ENDS
;	COMDAT ?is_specialized@_Num_int_base@std@@2_NB
CONST	SEGMENT
?is_specialized@_Num_int_base@std@@2_NB DB 01H		; std::_Num_int_base::is_specialized
CONST	ENDS
;	COMDAT ?is_modulo@_Num_int_base@std@@2_NB
CONST	SEGMENT
?is_modulo@_Num_int_base@std@@2_NB DB 01H		; std::_Num_int_base::is_modulo
CONST	ENDS
;	COMDAT ?is_integer@_Num_int_base@std@@2_NB
CONST	SEGMENT
?is_integer@_Num_int_base@std@@2_NB DB 01H		; std::_Num_int_base::is_integer
CONST	ENDS
;	COMDAT ?is_exact@_Num_int_base@std@@2_NB
CONST	SEGMENT
?is_exact@_Num_int_base@std@@2_NB DB 01H		; std::_Num_int_base::is_exact
CONST	ENDS
;	COMDAT ?is_bounded@_Num_int_base@std@@2_NB
CONST	SEGMENT
?is_bounded@_Num_int_base@std@@2_NB DB 01H		; std::_Num_int_base::is_bounded
CONST	ENDS
_DATA	SEGMENT
?CPCallbackArray@@3PAUCPCallbackStruct@@A DD FLAT:?CBEECMPwrLight@@YAXPAX@Z ; CPCallbackArray
	DD	00H
	DD	00H
	DD	FLAT:?CBEECMFailLight@@YAXPAX@Z
	DD	00H
	DD	00H
	DD	FLAT:?CBEAuxWarnSearchL@@YAXPAX@Z
	DD	00H
	DD	00H
	DD	FLAT:?CBEAuxWarnActL@@YAXPAX@Z
	DD	00H
	DD	00H
	DD	FLAT:?CBEAuxWarnAltL@@YAXPAX@Z
	DD	00H
	DD	00H
	DD	FLAT:?CBEAuxWarnPwrL@@YAXPAX@Z
	DD	00H
	DD	00H
	DD	FLAT:?CBEAOAIndLight@@YAXPAX@Z
	DD	00H
	DD	00H
	DD	FLAT:?CBERefuelLight@@YAXPAX@Z
	DD	00H
	DD	00H
	DD	FLAT:?CBEDiscLight@@YAXPAX@Z
	DD	00H
	DD	00H
	DD	FLAT:?CBEAOA@@YAXPAX@Z
	DD	00H
	DD	FLAT:?CBDAOA@@YAXPAX@Z
	DD	FLAT:?CBEVVI@@YAXPAX@Z
	DD	00H
	DD	FLAT:?CBDVVI@@YAXPAX@Z
	DD	FLAT:?CBEFuelFlow@@YAXPAX@Z
	DD	00H
	DD	00H
	DD	FLAT:?CBEOilPressure@@YAXPAX@Z
	DD	00H
	DD	00H
	DD	FLAT:?CBENozPos@@YAXPAX@Z
	DD	00H
	DD	00H
	DD	FLAT:?CBERPM@@YAXPAX@Z
	DD	00H
	DD	00H
	DD	FLAT:?CBEAOAFastLight@@YAXPAX@Z
	DD	00H
	DD	00H
	DD	FLAT:?CBEUHFDigit@@YAXPAX@Z
	DD	00H
	DD	00H
	DD	FLAT:?CheckLandingGearHandle@@YAXPAX@Z
	DD	00H
	DD	00H
	DD	FLAT:?CBECheckMasterCaution@@YAXPAX@Z
	DD	00H
	DD	00H
	DD	FLAT:?CBExSpeedAlt@@YAXPAX@Z
	DD	00H
	DD	00H
	DD	FLAT:?CBELaunchL@@YAXPAX@Z
	DD	00H
	DD	00H
	DD	FLAT:?CBEHandoffL@@YAXPAX@Z
	DD	00H
	DD	00H
	DD	FLAT:?CBEPriModeL@@YAXPAX@Z
	DD	00H
	DD	00H
	DD	FLAT:?CBEUnknownL@@YAXPAX@Z
	DD	00H
	DD	00H
	DD	FLAT:?CBENavalL@@YAXPAX@Z
	DD	00H
	DD	00H
	DD	FLAT:?CBETgtSepL@@YAXPAX@Z
	DD	00H
	DD	00H
	DD	FLAT:?CBEJfsRun@@YAXPAX@Z
	DD	00H
	DD	00H
	DD	FLAT:?CBEEpuRun@@YAXPAX@Z
	DD	00H
	DD	00H
	DD	FLAT:?CBEConfigLight@@YAXPAX@Z
	DD	00H
	DD	00H
	DD	FLAT:?CBEInteriorLight@@YAXPAX@Z
	DD	00H
	DD	00H
	DD	FLAT:?CBEFlcsPMG@@YAXPAX@Z
	DD	00H
	DD	00H
	DD	FLAT:?CBEEpuGen@@YAXPAX@Z
	DD	00H
	DD	00H
	DD	FLAT:?CBEAltInd@@YAXPAX@Z
	DD	00H
	DD	00H
	DD	FLAT:?CBEAltDial@@YAXPAX@Z
	DD	00H
	DD	00H
	DD	FLAT:?CBEMachAsi@@YAXPAX@Z
	DD	00H
	DD	00H
	DD	FLAT:?CBEMach@@YAXPAX@Z
	DD	00H
	DD	00H
	DD	FLAT:?CBEEpuPmg@@YAXPAX@Z
	DD	00H
	DD	00H
	DD	FLAT:?CBEToFlcs@@YAXPAX@Z
	DD	00H
	DD	00H
	DD	FLAT:?CBEFlcsRly@@YAXPAX@Z
	DD	00H
	DD	00H
	DD	FLAT:?CBEBatteryFail@@YAXPAX@Z
	DD	00H
	DD	00H
	DD	FLAT:?CBEVRPM@@YAXPAX@Z
	DD	00H
	DD	00H
	DD	FLAT:?CBEVNozPos@@YAXPAX@Z
	DD	00H
	DD	00H
	DD	FLAT:?CBEVInletTemperature@@YAXPAX@Z
	DD	00H
	DD	00H
	DD	FLAT:?CBEVOilPressure@@YAXPAX@Z
	DD	00H
	DD	00H
	DD	FLAT:?CBEVAltDial@@YAXPAX@Z
	DD	00H
	DD	00H
	DD	FLAT:?CBEEpuAir@@YAXPAX@Z
	DD	00H
	DD	00H
	DD	FLAT:?CBEEpuHydrazine@@YAXPAX@Z
	DD	00H
	DD	00H
	DD	FLAT:?CBECautionElectric@@YAXPAX@Z
	DD	00H
	DD	00H
	DD	FLAT:?CBEInstrumentLight@@YAXPAX@Z
	DD	00H
	DD	00H
	DD	FLAT:?CBESpotLight@@YAXPAX@Z
	DD	00H
	DD	00H
	DD	FLAT:?CBETFRLight@@YAXPAX@Z
	DD	00H
	DD	00H
	DD	FLAT:?CBEGearHandleLight@@YAXPAX@Z
	DD	00H
	DD	00H
	DD	FLAT:?CBECkptWingLight@@YAXPAX@Z
	DD	00H
	DD	00H
	DD	FLAT:?CBECkptStrobeLight@@YAXPAX@Z
	DD	00H
	DD	00H
	DD	00H
	DD	00H
	DD	00H
	DD	FLAT:?CBEChaffCount@@YAXPAX@Z
	DD	00H
	DD	00H
	DD	FLAT:?CBEFlareCount@@YAXPAX@Z
	DD	00H
	DD	00H
	DD	00H
	DD	00H
	DD	00H
	DD	FLAT:?CBEThreatWarn7@@YAXPAX@Z
	DD	00H
	DD	00H
	DD	FLAT:?CBEThreatWarn8@@YAXPAX@Z
	DD	00H
	DD	00H
	DD	FLAT:?CBEThreatWarn9@@YAXPAX@Z
	DD	00H
	DD	00H
	DD	FLAT:?CBEThreatWarn10@@YAXPAX@Z
	DD	00H
	DD	00H
	DD	FLAT:?CBECaution1@@YAXPAX@Z
	DD	00H
	DD	00H
	DD	FLAT:?CBECaution2@@YAXPAX@Z
	DD	00H
	DD	00H
	DD	FLAT:?CBECaution3@@YAXPAX@Z
	DD	00H
	DD	00H
	DD	FLAT:?CBECaution4@@YAXPAX@Z
	DD	00H
	DD	00H
	DD	FLAT:?CBECaution5@@YAXPAX@Z
	DD	00H
	DD	00H
	DD	FLAT:?CBECaution6@@YAXPAX@Z
	DD	00H
	DD	00H
	DD	FLAT:?CBECaution7@@YAXPAX@Z
	DD	00H
	DD	00H
	DD	FLAT:?CBECaution8@@YAXPAX@Z
	DD	00H
	DD	00H
	DD	FLAT:?CBECaution9@@YAXPAX@Z
	DD	00H
	DD	00H
	DD	FLAT:?CBECaution10@@YAXPAX@Z
	DD	00H
	DD	00H
	DD	FLAT:?CBECaution11@@YAXPAX@Z
	DD	00H
	DD	00H
	DD	FLAT:?CBECaution12@@YAXPAX@Z
	DD	00H
	DD	00H
	DD	00H
	DD	00H
	DD	00H
	DD	00H
	DD	00H
	DD	00H
	DD	00H
	DD	00H
	DD	00H
	DD	FLAT:?CBEHSIRange@@YAXPAX@Z
	DD	00H
	DD	00H
	DD	FLAT:?CBEHSISelectedCourse@@YAXPAX@Z
	DD	00H
	DD	00H
	DD	00H
	DD	00H
	DD	00H
	DD	FLAT:?CBELEFPos@@YAXPAX@Z
	DD	00H
	DD	00H
	DD	FLAT:?CBEFlapPos@@YAXPAX@Z
	DD	00H
	DD	00H
	DD	FLAT:?CBESpeedBreaks@@YAXPAX@Z
	DD	00H
	DD	00H
	DD	FLAT:?CBECaution13@@YAXPAX@Z
	DD	00H
	DD	00H
	DD	FLAT:?CBECaution14@@YAXPAX@Z
	DD	00H
	DD	00H
	DD	FLAT:?CBECaution15@@YAXPAX@Z
	DD	00H
	DD	00H
	DD	FLAT:?CBECaution16@@YAXPAX@Z
	DD	00H
	DD	00H
	DD	FLAT:?CBECaution17@@YAXPAX@Z
	DD	00H
	DD	00H
	DD	FLAT:?CBECautionFwdFuel@@YAXPAX@Z
	DD	00H
	DD	00H
	DD	FLAT:?CBECautionAftFuel@@YAXPAX@Z
	DD	00H
	DD	00H
	DD	FLAT:?CBECautionSec@@YAXPAX@Z
	DD	00H
	DD	00H
	DD	FLAT:?CBECautionOxyLow@@YAXPAX@Z
	DD	00H
	DD	00H
	DD	FLAT:?CBECautionProbeHeat@@YAXPAX@Z
	DD	00H
	DD	00H
	DD	FLAT:?CBECautionSeatNotArmed@@YAXPAX@Z
	DD	00H
	DD	00H
	DD	FLAT:?CBECautionBUC@@YAXPAX@Z
	DD	00H
	DD	00H
	DD	FLAT:?CBECautionFuelOilHot@@YAXPAX@Z
	DD	00H
	DD	00H
	DD	FLAT:?CBECautionAntiSkid@@YAXPAX@Z
	DD	00H
	DD	00H
	DD	00H
	DD	00H
	DD	00H
	DD	FLAT:?CBEInletTemperature@@YAXPAX@Z
	DD	00H
	DD	00H
	DD	FLAT:?CBECautionMainGen@@YAXPAX@Z
	DD	00H
	DD	00H
	DD	FLAT:?CBECautionStbyGen@@YAXPAX@Z
	DD	00H
	DD	00H
	DD	FLAT:?CBETFFail@@YAXPAX@Z
	DD	00H
	DD	00H
	DD	FLAT:?CBEEwsPanelPower@@YAXPAX@Z
	DD	00H
	DD	00H
	DD	FLAT:?CBECanopyLight@@YAXPAX@Z
	DD	00H
	DD	00H
	DD	FLAT:?CBEADIOff@@YAXPAX@Z
	DD	00H
	DD	00H
	DD	FLAT:?CBEADIAux@@YAXPAX@Z
	DD	00H
	DD	00H
	DD	FLAT:?CBEHSIOff@@YAXPAX@Z
	DD	00H
	DD	00H
	DD	FLAT:?CBELEFLight@@YAXPAX@Z
	DD	00H
	DD	00H
	DD	FLAT:?CBECanopyDamage@@YAXPAX@Z
	DD	00H
	DD	00H
	DD	FLAT:?CBEBUPADIFlag@@YAXPAX@Z
	DD	00H
	DD	00H
	DD	FLAT:?CBEAVTRRunLight@@YAXPAX@Z
	DD	00H
	DD	00H
	DD	FLAT:?CBEGSFlag@@YAXPAX@Z
	DD	00H
	DD	00H
	DD	FLAT:?CBELOCFlag@@YAXPAX@Z
	DD	00H
	DD	00H
	DD	FLAT:?CBEVVIOFF@@YAXPAX@Z
	DD	00H
	DD	00H
	DD	FLAT:?CBECockpitFeatures@@YAXPAX@Z
	DD	00H
	DD	00H
	DD	00H
	DD	00H
	DD	00H
	DD	00H
	DD	00H
	DD	00H
	DD	00H
	DD	00H
	DD	00H
	DD	00H
	DD	00H
	DD	00H
	DD	FLAT:?CBEInternalFuel@@YAXPAX@Z
	DD	00H
	DD	00H
	DD	FLAT:?CBEExternalFuel@@YAXPAX@Z
	DD	00H
	DD	00H
	DD	FLAT:?CBETotalFuel@@YAXPAX@Z
	DD	00H
	DD	00H
	DD	FLAT:?CBEHydPressA@@YAXPAX@Z
	DD	00H
	DD	00H
	DD	FLAT:?CBEEPUFuel@@YAXPAX@Z
	DD	00H
	DD	00H
	DD	FLAT:?CBEClockHours@@YAXPAX@Z
	DD	00H
	DD	00H
	DD	FLAT:?CBEClockMinutes@@YAXPAX@Z
	DD	00H
	DD	00H
	DD	FLAT:?CBEClockSeconds@@YAXPAX@Z
	DD	00H
	DD	00H
	DD	FLAT:?CBEMagneticCompass@@YAXPAX@Z
	DD	00H
	DD	00H
	DD	FLAT:?CBEHydPressB@@YAXPAX@Z
	DD	00H
	DD	00H
	DD	FLAT:?CBEFrontLandGearLight@@YAXPAX@Z
	DD	00H
	DD	00H
	DD	FLAT:?CBELeftLandGearLight@@YAXPAX@Z
	DD	00H
	DD	00H
	DD	FLAT:?CBERightLandGearLight@@YAXPAX@Z
	DD	00H
	DD	00H
	DD	FLAT:?CBETrimNose@@YAXPAX@Z
	DD	00H
	DD	00H
	DD	FLAT:?CBETrimWing@@YAXPAX@Z
	DD	00H
	DD	00H
	DD	FLAT:?CBEVVDial@@YAXPAX@Z
	DD	00H
	DD	00H
	DD	FLAT:?CBEGDial@@YAXPAX@Z
	DD	00H
	DD	00H
	DD	FLAT:?CBERPMTape@@YAXPAX@Z
	DD	00H
	DD	00H
	DD	FLAT:?CBEWingSweepTape@@YAXPAX@Z
	DD	00H
	DD	00H
	DD	FLAT:?CBEWingSweepDial@@YAXPAX@Z
	DD	00H
	DD	00H
	DD	FLAT:?CBEAOADial@@YAXPAX@Z
	DD	00H
	DD	00H
	DD	FLAT:?CBETEFDial@@YAXPAX@Z
	DD	00H
	DD	00H
	DD	FLAT:?CBELEFDial@@YAXPAX@Z
	DD	00H
	DD	00H
	DD	FLAT:?CBETotalFuelDial@@YAXPAX@Z
	DD	00H
	DD	00H
	DD	FLAT:?CBETotalFuelTape@@YAXPAX@Z
	DD	00H
	DD	00H
	DD	FLAT:?CBEOilPressure2Dial@@YAXPAX@Z
	DD	00H
	DD	00H
	DD	FLAT:?CBERPM2Dial@@YAXPAX@Z
	DD	00H
	DD	00H
	DD	FLAT:?CBEInletTemperature2Dial@@YAXPAX@Z
	DD	00H
	DD	00H
	DD	FLAT:?CBENozPos2Dial@@YAXPAX@Z
	DD	00H
	DD	00H
	DD	FLAT:?CBERPM2Tape@@YAXPAX@Z
	DD	00H
	DD	00H
	DD	FLAT:?CBEEng2WarningLight@@YAXPAX@Z
	DD	00H
	DD	00H
	DD	FLAT:?CBELockLight@@YAXPAX@Z
	DD	00H
	DD	00H
	DD	FLAT:?CBEShootLight@@YAXPAX@Z
	DD	00H
	DD	00H
	DD	FLAT:?CBEFuelFlowLeftTape@@YAXPAX@Z
	DD	00H
	DD	00H
	DD	FLAT:?CBEFuelFlowRightTape@@YAXPAX@Z
	DD	00H
	DD	00H
	DD	FLAT:?CBENozPos2Dial@@YAXPAX@Z
	DD	00H
	DD	00H
	DD	FLAT:?CBERPM2Tape@@YAXPAX@Z
	DD	00H
	DD	00H
	DD	FLAT:?CBEEng2WarningLight@@YAXPAX@Z
	DD	00H
	DD	00H
	DD	FLAT:?CBELockLight@@YAXPAX@Z
	DD	00H
	DD	00H
	DD	FLAT:?CBEShootLight@@YAXPAX@Z
	DD	00H
	DD	00H
	DD	FLAT:?CBEFuelFlowLeftTape@@YAXPAX@Z
	DD	00H
	DD	00H
	DD	FLAT:?CBEFuelFlowRightTape@@YAXPAX@Z
	DD	00H
	DD	00H
	DD	FLAT:?CBEFTITLeftTape@@YAXPAX@Z
	DD	00H
	DD	00H
	DD	FLAT:?CBEFTITRightTape@@YAXPAX@Z
	DD	00H
	DD	00H
	DD	FLAT:?CBEFTITLeftDial@@YAXPAX@Z
	DD	00H
	DD	00H
	DD	FLAT:?CBEFTITRightDial@@YAXPAX@Z
	DD	00H
	DD	00H
	DD	FLAT:?CBERoundsRemaining@@YAXPAX@Z
	DD	00H
	DD	00H
	DD	FLAT:?CBERoundsRemainingDigits@@YAXPAX@Z
	DD	00H
	DD	00H
	DD	FLAT:?CBEMarkerBeacon@@YAXPAX@Z
	DD	00H
	DD	00H
	DD	00H
	DD	00H
	DD	00H
	DD	00H
	DD	00H
	DD	00H
	DD	00H
	DD	00H
	DD	00H
	DD	00H
	DD	00H
	DD	00H
	DD	00H
	DD	00H
	DD	00H
	DD	00H
	DD	00H
	DD	00H
	DD	00H
	DD	00H
	DD	00H
	DD	00H
	DD	00H
	DD	00H
	DD	00H
	DD	00H
	DD	00H
	DD	00H
	DD	00H
	DD	00H
?ButtonCallbackArray@@3PAUButtonCallbackStruct@@A DD FLAT:?CBExChaffDispense@@YAXPAXH@Z ; ButtonCallbackArray
	DD	FLAT:?CBEChaffDispense@@YAXPAXH@Z
	DD	FLAT:?CBExCourseSelect@@YAXPAXH@Z
	DD	FLAT:?CBECourseSelect@@YAXPAXH@Z
	DD	FLAT:?CBExHeadingSelect@@YAXPAXH@Z
	DD	FLAT:?CBEHeadingSelect@@YAXPAXH@Z
	DD	FLAT:?CBExFlareDispense@@YAXPAXH@Z
	DD	FLAT:?CBEFlareDispense@@YAXPAXH@Z
	DD	FLAT:?CBExStoresJettison@@YAXPAXH@Z
	DD	FLAT:?CBEStoresJettison@@YAXPAXH@Z
	DD	FLAT:?CBExAVTRControl@@YAXPAXH@Z
	DD	FLAT:?CBEAVTRControl@@YAXPAXH@Z
	DD	FLAT:?CBExModeSelect@@YAXPAXH@Z
	DD	FLAT:?CBEModeSelect@@YAXPAXH@Z
	DD	FLAT:?CBExMPO@@YAXPAXH@Z
	DD	FLAT:?CBEMPO@@YAXPAXH@Z
	DD	FLAT:?CBExHornSilencer@@YAXPAXH@Z
	DD	FLAT:?CBEHornSilencer@@YAXPAXH@Z
	DD	FLAT:?CBExMFDButton@@YAXPAXH@Z
	DD	FLAT:?CBEOSB_1L@@YAXPAXH@Z
	DD	FLAT:?CBExMFDButton@@YAXPAXH@Z
	DD	FLAT:?CBEOSB_2L@@YAXPAXH@Z
	DD	FLAT:?CBExMFDButton@@YAXPAXH@Z
	DD	FLAT:?CBEOSB_3L@@YAXPAXH@Z
	DD	FLAT:?CBExMFDButton@@YAXPAXH@Z
	DD	FLAT:?CBEOSB_4L@@YAXPAXH@Z
	DD	FLAT:?CBExMFDButton@@YAXPAXH@Z
	DD	FLAT:?CBEOSB_5L@@YAXPAXH@Z
	DD	FLAT:?CBExMFDButton@@YAXPAXH@Z
	DD	FLAT:?CBEOSB_6L@@YAXPAXH@Z
	DD	FLAT:?CBExMFDButton@@YAXPAXH@Z
	DD	FLAT:?CBEOSB_7L@@YAXPAXH@Z
	DD	FLAT:?CBExMFDButton@@YAXPAXH@Z
	DD	FLAT:?CBEOSB_8L@@YAXPAXH@Z
	DD	FLAT:?CBExMFDButton@@YAXPAXH@Z
	DD	FLAT:?CBEOSB_9L@@YAXPAXH@Z
	DD	FLAT:?CBExMFDButton@@YAXPAXH@Z
	DD	FLAT:?CBEOSB_10L@@YAXPAXH@Z
	DD	FLAT:?CBExMFDButton@@YAXPAXH@Z
	DD	FLAT:?CBEOSB_11L@@YAXPAXH@Z
	DD	FLAT:?CBExMFDButton@@YAXPAXH@Z
	DD	FLAT:?CBEOSB_12L@@YAXPAXH@Z
	DD	FLAT:?CBExMFDButton@@YAXPAXH@Z
	DD	FLAT:?CBEOSB_13L@@YAXPAXH@Z
	DD	FLAT:?CBExMFDButton@@YAXPAXH@Z
	DD	FLAT:?CBEOSB_14L@@YAXPAXH@Z
	DD	FLAT:?CBExMFDButton@@YAXPAXH@Z
	DD	FLAT:?CBEOSB_15L@@YAXPAXH@Z
	DD	FLAT:?CBExMFDButton@@YAXPAXH@Z
	DD	FLAT:?CBEOSB_16L@@YAXPAXH@Z
	DD	FLAT:?CBExMFDButton@@YAXPAXH@Z
	DD	FLAT:?CBEOSB_17L@@YAXPAXH@Z
	DD	FLAT:?CBExMFDButton@@YAXPAXH@Z
	DD	FLAT:?CBEOSB_18L@@YAXPAXH@Z
	DD	FLAT:?CBExMFDButton@@YAXPAXH@Z
	DD	FLAT:?CBEOSB_19L@@YAXPAXH@Z
	DD	FLAT:?CBExMFDButton@@YAXPAXH@Z
	DD	FLAT:?CBEOSB_20L@@YAXPAXH@Z
	DD	FLAT:?CBExMFDButton@@YAXPAXH@Z
	DD	FLAT:?CBEOSB_1R@@YAXPAXH@Z
	DD	FLAT:?CBExMFDButton@@YAXPAXH@Z
	DD	FLAT:?CBEOSB_2R@@YAXPAXH@Z
	DD	FLAT:?CBExMFDButton@@YAXPAXH@Z
	DD	FLAT:?CBEOSB_3R@@YAXPAXH@Z
	DD	FLAT:?CBExMFDButton@@YAXPAXH@Z
	DD	FLAT:?CBEOSB_4R@@YAXPAXH@Z
	DD	FLAT:?CBExMFDButton@@YAXPAXH@Z
	DD	FLAT:?CBEOSB_5R@@YAXPAXH@Z
	DD	FLAT:?CBExMFDButton@@YAXPAXH@Z
	DD	FLAT:?CBEOSB_6R@@YAXPAXH@Z
	DD	FLAT:?CBExMFDButton@@YAXPAXH@Z
	DD	FLAT:?CBEOSB_7R@@YAXPAXH@Z
	DD	FLAT:?CBExMFDButton@@YAXPAXH@Z
	DD	FLAT:?CBEOSB_8R@@YAXPAXH@Z
	DD	FLAT:?CBExMFDButton@@YAXPAXH@Z
	DD	FLAT:?CBEOSB_9R@@YAXPAXH@Z
	DD	FLAT:?CBExMFDButton@@YAXPAXH@Z
	DD	FLAT:?CBEOSB_10R@@YAXPAXH@Z
	DD	FLAT:?CBExMFDButton@@YAXPAXH@Z
	DD	FLAT:?CBEOSB_11R@@YAXPAXH@Z
	DD	FLAT:?CBExMFDButton@@YAXPAXH@Z
	DD	FLAT:?CBEOSB_12R@@YAXPAXH@Z
	DD	FLAT:?CBExMFDButton@@YAXPAXH@Z
	DD	FLAT:?CBEOSB_13R@@YAXPAXH@Z
	DD	FLAT:?CBExMFDButton@@YAXPAXH@Z
	DD	FLAT:?CBEOSB_14R@@YAXPAXH@Z
	DD	FLAT:?CBExMFDButton@@YAXPAXH@Z
	DD	FLAT:?CBEOSB_15R@@YAXPAXH@Z
	DD	FLAT:?CBExMFDButton@@YAXPAXH@Z
	DD	FLAT:?CBEOSB_16R@@YAXPAXH@Z
	DD	FLAT:?CBExMFDButton@@YAXPAXH@Z
	DD	FLAT:?CBEOSB_17R@@YAXPAXH@Z
	DD	FLAT:?CBExMFDButton@@YAXPAXH@Z
	DD	FLAT:?CBEOSB_18R@@YAXPAXH@Z
	DD	FLAT:?CBExMFDButton@@YAXPAXH@Z
	DD	FLAT:?CBEOSB_19R@@YAXPAXH@Z
	DD	FLAT:?CBExMFDButton@@YAXPAXH@Z
	DD	FLAT:?CBEOSB_20R@@YAXPAXH@Z
	DD	FLAT:?CBExICPSecondaryExclusive@@YAXPAXH@Z
	DD	FLAT:?CBEICPTILS@@YAXPAXH@Z
	DD	FLAT:?CBExICPSecondaryExclusive@@YAXPAXH@Z
	DD	FLAT:?CBEICPALOW@@YAXPAXH@Z
	DD	FLAT:?CBExICPSecondaryExclusive@@YAXPAXH@Z
	DD	FLAT:?CBEICPFAck@@YAXPAXH@Z
	DD	FLAT:?CBExICPPrevious@@YAXPAXH@Z
	DD	FLAT:?CBEICPPrevious@@YAXPAXH@Z
	DD	FLAT:?CBExICPNext@@YAXPAXH@Z
	DD	FLAT:?CBEICPNext@@YAXPAXH@Z
	DD	FLAT:?CBExICPSecondaryExclusive@@YAXPAXH@Z
	DD	FLAT:?CBEICPLink@@YAXPAXH@Z
	DD	FLAT:?CBExICPSecondaryExclusive@@YAXPAXH@Z
	DD	FLAT:?CBEICPCrus@@YAXPAXH@Z
	DD	FLAT:?CBExICPSecondaryExclusive@@YAXPAXH@Z
	DD	FLAT:?CBEICPStpt@@YAXPAXH@Z
	DD	FLAT:?CBExICPSecondaryExclusive@@YAXPAXH@Z
	DD	FLAT:?CBEICPMark@@YAXPAXH@Z
	DD	FLAT:?CBExICPEnter@@YAXPAXH@Z
	DD	FLAT:?CBEICPEnter@@YAXPAXH@Z
	DD	FLAT:?CBExICPTertiaryExclusive@@YAXPAXH@Z
	DD	FLAT:?CBEICPCom1@@YAXPAXH@Z
	DD	FLAT:?CBExICPPrimaryExclusive@@YAXPAXH@Z
	DD	FLAT:?CBEICPNav@@YAXPAXH@Z
	DD	FLAT:?CBExICPPrimaryExclusive@@YAXPAXH@Z
	DD	FLAT:?CBEICPAA@@YAXPAXH@Z
	DD	FLAT:?CBExICPPrimaryExclusive@@YAXPAXH@Z
	DD	FLAT:?CBEICPAG@@YAXPAXH@Z
	DD	FLAT:?CBExHUDScales@@YAXPAXH@Z
	DD	FLAT:?CBEHUDScales@@YAXPAXH@Z
	DD	FLAT:?CBExHUDFPM@@YAXPAXH@Z
	DD	FLAT:?CBEHUDFPM@@YAXPAXH@Z
	DD	FLAT:?CBExHUDDED@@YAXPAXH@Z
	DD	FLAT:?CBEHUDDED@@YAXPAXH@Z
	DD	FLAT:?CBExHUDVelocity@@YAXPAXH@Z
	DD	FLAT:?CBEHUDVelocity@@YAXPAXH@Z
	DD	FLAT:?CBExHUDRadar@@YAXPAXH@Z
	DD	FLAT:?CBEHUDRadar@@YAXPAXH@Z
	DD	FLAT:?CBExHUDBrightness@@YAXPAXH@Z
	DD	FLAT:?CBEHUDBrightness@@YAXPAXH@Z
	DD	FLAT:?CBExECMSwitch@@YAXPAXH@Z
	DD	FLAT:?CBEECMSwitch@@YAXPAXH@Z
	DD	FLAT:?CBExUHFSwitch@@YAXPAXH@Z
	DD	FLAT:?CBEUHFSwitch@@YAXPAXH@Z
	DD	FLAT:?CBExEject@@YAXPAXH@Z
	DD	FLAT:?CBEEject@@YAXPAXH@Z
	DD	00H
	DD	FLAT:?CBELandGearSelect@@YAXPAXH@Z
	DD	FLAT:?CBExAutoPilot@@YAXPAXH@Z
	DD	FLAT:?CBEAutoPilot@@YAXPAXH@Z
	DD	00H
	DD	FLAT:?CBEMasterCaution@@YAXPAXH@Z
	DD	FLAT:?CBExAuxCommLeft@@YAXPAXH@Z
	DD	FLAT:?CBEAuxCommLeft@@YAXPAXH@Z
	DD	FLAT:?CBExAuxCommCenter@@YAXPAXH@Z
	DD	FLAT:?CBEAuxCommCenter@@YAXPAXH@Z
	DD	FLAT:?CBExAuxCommRight@@YAXPAXH@Z
	DD	FLAT:?CBEAuxCommRight@@YAXPAXH@Z
	DD	FLAT:?CBExAuxCommBand@@YAXPAXH@Z
	DD	FLAT:?CBEAuxCommBand@@YAXPAXH@Z
	DD	FLAT:?CBExAuxCommMaster@@YAXPAXH@Z
	DD	FLAT:?CBEAuxCommMaster@@YAXPAXH@Z
	DD	FLAT:?CBExAuxCommAATR@@YAXPAXH@Z
	DD	FLAT:?CBEAuxCommAATR@@YAXPAXH@Z
	DD	FLAT:?CBExUHFMaster@@YAXPAXH@Z
	DD	FLAT:?CBEUHFMaster@@YAXPAXH@Z
	DD	FLAT:?CBExExteriorLite@@YAXPAXH@Z
	DD	FLAT:?CBEExteriorLite@@YAXPAXH@Z
	DD	00H
	DD	FLAT:?CBEHandoffB@@YAXPAXH@Z
	DD	00H
	DD	FLAT:?CBEPriModeB@@YAXPAXH@Z
	DD	00H
	DD	FLAT:?CBEUnknownB@@YAXPAXH@Z
	DD	00H
	DD	FLAT:?CBENavalB@@YAXPAXH@Z
	DD	00H
	DD	FLAT:?CBETgtSepB@@YAXPAXH@Z
	DD	FLAT:?CBExCatIII@@YAXPAXH@Z
	DD	FLAT:?CBECatIII@@YAXPAXH@Z
	DD	FLAT:?CBExAMChaffFlare@@YAXPAXH@Z
	DD	FLAT:?CBEAMChaffFlare@@YAXPAXH@Z
	DD	FLAT:?CBExICPTertiaryExclusive@@YAXPAXH@Z
	DD	FLAT:?CBEICPCom2@@YAXPAXH@Z
	DD	00H
	DD	FLAT:?CBEKneeboardMap@@YAXPAXH@Z
	DD	00H
	DD	FLAT:?CBEKneeboardBrief@@YAXPAXH@Z
	DD	00H
	DD	FLAT:?CBEAuxWarnSearchB@@YAXPAXH@Z
	DD	FLAT:?CBExHUDDriftCO@@YAXPAXH@Z
	DD	FLAT:?CBEHUDDriftCO@@YAXPAXH@Z
	DD	00H
	DD	FLAT:?CBEAuxWarnAltB@@YAXPAXH@Z
	DD	00H
	DD	FLAT:?CBEAuxWarnPwrB@@YAXPAXH@Z
	DD	FLAT:?CBExICPTertiaryExclusive@@YAXPAXH@Z
	DD	FLAT:?CBEICPLIST@@YAXPAXH@Z
	DD	FLAT:?CBExICPTertiaryExclusive@@YAXPAXH@Z
	DD	FLAT:?CBEICPIFF@@YAXPAXH@Z
	DD	FLAT:?CBExICPSecondaryExclusive@@YAXPAXH@Z
	DD	FLAT:?CBETHREEButton@@YAXPAXH@Z
	DD	FLAT:?CBExICPSecondaryExclusive@@YAXPAXH@Z
	DD	FLAT:?CBESIXButton@@YAXPAXH@Z
	DD	FLAT:?CBExICPSecondaryExclusive@@YAXPAXH@Z
	DD	FLAT:?CBEEIGHTButton@@YAXPAXH@Z
	DD	FLAT:?CBExAltLGear@@YAXPAXH@Z
	DD	FLAT:?CBEAltLGear@@YAXPAXH@Z
	DD	FLAT:?CBExJfs@@YAXPAXH@Z
	DD	FLAT:?CBEJfs@@YAXPAXH@Z
	DD	FLAT:?CBExEpu@@YAXPAXH@Z
	DD	FLAT:?CBEEpu@@YAXPAXH@Z
	DD	FLAT:?CBExMasterArm@@YAXPAXH@Z
	DD	FLAT:?CBEMasterArm@@YAXPAXH@Z
	DD	FLAT:?CBExMFDButton@@YAXPAXH@Z
	DD	FLAT:?CBERightGainUp@@YAXPAXH@Z
	DD	FLAT:?CBExMFDButton@@YAXPAXH@Z
	DD	FLAT:?CBERightGainDown@@YAXPAXH@Z
	DD	FLAT:?CBExMFDButton@@YAXPAXH@Z
	DD	FLAT:?CBELeftGainUp@@YAXPAXH@Z
	DD	FLAT:?CBExMFDButton@@YAXPAXH@Z
	DD	FLAT:?CBELeftGainDown@@YAXPAXH@Z
	DD	FLAT:?CBExHUDColor@@YAXPAXH@Z
	DD	FLAT:?CBEHUDColor@@YAXPAXH@Z
	DD	FLAT:?CBExICPSecondaryExclusive@@YAXPAXH@Z
	DD	FLAT:?CBEZEROButton@@YAXPAXH@Z
	DD	FLAT:?CBExICPTertiaryExclusive@@YAXPAXH@Z
	DD	FLAT:?CBEResetDEDPage@@YAXPAXH@Z
	DD	FLAT:?CBExICPTertiaryExclusive@@YAXPAXH@Z
	DD	FLAT:?CBEICPDEDUP@@YAXPAXH@Z
	DD	FLAT:?CBExICPTertiaryExclusive@@YAXPAXH@Z
	DD	FLAT:?CBEICPDEDDOWN@@YAXPAXH@Z
	DD	FLAT:?CBExICPTertiaryExclusive@@YAXPAXH@Z
	DD	FLAT:?CBEICPCLEAR@@YAXPAXH@Z
	DD	FLAT:?CBExRALTSwitch@@YAXPAXH@Z
	DD	FLAT:?CBERALTSwitch@@YAXPAXH@Z
	DD	FLAT:?CBExRALTSwitch@@YAXPAXH@Z
	DD	FLAT:?CBERALTSTDBY@@YAXPAXH@Z
	DD	FLAT:?CBExRALTSwitch@@YAXPAXH@Z
	DD	FLAT:?CBERALTON@@YAXPAXH@Z
	DD	FLAT:?CBExRALTSwitch@@YAXPAXH@Z
	DD	FLAT:?CBERALTOFF@@YAXPAXH@Z
	DD	FLAT:?CBExICPTertiaryExclusive@@YAXPAXH@Z
	DD	FLAT:?CBEICPDEDSEQ@@YAXPAXH@Z
	DD	FLAT:?CBExSmsPower@@YAXPAXH@Z
	DD	FLAT:?CBESmsPower@@YAXPAXH@Z
	DD	FLAT:?CBExFCCPower@@YAXPAXH@Z
	DD	FLAT:?CBEFCCPower@@YAXPAXH@Z
	DD	FLAT:?CBExMFDPower@@YAXPAXH@Z
	DD	FLAT:?CBEMFDPower@@YAXPAXH@Z
	DD	FLAT:?CBExUFCPower@@YAXPAXH@Z
	DD	FLAT:?CBEUFCPower@@YAXPAXH@Z
	DD	FLAT:?CBExGPSPower@@YAXPAXH@Z
	DD	FLAT:?CBEGPSPower@@YAXPAXH@Z
	DD	FLAT:?CBExDLPower@@YAXPAXH@Z
	DD	FLAT:?CBEDLPower@@YAXPAXH@Z
	DD	FLAT:?CBExMAPPower@@YAXPAXH@Z
	DD	FLAT:?CBEMAPPower@@YAXPAXH@Z
	DD	FLAT:?CBExTISLPower@@YAXPAXH@Z
	DD	FLAT:?CBETISLPower@@YAXPAXH@Z
	DD	FLAT:?CBExLEFTHPTPower@@YAXPAXH@Z
	DD	FLAT:?CBELEFTHPTPower@@YAXPAXH@Z
	DD	FLAT:?CBExRIGHTHPTPower@@YAXPAXH@Z
	DD	FLAT:?CBERIGHTHPTPower@@YAXPAXH@Z
	DD	FLAT:?CBExHUDPower@@YAXPAXH@Z
	DD	FLAT:?CBEHUDPower@@YAXPAXH@Z
	DD	FLAT:?CBExFCRPower@@YAXPAXH@Z
	DD	FLAT:?CBEFCRPower@@YAXPAXH@Z
	DD	FLAT:?CBExICPSecondaryExclusive@@YAXPAXH@Z
	DD	FLAT:?CBENINEButton@@YAXPAXH@Z
	DD	FLAT:?CBExFuelDisplay@@YAXPAXH@Z
	DD	FLAT:?CBEFuelSwitch@@YAXPAXH@Z
	DD	FLAT:?CBExFuelPump@@YAXPAXH@Z
	DD	FLAT:?CBEFuelPump@@YAXPAXH@Z
	DD	FLAT:?CBExFuelCock@@YAXPAXH@Z
	DD	FLAT:?CBEFuelCock@@YAXPAXH@Z
	DD	FLAT:?CBExFuelExtTrans@@YAXPAXH@Z
	DD	FLAT:?CBEFuelExtTrans@@YAXPAXH@Z
	DD	FLAT:?CBExAirSource@@YAXPAXH@Z
	DD	FLAT:?CBEAirSource@@YAXPAXH@Z
	DD	FLAT:?CBExAltLGear@@YAXPAXH@Z
	DD	FLAT:?CBEAltLGearReset@@YAXPAXH@Z
	DD	FLAT:?CBExLandingLightToggle@@YAXPAXH@Z
	DD	FLAT:?CBELandingLightToggle@@YAXPAXH@Z
	DD	FLAT:?CBExParkingBrakeToggle@@YAXPAXH@Z
	DD	FLAT:?CBEParkingBrakeToggle@@YAXPAXH@Z
	DD	FLAT:?CBExLaserArmToggle@@YAXPAXH@Z
	DD	FLAT:?CBELaserArmToggle@@YAXPAXH@Z
	DD	FLAT:?CBExFuelDoorToggle@@YAXPAXH@Z
	DD	FLAT:?CBEFuelDoorToggle@@YAXPAXH@Z
	DD	00H
	DD	FLAT:?CBEKneeboardStpt@@YAXPAXH@Z
	DD	00H
	DD	00H
	DD	FLAT:?CBExLeftAPSwitch@@YAXPAXH@Z
	DD	FLAT:?CBELeftAPSwitch@@YAXPAXH@Z
	DD	00H
	DD	00H
	DD	FLAT:?CBExRightAPSwitch@@YAXPAXH@Z
	DD	FLAT:?CBERightAPSwitch@@YAXPAXH@Z
	DD	00H
	DD	FLAT:?CBEAPOverride@@YAXPAXH@Z
	DD	FLAT:?CBExWarnReset@@YAXPAXH@Z
	DD	FLAT:?CBEWarnReset@@YAXPAXH@Z
	DD	FLAT:?CBExReticleSwitch@@YAXPAXH@Z
	DD	FLAT:?CBEReticleSwitch@@YAXPAXH@Z
	DD	FLAT:?CBExInteriorLightSwitch@@YAXPAXH@Z
	DD	FLAT:?CBEInteriorLightSwitch@@YAXPAXH@Z
	DD	FLAT:?CBExSeatArmSwitch@@YAXPAXH@Z
	DD	FLAT:?CBESeatArmSwitch@@YAXPAXH@Z
	DD	FLAT:?CBExEWSRWRPowerSwitch@@YAXPAXH@Z
	DD	FLAT:?CBEEWSRWRPower@@YAXPAXH@Z
	DD	FLAT:?CBExEWSJammerPowerSwitch@@YAXPAXH@Z
	DD	FLAT:?CBEEWSJammerPower@@YAXPAXH@Z
	DD	FLAT:?CBExEWSChaffPowerSwitch@@YAXPAXH@Z
	DD	FLAT:?CBEEWSChaffPower@@YAXPAXH@Z
	DD	FLAT:?CBExEWSFlarePowerSwitch@@YAXPAXH@Z
	DD	FLAT:?CBEEWSFlarePower@@YAXPAXH@Z
	DD	FLAT:?CBExMainPower@@YAXPAXH@Z
	DD	FLAT:?CBEMainPower@@YAXPAXH@Z
	DD	FLAT:?CBExEWSPGMButton@@YAXPAXH@Z
	DD	FLAT:?CBEEWSPGMButton@@YAXPAXH@Z
	DD	FLAT:?CBExHookToggle@@YAXPAXH@Z
	DD	FLAT:?CBEHookToggle@@YAXPAXH@Z
	DD	FLAT:?CBExNwsToggle@@YAXPAXH@Z
	DD	FLAT:?CBENwsToggle@@YAXPAXH@Z
	DD	FLAT:?CBExIdleDetent@@YAXPAXH@Z
	DD	FLAT:?CBEIdleDetent@@YAXPAXH@Z
	DD	FLAT:?CBExInhibitVMS@@YAXPAXH@Z
	DD	FLAT:?CBEInhibitVMS@@YAXPAXH@Z
	DD	FLAT:?CBExRFSwitch@@YAXPAXH@Z
	DD	FLAT:?CBERFSwitch@@YAXPAXH@Z
	DD	FLAT:?CBExInstrumentLightSwitch@@YAXPAXH@Z
	DD	FLAT:?CBEInstrumentLightSwitch@@YAXPAXH@Z
	DD	FLAT:?CBExSpotLightSwitch@@YAXPAXH@Z
	DD	FLAT:?CBESpotLightSwitch@@YAXPAXH@Z
	DD	FLAT:?CBExEWSProgButton@@YAXPAXH@Z
	DD	FLAT:?CBEEWSProgButton@@YAXPAXH@Z
	DD	FLAT:?CBExGearHandle@@YAXPAXH@Z
	DD	FLAT:?CBEGearHandle@@YAXPAXH@Z
	DD	00H
	DD	FLAT:?CBEPinkySwitch@@YAXPAXH@Z
	DD	FLAT:?CBExGndJettEnable@@YAXPAXH@Z
	DD	FLAT:?CBEGndJettEnable@@YAXPAXH@Z
	DD	FLAT:?CBExExtlPower@@YAXPAXH@Z
	DD	FLAT:?CBEExtlPower@@YAXPAXH@Z
	DD	FLAT:?CBExExtlAntiColl@@YAXPAXH@Z
	DD	FLAT:?CBEExtlAntiColl@@YAXPAXH@Z
	DD	FLAT:?CBExExtlSteady@@YAXPAXH@Z
	DD	FLAT:?CBEExtlSteady@@YAXPAXH@Z
	DD	FLAT:?CBExExtlWing@@YAXPAXH@Z
	DD	FLAT:?CBEExtlWing@@YAXPAXH@Z
	DD	FLAT:?CBExAVTRSwitch@@YAXPAXH@Z
	DD	FLAT:?CBEAVTRSwitch@@YAXPAXH@Z
	DD	FLAT:?CBExIFFPower@@YAXPAXH@Z
	DD	FLAT:?CBEIFFPower@@YAXPAXH@Z
	DD	FLAT:?CBExINSSwitch@@YAXPAXH@Z
	DD	FLAT:?CBEINSSwitch@@YAXPAXH@Z
	DD	FLAT:?CBExLEFLockSwitch@@YAXPAXH@Z
	DD	FLAT:?CBELEFLockSwitch@@YAXPAXH@Z
	DD	FLAT:?CBExDigitalBUP@@YAXPAXH@Z
	DD	FLAT:?CBEDigitalBUP@@YAXPAXH@Z
	DD	FLAT:?CBExAltFlaps@@YAXPAXH@Z
	DD	FLAT:?CBEAltFlaps@@YAXPAXH@Z
	DD	FLAT:?CBExManualFlyup@@YAXPAXH@Z
	DD	FLAT:?CBEManualFlyup@@YAXPAXH@Z
	DD	FLAT:?CBExFLCSReset@@YAXPAXH@Z
	DD	FLAT:?CBEFLCSReset@@YAXPAXH@Z
	DD	FLAT:?CBExFLTBIT@@YAXPAXH@Z
	DD	FLAT:?CBEFLTBIT@@YAXPAXH@Z
	DD	FLAT:?CBExOBOGSBit@@YAXPAXH@Z
	DD	FLAT:?CBEOBOGSBit@@YAXPAXH@Z
	DD	FLAT:?CBExMalIndLights@@YAXPAXH@Z
	DD	FLAT:?CBEMalIndLights@@YAXPAXH@Z
	DD	FLAT:?CBExProbeHeat@@YAXPAXH@Z
	DD	FLAT:?CBEProbeHeat@@YAXPAXH@Z
	DD	FLAT:?CBExEPUGEN@@YAXPAXH@Z
	DD	FLAT:?CBEEPUGEN@@YAXPAXH@Z
	DD	FLAT:?CBExTestSwitch@@YAXPAXH@Z
	DD	FLAT:?CBETestSwitch@@YAXPAXH@Z
	DD	FLAT:?CBExOverHeat@@YAXPAXH@Z
	DD	FLAT:?CBEOverHeat@@YAXPAXH@Z
	DD	FLAT:?CBExTrimAPDisc@@YAXPAXH@Z
	DD	FLAT:?CBETrimAPDisc@@YAXPAXH@Z
	DD	FLAT:?CBExMaxPower@@YAXPAXH@Z
	DD	FLAT:?CBEMaxPower@@YAXPAXH@Z
	DD	FLAT:?CBExABReset@@YAXPAXH@Z
	DD	FLAT:?CBEABReset@@YAXPAXH@Z
	DD	00H
	DD	FLAT:?CBETrimNose@@YAXPAXH@Z
	DD	FLAT:?CBExTrimYaw@@YAXPAXH@Z
	DD	FLAT:?CBETrimYaw@@YAXPAXH@Z
	DD	00H
	DD	FLAT:?CBETrimRoll@@YAXPAXH@Z
	DD	FLAT:?CBExMissileVol@@YAXPAXH@Z
	DD	FLAT:?CBEMissileVol@@YAXPAXH@Z
	DD	FLAT:?CBExThreatVol@@YAXPAXH@Z
	DD	FLAT:?CBEThreatVol@@YAXPAXH@Z
	DD	FLAT:?CBExDeprRet@@YAXPAXH@Z
	DD	FLAT:?CBEDeprRet@@YAXPAXH@Z
	DD	00H
	DD	FLAT:?CBETFRButton@@YAXPAXH@Z
	DD	00H
	DD	FLAT:?CBEFlap@@YAXPAXH@Z
	DD	00H
	DD	FLAT:?CBELef@@YAXPAXH@Z
	DD	FLAT:?CBExDragChute@@YAXPAXH@Z
	DD	FLAT:?CBEDragChute@@YAXPAXH@Z
	DD	FLAT:?CBExCanopy@@YAXPAXH@Z
	DD	FLAT:?CBECanopy@@YAXPAXH@Z
	DD	FLAT:?CBExComm1Vol@@YAXPAXH@Z
	DD	FLAT:?CBEComm1Vol@@YAXPAXH@Z
	DD	FLAT:?CBExComm2Vol@@YAXPAXH@Z
	DD	FLAT:?CBEComm2Vol@@YAXPAXH@Z
	DD	FLAT:?CBExSymWheel@@YAXPAXH@Z
	DD	FLAT:?CBESymWheel@@YAXPAXH@Z
	DD	00H
	DD	00H
	DD	FLAT:?CBExMFDButton@@YAXPAXH@Z
	DD	FLAT:?CBEOSB_1T@@YAXPAXH@Z
	DD	FLAT:?CBExMFDButton@@YAXPAXH@Z
	DD	FLAT:?CBEOSB_2T@@YAXPAXH@Z
	DD	FLAT:?CBExMFDButton@@YAXPAXH@Z
	DD	FLAT:?CBEOSB_3T@@YAXPAXH@Z
	DD	FLAT:?CBExMFDButton@@YAXPAXH@Z
	DD	FLAT:?CBEOSB_4T@@YAXPAXH@Z
	DD	FLAT:?CBExMFDButton@@YAXPAXH@Z
	DD	FLAT:?CBEOSB_5T@@YAXPAXH@Z
	DD	FLAT:?CBExMFDButton@@YAXPAXH@Z
	DD	FLAT:?CBEOSB_6T@@YAXPAXH@Z
	DD	FLAT:?CBExMFDButton@@YAXPAXH@Z
	DD	FLAT:?CBEOSB_7T@@YAXPAXH@Z
	DD	FLAT:?CBExMFDButton@@YAXPAXH@Z
	DD	FLAT:?CBEOSB_8T@@YAXPAXH@Z
	DD	FLAT:?CBExMFDButton@@YAXPAXH@Z
	DD	FLAT:?CBEOSB_9T@@YAXPAXH@Z
	DD	FLAT:?CBExMFDButton@@YAXPAXH@Z
	DD	FLAT:?CBEOSB_10T@@YAXPAXH@Z
	DD	FLAT:?CBExMFDButton@@YAXPAXH@Z
	DD	FLAT:?CBEOSB_11T@@YAXPAXH@Z
	DD	FLAT:?CBExMFDButton@@YAXPAXH@Z
	DD	FLAT:?CBEOSB_12T@@YAXPAXH@Z
	DD	FLAT:?CBExMFDButton@@YAXPAXH@Z
	DD	FLAT:?CBEOSB_13T@@YAXPAXH@Z
	DD	FLAT:?CBExMFDButton@@YAXPAXH@Z
	DD	FLAT:?CBEOSB_14T@@YAXPAXH@Z
	DD	FLAT:?CBExMFDButton@@YAXPAXH@Z
	DD	FLAT:?CBEOSB_15T@@YAXPAXH@Z
	DD	FLAT:?CBExMFDButton@@YAXPAXH@Z
	DD	FLAT:?CBEOSB_16T@@YAXPAXH@Z
	DD	FLAT:?CBExMFDButton@@YAXPAXH@Z
	DD	FLAT:?CBEOSB_17T@@YAXPAXH@Z
	DD	FLAT:?CBExMFDButton@@YAXPAXH@Z
	DD	FLAT:?CBEOSB_18T@@YAXPAXH@Z
	DD	FLAT:?CBExMFDButton@@YAXPAXH@Z
	DD	FLAT:?CBEOSB_19T@@YAXPAXH@Z
	DD	FLAT:?CBExMFDButton@@YAXPAXH@Z
	DD	FLAT:?CBEOSB_20T@@YAXPAXH@Z
	DD	FLAT:?CBExMFDButton@@YAXPAXH@Z
	DD	FLAT:?CBEOSB_1F@@YAXPAXH@Z
	DD	FLAT:?CBExMFDButton@@YAXPAXH@Z
	DD	FLAT:?CBEOSB_2F@@YAXPAXH@Z
	DD	FLAT:?CBExMFDButton@@YAXPAXH@Z
	DD	FLAT:?CBEOSB_3F@@YAXPAXH@Z
	DD	FLAT:?CBExMFDButton@@YAXPAXH@Z
	DD	FLAT:?CBEOSB_4F@@YAXPAXH@Z
	DD	FLAT:?CBExMFDButton@@YAXPAXH@Z
	DD	FLAT:?CBEOSB_5F@@YAXPAXH@Z
	DD	FLAT:?CBExMFDButton@@YAXPAXH@Z
	DD	FLAT:?CBEOSB_6F@@YAXPAXH@Z
	DD	FLAT:?CBExMFDButton@@YAXPAXH@Z
	DD	FLAT:?CBEOSB_7F@@YAXPAXH@Z
	DD	FLAT:?CBExMFDButton@@YAXPAXH@Z
	DD	FLAT:?CBEOSB_8F@@YAXPAXH@Z
	DD	FLAT:?CBExMFDButton@@YAXPAXH@Z
	DD	FLAT:?CBEOSB_9F@@YAXPAXH@Z
	DD	FLAT:?CBExMFDButton@@YAXPAXH@Z
	DD	FLAT:?CBEOSB_10F@@YAXPAXH@Z
	DD	FLAT:?CBExMFDButton@@YAXPAXH@Z
	DD	FLAT:?CBEOSB_11F@@YAXPAXH@Z
	DD	FLAT:?CBExMFDButton@@YAXPAXH@Z
	DD	FLAT:?CBEOSB_12F@@YAXPAXH@Z
	DD	FLAT:?CBExMFDButton@@YAXPAXH@Z
	DD	FLAT:?CBEOSB_13F@@YAXPAXH@Z
	DD	FLAT:?CBExMFDButton@@YAXPAXH@Z
	DD	FLAT:?CBEOSB_14F@@YAXPAXH@Z
	DD	FLAT:?CBExMFDButton@@YAXPAXH@Z
	DD	FLAT:?CBEOSB_15F@@YAXPAXH@Z
	DD	FLAT:?CBExMFDButton@@YAXPAXH@Z
	DD	FLAT:?CBEOSB_16F@@YAXPAXH@Z
	DD	FLAT:?CBExMFDButton@@YAXPAXH@Z
	DD	FLAT:?CBEOSB_17F@@YAXPAXH@Z
	DD	FLAT:?CBExMFDButton@@YAXPAXH@Z
	DD	FLAT:?CBEOSB_18F@@YAXPAXH@Z
	DD	FLAT:?CBExMFDButton@@YAXPAXH@Z
	DD	FLAT:?CBEOSB_19F@@YAXPAXH@Z
	DD	FLAT:?CBExMFDButton@@YAXPAXH@Z
	DD	FLAT:?CBEOSB_20F@@YAXPAXH@Z
	DD	FLAT:?CBExMFDButton@@YAXPAXH@Z
	DD	FLAT:?CBEThreeGainUp@@YAXPAXH@Z
	DD	FLAT:?CBExMFDButton@@YAXPAXH@Z
	DD	FLAT:?CBEThreeGainDown@@YAXPAXH@Z
	DD	FLAT:?CBExMFDButton@@YAXPAXH@Z
	DD	FLAT:?CBEFourGainUp@@YAXPAXH@Z
	DD	FLAT:?CBExMFDButton@@YAXPAXH@Z
	DD	FLAT:?CBEFourGainDown@@YAXPAXH@Z
	DD	00H
	DD	FLAT:?CBEDummyCallback@@YAXPAXH@Z
	DD	00H
	DD	FLAT:?CBEThrRevButton@@YAXPAXH@Z
	DD	00H
	DD	00H
_DATA	ENDS
;	COMDAT ?radix@_Num_base@std@@2HB
CONST	SEGMENT
?radix@_Num_base@std@@2HB DD 00H			; std::_Num_base::radix
CONST	ENDS
;	COMDAT ?min_exponent10@_Num_base@std@@2HB
CONST	SEGMENT
?min_exponent10@_Num_base@std@@2HB DD 00H		; std::_Num_base::min_exponent10
CONST	ENDS
;	COMDAT ?min_exponent@_Num_base@std@@2HB
CONST	SEGMENT
?min_exponent@_Num_base@std@@2HB DD 00H			; std::_Num_base::min_exponent
CONST	ENDS
;	COMDAT ?max_exponent10@_Num_base@std@@2HB
CONST	SEGMENT
?max_exponent10@_Num_base@std@@2HB DD 00H		; std::_Num_base::max_exponent10
CONST	ENDS
;	COMDAT ?max_exponent@_Num_base@std@@2HB
CONST	SEGMENT
?max_exponent@_Num_base@std@@2HB DD 00H			; std::_Num_base::max_exponent
CONST	ENDS
;	COMDAT ?max_digits10@_Num_base@std@@2HB
CONST	SEGMENT
?max_digits10@_Num_base@std@@2HB DD 00H			; std::_Num_base::max_digits10
CONST	ENDS
CONST	SEGMENT
?TOTAL_CPCALLBACK_SLOTS@@3HB DD 0b2H			; TOTAL_CPCALLBACK_SLOTS
?TOTAL_BUTTONCALLBACK_SLOTS@@3HB DD 0ffH		; TOTAL_BUTTONCALLBACK_SLOTS
_L_2	DD	03f317218r			; 0.693147
_NEAR_CLIP DD	03f800000r			; 1
CONST	ENDS
;	COMDAT ?digits10@_Num_base@std@@2HB
CONST	SEGMENT
?digits10@_Num_base@std@@2HB DD 00H			; std::_Num_base::digits10
CONST	ENDS
;	COMDAT ?digits@_Num_base@std@@2HB
CONST	SEGMENT
?digits@_Num_base@std@@2HB DD 00H			; std::_Num_base::digits
CONST	ENDS
;	COMDAT ?round_style@_Num_base@std@@2W4float_round_style@2@B
CONST	SEGMENT
?round_style@_Num_base@std@@2W4float_round_style@2@B DD 00H ; std::_Num_base::round_style
CONST	ENDS
;	COMDAT ?traps@_Num_base@std@@2_NB
CONST	SEGMENT
?traps@_Num_base@std@@2_NB DB 00H			; std::_Num_base::traps
CONST	ENDS
;	COMDAT ?tinyness_before@_Num_base@std@@2_NB
CONST	SEGMENT
?tinyness_before@_Num_base@std@@2_NB DB 00H		; std::_Num_base::tinyness_before
CONST	ENDS
;	COMDAT ?is_specialized@_Num_base@std@@2_NB
CONST	SEGMENT
?is_specialized@_Num_base@std@@2_NB DB 00H		; std::_Num_base::is_specialized
CONST	ENDS
;	COMDAT ?is_signed@_Num_base@std@@2_NB
CONST	SEGMENT
?is_signed@_Num_base@std@@2_NB DB 00H			; std::_Num_base::is_signed
CONST	ENDS
;	COMDAT ?is_modulo@_Num_base@std@@2_NB
CONST	SEGMENT
?is_modulo@_Num_base@std@@2_NB DB 00H			; std::_Num_base::is_modulo
CONST	ENDS
;	COMDAT ?is_integer@_Num_base@std@@2_NB
CONST	SEGMENT
?is_integer@_Num_base@std@@2_NB DB 00H			; std::_Num_base::is_integer
CONST	ENDS
;	COMDAT ?is_iec559@_Num_base@std@@2_NB
CONST	SEGMENT
?is_iec559@_Num_base@std@@2_NB DB 00H			; std::_Num_base::is_iec559
CONST	ENDS
;	COMDAT ?is_exact@_Num_base@std@@2_NB
CONST	SEGMENT
?is_exact@_Num_base@std@@2_NB DB 00H			; std::_Num_base::is_exact
CONST	ENDS
;	COMDAT ?is_bounded@_Num_base@std@@2_NB
CONST	SEGMENT
?is_bounded@_Num_base@std@@2_NB DB 00H			; std::_Num_base::is_bounded
CONST	ENDS
;	COMDAT ?has_signaling_NaN@_Num_base@std@@2_NB
CONST	SEGMENT
?has_signaling_NaN@_Num_base@std@@2_NB DB 00H		; std::_Num_base::has_signaling_NaN
CONST	ENDS
;	COMDAT ?has_quiet_NaN@_Num_base@std@@2_NB
CONST	SEGMENT
?has_quiet_NaN@_Num_base@std@@2_NB DB 00H		; std::_Num_base::has_quiet_NaN
CONST	ENDS
;	COMDAT ?has_infinity@_Num_base@std@@2_NB
CONST	SEGMENT
?has_infinity@_Num_base@std@@2_NB DB 00H		; std::_Num_base::has_infinity
CONST	ENDS
;	COMDAT ?has_denorm_loss@_Num_base@std@@2_NB
CONST	SEGMENT
?has_denorm_loss@_Num_base@std@@2_NB DB 00H		; std::_Num_base::has_denorm_loss
CONST	ENDS
;	COMDAT ?has_denorm@_Num_base@std@@2W4float_denorm_style@2@B
CONST	SEGMENT
?has_denorm@_Num_base@std@@2W4float_denorm_style@2@B DD 00H ; std::_Num_base::has_denorm
CONST	ENDS
;	COMDAT ?_Stream_err@failure@ios_base@std@@0W4io_errc@43@B
CONST	SEGMENT
?_Stream_err@failure@ios_base@std@@0W4io_errc@43@B DD 01H ; std::ios_base::failure::_Stream_err
CONST	ENDS
;	COMDAT ?end@?$_Iosb@H@std@@2W4_Seekdir@12@B
CONST	SEGMENT
?end@?$_Iosb@H@std@@2W4_Seekdir@12@B DD 02H		; std::_Iosb<int>::end
CONST	ENDS
;	COMDAT ?cur@?$_Iosb@H@std@@2W4_Seekdir@12@B
CONST	SEGMENT
?cur@?$_Iosb@H@std@@2W4_Seekdir@12@B DD 01H		; std::_Iosb<int>::cur
CONST	ENDS
;	COMDAT ?beg@?$_Iosb@H@std@@2W4_Seekdir@12@B
CONST	SEGMENT
?beg@?$_Iosb@H@std@@2W4_Seekdir@12@B DD 00H		; std::_Iosb<int>::beg
CONST	ENDS
;	COMDAT ?binary@?$_Iosb@H@std@@2W4_Openmode@12@B
CONST	SEGMENT
?binary@?$_Iosb@H@std@@2W4_Openmode@12@B DD 020H	; std::_Iosb<int>::binary
CONST	ENDS
;	COMDAT ?_Noreplace@?$_Iosb@H@std@@2W4_Openmode@12@B
CONST	SEGMENT
?_Noreplace@?$_Iosb@H@std@@2W4_Openmode@12@B DD 080H	; std::_Iosb<int>::_Noreplace
CONST	ENDS
;	COMDAT ?_Nocreate@?$_Iosb@H@std@@2W4_Openmode@12@B
CONST	SEGMENT
?_Nocreate@?$_Iosb@H@std@@2W4_Openmode@12@B DD 040H	; std::_Iosb<int>::_Nocreate
CONST	ENDS
;	COMDAT ?trunc@?$_Iosb@H@std@@2W4_Openmode@12@B
CONST	SEGMENT
?trunc@?$_Iosb@H@std@@2W4_Openmode@12@B DD 010H		; std::_Iosb<int>::trunc
CONST	ENDS
;	COMDAT ?app@?$_Iosb@H@std@@2W4_Openmode@12@B
CONST	SEGMENT
?app@?$_Iosb@H@std@@2W4_Openmode@12@B DD 08H		; std::_Iosb<int>::app
CONST	ENDS
;	COMDAT ?ate@?$_Iosb@H@std@@2W4_Openmode@12@B
CONST	SEGMENT
?ate@?$_Iosb@H@std@@2W4_Openmode@12@B DD 04H		; std::_Iosb<int>::ate
CONST	ENDS
;	COMDAT ?out@?$_Iosb@H@std@@2W4_Openmode@12@B
CONST	SEGMENT
?out@?$_Iosb@H@std@@2W4_Openmode@12@B DD 02H		; std::_Iosb<int>::out
CONST	ENDS
;	COMDAT ?in@?$_Iosb@H@std@@2W4_Openmode@12@B
CONST	SEGMENT
?in@?$_Iosb@H@std@@2W4_Openmode@12@B DD 01H		; std::_Iosb<int>::in
CONST	ENDS
;	COMDAT ?_Hardfail@?$_Iosb@H@std@@2W4_Iostate@12@B
CONST	SEGMENT
?_Hardfail@?$_Iosb@H@std@@2W4_Iostate@12@B DD 010H	; std::_Iosb<int>::_Hardfail
CONST	ENDS
;	COMDAT ?badbit@?$_Iosb@H@std@@2W4_Iostate@12@B
CONST	SEGMENT
?badbit@?$_Iosb@H@std@@2W4_Iostate@12@B DD 04H		; std::_Iosb<int>::badbit
CONST	ENDS
;	COMDAT ?value@?$_Sizeof@U_Nil@std@@U12@U12@U12@U12@U12@U12@U12@@std@@2IB
CONST	SEGMENT
?value@?$_Sizeof@U_Nil@std@@U12@U12@U12@U12@U12@U12@U12@@std@@2IB DD 00H ; std::_Sizeof<std::_Nil,std::_Nil,std::_Nil,std::_Nil,std::_Nil,std::_Nil,std::_Nil,std::_Nil>::value
CONST	ENDS
;	COMDAT ?failbit@?$_Iosb@H@std@@2W4_Iostate@12@B
CONST	SEGMENT
?failbit@?$_Iosb@H@std@@2W4_Iostate@12@B DD 02H		; std::_Iosb<int>::failbit
CONST	ENDS
;	COMDAT ?eofbit@?$_Iosb@H@std@@2W4_Iostate@12@B
CONST	SEGMENT
?eofbit@?$_Iosb@H@std@@2W4_Iostate@12@B DD 01H		; std::_Iosb<int>::eofbit
CONST	ENDS
;	COMDAT ?goodbit@?$_Iosb@H@std@@2W4_Iostate@12@B
CONST	SEGMENT
?goodbit@?$_Iosb@H@std@@2W4_Iostate@12@B DD 00H		; std::_Iosb<int>::goodbit
CONST	ENDS
;	COMDAT ?floatfield@?$_Iosb@H@std@@2W4_Fmtflags@12@B
CONST	SEGMENT
?floatfield@?$_Iosb@H@std@@2W4_Fmtflags@12@B DD 03000H	; std::_Iosb<int>::floatfield
CONST	ENDS
;	COMDAT ?basefield@?$_Iosb@H@std@@2W4_Fmtflags@12@B
CONST	SEGMENT
?basefield@?$_Iosb@H@std@@2W4_Fmtflags@12@B DD 0e00H	; std::_Iosb<int>::basefield
CONST	ENDS
;	COMDAT ?adjustfield@?$_Iosb@H@std@@2W4_Fmtflags@12@B
CONST	SEGMENT
?adjustfield@?$_Iosb@H@std@@2W4_Fmtflags@12@B DD 01c0H	; std::_Iosb<int>::adjustfield
CONST	ENDS
;	COMDAT ?_Stdio@?$_Iosb@H@std@@2W4_Fmtflags@12@B
CONST	SEGMENT
?_Stdio@?$_Iosb@H@std@@2W4_Fmtflags@12@B DD 08000H	; std::_Iosb<int>::_Stdio
CONST	ENDS
;	COMDAT ?boolalpha@?$_Iosb@H@std@@2W4_Fmtflags@12@B
CONST	SEGMENT
?boolalpha@?$_Iosb@H@std@@2W4_Fmtflags@12@B DD 04000H	; std::_Iosb<int>::boolalpha
CONST	ENDS
;	COMDAT ?hexfloat@?$_Iosb@H@std@@2W4_Fmtflags@12@B
CONST	SEGMENT
?hexfloat@?$_Iosb@H@std@@2W4_Fmtflags@12@B DD 03000H	; std::_Iosb<int>::hexfloat
CONST	ENDS
;	COMDAT ?fixed@?$_Iosb@H@std@@2W4_Fmtflags@12@B
CONST	SEGMENT
?fixed@?$_Iosb@H@std@@2W4_Fmtflags@12@B DD 02000H	; std::_Iosb<int>::fixed
CONST	ENDS
;	COMDAT ?scientific@?$_Iosb@H@std@@2W4_Fmtflags@12@B
CONST	SEGMENT
?scientific@?$_Iosb@H@std@@2W4_Fmtflags@12@B DD 01000H	; std::_Iosb<int>::scientific
CONST	ENDS
;	COMDAT ?hex@?$_Iosb@H@std@@2W4_Fmtflags@12@B
CONST	SEGMENT
?hex@?$_Iosb@H@std@@2W4_Fmtflags@12@B DD 0800H		; std::_Iosb<int>::hex
CONST	ENDS
;	COMDAT ?oct@?$_Iosb@H@std@@2W4_Fmtflags@12@B
CONST	SEGMENT
?oct@?$_Iosb@H@std@@2W4_Fmtflags@12@B DD 0400H		; std::_Iosb<int>::oct
CONST	ENDS
;	COMDAT ?dec@?$_Iosb@H@std@@2W4_Fmtflags@12@B
CONST	SEGMENT
?dec@?$_Iosb@H@std@@2W4_Fmtflags@12@B DD 0200H		; std::_Iosb<int>::dec
CONST	ENDS
;	COMDAT ?internal@?$_Iosb@H@std@@2W4_Fmtflags@12@B
CONST	SEGMENT
?internal@?$_Iosb@H@std@@2W4_Fmtflags@12@B DD 0100H	; std::_Iosb<int>::internal
CONST	ENDS
;	COMDAT ?right@?$_Iosb@H@std@@2W4_Fmtflags@12@B
CONST	SEGMENT
?right@?$_Iosb@H@std@@2W4_Fmtflags@12@B DD 080H		; std::_Iosb<int>::right
CONST	ENDS
;	COMDAT ?left@?$_Iosb@H@std@@2W4_Fmtflags@12@B
CONST	SEGMENT
?left@?$_Iosb@H@std@@2W4_Fmtflags@12@B DD 040H		; std::_Iosb<int>::left
CONST	ENDS
;	COMDAT ?showpos@?$_Iosb@H@std@@2W4_Fmtflags@12@B
CONST	SEGMENT
?showpos@?$_Iosb@H@std@@2W4_Fmtflags@12@B DD 020H	; std::_Iosb<int>::showpos
CONST	ENDS
;	COMDAT ?showpoint@?$_Iosb@H@std@@2W4_Fmtflags@12@B
CONST	SEGMENT
?showpoint@?$_Iosb@H@std@@2W4_Fmtflags@12@B DD 010H	; std::_Iosb<int>::showpoint
CONST	ENDS
;	COMDAT ?showbase@?$_Iosb@H@std@@2W4_Fmtflags@12@B
CONST	SEGMENT
?showbase@?$_Iosb@H@std@@2W4_Fmtflags@12@B DD 08H	; std::_Iosb<int>::showbase
CONST	ENDS
;	COMDAT ?uppercase@?$_Iosb@H@std@@2W4_Fmtflags@12@B
CONST	SEGMENT
?uppercase@?$_Iosb@H@std@@2W4_Fmtflags@12@B DD 04H	; std::_Iosb<int>::uppercase
CONST	ENDS
;	COMDAT ?unitbuf@?$_Iosb@H@std@@2W4_Fmtflags@12@B
CONST	SEGMENT
?unitbuf@?$_Iosb@H@std@@2W4_Fmtflags@12@B DD 02H	; std::_Iosb<int>::unitbuf
CONST	ENDS
;	COMDAT ?skipws@?$_Iosb@H@std@@2W4_Fmtflags@12@B
CONST	SEGMENT
?skipws@?$_Iosb@H@std@@2W4_Fmtflags@12@B DD 01H		; std::_Iosb<int>::skipws
CONST	ENDS
;	COMDAT ?min_exponent10@?$numeric_limits@O@std@@2HB
CONST	SEGMENT
?min_exponent10@?$numeric_limits@O@std@@2HB DD 0fffffecdH ; std::numeric_limits<long double>::min_exponent10
CONST	ENDS
;	COMDAT ?min_exponent@?$numeric_limits@O@std@@2HB
CONST	SEGMENT
?min_exponent@?$numeric_limits@O@std@@2HB DD 0fffffc03H	; std::numeric_limits<long double>::min_exponent
CONST	ENDS
;	COMDAT ?max_exponent10@?$numeric_limits@O@std@@2HB
CONST	SEGMENT
?max_exponent10@?$numeric_limits@O@std@@2HB DD 0134H	; std::numeric_limits<long double>::max_exponent10
CONST	ENDS
;	COMDAT ?max_exponent@?$numeric_limits@O@std@@2HB
CONST	SEGMENT
?max_exponent@?$numeric_limits@O@std@@2HB DD 0400H	; std::numeric_limits<long double>::max_exponent
CONST	ENDS
;	COMDAT ?max_digits10@?$numeric_limits@O@std@@2HB
CONST	SEGMENT
?max_digits10@?$numeric_limits@O@std@@2HB DD 011H	; std::numeric_limits<long double>::max_digits10
CONST	ENDS
;	COMDAT ?digits10@?$numeric_limits@O@std@@2HB
CONST	SEGMENT
?digits10@?$numeric_limits@O@std@@2HB DD 0fH		; std::numeric_limits<long double>::digits10
CONST	ENDS
;	COMDAT ?digits@?$numeric_limits@O@std@@2HB
CONST	SEGMENT
?digits@?$numeric_limits@O@std@@2HB DD 035H		; std::numeric_limits<long double>::digits
CONST	ENDS
;	COMDAT ?min_exponent10@?$numeric_limits@N@std@@2HB
CONST	SEGMENT
?min_exponent10@?$numeric_limits@N@std@@2HB DD 0fffffecdH ; std::numeric_limits<double>::min_exponent10
CONST	ENDS
;	COMDAT ?min_exponent@?$numeric_limits@N@std@@2HB
CONST	SEGMENT
?min_exponent@?$numeric_limits@N@std@@2HB DD 0fffffc03H	; std::numeric_limits<double>::min_exponent
CONST	ENDS
;	COMDAT ?max_exponent10@?$numeric_limits@N@std@@2HB
CONST	SEGMENT
?max_exponent10@?$numeric_limits@N@std@@2HB DD 0134H	; std::numeric_limits<double>::max_exponent10
CONST	ENDS
;	COMDAT ?max_exponent@?$numeric_limits@N@std@@2HB
CONST	SEGMENT
?max_exponent@?$numeric_limits@N@std@@2HB DD 0400H	; std::numeric_limits<double>::max_exponent
CONST	ENDS
;	COMDAT ?max_digits10@?$numeric_limits@N@std@@2HB
CONST	SEGMENT
?max_digits10@?$numeric_limits@N@std@@2HB DD 011H	; std::numeric_limits<double>::max_digits10
CONST	ENDS
;	COMDAT ?digits10@?$numeric_limits@N@std@@2HB
CONST	SEGMENT
?digits10@?$numeric_limits@N@std@@2HB DD 0fH		; std::numeric_limits<double>::digits10
CONST	ENDS
;	COMDAT ?digits@?$numeric_limits@N@std@@2HB
CONST	SEGMENT
?digits@?$numeric_limits@N@std@@2HB DD 035H		; std::numeric_limits<double>::digits
CONST	ENDS
;	COMDAT ?min_exponent10@?$numeric_limits@M@std@@2HB
CONST	SEGMENT
?min_exponent10@?$numeric_limits@M@std@@2HB DD 0ffffffdbH ; std::numeric_limits<float>::min_exponent10
CONST	ENDS
;	COMDAT ?min_exponent@?$numeric_limits@M@std@@2HB
CONST	SEGMENT
?min_exponent@?$numeric_limits@M@std@@2HB DD 0ffffff83H	; std::numeric_limits<float>::min_exponent
CONST	ENDS
PUBLIC	??2@YAPAXIPAX@Z					; operator new
PUBLIC	??3@YAXPAX0@Z					; operator delete
PUBLIC	?length@?$char_traits@D@std@@SAIPBD@Z		; std::char_traits<char>::length
PUBLIC	?copy@?$char_traits@D@std@@SAPADPADPBDI@Z	; std::char_traits<char>::copy
PUBLIC	?move@?$char_traits@D@std@@SAPADPADPBDI@Z	; std::char_traits<char>::move
PUBLIC	?assign@?$char_traits@D@std@@SAXAADABD@Z	; std::char_traits<char>::assign
PUBLIC	??0?$allocator@D@std@@QAE@XZ			; std::allocator<char>::allocator<char>
PUBLIC	?deallocate@?$allocator@D@std@@QAEXPADI@Z	; std::allocator<char>::deallocate
PUBLIC	?allocate@?$allocator@D@std@@QAEPADI@Z		; std::allocator<char>::allocate
PUBLIC	?max_size@?$allocator@D@std@@QBEIXZ		; std::allocator<char>::max_size
PUBLIC	?max_size@?$allocator_traits@V?$allocator@D@std@@@std@@SAIABV?$allocator@D@2@@Z ; std::allocator_traits<std::allocator<char> >::max_size
PUBLIC	??0?$_Wrap_alloc@V?$allocator@D@std@@@std@@QAE@XZ ; std::_Wrap_alloc<std::allocator<char> >::_Wrap_alloc<std::allocator<char> >
PUBLIC	?allocate@?$_Wrap_alloc@V?$allocator@D@std@@@std@@QAEPADI@Z ; std::_Wrap_alloc<std::allocator<char> >::allocate
PUBLIC	?deallocate@?$_Wrap_alloc@V?$allocator@D@std@@@std@@QAEXPADI@Z ; std::_Wrap_alloc<std::allocator<char> >::deallocate
PUBLIC	?max_size@?$_Wrap_alloc@V?$allocator@D@std@@@std@@QBEIXZ ; std::_Wrap_alloc<std::allocator<char> >::max_size
PUBLIC	??0?$_String_val@U?$_Simple_types@D@std@@@std@@QAE@XZ ; std::_String_val<std::_Simple_types<char> >::_String_val<std::_Simple_types<char> >
PUBLIC	?_Myptr@?$_String_val@U?$_Simple_types@D@std@@@std@@QAEPADXZ ; std::_String_val<std::_Simple_types<char> >::_Myptr
PUBLIC	?_Myptr@?$_String_val@U?$_Simple_types@D@std@@@std@@QBEPBDXZ ; std::_String_val<std::_Simple_types<char> >::_Myptr
PUBLIC	??0?$_String_alloc@$0A@U?$_String_base_types@DV?$allocator@D@std@@@std@@@std@@QAE@ABV?$allocator@D@1@@Z ; std::_String_alloc<0,std::_String_base_types<char,std::allocator<char> > >::_String_alloc<0,std::_String_base_types<char,std::allocator<char> > >
PUBLIC	?_Getal@?$_String_alloc@$0A@U?$_String_base_types@DV?$allocator@D@std@@@std@@@std@@QBE?AU?$_Wrap_alloc@V?$allocator@D@std@@@2@XZ ; std::_String_alloc<0,std::_String_base_types<char,std::allocator<char> > >::_Getal
PUBLIC	??0?$basic_string@DU?$char_traits@D@std@@V?$allocator@D@2@@std@@QAE@PBD@Z ; std::basic_string<char,std::char_traits<char>,std::allocator<char> >::basic_string<char,std::char_traits<char>,std::allocator<char> >
PUBLIC	?assign@?$basic_string@DU?$char_traits@D@std@@V?$allocator@D@2@@std@@QAEAAV12@ABV12@II@Z ; std::basic_string<char,std::char_traits<char>,std::allocator<char> >::assign
PUBLIC	?assign@?$basic_string@DU?$char_traits@D@std@@V?$allocator@D@2@@std@@QAEAAV12@PBDI@Z ; std::basic_string<char,std::char_traits<char>,std::allocator<char> >::assign
PUBLIC	?assign@?$basic_string@DU?$char_traits@D@std@@V?$allocator@D@2@@std@@QAEAAV12@PBD@Z ; std::basic_string<char,std::char_traits<char>,std::allocator<char> >::assign
PUBLIC	?erase@?$basic_string@DU?$char_traits@D@std@@V?$allocator@D@2@@std@@QAEAAV12@I@Z ; std::basic_string<char,std::char_traits<char>,std::allocator<char> >::erase
PUBLIC	?erase@?$basic_string@DU?$char_traits@D@std@@V?$allocator@D@2@@std@@QAEAAV12@II@Z ; std::basic_string<char,std::char_traits<char>,std::allocator<char> >::erase
PUBLIC	?size@?$basic_string@DU?$char_traits@D@std@@V?$allocator@D@2@@std@@QBEIXZ ; std::basic_string<char,std::char_traits<char>,std::allocator<char> >::size
PUBLIC	?max_size@?$basic_string@DU?$char_traits@D@std@@V?$allocator@D@2@@std@@QBEIXZ ; std::basic_string<char,std::char_traits<char>,std::allocator<char> >::max_size
PUBLIC	?_Copy@?$basic_string@DU?$char_traits@D@std@@V?$allocator@D@2@@std@@QAEXII@Z ; std::basic_string<char,std::char_traits<char>,std::allocator<char> >::_Copy
PUBLIC	?_Eos@?$basic_string@DU?$char_traits@D@std@@V?$allocator@D@2@@std@@QAEXI@Z ; std::basic_string<char,std::char_traits<char>,std::allocator<char> >::_Eos
PUBLIC	?_Grow@?$basic_string@DU?$char_traits@D@std@@V?$allocator@D@2@@std@@QAE_NI_N@Z ; std::basic_string<char,std::char_traits<char>,std::allocator<char> >::_Grow
PUBLIC	?_Inside@?$basic_string@DU?$char_traits@D@std@@V?$allocator@D@2@@std@@QAE_NPBD@Z ; std::basic_string<char,std::char_traits<char>,std::allocator<char> >::_Inside
PUBLIC	?_Tidy@?$basic_string@DU?$char_traits@D@std@@V?$allocator@D@2@@std@@QAEX_NI@Z ; std::basic_string<char,std::char_traits<char>,std::allocator<char> >::_Tidy
PUBLIC	?_Xlen@?$basic_string@DU?$char_traits@D@std@@V?$allocator@D@2@@std@@QBEXXZ ; std::basic_string<char,std::char_traits<char>,std::allocator<char> >::_Xlen
PUBLIC	?_Xran@?$basic_string@DU?$char_traits@D@std@@V?$allocator@D@2@@std@@QBEXXZ ; std::basic_string<char,std::char_traits<char>,std::allocator<char> >::_Xran
PUBLIC	??0id@locale@std@@QAE@I@Z			; std::locale::id::id
PUBLIC	?generic_category@std@@YAABVerror_category@1@XZ	; std::generic_category
PUBLIC	?system_category@std@@YAABVerror_category@1@XZ	; std::system_category
PUBLIC	??0error_category@std@@QAE@XZ			; std::error_category::error_category
PUBLIC	??1error_category@std@@UAE@XZ			; std::error_category::~error_category
PUBLIC	?default_error_condition@error_category@std@@UBE?AVerror_condition@2@H@Z ; std::error_category::default_error_condition
PUBLIC	?equivalent@error_category@std@@UBE_NHABVerror_condition@2@@Z ; std::error_category::equivalent
PUBLIC	?equivalent@error_category@std@@UBE_NABVerror_code@2@H@Z ; std::error_category::equivalent
PUBLIC	??8error_category@std@@QBE_NABV01@@Z		; std::error_category::operator==
PUBLIC	??_Gerror_category@std@@UAEPAXI@Z		; std::error_category::`scalar deleting destructor'
PUBLIC	?value@error_code@std@@QBEHXZ			; std::error_code::value
PUBLIC	?category@error_code@std@@QBEABVerror_category@2@XZ ; std::error_code::category
PUBLIC	??0error_condition@std@@QAE@HABVerror_category@1@@Z ; std::error_condition::error_condition
PUBLIC	?value@error_condition@std@@QBEHXZ		; std::error_condition::value
PUBLIC	?category@error_condition@std@@QBEABVerror_category@2@XZ ; std::error_condition::category
PUBLIC	??8error_condition@std@@QBE_NABV01@@Z		; std::error_condition::operator==
PUBLIC	??0_Generic_error_category@std@@QAE@XZ		; std::_Generic_error_category::_Generic_error_category
PUBLIC	?name@_Generic_error_category@std@@UBEPBDXZ	; std::_Generic_error_category::name
PUBLIC	?message@_Generic_error_category@std@@UBE?AV?$basic_string@DU?$char_traits@D@std@@V?$allocator@D@2@@2@H@Z ; std::_Generic_error_category::message
PUBLIC	??1_Generic_error_category@std@@UAE@XZ		; std::_Generic_error_category::~_Generic_error_category
PUBLIC	??_G_Generic_error_category@std@@UAEPAXI@Z	; std::_Generic_error_category::`scalar deleting destructor'
PUBLIC	??0_Iostream_error_category@std@@QAE@XZ		; std::_Iostream_error_category::_Iostream_error_category
PUBLIC	?name@_Iostream_error_category@std@@UBEPBDXZ	; std::_Iostream_error_category::name
PUBLIC	?message@_Iostream_error_category@std@@UBE?AV?$basic_string@DU?$char_traits@D@std@@V?$allocator@D@2@@2@H@Z ; std::_Iostream_error_category::message
PUBLIC	??1_Iostream_error_category@std@@UAE@XZ		; std::_Iostream_error_category::~_Iostream_error_category
PUBLIC	??_G_Iostream_error_category@std@@UAEPAXI@Z	; std::_Iostream_error_category::`scalar deleting destructor'
PUBLIC	??0_System_error_category@std@@QAE@XZ		; std::_System_error_category::_System_error_category
PUBLIC	?name@_System_error_category@std@@UBEPBDXZ	; std::_System_error_category::name
PUBLIC	?message@_System_error_category@std@@UBE?AV?$basic_string@DU?$char_traits@D@std@@V?$allocator@D@2@@2@H@Z ; std::_System_error_category::message
PUBLIC	?default_error_condition@_System_error_category@std@@UBE?AVerror_condition@2@H@Z ; std::_System_error_category::default_error_condition
PUBLIC	??1_System_error_category@std@@UAE@XZ		; std::_System_error_category::~_System_error_category
PUBLIC	??_G_System_error_category@std@@UAEPAXI@Z	; std::_System_error_category::`scalar deleting destructor'
PUBLIC	??$construct@PADAAPAD@?$_Wrap_alloc@V?$allocator@D@std@@@std@@QAEXPAPADAAPAD@Z ; std::_Wrap_alloc<std::allocator<char> >::construct<char *,char * &>
PUBLIC	??$destroy@PAD@?$_Wrap_alloc@V?$allocator@D@std@@@std@@QAEXPAPAD@Z ; std::_Wrap_alloc<std::allocator<char> >::destroy<char *>
PUBLIC	??$addressof@D@std@@YAPADAAD@Z			; std::addressof<char>
PUBLIC	??$_Allocate@D@std@@YAPADIPAD@Z			; std::_Allocate<char>
PUBLIC	??$forward@AAPAD@std@@YAAAPADAAPAD@Z		; std::forward<char * &>
PUBLIC	??$construct@PADAAPAD@?$allocator_traits@V?$allocator@D@std@@@std@@SAXAAV?$allocator@D@1@PAPADAAPAD@Z ; std::allocator_traits<std::allocator<char> >::construct<char *,char * &>
PUBLIC	??$destroy@PAD@?$allocator_traits@V?$allocator@D@std@@@std@@SAXAAV?$allocator@D@1@PAPAD@Z ; std::allocator_traits<std::allocator<char> >::destroy<char *>
PUBLIC	??$construct@PADAAPAD@?$allocator@D@std@@QAEXPAPADAAPAD@Z ; std::allocator<char>::construct<char *,char * &>
PUBLIC	??$destroy@PAD@?$allocator@D@std@@QAEXPAPAD@Z	; std::allocator<char>::destroy<char *>
PUBLIC	??_7error_category@std@@6B@			; std::error_category::`vftable'
PUBLIC	??_7_Generic_error_category@std@@6B@		; std::_Generic_error_category::`vftable'
PUBLIC	??_C@_07DCLBNMLN@generic?$AA@			; `string'
PUBLIC	??_C@_0O@BFJCFAAK@unknown?5error?$AA@		; `string'
PUBLIC	??_7_Iostream_error_category@std@@6B@		; std::_Iostream_error_category::`vftable'
PUBLIC	??_C@_08LLGCOLLL@iostream?$AA@			; `string'
PUBLIC	??_C@_0BG@PADBLCHM@iostream?5stream?5error?$AA@	; `string'
PUBLIC	??_7_System_error_category@std@@6B@		; std::_System_error_category::`vftable'
PUBLIC	??_C@_06FHFOAHML@system?$AA@			; `string'
PUBLIC	?_Generic_object@?$_Error_objects@H@std@@2V_Generic_error_category@2@A ; std::_Error_objects<int>::_Generic_object
PUBLIC	?_Iostream_object@?$_Error_objects@H@std@@2V_Iostream_error_category@2@A ; std::_Error_objects<int>::_Iostream_object
PUBLIC	?_System_object@?$_Error_objects@H@std@@2V_System_error_category@2@A ; std::_Error_objects<int>::_System_object
PUBLIC	?id@?$num_put@DV?$back_insert_iterator@V?$basic_string@DU?$char_traits@D@std@@V?$allocator@D@2@@std@@@std@@@std@@2V0locale@2@A ; std::num_put<char,std::back_insert_iterator<std::basic_string<char,std::char_traits<char>,std::allocator<char> > > >::id
PUBLIC	?id@?$num_put@_WV?$back_insert_iterator@V?$basic_string@_WU?$char_traits@_W@std@@V?$allocator@_W@2@@std@@@std@@@std@@2V0locale@2@A ; std::num_put<wchar_t,std::back_insert_iterator<std::basic_string<wchar_t,std::char_traits<wchar_t>,std::allocator<wchar_t> > > >::id
PUBLIC	?id@?$numpunct@D@std@@2V0locale@2@A		; std::numpunct<char>::id
PUBLIC	?id@?$numpunct@_W@std@@2V0locale@2@A		; std::numpunct<wchar_t>::id
PUBLIC	??_C@_0BI@CFPLBAOH@invalid?5string?5position?$AA@ ; `string'
PUBLIC	??_C@_0BA@JFNIOLAK@string?5too?5long?$AA@	; `string'
PUBLIC	??_R4error_category@std@@6B@			; std::error_category::`RTTI Complete Object Locator'
PUBLIC	??_R0?AVerror_category@std@@@8			; std::error_category `RTTI Type Descriptor'
PUBLIC	??_R3error_category@std@@8			; std::error_category::`RTTI Class Hierarchy Descriptor'
PUBLIC	??_R2error_category@std@@8			; std::error_category::`RTTI Base Class Array'
PUBLIC	??_R1A@?0A@EA@error_category@std@@8		; std::error_category::`RTTI Base Class Descriptor at (0,-1,0,64)'
PUBLIC	??_R4_Generic_error_category@std@@6B@		; std::_Generic_error_category::`RTTI Complete Object Locator'
PUBLIC	??_R0?AV_Generic_error_category@std@@@8		; std::_Generic_error_category `RTTI Type Descriptor'
PUBLIC	??_R3_Generic_error_category@std@@8		; std::_Generic_error_category::`RTTI Class Hierarchy Descriptor'
PUBLIC	??_R2_Generic_error_category@std@@8		; std::_Generic_error_category::`RTTI Base Class Array'
PUBLIC	??_R1A@?0A@EA@_Generic_error_category@std@@8	; std::_Generic_error_category::`RTTI Base Class Descriptor at (0,-1,0,64)'
PUBLIC	??_R4_Iostream_error_category@std@@6B@		; std::_Iostream_error_category::`RTTI Complete Object Locator'
PUBLIC	??_R0?AV_Iostream_error_category@std@@@8	; std::_Iostream_error_category `RTTI Type Descriptor'
PUBLIC	??_R3_Iostream_error_category@std@@8		; std::_Iostream_error_category::`RTTI Class Hierarchy Descriptor'
PUBLIC	??_R2_Iostream_error_category@std@@8		; std::_Iostream_error_category::`RTTI Base Class Array'
PUBLIC	??_R1A@?0A@EA@_Iostream_error_category@std@@8	; std::_Iostream_error_category::`RTTI Base Class Descriptor at (0,-1,0,64)'
PUBLIC	??_R4_System_error_category@std@@6B@		; std::_System_error_category::`RTTI Complete Object Locator'
PUBLIC	??_R0?AV_System_error_category@std@@@8		; std::_System_error_category `RTTI Type Descriptor'
PUBLIC	??_R3_System_error_category@std@@8		; std::_System_error_category::`RTTI Class Hierarchy Descriptor'
PUBLIC	??_R2_System_error_category@std@@8		; std::_System_error_category::`RTTI Base Class Array'
PUBLIC	??_R1A@?0A@EA@_System_error_category@std@@8	; std::_System_error_category::`RTTI Base Class Descriptor at (0,-1,0,64)'
EXTRN	__purecall:PROC
EXTRN	??2@YAPAXI@Z:PROC				; operator new
EXTRN	??3@YAXPAX@Z:PROC				; operator delete
EXTRN	_atexit:PROC
EXTRN	_memcpy:PROC
EXTRN	_strlen:PROC
EXTRN	_memmove:PROC
EXTRN	?_Xbad_alloc@std@@YAXXZ:PROC			; std::_Xbad_alloc
EXTRN	?_Xlength_error@std@@YAXPBD@Z:PROC		; std::_Xlength_error
EXTRN	?_Xout_of_range@std@@YAXPBD@Z:PROC		; std::_Xout_of_range
EXTRN	??_Eerror_category@std@@UAEPAXI@Z:PROC		; std::error_category::`vector deleting destructor'
EXTRN	?_Syserror_map@std@@YAPBDH@Z:PROC		; std::_Syserror_map
EXTRN	?_Winerror_map@std@@YAPBDH@Z:PROC		; std::_Winerror_map
EXTRN	??_E_Generic_error_category@std@@UAEPAXI@Z:PROC	; std::_Generic_error_category::`vector deleting destructor'
EXTRN	??_E_Iostream_error_category@std@@UAEPAXI@Z:PROC ; std::_Iostream_error_category::`vector deleting destructor'
EXTRN	??_E_System_error_category@std@@UAEPAXI@Z:PROC	; std::_System_error_category::`vector deleting destructor'
EXTRN	@__security_check_cookie@4:PROC
EXTRN	__CxxThrowException@8:PROC
EXTRN	___CxxFrameHandler3:PROC
EXTRN	??_7type_info@@6B@:QWORD			; type_info::`vftable'
EXTRN	___security_cookie:DWORD
_BSS	SEGMENT
_piecewise_construct DB 01H DUP (?)
_allocator_arg DB 01H DUP (?)
_BSS	ENDS
;	COMDAT ?_Generic_object@?$_Error_objects@H@std@@2V_Generic_error_category@2@A
_BSS	SEGMENT
?_Generic_object@?$_Error_objects@H@std@@2V_Generic_error_category@2@A DD 01H DUP (?) ; std::_Error_objects<int>::_Generic_object
_BSS	ENDS
;	COMDAT ?_Iostream_object@?$_Error_objects@H@std@@2V_Iostream_error_category@2@A
_BSS	SEGMENT
?_Iostream_object@?$_Error_objects@H@std@@2V_Iostream_error_category@2@A DD 01H DUP (?) ; std::_Error_objects<int>::_Iostream_object
_BSS	ENDS
;	COMDAT ?_System_object@?$_Error_objects@H@std@@2V_System_error_category@2@A
_BSS	SEGMENT
?_System_object@?$_Error_objects@H@std@@2V_System_error_category@2@A DD 01H DUP (?) ; std::_Error_objects<int>::_System_object
_BSS	ENDS
;	COMDAT ?id@?$num_put@DV?$back_insert_iterator@V?$basic_string@DU?$char_traits@D@std@@V?$allocator@D@2@@std@@@std@@@std@@2V0locale@2@A
_BSS	SEGMENT
?id@?$num_put@DV?$back_insert_iterator@V?$basic_string@DU?$char_traits@D@std@@V?$allocator@D@2@@std@@@std@@@std@@2V0locale@2@A DD 01H DUP (?) ; std::num_put<char,std::back_insert_iterator<std::basic_string<char,std::char_traits<char>,std::allocator<char> > > >::id
_BSS	ENDS
;	COMDAT ?id@?$num_put@_WV?$back_insert_iterator@V?$basic_string@_WU?$char_traits@_W@std@@V?$allocator@_W@2@@std@@@std@@@std@@2V0locale@2@A
_BSS	SEGMENT
?id@?$num_put@_WV?$back_insert_iterator@V?$basic_string@_WU?$char_traits@_W@std@@V?$allocator@_W@2@@std@@@std@@@std@@2V0locale@2@A DD 01H DUP (?) ; std::num_put<wchar_t,std::back_insert_iterator<std::basic_string<wchar_t,std::char_traits<wchar_t>,std::allocator<wchar_t> > > >::id
_BSS	ENDS
;	COMDAT ?id@?$numpunct@D@std@@2V0locale@2@A
_BSS	SEGMENT
?id@?$numpunct@D@std@@2V0locale@2@A DD 01H DUP (?)	; std::numpunct<char>::id
_BSS	ENDS
;	COMDAT ?id@?$numpunct@_W@std@@2V0locale@2@A
_BSS	SEGMENT
?id@?$numpunct@_W@std@@2V0locale@2@A DD 01H DUP (?)	; std::numpunct<wchar_t>::id
_BSS	ENDS
CRT$XCU	SEGMENT
_piecewise_construct$initializer$ DD FLAT:??__Epiecewise_construct@std@@YAXXZ
CRT$XCU	ENDS
;	COMDAT ??_R1A@?0A@EA@_System_error_category@std@@8
rdata$r	SEGMENT
??_R1A@?0A@EA@_System_error_category@std@@8 DD FLAT:??_R0?AV_System_error_category@std@@@8 ; std::_System_error_category::`RTTI Base Class Descriptor at (0,-1,0,64)'
	DD	02H
	DD	00H
	DD	0ffffffffH
	DD	00H
	DD	040H
	DD	FLAT:??_R3_System_error_category@std@@8
rdata$r	ENDS
;	COMDAT ??_R2_System_error_category@std@@8
rdata$r	SEGMENT
??_R2_System_error_category@std@@8 DD FLAT:??_R1A@?0A@EA@_System_error_category@std@@8 ; std::_System_error_category::`RTTI Base Class Array'
	DD	FLAT:??_R1A@?0A@EA@_Generic_error_category@std@@8
	DD	FLAT:??_R1A@?0A@EA@error_category@std@@8
rdata$r	ENDS
;	COMDAT ??_R3_System_error_category@std@@8
rdata$r	SEGMENT
??_R3_System_error_category@std@@8 DD 00H		; std::_System_error_category::`RTTI Class Hierarchy Descriptor'
	DD	00H
	DD	03H
	DD	FLAT:??_R2_System_error_category@std@@8
rdata$r	ENDS
;	COMDAT ??_R0?AV_System_error_category@std@@@8
_DATA	SEGMENT
??_R0?AV_System_error_category@std@@@8 DD FLAT:??_7type_info@@6B@ ; std::_System_error_category `RTTI Type Descriptor'
	DD	00H
	DB	'.?AV_System_error_category@std@@', 00H
_DATA	ENDS
;	COMDAT ??_R4_System_error_category@std@@6B@
rdata$r	SEGMENT
??_R4_System_error_category@std@@6B@ DD 00H		; std::_System_error_category::`RTTI Complete Object Locator'
	DD	00H
	DD	00H
	DD	FLAT:??_R0?AV_System_error_category@std@@@8
	DD	FLAT:??_R3_System_error_category@std@@8
rdata$r	ENDS
;	COMDAT ??_R1A@?0A@EA@_Iostream_error_category@std@@8
rdata$r	SEGMENT
??_R1A@?0A@EA@_Iostream_error_category@std@@8 DD FLAT:??_R0?AV_Iostream_error_category@std@@@8 ; std::_Iostream_error_category::`RTTI Base Class Descriptor at (0,-1,0,64)'
	DD	02H
	DD	00H
	DD	0ffffffffH
	DD	00H
	DD	040H
	DD	FLAT:??_R3_Iostream_error_category@std@@8
rdata$r	ENDS
;	COMDAT ??_R2_Iostream_error_category@std@@8
rdata$r	SEGMENT
??_R2_Iostream_error_category@std@@8 DD FLAT:??_R1A@?0A@EA@_Iostream_error_category@std@@8 ; std::_Iostream_error_category::`RTTI Base Class Array'
	DD	FLAT:??_R1A@?0A@EA@_Generic_error_category@std@@8
	DD	FLAT:??_R1A@?0A@EA@error_category@std@@8
rdata$r	ENDS
;	COMDAT ??_R3_Iostream_error_category@std@@8
rdata$r	SEGMENT
??_R3_Iostream_error_category@std@@8 DD 00H		; std::_Iostream_error_category::`RTTI Class Hierarchy Descriptor'
	DD	00H
	DD	03H
	DD	FLAT:??_R2_Iostream_error_category@std@@8
rdata$r	ENDS
;	COMDAT ??_R0?AV_Iostream_error_category@std@@@8
_DATA	SEGMENT
??_R0?AV_Iostream_error_category@std@@@8 DD FLAT:??_7type_info@@6B@ ; std::_Iostream_error_category `RTTI Type Descriptor'
	DD	00H
	DB	'.?AV_Iostream_error_category@std@@', 00H
_DATA	ENDS
;	COMDAT ??_R4_Iostream_error_category@std@@6B@
rdata$r	SEGMENT
??_R4_Iostream_error_category@std@@6B@ DD 00H		; std::_Iostream_error_category::`RTTI Complete Object Locator'
	DD	00H
	DD	00H
	DD	FLAT:??_R0?AV_Iostream_error_category@std@@@8
	DD	FLAT:??_R3_Iostream_error_category@std@@8
rdata$r	ENDS
;	COMDAT ??_R1A@?0A@EA@_Generic_error_category@std@@8
rdata$r	SEGMENT
??_R1A@?0A@EA@_Generic_error_category@std@@8 DD FLAT:??_R0?AV_Generic_error_category@std@@@8 ; std::_Generic_error_category::`RTTI Base Class Descriptor at (0,-1,0,64)'
	DD	01H
	DD	00H
	DD	0ffffffffH
	DD	00H
	DD	040H
	DD	FLAT:??_R3_Generic_error_category@std@@8
rdata$r	ENDS
;	COMDAT ??_R2_Generic_error_category@std@@8
rdata$r	SEGMENT
??_R2_Generic_error_category@std@@8 DD FLAT:??_R1A@?0A@EA@_Generic_error_category@std@@8 ; std::_Generic_error_category::`RTTI Base Class Array'
	DD	FLAT:??_R1A@?0A@EA@error_category@std@@8
rdata$r	ENDS
;	COMDAT ??_R3_Generic_error_category@std@@8
rdata$r	SEGMENT
??_R3_Generic_error_category@std@@8 DD 00H		; std::_Generic_error_category::`RTTI Class Hierarchy Descriptor'
	DD	00H
	DD	02H
	DD	FLAT:??_R2_Generic_error_category@std@@8
rdata$r	ENDS
;	COMDAT ??_R0?AV_Generic_error_category@std@@@8
_DATA	SEGMENT
??_R0?AV_Generic_error_category@std@@@8 DD FLAT:??_7type_info@@6B@ ; std::_Generic_error_category `RTTI Type Descriptor'
	DD	00H
	DB	'.?AV_Generic_error_category@std@@', 00H
_DATA	ENDS
;	COMDAT ??_R4_Generic_error_category@std@@6B@
rdata$r	SEGMENT
??_R4_Generic_error_category@std@@6B@ DD 00H		; std::_Generic_error_category::`RTTI Complete Object Locator'
	DD	00H
	DD	00H
	DD	FLAT:??_R0?AV_Generic_error_category@std@@@8
	DD	FLAT:??_R3_Generic_error_category@std@@8
rdata$r	ENDS
;	COMDAT ??_R1A@?0A@EA@error_category@std@@8
rdata$r	SEGMENT
??_R1A@?0A@EA@error_category@std@@8 DD FLAT:??_R0?AVerror_category@std@@@8 ; std::error_category::`RTTI Base Class Descriptor at (0,-1,0,64)'
	DD	00H
	DD	00H
	DD	0ffffffffH
	DD	00H
	DD	040H
	DD	FLAT:??_R3error_category@std@@8
rdata$r	ENDS
;	COMDAT ??_R2error_category@std@@8
rdata$r	SEGMENT
??_R2error_category@std@@8 DD FLAT:??_R1A@?0A@EA@error_category@std@@8 ; std::error_category::`RTTI Base Class Array'
rdata$r	ENDS
;	COMDAT ??_R3error_category@std@@8
rdata$r	SEGMENT
??_R3error_category@std@@8 DD 00H			; std::error_category::`RTTI Class Hierarchy Descriptor'
	DD	00H
	DD	01H
	DD	FLAT:??_R2error_category@std@@8
rdata$r	ENDS
;	COMDAT ??_R0?AVerror_category@std@@@8
_DATA	SEGMENT
??_R0?AVerror_category@std@@@8 DD FLAT:??_7type_info@@6B@ ; std::error_category `RTTI Type Descriptor'
	DD	00H
	DB	'.?AVerror_category@std@@', 00H
_DATA	ENDS
;	COMDAT ??_R4error_category@std@@6B@
rdata$r	SEGMENT
??_R4error_category@std@@6B@ DD 00H			; std::error_category::`RTTI Complete Object Locator'
	DD	00H
	DD	00H
	DD	FLAT:??_R0?AVerror_category@std@@@8
	DD	FLAT:??_R3error_category@std@@8
rdata$r	ENDS
;	COMDAT ??_C@_0BA@JFNIOLAK@string?5too?5long?$AA@
CONST	SEGMENT
??_C@_0BA@JFNIOLAK@string?5too?5long?$AA@ DB 'string too long', 00H ; `string'
CONST	ENDS
;	COMDAT ??_C@_0BI@CFPLBAOH@invalid?5string?5position?$AA@
CONST	SEGMENT
??_C@_0BI@CFPLBAOH@invalid?5string?5position?$AA@ DB 'invalid string posi'
	DB	'tion', 00H					; `string'
CONST	ENDS
;	COMDAT ??_C@_06FHFOAHML@system?$AA@
CONST	SEGMENT
??_C@_06FHFOAHML@system?$AA@ DB 'system', 00H		; `string'
CONST	ENDS
;	COMDAT ??_7_System_error_category@std@@6B@
CONST	SEGMENT
??_7_System_error_category@std@@6B@ DD FLAT:??_R4_System_error_category@std@@6B@ ; std::_System_error_category::`vftable'
	DD	FLAT:??_E_System_error_category@std@@UAEPAXI@Z
	DD	FLAT:?name@_System_error_category@std@@UBEPBDXZ
	DD	FLAT:?message@_System_error_category@std@@UBE?AV?$basic_string@DU?$char_traits@D@std@@V?$allocator@D@2@@2@H@Z
	DD	FLAT:?default_error_condition@_System_error_category@std@@UBE?AVerror_condition@2@H@Z
	DD	FLAT:?equivalent@error_category@std@@UBE_NABVerror_code@2@H@Z
	DD	FLAT:?equivalent@error_category@std@@UBE_NHABVerror_condition@2@@Z
CONST	ENDS
;	COMDAT ??_C@_0BG@PADBLCHM@iostream?5stream?5error?$AA@
CONST	SEGMENT
??_C@_0BG@PADBLCHM@iostream?5stream?5error?$AA@ DB 'iostream stream error'
	DB	00H						; `string'
CONST	ENDS
;	COMDAT ??_C@_08LLGCOLLL@iostream?$AA@
CONST	SEGMENT
??_C@_08LLGCOLLL@iostream?$AA@ DB 'iostream', 00H	; `string'
CONST	ENDS
;	COMDAT ??_7_Iostream_error_category@std@@6B@
CONST	SEGMENT
??_7_Iostream_error_category@std@@6B@ DD FLAT:??_R4_Iostream_error_category@std@@6B@ ; std::_Iostream_error_category::`vftable'
	DD	FLAT:??_E_Iostream_error_category@std@@UAEPAXI@Z
	DD	FLAT:?name@_Iostream_error_category@std@@UBEPBDXZ
	DD	FLAT:?message@_Iostream_error_category@std@@UBE?AV?$basic_string@DU?$char_traits@D@std@@V?$allocator@D@2@@2@H@Z
	DD	FLAT:?default_error_condition@error_category@std@@UBE?AVerror_condition@2@H@Z
	DD	FLAT:?equivalent@error_category@std@@UBE_NABVerror_code@2@H@Z
	DD	FLAT:?equivalent@error_category@std@@UBE_NHABVerror_condition@2@@Z
CONST	ENDS
;	COMDAT ??_C@_0O@BFJCFAAK@unknown?5error?$AA@
CONST	SEGMENT
??_C@_0O@BFJCFAAK@unknown?5error?$AA@ DB 'unknown error', 00H ; `string'
CONST	ENDS
;	COMDAT ??_C@_07DCLBNMLN@generic?$AA@
CONST	SEGMENT
??_C@_07DCLBNMLN@generic?$AA@ DB 'generic', 00H		; `string'
CONST	ENDS
;	COMDAT ??_7_Generic_error_category@std@@6B@
CONST	SEGMENT
??_7_Generic_error_category@std@@6B@ DD FLAT:??_R4_Generic_error_category@std@@6B@ ; std::_Generic_error_category::`vftable'
	DD	FLAT:??_E_Generic_error_category@std@@UAEPAXI@Z
	DD	FLAT:?name@_Generic_error_category@std@@UBEPBDXZ
	DD	FLAT:?message@_Generic_error_category@std@@UBE?AV?$basic_string@DU?$char_traits@D@std@@V?$allocator@D@2@@2@H@Z
	DD	FLAT:?default_error_condition@error_category@std@@UBE?AVerror_condition@2@H@Z
	DD	FLAT:?equivalent@error_category@std@@UBE_NABVerror_code@2@H@Z
	DD	FLAT:?equivalent@error_category@std@@UBE_NHABVerror_condition@2@@Z
CONST	ENDS
;	COMDAT ??_7error_category@std@@6B@
CONST	SEGMENT
??_7error_category@std@@6B@ DD FLAT:??_R4error_category@std@@6B@ ; std::error_category::`vftable'
	DD	FLAT:??_Eerror_category@std@@UAEPAXI@Z
	DD	FLAT:__purecall
	DD	FLAT:__purecall
	DD	FLAT:?default_error_condition@error_category@std@@UBE?AVerror_condition@2@H@Z
	DD	FLAT:?equivalent@error_category@std@@UBE_NABVerror_code@2@H@Z
	DD	FLAT:?equivalent@error_category@std@@UBE_NHABVerror_condition@2@@Z
CONST	ENDS
;	COMDAT xdata$x
xdata$x	SEGMENT
__unwindtable$??$construct@PADAAPAD@?$allocator@D@std@@QAEXPAPADAAPAD@Z DD 0ffffffffH
	DD	FLAT:__unwindfunclet$??$construct@PADAAPAD@?$allocator@D@std@@QAEXPAPADAAPAD@Z$0
__ehfuncinfo$??$construct@PADAAPAD@?$allocator@D@std@@QAEXPAPADAAPAD@Z DD 019930522H
	DD	01H
	DD	FLAT:__unwindtable$??$construct@PADAAPAD@?$allocator@D@std@@QAEXPAPADAAPAD@Z
	DD	2 DUP(00H)
	DD	2 DUP(00H)
	DD	00H
	DD	01H
xdata$x	ENDS
;	COMDAT xdata$x
xdata$x	SEGMENT
__catchsym$?_Copy@?$basic_string@DU?$char_traits@D@std@@V?$allocator@D@2@@std@@QAEXII@Z$5 DD 040H
	DD	00H
	DD	00H
	DD	FLAT:__catch$?_Copy@?$basic_string@DU?$char_traits@D@std@@V?$allocator@D@2@@std@@QAEXII@Z$0
__catchsym$?_Copy@?$basic_string@DU?$char_traits@D@std@@V?$allocator@D@2@@std@@QAEXII@Z$4 DD 040H
	DD	00H
	DD	00H
	DD	FLAT:__catch$?_Copy@?$basic_string@DU?$char_traits@D@std@@V?$allocator@D@2@@std@@QAEXII@Z$1
__unwindtable$?_Copy@?$basic_string@DU?$char_traits@D@std@@V?$allocator@D@2@@std@@QAEXII@Z DD 0ffffffffH
	DD	00H
	DD	0ffffffffH
	DD	00H
	DD	01H
	DD	00H
	DD	01H
	DD	00H
__ehfuncinfo$?_Copy@?$basic_string@DU?$char_traits@D@std@@V?$allocator@D@2@@std@@QAEXII@Z DD 019930522H
	DD	04H
	DD	FLAT:__unwindtable$?_Copy@?$basic_string@DU?$char_traits@D@std@@V?$allocator@D@2@@std@@QAEXII@Z
	DD	02H
	DD	FLAT:__tryblocktable$?_Copy@?$basic_string@DU?$char_traits@D@std@@V?$allocator@D@2@@std@@QAEXII@Z
	DD	2 DUP(00H)
	DD	00H
	DD	01H
__tryblocktable$?_Copy@?$basic_string@DU?$char_traits@D@std@@V?$allocator@D@2@@std@@QAEXII@Z DD 02H
	DD	02H
	DD	03H
	DD	01H
	DD	FLAT:__catchsym$?_Copy@?$basic_string@DU?$char_traits@D@std@@V?$allocator@D@2@@std@@QAEXII@Z$4
	DD	00H
	DD	00H
	DD	03H
	DD	01H
	DD	FLAT:__catchsym$?_Copy@?$basic_string@DU?$char_traits@D@std@@V?$allocator@D@2@@std@@QAEXII@Z$5
xdata$x	ENDS
CRT$XCU	SEGMENT
_allocator_arg$initializer$ DD FLAT:??__Eallocator_arg@std@@YAXXZ
CRT$XCU	ENDS
;	COMDAT CRT$XCU
CRT$XCU	SEGMENT
?_Generic_object$initializer$@?$_Error_objects@H@std@@2P6AXXZA DD FLAT:??__E?_Generic_object@?$_Error_objects@H@std@@2V_Generic_error_category@2@A@@YAXXZ ; std::_Error_objects<int>::_Generic_object$initializer$
CRT$XCU	ENDS
;	COMDAT CRT$XCU
CRT$XCU	SEGMENT
?_Iostream_object$initializer$@?$_Error_objects@H@std@@2P6AXXZA DD FLAT:??__E?_Iostream_object@?$_Error_objects@H@std@@2V_Iostream_error_category@2@A@@YAXXZ ; std::_Error_objects<int>::_Iostream_object$initializer$
CRT$XCU	ENDS
;	COMDAT CRT$XCU
CRT$XCU	SEGMENT
?_System_object$initializer$@?$_Error_objects@H@std@@2P6AXXZA DD FLAT:??__E?_System_object@?$_Error_objects@H@std@@2V_System_error_category@2@A@@YAXXZ ; std::_Error_objects<int>::_System_object$initializer$
CRT$XCU	ENDS
;	COMDAT CRT$XCU
CRT$XCU	SEGMENT
?id$initializer$@?$num_put@DV?$back_insert_iterator@V?$basic_string@DU?$char_traits@D@std@@V?$allocator@D@2@@std@@@std@@@std@@2P6AXXZA DD FLAT:??__E?id@?$num_put@DV?$back_insert_iterator@V?$basic_string@DU?$char_traits@D@std@@V?$allocator@D@2@@std@@@std@@@std@@2V0locale@2@A@@YAXXZ ; std::num_put<char,std::back_insert_iterator<std::basic_string<char,std::char_traits<char>,std::allocator<char> > > >::id$initializer$
CRT$XCU	ENDS
;	COMDAT CRT$XCU
CRT$XCU	SEGMENT
?id$initializer$@?$num_put@_WV?$back_insert_iterator@V?$basic_string@_WU?$char_traits@_W@std@@V?$allocator@_W@2@@std@@@std@@@std@@2P6AXXZA DD FLAT:??__E?id@?$num_put@_WV?$back_insert_iterator@V?$basic_string@_WU?$char_traits@_W@std@@V?$allocator@_W@2@@std@@@std@@@std@@2V0locale@2@A@@YAXXZ ; std::num_put<wchar_t,std::back_insert_iterator<std::basic_string<wchar_t,std::char_traits<wchar_t>,std::allocator<wchar_t> > > >::id$initializer$
CRT$XCU	ENDS
;	COMDAT CRT$XCU
CRT$XCU	SEGMENT
?id$initializer$@?$numpunct@D@std@@2P6AXXZA DD FLAT:??__E?id@?$numpunct@D@std@@2V0locale@2@A@@YAXXZ ; std::numpunct<char>::id$initializer$
CRT$XCU	ENDS
;	COMDAT CRT$XCU
CRT$XCU	SEGMENT
?id$initializer$@?$numpunct@_W@std@@2P6AXXZA DD FLAT:??__E?id@?$numpunct@_W@std@@2V0locale@2@A@@YAXXZ ; std::numpunct<wchar_t>::id$initializer$
CRT$XCU	ENDS
; Function compile flags: /Odtp
; File c:\program files (x86)\microsoft visual studio 11.0\vc\include\xmemory0
;	COMDAT ??$destroy@PAD@?$allocator@D@std@@QAEXPAPAD@Z
_TEXT	SEGMENT
_this$ = -4						; size = 4
__Ptr$ = 8						; size = 4
??$destroy@PAD@?$allocator@D@std@@QAEXPAPAD@Z PROC	; std::allocator<char>::destroy<char *>, COMDAT
; _this$ = ecx

; 621  : 		void destroy(_Uty *_Ptr)

	push	ebp
	mov	ebp, esp
	push	ecx
	mov	DWORD PTR _this$[ebp], ecx

; 622  : 		{	// destroy object at _Ptr
; 623  : 		_Ptr->~_Uty();
; 624  : 		}

	mov	esp, ebp
	pop	ebp
	ret	4
??$destroy@PAD@?$allocator@D@std@@QAEXPAPAD@Z ENDP	; std::allocator<char>::destroy<char *>
_TEXT	ENDS
; Function compile flags: /Odtp
; File c:\program files (x86)\microsoft visual studio 11.0\vc\include\xmemory0
;	COMDAT ??$construct@PADAAPAD@?$allocator@D@std@@QAEXPAPADAAPAD@Z
_TEXT	SEGMENT
$T2 = -28						; size = 4
_this$ = -24						; size = 4
tv73 = -20						; size = 4
$T3 = -16						; size = 4
__$EHRec$ = -12						; size = 12
__Ptr$ = 8						; size = 4
__V0$ = 12						; size = 4
??$construct@PADAAPAD@?$allocator@D@std@@QAEXPAPADAAPAD@Z PROC ; std::allocator<char>::construct<char *,char * &>, COMDAT
; _this$ = ecx

; 617  : _VARIADIC_EXPAND_0X(_ALLOC_MEMBER_CONSTRUCT, , , , )

	push	ebp
	mov	ebp, esp
	push	-1
	push	__ehhandler$??$construct@PADAAPAD@?$allocator@D@std@@QAEXPAPADAAPAD@Z
	mov	eax, DWORD PTR fs:0
	push	eax
	sub	esp, 16					; 00000010H
	mov	eax, DWORD PTR ___security_cookie
	xor	eax, ebp
	push	eax
	lea	eax, DWORD PTR __$EHRec$[ebp]
	mov	DWORD PTR fs:0, eax
	mov	DWORD PTR _this$[ebp], ecx
	mov	eax, DWORD PTR __Ptr$[ebp]
	push	eax
	push	4
	call	??2@YAPAXIPAX@Z				; operator new
	add	esp, 8
	mov	DWORD PTR $T3[ebp], eax
	mov	DWORD PTR __$EHRec$[ebp+8], 0
	cmp	DWORD PTR $T3[ebp], 0
	je	SHORT $LN3@construct
	mov	ecx, DWORD PTR __V0$[ebp]
	push	ecx
	call	??$forward@AAPAD@std@@YAAAPADAAPAD@Z	; std::forward<char * &>
	add	esp, 4
	mov	edx, DWORD PTR $T3[ebp]
	mov	eax, DWORD PTR [eax]
	mov	DWORD PTR [edx], eax
	mov	ecx, DWORD PTR $T3[ebp]
	mov	DWORD PTR tv73[ebp], ecx
	jmp	SHORT $LN4@construct
$LN3@construct:
	mov	DWORD PTR tv73[ebp], 0
$LN4@construct:
	mov	edx, DWORD PTR tv73[ebp]
	mov	DWORD PTR $T2[ebp], edx
	mov	DWORD PTR __$EHRec$[ebp+8], -1
	mov	ecx, DWORD PTR __$EHRec$[ebp]
	mov	DWORD PTR fs:0, ecx
	pop	ecx
	mov	esp, ebp
	pop	ebp
	ret	8
_TEXT	ENDS
;	COMDAT text$x
text$x	SEGMENT
__unwindfunclet$??$construct@PADAAPAD@?$allocator@D@std@@QAEXPAPADAAPAD@Z$0:
	mov	eax, DWORD PTR __Ptr$[ebp]
	push	eax
	mov	eax, DWORD PTR $T3[ebp]
	push	eax
	call	??3@YAXPAX0@Z				; operator delete
	add	esp, 8
	ret	0
__ehhandler$??$construct@PADAAPAD@?$allocator@D@std@@QAEXPAPADAAPAD@Z:
	mov	edx, DWORD PTR [esp+8]
	lea	eax, DWORD PTR [edx+12]
	mov	ecx, DWORD PTR [edx-20]
	xor	ecx, eax
	call	@__security_check_cookie@4
	mov	eax, OFFSET __ehfuncinfo$??$construct@PADAAPAD@?$allocator@D@std@@QAEXPAPADAAPAD@Z
	jmp	___CxxFrameHandler3
text$x	ENDS
??$construct@PADAAPAD@?$allocator@D@std@@QAEXPAPADAAPAD@Z ENDP ; std::allocator<char>::construct<char *,char * &>
; Function compile flags: /Odtp
; File c:\program files (x86)\microsoft visual studio 11.0\vc\include\xlocnum
;	COMDAT ??__E?id@?$numpunct@_W@std@@2V0locale@2@A@@YAXXZ
text$yc	SEGMENT
??__E?id@?$numpunct@_W@std@@2V0locale@2@A@@YAXXZ PROC	; `dynamic initializer for 'std::numpunct<wchar_t>::id'', COMDAT

; 155  : 		void _Getvals(wchar_t, const lconv *_Ptr, _Locinfo::_Cvtvec)

	push	ebp
	mov	ebp, esp
	push	0
	mov	ecx, OFFSET ?id@?$numpunct@_W@std@@2V0locale@2@A ; std::numpunct<wchar_t>::id
	call	??0id@locale@std@@QAE@I@Z		; std::locale::id::id
	pop	ebp
	ret	0
??__E?id@?$numpunct@_W@std@@2V0locale@2@A@@YAXXZ ENDP	; `dynamic initializer for 'std::numpunct<wchar_t>::id''
text$yc	ENDS
; Function compile flags: /Odtp
; File c:\program files (x86)\microsoft visual studio 11.0\vc\include\xlocnum
;	COMDAT ??__E?id@?$numpunct@D@std@@2V0locale@2@A@@YAXXZ
text$yc	SEGMENT
??__E?id@?$numpunct@D@std@@2V0locale@2@A@@YAXXZ PROC	; `dynamic initializer for 'std::numpunct<char>::id'', COMDAT

; 155  : 		void _Getvals(wchar_t, const lconv *_Ptr, _Locinfo::_Cvtvec)

	push	ebp
	mov	ebp, esp
	push	0
	mov	ecx, OFFSET ?id@?$numpunct@D@std@@2V0locale@2@A ; std::numpunct<char>::id
	call	??0id@locale@std@@QAE@I@Z		; std::locale::id::id
	pop	ebp
	ret	0
??__E?id@?$numpunct@D@std@@2V0locale@2@A@@YAXXZ ENDP	; `dynamic initializer for 'std::numpunct<char>::id''
text$yc	ENDS
; Function compile flags: /Odtp
; File c:\program files (x86)\microsoft visual studio 11.0\vc\include\xlocnum
;	COMDAT ??__E?id@?$num_put@_WV?$back_insert_iterator@V?$basic_string@_WU?$char_traits@_W@std@@V?$allocator@_W@2@@std@@@std@@@std@@2V0locale@2@A@@YAXXZ
text$yc	SEGMENT
??__E?id@?$num_put@_WV?$back_insert_iterator@V?$basic_string@_WU?$char_traits@_W@std@@V?$allocator@_W@2@@std@@@std@@@std@@2V0locale@2@A@@YAXXZ PROC ; `dynamic initializer for 'std::num_put<wchar_t,std::back_insert_iterator<std::basic_string<wchar_t,std::char_traits<wchar_t>,std::allocator<wchar_t> > > >::id'', COMDAT

; 155  : 		void _Getvals(wchar_t, const lconv *_Ptr, _Locinfo::_Cvtvec)

	push	ebp
	mov	ebp, esp
	push	0
	mov	ecx, OFFSET ?id@?$num_put@_WV?$back_insert_iterator@V?$basic_string@_WU?$char_traits@_W@std@@V?$allocator@_W@2@@std@@@std@@@std@@2V0locale@2@A ; std::num_put<wchar_t,std::back_insert_iterator<std::basic_string<wchar_t,std::char_traits<wchar_t>,std::allocator<wchar_t> > > >::id
	call	??0id@locale@std@@QAE@I@Z		; std::locale::id::id
	pop	ebp
	ret	0
??__E?id@?$num_put@_WV?$back_insert_iterator@V?$basic_string@_WU?$char_traits@_W@std@@V?$allocator@_W@2@@std@@@std@@@std@@2V0locale@2@A@@YAXXZ ENDP ; `dynamic initializer for 'std::num_put<wchar_t,std::back_insert_iterator<std::basic_string<wchar_t,std::char_traits<wchar_t>,std::allocator<wchar_t> > > >::id''
text$yc	ENDS
; Function compile flags: /Odtp
; File c:\program files (x86)\microsoft visual studio 11.0\vc\include\xlocnum
;	COMDAT ??__E?id@?$num_put@DV?$back_insert_iterator@V?$basic_string@DU?$char_traits@D@std@@V?$allocator@D@2@@std@@@std@@@std@@2V0locale@2@A@@YAXXZ
text$yc	SEGMENT
??__E?id@?$num_put@DV?$back_insert_iterator@V?$basic_string@DU?$char_traits@D@std@@V?$allocator@D@2@@std@@@std@@@std@@2V0locale@2@A@@YAXXZ PROC ; `dynamic initializer for 'std::num_put<char,std::back_insert_iterator<std::basic_string<char,std::char_traits<char>,std::allocator<char> > > >::id'', COMDAT

; 155  : 		void _Getvals(wchar_t, const lconv *_Ptr, _Locinfo::_Cvtvec)

	push	ebp
	mov	ebp, esp
	push	0
	mov	ecx, OFFSET ?id@?$num_put@DV?$back_insert_iterator@V?$basic_string@DU?$char_traits@D@std@@V?$allocator@D@2@@std@@@std@@@std@@2V0locale@2@A ; std::num_put<char,std::back_insert_iterator<std::basic_string<char,std::char_traits<char>,std::allocator<char> > > >::id
	call	??0id@locale@std@@QAE@I@Z		; std::locale::id::id
	pop	ebp
	ret	0
??__E?id@?$num_put@DV?$back_insert_iterator@V?$basic_string@DU?$char_traits@D@std@@V?$allocator@D@2@@std@@@std@@@std@@2V0locale@2@A@@YAXXZ ENDP ; `dynamic initializer for 'std::num_put<char,std::back_insert_iterator<std::basic_string<char,std::char_traits<char>,std::allocator<char> > > >::id''
text$yc	ENDS
; Function compile flags: /Odtp
; File c:\program files (x86)\microsoft visual studio 11.0\vc\include\xmemory0
;	COMDAT ??$destroy@PAD@?$allocator_traits@V?$allocator@D@std@@@std@@SAXAAV?$allocator@D@1@PAPAD@Z
_TEXT	SEGMENT
__Al$ = 8						; size = 4
__Ptr$ = 12						; size = 4
??$destroy@PAD@?$allocator_traits@V?$allocator@D@std@@@std@@SAXAAV?$allocator@D@1@PAPAD@Z PROC ; std::allocator_traits<std::allocator<char> >::destroy<char *>, COMDAT

; 755  : 		static void destroy(_Alloc& _Al, _Uty *_Ptr)

	push	ebp
	mov	ebp, esp

; 756  : 		{	// destroy object at _Ptr
; 757  : 		_Al.destroy(_Ptr);

	mov	eax, DWORD PTR __Ptr$[ebp]
	push	eax
	mov	ecx, DWORD PTR __Al$[ebp]
	call	??$destroy@PAD@?$allocator@D@std@@QAEXPAPAD@Z ; std::allocator<char>::destroy<char *>

; 758  : 		}

	pop	ebp
	ret	0
??$destroy@PAD@?$allocator_traits@V?$allocator@D@std@@@std@@SAXAAV?$allocator@D@1@PAPAD@Z ENDP ; std::allocator_traits<std::allocator<char> >::destroy<char *>
_TEXT	ENDS
; Function compile flags: /Odtp
; File c:\program files (x86)\microsoft visual studio 11.0\vc\include\xmemory0
;	COMDAT ??$construct@PADAAPAD@?$allocator_traits@V?$allocator@D@std@@@std@@SAXAAV?$allocator@D@1@PAPADAAPAD@Z
_TEXT	SEGMENT
__Al$ = 8						; size = 4
__Ptr$ = 12						; size = 4
__V0$ = 16						; size = 4
??$construct@PADAAPAD@?$allocator_traits@V?$allocator@D@std@@@std@@SAXAAV?$allocator@D@1@PAPADAAPAD@Z PROC ; std::allocator_traits<std::allocator<char> >::construct<char *,char * &>, COMDAT

; 751  : _VARIADIC_EXPAND_0X(_ALLOC_TRAITS_SPECIAL_CONSTRUCT, , , , )

	push	ebp
	mov	ebp, esp
	mov	eax, DWORD PTR __V0$[ebp]
	push	eax
	call	??$forward@AAPAD@std@@YAAAPADAAPAD@Z	; std::forward<char * &>
	add	esp, 4
	push	eax
	mov	ecx, DWORD PTR __Ptr$[ebp]
	push	ecx
	mov	ecx, DWORD PTR __Al$[ebp]
	call	??$construct@PADAAPAD@?$allocator@D@std@@QAEXPAPADAAPAD@Z ; std::allocator<char>::construct<char *,char * &>
	pop	ebp
	ret	0
??$construct@PADAAPAD@?$allocator_traits@V?$allocator@D@std@@@std@@SAXAAV?$allocator@D@1@PAPADAAPAD@Z ENDP ; std::allocator_traits<std::allocator<char> >::construct<char *,char * &>
_TEXT	ENDS
; Function compile flags: /Odtp
; File c:\program files (x86)\microsoft visual studio 11.0\vc\include\type_traits
;	COMDAT ??$forward@AAPAD@std@@YAAAPADAAPAD@Z
_TEXT	SEGMENT
__Arg$ = 8						; size = 4
??$forward@AAPAD@std@@YAAAPADAAPAD@Z PROC		; std::forward<char * &>, COMDAT

; 1775 : 	{	// forward an lvalue

	push	ebp
	mov	ebp, esp

; 1776 : 	return (static_cast<_Ty&&>(_Arg));

	mov	eax, DWORD PTR __Arg$[ebp]

; 1777 : 	}

	pop	ebp
	ret	0
??$forward@AAPAD@std@@YAAAPADAAPAD@Z ENDP		; std::forward<char * &>
_TEXT	ENDS
; Function compile flags: /Odtp
;	COMDAT ??__F?_System_object@?$_Error_objects@H@std@@2V_System_error_category@2@A@@YAXXZ
text$yd	SEGMENT
??__F?_System_object@?$_Error_objects@H@std@@2V_System_error_category@2@A@@YAXXZ PROC ; `dynamic atexit destructor for 'std::_Error_objects<int>::_System_object'', COMDAT
	push	ebp
	mov	ebp, esp
	mov	ecx, OFFSET ?_System_object@?$_Error_objects@H@std@@2V_System_error_category@2@A ; std::_Error_objects<int>::_System_object
	call	??1_System_error_category@std@@UAE@XZ
	pop	ebp
	ret	0
??__F?_System_object@?$_Error_objects@H@std@@2V_System_error_category@2@A@@YAXXZ ENDP ; `dynamic atexit destructor for 'std::_Error_objects<int>::_System_object''
text$yd	ENDS
; Function compile flags: /Odtp
; File c:\program files (x86)\microsoft visual studio 11.0\vc\include\xmemory0
;	COMDAT ??__E?_System_object@?$_Error_objects@H@std@@2V_System_error_category@2@A@@YAXXZ
text$yc	SEGMENT
??__E?_System_object@?$_Error_objects@H@std@@2V_System_error_category@2@A@@YAXXZ PROC ; `dynamic initializer for 'std::_Error_objects<int>::_System_object'', COMDAT

; 627  : 		{	// estimate maximum array size

	push	ebp
	mov	ebp, esp
	mov	ecx, OFFSET ?_System_object@?$_Error_objects@H@std@@2V_System_error_category@2@A ; std::_Error_objects<int>::_System_object
	call	??0_System_error_category@std@@QAE@XZ	; std::_System_error_category::_System_error_category
	push	OFFSET ??__F?_System_object@?$_Error_objects@H@std@@2V_System_error_category@2@A@@YAXXZ ; `dynamic atexit destructor for 'std::_Error_objects<int>::_System_object''
	call	_atexit
	add	esp, 4
	pop	ebp
	ret	0
??__E?_System_object@?$_Error_objects@H@std@@2V_System_error_category@2@A@@YAXXZ ENDP ; `dynamic initializer for 'std::_Error_objects<int>::_System_object''
text$yc	ENDS
; Function compile flags: /Odtp
;	COMDAT ??__F?_Iostream_object@?$_Error_objects@H@std@@2V_Iostream_error_category@2@A@@YAXXZ
text$yd	SEGMENT
??__F?_Iostream_object@?$_Error_objects@H@std@@2V_Iostream_error_category@2@A@@YAXXZ PROC ; `dynamic atexit destructor for 'std::_Error_objects<int>::_Iostream_object'', COMDAT
	push	ebp
	mov	ebp, esp
	mov	ecx, OFFSET ?_Iostream_object@?$_Error_objects@H@std@@2V_Iostream_error_category@2@A ; std::_Error_objects<int>::_Iostream_object
	call	??1_Iostream_error_category@std@@UAE@XZ
	pop	ebp
	ret	0
??__F?_Iostream_object@?$_Error_objects@H@std@@2V_Iostream_error_category@2@A@@YAXXZ ENDP ; `dynamic atexit destructor for 'std::_Error_objects<int>::_Iostream_object''
text$yd	ENDS
; Function compile flags: /Odtp
; File c:\program files (x86)\microsoft visual studio 11.0\vc\include\xmemory0
;	COMDAT ??__E?_Iostream_object@?$_Error_objects@H@std@@2V_Iostream_error_category@2@A@@YAXXZ
text$yc	SEGMENT
??__E?_Iostream_object@?$_Error_objects@H@std@@2V_Iostream_error_category@2@A@@YAXXZ PROC ; `dynamic initializer for 'std::_Error_objects<int>::_Iostream_object'', COMDAT

; 627  : 		{	// estimate maximum array size

	push	ebp
	mov	ebp, esp
	mov	ecx, OFFSET ?_Iostream_object@?$_Error_objects@H@std@@2V_Iostream_error_category@2@A ; std::_Error_objects<int>::_Iostream_object
	call	??0_Iostream_error_category@std@@QAE@XZ	; std::_Iostream_error_category::_Iostream_error_category
	push	OFFSET ??__F?_Iostream_object@?$_Error_objects@H@std@@2V_Iostream_error_category@2@A@@YAXXZ ; `dynamic atexit destructor for 'std::_Error_objects<int>::_Iostream_object''
	call	_atexit
	add	esp, 4
	pop	ebp
	ret	0
??__E?_Iostream_object@?$_Error_objects@H@std@@2V_Iostream_error_category@2@A@@YAXXZ ENDP ; `dynamic initializer for 'std::_Error_objects<int>::_Iostream_object''
text$yc	ENDS
; Function compile flags: /Odtp
;	COMDAT ??__F?_Generic_object@?$_Error_objects@H@std@@2V_Generic_error_category@2@A@@YAXXZ
text$yd	SEGMENT
??__F?_Generic_object@?$_Error_objects@H@std@@2V_Generic_error_category@2@A@@YAXXZ PROC ; `dynamic atexit destructor for 'std::_Error_objects<int>::_Generic_object'', COMDAT
	push	ebp
	mov	ebp, esp
	mov	ecx, OFFSET ?_Generic_object@?$_Error_objects@H@std@@2V_Generic_error_category@2@A ; std::_Error_objects<int>::_Generic_object
	call	??1_Generic_error_category@std@@UAE@XZ
	pop	ebp
	ret	0
??__F?_Generic_object@?$_Error_objects@H@std@@2V_Generic_error_category@2@A@@YAXXZ ENDP ; `dynamic atexit destructor for 'std::_Error_objects<int>::_Generic_object''
text$yd	ENDS
; Function compile flags: /Odtp
; File c:\program files (x86)\microsoft visual studio 11.0\vc\include\xmemory0
;	COMDAT ??__E?_Generic_object@?$_Error_objects@H@std@@2V_Generic_error_category@2@A@@YAXXZ
text$yc	SEGMENT
??__E?_Generic_object@?$_Error_objects@H@std@@2V_Generic_error_category@2@A@@YAXXZ PROC ; `dynamic initializer for 'std::_Error_objects<int>::_Generic_object'', COMDAT

; 627  : 		{	// estimate maximum array size

	push	ebp
	mov	ebp, esp
	mov	ecx, OFFSET ?_Generic_object@?$_Error_objects@H@std@@2V_Generic_error_category@2@A ; std::_Error_objects<int>::_Generic_object
	call	??0_Generic_error_category@std@@QAE@XZ	; std::_Generic_error_category::_Generic_error_category
	push	OFFSET ??__F?_Generic_object@?$_Error_objects@H@std@@2V_Generic_error_category@2@A@@YAXXZ ; `dynamic atexit destructor for 'std::_Error_objects<int>::_Generic_object''
	call	_atexit
	add	esp, 4
	pop	ebp
	ret	0
??__E?_Generic_object@?$_Error_objects@H@std@@2V_Generic_error_category@2@A@@YAXXZ ENDP ; `dynamic initializer for 'std::_Error_objects<int>::_Generic_object''
text$yc	ENDS
; Function compile flags: /Odtp
; File c:\program files (x86)\microsoft visual studio 11.0\vc\include\xmemory0
;	COMDAT ??$_Allocate@D@std@@YAPADIPAD@Z
_TEXT	SEGMENT
__Ptr$ = -4						; size = 4
__Count$ = 8						; size = 4
___formal$ = 12						; size = 4
??$_Allocate@D@std@@YAPADIPAD@Z PROC			; std::_Allocate<char>, COMDAT

; 22   : 	{	// allocate storage for _Count elements of type _Ty

	push	ebp
	mov	ebp, esp
	push	ecx

; 23   : 	void *_Ptr = 0;

	mov	DWORD PTR __Ptr$[ebp], 0

; 24   : 
; 25   : 	if (_Count == 0)

	cmp	DWORD PTR __Count$[ebp], 0
	jne	SHORT $LN4@Allocate

; 26   : 		;
; 27   : 	else if (((size_t)(-1) / sizeof (_Ty) < _Count)

	jmp	SHORT $LN3@Allocate
$LN4@Allocate:

; 28   : 		|| (_Ptr = ::operator new(_Count * sizeof (_Ty))) == 0)

	cmp	DWORD PTR __Count$[ebp], -1
	ja	SHORT $LN1@Allocate
	mov	eax, DWORD PTR __Count$[ebp]
	push	eax
	call	??2@YAPAXI@Z				; operator new
	add	esp, 4
	mov	DWORD PTR __Ptr$[ebp], eax
	cmp	DWORD PTR __Ptr$[ebp], 0
	jne	SHORT $LN3@Allocate
$LN1@Allocate:

; 29   : 		_Xbad_alloc();	// report no memory

	call	?_Xbad_alloc@std@@YAXXZ			; std::_Xbad_alloc
$LN3@Allocate:

; 30   : 
; 31   : 	return ((_Ty *)_Ptr);

	mov	eax, DWORD PTR __Ptr$[ebp]
$LN6@Allocate:

; 32   : 	}

	mov	esp, ebp
	pop	ebp
	ret	0
??$_Allocate@D@std@@YAPADIPAD@Z ENDP			; std::_Allocate<char>
_TEXT	ENDS
; Function compile flags: /Odtp
; File c:\program files (x86)\microsoft visual studio 11.0\vc\include\xstddef
;	COMDAT ??$addressof@D@std@@YAPADAAD@Z
_TEXT	SEGMENT
__Val$ = 8						; size = 4
??$addressof@D@std@@YAPADAAD@Z PROC			; std::addressof<char>, COMDAT

; 85   : 	{	// return address of _Val

	push	ebp
	mov	ebp, esp

; 86   : 	return (reinterpret_cast<_Ty *>(
; 87   : 		(&const_cast<char&>(
; 88   : 		reinterpret_cast<const volatile char&>(_Val)))));

	mov	eax, DWORD PTR __Val$[ebp]

; 89   : 	}

	pop	ebp
	ret	0
??$addressof@D@std@@YAPADAAD@Z ENDP			; std::addressof<char>
_TEXT	ENDS
; Function compile flags: /Odtp
; File c:\program files (x86)\microsoft visual studio 11.0\vc\include\xmemory0
;	COMDAT ??$destroy@PAD@?$_Wrap_alloc@V?$allocator@D@std@@@std@@QAEXPAPAD@Z
_TEXT	SEGMENT
_this$ = -4						; size = 4
__Ptr$ = 8						; size = 4
??$destroy@PAD@?$_Wrap_alloc@V?$allocator@D@std@@@std@@QAEXPAPAD@Z PROC ; std::_Wrap_alloc<std::allocator<char> >::destroy<char *>, COMDAT
; _this$ = ecx

; 907  : 		void destroy(_Ty *_Ptr)

	push	ebp
	mov	ebp, esp
	push	ecx
	mov	DWORD PTR _this$[ebp], ecx

; 908  : 		{	// destroy object at _Ptr
; 909  : 		_Mytraits::destroy(*this, _Ptr);

	mov	eax, DWORD PTR __Ptr$[ebp]
	push	eax
	mov	ecx, DWORD PTR _this$[ebp]
	push	ecx
	call	??$destroy@PAD@?$allocator_traits@V?$allocator@D@std@@@std@@SAXAAV?$allocator@D@1@PAPAD@Z ; std::allocator_traits<std::allocator<char> >::destroy<char *>
	add	esp, 8

; 910  : 		}

	mov	esp, ebp
	pop	ebp
	ret	4
??$destroy@PAD@?$_Wrap_alloc@V?$allocator@D@std@@@std@@QAEXPAPAD@Z ENDP ; std::_Wrap_alloc<std::allocator<char> >::destroy<char *>
_TEXT	ENDS
; Function compile flags: /Odtp
; File c:\program files (x86)\microsoft visual studio 11.0\vc\include\xmemory0
;	COMDAT ??$construct@PADAAPAD@?$_Wrap_alloc@V?$allocator@D@std@@@std@@QAEXPAPADAAPAD@Z
_TEXT	SEGMENT
_this$ = -4						; size = 4
__Ptr$ = 8						; size = 4
__V0$ = 12						; size = 4
??$construct@PADAAPAD@?$_Wrap_alloc@V?$allocator@D@std@@@std@@QAEXPAPADAAPAD@Z PROC ; std::_Wrap_alloc<std::allocator<char> >::construct<char *,char * &>, COMDAT
; _this$ = ecx

; 903  : _VARIADIC_EXPAND_0X(_WRAP_ALLOC_CONSTRUCT, , , , )

	push	ebp
	mov	ebp, esp
	push	ecx
	mov	DWORD PTR _this$[ebp], ecx
	mov	eax, DWORD PTR __V0$[ebp]
	push	eax
	call	??$forward@AAPAD@std@@YAAAPADAAPAD@Z	; std::forward<char * &>
	add	esp, 4
	push	eax
	mov	ecx, DWORD PTR __Ptr$[ebp]
	push	ecx
	mov	edx, DWORD PTR _this$[ebp]
	push	edx
	call	??$construct@PADAAPAD@?$allocator_traits@V?$allocator@D@std@@@std@@SAXAAV?$allocator@D@1@PAPADAAPAD@Z ; std::allocator_traits<std::allocator<char> >::construct<char *,char * &>
	add	esp, 12					; 0000000cH
	mov	esp, ebp
	pop	ebp
	ret	8
??$construct@PADAAPAD@?$_Wrap_alloc@V?$allocator@D@std@@@std@@QAEXPAPADAAPAD@Z ENDP ; std::_Wrap_alloc<std::allocator<char> >::construct<char *,char * &>
_TEXT	ENDS
; Function compile flags: /Odtp
;	COMDAT ??_G_System_error_category@std@@UAEPAXI@Z
_TEXT	SEGMENT
_this$ = -4						; size = 4
___flags$ = 8						; size = 4
??_G_System_error_category@std@@UAEPAXI@Z PROC		; std::_System_error_category::`scalar deleting destructor', COMDAT
; _this$ = ecx
	push	ebp
	mov	ebp, esp
	push	ecx
	mov	DWORD PTR _this$[ebp], ecx
	mov	ecx, DWORD PTR _this$[ebp]
	call	??1_System_error_category@std@@UAE@XZ
	mov	eax, DWORD PTR ___flags$[ebp]
	and	eax, 1
	je	SHORT $LN1@scalar
	mov	ecx, DWORD PTR _this$[ebp]
	push	ecx
	call	??3@YAXPAX@Z				; operator delete
	add	esp, 4
$LN1@scalar:
	mov	eax, DWORD PTR _this$[ebp]
	mov	esp, ebp
	pop	ebp
	ret	4
??_G_System_error_category@std@@UAEPAXI@Z ENDP		; std::_System_error_category::`scalar deleting destructor'
_TEXT	ENDS
; Function compile flags: /Odtp
;	COMDAT ??1_System_error_category@std@@UAE@XZ
_TEXT	SEGMENT
_this$ = -4						; size = 4
??1_System_error_category@std@@UAE@XZ PROC		; std::_System_error_category::~_System_error_category, COMDAT
; _this$ = ecx
	push	ebp
	mov	ebp, esp
	push	ecx
	mov	DWORD PTR _this$[ebp], ecx
	mov	ecx, DWORD PTR _this$[ebp]
	call	??1_Generic_error_category@std@@UAE@XZ
	mov	esp, ebp
	pop	ebp
	ret	0
??1_System_error_category@std@@UAE@XZ ENDP		; std::_System_error_category::~_System_error_category
_TEXT	ENDS
; Function compile flags: /Odtp
; File c:\program files (x86)\microsoft visual studio 11.0\vc\include\system_error
;	COMDAT ?default_error_condition@_System_error_category@std@@UBE?AVerror_condition@2@H@Z
_TEXT	SEGMENT
_this$ = -4						; size = 4
___$ReturnUdt$ = 8					; size = 4
__Errval$ = 12						; size = 4
?default_error_condition@_System_error_category@std@@UBE?AVerror_condition@2@H@Z PROC ; std::_System_error_category::default_error_condition, COMDAT
; _this$ = ecx

; 641  : 		{	// make error_condition for error code (generic if possible)

	push	ebp
	mov	ebp, esp
	push	ecx
	mov	DWORD PTR _this$[ebp], ecx

; 642  : 		if (_Syserror_map(_Errval))

	mov	eax, DWORD PTR __Errval$[ebp]
	push	eax
	call	?_Syserror_map@std@@YAPBDH@Z		; std::_Syserror_map
	add	esp, 4
	test	eax, eax
	je	SHORT $LN2@default_er

; 643  : 			return (error_condition(_Errval, generic_category()));

	call	?generic_category@std@@YAABVerror_category@1@XZ ; std::generic_category
	push	eax
	mov	ecx, DWORD PTR __Errval$[ebp]
	push	ecx
	mov	ecx, DWORD PTR ___$ReturnUdt$[ebp]
	call	??0error_condition@std@@QAE@HABVerror_category@1@@Z ; std::error_condition::error_condition
	mov	eax, DWORD PTR ___$ReturnUdt$[ebp]
	jmp	SHORT $LN3@default_er

; 644  : 		else

	jmp	SHORT $LN3@default_er
$LN2@default_er:

; 645  : 			return (error_condition(_Errval, system_category()));

	call	?system_category@std@@YAABVerror_category@1@XZ ; std::system_category
	push	eax
	mov	edx, DWORD PTR __Errval$[ebp]
	push	edx
	mov	ecx, DWORD PTR ___$ReturnUdt$[ebp]
	call	??0error_condition@std@@QAE@HABVerror_category@1@@Z ; std::error_condition::error_condition
	mov	eax, DWORD PTR ___$ReturnUdt$[ebp]
$LN3@default_er:

; 646  : 		}

	mov	esp, ebp
	pop	ebp
	ret	8
?default_error_condition@_System_error_category@std@@UBE?AVerror_condition@2@H@Z ENDP ; std::_System_error_category::default_error_condition
_TEXT	ENDS
; Function compile flags: /Odtp
; File c:\program files (x86)\microsoft visual studio 11.0\vc\include\system_error
;	COMDAT ?message@_System_error_category@std@@UBE?AV?$basic_string@DU?$char_traits@D@std@@V?$allocator@D@2@@2@H@Z
_TEXT	SEGMENT
_this$ = -16						; size = 4
$T1 = -12						; size = 4
tv69 = -8						; size = 4
__Name$ = -4						; size = 4
___$ReturnUdt$ = 8					; size = 4
__Errcode$ = 12						; size = 4
?message@_System_error_category@std@@UBE?AV?$basic_string@DU?$char_traits@D@std@@V?$allocator@D@2@@2@H@Z PROC ; std::_System_error_category::message, COMDAT
; _this$ = ecx

; 634  : 		{	// convert to name of error

	push	ebp
	mov	ebp, esp
	sub	esp, 16					; 00000010H
	mov	DWORD PTR _this$[ebp], ecx
	mov	DWORD PTR $T1[ebp], 0

; 635  : 		const char *_Name = _Winerror_map(_Errcode);

	mov	eax, DWORD PTR __Errcode$[ebp]
	push	eax
	call	?_Winerror_map@std@@YAPBDH@Z		; std::_Winerror_map
	add	esp, 4
	mov	DWORD PTR __Name$[ebp], eax

; 636  : 		return (string(_Name != 0 ? _Name : "unknown error"));

	cmp	DWORD PTR __Name$[ebp], 0
	je	SHORT $LN3@message
	mov	ecx, DWORD PTR __Name$[ebp]
	mov	DWORD PTR tv69[ebp], ecx
	jmp	SHORT $LN4@message
$LN3@message:
	mov	DWORD PTR tv69[ebp], OFFSET ??_C@_0O@BFJCFAAK@unknown?5error?$AA@
$LN4@message:
	mov	edx, DWORD PTR tv69[ebp]
	push	edx
	mov	ecx, DWORD PTR ___$ReturnUdt$[ebp]
	call	??0?$basic_string@DU?$char_traits@D@std@@V?$allocator@D@2@@std@@QAE@PBD@Z ; std::basic_string<char,std::char_traits<char>,std::allocator<char> >::basic_string<char,std::char_traits<char>,std::allocator<char> >
	mov	eax, DWORD PTR $T1[ebp]
	or	eax, 1
	mov	DWORD PTR $T1[ebp], eax
	mov	eax, DWORD PTR ___$ReturnUdt$[ebp]

; 637  : 		}

	mov	esp, ebp
	pop	ebp
	ret	8
?message@_System_error_category@std@@UBE?AV?$basic_string@DU?$char_traits@D@std@@V?$allocator@D@2@@2@H@Z ENDP ; std::_System_error_category::message
_TEXT	ENDS
; Function compile flags: /Odtp
; File c:\program files (x86)\microsoft visual studio 11.0\vc\include\system_error
;	COMDAT ?name@_System_error_category@std@@UBEPBDXZ
_TEXT	SEGMENT
_this$ = -4						; size = 4
?name@_System_error_category@std@@UBEPBDXZ PROC		; std::_System_error_category::name, COMDAT
; _this$ = ecx

; 629  : 		{	// get name of category

	push	ebp
	mov	ebp, esp
	push	ecx
	mov	DWORD PTR _this$[ebp], ecx

; 630  : 		return ("system");

	mov	eax, OFFSET ??_C@_06FHFOAHML@system?$AA@

; 631  : 		}

	mov	esp, ebp
	pop	ebp
	ret	0
?name@_System_error_category@std@@UBEPBDXZ ENDP		; std::_System_error_category::name
_TEXT	ENDS
; Function compile flags: /Odtp
; File c:\program files (x86)\microsoft visual studio 11.0\vc\include\system_error
;	COMDAT ??0_System_error_category@std@@QAE@XZ
_TEXT	SEGMENT
_this$ = -4						; size = 4
??0_System_error_category@std@@QAE@XZ PROC		; std::_System_error_category::_System_error_category, COMDAT
; _this$ = ecx

; 624  : 	_System_error_category()

	push	ebp
	mov	ebp, esp
	push	ecx
	mov	DWORD PTR _this$[ebp], ecx
	mov	ecx, DWORD PTR _this$[ebp]
	call	??0_Generic_error_category@std@@QAE@XZ	; std::_Generic_error_category::_Generic_error_category
	mov	eax, DWORD PTR _this$[ebp]
	mov	DWORD PTR [eax], OFFSET ??_7_System_error_category@std@@6B@

; 625  : 		{	// default constructor
; 626  : 		}

	mov	eax, DWORD PTR _this$[ebp]
	mov	esp, ebp
	pop	ebp
	ret	0
??0_System_error_category@std@@QAE@XZ ENDP		; std::_System_error_category::_System_error_category
_TEXT	ENDS
; Function compile flags: /Odtp
;	COMDAT ??_G_Iostream_error_category@std@@UAEPAXI@Z
_TEXT	SEGMENT
_this$ = -4						; size = 4
___flags$ = 8						; size = 4
??_G_Iostream_error_category@std@@UAEPAXI@Z PROC	; std::_Iostream_error_category::`scalar deleting destructor', COMDAT
; _this$ = ecx
	push	ebp
	mov	ebp, esp
	push	ecx
	mov	DWORD PTR _this$[ebp], ecx
	mov	ecx, DWORD PTR _this$[ebp]
	call	??1_Iostream_error_category@std@@UAE@XZ
	mov	eax, DWORD PTR ___flags$[ebp]
	and	eax, 1
	je	SHORT $LN1@scalar
	mov	ecx, DWORD PTR _this$[ebp]
	push	ecx
	call	??3@YAXPAX@Z				; operator delete
	add	esp, 4
$LN1@scalar:
	mov	eax, DWORD PTR _this$[ebp]
	mov	esp, ebp
	pop	ebp
	ret	4
??_G_Iostream_error_category@std@@UAEPAXI@Z ENDP	; std::_Iostream_error_category::`scalar deleting destructor'
_TEXT	ENDS
; Function compile flags: /Odtp
;	COMDAT ??1_Iostream_error_category@std@@UAE@XZ
_TEXT	SEGMENT
_this$ = -4						; size = 4
??1_Iostream_error_category@std@@UAE@XZ PROC		; std::_Iostream_error_category::~_Iostream_error_category, COMDAT
; _this$ = ecx
	push	ebp
	mov	ebp, esp
	push	ecx
	mov	DWORD PTR _this$[ebp], ecx
	mov	ecx, DWORD PTR _this$[ebp]
	call	??1_Generic_error_category@std@@UAE@XZ
	mov	esp, ebp
	pop	ebp
	ret	0
??1_Iostream_error_category@std@@UAE@XZ ENDP		; std::_Iostream_error_category::~_Iostream_error_category
_TEXT	ENDS
; Function compile flags: /Odtp
; File c:\program files (x86)\microsoft visual studio 11.0\vc\include\system_error
;	COMDAT ?message@_Iostream_error_category@std@@UBE?AV?$basic_string@DU?$char_traits@D@std@@V?$allocator@D@2@@2@H@Z
_TEXT	SEGMENT
_this$ = -8						; size = 4
$T1 = -4						; size = 4
___$ReturnUdt$ = 8					; size = 4
__Errcode$ = 12						; size = 4
?message@_Iostream_error_category@std@@UBE?AV?$basic_string@DU?$char_traits@D@std@@V?$allocator@D@2@@2@H@Z PROC ; std::_Iostream_error_category::message, COMDAT
; _this$ = ecx

; 611  : 		{	// convert to name of error

	push	ebp
	mov	ebp, esp
	sub	esp, 8
	mov	DWORD PTR _this$[ebp], ecx
	mov	DWORD PTR $T1[ebp], 0

; 612  : 		if (_Errcode == (int)io_errc::stream)

	cmp	DWORD PTR __Errcode$[ebp], 1
	jne	SHORT $LN2@message

; 613  : 			return ("iostream stream error");

	push	OFFSET ??_C@_0BG@PADBLCHM@iostream?5stream?5error?$AA@
	mov	ecx, DWORD PTR ___$ReturnUdt$[ebp]
	call	??0?$basic_string@DU?$char_traits@D@std@@V?$allocator@D@2@@std@@QAE@PBD@Z ; std::basic_string<char,std::char_traits<char>,std::allocator<char> >::basic_string<char,std::char_traits<char>,std::allocator<char> >
	mov	eax, DWORD PTR $T1[ebp]
	or	eax, 1
	mov	DWORD PTR $T1[ebp], eax
	mov	eax, DWORD PTR ___$ReturnUdt$[ebp]
	jmp	SHORT $LN3@message

; 614  : 		else

	jmp	SHORT $LN3@message
$LN2@message:

; 615  : 			return (_Generic_error_category::message(_Errcode));

	mov	ecx, DWORD PTR __Errcode$[ebp]
	push	ecx
	mov	edx, DWORD PTR ___$ReturnUdt$[ebp]
	push	edx
	mov	ecx, DWORD PTR _this$[ebp]
	call	?message@_Generic_error_category@std@@UBE?AV?$basic_string@DU?$char_traits@D@std@@V?$allocator@D@2@@2@H@Z ; std::_Generic_error_category::message
	mov	eax, DWORD PTR $T1[ebp]
	or	eax, 1
	mov	DWORD PTR $T1[ebp], eax
	mov	eax, DWORD PTR ___$ReturnUdt$[ebp]
$LN3@message:

; 616  : 		}

	mov	esp, ebp
	pop	ebp
	ret	8
?message@_Iostream_error_category@std@@UBE?AV?$basic_string@DU?$char_traits@D@std@@V?$allocator@D@2@@2@H@Z ENDP ; std::_Iostream_error_category::message
_TEXT	ENDS
; Function compile flags: /Odtp
; File c:\program files (x86)\microsoft visual studio 11.0\vc\include\system_error
;	COMDAT ?name@_Iostream_error_category@std@@UBEPBDXZ
_TEXT	SEGMENT
_this$ = -4						; size = 4
?name@_Iostream_error_category@std@@UBEPBDXZ PROC	; std::_Iostream_error_category::name, COMDAT
; _this$ = ecx

; 606  : 		{	// get name of category

	push	ebp
	mov	ebp, esp
	push	ecx
	mov	DWORD PTR _this$[ebp], ecx

; 607  : 		return ("iostream");

	mov	eax, OFFSET ??_C@_08LLGCOLLL@iostream?$AA@

; 608  : 		}

	mov	esp, ebp
	pop	ebp
	ret	0
?name@_Iostream_error_category@std@@UBEPBDXZ ENDP	; std::_Iostream_error_category::name
_TEXT	ENDS
; Function compile flags: /Odtp
; File c:\program files (x86)\microsoft visual studio 11.0\vc\include\system_error
;	COMDAT ??0_Iostream_error_category@std@@QAE@XZ
_TEXT	SEGMENT
_this$ = -4						; size = 4
??0_Iostream_error_category@std@@QAE@XZ PROC		; std::_Iostream_error_category::_Iostream_error_category, COMDAT
; _this$ = ecx

; 601  : 	_Iostream_error_category()

	push	ebp
	mov	ebp, esp
	push	ecx
	mov	DWORD PTR _this$[ebp], ecx
	mov	ecx, DWORD PTR _this$[ebp]
	call	??0_Generic_error_category@std@@QAE@XZ	; std::_Generic_error_category::_Generic_error_category
	mov	eax, DWORD PTR _this$[ebp]
	mov	DWORD PTR [eax], OFFSET ??_7_Iostream_error_category@std@@6B@

; 602  : 		{	// default constructor
; 603  : 		}

	mov	eax, DWORD PTR _this$[ebp]
	mov	esp, ebp
	pop	ebp
	ret	0
??0_Iostream_error_category@std@@QAE@XZ ENDP		; std::_Iostream_error_category::_Iostream_error_category
_TEXT	ENDS
; Function compile flags: /Odtp
;	COMDAT ??_G_Generic_error_category@std@@UAEPAXI@Z
_TEXT	SEGMENT
_this$ = -4						; size = 4
___flags$ = 8						; size = 4
??_G_Generic_error_category@std@@UAEPAXI@Z PROC		; std::_Generic_error_category::`scalar deleting destructor', COMDAT
; _this$ = ecx
	push	ebp
	mov	ebp, esp
	push	ecx
	mov	DWORD PTR _this$[ebp], ecx
	mov	ecx, DWORD PTR _this$[ebp]
	call	??1_Generic_error_category@std@@UAE@XZ
	mov	eax, DWORD PTR ___flags$[ebp]
	and	eax, 1
	je	SHORT $LN1@scalar
	mov	ecx, DWORD PTR _this$[ebp]
	push	ecx
	call	??3@YAXPAX@Z				; operator delete
	add	esp, 4
$LN1@scalar:
	mov	eax, DWORD PTR _this$[ebp]
	mov	esp, ebp
	pop	ebp
	ret	4
??_G_Generic_error_category@std@@UAEPAXI@Z ENDP		; std::_Generic_error_category::`scalar deleting destructor'
_TEXT	ENDS
; Function compile flags: /Odtp
;	COMDAT ??1_Generic_error_category@std@@UAE@XZ
_TEXT	SEGMENT
_this$ = -4						; size = 4
??1_Generic_error_category@std@@UAE@XZ PROC		; std::_Generic_error_category::~_Generic_error_category, COMDAT
; _this$ = ecx
	push	ebp
	mov	ebp, esp
	push	ecx
	mov	DWORD PTR _this$[ebp], ecx
	mov	ecx, DWORD PTR _this$[ebp]
	call	??1error_category@std@@UAE@XZ		; std::error_category::~error_category
	mov	esp, ebp
	pop	ebp
	ret	0
??1_Generic_error_category@std@@UAE@XZ ENDP		; std::_Generic_error_category::~_Generic_error_category
_TEXT	ENDS
; Function compile flags: /Odtp
; File c:\program files (x86)\microsoft visual studio 11.0\vc\include\system_error
;	COMDAT ?message@_Generic_error_category@std@@UBE?AV?$basic_string@DU?$char_traits@D@std@@V?$allocator@D@2@@2@H@Z
_TEXT	SEGMENT
_this$ = -16						; size = 4
$T1 = -12						; size = 4
tv69 = -8						; size = 4
__Name$ = -4						; size = 4
___$ReturnUdt$ = 8					; size = 4
__Errcode$ = 12						; size = 4
?message@_Generic_error_category@std@@UBE?AV?$basic_string@DU?$char_traits@D@std@@V?$allocator@D@2@@2@H@Z PROC ; std::_Generic_error_category::message, COMDAT
; _this$ = ecx

; 590  : 		{	// convert to name of error

	push	ebp
	mov	ebp, esp
	sub	esp, 16					; 00000010H
	mov	DWORD PTR _this$[ebp], ecx
	mov	DWORD PTR $T1[ebp], 0

; 591  : 		const char *_Name = _Syserror_map(_Errcode);

	mov	eax, DWORD PTR __Errcode$[ebp]
	push	eax
	call	?_Syserror_map@std@@YAPBDH@Z		; std::_Syserror_map
	add	esp, 4
	mov	DWORD PTR __Name$[ebp], eax

; 592  : 		return (string(_Name != 0 ? _Name : "unknown error"));

	cmp	DWORD PTR __Name$[ebp], 0
	je	SHORT $LN3@message
	mov	ecx, DWORD PTR __Name$[ebp]
	mov	DWORD PTR tv69[ebp], ecx
	jmp	SHORT $LN4@message
$LN3@message:
	mov	DWORD PTR tv69[ebp], OFFSET ??_C@_0O@BFJCFAAK@unknown?5error?$AA@
$LN4@message:
	mov	edx, DWORD PTR tv69[ebp]
	push	edx
	mov	ecx, DWORD PTR ___$ReturnUdt$[ebp]
	call	??0?$basic_string@DU?$char_traits@D@std@@V?$allocator@D@2@@std@@QAE@PBD@Z ; std::basic_string<char,std::char_traits<char>,std::allocator<char> >::basic_string<char,std::char_traits<char>,std::allocator<char> >
	mov	eax, DWORD PTR $T1[ebp]
	or	eax, 1
	mov	DWORD PTR $T1[ebp], eax
	mov	eax, DWORD PTR ___$ReturnUdt$[ebp]

; 593  : 		}

	mov	esp, ebp
	pop	ebp
	ret	8
?message@_Generic_error_category@std@@UBE?AV?$basic_string@DU?$char_traits@D@std@@V?$allocator@D@2@@2@H@Z ENDP ; std::_Generic_error_category::message
_TEXT	ENDS
; Function compile flags: /Odtp
; File c:\program files (x86)\microsoft visual studio 11.0\vc\include\system_error
;	COMDAT ?name@_Generic_error_category@std@@UBEPBDXZ
_TEXT	SEGMENT
_this$ = -4						; size = 4
?name@_Generic_error_category@std@@UBEPBDXZ PROC	; std::_Generic_error_category::name, COMDAT
; _this$ = ecx

; 585  : 		{	// get name of category

	push	ebp
	mov	ebp, esp
	push	ecx
	mov	DWORD PTR _this$[ebp], ecx

; 586  : 		return ("generic");

	mov	eax, OFFSET ??_C@_07DCLBNMLN@generic?$AA@

; 587  : 		}

	mov	esp, ebp
	pop	ebp
	ret	0
?name@_Generic_error_category@std@@UBEPBDXZ ENDP	; std::_Generic_error_category::name
_TEXT	ENDS
; Function compile flags: /Odtp
; File c:\program files (x86)\microsoft visual studio 11.0\vc\include\system_error
;	COMDAT ??0_Generic_error_category@std@@QAE@XZ
_TEXT	SEGMENT
_this$ = -4						; size = 4
??0_Generic_error_category@std@@QAE@XZ PROC		; std::_Generic_error_category::_Generic_error_category, COMDAT
; _this$ = ecx

; 580  : 	_Generic_error_category()

	push	ebp
	mov	ebp, esp
	push	ecx
	mov	DWORD PTR _this$[ebp], ecx
	mov	ecx, DWORD PTR _this$[ebp]
	call	??0error_category@std@@QAE@XZ		; std::error_category::error_category
	mov	eax, DWORD PTR _this$[ebp]
	mov	DWORD PTR [eax], OFFSET ??_7_Generic_error_category@std@@6B@

; 581  : 		{	// default constructor
; 582  : 		}

	mov	eax, DWORD PTR _this$[ebp]
	mov	esp, ebp
	pop	ebp
	ret	0
??0_Generic_error_category@std@@QAE@XZ ENDP		; std::_Generic_error_category::_Generic_error_category
_TEXT	ENDS
; Function compile flags: /Odtp
; File c:\program files (x86)\microsoft visual studio 11.0\vc\include\system_error
;	COMDAT ??8error_condition@std@@QBE_NABV01@@Z
_TEXT	SEGMENT
tv78 = -8						; size = 4
_this$ = -4						; size = 4
__Right$ = 8						; size = 4
??8error_condition@std@@QBE_NABV01@@Z PROC		; std::error_condition::operator==, COMDAT
; _this$ = ecx

; 376  : 		{	// test if *this == _Right

	push	ebp
	mov	ebp, esp
	sub	esp, 8
	push	esi
	mov	DWORD PTR _this$[ebp], ecx

; 377  : 		return (category() == _Right.category()
; 378  : 			&& value() == _Right.value());

	mov	ecx, DWORD PTR __Right$[ebp]
	call	?category@error_condition@std@@QBEABVerror_category@2@XZ ; std::error_condition::category
	push	eax
	mov	ecx, DWORD PTR _this$[ebp]
	call	?category@error_condition@std@@QBEABVerror_category@2@XZ ; std::error_condition::category
	mov	ecx, eax
	call	??8error_category@std@@QBE_NABV01@@Z	; std::error_category::operator==
	movzx	eax, al
	test	eax, eax
	je	SHORT $LN3@operator
	mov	ecx, DWORD PTR _this$[ebp]
	call	?value@error_condition@std@@QBEHXZ	; std::error_condition::value
	mov	esi, eax
	mov	ecx, DWORD PTR __Right$[ebp]
	call	?value@error_condition@std@@QBEHXZ	; std::error_condition::value
	cmp	esi, eax
	jne	SHORT $LN3@operator
	mov	DWORD PTR tv78[ebp], 1
	jmp	SHORT $LN4@operator
$LN3@operator:
	mov	DWORD PTR tv78[ebp], 0
$LN4@operator:
	mov	al, BYTE PTR tv78[ebp]

; 379  : 		}

	pop	esi
	mov	esp, ebp
	pop	ebp
	ret	4
??8error_condition@std@@QBE_NABV01@@Z ENDP		; std::error_condition::operator==
_TEXT	ENDS
; Function compile flags: /Odtp
; File c:\program files (x86)\microsoft visual studio 11.0\vc\include\system_error
;	COMDAT ?category@error_condition@std@@QBEABVerror_category@2@XZ
_TEXT	SEGMENT
_this$ = -4						; size = 4
?category@error_condition@std@@QBEABVerror_category@2@XZ PROC ; std::error_condition::category, COMDAT
; _this$ = ecx

; 354  : 		{	// get category

	push	ebp
	mov	ebp, esp
	push	ecx
	mov	DWORD PTR _this$[ebp], ecx

; 355  : 		return (*_Mycat);

	mov	eax, DWORD PTR _this$[ebp]
	mov	eax, DWORD PTR [eax+4]

; 356  : 		}

	mov	esp, ebp
	pop	ebp
	ret	0
?category@error_condition@std@@QBEABVerror_category@2@XZ ENDP ; std::error_condition::category
_TEXT	ENDS
; Function compile flags: /Odtp
; File c:\program files (x86)\microsoft visual studio 11.0\vc\include\system_error
;	COMDAT ?value@error_condition@std@@QBEHXZ
_TEXT	SEGMENT
_this$ = -4						; size = 4
?value@error_condition@std@@QBEHXZ PROC			; std::error_condition::value, COMDAT
; _this$ = ecx

; 349  : 		{	// get error code

	push	ebp
	mov	ebp, esp
	push	ecx
	mov	DWORD PTR _this$[ebp], ecx

; 350  : 		return (_Myval);

	mov	eax, DWORD PTR _this$[ebp]
	mov	eax, DWORD PTR [eax]

; 351  : 		}

	mov	esp, ebp
	pop	ebp
	ret	0
?value@error_condition@std@@QBEHXZ ENDP			; std::error_condition::value
_TEXT	ENDS
; Function compile flags: /Odtp
; File c:\program files (x86)\microsoft visual studio 11.0\vc\include\system_error
;	COMDAT ??0error_condition@std@@QAE@HABVerror_category@1@@Z
_TEXT	SEGMENT
_this$ = -4						; size = 4
__Val$ = 8						; size = 4
__Cat$ = 12						; size = 4
??0error_condition@std@@QAE@HABVerror_category@1@@Z PROC ; std::error_condition::error_condition, COMDAT
; _this$ = ecx

; 316  : 		{	// construct from error code and category

	push	ebp
	mov	ebp, esp
	push	ecx
	mov	DWORD PTR _this$[ebp], ecx
	mov	eax, DWORD PTR _this$[ebp]
	mov	ecx, DWORD PTR __Val$[ebp]
	mov	DWORD PTR [eax], ecx
	mov	edx, DWORD PTR _this$[ebp]
	mov	eax, DWORD PTR __Cat$[ebp]
	mov	DWORD PTR [edx+4], eax

; 317  : 		}

	mov	eax, DWORD PTR _this$[ebp]
	mov	esp, ebp
	pop	ebp
	ret	8
??0error_condition@std@@QAE@HABVerror_category@1@@Z ENDP ; std::error_condition::error_condition
_TEXT	ENDS
; Function compile flags: /Odtp
; File c:\program files (x86)\microsoft visual studio 11.0\vc\include\system_error
;	COMDAT ?category@error_code@std@@QBEABVerror_category@2@XZ
_TEXT	SEGMENT
_this$ = -4						; size = 4
?category@error_code@std@@QBEABVerror_category@2@XZ PROC ; std::error_code::category, COMDAT
; _this$ = ecx

; 256  : 		{	// get category

	push	ebp
	mov	ebp, esp
	push	ecx
	mov	DWORD PTR _this$[ebp], ecx

; 257  : 		return (*_Mycat);

	mov	eax, DWORD PTR _this$[ebp]
	mov	eax, DWORD PTR [eax+4]

; 258  : 		}

	mov	esp, ebp
	pop	ebp
	ret	0
?category@error_code@std@@QBEABVerror_category@2@XZ ENDP ; std::error_code::category
_TEXT	ENDS
; Function compile flags: /Odtp
; File c:\program files (x86)\microsoft visual studio 11.0\vc\include\system_error
;	COMDAT ?value@error_code@std@@QBEHXZ
_TEXT	SEGMENT
_this$ = -4						; size = 4
?value@error_code@std@@QBEHXZ PROC			; std::error_code::value, COMDAT
; _this$ = ecx

; 251  : 		{	// get error code

	push	ebp
	mov	ebp, esp
	push	ecx
	mov	DWORD PTR _this$[ebp], ecx

; 252  : 		return (_Myval);

	mov	eax, DWORD PTR _this$[ebp]
	mov	eax, DWORD PTR [eax]

; 253  : 		}

	mov	esp, ebp
	pop	ebp
	ret	0
?value@error_code@std@@QBEHXZ ENDP			; std::error_code::value
_TEXT	ENDS
; Function compile flags: /Odtp
;	COMDAT ??_Gerror_category@std@@UAEPAXI@Z
_TEXT	SEGMENT
_this$ = -4						; size = 4
___flags$ = 8						; size = 4
??_Gerror_category@std@@UAEPAXI@Z PROC			; std::error_category::`scalar deleting destructor', COMDAT
; _this$ = ecx
	push	ebp
	mov	ebp, esp
	push	ecx
	mov	DWORD PTR _this$[ebp], ecx
	mov	ecx, DWORD PTR _this$[ebp]
	call	??1error_category@std@@UAE@XZ		; std::error_category::~error_category
	mov	eax, DWORD PTR ___flags$[ebp]
	and	eax, 1
	je	SHORT $LN1@scalar
	mov	ecx, DWORD PTR _this$[ebp]
	push	ecx
	call	??3@YAXPAX@Z				; operator delete
	add	esp, 4
$LN1@scalar:
	mov	eax, DWORD PTR _this$[ebp]
	mov	esp, ebp
	pop	ebp
	ret	4
??_Gerror_category@std@@UAEPAXI@Z ENDP			; std::error_category::`scalar deleting destructor'
_TEXT	ENDS
; Function compile flags: /Odtp
; File c:\program files (x86)\microsoft visual studio 11.0\vc\include\system_error
;	COMDAT ??8error_category@std@@QBE_NABV01@@Z
_TEXT	SEGMENT
_this$ = -8						; size = 4
tv65 = -4						; size = 4
__Right$ = 8						; size = 4
??8error_category@std@@QBE_NABV01@@Z PROC		; std::error_category::operator==, COMDAT
; _this$ = ecx

; 184  : 		{	// compare categories for equality

	push	ebp
	mov	ebp, esp
	sub	esp, 8
	mov	DWORD PTR _this$[ebp], ecx

; 185  : 		return (this == &_Right);

	mov	eax, DWORD PTR _this$[ebp]
	cmp	eax, DWORD PTR __Right$[ebp]
	jne	SHORT $LN3@operator
	mov	DWORD PTR tv65[ebp], 1
	jmp	SHORT $LN4@operator
$LN3@operator:
	mov	DWORD PTR tv65[ebp], 0
$LN4@operator:
	mov	al, BYTE PTR tv65[ebp]

; 186  : 		}

	mov	esp, ebp
	pop	ebp
	ret	4
??8error_category@std@@QBE_NABV01@@Z ENDP		; std::error_category::operator==
_TEXT	ENDS
; Function compile flags: /Odtp
; File c:\program files (x86)\microsoft visual studio 11.0\vc\include\system_error
;	COMDAT ?equivalent@error_category@std@@UBE_NABVerror_code@2@H@Z
_TEXT	SEGMENT
_this$ = -8						; size = 4
tv74 = -4						; size = 4
__Code$ = 8						; size = 4
__Errval$ = 12						; size = 4
?equivalent@error_category@std@@UBE_NABVerror_code@2@H@Z PROC ; std::error_category::equivalent, COMDAT
; _this$ = ecx

; 415  : 	{	// test if conditions same for this category

	push	ebp
	mov	ebp, esp
	sub	esp, 8
	mov	DWORD PTR _this$[ebp], ecx

; 416  : 	return (*this == _Code.category() && _Code.value() == _Errval);

	mov	ecx, DWORD PTR __Code$[ebp]
	call	?category@error_code@std@@QBEABVerror_category@2@XZ ; std::error_code::category
	push	eax
	mov	ecx, DWORD PTR _this$[ebp]
	call	??8error_category@std@@QBE_NABV01@@Z	; std::error_category::operator==
	movzx	eax, al
	test	eax, eax
	je	SHORT $LN3@equivalent
	mov	ecx, DWORD PTR __Code$[ebp]
	call	?value@error_code@std@@QBEHXZ		; std::error_code::value
	cmp	eax, DWORD PTR __Errval$[ebp]
	jne	SHORT $LN3@equivalent
	mov	DWORD PTR tv74[ebp], 1
	jmp	SHORT $LN4@equivalent
$LN3@equivalent:
	mov	DWORD PTR tv74[ebp], 0
$LN4@equivalent:
	mov	al, BYTE PTR tv74[ebp]

; 417  : 	}

	mov	esp, ebp
	pop	ebp
	ret	8
?equivalent@error_category@std@@UBE_NABVerror_code@2@H@Z ENDP ; std::error_category::equivalent
_TEXT	ENDS
; Function compile flags: /Odtp
; File c:\program files (x86)\microsoft visual studio 11.0\vc\include\system_error
;	COMDAT ?equivalent@error_category@std@@UBE_NHABVerror_condition@2@@Z
_TEXT	SEGMENT
$T1 = -12						; size = 8
_this$ = -4						; size = 4
__Errval$ = 8						; size = 4
__Cond$ = 12						; size = 4
?equivalent@error_category@std@@UBE_NHABVerror_condition@2@@Z PROC ; std::error_category::equivalent, COMDAT
; _this$ = ecx

; 408  : 	{	// test if error code same condition

	push	ebp
	mov	ebp, esp
	sub	esp, 12					; 0000000cH
	mov	DWORD PTR _this$[ebp], ecx

; 409  : 	return (default_error_condition(_Errval) == _Cond);

	mov	eax, DWORD PTR __Cond$[ebp]
	push	eax
	mov	ecx, DWORD PTR __Errval$[ebp]
	push	ecx
	lea	edx, DWORD PTR $T1[ebp]
	push	edx
	mov	eax, DWORD PTR _this$[ebp]
	mov	edx, DWORD PTR [eax]
	mov	ecx, DWORD PTR _this$[ebp]
	mov	eax, DWORD PTR [edx+12]
	call	eax
	mov	ecx, eax
	call	??8error_condition@std@@QBE_NABV01@@Z	; std::error_condition::operator==

; 410  : 	}

	mov	esp, ebp
	pop	ebp
	ret	8
?equivalent@error_category@std@@UBE_NHABVerror_condition@2@@Z ENDP ; std::error_category::equivalent
_TEXT	ENDS
; Function compile flags: /Odtp
; File c:\program files (x86)\microsoft visual studio 11.0\vc\include\system_error
;	COMDAT ?default_error_condition@error_category@std@@UBE?AVerror_condition@2@H@Z
_TEXT	SEGMENT
_this$ = -4						; size = 4
___$ReturnUdt$ = 8					; size = 4
__Errval$ = 12						; size = 4
?default_error_condition@error_category@std@@UBE?AVerror_condition@2@H@Z PROC ; std::error_category::default_error_condition, COMDAT
; _this$ = ecx

; 401  : 	{	// make error_condition for error code

	push	ebp
	mov	ebp, esp
	push	ecx
	mov	DWORD PTR _this$[ebp], ecx

; 402  : 	return (error_condition(_Errval, *this));

	mov	eax, DWORD PTR _this$[ebp]
	push	eax
	mov	ecx, DWORD PTR __Errval$[ebp]
	push	ecx
	mov	ecx, DWORD PTR ___$ReturnUdt$[ebp]
	call	??0error_condition@std@@QAE@HABVerror_category@1@@Z ; std::error_condition::error_condition
	mov	eax, DWORD PTR ___$ReturnUdt$[ebp]

; 403  : 	}

	mov	esp, ebp
	pop	ebp
	ret	8
?default_error_condition@error_category@std@@UBE?AVerror_condition@2@H@Z ENDP ; std::error_category::default_error_condition
_TEXT	ENDS
; Function compile flags: /Odtp
; File c:\program files (x86)\microsoft visual studio 11.0\vc\include\system_error
;	COMDAT ??1error_category@std@@UAE@XZ
_TEXT	SEGMENT
_this$ = -4						; size = 4
??1error_category@std@@UAE@XZ PROC			; std::error_category::~error_category, COMDAT
; _this$ = ecx

; 167  : 		{	// destroy the object

	push	ebp
	mov	ebp, esp
	push	ecx
	mov	DWORD PTR _this$[ebp], ecx
	mov	eax, DWORD PTR _this$[ebp]
	mov	DWORD PTR [eax], OFFSET ??_7error_category@std@@6B@

; 168  : 		}

	mov	esp, ebp
	pop	ebp
	ret	0
??1error_category@std@@UAE@XZ ENDP			; std::error_category::~error_category
_TEXT	ENDS
; Function compile flags: /Odtp
; File c:\program files (x86)\microsoft visual studio 11.0\vc\include\system_error
;	COMDAT ??0error_category@std@@QAE@XZ
_TEXT	SEGMENT
_this$ = -4						; size = 4
??0error_category@std@@QAE@XZ PROC			; std::error_category::error_category, COMDAT
; _this$ = ecx

; 162  : 	error_category()

	push	ebp
	mov	ebp, esp
	push	ecx
	mov	DWORD PTR _this$[ebp], ecx
	mov	eax, DWORD PTR _this$[ebp]
	mov	DWORD PTR [eax], OFFSET ??_7error_category@std@@6B@

; 163  : 		{	// default constructor
; 164  : 		}

	mov	eax, DWORD PTR _this$[ebp]
	mov	esp, ebp
	pop	ebp
	ret	0
??0error_category@std@@QAE@XZ ENDP			; std::error_category::error_category
_TEXT	ENDS
; Function compile flags: /Odtp
; File c:\program files (x86)\microsoft visual studio 11.0\vc\include\system_error
;	COMDAT ?system_category@std@@YAABVerror_category@1@XZ
_TEXT	SEGMENT
?system_category@std@@YAABVerror_category@1@XZ PROC	; std::system_category, COMDAT

; 679  : 	{	// get system_category

	push	ebp
	mov	ebp, esp

; 680  : 	return (_Error_objects<int>::_System_object);

	mov	eax, OFFSET ?_System_object@?$_Error_objects@H@std@@2V_System_error_category@2@A ; std::_Error_objects<int>::_System_object

; 681  : 	}

	pop	ebp
	ret	0
?system_category@std@@YAABVerror_category@1@XZ ENDP	; std::system_category
_TEXT	ENDS
; Function compile flags: /Odtp
; File c:\program files (x86)\microsoft visual studio 11.0\vc\include\system_error
;	COMDAT ?generic_category@std@@YAABVerror_category@1@XZ
_TEXT	SEGMENT
?generic_category@std@@YAABVerror_category@1@XZ PROC	; std::generic_category, COMDAT

; 669  : 	{	// get generic_category

	push	ebp
	mov	ebp, esp

; 670  : 	return (_Error_objects<int>::_Generic_object);

	mov	eax, OFFSET ?_Generic_object@?$_Error_objects@H@std@@2V_Generic_error_category@2@A ; std::_Error_objects<int>::_Generic_object

; 671  : 	}

	pop	ebp
	ret	0
?generic_category@std@@YAABVerror_category@1@XZ ENDP	; std::generic_category
_TEXT	ENDS
; Function compile flags: /Odtp
; File c:\program files (x86)\microsoft visual studio 11.0\vc\include\xlocale
;	COMDAT ??0id@locale@std@@QAE@I@Z
_TEXT	SEGMENT
_this$ = -4						; size = 4
__Val$ = 8						; size = 4
??0id@locale@std@@QAE@I@Z PROC				; std::locale::id::id, COMDAT
; _this$ = ecx

; 74   : 			{	// construct with specified stamp value

	push	ebp
	mov	ebp, esp
	push	ecx
	mov	DWORD PTR _this$[ebp], ecx
	mov	eax, DWORD PTR _this$[ebp]
	mov	ecx, DWORD PTR __Val$[ebp]
	mov	DWORD PTR [eax], ecx

; 75   : 			}

	mov	eax, DWORD PTR _this$[ebp]
	mov	esp, ebp
	pop	ebp
	ret	4
??0id@locale@std@@QAE@I@Z ENDP				; std::locale::id::id
_TEXT	ENDS
; Function compile flags: /Odtp
; File c:\program files (x86)\microsoft visual studio 11.0\vc\include\xstring
;	COMDAT ?_Xran@?$basic_string@DU?$char_traits@D@std@@V?$allocator@D@2@@std@@QBEXXZ
_TEXT	SEGMENT
_this$ = -4						; size = 4
?_Xran@?$basic_string@DU?$char_traits@D@std@@V?$allocator@D@2@@std@@QBEXXZ PROC ; std::basic_string<char,std::char_traits<char>,std::allocator<char> >::_Xran, COMDAT
; _this$ = ecx

; 2275 : 		{	// report an out_of_range error

	push	ebp
	mov	ebp, esp
	push	ecx
	mov	DWORD PTR _this$[ebp], ecx

; 2276 : 		_Xout_of_range("invalid string position");

	push	OFFSET ??_C@_0BI@CFPLBAOH@invalid?5string?5position?$AA@
	call	?_Xout_of_range@std@@YAXPBD@Z		; std::_Xout_of_range
$LN2@Xran:

; 2277 : 		}

	mov	esp, ebp
	pop	ebp
	ret	0
?_Xran@?$basic_string@DU?$char_traits@D@std@@V?$allocator@D@2@@std@@QBEXXZ ENDP ; std::basic_string<char,std::char_traits<char>,std::allocator<char> >::_Xran
_TEXT	ENDS
; Function compile flags: /Odtp
; File c:\program files (x86)\microsoft visual studio 11.0\vc\include\xstring
;	COMDAT ?_Xlen@?$basic_string@DU?$char_traits@D@std@@V?$allocator@D@2@@std@@QBEXXZ
_TEXT	SEGMENT
_this$ = -4						; size = 4
?_Xlen@?$basic_string@DU?$char_traits@D@std@@V?$allocator@D@2@@std@@QBEXXZ PROC ; std::basic_string<char,std::char_traits<char>,std::allocator<char> >::_Xlen, COMDAT
; _this$ = ecx

; 2270 : 		{	// report a length_error

	push	ebp
	mov	ebp, esp
	push	ecx
	mov	DWORD PTR _this$[ebp], ecx

; 2271 : 		_Xlength_error("string too long");

	push	OFFSET ??_C@_0BA@JFNIOLAK@string?5too?5long?$AA@
	call	?_Xlength_error@std@@YAXPBD@Z		; std::_Xlength_error
$LN2@Xlen:

; 2272 : 		}

	mov	esp, ebp
	pop	ebp
	ret	0
?_Xlen@?$basic_string@DU?$char_traits@D@std@@V?$allocator@D@2@@std@@QBEXXZ ENDP ; std::basic_string<char,std::char_traits<char>,std::allocator<char> >::_Xlen
_TEXT	ENDS
; Function compile flags: /Odtp
; File c:\program files (x86)\microsoft visual studio 11.0\vc\include\xstring
;	COMDAT ?_Tidy@?$basic_string@DU?$char_traits@D@std@@V?$allocator@D@2@@std@@QAEX_NI@Z
_TEXT	SEGMENT
__Ptr$1 = -12						; size = 4
_this$ = -8						; size = 4
$T2 = -2						; size = 1
$T3 = -1						; size = 1
__Built$ = 8						; size = 1
__Newsize$ = 12						; size = 4
?_Tidy@?$basic_string@DU?$char_traits@D@std@@V?$allocator@D@2@@std@@QAEX_NI@Z PROC ; std::basic_string<char,std::char_traits<char>,std::allocator<char> >::_Tidy, COMDAT
; _this$ = ecx

; 2253 : 		{	// initialize buffer, deallocating any storage

	push	ebp
	mov	ebp, esp
	sub	esp, 12					; 0000000cH
	mov	DWORD PTR _this$[ebp], ecx

; 2254 : 		if (!_Built)

	movzx	eax, BYTE PTR __Built$[ebp]
	test	eax, eax
	jne	SHORT $LN4@Tidy
	jmp	SHORT $LN3@Tidy
$LN4@Tidy:

; 2255 : 			;
; 2256 : 		else if (this->_BUF_SIZE <= this->_Myres)

	mov	ecx, DWORD PTR _this$[ebp]
	cmp	DWORD PTR [ecx+20], 16			; 00000010H
	jb	SHORT $LN3@Tidy

; 2257 : 			{	// copy any leftovers to small buffer and deallocate
; 2258 : 			pointer _Ptr = this->_Bx._Ptr;

	mov	edx, DWORD PTR _this$[ebp]
	mov	eax, DWORD PTR [edx]
	mov	DWORD PTR __Ptr$1[ebp], eax

; 2259 : 			this->_Getal().destroy(&this->_Bx._Ptr);

	mov	ecx, DWORD PTR _this$[ebp]
	push	ecx
	lea	edx, DWORD PTR $T3[ebp]
	push	edx
	mov	ecx, DWORD PTR _this$[ebp]
	call	?_Getal@?$_String_alloc@$0A@U?$_String_base_types@DV?$allocator@D@std@@@std@@@std@@QBE?AU?$_Wrap_alloc@V?$allocator@D@std@@@2@XZ ; std::_String_alloc<0,std::_String_base_types<char,std::allocator<char> > >::_Getal
	mov	ecx, eax
	call	??$destroy@PAD@?$_Wrap_alloc@V?$allocator@D@std@@@std@@QAEXPAPAD@Z ; std::_Wrap_alloc<std::allocator<char> >::destroy<char *>

; 2260 : 			if (0 < _Newsize)

	cmp	DWORD PTR __Newsize$[ebp], 0
	jbe	SHORT $LN1@Tidy

; 2261 : 				_Traits::copy(this->_Bx._Buf,
; 2262 : 					_STD addressof(*_Ptr), _Newsize);

	mov	eax, DWORD PTR __Newsize$[ebp]
	push	eax
	mov	ecx, DWORD PTR __Ptr$1[ebp]
	push	ecx
	call	??$addressof@D@std@@YAPADAAD@Z		; std::addressof<char>
	add	esp, 4
	push	eax
	mov	edx, DWORD PTR _this$[ebp]
	push	edx
	call	?copy@?$char_traits@D@std@@SAPADPADPBDI@Z ; std::char_traits<char>::copy
	add	esp, 12					; 0000000cH
$LN1@Tidy:

; 2263 : 			this->_Getal().deallocate(_Ptr, this->_Myres + 1);

	mov	eax, DWORD PTR _this$[ebp]
	mov	ecx, DWORD PTR [eax+20]
	add	ecx, 1
	push	ecx
	mov	edx, DWORD PTR __Ptr$1[ebp]
	push	edx
	lea	eax, DWORD PTR $T2[ebp]
	push	eax
	mov	ecx, DWORD PTR _this$[ebp]
	call	?_Getal@?$_String_alloc@$0A@U?$_String_base_types@DV?$allocator@D@std@@@std@@@std@@QBE?AU?$_Wrap_alloc@V?$allocator@D@std@@@2@XZ ; std::_String_alloc<0,std::_String_base_types<char,std::allocator<char> > >::_Getal
	mov	ecx, eax
	call	?deallocate@?$_Wrap_alloc@V?$allocator@D@std@@@std@@QAEXPADI@Z ; std::_Wrap_alloc<std::allocator<char> >::deallocate
$LN3@Tidy:

; 2264 : 			}
; 2265 : 		this->_Myres = this->_BUF_SIZE - 1;

	mov	ecx, DWORD PTR _this$[ebp]
	mov	DWORD PTR [ecx+20], 15			; 0000000fH

; 2266 : 		_Eos(_Newsize);

	mov	edx, DWORD PTR __Newsize$[ebp]
	push	edx
	mov	ecx, DWORD PTR _this$[ebp]
	call	?_Eos@?$basic_string@DU?$char_traits@D@std@@V?$allocator@D@2@@std@@QAEXI@Z ; std::basic_string<char,std::char_traits<char>,std::allocator<char> >::_Eos

; 2267 : 		}

	mov	esp, ebp
	pop	ebp
	ret	8
?_Tidy@?$basic_string@DU?$char_traits@D@std@@V?$allocator@D@2@@std@@QAEX_NI@Z ENDP ; std::basic_string<char,std::char_traits<char>,std::allocator<char> >::_Tidy
_TEXT	ENDS
; Function compile flags: /Odtp
; File c:\program files (x86)\microsoft visual studio 11.0\vc\include\xstring
;	COMDAT ?_Inside@?$basic_string@DU?$char_traits@D@std@@V?$allocator@D@2@@std@@QAE_NPBD@Z
_TEXT	SEGMENT
_this$ = -4						; size = 4
__Ptr$ = 8						; size = 4
?_Inside@?$basic_string@DU?$char_traits@D@std@@V?$allocator@D@2@@std@@QAE_NPBD@Z PROC ; std::basic_string<char,std::char_traits<char>,std::allocator<char> >::_Inside, COMDAT
; _this$ = ecx

; 2237 : 		{	// test if _Ptr points inside string

	push	ebp
	mov	ebp, esp
	push	ecx
	mov	DWORD PTR _this$[ebp], ecx

; 2238 : 		if (_Ptr == 0 || _Ptr < this->_Myptr()
; 2239 : 			|| this->_Myptr() + this->_Mysize <= _Ptr)

	cmp	DWORD PTR __Ptr$[ebp], 0
	je	SHORT $LN2@Inside
	mov	ecx, DWORD PTR _this$[ebp]
	call	?_Myptr@?$_String_val@U?$_Simple_types@D@std@@@std@@QAEPADXZ ; std::_String_val<std::_Simple_types<char> >::_Myptr
	cmp	DWORD PTR __Ptr$[ebp], eax
	jb	SHORT $LN2@Inside
	mov	ecx, DWORD PTR _this$[ebp]
	call	?_Myptr@?$_String_val@U?$_Simple_types@D@std@@@std@@QAEPADXZ ; std::_String_val<std::_Simple_types<char> >::_Myptr
	mov	ecx, DWORD PTR _this$[ebp]
	add	eax, DWORD PTR [ecx+16]
	cmp	eax, DWORD PTR __Ptr$[ebp]
	ja	SHORT $LN3@Inside
$LN2@Inside:

; 2240 : 			return (false);	// don't ask

	xor	al, al
	jmp	SHORT $LN4@Inside

; 2241 : 		else

	jmp	SHORT $LN4@Inside
$LN3@Inside:

; 2242 : 			return (true);

	mov	al, 1
$LN4@Inside:

; 2243 : 		}

	mov	esp, ebp
	pop	ebp
	ret	4
?_Inside@?$basic_string@DU?$char_traits@D@std@@V?$allocator@D@2@@std@@QAE_NPBD@Z ENDP ; std::basic_string<char,std::char_traits<char>,std::allocator<char> >::_Inside
_TEXT	ENDS
; Function compile flags: /Odtp
; File c:\program files (x86)\microsoft visual studio 11.0\vc\include\xstring
;	COMDAT ?_Grow@?$basic_string@DU?$char_traits@D@std@@V?$allocator@D@2@@std@@QAE_NI_N@Z
_TEXT	SEGMENT
tv136 = -12						; size = 4
tv129 = -8						; size = 4
_this$ = -4						; size = 4
__Newsize$ = 8						; size = 4
__Trim$ = 12						; size = 1
?_Grow@?$basic_string@DU?$char_traits@D@std@@V?$allocator@D@2@@std@@QAE_NI_N@Z PROC ; std::basic_string<char,std::char_traits<char>,std::allocator<char> >::_Grow, COMDAT
; _this$ = ecx

; 2223 : 		{	// ensure buffer is big enough, trim to size if _Trim is true

	push	ebp
	mov	ebp, esp
	sub	esp, 12					; 0000000cH
	mov	DWORD PTR _this$[ebp], ecx

; 2224 : 		if (max_size() < _Newsize)

	mov	ecx, DWORD PTR _this$[ebp]
	call	?max_size@?$basic_string@DU?$char_traits@D@std@@V?$allocator@D@2@@std@@QBEIXZ ; std::basic_string<char,std::char_traits<char>,std::allocator<char> >::max_size
	cmp	eax, DWORD PTR __Newsize$[ebp]
	jae	SHORT $LN6@Grow

; 2225 : 			_Xlen();	// result too long

	mov	ecx, DWORD PTR _this$[ebp]
	call	?_Xlen@?$basic_string@DU?$char_traits@D@std@@V?$allocator@D@2@@std@@QBEXXZ ; std::basic_string<char,std::char_traits<char>,std::allocator<char> >::_Xlen
$LN6@Grow:

; 2226 : 		if (this->_Myres < _Newsize)

	mov	eax, DWORD PTR _this$[ebp]
	mov	ecx, DWORD PTR [eax+20]
	cmp	ecx, DWORD PTR __Newsize$[ebp]
	jae	SHORT $LN5@Grow

; 2227 : 			_Copy(_Newsize, this->_Mysize);	// reallocate to grow

	mov	edx, DWORD PTR _this$[ebp]
	mov	eax, DWORD PTR [edx+16]
	push	eax
	mov	ecx, DWORD PTR __Newsize$[ebp]
	push	ecx
	mov	ecx, DWORD PTR _this$[ebp]
	call	?_Copy@?$basic_string@DU?$char_traits@D@std@@V?$allocator@D@2@@std@@QAEXII@Z ; std::basic_string<char,std::char_traits<char>,std::allocator<char> >::_Copy
	jmp	SHORT $LN4@Grow
$LN5@Grow:

; 2228 : 		else if (_Trim && _Newsize < this->_BUF_SIZE)

	movzx	edx, BYTE PTR __Trim$[ebp]
	test	edx, edx
	je	SHORT $LN3@Grow
	cmp	DWORD PTR __Newsize$[ebp], 16		; 00000010H
	jae	SHORT $LN3@Grow

; 2229 : 			_Tidy(true,	// copy and deallocate if trimming to small string
; 2230 : 				_Newsize < this->_Mysize ? _Newsize : this->_Mysize);

	mov	eax, DWORD PTR _this$[ebp]
	mov	ecx, DWORD PTR __Newsize$[ebp]
	cmp	ecx, DWORD PTR [eax+16]
	jae	SHORT $LN9@Grow
	mov	edx, DWORD PTR __Newsize$[ebp]
	mov	DWORD PTR tv129[ebp], edx
	jmp	SHORT $LN10@Grow
$LN9@Grow:
	mov	eax, DWORD PTR _this$[ebp]
	mov	ecx, DWORD PTR [eax+16]
	mov	DWORD PTR tv129[ebp], ecx
$LN10@Grow:
	mov	edx, DWORD PTR tv129[ebp]
	push	edx
	push	1
	mov	ecx, DWORD PTR _this$[ebp]
	call	?_Tidy@?$basic_string@DU?$char_traits@D@std@@V?$allocator@D@2@@std@@QAEX_NI@Z ; std::basic_string<char,std::char_traits<char>,std::allocator<char> >::_Tidy
	jmp	SHORT $LN4@Grow
$LN3@Grow:

; 2231 : 		else if (_Newsize == 0)

	cmp	DWORD PTR __Newsize$[ebp], 0
	jne	SHORT $LN4@Grow

; 2232 : 			_Eos(0);	// new size is zero, just null terminate

	push	0
	mov	ecx, DWORD PTR _this$[ebp]
	call	?_Eos@?$basic_string@DU?$char_traits@D@std@@V?$allocator@D@2@@std@@QAEXI@Z ; std::basic_string<char,std::char_traits<char>,std::allocator<char> >::_Eos
$LN4@Grow:

; 2233 : 		return (0 < _Newsize);	// return true only if more work to do

	cmp	DWORD PTR __Newsize$[ebp], 0
	jbe	SHORT $LN11@Grow
	mov	DWORD PTR tv136[ebp], 1
	jmp	SHORT $LN12@Grow
$LN11@Grow:
	mov	DWORD PTR tv136[ebp], 0
$LN12@Grow:
	mov	al, BYTE PTR tv136[ebp]
$LN8@Grow:

; 2234 : 		}

	mov	esp, ebp
	pop	ebp
	ret	8
?_Grow@?$basic_string@DU?$char_traits@D@std@@V?$allocator@D@2@@std@@QAE_NI_N@Z ENDP ; std::basic_string<char,std::char_traits<char>,std::allocator<char> >::_Grow
_TEXT	ENDS
; Function compile flags: /Odtp
; File c:\program files (x86)\microsoft visual studio 11.0\vc\include\xstring
;	COMDAT ?_Eos@?$basic_string@DU?$char_traits@D@std@@V?$allocator@D@2@@std@@QAEXI@Z
_TEXT	SEGMENT
_this$ = -8						; size = 4
$T1 = -1						; size = 1
__Newsize$ = 8						; size = 4
?_Eos@?$basic_string@DU?$char_traits@D@std@@V?$allocator@D@2@@std@@QAEXI@Z PROC ; std::basic_string<char,std::char_traits<char>,std::allocator<char> >::_Eos, COMDAT
; _this$ = ecx

; 2217 : 		{	// set new length and null terminator

	push	ebp
	mov	ebp, esp
	sub	esp, 8
	mov	DWORD PTR _this$[ebp], ecx

; 2218 : 		_Traits::assign(this->_Myptr()[this->_Mysize = _Newsize], _Elem());

	mov	BYTE PTR $T1[ebp], 0
	mov	eax, DWORD PTR _this$[ebp]
	mov	ecx, DWORD PTR __Newsize$[ebp]
	mov	DWORD PTR [eax+16], ecx
	lea	edx, DWORD PTR $T1[ebp]
	push	edx
	mov	ecx, DWORD PTR _this$[ebp]
	call	?_Myptr@?$_String_val@U?$_Simple_types@D@std@@@std@@QAEPADXZ ; std::_String_val<std::_Simple_types<char> >::_Myptr
	add	eax, DWORD PTR __Newsize$[ebp]
	push	eax
	call	?assign@?$char_traits@D@std@@SAXAADABD@Z ; std::char_traits<char>::assign
	add	esp, 8

; 2219 : 		}

	mov	esp, ebp
	pop	ebp
	ret	4
?_Eos@?$basic_string@DU?$char_traits@D@std@@V?$allocator@D@2@@std@@QAEXI@Z ENDP ; std::basic_string<char,std::char_traits<char>,std::allocator<char> >::_Eos
_TEXT	ENDS
; Function compile flags: /Odtp
; File c:\program files (x86)\microsoft visual studio 11.0\vc\include\xstring
;	COMDAT ?_Copy@?$basic_string@DU?$char_traits@D@std@@V?$allocator@D@2@@std@@QAEXII@Z
_TEXT	SEGMENT
tv205 = -48						; size = 4
tv204 = -44						; size = 4
tv203 = -40						; size = 4
tv202 = -36						; size = 4
__Ptr$ = -32						; size = 4
__Newres$ = -28						; size = 4
_this$ = -24						; size = 4
$T2 = -19						; size = 1
$T3 = -18						; size = 1
$T4 = -17						; size = 1
__$EHRec$ = -16						; size = 16
__Newsize$ = 8						; size = 4
__Oldlen$ = 12						; size = 4
?_Copy@?$basic_string@DU?$char_traits@D@std@@V?$allocator@D@2@@std@@QAEXII@Z PROC ; std::basic_string<char,std::char_traits<char>,std::allocator<char> >::_Copy, COMDAT
; _this$ = ecx

; 2182 : 		{	// copy _Oldlen elements to newly allocated buffer

	push	ebp
	mov	ebp, esp
	push	-1
	push	__ehhandler$?_Copy@?$basic_string@DU?$char_traits@D@std@@V?$allocator@D@2@@std@@QAEXII@Z
	mov	eax, DWORD PTR fs:0
	push	eax
	push	ecx
	sub	esp, 32					; 00000020H
	push	ebx
	push	esi
	push	edi
	mov	eax, DWORD PTR ___security_cookie
	xor	eax, ebp
	push	eax
	lea	eax, DWORD PTR __$EHRec$[ebp+4]
	mov	DWORD PTR fs:0, eax
	mov	DWORD PTR __$EHRec$[ebp], esp
	mov	DWORD PTR _this$[ebp], ecx

; 2183 : 		size_type _Newres = _Newsize | this->_ALLOC_MASK;

	mov	eax, DWORD PTR __Newsize$[ebp]
	or	eax, 15					; 0000000fH
	mov	DWORD PTR __Newres$[ebp], eax

; 2184 : 		if (max_size() < _Newres)

	mov	ecx, DWORD PTR _this$[ebp]
	call	?max_size@?$basic_string@DU?$char_traits@D@std@@V?$allocator@D@2@@std@@QBEIXZ ; std::basic_string<char,std::char_traits<char>,std::allocator<char> >::max_size
	cmp	eax, DWORD PTR __Newres$[ebp]
	jae	SHORT $LN9@Copy

; 2185 : 			_Newres = _Newsize;	// undo roundup if too big

	mov	ecx, DWORD PTR __Newsize$[ebp]
	mov	DWORD PTR __Newres$[ebp], ecx
	jmp	SHORT $LN8@Copy
$LN9@Copy:

; 2186 : 		else if (this->_Myres / 2 <= _Newres / 3)

	mov	eax, DWORD PTR __Newres$[ebp]
	xor	edx, edx
	mov	ecx, 3
	div	ecx
	mov	edx, DWORD PTR _this$[ebp]
	mov	ecx, DWORD PTR [edx+20]
	shr	ecx, 1
	cmp	ecx, eax
	ja	SHORT $LN7@Copy
	jmp	SHORT $LN8@Copy
$LN7@Copy:

; 2187 : 			;
; 2188 : 		else if (this->_Myres <= max_size() - this->_Myres / 2)

	mov	edx, DWORD PTR _this$[ebp]
	mov	esi, DWORD PTR [edx+20]
	shr	esi, 1
	mov	ecx, DWORD PTR _this$[ebp]
	call	?max_size@?$basic_string@DU?$char_traits@D@std@@V?$allocator@D@2@@std@@QBEIXZ ; std::basic_string<char,std::char_traits<char>,std::allocator<char> >::max_size
	sub	eax, esi
	mov	ecx, DWORD PTR _this$[ebp]
	cmp	DWORD PTR [ecx+20], eax
	ja	SHORT $LN5@Copy

; 2189 : 			_Newres = this->_Myres
; 2190 : 				+ this->_Myres / 2;	// grow exponentially if possible

	mov	edx, DWORD PTR _this$[ebp]
	mov	eax, DWORD PTR [edx+20]
	shr	eax, 1
	mov	ecx, DWORD PTR _this$[ebp]
	add	eax, DWORD PTR [ecx+20]
	mov	DWORD PTR __Newres$[ebp], eax

; 2191 : 		else

	jmp	SHORT $LN8@Copy
$LN5@Copy:

; 2192 : 			_Newres = max_size();	// settle for max_size()

	mov	ecx, DWORD PTR _this$[ebp]
	call	?max_size@?$basic_string@DU?$char_traits@D@std@@V?$allocator@D@2@@std@@QBEIXZ ; std::basic_string<char,std::char_traits<char>,std::allocator<char> >::max_size
	mov	DWORD PTR __Newres$[ebp], eax
$LN8@Copy:

; 2193 : 
; 2194 : 		_Elem *_Ptr;
; 2195 : 		_TRY_BEGIN

	mov	DWORD PTR __$EHRec$[ebp+12], 0

; 2196 : 			_Ptr = this->_Getal().allocate(_Newres + 1);

	lea	edx, DWORD PTR $T4[ebp]
	push	edx
	mov	ecx, DWORD PTR _this$[ebp]
	call	?_Getal@?$_String_alloc@$0A@U?$_String_base_types@DV?$allocator@D@std@@@std@@@std@@QBE?AU?$_Wrap_alloc@V?$allocator@D@std@@@2@XZ ; std::_String_alloc<0,std::_String_base_types<char,std::allocator<char> > >::_Getal
	mov	DWORD PTR tv202[ebp], eax
	mov	eax, DWORD PTR __Newres$[ebp]
	add	eax, 1
	push	eax
	mov	ecx, DWORD PTR tv202[ebp]
	call	?allocate@?$_Wrap_alloc@V?$allocator@D@std@@@std@@QAEPADI@Z ; std::_Wrap_alloc<std::allocator<char> >::allocate
	mov	DWORD PTR tv203[ebp], eax
	mov	ecx, DWORD PTR tv203[ebp]
	mov	DWORD PTR __Ptr$[ebp], ecx
	jmp	SHORT $LN12@Copy
__catch$?_Copy@?$basic_string@DU?$char_traits@D@std@@V?$allocator@D@2@@std@@QAEXII@Z$0:

; 2197 : 		_CATCH_ALL

	mov	DWORD PTR __$EHRec$[ebp], esp

; 2198 : 			_Newres = _Newsize;	// allocation failed, undo roundup and retry

	mov	edx, DWORD PTR __Newsize$[ebp]
	mov	DWORD PTR __Newres$[ebp], edx

; 2199 : 			_TRY_BEGIN

	mov	BYTE PTR __$EHRec$[ebp+12], 2

; 2200 : 				_Ptr = this->_Getal().allocate(_Newres + 1);

	lea	eax, DWORD PTR $T3[ebp]
	push	eax
	mov	ecx, DWORD PTR _this$[ebp]
	call	?_Getal@?$_String_alloc@$0A@U?$_String_base_types@DV?$allocator@D@std@@@std@@@std@@QBE?AU?$_Wrap_alloc@V?$allocator@D@std@@@2@XZ ; std::_String_alloc<0,std::_String_base_types<char,std::allocator<char> > >::_Getal
	mov	DWORD PTR tv204[ebp], eax
	mov	ecx, DWORD PTR __Newres$[ebp]
	add	ecx, 1
	push	ecx
	mov	ecx, DWORD PTR tv204[ebp]
	call	?allocate@?$_Wrap_alloc@V?$allocator@D@std@@@std@@QAEPADI@Z ; std::_Wrap_alloc<std::allocator<char> >::allocate
	mov	DWORD PTR tv205[ebp], eax
	mov	edx, DWORD PTR tv205[ebp]
	mov	DWORD PTR __Ptr$[ebp], edx
	jmp	SHORT $LN14@Copy
__catch$?_Copy@?$basic_string@DU?$char_traits@D@std@@V?$allocator@D@2@@std@@QAEXII@Z$1:

; 2201 : 			_CATCH_ALL
; 2202 : 			_Tidy(true);	// failed again, discard storage and reraise

	push	0
	push	1
	mov	ecx, DWORD PTR _this$[ebp]
	call	?_Tidy@?$basic_string@DU?$char_traits@D@std@@V?$allocator@D@2@@std@@QAEX_NI@Z ; std::basic_string<char,std::char_traits<char>,std::allocator<char> >::_Tidy

; 2203 : 			_RERAISE;

	push	0
	push	0
	call	__CxxThrowException@8

; 2204 : 			_CATCH_END

	mov	eax, $LN17@Copy
	ret	0
$LN14@Copy:
	mov	DWORD PTR __$EHRec$[ebp+12], 1
	jmp	SHORT __tryend$?_Copy@?$basic_string@DU?$char_traits@D@std@@V?$allocator@D@2@@std@@QAEXII@Z$2
$LN17@Copy:
	mov	DWORD PTR __$EHRec$[ebp+12], 1
__tryend$?_Copy@?$basic_string@DU?$char_traits@D@std@@V?$allocator@D@2@@std@@QAEXII@Z$2:

; 2205 : 		_CATCH_END

	mov	eax, $LN19@Copy
	ret	0
$LN12@Copy:
	mov	DWORD PTR __$EHRec$[ebp+12], -1
	jmp	SHORT __tryend$?_Copy@?$basic_string@DU?$char_traits@D@std@@V?$allocator@D@2@@std@@QAEXII@Z$3
$LN19@Copy:
	mov	DWORD PTR __$EHRec$[ebp+12], -1
__tryend$?_Copy@?$basic_string@DU?$char_traits@D@std@@V?$allocator@D@2@@std@@QAEXII@Z$3:

; 2206 : 
; 2207 : 		if (0 < _Oldlen)

	cmp	DWORD PTR __Oldlen$[ebp], 0
	jbe	SHORT $LN1@Copy

; 2208 : 			_Traits::copy(_Ptr, this->_Myptr(),
; 2209 : 				_Oldlen);	// copy existing elements

	mov	eax, DWORD PTR __Oldlen$[ebp]
	push	eax
	mov	ecx, DWORD PTR _this$[ebp]
	call	?_Myptr@?$_String_val@U?$_Simple_types@D@std@@@std@@QAEPADXZ ; std::_String_val<std::_Simple_types<char> >::_Myptr
	push	eax
	mov	ecx, DWORD PTR __Ptr$[ebp]
	push	ecx
	call	?copy@?$char_traits@D@std@@SAPADPADPBDI@Z ; std::char_traits<char>::copy
	add	esp, 12					; 0000000cH
$LN1@Copy:

; 2210 : 		_Tidy(true);

	push	0
	push	1
	mov	ecx, DWORD PTR _this$[ebp]
	call	?_Tidy@?$basic_string@DU?$char_traits@D@std@@V?$allocator@D@2@@std@@QAEX_NI@Z ; std::basic_string<char,std::char_traits<char>,std::allocator<char> >::_Tidy

; 2211 : 		this->_Getal().construct(&this->_Bx._Ptr, _Ptr);

	lea	edx, DWORD PTR __Ptr$[ebp]
	push	edx
	mov	eax, DWORD PTR _this$[ebp]
	push	eax
	lea	ecx, DWORD PTR $T2[ebp]
	push	ecx
	mov	ecx, DWORD PTR _this$[ebp]
	call	?_Getal@?$_String_alloc@$0A@U?$_String_base_types@DV?$allocator@D@std@@@std@@@std@@QBE?AU?$_Wrap_alloc@V?$allocator@D@std@@@2@XZ ; std::_String_alloc<0,std::_String_base_types<char,std::allocator<char> > >::_Getal
	mov	ecx, eax
	call	??$construct@PADAAPAD@?$_Wrap_alloc@V?$allocator@D@std@@@std@@QAEXPAPADAAPAD@Z ; std::_Wrap_alloc<std::allocator<char> >::construct<char *,char * &>

; 2212 : 		this->_Myres = _Newres;

	mov	edx, DWORD PTR _this$[ebp]
	mov	eax, DWORD PTR __Newres$[ebp]
	mov	DWORD PTR [edx+20], eax

; 2213 : 		_Eos(_Oldlen);

	mov	ecx, DWORD PTR __Oldlen$[ebp]
	push	ecx
	mov	ecx, DWORD PTR _this$[ebp]
	call	?_Eos@?$basic_string@DU?$char_traits@D@std@@V?$allocator@D@2@@std@@QAEXI@Z ; std::basic_string<char,std::char_traits<char>,std::allocator<char> >::_Eos
$LN11@Copy:

; 2214 : 		}

	mov	ecx, DWORD PTR __$EHRec$[ebp+4]
	mov	DWORD PTR fs:0, ecx
	pop	ecx
	pop	edi
	pop	esi
	pop	ebx
	mov	esp, ebp
	pop	ebp
	ret	8
_TEXT	ENDS
;	COMDAT text$x
text$x	SEGMENT
__ehhandler$?_Copy@?$basic_string@DU?$char_traits@D@std@@V?$allocator@D@2@@std@@QAEXII@Z:
	mov	edx, DWORD PTR [esp+8]
	lea	eax, DWORD PTR [edx+12]
	mov	ecx, DWORD PTR [edx-52]
	xor	ecx, eax
	call	@__security_check_cookie@4
	mov	eax, OFFSET __ehfuncinfo$?_Copy@?$basic_string@DU?$char_traits@D@std@@V?$allocator@D@2@@std@@QAEXII@Z
	jmp	___CxxFrameHandler3
text$x	ENDS
?_Copy@?$basic_string@DU?$char_traits@D@std@@V?$allocator@D@2@@std@@QAEXII@Z ENDP ; std::basic_string<char,std::char_traits<char>,std::allocator<char> >::_Copy
; Function compile flags: /Odtp
; File c:\program files (x86)\microsoft visual studio 11.0\vc\include\xstring
;	COMDAT ?max_size@?$basic_string@DU?$char_traits@D@std@@V?$allocator@D@2@@std@@QBEIXZ
_TEXT	SEGMENT
_this$ = -16						; size = 4
tv75 = -12						; size = 4
__Num$ = -8						; size = 4
$T1 = -1						; size = 1
?max_size@?$basic_string@DU?$char_traits@D@std@@V?$allocator@D@2@@std@@QBEIXZ PROC ; std::basic_string<char,std::char_traits<char>,std::allocator<char> >::max_size, COMDAT
; _this$ = ecx

; 1737 : 		{	// return maximum possible length of sequence

	push	ebp
	mov	ebp, esp
	sub	esp, 16					; 00000010H
	mov	DWORD PTR _this$[ebp], ecx

; 1738 : 		size_type _Num = this->_Getal().max_size();

	lea	eax, DWORD PTR $T1[ebp]
	push	eax
	mov	ecx, DWORD PTR _this$[ebp]
	call	?_Getal@?$_String_alloc@$0A@U?$_String_base_types@DV?$allocator@D@std@@@std@@@std@@QBE?AU?$_Wrap_alloc@V?$allocator@D@std@@@2@XZ ; std::_String_alloc<0,std::_String_base_types<char,std::allocator<char> > >::_Getal
	mov	ecx, eax
	call	?max_size@?$_Wrap_alloc@V?$allocator@D@std@@@std@@QBEIXZ ; std::_Wrap_alloc<std::allocator<char> >::max_size
	mov	DWORD PTR __Num$[ebp], eax

; 1739 : 		return (_Num <= 1 ? 1 : _Num - 1);

	cmp	DWORD PTR __Num$[ebp], 1
	ja	SHORT $LN3@max_size
	mov	DWORD PTR tv75[ebp], 1
	jmp	SHORT $LN4@max_size
$LN3@max_size:
	mov	ecx, DWORD PTR __Num$[ebp]
	sub	ecx, 1
	mov	DWORD PTR tv75[ebp], ecx
$LN4@max_size:
	mov	eax, DWORD PTR tv75[ebp]

; 1740 : 		}

	mov	esp, ebp
	pop	ebp
	ret	0
?max_size@?$basic_string@DU?$char_traits@D@std@@V?$allocator@D@2@@std@@QBEIXZ ENDP ; std::basic_string<char,std::char_traits<char>,std::allocator<char> >::max_size
_TEXT	ENDS
; Function compile flags: /Odtp
; File c:\program files (x86)\microsoft visual studio 11.0\vc\include\xstring
;	COMDAT ?size@?$basic_string@DU?$char_traits@D@std@@V?$allocator@D@2@@std@@QBEIXZ
_TEXT	SEGMENT
_this$ = -4						; size = 4
?size@?$basic_string@DU?$char_traits@D@std@@V?$allocator@D@2@@std@@QBEIXZ PROC ; std::basic_string<char,std::char_traits<char>,std::allocator<char> >::size, COMDAT
; _this$ = ecx

; 1732 : 		{	// return length of sequence

	push	ebp
	mov	ebp, esp
	push	ecx
	mov	DWORD PTR _this$[ebp], ecx

; 1733 : 		return (this->_Mysize);

	mov	eax, DWORD PTR _this$[ebp]
	mov	eax, DWORD PTR [eax+16]

; 1734 : 		}

	mov	esp, ebp
	pop	ebp
	ret	0
?size@?$basic_string@DU?$char_traits@D@std@@V?$allocator@D@2@@std@@QBEIXZ ENDP ; std::basic_string<char,std::char_traits<char>,std::allocator<char> >::size
_TEXT	ENDS
; Function compile flags: /Odtp
; File c:\program files (x86)\microsoft visual studio 11.0\vc\include\xstring
;	COMDAT ?erase@?$basic_string@DU?$char_traits@D@std@@V?$allocator@D@2@@std@@QAEAAV12@II@Z
_TEXT	SEGMENT
__Newsize$1 = -12					; size = 4
__Ptr$2 = -8						; size = 4
_this$ = -4						; size = 4
__Off$ = 8						; size = 4
__Count$ = 12						; size = 4
?erase@?$basic_string@DU?$char_traits@D@std@@V?$allocator@D@2@@std@@QAEAAV12@II@Z PROC ; std::basic_string<char,std::char_traits<char>,std::allocator<char> >::erase, COMDAT
; _this$ = ecx

; 1317 : 		{	// erase elements [_Off, _Off + _Count)

	push	ebp
	mov	ebp, esp
	sub	esp, 12					; 0000000cH
	mov	DWORD PTR _this$[ebp], ecx

; 1318 : 		if (this->_Mysize < _Off)

	mov	eax, DWORD PTR _this$[ebp]
	mov	ecx, DWORD PTR [eax+16]
	cmp	ecx, DWORD PTR __Off$[ebp]
	jae	SHORT $LN4@erase

; 1319 : 			_Xran();	// _Off off end

	mov	ecx, DWORD PTR _this$[ebp]
	call	?_Xran@?$basic_string@DU?$char_traits@D@std@@V?$allocator@D@2@@std@@QBEXXZ ; std::basic_string<char,std::char_traits<char>,std::allocator<char> >::_Xran
$LN4@erase:

; 1320 : 		if (this->_Mysize - _Off <= _Count)

	mov	edx, DWORD PTR _this$[ebp]
	mov	eax, DWORD PTR [edx+16]
	sub	eax, DWORD PTR __Off$[ebp]
	cmp	eax, DWORD PTR __Count$[ebp]
	ja	SHORT $LN3@erase

; 1321 : 			_Eos(_Off);	// erase elements [_Off, ...)

	mov	ecx, DWORD PTR __Off$[ebp]
	push	ecx
	mov	ecx, DWORD PTR _this$[ebp]
	call	?_Eos@?$basic_string@DU?$char_traits@D@std@@V?$allocator@D@2@@std@@QAEXI@Z ; std::basic_string<char,std::char_traits<char>,std::allocator<char> >::_Eos
	jmp	SHORT $LN2@erase
$LN3@erase:

; 1322 : 		else if (0 < _Count)

	cmp	DWORD PTR __Count$[ebp], 0
	jbe	SHORT $LN2@erase

; 1323 : 			{	// move elements down
; 1324 : 			value_type *_Ptr = this->_Myptr() + _Off;

	mov	ecx, DWORD PTR _this$[ebp]
	call	?_Myptr@?$_String_val@U?$_Simple_types@D@std@@@std@@QAEPADXZ ; std::_String_val<std::_Simple_types<char> >::_Myptr
	add	eax, DWORD PTR __Off$[ebp]
	mov	DWORD PTR __Ptr$2[ebp], eax

; 1325 : 			size_type _Newsize = this->_Mysize - _Count;

	mov	edx, DWORD PTR _this$[ebp]
	mov	eax, DWORD PTR [edx+16]
	sub	eax, DWORD PTR __Count$[ebp]
	mov	DWORD PTR __Newsize$1[ebp], eax

; 1326 : 			_Traits::move(_Ptr, _Ptr + _Count, _Newsize - _Off);

	mov	ecx, DWORD PTR __Newsize$1[ebp]
	sub	ecx, DWORD PTR __Off$[ebp]
	push	ecx
	mov	edx, DWORD PTR __Ptr$2[ebp]
	add	edx, DWORD PTR __Count$[ebp]
	push	edx
	mov	eax, DWORD PTR __Ptr$2[ebp]
	push	eax
	call	?move@?$char_traits@D@std@@SAPADPADPBDI@Z ; std::char_traits<char>::move
	add	esp, 12					; 0000000cH

; 1327 : 			_Eos(_Newsize);

	mov	ecx, DWORD PTR __Newsize$1[ebp]
	push	ecx
	mov	ecx, DWORD PTR _this$[ebp]
	call	?_Eos@?$basic_string@DU?$char_traits@D@std@@V?$allocator@D@2@@std@@QAEXI@Z ; std::basic_string<char,std::char_traits<char>,std::allocator<char> >::_Eos
$LN2@erase:

; 1328 : 			}
; 1329 : 		return (*this);

	mov	eax, DWORD PTR _this$[ebp]
$LN6@erase:

; 1330 : 		}

	mov	esp, ebp
	pop	ebp
	ret	8
?erase@?$basic_string@DU?$char_traits@D@std@@V?$allocator@D@2@@std@@QAEAAV12@II@Z ENDP ; std::basic_string<char,std::char_traits<char>,std::allocator<char> >::erase
_TEXT	ENDS
; Function compile flags: /Odtp
; File c:\program files (x86)\microsoft visual studio 11.0\vc\include\xstring
;	COMDAT ?erase@?$basic_string@DU?$char_traits@D@std@@V?$allocator@D@2@@std@@QAEAAV12@I@Z
_TEXT	SEGMENT
_this$ = -4						; size = 4
__Off$ = 8						; size = 4
?erase@?$basic_string@DU?$char_traits@D@std@@V?$allocator@D@2@@std@@QAEAAV12@I@Z PROC ; std::basic_string<char,std::char_traits<char>,std::allocator<char> >::erase, COMDAT
; _this$ = ecx

; 1309 : 		{	// erase elements [_Off, ...)

	push	ebp
	mov	ebp, esp
	push	ecx
	mov	DWORD PTR _this$[ebp], ecx

; 1310 : 		if (this->_Mysize < _Off)

	mov	eax, DWORD PTR _this$[ebp]
	mov	ecx, DWORD PTR [eax+16]
	cmp	ecx, DWORD PTR __Off$[ebp]
	jae	SHORT $LN1@erase

; 1311 : 			_Xran();	// _Off off end

	mov	ecx, DWORD PTR _this$[ebp]
	call	?_Xran@?$basic_string@DU?$char_traits@D@std@@V?$allocator@D@2@@std@@QBEXXZ ; std::basic_string<char,std::char_traits<char>,std::allocator<char> >::_Xran
$LN1@erase:

; 1312 : 		_Eos(_Off);

	mov	edx, DWORD PTR __Off$[ebp]
	push	edx
	mov	ecx, DWORD PTR _this$[ebp]
	call	?_Eos@?$basic_string@DU?$char_traits@D@std@@V?$allocator@D@2@@std@@QAEXI@Z ; std::basic_string<char,std::char_traits<char>,std::allocator<char> >::_Eos

; 1313 : 		return (*this);

	mov	eax, DWORD PTR _this$[ebp]
$LN3@erase:

; 1314 : 		}

	mov	esp, ebp
	pop	ebp
	ret	4
?erase@?$basic_string@DU?$char_traits@D@std@@V?$allocator@D@2@@std@@QAEAAV12@I@Z ENDP ; std::basic_string<char,std::char_traits<char>,std::allocator<char> >::erase
_TEXT	ENDS
; Function compile flags: /Odtp
; File c:\program files (x86)\microsoft visual studio 11.0\vc\include\xstring
;	COMDAT ?assign@?$basic_string@DU?$char_traits@D@std@@V?$allocator@D@2@@std@@QAEAAV12@PBD@Z
_TEXT	SEGMENT
_this$ = -4						; size = 4
__Ptr$ = 8						; size = 4
?assign@?$basic_string@DU?$char_traits@D@std@@V?$allocator@D@2@@std@@QAEAAV12@PBD@Z PROC ; std::basic_string<char,std::char_traits<char>,std::allocator<char> >::assign, COMDAT
; _this$ = ecx

; 1142 : 		{	// assign [_Ptr, <null>)

	push	ebp
	mov	ebp, esp
	push	ecx
	mov	DWORD PTR _this$[ebp], ecx

; 1143 : 		_DEBUG_POINTER(_Ptr);
; 1144 : 		return (assign(_Ptr, _Traits::length(_Ptr)));

	mov	eax, DWORD PTR __Ptr$[ebp]
	push	eax
	call	?length@?$char_traits@D@std@@SAIPBD@Z	; std::char_traits<char>::length
	add	esp, 4
	push	eax
	mov	ecx, DWORD PTR __Ptr$[ebp]
	push	ecx
	mov	ecx, DWORD PTR _this$[ebp]
	call	?assign@?$basic_string@DU?$char_traits@D@std@@V?$allocator@D@2@@std@@QAEAAV12@PBDI@Z ; std::basic_string<char,std::char_traits<char>,std::allocator<char> >::assign

; 1145 : 		}

	mov	esp, ebp
	pop	ebp
	ret	4
?assign@?$basic_string@DU?$char_traits@D@std@@V?$allocator@D@2@@std@@QAEAAV12@PBD@Z ENDP ; std::basic_string<char,std::char_traits<char>,std::allocator<char> >::assign
_TEXT	ENDS
; Function compile flags: /Odtp
; File c:\program files (x86)\microsoft visual studio 11.0\vc\include\xstring
;	COMDAT ?assign@?$basic_string@DU?$char_traits@D@std@@V?$allocator@D@2@@std@@QAEAAV12@PBDI@Z
_TEXT	SEGMENT
_this$ = -4						; size = 4
__Ptr$ = 8						; size = 4
__Count$ = 12						; size = 4
?assign@?$basic_string@DU?$char_traits@D@std@@V?$allocator@D@2@@std@@QAEAAV12@PBDI@Z PROC ; std::basic_string<char,std::char_traits<char>,std::allocator<char> >::assign, COMDAT
; _this$ = ecx

; 1123 : 		{	// assign [_Ptr, _Ptr + _Count)

	push	ebp
	mov	ebp, esp
	push	ecx
	mov	DWORD PTR _this$[ebp], ecx

; 1124 :  #if _ITERATOR_DEBUG_LEVEL == 2
; 1125 : 		if (_Count != 0)
; 1126 : 			_DEBUG_POINTER(_Ptr);
; 1127 :  #endif /* _ITERATOR_DEBUG_LEVEL == 2 */
; 1128 : 
; 1129 : 		if (_Inside(_Ptr))

	mov	eax, DWORD PTR __Ptr$[ebp]
	push	eax
	mov	ecx, DWORD PTR _this$[ebp]
	call	?_Inside@?$basic_string@DU?$char_traits@D@std@@V?$allocator@D@2@@std@@QAE_NPBD@Z ; std::basic_string<char,std::char_traits<char>,std::allocator<char> >::_Inside
	movzx	ecx, al
	test	ecx, ecx
	je	SHORT $LN2@assign

; 1130 : 			return (assign(*this,
; 1131 : 				_Ptr - this->_Myptr(), _Count));	// substring

	mov	edx, DWORD PTR __Count$[ebp]
	push	edx
	mov	ecx, DWORD PTR _this$[ebp]
	call	?_Myptr@?$_String_val@U?$_Simple_types@D@std@@@std@@QAEPADXZ ; std::_String_val<std::_Simple_types<char> >::_Myptr
	mov	ecx, DWORD PTR __Ptr$[ebp]
	sub	ecx, eax
	push	ecx
	mov	edx, DWORD PTR _this$[ebp]
	push	edx
	mov	ecx, DWORD PTR _this$[ebp]
	call	?assign@?$basic_string@DU?$char_traits@D@std@@V?$allocator@D@2@@std@@QAEAAV12@ABV12@II@Z ; std::basic_string<char,std::char_traits<char>,std::allocator<char> >::assign
	jmp	SHORT $LN3@assign
$LN2@assign:

; 1132 : 
; 1133 : 		if (_Grow(_Count))

	push	0
	mov	eax, DWORD PTR __Count$[ebp]
	push	eax
	mov	ecx, DWORD PTR _this$[ebp]
	call	?_Grow@?$basic_string@DU?$char_traits@D@std@@V?$allocator@D@2@@std@@QAE_NI_N@Z ; std::basic_string<char,std::char_traits<char>,std::allocator<char> >::_Grow
	movzx	ecx, al
	test	ecx, ecx
	je	SHORT $LN1@assign

; 1134 : 			{	// make room and assign new stuff
; 1135 : 			_Traits::copy(this->_Myptr(), _Ptr, _Count);

	mov	edx, DWORD PTR __Count$[ebp]
	push	edx
	mov	eax, DWORD PTR __Ptr$[ebp]
	push	eax
	mov	ecx, DWORD PTR _this$[ebp]
	call	?_Myptr@?$_String_val@U?$_Simple_types@D@std@@@std@@QAEPADXZ ; std::_String_val<std::_Simple_types<char> >::_Myptr
	push	eax
	call	?copy@?$char_traits@D@std@@SAPADPADPBDI@Z ; std::char_traits<char>::copy
	add	esp, 12					; 0000000cH

; 1136 : 			_Eos(_Count);

	mov	ecx, DWORD PTR __Count$[ebp]
	push	ecx
	mov	ecx, DWORD PTR _this$[ebp]
	call	?_Eos@?$basic_string@DU?$char_traits@D@std@@V?$allocator@D@2@@std@@QAEXI@Z ; std::basic_string<char,std::char_traits<char>,std::allocator<char> >::_Eos
$LN1@assign:

; 1137 : 			}
; 1138 : 		return (*this);

	mov	eax, DWORD PTR _this$[ebp]
$LN3@assign:

; 1139 : 		}

	mov	esp, ebp
	pop	ebp
	ret	8
?assign@?$basic_string@DU?$char_traits@D@std@@V?$allocator@D@2@@std@@QAEAAV12@PBDI@Z ENDP ; std::basic_string<char,std::char_traits<char>,std::allocator<char> >::assign
_TEXT	ENDS
; Function compile flags: /Odtp
; File c:\program files (x86)\microsoft visual studio 11.0\vc\include\xstring
;	COMDAT ?assign@?$basic_string@DU?$char_traits@D@std@@V?$allocator@D@2@@std@@QAEAAV12@ABV12@II@Z
_TEXT	SEGMENT
__Num$ = -8						; size = 4
_this$ = -4						; size = 4
__Right$ = 8						; size = 4
__Roff$ = 12						; size = 4
__Count$ = 16						; size = 4
?assign@?$basic_string@DU?$char_traits@D@std@@V?$allocator@D@2@@std@@QAEAAV12@ABV12@II@Z PROC ; std::basic_string<char,std::char_traits<char>,std::allocator<char> >::assign, COMDAT
; _this$ = ecx

; 1104 : 		{	// assign _Right [_Roff, _Roff + _Count)

	push	ebp
	mov	ebp, esp
	sub	esp, 8
	mov	DWORD PTR _this$[ebp], ecx

; 1105 : 		if (_Right.size() < _Roff)

	mov	ecx, DWORD PTR __Right$[ebp]
	call	?size@?$basic_string@DU?$char_traits@D@std@@V?$allocator@D@2@@std@@QBEIXZ ; std::basic_string<char,std::char_traits<char>,std::allocator<char> >::size
	cmp	eax, DWORD PTR __Roff$[ebp]
	jae	SHORT $LN5@assign

; 1106 : 			_Xran();	// _Roff off end

	mov	ecx, DWORD PTR _this$[ebp]
	call	?_Xran@?$basic_string@DU?$char_traits@D@std@@V?$allocator@D@2@@std@@QBEXXZ ; std::basic_string<char,std::char_traits<char>,std::allocator<char> >::_Xran
$LN5@assign:

; 1107 : 		size_type _Num = _Right.size() - _Roff;

	mov	ecx, DWORD PTR __Right$[ebp]
	call	?size@?$basic_string@DU?$char_traits@D@std@@V?$allocator@D@2@@std@@QBEIXZ ; std::basic_string<char,std::char_traits<char>,std::allocator<char> >::size
	sub	eax, DWORD PTR __Roff$[ebp]
	mov	DWORD PTR __Num$[ebp], eax

; 1108 : 		if (_Count < _Num)

	mov	eax, DWORD PTR __Count$[ebp]
	cmp	eax, DWORD PTR __Num$[ebp]
	jae	SHORT $LN4@assign

; 1109 : 			_Num = _Count;	// trim _Num to size

	mov	ecx, DWORD PTR __Count$[ebp]
	mov	DWORD PTR __Num$[ebp], ecx
$LN4@assign:

; 1110 : 
; 1111 : 		if (this == &_Right)

	mov	edx, DWORD PTR _this$[ebp]
	cmp	edx, DWORD PTR __Right$[ebp]
	jne	SHORT $LN3@assign

; 1112 : 			erase((size_type)(_Roff + _Num)), erase(0, _Roff);	// substring

	mov	eax, DWORD PTR __Roff$[ebp]
	add	eax, DWORD PTR __Num$[ebp]
	push	eax
	mov	ecx, DWORD PTR _this$[ebp]
	call	?erase@?$basic_string@DU?$char_traits@D@std@@V?$allocator@D@2@@std@@QAEAAV12@I@Z ; std::basic_string<char,std::char_traits<char>,std::allocator<char> >::erase
	mov	ecx, DWORD PTR __Roff$[ebp]
	push	ecx
	push	0
	mov	ecx, DWORD PTR _this$[ebp]
	call	?erase@?$basic_string@DU?$char_traits@D@std@@V?$allocator@D@2@@std@@QAEAAV12@II@Z ; std::basic_string<char,std::char_traits<char>,std::allocator<char> >::erase
	jmp	SHORT $LN2@assign
$LN3@assign:

; 1113 : 		else if (_Grow(_Num))

	push	0
	mov	edx, DWORD PTR __Num$[ebp]
	push	edx
	mov	ecx, DWORD PTR _this$[ebp]
	call	?_Grow@?$basic_string@DU?$char_traits@D@std@@V?$allocator@D@2@@std@@QAE_NI_N@Z ; std::basic_string<char,std::char_traits<char>,std::allocator<char> >::_Grow
	movzx	eax, al
	test	eax, eax
	je	SHORT $LN2@assign

; 1114 : 			{	// make room and assign new stuff
; 1115 : 			_Traits::copy(this->_Myptr(),
; 1116 : 				_Right._Myptr() + _Roff, _Num);

	mov	ecx, DWORD PTR __Num$[ebp]
	push	ecx
	mov	ecx, DWORD PTR __Right$[ebp]
	call	?_Myptr@?$_String_val@U?$_Simple_types@D@std@@@std@@QBEPBDXZ ; std::_String_val<std::_Simple_types<char> >::_Myptr
	add	eax, DWORD PTR __Roff$[ebp]
	push	eax
	mov	ecx, DWORD PTR _this$[ebp]
	call	?_Myptr@?$_String_val@U?$_Simple_types@D@std@@@std@@QAEPADXZ ; std::_String_val<std::_Simple_types<char> >::_Myptr
	push	eax
	call	?copy@?$char_traits@D@std@@SAPADPADPBDI@Z ; std::char_traits<char>::copy
	add	esp, 12					; 0000000cH

; 1117 : 			_Eos(_Num);

	mov	edx, DWORD PTR __Num$[ebp]
	push	edx
	mov	ecx, DWORD PTR _this$[ebp]
	call	?_Eos@?$basic_string@DU?$char_traits@D@std@@V?$allocator@D@2@@std@@QAEXI@Z ; std::basic_string<char,std::char_traits<char>,std::allocator<char> >::_Eos
$LN2@assign:

; 1118 : 			}
; 1119 : 		return (*this);

	mov	eax, DWORD PTR _this$[ebp]
$LN7@assign:

; 1120 : 		}

	mov	esp, ebp
	pop	ebp
	ret	12					; 0000000cH
?assign@?$basic_string@DU?$char_traits@D@std@@V?$allocator@D@2@@std@@QAEAAV12@ABV12@II@Z ENDP ; std::basic_string<char,std::char_traits<char>,std::allocator<char> >::assign
_TEXT	ENDS
; Function compile flags: /Odtp
; File c:\program files (x86)\microsoft visual studio 11.0\vc\include\xstring
;	COMDAT ??0?$basic_string@DU?$char_traits@D@std@@V?$allocator@D@2@@std@@QAE@PBD@Z
_TEXT	SEGMENT
_this$ = -8						; size = 4
$T1 = -1						; size = 1
__Ptr$ = 8						; size = 4
??0?$basic_string@DU?$char_traits@D@std@@V?$allocator@D@2@@std@@QAE@PBD@Z PROC ; std::basic_string<char,std::char_traits<char>,std::allocator<char> >::basic_string<char,std::char_traits<char>,std::allocator<char> >, COMDAT
; _this$ = ecx

; 791  : 		{	// construct from [_Ptr, <null>)

	push	ebp
	mov	ebp, esp
	sub	esp, 8
	mov	DWORD PTR _this$[ebp], ecx
	lea	ecx, DWORD PTR $T1[ebp]
	call	??0?$allocator@D@std@@QAE@XZ		; std::allocator<char>::allocator<char>
	push	eax
	mov	ecx, DWORD PTR _this$[ebp]
	call	??0?$_String_alloc@$0A@U?$_String_base_types@DV?$allocator@D@std@@@std@@@std@@QAE@ABV?$allocator@D@1@@Z ; std::_String_alloc<0,std::_String_base_types<char,std::allocator<char> > >::_String_alloc<0,std::_String_base_types<char,std::allocator<char> > >

; 792  : 		_Tidy();

	push	0
	push	0
	mov	ecx, DWORD PTR _this$[ebp]
	call	?_Tidy@?$basic_string@DU?$char_traits@D@std@@V?$allocator@D@2@@std@@QAEX_NI@Z ; std::basic_string<char,std::char_traits<char>,std::allocator<char> >::_Tidy

; 793  : 		assign(_Ptr);

	mov	eax, DWORD PTR __Ptr$[ebp]
	push	eax
	mov	ecx, DWORD PTR _this$[ebp]
	call	?assign@?$basic_string@DU?$char_traits@D@std@@V?$allocator@D@2@@std@@QAEAAV12@PBD@Z ; std::basic_string<char,std::char_traits<char>,std::allocator<char> >::assign

; 794  : 		}

	mov	eax, DWORD PTR _this$[ebp]
	mov	esp, ebp
	pop	ebp
	ret	4
??0?$basic_string@DU?$char_traits@D@std@@V?$allocator@D@2@@std@@QAE@PBD@Z ENDP ; std::basic_string<char,std::char_traits<char>,std::allocator<char> >::basic_string<char,std::char_traits<char>,std::allocator<char> >
_TEXT	ENDS
; Function compile flags: /Odtp
; File c:\program files (x86)\microsoft visual studio 11.0\vc\include\xstring
;	COMDAT ?_Getal@?$_String_alloc@$0A@U?$_String_base_types@DV?$allocator@D@std@@@std@@@std@@QBE?AU?$_Wrap_alloc@V?$allocator@D@std@@@2@XZ
_TEXT	SEGMENT
_this$ = -4						; size = 4
___$ReturnUdt$ = 8					; size = 4
?_Getal@?$_String_alloc@$0A@U?$_String_base_types@DV?$allocator@D@std@@@std@@@std@@QBE?AU?$_Wrap_alloc@V?$allocator@D@std@@@2@XZ PROC ; std::_String_alloc<0,std::_String_base_types<char,std::allocator<char> > >::_Getal, COMDAT
; _this$ = ecx

; 688  : 		{	// get reference to allocator

	push	ebp
	mov	ebp, esp
	push	ecx
	mov	DWORD PTR _this$[ebp], ecx

; 689  : 		return (_Alty());

	mov	ecx, DWORD PTR ___$ReturnUdt$[ebp]
	call	??0?$_Wrap_alloc@V?$allocator@D@std@@@std@@QAE@XZ ; std::_Wrap_alloc<std::allocator<char> >::_Wrap_alloc<std::allocator<char> >
	mov	eax, DWORD PTR ___$ReturnUdt$[ebp]

; 690  : 		}

	mov	esp, ebp
	pop	ebp
	ret	4
?_Getal@?$_String_alloc@$0A@U?$_String_base_types@DV?$allocator@D@std@@@std@@@std@@QBE?AU?$_Wrap_alloc@V?$allocator@D@std@@@2@XZ ENDP ; std::_String_alloc<0,std::_String_base_types<char,std::allocator<char> > >::_Getal
_TEXT	ENDS
; Function compile flags: /Odtp
; File c:\program files (x86)\microsoft visual studio 11.0\vc\include\xstring
;	COMDAT ??0?$_String_alloc@$0A@U?$_String_base_types@DV?$allocator@D@std@@@std@@@std@@QAE@ABV?$allocator@D@1@@Z
_TEXT	SEGMENT
_this$ = -4						; size = 4
___formal$ = 8						; size = 4
??0?$_String_alloc@$0A@U?$_String_base_types@DV?$allocator@D@std@@@std@@@std@@QAE@ABV?$allocator@D@1@@Z PROC ; std::_String_alloc<0,std::_String_base_types<char,std::allocator<char> > >::_String_alloc<0,std::_String_base_types<char,std::allocator<char> > >, COMDAT
; _this$ = ecx

; 635  : 	_String_alloc(const _Alloc& = _Alloc())

	push	ebp
	mov	ebp, esp
	push	ecx
	mov	DWORD PTR _this$[ebp], ecx
	mov	ecx, DWORD PTR _this$[ebp]
	call	??0?$_String_val@U?$_Simple_types@D@std@@@std@@QAE@XZ ; std::_String_val<std::_Simple_types<char> >::_String_val<std::_Simple_types<char> >

; 636  : 		{	// construct allocator from _Al
; 637  : 		}

	mov	eax, DWORD PTR _this$[ebp]
	mov	esp, ebp
	pop	ebp
	ret	4
??0?$_String_alloc@$0A@U?$_String_base_types@DV?$allocator@D@std@@@std@@@std@@QAE@ABV?$allocator@D@1@@Z ENDP ; std::_String_alloc<0,std::_String_base_types<char,std::allocator<char> > >::_String_alloc<0,std::_String_base_types<char,std::allocator<char> > >
_TEXT	ENDS
; Function compile flags: /Odtp
; File c:\program files (x86)\microsoft visual studio 11.0\vc\include\xstring
;	COMDAT ?_Myptr@?$_String_val@U?$_Simple_types@D@std@@@std@@QBEPBDXZ
_TEXT	SEGMENT
tv72 = -8						; size = 4
_this$ = -4						; size = 4
?_Myptr@?$_String_val@U?$_Simple_types@D@std@@@std@@QBEPBDXZ PROC ; std::_String_val<std::_Simple_types<char> >::_Myptr, COMDAT
; _this$ = ecx

; 521  : 		{	// determine current pointer to buffer for nonmutable string

	push	ebp
	mov	ebp, esp
	sub	esp, 8
	mov	DWORD PTR _this$[ebp], ecx

; 522  : 		return (this->_BUF_SIZE <= this->_Myres
; 523  : 			? _STD addressof(*this->_Bx._Ptr)
; 524  : 			: this->_Bx._Buf);

	mov	eax, DWORD PTR _this$[ebp]
	cmp	DWORD PTR [eax+20], 16			; 00000010H
	jb	SHORT $LN3@Myptr
	mov	ecx, DWORD PTR _this$[ebp]
	mov	edx, DWORD PTR [ecx]
	push	edx
	call	??$addressof@D@std@@YAPADAAD@Z		; std::addressof<char>
	add	esp, 4
	mov	DWORD PTR tv72[ebp], eax
	jmp	SHORT $LN4@Myptr
$LN3@Myptr:
	mov	eax, DWORD PTR _this$[ebp]
	mov	DWORD PTR tv72[ebp], eax
$LN4@Myptr:
	mov	eax, DWORD PTR tv72[ebp]

; 525  : 		}

	mov	esp, ebp
	pop	ebp
	ret	0
?_Myptr@?$_String_val@U?$_Simple_types@D@std@@@std@@QBEPBDXZ ENDP ; std::_String_val<std::_Simple_types<char> >::_Myptr
_TEXT	ENDS
; Function compile flags: /Odtp
; File c:\program files (x86)\microsoft visual studio 11.0\vc\include\xstring
;	COMDAT ?_Myptr@?$_String_val@U?$_Simple_types@D@std@@@std@@QAEPADXZ
_TEXT	SEGMENT
tv72 = -8						; size = 4
_this$ = -4						; size = 4
?_Myptr@?$_String_val@U?$_Simple_types@D@std@@@std@@QAEPADXZ PROC ; std::_String_val<std::_Simple_types<char> >::_Myptr, COMDAT
; _this$ = ecx

; 514  : 		{	// determine current pointer to buffer for mutable string

	push	ebp
	mov	ebp, esp
	sub	esp, 8
	mov	DWORD PTR _this$[ebp], ecx

; 515  : 		return (this->_BUF_SIZE <= this->_Myres
; 516  : 			? _STD addressof(*this->_Bx._Ptr)
; 517  : 			: this->_Bx._Buf);

	mov	eax, DWORD PTR _this$[ebp]
	cmp	DWORD PTR [eax+20], 16			; 00000010H
	jb	SHORT $LN3@Myptr
	mov	ecx, DWORD PTR _this$[ebp]
	mov	edx, DWORD PTR [ecx]
	push	edx
	call	??$addressof@D@std@@YAPADAAD@Z		; std::addressof<char>
	add	esp, 4
	mov	DWORD PTR tv72[ebp], eax
	jmp	SHORT $LN4@Myptr
$LN3@Myptr:
	mov	eax, DWORD PTR _this$[ebp]
	mov	DWORD PTR tv72[ebp], eax
$LN4@Myptr:
	mov	eax, DWORD PTR tv72[ebp]

; 518  : 		}

	mov	esp, ebp
	pop	ebp
	ret	0
?_Myptr@?$_String_val@U?$_Simple_types@D@std@@@std@@QAEPADXZ ENDP ; std::_String_val<std::_Simple_types<char> >::_Myptr
_TEXT	ENDS
; Function compile flags: /Odtp
; File c:\program files (x86)\microsoft visual studio 11.0\vc\include\xstring
;	COMDAT ??0?$_String_val@U?$_Simple_types@D@std@@@std@@QAE@XZ
_TEXT	SEGMENT
_this$ = -4						; size = 4
??0?$_String_val@U?$_Simple_types@D@std@@@std@@QAE@XZ PROC ; std::_String_val<std::_Simple_types<char> >::_String_val<std::_Simple_types<char> >, COMDAT
; _this$ = ecx

; 496  : 	_String_val()

	push	ebp
	mov	ebp, esp
	push	ecx
	mov	DWORD PTR _this$[ebp], ecx

; 497  : 		{	// initialize values
; 498  : 		_Mysize = 0;

	mov	eax, DWORD PTR _this$[ebp]
	mov	DWORD PTR [eax+16], 0

; 499  : 		_Myres = 0;

	mov	ecx, DWORD PTR _this$[ebp]
	mov	DWORD PTR [ecx+20], 0

; 500  : 		}

	mov	eax, DWORD PTR _this$[ebp]
	mov	esp, ebp
	pop	ebp
	ret	0
??0?$_String_val@U?$_Simple_types@D@std@@@std@@QAE@XZ ENDP ; std::_String_val<std::_Simple_types<char> >::_String_val<std::_Simple_types<char> >
_TEXT	ENDS
; Function compile flags: /Odtp
; File c:\program files (x86)\microsoft visual studio 11.0\vc\include\xmemory0
;	COMDAT ?max_size@?$_Wrap_alloc@V?$allocator@D@std@@@std@@QBEIXZ
_TEXT	SEGMENT
_this$ = -4						; size = 4
?max_size@?$_Wrap_alloc@V?$allocator@D@std@@@std@@QBEIXZ PROC ; std::_Wrap_alloc<std::allocator<char> >::max_size, COMDAT
; _this$ = ecx

; 913  : 		{	// get maximum size

	push	ebp
	mov	ebp, esp
	push	ecx
	mov	DWORD PTR _this$[ebp], ecx

; 914  : 		return (_Mytraits::max_size(*this));

	mov	eax, DWORD PTR _this$[ebp]
	push	eax
	call	?max_size@?$allocator_traits@V?$allocator@D@std@@@std@@SAIABV?$allocator@D@2@@Z ; std::allocator_traits<std::allocator<char> >::max_size
	add	esp, 4

; 915  : 		}

	mov	esp, ebp
	pop	ebp
	ret	0
?max_size@?$_Wrap_alloc@V?$allocator@D@std@@@std@@QBEIXZ ENDP ; std::_Wrap_alloc<std::allocator<char> >::max_size
_TEXT	ENDS
; Function compile flags: /Odtp
; File c:\program files (x86)\microsoft visual studio 11.0\vc\include\xmemory0
;	COMDAT ?deallocate@?$_Wrap_alloc@V?$allocator@D@std@@@std@@QAEXPADI@Z
_TEXT	SEGMENT
_this$ = -4						; size = 4
__Ptr$ = 8						; size = 4
__Count$ = 12						; size = 4
?deallocate@?$_Wrap_alloc@V?$allocator@D@std@@@std@@QAEXPADI@Z PROC ; std::_Wrap_alloc<std::allocator<char> >::deallocate, COMDAT
; _this$ = ecx

; 886  : 		{	// deallocate object at _Ptr, ignore size

	push	ebp
	mov	ebp, esp
	push	ecx
	mov	DWORD PTR _this$[ebp], ecx

; 887  : 		_Mybase::deallocate(_Ptr, _Count);

	mov	eax, DWORD PTR __Count$[ebp]
	push	eax
	mov	ecx, DWORD PTR __Ptr$[ebp]
	push	ecx
	mov	ecx, DWORD PTR _this$[ebp]
	call	?deallocate@?$allocator@D@std@@QAEXPADI@Z ; std::allocator<char>::deallocate

; 888  : 		}

	mov	esp, ebp
	pop	ebp
	ret	8
?deallocate@?$_Wrap_alloc@V?$allocator@D@std@@@std@@QAEXPADI@Z ENDP ; std::_Wrap_alloc<std::allocator<char> >::deallocate
_TEXT	ENDS
; Function compile flags: /Odtp
; File c:\program files (x86)\microsoft visual studio 11.0\vc\include\xmemory0
;	COMDAT ?allocate@?$_Wrap_alloc@V?$allocator@D@std@@@std@@QAEPADI@Z
_TEXT	SEGMENT
_this$ = -4						; size = 4
__Count$ = 8						; size = 4
?allocate@?$_Wrap_alloc@V?$allocator@D@std@@@std@@QAEPADI@Z PROC ; std::_Wrap_alloc<std::allocator<char> >::allocate, COMDAT
; _this$ = ecx

; 875  : 		{	// allocate array of _Count elements

	push	ebp
	mov	ebp, esp
	push	ecx
	mov	DWORD PTR _this$[ebp], ecx

; 876  : 		return (_Mybase::allocate(_Count));

	mov	eax, DWORD PTR __Count$[ebp]
	push	eax
	mov	ecx, DWORD PTR _this$[ebp]
	call	?allocate@?$allocator@D@std@@QAEPADI@Z	; std::allocator<char>::allocate

; 877  : 		}

	mov	esp, ebp
	pop	ebp
	ret	4
?allocate@?$_Wrap_alloc@V?$allocator@D@std@@@std@@QAEPADI@Z ENDP ; std::_Wrap_alloc<std::allocator<char> >::allocate
_TEXT	ENDS
; Function compile flags: /Odtp
; File c:\program files (x86)\microsoft visual studio 11.0\vc\include\xmemory0
;	COMDAT ??0?$_Wrap_alloc@V?$allocator@D@std@@@std@@QAE@XZ
_TEXT	SEGMENT
_this$ = -4						; size = 4
??0?$_Wrap_alloc@V?$allocator@D@std@@@std@@QAE@XZ PROC	; std::_Wrap_alloc<std::allocator<char> >::_Wrap_alloc<std::allocator<char> >, COMDAT
; _this$ = ecx

; 830  : 		{	// construct default allocator (do nothing)

	push	ebp
	mov	ebp, esp
	push	ecx
	mov	DWORD PTR _this$[ebp], ecx
	mov	ecx, DWORD PTR _this$[ebp]
	call	??0?$allocator@D@std@@QAE@XZ		; std::allocator<char>::allocator<char>

; 831  : 		}

	mov	eax, DWORD PTR _this$[ebp]
	mov	esp, ebp
	pop	ebp
	ret	0
??0?$_Wrap_alloc@V?$allocator@D@std@@@std@@QAE@XZ ENDP	; std::_Wrap_alloc<std::allocator<char> >::_Wrap_alloc<std::allocator<char> >
_TEXT	ENDS
; Function compile flags: /Odtp
; File c:\program files (x86)\microsoft visual studio 11.0\vc\include\xmemory0
;	COMDAT ?max_size@?$allocator_traits@V?$allocator@D@std@@@std@@SAIABV?$allocator@D@2@@Z
_TEXT	SEGMENT
__Al$ = 8						; size = 4
?max_size@?$allocator_traits@V?$allocator@D@std@@@std@@SAIABV?$allocator@D@2@@Z PROC ; std::allocator_traits<std::allocator<char> >::max_size, COMDAT

; 761  : 		{	// get maximum size

	push	ebp
	mov	ebp, esp

; 762  : 		return (_Al.max_size());

	mov	ecx, DWORD PTR __Al$[ebp]
	call	?max_size@?$allocator@D@std@@QBEIXZ	; std::allocator<char>::max_size

; 763  : 		}

	pop	ebp
	ret	0
?max_size@?$allocator_traits@V?$allocator@D@std@@@std@@SAIABV?$allocator@D@2@@Z ENDP ; std::allocator_traits<std::allocator<char> >::max_size
_TEXT	ENDS
; Function compile flags: /Odtp
; File c:\program files (x86)\microsoft visual studio 11.0\vc\include\xmemory0
;	COMDAT ?max_size@?$allocator@D@std@@QBEIXZ
_TEXT	SEGMENT
_this$ = -4						; size = 4
?max_size@?$allocator@D@std@@QBEIXZ PROC		; std::allocator<char>::max_size, COMDAT
; _this$ = ecx

; 627  : 		{	// estimate maximum array size

	push	ebp
	mov	ebp, esp
	push	ecx
	mov	DWORD PTR _this$[ebp], ecx

; 628  : 		return ((size_t)(-1) / sizeof (_Ty));

	or	eax, -1

; 629  : 		}

	mov	esp, ebp
	pop	ebp
	ret	0
?max_size@?$allocator@D@std@@QBEIXZ ENDP		; std::allocator<char>::max_size
_TEXT	ENDS
; Function compile flags: /Odtp
; File c:\program files (x86)\microsoft visual studio 11.0\vc\include\xmemory0
;	COMDAT ?allocate@?$allocator@D@std@@QAEPADI@Z
_TEXT	SEGMENT
_this$ = -4						; size = 4
__Count$ = 8						; size = 4
?allocate@?$allocator@D@std@@QAEPADI@Z PROC		; std::allocator<char>::allocate, COMDAT
; _this$ = ecx

; 590  : 		{	// allocate array of _Count elements

	push	ebp
	mov	ebp, esp
	push	ecx
	mov	DWORD PTR _this$[ebp], ecx

; 591  : 		return (_Allocate(_Count, (pointer)0));

	push	0
	mov	eax, DWORD PTR __Count$[ebp]
	push	eax
	call	??$_Allocate@D@std@@YAPADIPAD@Z		; std::_Allocate<char>
	add	esp, 8

; 592  : 		}

	mov	esp, ebp
	pop	ebp
	ret	4
?allocate@?$allocator@D@std@@QAEPADI@Z ENDP		; std::allocator<char>::allocate
_TEXT	ENDS
; Function compile flags: /Odtp
; File c:\program files (x86)\microsoft visual studio 11.0\vc\include\xmemory0
;	COMDAT ?deallocate@?$allocator@D@std@@QAEXPADI@Z
_TEXT	SEGMENT
_this$ = -4						; size = 4
__Ptr$ = 8						; size = 4
___formal$ = 12						; size = 4
?deallocate@?$allocator@D@std@@QAEXPADI@Z PROC		; std::allocator<char>::deallocate, COMDAT
; _this$ = ecx

; 585  : 		{	// deallocate object at _Ptr, ignore size

	push	ebp
	mov	ebp, esp
	push	ecx
	mov	DWORD PTR _this$[ebp], ecx

; 586  : 		::operator delete(_Ptr);

	mov	eax, DWORD PTR __Ptr$[ebp]
	push	eax
	call	??3@YAXPAX@Z				; operator delete
	add	esp, 4

; 587  : 		}

	mov	esp, ebp
	pop	ebp
	ret	8
?deallocate@?$allocator@D@std@@QAEXPADI@Z ENDP		; std::allocator<char>::deallocate
_TEXT	ENDS
; Function compile flags: /Odtp
; File c:\program files (x86)\microsoft visual studio 11.0\vc\include\xmemory0
;	COMDAT ??0?$allocator@D@std@@QAE@XZ
_TEXT	SEGMENT
_this$ = -4						; size = 4
??0?$allocator@D@std@@QAE@XZ PROC			; std::allocator<char>::allocator<char>, COMDAT
; _this$ = ecx

; 565  : 	allocator() _THROW0()

	push	ebp
	mov	ebp, esp
	push	ecx
	mov	DWORD PTR _this$[ebp], ecx

; 566  : 		{	// construct default allocator (do nothing)
; 567  : 		}

	mov	eax, DWORD PTR _this$[ebp]
	mov	esp, ebp
	pop	ebp
	ret	0
??0?$allocator@D@std@@QAE@XZ ENDP			; std::allocator<char>::allocator<char>
_TEXT	ENDS
; Function compile flags: /Odtp
; File c:\program files (x86)\microsoft visual studio 11.0\vc\include\xutility
;	COMDAT ??__Eallocator_arg@std@@YAXXZ
text$yc	SEGMENT
$T1 = -1						; size = 1
??__Eallocator_arg@std@@YAXXZ PROC			; std::`dynamic initializer for 'allocator_arg'', COMDAT

; 3644 : const allocator_arg_t allocator_arg = allocator_arg_t();

	push	ebp
	mov	ebp, esp
	push	ecx
	xor	eax, eax
	mov	BYTE PTR $T1[ebp], al
	mov	esp, ebp
	pop	ebp
	ret	0
??__Eallocator_arg@std@@YAXXZ ENDP			; std::`dynamic initializer for 'allocator_arg''
text$yc	ENDS
; Function compile flags: /Odtp
; File c:\program files (x86)\microsoft visual studio 11.0\vc\include\utility
;	COMDAT ??__Epiecewise_construct@std@@YAXXZ
text$yc	SEGMENT
$T1 = -1						; size = 1
??__Epiecewise_construct@std@@YAXXZ PROC		; std::`dynamic initializer for 'piecewise_construct'', COMDAT

; 65   : 	piecewise_construct_t();

	push	ebp
	mov	ebp, esp
	push	ecx
	xor	eax, eax
	mov	BYTE PTR $T1[ebp], al
	mov	esp, ebp
	pop	ebp
	ret	0
??__Epiecewise_construct@std@@YAXXZ ENDP		; std::`dynamic initializer for 'piecewise_construct''
text$yc	ENDS
; Function compile flags: /Odtp
; File c:\program files (x86)\microsoft visual studio 11.0\vc\include\iosfwd
;	COMDAT ?assign@?$char_traits@D@std@@SAXAADABD@Z
_TEXT	SEGMENT
__Left$ = 8						; size = 4
__Right$ = 12						; size = 4
?assign@?$char_traits@D@std@@SAXAADABD@Z PROC		; std::char_traits<char>::assign, COMDAT

; 563  : 		{	// assign an element

	push	ebp
	mov	ebp, esp

; 564  : 		_Left = _Right;

	mov	eax, DWORD PTR __Left$[ebp]
	mov	ecx, DWORD PTR __Right$[ebp]
	mov	dl, BYTE PTR [ecx]
	mov	BYTE PTR [eax], dl

; 565  : 		}

	pop	ebp
	ret	0
?assign@?$char_traits@D@std@@SAXAADABD@Z ENDP		; std::char_traits<char>::assign
_TEXT	ENDS
; Function compile flags: /Odtp
; File c:\program files (x86)\microsoft visual studio 11.0\vc\include\iosfwd
;	COMDAT ?move@?$char_traits@D@std@@SAPADPADPBDI@Z
_TEXT	SEGMENT
tv69 = -4						; size = 4
__First1$ = 8						; size = 4
__First2$ = 12						; size = 4
__Count$ = 16						; size = 4
?move@?$char_traits@D@std@@SAPADPADPBDI@Z PROC		; std::char_traits<char>::move, COMDAT

; 551  : 		{	// copy [_First2, _First2 + _Count) to [_First1, ...)

	push	ebp
	mov	ebp, esp
	push	ecx

; 552  : 		return (_Count == 0 ? _First1
; 553  : 			: (_Elem *)_CSTD memmove(_First1, _First2, _Count));

	cmp	DWORD PTR __Count$[ebp], 0
	jne	SHORT $LN3@move
	mov	eax, DWORD PTR __First1$[ebp]
	mov	DWORD PTR tv69[ebp], eax
	jmp	SHORT $LN4@move
$LN3@move:
	mov	ecx, DWORD PTR __Count$[ebp]
	push	ecx
	mov	edx, DWORD PTR __First2$[ebp]
	push	edx
	mov	eax, DWORD PTR __First1$[ebp]
	push	eax
	call	_memmove
	add	esp, 12					; 0000000cH
	mov	DWORD PTR tv69[ebp], eax
$LN4@move:
	mov	eax, DWORD PTR tv69[ebp]

; 554  : 		}

	mov	esp, ebp
	pop	ebp
	ret	0
?move@?$char_traits@D@std@@SAPADPADPBDI@Z ENDP		; std::char_traits<char>::move
_TEXT	ENDS
; Function compile flags: /Odtp
; File c:\program files (x86)\microsoft visual studio 11.0\vc\include\iosfwd
;	COMDAT ?copy@?$char_traits@D@std@@SAPADPADPBDI@Z
_TEXT	SEGMENT
tv69 = -4						; size = 4
__First1$ = 8						; size = 4
__First2$ = 12						; size = 4
__Count$ = 16						; size = 4
?copy@?$char_traits@D@std@@SAPADPADPBDI@Z PROC		; std::char_traits<char>::copy, COMDAT

; 528  : 		{	// copy [_First2, _First2 + _Count) to [_First1, ...)

	push	ebp
	mov	ebp, esp
	push	ecx

; 529  : 		return (_Count == 0 ? _First1
; 530  : 			: (_Elem *)_CSTD memcpy(_First1, _First2, _Count));

	cmp	DWORD PTR __Count$[ebp], 0
	jne	SHORT $LN3@copy
	mov	eax, DWORD PTR __First1$[ebp]
	mov	DWORD PTR tv69[ebp], eax
	jmp	SHORT $LN4@copy
$LN3@copy:
	mov	ecx, DWORD PTR __Count$[ebp]
	push	ecx
	mov	edx, DWORD PTR __First2$[ebp]
	push	edx
	mov	eax, DWORD PTR __First1$[ebp]
	push	eax
	call	_memcpy
	add	esp, 12					; 0000000cH
	mov	DWORD PTR tv69[ebp], eax
$LN4@copy:
	mov	eax, DWORD PTR tv69[ebp]

; 531  : 		}

	mov	esp, ebp
	pop	ebp
	ret	0
?copy@?$char_traits@D@std@@SAPADPADPBDI@Z ENDP		; std::char_traits<char>::copy
_TEXT	ENDS
; Function compile flags: /Odtp
; File c:\program files (x86)\microsoft visual studio 11.0\vc\include\iosfwd
;	COMDAT ?length@?$char_traits@D@std@@SAIPBD@Z
_TEXT	SEGMENT
tv68 = -4						; size = 4
__First$ = 8						; size = 4
?length@?$char_traits@D@std@@SAIPBD@Z PROC		; std::char_traits<char>::length, COMDAT

; 521  : 		{	// find length of null-terminated string

	push	ebp
	mov	ebp, esp
	push	ecx

; 522  : 		return (*_First == 0 ? 0
; 523  : 			: _CSTD strlen(_First));

	mov	eax, DWORD PTR __First$[ebp]
	movsx	ecx, BYTE PTR [eax]
	test	ecx, ecx
	jne	SHORT $LN3@length
	mov	DWORD PTR tv68[ebp], 0
	jmp	SHORT $LN4@length
$LN3@length:
	mov	edx, DWORD PTR __First$[ebp]
	push	edx
	call	_strlen
	add	esp, 4
	mov	DWORD PTR tv68[ebp], eax
$LN4@length:
	mov	eax, DWORD PTR tv68[ebp]

; 524  : 		}

	mov	esp, ebp
	pop	ebp
	ret	0
?length@?$char_traits@D@std@@SAIPBD@Z ENDP		; std::char_traits<char>::length
_TEXT	ENDS
; Function compile flags: /Odtp
; File c:\program files (x86)\microsoft visual studio 11.0\vc\include\new.h
;	COMDAT ??3@YAXPAX0@Z
_TEXT	SEGMENT
___formal$ = 8						; size = 4
___formal$ = 12						; size = 4
??3@YAXPAX0@Z PROC					; operator delete, COMDAT

; 83   :         {return; }

	push	ebp
	mov	ebp, esp
	pop	ebp
	ret	0
??3@YAXPAX0@Z ENDP					; operator delete
_TEXT	ENDS
; Function compile flags: /Odtp
; File c:\program files (x86)\microsoft visual studio 11.0\vc\include\new.h
;	COMDAT ??2@YAPAXIPAX@Z
_TEXT	SEGMENT
___formal$ = 8						; size = 4
__Where$ = 12						; size = 4
??2@YAPAXIPAX@Z PROC					; operator new, COMDAT

; 81   :         {return (_Where); }

	push	ebp
	mov	ebp, esp
	mov	eax, DWORD PTR __Where$[ebp]
	pop	ebp
	ret	0
??2@YAPAXIPAX@Z ENDP					; operator new
_TEXT	ENDS
END
