; Listing generated by Microsoft (R) Optimizing Compiler Version 17.00.51106.1 

	TITLE	C:\Users\Zhitao Li\Documents\Visual Studio 2012\Projects\Freefalcon\SIM\Cockpit\cphsi.cpp
	.686P
	.XMM
	include listing.inc
	.model	flat

INCLUDELIB LIBCMT
INCLUDELIB OLDNAMES

PUBLIC	?min_exponent@?$numeric_limits@M@std@@2HB	; std::numeric_limits<float>::min_exponent
PUBLIC	?min_exponent10@?$numeric_limits@M@std@@2HB	; std::numeric_limits<float>::min_exponent10
PUBLIC	?digits@?$numeric_limits@N@std@@2HB		; std::numeric_limits<double>::digits
PUBLIC	?digits10@?$numeric_limits@N@std@@2HB		; std::numeric_limits<double>::digits10
PUBLIC	?max_digits10@?$numeric_limits@N@std@@2HB	; std::numeric_limits<double>::max_digits10
PUBLIC	?max_exponent@?$numeric_limits@N@std@@2HB	; std::numeric_limits<double>::max_exponent
PUBLIC	?max_exponent10@?$numeric_limits@N@std@@2HB	; std::numeric_limits<double>::max_exponent10
PUBLIC	?min_exponent@?$numeric_limits@N@std@@2HB	; std::numeric_limits<double>::min_exponent
PUBLIC	?min_exponent10@?$numeric_limits@N@std@@2HB	; std::numeric_limits<double>::min_exponent10
PUBLIC	?digits@?$numeric_limits@O@std@@2HB		; std::numeric_limits<long double>::digits
PUBLIC	?digits10@?$numeric_limits@O@std@@2HB		; std::numeric_limits<long double>::digits10
PUBLIC	?max_digits10@?$numeric_limits@O@std@@2HB	; std::numeric_limits<long double>::max_digits10
PUBLIC	?max_exponent@?$numeric_limits@O@std@@2HB	; std::numeric_limits<long double>::max_exponent
PUBLIC	?max_exponent10@?$numeric_limits@O@std@@2HB	; std::numeric_limits<long double>::max_exponent10
PUBLIC	?min_exponent@?$numeric_limits@O@std@@2HB	; std::numeric_limits<long double>::min_exponent
PUBLIC	?min_exponent10@?$numeric_limits@O@std@@2HB	; std::numeric_limits<long double>::min_exponent10
PUBLIC	?skipws@?$_Iosb@H@std@@2W4_Fmtflags@12@B	; std::_Iosb<int>::skipws
PUBLIC	?unitbuf@?$_Iosb@H@std@@2W4_Fmtflags@12@B	; std::_Iosb<int>::unitbuf
PUBLIC	?uppercase@?$_Iosb@H@std@@2W4_Fmtflags@12@B	; std::_Iosb<int>::uppercase
PUBLIC	?showbase@?$_Iosb@H@std@@2W4_Fmtflags@12@B	; std::_Iosb<int>::showbase
PUBLIC	?showpoint@?$_Iosb@H@std@@2W4_Fmtflags@12@B	; std::_Iosb<int>::showpoint
PUBLIC	?showpos@?$_Iosb@H@std@@2W4_Fmtflags@12@B	; std::_Iosb<int>::showpos
PUBLIC	?left@?$_Iosb@H@std@@2W4_Fmtflags@12@B		; std::_Iosb<int>::left
PUBLIC	?right@?$_Iosb@H@std@@2W4_Fmtflags@12@B		; std::_Iosb<int>::right
PUBLIC	?internal@?$_Iosb@H@std@@2W4_Fmtflags@12@B	; std::_Iosb<int>::internal
PUBLIC	?dec@?$_Iosb@H@std@@2W4_Fmtflags@12@B		; std::_Iosb<int>::dec
PUBLIC	?oct@?$_Iosb@H@std@@2W4_Fmtflags@12@B		; std::_Iosb<int>::oct
PUBLIC	?hex@?$_Iosb@H@std@@2W4_Fmtflags@12@B		; std::_Iosb<int>::hex
PUBLIC	?scientific@?$_Iosb@H@std@@2W4_Fmtflags@12@B	; std::_Iosb<int>::scientific
PUBLIC	?fixed@?$_Iosb@H@std@@2W4_Fmtflags@12@B		; std::_Iosb<int>::fixed
PUBLIC	?hexfloat@?$_Iosb@H@std@@2W4_Fmtflags@12@B	; std::_Iosb<int>::hexfloat
PUBLIC	?boolalpha@?$_Iosb@H@std@@2W4_Fmtflags@12@B	; std::_Iosb<int>::boolalpha
PUBLIC	?_Stdio@?$_Iosb@H@std@@2W4_Fmtflags@12@B	; std::_Iosb<int>::_Stdio
PUBLIC	?adjustfield@?$_Iosb@H@std@@2W4_Fmtflags@12@B	; std::_Iosb<int>::adjustfield
PUBLIC	?basefield@?$_Iosb@H@std@@2W4_Fmtflags@12@B	; std::_Iosb<int>::basefield
PUBLIC	?floatfield@?$_Iosb@H@std@@2W4_Fmtflags@12@B	; std::_Iosb<int>::floatfield
PUBLIC	?goodbit@?$_Iosb@H@std@@2W4_Iostate@12@B	; std::_Iosb<int>::goodbit
PUBLIC	?eofbit@?$_Iosb@H@std@@2W4_Iostate@12@B		; std::_Iosb<int>::eofbit
PUBLIC	?failbit@?$_Iosb@H@std@@2W4_Iostate@12@B	; std::_Iosb<int>::failbit
PUBLIC	?value@?$_Sizeof@U_Nil@std@@U12@U12@U12@U12@U12@U12@U12@@std@@2IB ; std::_Sizeof<std::_Nil,std::_Nil,std::_Nil,std::_Nil,std::_Nil,std::_Nil,std::_Nil,std::_Nil>::value
PUBLIC	?badbit@?$_Iosb@H@std@@2W4_Iostate@12@B		; std::_Iosb<int>::badbit
PUBLIC	?_Hardfail@?$_Iosb@H@std@@2W4_Iostate@12@B	; std::_Iosb<int>::_Hardfail
PUBLIC	?in@?$_Iosb@H@std@@2W4_Openmode@12@B		; std::_Iosb<int>::in
PUBLIC	?out@?$_Iosb@H@std@@2W4_Openmode@12@B		; std::_Iosb<int>::out
PUBLIC	?ate@?$_Iosb@H@std@@2W4_Openmode@12@B		; std::_Iosb<int>::ate
PUBLIC	?app@?$_Iosb@H@std@@2W4_Openmode@12@B		; std::_Iosb<int>::app
PUBLIC	?trunc@?$_Iosb@H@std@@2W4_Openmode@12@B		; std::_Iosb<int>::trunc
PUBLIC	?_Nocreate@?$_Iosb@H@std@@2W4_Openmode@12@B	; std::_Iosb<int>::_Nocreate
PUBLIC	?_Noreplace@?$_Iosb@H@std@@2W4_Openmode@12@B	; std::_Iosb<int>::_Noreplace
PUBLIC	?binary@?$_Iosb@H@std@@2W4_Openmode@12@B	; std::_Iosb<int>::binary
PUBLIC	?beg@?$_Iosb@H@std@@2W4_Seekdir@12@B		; std::_Iosb<int>::beg
PUBLIC	?cur@?$_Iosb@H@std@@2W4_Seekdir@12@B		; std::_Iosb<int>::cur
PUBLIC	?end@?$_Iosb@H@std@@2W4_Seekdir@12@B		; std::_Iosb<int>::end
PUBLIC	?_Stream_err@failure@ios_base@std@@0W4io_errc@43@B ; std::ios_base::failure::_Stream_err
PUBLIC	?has_denorm@_Num_base@std@@2W4float_denorm_style@2@B ; std::_Num_base::has_denorm
PUBLIC	?has_denorm_loss@_Num_base@std@@2_NB		; std::_Num_base::has_denorm_loss
PUBLIC	?has_infinity@_Num_base@std@@2_NB		; std::_Num_base::has_infinity
PUBLIC	?has_quiet_NaN@_Num_base@std@@2_NB		; std::_Num_base::has_quiet_NaN
PUBLIC	?has_signaling_NaN@_Num_base@std@@2_NB		; std::_Num_base::has_signaling_NaN
PUBLIC	?is_bounded@_Num_base@std@@2_NB			; std::_Num_base::is_bounded
PUBLIC	?is_exact@_Num_base@std@@2_NB			; std::_Num_base::is_exact
PUBLIC	?is_iec559@_Num_base@std@@2_NB			; std::_Num_base::is_iec559
PUBLIC	?is_integer@_Num_base@std@@2_NB			; std::_Num_base::is_integer
PUBLIC	?is_modulo@_Num_base@std@@2_NB			; std::_Num_base::is_modulo
PUBLIC	?is_signed@_Num_base@std@@2_NB			; std::_Num_base::is_signed
PUBLIC	?is_specialized@_Num_base@std@@2_NB		; std::_Num_base::is_specialized
PUBLIC	?tinyness_before@_Num_base@std@@2_NB		; std::_Num_base::tinyness_before
PUBLIC	?traps@_Num_base@std@@2_NB			; std::_Num_base::traps
PUBLIC	?round_style@_Num_base@std@@2W4float_round_style@2@B ; std::_Num_base::round_style
PUBLIC	?digits@_Num_base@std@@2HB			; std::_Num_base::digits
PUBLIC	?digits10@_Num_base@std@@2HB			; std::_Num_base::digits10
PUBLIC	?max_digits10@_Num_base@std@@2HB		; std::_Num_base::max_digits10
PUBLIC	?max_exponent@_Num_base@std@@2HB		; std::_Num_base::max_exponent
PUBLIC	?max_exponent10@_Num_base@std@@2HB		; std::_Num_base::max_exponent10
PUBLIC	?min_exponent@_Num_base@std@@2HB		; std::_Num_base::min_exponent
PUBLIC	?min_exponent10@_Num_base@std@@2HB		; std::_Num_base::min_exponent10
PUBLIC	?radix@_Num_base@std@@2HB			; std::_Num_base::radix
PUBLIC	?is_bounded@_Num_int_base@std@@2_NB		; std::_Num_int_base::is_bounded
PUBLIC	?is_exact@_Num_int_base@std@@2_NB		; std::_Num_int_base::is_exact
PUBLIC	?is_integer@_Num_int_base@std@@2_NB		; std::_Num_int_base::is_integer
PUBLIC	?is_modulo@_Num_int_base@std@@2_NB		; std::_Num_int_base::is_modulo
PUBLIC	?is_specialized@_Num_int_base@std@@2_NB		; std::_Num_int_base::is_specialized
PUBLIC	?radix@_Num_int_base@std@@2HB			; std::_Num_int_base::radix
PUBLIC	?has_denorm@_Num_float_base@std@@2W4float_denorm_style@2@B ; std::_Num_float_base::has_denorm
PUBLIC	?has_denorm_loss@_Num_float_base@std@@2_NB	; std::_Num_float_base::has_denorm_loss
PUBLIC	?has_infinity@_Num_float_base@std@@2_NB		; std::_Num_float_base::has_infinity
PUBLIC	?has_quiet_NaN@_Num_float_base@std@@2_NB	; std::_Num_float_base::has_quiet_NaN
PUBLIC	?has_signaling_NaN@_Num_float_base@std@@2_NB	; std::_Num_float_base::has_signaling_NaN
PUBLIC	?is_bounded@_Num_float_base@std@@2_NB		; std::_Num_float_base::is_bounded
PUBLIC	?is_exact@_Num_float_base@std@@2_NB		; std::_Num_float_base::is_exact
PUBLIC	?is_iec559@_Num_float_base@std@@2_NB		; std::_Num_float_base::is_iec559
PUBLIC	?is_integer@_Num_float_base@std@@2_NB		; std::_Num_float_base::is_integer
PUBLIC	?is_modulo@_Num_float_base@std@@2_NB		; std::_Num_float_base::is_modulo
PUBLIC	?is_signed@_Num_float_base@std@@2_NB		; std::_Num_float_base::is_signed
PUBLIC	?is_specialized@_Num_float_base@std@@2_NB	; std::_Num_float_base::is_specialized
PUBLIC	?tinyness_before@_Num_float_base@std@@2_NB	; std::_Num_float_base::tinyness_before
PUBLIC	?traps@_Num_float_base@std@@2_NB		; std::_Num_float_base::traps
PUBLIC	?round_style@_Num_float_base@std@@2W4float_round_style@2@B ; std::_Num_float_base::round_style
PUBLIC	?radix@_Num_float_base@std@@2HB			; std::_Num_float_base::radix
PUBLIC	?is_signed@?$numeric_limits@D@std@@2_NB		; std::numeric_limits<char>::is_signed
PUBLIC	?digits@?$numeric_limits@D@std@@2HB		; std::numeric_limits<char>::digits
PUBLIC	?digits10@?$numeric_limits@D@std@@2HB		; std::numeric_limits<char>::digits10
PUBLIC	?value@?$integral_constant@_N$0A@@std@@2_NB	; std::integral_constant<bool,0>::value
PUBLIC	?is_signed@?$numeric_limits@_W@std@@2_NB	; std::numeric_limits<wchar_t>::is_signed
PUBLIC	?digits@?$numeric_limits@_W@std@@2HB		; std::numeric_limits<wchar_t>::digits
PUBLIC	?digits10@?$numeric_limits@_W@std@@2HB		; std::numeric_limits<wchar_t>::digits10
PUBLIC	?value@?$integral_constant@_N$00@std@@2_NB	; std::integral_constant<bool,1>::value
PUBLIC	?is_modulo@?$numeric_limits@_N@std@@2_NB	; std::numeric_limits<bool>::is_modulo
PUBLIC	?is_signed@?$numeric_limits@_N@std@@2_NB	; std::numeric_limits<bool>::is_signed
PUBLIC	?digits@?$numeric_limits@_N@std@@2HB		; std::numeric_limits<bool>::digits
PUBLIC	?digits10@?$numeric_limits@_N@std@@2HB		; std::numeric_limits<bool>::digits10
PUBLIC	?collate@?$_Locbase@H@std@@2HB			; std::_Locbase<int>::collate
PUBLIC	?ctype@?$_Locbase@H@std@@2HB			; std::_Locbase<int>::ctype
PUBLIC	?monetary@?$_Locbase@H@std@@2HB			; std::_Locbase<int>::monetary
PUBLIC	?numeric@?$_Locbase@H@std@@2HB			; std::_Locbase<int>::numeric
PUBLIC	?time@?$_Locbase@H@std@@2HB			; std::_Locbase<int>::time
PUBLIC	?messages@?$_Locbase@H@std@@2HB			; std::_Locbase<int>::messages
PUBLIC	?all@?$_Locbase@H@std@@2HB			; std::_Locbase<int>::all
PUBLIC	?none@?$_Locbase@H@std@@2HB			; std::_Locbase<int>::none
PUBLIC	?is_signed@?$numeric_limits@C@std@@2_NB		; std::numeric_limits<signed char>::is_signed
PUBLIC	?digits@?$numeric_limits@C@std@@2HB		; std::numeric_limits<signed char>::digits
PUBLIC	?digits10@?$numeric_limits@C@std@@2HB		; std::numeric_limits<signed char>::digits10
PUBLIC	?is_signed@?$numeric_limits@E@std@@2_NB		; std::numeric_limits<unsigned char>::is_signed
PUBLIC	?digits@?$numeric_limits@E@std@@2HB		; std::numeric_limits<unsigned char>::digits
PUBLIC	?digits10@?$numeric_limits@E@std@@2HB		; std::numeric_limits<unsigned char>::digits10
PUBLIC	?value@?$_Sizeof@HU_Nil@std@@U12@U12@U12@U12@U12@U12@@std@@2IB ; std::_Sizeof<int,std::_Nil,std::_Nil,std::_Nil,std::_Nil,std::_Nil,std::_Nil,std::_Nil>::value
PUBLIC	?is_signed@?$numeric_limits@F@std@@2_NB		; std::numeric_limits<short>::is_signed
PUBLIC	?digits@?$numeric_limits@F@std@@2HB		; std::numeric_limits<short>::digits
PUBLIC	?digits10@?$numeric_limits@F@std@@2HB		; std::numeric_limits<short>::digits10
PUBLIC	?table_size@?$ctype@D@std@@2IB			; std::ctype<char>::table_size
PUBLIC	?is_signed@?$numeric_limits@G@std@@2_NB		; std::numeric_limits<unsigned short>::is_signed
PUBLIC	?digits@?$numeric_limits@G@std@@2HB		; std::numeric_limits<unsigned short>::digits
PUBLIC	?digits10@?$numeric_limits@G@std@@2HB		; std::numeric_limits<unsigned short>::digits10
PUBLIC	__GUID_00000000_0000_0000_0000_000000000000
PUBLIC	?is_signed@?$numeric_limits@H@std@@2_NB		; std::numeric_limits<int>::is_signed
PUBLIC	?digits@?$numeric_limits@H@std@@2HB		; std::numeric_limits<int>::digits
PUBLIC	?digits10@?$numeric_limits@H@std@@2HB		; std::numeric_limits<int>::digits10
PUBLIC	?is_signed@?$numeric_limits@I@std@@2_NB		; std::numeric_limits<unsigned int>::is_signed
PUBLIC	?digits@?$numeric_limits@I@std@@2HB		; std::numeric_limits<unsigned int>::digits
PUBLIC	?digits10@?$numeric_limits@I@std@@2HB		; std::numeric_limits<unsigned int>::digits10
PUBLIC	?SIMDIRTYDATA_INTERVAL@FalconEntity@@2KB	; FalconEntity::SIMDIRTYDATA_INTERVAL
PUBLIC	?CMPDIRTYDATA_INTERVAL@FalconEntity@@2KB	; FalconEntity::CMPDIRTYDATA_INTERVAL
PUBLIC	?is_signed@?$numeric_limits@J@std@@2_NB		; std::numeric_limits<long>::is_signed
PUBLIC	?digits@?$numeric_limits@J@std@@2HB		; std::numeric_limits<long>::digits
PUBLIC	?digits10@?$numeric_limits@J@std@@2HB		; std::numeric_limits<long>::digits10
PUBLIC	?is_signed@?$numeric_limits@K@std@@2_NB		; std::numeric_limits<unsigned long>::is_signed
PUBLIC	?digits@?$numeric_limits@K@std@@2HB		; std::numeric_limits<unsigned long>::digits
PUBLIC	?digits10@?$numeric_limits@K@std@@2HB		; std::numeric_limits<unsigned long>::digits10
PUBLIC	?is_signed@?$numeric_limits@_J@std@@2_NB	; std::numeric_limits<__int64>::is_signed
PUBLIC	?digits@?$numeric_limits@_J@std@@2HB		; std::numeric_limits<__int64>::digits
PUBLIC	?digits10@?$numeric_limits@_J@std@@2HB		; std::numeric_limits<__int64>::digits10
PUBLIC	?value@?$integral_constant@I$0A@@std@@2IB	; std::integral_constant<unsigned int,0>::value
PUBLIC	?is_signed@?$numeric_limits@_K@std@@2_NB	; std::numeric_limits<unsigned __int64>::is_signed
PUBLIC	?digits@?$numeric_limits@_K@std@@2HB		; std::numeric_limits<unsigned __int64>::digits
PUBLIC	?digits10@?$numeric_limits@_K@std@@2HB		; std::numeric_limits<unsigned __int64>::digits10
PUBLIC	?digits@?$numeric_limits@M@std@@2HB		; std::numeric_limits<float>::digits
PUBLIC	?digits10@?$numeric_limits@M@std@@2HB		; std::numeric_limits<float>::digits10
PUBLIC	?max_digits10@?$numeric_limits@M@std@@2HB	; std::numeric_limits<float>::max_digits10
PUBLIC	?max_exponent@?$numeric_limits@M@std@@2HB	; std::numeric_limits<float>::max_exponent
PUBLIC	?max_exponent10@?$numeric_limits@M@std@@2HB	; std::numeric_limits<float>::max_exponent10
;	COMDAT ?max_exponent10@?$numeric_limits@M@std@@2HB
CONST	SEGMENT
?max_exponent10@?$numeric_limits@M@std@@2HB DD 026H	; std::numeric_limits<float>::max_exponent10
CONST	ENDS
;	COMDAT ?max_exponent@?$numeric_limits@M@std@@2HB
CONST	SEGMENT
?max_exponent@?$numeric_limits@M@std@@2HB DD 080H	; std::numeric_limits<float>::max_exponent
CONST	ENDS
;	COMDAT ?max_digits10@?$numeric_limits@M@std@@2HB
CONST	SEGMENT
?max_digits10@?$numeric_limits@M@std@@2HB DD 09H	; std::numeric_limits<float>::max_digits10
CONST	ENDS
;	COMDAT ?digits10@?$numeric_limits@M@std@@2HB
CONST	SEGMENT
?digits10@?$numeric_limits@M@std@@2HB DD 06H		; std::numeric_limits<float>::digits10
CONST	ENDS
;	COMDAT ?digits@?$numeric_limits@M@std@@2HB
CONST	SEGMENT
?digits@?$numeric_limits@M@std@@2HB DD 018H		; std::numeric_limits<float>::digits
CONST	ENDS
;	COMDAT ?digits10@?$numeric_limits@_K@std@@2HB
CONST	SEGMENT
?digits10@?$numeric_limits@_K@std@@2HB DD 013H		; std::numeric_limits<unsigned __int64>::digits10
CONST	ENDS
;	COMDAT ?digits@?$numeric_limits@_K@std@@2HB
CONST	SEGMENT
?digits@?$numeric_limits@_K@std@@2HB DD 040H		; std::numeric_limits<unsigned __int64>::digits
CONST	ENDS
;	COMDAT ?is_signed@?$numeric_limits@_K@std@@2_NB
CONST	SEGMENT
?is_signed@?$numeric_limits@_K@std@@2_NB DB 00H		; std::numeric_limits<unsigned __int64>::is_signed
CONST	ENDS
;	COMDAT ?value@?$integral_constant@I$0A@@std@@2IB
CONST	SEGMENT
?value@?$integral_constant@I$0A@@std@@2IB DD 00H	; std::integral_constant<unsigned int,0>::value
CONST	ENDS
;	COMDAT ?digits10@?$numeric_limits@_J@std@@2HB
CONST	SEGMENT
?digits10@?$numeric_limits@_J@std@@2HB DD 012H		; std::numeric_limits<__int64>::digits10
CONST	ENDS
;	COMDAT ?digits@?$numeric_limits@_J@std@@2HB
CONST	SEGMENT
?digits@?$numeric_limits@_J@std@@2HB DD 03fH		; std::numeric_limits<__int64>::digits
CONST	ENDS
;	COMDAT ?is_signed@?$numeric_limits@_J@std@@2_NB
CONST	SEGMENT
?is_signed@?$numeric_limits@_J@std@@2_NB DB 01H		; std::numeric_limits<__int64>::is_signed
CONST	ENDS
;	COMDAT ?digits10@?$numeric_limits@K@std@@2HB
CONST	SEGMENT
?digits10@?$numeric_limits@K@std@@2HB DD 09H		; std::numeric_limits<unsigned long>::digits10
CONST	ENDS
;	COMDAT ?digits@?$numeric_limits@K@std@@2HB
CONST	SEGMENT
?digits@?$numeric_limits@K@std@@2HB DD 020H		; std::numeric_limits<unsigned long>::digits
CONST	ENDS
;	COMDAT ?is_signed@?$numeric_limits@K@std@@2_NB
CONST	SEGMENT
?is_signed@?$numeric_limits@K@std@@2_NB DB 00H		; std::numeric_limits<unsigned long>::is_signed
CONST	ENDS
;	COMDAT ?digits10@?$numeric_limits@J@std@@2HB
CONST	SEGMENT
?digits10@?$numeric_limits@J@std@@2HB DD 09H		; std::numeric_limits<long>::digits10
CONST	ENDS
;	COMDAT ?digits@?$numeric_limits@J@std@@2HB
CONST	SEGMENT
?digits@?$numeric_limits@J@std@@2HB DD 01fH		; std::numeric_limits<long>::digits
CONST	ENDS
;	COMDAT ?is_signed@?$numeric_limits@J@std@@2_NB
CONST	SEGMENT
?is_signed@?$numeric_limits@J@std@@2_NB DB 01H		; std::numeric_limits<long>::is_signed
CONST	ENDS
;	COMDAT ?CMPDIRTYDATA_INTERVAL@FalconEntity@@2KB
CONST	SEGMENT
?CMPDIRTYDATA_INTERVAL@FalconEntity@@2KB DD 0c8H	; FalconEntity::CMPDIRTYDATA_INTERVAL
CONST	ENDS
;	COMDAT ?SIMDIRTYDATA_INTERVAL@FalconEntity@@2KB
CONST	SEGMENT
?SIMDIRTYDATA_INTERVAL@FalconEntity@@2KB DD 0c8H	; FalconEntity::SIMDIRTYDATA_INTERVAL
CONST	ENDS
;	COMDAT ?digits10@?$numeric_limits@I@std@@2HB
CONST	SEGMENT
?digits10@?$numeric_limits@I@std@@2HB DD 09H		; std::numeric_limits<unsigned int>::digits10
CONST	ENDS
;	COMDAT ?digits@?$numeric_limits@I@std@@2HB
CONST	SEGMENT
?digits@?$numeric_limits@I@std@@2HB DD 020H		; std::numeric_limits<unsigned int>::digits
CONST	ENDS
;	COMDAT ?is_signed@?$numeric_limits@I@std@@2_NB
CONST	SEGMENT
?is_signed@?$numeric_limits@I@std@@2_NB DB 00H		; std::numeric_limits<unsigned int>::is_signed
CONST	ENDS
;	COMDAT ?digits10@?$numeric_limits@H@std@@2HB
CONST	SEGMENT
?digits10@?$numeric_limits@H@std@@2HB DD 09H		; std::numeric_limits<int>::digits10
CONST	ENDS
;	COMDAT ?digits@?$numeric_limits@H@std@@2HB
CONST	SEGMENT
?digits@?$numeric_limits@H@std@@2HB DD 01fH		; std::numeric_limits<int>::digits
CONST	ENDS
;	COMDAT ?is_signed@?$numeric_limits@H@std@@2_NB
CONST	SEGMENT
?is_signed@?$numeric_limits@H@std@@2_NB DB 01H		; std::numeric_limits<int>::is_signed
CONST	ENDS
;	COMDAT __GUID_00000000_0000_0000_0000_000000000000
CONST	SEGMENT
__GUID_00000000_0000_0000_0000_000000000000 DD 00H
	DW	00H
	DW	00H
	DB	00H
	DB	00H
	DB	00H
	DB	00H
	DB	00H
	DB	00H
	DB	00H
	DB	00H
CONST	ENDS
;	COMDAT ?digits10@?$numeric_limits@G@std@@2HB
CONST	SEGMENT
?digits10@?$numeric_limits@G@std@@2HB DD 04H		; std::numeric_limits<unsigned short>::digits10
CONST	ENDS
;	COMDAT ?digits@?$numeric_limits@G@std@@2HB
CONST	SEGMENT
?digits@?$numeric_limits@G@std@@2HB DD 010H		; std::numeric_limits<unsigned short>::digits
CONST	ENDS
;	COMDAT ?is_signed@?$numeric_limits@G@std@@2_NB
CONST	SEGMENT
?is_signed@?$numeric_limits@G@std@@2_NB DB 00H		; std::numeric_limits<unsigned short>::is_signed
CONST	ENDS
;	COMDAT ?table_size@?$ctype@D@std@@2IB
CONST	SEGMENT
?table_size@?$ctype@D@std@@2IB DD 0100H			; std::ctype<char>::table_size
CONST	ENDS
;	COMDAT ?digits10@?$numeric_limits@F@std@@2HB
CONST	SEGMENT
?digits10@?$numeric_limits@F@std@@2HB DD 04H		; std::numeric_limits<short>::digits10
CONST	ENDS
;	COMDAT ?digits@?$numeric_limits@F@std@@2HB
CONST	SEGMENT
?digits@?$numeric_limits@F@std@@2HB DD 0fH		; std::numeric_limits<short>::digits
CONST	ENDS
;	COMDAT ?is_signed@?$numeric_limits@F@std@@2_NB
CONST	SEGMENT
?is_signed@?$numeric_limits@F@std@@2_NB DB 01H		; std::numeric_limits<short>::is_signed
CONST	ENDS
;	COMDAT ?value@?$_Sizeof@HU_Nil@std@@U12@U12@U12@U12@U12@U12@@std@@2IB
CONST	SEGMENT
?value@?$_Sizeof@HU_Nil@std@@U12@U12@U12@U12@U12@U12@@std@@2IB DD 01H ; std::_Sizeof<int,std::_Nil,std::_Nil,std::_Nil,std::_Nil,std::_Nil,std::_Nil,std::_Nil>::value
CONST	ENDS
;	COMDAT ?digits10@?$numeric_limits@E@std@@2HB
CONST	SEGMENT
?digits10@?$numeric_limits@E@std@@2HB DD 02H		; std::numeric_limits<unsigned char>::digits10
CONST	ENDS
;	COMDAT ?digits@?$numeric_limits@E@std@@2HB
CONST	SEGMENT
?digits@?$numeric_limits@E@std@@2HB DD 08H		; std::numeric_limits<unsigned char>::digits
CONST	ENDS
;	COMDAT ?is_signed@?$numeric_limits@E@std@@2_NB
CONST	SEGMENT
?is_signed@?$numeric_limits@E@std@@2_NB DB 00H		; std::numeric_limits<unsigned char>::is_signed
CONST	ENDS
;	COMDAT ?digits10@?$numeric_limits@C@std@@2HB
CONST	SEGMENT
?digits10@?$numeric_limits@C@std@@2HB DD 02H		; std::numeric_limits<signed char>::digits10
CONST	ENDS
;	COMDAT ?digits@?$numeric_limits@C@std@@2HB
CONST	SEGMENT
?digits@?$numeric_limits@C@std@@2HB DD 07H		; std::numeric_limits<signed char>::digits
CONST	ENDS
;	COMDAT ?is_signed@?$numeric_limits@C@std@@2_NB
CONST	SEGMENT
?is_signed@?$numeric_limits@C@std@@2_NB DB 01H		; std::numeric_limits<signed char>::is_signed
CONST	ENDS
;	COMDAT ?none@?$_Locbase@H@std@@2HB
CONST	SEGMENT
?none@?$_Locbase@H@std@@2HB DD 00H			; std::_Locbase<int>::none
CONST	ENDS
;	COMDAT ?all@?$_Locbase@H@std@@2HB
CONST	SEGMENT
?all@?$_Locbase@H@std@@2HB DD 03fH			; std::_Locbase<int>::all
CONST	ENDS
;	COMDAT ?messages@?$_Locbase@H@std@@2HB
CONST	SEGMENT
?messages@?$_Locbase@H@std@@2HB DD 020H			; std::_Locbase<int>::messages
CONST	ENDS
;	COMDAT ?time@?$_Locbase@H@std@@2HB
CONST	SEGMENT
?time@?$_Locbase@H@std@@2HB DD 010H			; std::_Locbase<int>::time
CONST	ENDS
;	COMDAT ?numeric@?$_Locbase@H@std@@2HB
CONST	SEGMENT
?numeric@?$_Locbase@H@std@@2HB DD 08H			; std::_Locbase<int>::numeric
CONST	ENDS
;	COMDAT ?monetary@?$_Locbase@H@std@@2HB
CONST	SEGMENT
?monetary@?$_Locbase@H@std@@2HB DD 04H			; std::_Locbase<int>::monetary
CONST	ENDS
;	COMDAT ?ctype@?$_Locbase@H@std@@2HB
CONST	SEGMENT
?ctype@?$_Locbase@H@std@@2HB DD 02H			; std::_Locbase<int>::ctype
CONST	ENDS
;	COMDAT ?collate@?$_Locbase@H@std@@2HB
CONST	SEGMENT
?collate@?$_Locbase@H@std@@2HB DD 01H			; std::_Locbase<int>::collate
CONST	ENDS
;	COMDAT ?digits10@?$numeric_limits@_N@std@@2HB
CONST	SEGMENT
?digits10@?$numeric_limits@_N@std@@2HB DD 00H		; std::numeric_limits<bool>::digits10
CONST	ENDS
;	COMDAT ?digits@?$numeric_limits@_N@std@@2HB
CONST	SEGMENT
?digits@?$numeric_limits@_N@std@@2HB DD 01H		; std::numeric_limits<bool>::digits
CONST	ENDS
;	COMDAT ?is_signed@?$numeric_limits@_N@std@@2_NB
CONST	SEGMENT
?is_signed@?$numeric_limits@_N@std@@2_NB DB 00H		; std::numeric_limits<bool>::is_signed
CONST	ENDS
;	COMDAT ?is_modulo@?$numeric_limits@_N@std@@2_NB
CONST	SEGMENT
?is_modulo@?$numeric_limits@_N@std@@2_NB DB 00H		; std::numeric_limits<bool>::is_modulo
CONST	ENDS
;	COMDAT ?value@?$integral_constant@_N$00@std@@2_NB
CONST	SEGMENT
?value@?$integral_constant@_N$00@std@@2_NB DB 01H	; std::integral_constant<bool,1>::value
CONST	ENDS
;	COMDAT ?digits10@?$numeric_limits@_W@std@@2HB
CONST	SEGMENT
?digits10@?$numeric_limits@_W@std@@2HB DD 04H		; std::numeric_limits<wchar_t>::digits10
CONST	ENDS
;	COMDAT ?digits@?$numeric_limits@_W@std@@2HB
CONST	SEGMENT
?digits@?$numeric_limits@_W@std@@2HB DD 010H		; std::numeric_limits<wchar_t>::digits
CONST	ENDS
;	COMDAT ?is_signed@?$numeric_limits@_W@std@@2_NB
CONST	SEGMENT
?is_signed@?$numeric_limits@_W@std@@2_NB DB 00H		; std::numeric_limits<wchar_t>::is_signed
CONST	ENDS
;	COMDAT ?value@?$integral_constant@_N$0A@@std@@2_NB
CONST	SEGMENT
?value@?$integral_constant@_N$0A@@std@@2_NB DB 00H	; std::integral_constant<bool,0>::value
CONST	ENDS
;	COMDAT ?digits10@?$numeric_limits@D@std@@2HB
CONST	SEGMENT
?digits10@?$numeric_limits@D@std@@2HB DD 02H		; std::numeric_limits<char>::digits10
CONST	ENDS
;	COMDAT ?digits@?$numeric_limits@D@std@@2HB
CONST	SEGMENT
?digits@?$numeric_limits@D@std@@2HB DD 07H		; std::numeric_limits<char>::digits
CONST	ENDS
;	COMDAT ?is_signed@?$numeric_limits@D@std@@2_NB
CONST	SEGMENT
?is_signed@?$numeric_limits@D@std@@2_NB DB 01H		; std::numeric_limits<char>::is_signed
CONST	ENDS
;	COMDAT ?radix@_Num_float_base@std@@2HB
CONST	SEGMENT
?radix@_Num_float_base@std@@2HB DD 02H			; std::_Num_float_base::radix
CONST	ENDS
;	COMDAT ?round_style@_Num_float_base@std@@2W4float_round_style@2@B
CONST	SEGMENT
?round_style@_Num_float_base@std@@2W4float_round_style@2@B DD 01H ; std::_Num_float_base::round_style
CONST	ENDS
;	COMDAT ?traps@_Num_float_base@std@@2_NB
CONST	SEGMENT
?traps@_Num_float_base@std@@2_NB DB 00H			; std::_Num_float_base::traps
CONST	ENDS
;	COMDAT ?tinyness_before@_Num_float_base@std@@2_NB
CONST	SEGMENT
?tinyness_before@_Num_float_base@std@@2_NB DB 01H	; std::_Num_float_base::tinyness_before
CONST	ENDS
;	COMDAT ?is_specialized@_Num_float_base@std@@2_NB
CONST	SEGMENT
?is_specialized@_Num_float_base@std@@2_NB DB 01H	; std::_Num_float_base::is_specialized
CONST	ENDS
;	COMDAT ?is_signed@_Num_float_base@std@@2_NB
CONST	SEGMENT
?is_signed@_Num_float_base@std@@2_NB DB 01H		; std::_Num_float_base::is_signed
CONST	ENDS
;	COMDAT ?is_modulo@_Num_float_base@std@@2_NB
CONST	SEGMENT
?is_modulo@_Num_float_base@std@@2_NB DB 00H		; std::_Num_float_base::is_modulo
CONST	ENDS
;	COMDAT ?is_integer@_Num_float_base@std@@2_NB
CONST	SEGMENT
?is_integer@_Num_float_base@std@@2_NB DB 00H		; std::_Num_float_base::is_integer
CONST	ENDS
;	COMDAT ?is_iec559@_Num_float_base@std@@2_NB
CONST	SEGMENT
?is_iec559@_Num_float_base@std@@2_NB DB 01H		; std::_Num_float_base::is_iec559
CONST	ENDS
;	COMDAT ?is_exact@_Num_float_base@std@@2_NB
CONST	SEGMENT
?is_exact@_Num_float_base@std@@2_NB DB 00H		; std::_Num_float_base::is_exact
CONST	ENDS
;	COMDAT ?is_bounded@_Num_float_base@std@@2_NB
CONST	SEGMENT
?is_bounded@_Num_float_base@std@@2_NB DB 01H		; std::_Num_float_base::is_bounded
CONST	ENDS
;	COMDAT ?has_signaling_NaN@_Num_float_base@std@@2_NB
CONST	SEGMENT
?has_signaling_NaN@_Num_float_base@std@@2_NB DB 01H	; std::_Num_float_base::has_signaling_NaN
CONST	ENDS
;	COMDAT ?has_quiet_NaN@_Num_float_base@std@@2_NB
CONST	SEGMENT
?has_quiet_NaN@_Num_float_base@std@@2_NB DB 01H		; std::_Num_float_base::has_quiet_NaN
CONST	ENDS
;	COMDAT ?has_infinity@_Num_float_base@std@@2_NB
CONST	SEGMENT
?has_infinity@_Num_float_base@std@@2_NB DB 01H		; std::_Num_float_base::has_infinity
CONST	ENDS
;	COMDAT ?has_denorm_loss@_Num_float_base@std@@2_NB
CONST	SEGMENT
?has_denorm_loss@_Num_float_base@std@@2_NB DB 01H	; std::_Num_float_base::has_denorm_loss
CONST	ENDS
;	COMDAT ?has_denorm@_Num_float_base@std@@2W4float_denorm_style@2@B
CONST	SEGMENT
?has_denorm@_Num_float_base@std@@2W4float_denorm_style@2@B DD 01H ; std::_Num_float_base::has_denorm
CONST	ENDS
;	COMDAT ?radix@_Num_int_base@std@@2HB
CONST	SEGMENT
?radix@_Num_int_base@std@@2HB DD 02H			; std::_Num_int_base::radix
CONST	ENDS
;	COMDAT ?is_specialized@_Num_int_base@std@@2_NB
CONST	SEGMENT
?is_specialized@_Num_int_base@std@@2_NB DB 01H		; std::_Num_int_base::is_specialized
CONST	ENDS
;	COMDAT ?is_modulo@_Num_int_base@std@@2_NB
CONST	SEGMENT
?is_modulo@_Num_int_base@std@@2_NB DB 01H		; std::_Num_int_base::is_modulo
CONST	ENDS
;	COMDAT ?is_integer@_Num_int_base@std@@2_NB
CONST	SEGMENT
?is_integer@_Num_int_base@std@@2_NB DB 01H		; std::_Num_int_base::is_integer
CONST	ENDS
;	COMDAT ?is_exact@_Num_int_base@std@@2_NB
CONST	SEGMENT
?is_exact@_Num_int_base@std@@2_NB DB 01H		; std::_Num_int_base::is_exact
CONST	ENDS
;	COMDAT ?is_bounded@_Num_int_base@std@@2_NB
CONST	SEGMENT
?is_bounded@_Num_int_base@std@@2_NB DB 01H		; std::_Num_int_base::is_bounded
CONST	ENDS
;	COMDAT ?radix@_Num_base@std@@2HB
CONST	SEGMENT
?radix@_Num_base@std@@2HB DD 00H			; std::_Num_base::radix
CONST	ENDS
;	COMDAT ?min_exponent10@_Num_base@std@@2HB
CONST	SEGMENT
?min_exponent10@_Num_base@std@@2HB DD 00H		; std::_Num_base::min_exponent10
CONST	ENDS
;	COMDAT ?min_exponent@_Num_base@std@@2HB
CONST	SEGMENT
?min_exponent@_Num_base@std@@2HB DD 00H			; std::_Num_base::min_exponent
CONST	ENDS
;	COMDAT ?max_exponent10@_Num_base@std@@2HB
CONST	SEGMENT
?max_exponent10@_Num_base@std@@2HB DD 00H		; std::_Num_base::max_exponent10
CONST	ENDS
;	COMDAT ?max_exponent@_Num_base@std@@2HB
CONST	SEGMENT
?max_exponent@_Num_base@std@@2HB DD 00H			; std::_Num_base::max_exponent
CONST	ENDS
;	COMDAT ?max_digits10@_Num_base@std@@2HB
CONST	SEGMENT
?max_digits10@_Num_base@std@@2HB DD 00H			; std::_Num_base::max_digits10
CONST	ENDS
;	COMDAT ?digits10@_Num_base@std@@2HB
CONST	SEGMENT
?digits10@_Num_base@std@@2HB DD 00H			; std::_Num_base::digits10
CONST	ENDS
;	COMDAT ?digits@_Num_base@std@@2HB
CONST	SEGMENT
?digits@_Num_base@std@@2HB DD 00H			; std::_Num_base::digits
CONST	ENDS
;	COMDAT ?round_style@_Num_base@std@@2W4float_round_style@2@B
CONST	SEGMENT
?round_style@_Num_base@std@@2W4float_round_style@2@B DD 00H ; std::_Num_base::round_style
CONST	ENDS
;	COMDAT ?traps@_Num_base@std@@2_NB
CONST	SEGMENT
?traps@_Num_base@std@@2_NB DB 00H			; std::_Num_base::traps
CONST	ENDS
CONST	SEGMENT
_COMPASS_X_CENTER DD 000000000r			; 0
_COMPASS_Y_CENTER DD 0bdcccccdr			; -0.1
_HALFPI	DD	03fc90ff9r			; 1.5708
_L_2	DD	03f317218r			; 0.693147
_NEAR_CLIP DD	03f800000r			; 1
CONST	ENDS
;	COMDAT ?tinyness_before@_Num_base@std@@2_NB
CONST	SEGMENT
?tinyness_before@_Num_base@std@@2_NB DB 00H		; std::_Num_base::tinyness_before
CONST	ENDS
;	COMDAT ?is_specialized@_Num_base@std@@2_NB
CONST	SEGMENT
?is_specialized@_Num_base@std@@2_NB DB 00H		; std::_Num_base::is_specialized
CONST	ENDS
;	COMDAT ?is_signed@_Num_base@std@@2_NB
CONST	SEGMENT
?is_signed@_Num_base@std@@2_NB DB 00H			; std::_Num_base::is_signed
CONST	ENDS
;	COMDAT ?is_modulo@_Num_base@std@@2_NB
CONST	SEGMENT
?is_modulo@_Num_base@std@@2_NB DB 00H			; std::_Num_base::is_modulo
CONST	ENDS
;	COMDAT ?is_integer@_Num_base@std@@2_NB
CONST	SEGMENT
?is_integer@_Num_base@std@@2_NB DB 00H			; std::_Num_base::is_integer
CONST	ENDS
;	COMDAT ?is_iec559@_Num_base@std@@2_NB
CONST	SEGMENT
?is_iec559@_Num_base@std@@2_NB DB 00H			; std::_Num_base::is_iec559
CONST	ENDS
;	COMDAT ?is_exact@_Num_base@std@@2_NB
CONST	SEGMENT
?is_exact@_Num_base@std@@2_NB DB 00H			; std::_Num_base::is_exact
CONST	ENDS
;	COMDAT ?is_bounded@_Num_base@std@@2_NB
CONST	SEGMENT
?is_bounded@_Num_base@std@@2_NB DB 00H			; std::_Num_base::is_bounded
CONST	ENDS
;	COMDAT ?has_signaling_NaN@_Num_base@std@@2_NB
CONST	SEGMENT
?has_signaling_NaN@_Num_base@std@@2_NB DB 00H		; std::_Num_base::has_signaling_NaN
CONST	ENDS
;	COMDAT ?has_quiet_NaN@_Num_base@std@@2_NB
CONST	SEGMENT
?has_quiet_NaN@_Num_base@std@@2_NB DB 00H		; std::_Num_base::has_quiet_NaN
CONST	ENDS
;	COMDAT ?has_infinity@_Num_base@std@@2_NB
CONST	SEGMENT
?has_infinity@_Num_base@std@@2_NB DB 00H		; std::_Num_base::has_infinity
CONST	ENDS
;	COMDAT ?has_denorm_loss@_Num_base@std@@2_NB
CONST	SEGMENT
?has_denorm_loss@_Num_base@std@@2_NB DB 00H		; std::_Num_base::has_denorm_loss
CONST	ENDS
;	COMDAT ?has_denorm@_Num_base@std@@2W4float_denorm_style@2@B
CONST	SEGMENT
?has_denorm@_Num_base@std@@2W4float_denorm_style@2@B DD 00H ; std::_Num_base::has_denorm
CONST	ENDS
;	COMDAT ?_Stream_err@failure@ios_base@std@@0W4io_errc@43@B
CONST	SEGMENT
?_Stream_err@failure@ios_base@std@@0W4io_errc@43@B DD 01H ; std::ios_base::failure::_Stream_err
CONST	ENDS
;	COMDAT ?end@?$_Iosb@H@std@@2W4_Seekdir@12@B
CONST	SEGMENT
?end@?$_Iosb@H@std@@2W4_Seekdir@12@B DD 02H		; std::_Iosb<int>::end
CONST	ENDS
;	COMDAT ?cur@?$_Iosb@H@std@@2W4_Seekdir@12@B
CONST	SEGMENT
?cur@?$_Iosb@H@std@@2W4_Seekdir@12@B DD 01H		; std::_Iosb<int>::cur
CONST	ENDS
;	COMDAT ?beg@?$_Iosb@H@std@@2W4_Seekdir@12@B
CONST	SEGMENT
?beg@?$_Iosb@H@std@@2W4_Seekdir@12@B DD 00H		; std::_Iosb<int>::beg
CONST	ENDS
;	COMDAT ?binary@?$_Iosb@H@std@@2W4_Openmode@12@B
CONST	SEGMENT
?binary@?$_Iosb@H@std@@2W4_Openmode@12@B DD 020H	; std::_Iosb<int>::binary
CONST	ENDS
;	COMDAT ?_Noreplace@?$_Iosb@H@std@@2W4_Openmode@12@B
CONST	SEGMENT
?_Noreplace@?$_Iosb@H@std@@2W4_Openmode@12@B DD 080H	; std::_Iosb<int>::_Noreplace
CONST	ENDS
;	COMDAT ?_Nocreate@?$_Iosb@H@std@@2W4_Openmode@12@B
CONST	SEGMENT
?_Nocreate@?$_Iosb@H@std@@2W4_Openmode@12@B DD 040H	; std::_Iosb<int>::_Nocreate
CONST	ENDS
;	COMDAT ?trunc@?$_Iosb@H@std@@2W4_Openmode@12@B
CONST	SEGMENT
?trunc@?$_Iosb@H@std@@2W4_Openmode@12@B DD 010H		; std::_Iosb<int>::trunc
CONST	ENDS
;	COMDAT ?app@?$_Iosb@H@std@@2W4_Openmode@12@B
CONST	SEGMENT
?app@?$_Iosb@H@std@@2W4_Openmode@12@B DD 08H		; std::_Iosb<int>::app
CONST	ENDS
;	COMDAT ?ate@?$_Iosb@H@std@@2W4_Openmode@12@B
CONST	SEGMENT
?ate@?$_Iosb@H@std@@2W4_Openmode@12@B DD 04H		; std::_Iosb<int>::ate
CONST	ENDS
;	COMDAT ?out@?$_Iosb@H@std@@2W4_Openmode@12@B
CONST	SEGMENT
?out@?$_Iosb@H@std@@2W4_Openmode@12@B DD 02H		; std::_Iosb<int>::out
CONST	ENDS
;	COMDAT ?in@?$_Iosb@H@std@@2W4_Openmode@12@B
CONST	SEGMENT
?in@?$_Iosb@H@std@@2W4_Openmode@12@B DD 01H		; std::_Iosb<int>::in
CONST	ENDS
;	COMDAT ?_Hardfail@?$_Iosb@H@std@@2W4_Iostate@12@B
CONST	SEGMENT
?_Hardfail@?$_Iosb@H@std@@2W4_Iostate@12@B DD 010H	; std::_Iosb<int>::_Hardfail
CONST	ENDS
;	COMDAT ?badbit@?$_Iosb@H@std@@2W4_Iostate@12@B
CONST	SEGMENT
?badbit@?$_Iosb@H@std@@2W4_Iostate@12@B DD 04H		; std::_Iosb<int>::badbit
CONST	ENDS
;	COMDAT ?value@?$_Sizeof@U_Nil@std@@U12@U12@U12@U12@U12@U12@U12@@std@@2IB
CONST	SEGMENT
?value@?$_Sizeof@U_Nil@std@@U12@U12@U12@U12@U12@U12@U12@@std@@2IB DD 00H ; std::_Sizeof<std::_Nil,std::_Nil,std::_Nil,std::_Nil,std::_Nil,std::_Nil,std::_Nil,std::_Nil>::value
CONST	ENDS
;	COMDAT ?failbit@?$_Iosb@H@std@@2W4_Iostate@12@B
CONST	SEGMENT
?failbit@?$_Iosb@H@std@@2W4_Iostate@12@B DD 02H		; std::_Iosb<int>::failbit
CONST	ENDS
;	COMDAT ?eofbit@?$_Iosb@H@std@@2W4_Iostate@12@B
CONST	SEGMENT
?eofbit@?$_Iosb@H@std@@2W4_Iostate@12@B DD 01H		; std::_Iosb<int>::eofbit
CONST	ENDS
;	COMDAT ?goodbit@?$_Iosb@H@std@@2W4_Iostate@12@B
CONST	SEGMENT
?goodbit@?$_Iosb@H@std@@2W4_Iostate@12@B DD 00H		; std::_Iosb<int>::goodbit
CONST	ENDS
;	COMDAT ?floatfield@?$_Iosb@H@std@@2W4_Fmtflags@12@B
CONST	SEGMENT
?floatfield@?$_Iosb@H@std@@2W4_Fmtflags@12@B DD 03000H	; std::_Iosb<int>::floatfield
CONST	ENDS
;	COMDAT ?basefield@?$_Iosb@H@std@@2W4_Fmtflags@12@B
CONST	SEGMENT
?basefield@?$_Iosb@H@std@@2W4_Fmtflags@12@B DD 0e00H	; std::_Iosb<int>::basefield
CONST	ENDS
;	COMDAT ?adjustfield@?$_Iosb@H@std@@2W4_Fmtflags@12@B
CONST	SEGMENT
?adjustfield@?$_Iosb@H@std@@2W4_Fmtflags@12@B DD 01c0H	; std::_Iosb<int>::adjustfield
CONST	ENDS
;	COMDAT ?_Stdio@?$_Iosb@H@std@@2W4_Fmtflags@12@B
CONST	SEGMENT
?_Stdio@?$_Iosb@H@std@@2W4_Fmtflags@12@B DD 08000H	; std::_Iosb<int>::_Stdio
CONST	ENDS
;	COMDAT ?boolalpha@?$_Iosb@H@std@@2W4_Fmtflags@12@B
CONST	SEGMENT
?boolalpha@?$_Iosb@H@std@@2W4_Fmtflags@12@B DD 04000H	; std::_Iosb<int>::boolalpha
CONST	ENDS
;	COMDAT ?hexfloat@?$_Iosb@H@std@@2W4_Fmtflags@12@B
CONST	SEGMENT
?hexfloat@?$_Iosb@H@std@@2W4_Fmtflags@12@B DD 03000H	; std::_Iosb<int>::hexfloat
CONST	ENDS
;	COMDAT ?fixed@?$_Iosb@H@std@@2W4_Fmtflags@12@B
CONST	SEGMENT
?fixed@?$_Iosb@H@std@@2W4_Fmtflags@12@B DD 02000H	; std::_Iosb<int>::fixed
CONST	ENDS
;	COMDAT ?scientific@?$_Iosb@H@std@@2W4_Fmtflags@12@B
CONST	SEGMENT
?scientific@?$_Iosb@H@std@@2W4_Fmtflags@12@B DD 01000H	; std::_Iosb<int>::scientific
CONST	ENDS
;	COMDAT ?hex@?$_Iosb@H@std@@2W4_Fmtflags@12@B
CONST	SEGMENT
?hex@?$_Iosb@H@std@@2W4_Fmtflags@12@B DD 0800H		; std::_Iosb<int>::hex
CONST	ENDS
;	COMDAT ?oct@?$_Iosb@H@std@@2W4_Fmtflags@12@B
CONST	SEGMENT
?oct@?$_Iosb@H@std@@2W4_Fmtflags@12@B DD 0400H		; std::_Iosb<int>::oct
CONST	ENDS
;	COMDAT ?dec@?$_Iosb@H@std@@2W4_Fmtflags@12@B
CONST	SEGMENT
?dec@?$_Iosb@H@std@@2W4_Fmtflags@12@B DD 0200H		; std::_Iosb<int>::dec
CONST	ENDS
;	COMDAT ?internal@?$_Iosb@H@std@@2W4_Fmtflags@12@B
CONST	SEGMENT
?internal@?$_Iosb@H@std@@2W4_Fmtflags@12@B DD 0100H	; std::_Iosb<int>::internal
CONST	ENDS
;	COMDAT ?right@?$_Iosb@H@std@@2W4_Fmtflags@12@B
CONST	SEGMENT
?right@?$_Iosb@H@std@@2W4_Fmtflags@12@B DD 080H		; std::_Iosb<int>::right
CONST	ENDS
;	COMDAT ?left@?$_Iosb@H@std@@2W4_Fmtflags@12@B
CONST	SEGMENT
?left@?$_Iosb@H@std@@2W4_Fmtflags@12@B DD 040H		; std::_Iosb<int>::left
CONST	ENDS
;	COMDAT ?showpos@?$_Iosb@H@std@@2W4_Fmtflags@12@B
CONST	SEGMENT
?showpos@?$_Iosb@H@std@@2W4_Fmtflags@12@B DD 020H	; std::_Iosb<int>::showpos
CONST	ENDS
;	COMDAT ?showpoint@?$_Iosb@H@std@@2W4_Fmtflags@12@B
CONST	SEGMENT
?showpoint@?$_Iosb@H@std@@2W4_Fmtflags@12@B DD 010H	; std::_Iosb<int>::showpoint
CONST	ENDS
;	COMDAT ?showbase@?$_Iosb@H@std@@2W4_Fmtflags@12@B
CONST	SEGMENT
?showbase@?$_Iosb@H@std@@2W4_Fmtflags@12@B DD 08H	; std::_Iosb<int>::showbase
CONST	ENDS
;	COMDAT ?uppercase@?$_Iosb@H@std@@2W4_Fmtflags@12@B
CONST	SEGMENT
?uppercase@?$_Iosb@H@std@@2W4_Fmtflags@12@B DD 04H	; std::_Iosb<int>::uppercase
CONST	ENDS
;	COMDAT ?unitbuf@?$_Iosb@H@std@@2W4_Fmtflags@12@B
CONST	SEGMENT
?unitbuf@?$_Iosb@H@std@@2W4_Fmtflags@12@B DD 02H	; std::_Iosb<int>::unitbuf
CONST	ENDS
;	COMDAT ?skipws@?$_Iosb@H@std@@2W4_Fmtflags@12@B
CONST	SEGMENT
?skipws@?$_Iosb@H@std@@2W4_Fmtflags@12@B DD 01H		; std::_Iosb<int>::skipws
CONST	ENDS
_DATA	SEGMENT
_matrix33_ident DD 03f800000r			; 1
	DD	000000000r			; 0
	DD	000000000r			; 0
	DD	000000000r			; 0
	DD	03f800000r			; 1
	DD	000000000r			; 0
	DD	000000000r			; 0
	DD	000000000r			; 0
	DD	03f800000r			; 1
	ORG $+4
_matrix44_ident DD 03f800000r			; 1
	DD	000000000r			; 0
	DD	000000000r			; 0
	DD	000000000r			; 0
	DD	000000000r			; 0
	DD	03f800000r			; 1
	DD	000000000r			; 0
	DD	000000000r			; 0
	DD	000000000r			; 0
	DD	000000000r			; 0
	DD	03f800000r			; 1
	DD	000000000r			; 0
	DD	000000000r			; 0
	DD	000000000r			; 0
	DD	000000000r			; 0
	DD	03f800000r			; 1
_DATA	ENDS
;	COMDAT ?min_exponent10@?$numeric_limits@O@std@@2HB
CONST	SEGMENT
?min_exponent10@?$numeric_limits@O@std@@2HB DD 0fffffecdH ; std::numeric_limits<long double>::min_exponent10
CONST	ENDS
;	COMDAT ?min_exponent@?$numeric_limits@O@std@@2HB
CONST	SEGMENT
?min_exponent@?$numeric_limits@O@std@@2HB DD 0fffffc03H	; std::numeric_limits<long double>::min_exponent
CONST	ENDS
;	COMDAT ?max_exponent10@?$numeric_limits@O@std@@2HB
CONST	SEGMENT
?max_exponent10@?$numeric_limits@O@std@@2HB DD 0134H	; std::numeric_limits<long double>::max_exponent10
CONST	ENDS
;	COMDAT ?max_exponent@?$numeric_limits@O@std@@2HB
CONST	SEGMENT
?max_exponent@?$numeric_limits@O@std@@2HB DD 0400H	; std::numeric_limits<long double>::max_exponent
CONST	ENDS
;	COMDAT ?max_digits10@?$numeric_limits@O@std@@2HB
CONST	SEGMENT
?max_digits10@?$numeric_limits@O@std@@2HB DD 011H	; std::numeric_limits<long double>::max_digits10
CONST	ENDS
;	COMDAT ?digits10@?$numeric_limits@O@std@@2HB
CONST	SEGMENT
?digits10@?$numeric_limits@O@std@@2HB DD 0fH		; std::numeric_limits<long double>::digits10
CONST	ENDS
;	COMDAT ?digits@?$numeric_limits@O@std@@2HB
CONST	SEGMENT
?digits@?$numeric_limits@O@std@@2HB DD 035H		; std::numeric_limits<long double>::digits
CONST	ENDS
;	COMDAT ?min_exponent10@?$numeric_limits@N@std@@2HB
CONST	SEGMENT
?min_exponent10@?$numeric_limits@N@std@@2HB DD 0fffffecdH ; std::numeric_limits<double>::min_exponent10
CONST	ENDS
;	COMDAT ?min_exponent@?$numeric_limits@N@std@@2HB
CONST	SEGMENT
?min_exponent@?$numeric_limits@N@std@@2HB DD 0fffffc03H	; std::numeric_limits<double>::min_exponent
CONST	ENDS
;	COMDAT ?max_exponent10@?$numeric_limits@N@std@@2HB
CONST	SEGMENT
?max_exponent10@?$numeric_limits@N@std@@2HB DD 0134H	; std::numeric_limits<double>::max_exponent10
CONST	ENDS
;	COMDAT ?max_exponent@?$numeric_limits@N@std@@2HB
CONST	SEGMENT
?max_exponent@?$numeric_limits@N@std@@2HB DD 0400H	; std::numeric_limits<double>::max_exponent
CONST	ENDS
;	COMDAT ?max_digits10@?$numeric_limits@N@std@@2HB
CONST	SEGMENT
?max_digits10@?$numeric_limits@N@std@@2HB DD 011H	; std::numeric_limits<double>::max_digits10
CONST	ENDS
;	COMDAT ?digits10@?$numeric_limits@N@std@@2HB
CONST	SEGMENT
?digits10@?$numeric_limits@N@std@@2HB DD 0fH		; std::numeric_limits<double>::digits10
CONST	ENDS
;	COMDAT ?digits@?$numeric_limits@N@std@@2HB
CONST	SEGMENT
?digits@?$numeric_limits@N@std@@2HB DD 035H		; std::numeric_limits<double>::digits
CONST	ENDS
;	COMDAT ?min_exponent10@?$numeric_limits@M@std@@2HB
CONST	SEGMENT
?min_exponent10@?$numeric_limits@M@std@@2HB DD 0ffffffdbH ; std::numeric_limits<float>::min_exponent10
CONST	ENDS
;	COMDAT ?min_exponent@?$numeric_limits@M@std@@2HB
CONST	SEGMENT
?min_exponent@?$numeric_limits@M@std@@2HB DD 0ffffff83H	; std::numeric_limits<float>::min_exponent
CONST	ENDS
PUBLIC	??0_com_error@@QAE@JPAUIErrorInfo@@_N@Z		; _com_error::_com_error
PUBLIC	??0_com_error@@QAE@ABV0@@Z			; _com_error::_com_error
PUBLIC	??1_com_error@@UAE@XZ				; _com_error::~_com_error
PUBLIC	?Error@_com_error@@QBEJXZ			; _com_error::Error
PUBLIC	?WCode@_com_error@@QBEGXZ			; _com_error::WCode
PUBLIC	?ErrorMessage@_com_error@@QBEPBDXZ		; _com_error::ErrorMessage
PUBLIC	?HRESULTToWCode@_com_error@@SAGJ@Z		; _com_error::HRESULTToWCode
PUBLIC	??_G_com_error@@UAEPAXI@Z			; _com_error::`scalar deleting destructor'
PUBLIC	??2@YAPAXIPAX@Z					; operator new
PUBLIC	??3@YAXPAX0@Z					; operator delete
PUBLIC	_fabsf
PUBLIC	_ceilf
PUBLIC	_cosf
PUBLIC	_floorf
PUBLIC	_sinf
PUBLIC	?ceil@@YAMM@Z					; ceil
PUBLIC	?cos@@YAMM@Z					; cos
PUBLIC	?fabs@@YAMM@Z					; fabs
PUBLIC	?floor@@YAMM@Z					; floor
PUBLIC	?sin@@YAMM@Z					; sin
PUBLIC	?length@?$char_traits@D@std@@SAIPBD@Z		; std::char_traits<char>::length
PUBLIC	?copy@?$char_traits@D@std@@SAPADPADPBDI@Z	; std::char_traits<char>::copy
PUBLIC	?move@?$char_traits@D@std@@SAPADPADPBDI@Z	; std::char_traits<char>::move
PUBLIC	?assign@?$char_traits@D@std@@SAXAADABD@Z	; std::char_traits<char>::assign
PUBLIC	?_Orphan_all@_Container_base0@std@@QAEXXZ	; std::_Container_base0::_Orphan_all
PUBLIC	??0?$allocator@D@std@@QAE@XZ			; std::allocator<char>::allocator<char>
PUBLIC	?deallocate@?$allocator@D@std@@QAEXPADI@Z	; std::allocator<char>::deallocate
PUBLIC	?allocate@?$allocator@D@std@@QAEPADI@Z		; std::allocator<char>::allocate
PUBLIC	?max_size@?$allocator@D@std@@QBEIXZ		; std::allocator<char>::max_size
PUBLIC	?max_size@?$allocator_traits@V?$allocator@D@std@@@std@@SAIABV?$allocator@D@2@@Z ; std::allocator_traits<std::allocator<char> >::max_size
PUBLIC	??0?$_Wrap_alloc@V?$allocator@D@std@@@std@@QAE@XZ ; std::_Wrap_alloc<std::allocator<char> >::_Wrap_alloc<std::allocator<char> >
PUBLIC	?allocate@?$_Wrap_alloc@V?$allocator@D@std@@@std@@QAEPADI@Z ; std::_Wrap_alloc<std::allocator<char> >::allocate
PUBLIC	?deallocate@?$_Wrap_alloc@V?$allocator@D@std@@@std@@QAEXPADI@Z ; std::_Wrap_alloc<std::allocator<char> >::deallocate
PUBLIC	?max_size@?$_Wrap_alloc@V?$allocator@D@std@@@std@@QBEIXZ ; std::_Wrap_alloc<std::allocator<char> >::max_size
PUBLIC	??0?$_String_val@U?$_Simple_types@D@std@@@std@@QAE@XZ ; std::_String_val<std::_Simple_types<char> >::_String_val<std::_Simple_types<char> >
PUBLIC	?_Myptr@?$_String_val@U?$_Simple_types@D@std@@@std@@QAEPADXZ ; std::_String_val<std::_Simple_types<char> >::_Myptr
PUBLIC	?_Myptr@?$_String_val@U?$_Simple_types@D@std@@@std@@QBEPBDXZ ; std::_String_val<std::_Simple_types<char> >::_Myptr
PUBLIC	??0?$_String_alloc@$0A@U?$_String_base_types@DV?$allocator@D@std@@@std@@@std@@QAE@ABV?$allocator@D@1@@Z ; std::_String_alloc<0,std::_String_base_types<char,std::allocator<char> > >::_String_alloc<0,std::_String_base_types<char,std::allocator<char> > >
PUBLIC	?_Getal@?$_String_alloc@$0A@U?$_String_base_types@DV?$allocator@D@std@@@std@@@std@@QBE?AU?$_Wrap_alloc@V?$allocator@D@std@@@2@XZ ; std::_String_alloc<0,std::_String_base_types<char,std::allocator<char> > >::_Getal
PUBLIC	??0?$basic_string@DU?$char_traits@D@std@@V?$allocator@D@2@@std@@QAE@PBD@Z ; std::basic_string<char,std::char_traits<char>,std::allocator<char> >::basic_string<char,std::char_traits<char>,std::allocator<char> >
PUBLIC	?assign@?$basic_string@DU?$char_traits@D@std@@V?$allocator@D@2@@std@@QAEAAV12@ABV12@II@Z ; std::basic_string<char,std::char_traits<char>,std::allocator<char> >::assign
PUBLIC	?assign@?$basic_string@DU?$char_traits@D@std@@V?$allocator@D@2@@std@@QAEAAV12@PBDI@Z ; std::basic_string<char,std::char_traits<char>,std::allocator<char> >::assign
PUBLIC	?assign@?$basic_string@DU?$char_traits@D@std@@V?$allocator@D@2@@std@@QAEAAV12@PBD@Z ; std::basic_string<char,std::char_traits<char>,std::allocator<char> >::assign
PUBLIC	?erase@?$basic_string@DU?$char_traits@D@std@@V?$allocator@D@2@@std@@QAEAAV12@I@Z ; std::basic_string<char,std::char_traits<char>,std::allocator<char> >::erase
PUBLIC	?erase@?$basic_string@DU?$char_traits@D@std@@V?$allocator@D@2@@std@@QAEAAV12@II@Z ; std::basic_string<char,std::char_traits<char>,std::allocator<char> >::erase
PUBLIC	?size@?$basic_string@DU?$char_traits@D@std@@V?$allocator@D@2@@std@@QBEIXZ ; std::basic_string<char,std::char_traits<char>,std::allocator<char> >::size
PUBLIC	?max_size@?$basic_string@DU?$char_traits@D@std@@V?$allocator@D@2@@std@@QBEIXZ ; std::basic_string<char,std::char_traits<char>,std::allocator<char> >::max_size
PUBLIC	?_Copy@?$basic_string@DU?$char_traits@D@std@@V?$allocator@D@2@@std@@QAEXII@Z ; std::basic_string<char,std::char_traits<char>,std::allocator<char> >::_Copy
PUBLIC	?_Eos@?$basic_string@DU?$char_traits@D@std@@V?$allocator@D@2@@std@@QAEXI@Z ; std::basic_string<char,std::char_traits<char>,std::allocator<char> >::_Eos
PUBLIC	?_Grow@?$basic_string@DU?$char_traits@D@std@@V?$allocator@D@2@@std@@QAE_NI_N@Z ; std::basic_string<char,std::char_traits<char>,std::allocator<char> >::_Grow
PUBLIC	?_Inside@?$basic_string@DU?$char_traits@D@std@@V?$allocator@D@2@@std@@QAE_NPBD@Z ; std::basic_string<char,std::char_traits<char>,std::allocator<char> >::_Inside
PUBLIC	?_Tidy@?$basic_string@DU?$char_traits@D@std@@V?$allocator@D@2@@std@@QAEX_NI@Z ; std::basic_string<char,std::char_traits<char>,std::allocator<char> >::_Tidy
PUBLIC	?_Xlen@?$basic_string@DU?$char_traits@D@std@@V?$allocator@D@2@@std@@QBEXXZ ; std::basic_string<char,std::char_traits<char>,std::allocator<char> >::_Xlen
PUBLIC	?_Xran@?$basic_string@DU?$char_traits@D@std@@V?$allocator@D@2@@std@@QBEXXZ ; std::basic_string<char,std::char_traits<char>,std::allocator<char> >::_Xran
PUBLIC	??0id@locale@std@@QAE@I@Z			; std::locale::id::id
PUBLIC	?generic_category@std@@YAABVerror_category@1@XZ	; std::generic_category
PUBLIC	?system_category@std@@YAABVerror_category@1@XZ	; std::system_category
PUBLIC	??0error_category@std@@QAE@XZ			; std::error_category::error_category
PUBLIC	??1error_category@std@@UAE@XZ			; std::error_category::~error_category
PUBLIC	?default_error_condition@error_category@std@@UBE?AVerror_condition@2@H@Z ; std::error_category::default_error_condition
PUBLIC	?equivalent@error_category@std@@UBE_NHABVerror_condition@2@@Z ; std::error_category::equivalent
PUBLIC	?equivalent@error_category@std@@UBE_NABVerror_code@2@H@Z ; std::error_category::equivalent
PUBLIC	??8error_category@std@@QBE_NABV01@@Z		; std::error_category::operator==
PUBLIC	??_Gerror_category@std@@UAEPAXI@Z		; std::error_category::`scalar deleting destructor'
PUBLIC	?value@error_code@std@@QBEHXZ			; std::error_code::value
PUBLIC	?category@error_code@std@@QBEABVerror_category@2@XZ ; std::error_code::category
PUBLIC	??0error_condition@std@@QAE@HABVerror_category@1@@Z ; std::error_condition::error_condition
PUBLIC	?value@error_condition@std@@QBEHXZ		; std::error_condition::value
PUBLIC	?category@error_condition@std@@QBEABVerror_category@2@XZ ; std::error_condition::category
PUBLIC	??8error_condition@std@@QBE_NABV01@@Z		; std::error_condition::operator==
PUBLIC	??0_Generic_error_category@std@@QAE@XZ		; std::_Generic_error_category::_Generic_error_category
PUBLIC	?name@_Generic_error_category@std@@UBEPBDXZ	; std::_Generic_error_category::name
PUBLIC	?message@_Generic_error_category@std@@UBE?AV?$basic_string@DU?$char_traits@D@std@@V?$allocator@D@2@@2@H@Z ; std::_Generic_error_category::message
PUBLIC	??1_Generic_error_category@std@@UAE@XZ		; std::_Generic_error_category::~_Generic_error_category
PUBLIC	??_G_Generic_error_category@std@@UAEPAXI@Z	; std::_Generic_error_category::`scalar deleting destructor'
PUBLIC	??0_Iostream_error_category@std@@QAE@XZ		; std::_Iostream_error_category::_Iostream_error_category
PUBLIC	?name@_Iostream_error_category@std@@UBEPBDXZ	; std::_Iostream_error_category::name
PUBLIC	?message@_Iostream_error_category@std@@UBE?AV?$basic_string@DU?$char_traits@D@std@@V?$allocator@D@2@@2@H@Z ; std::_Iostream_error_category::message
PUBLIC	??1_Iostream_error_category@std@@UAE@XZ		; std::_Iostream_error_category::~_Iostream_error_category
PUBLIC	??_G_Iostream_error_category@std@@UAEPAXI@Z	; std::_Iostream_error_category::`scalar deleting destructor'
PUBLIC	??0_System_error_category@std@@QAE@XZ		; std::_System_error_category::_System_error_category
PUBLIC	?name@_System_error_category@std@@UBEPBDXZ	; std::_System_error_category::name
PUBLIC	?message@_System_error_category@std@@UBE?AV?$basic_string@DU?$char_traits@D@std@@V?$allocator@D@2@@2@H@Z ; std::_System_error_category::message
PUBLIC	?default_error_condition@_System_error_category@std@@UBE?AVerror_condition@2@H@Z ; std::_System_error_category::default_error_condition
PUBLIC	??1_System_error_category@std@@UAE@XZ		; std::_System_error_category::~_System_error_category
PUBLIC	??_G_System_error_category@std@@UAEPAXI@Z	; std::_System_error_category::`scalar deleting destructor'
PUBLIC	??0VU_SESSION_ID@@QAE@K@Z			; VU_SESSION_ID::VU_SESSION_ID
PUBLIC	??0VU_ID@@QAE@XZ				; VU_ID::VU_ID
PUBLIC	?XPos@VuEntity@@QBEMXZ				; VuEntity::XPos
PUBLIC	?YPos@VuEntity@@QBEMXZ				; VuEntity::YPos
PUBLIC	?ZPos@VuEntity@@QBEMXZ				; VuEntity::ZPos
PUBLIC	??B?$VuBin@VVuSessionEntity@@@@QBE_NXZ		; VuBin<VuSessionEntity>::operator bool
PUBLIC	?get@?$VuBin@VVuSessionEntity@@@@QBEPAVVuSessionEntity@@XZ ; VuBin<VuSessionEntity>::get
PUBLIC	?GetAltitude@FalconEntity@@QBEHXZ		; FalconEntity::GetAltitude
PUBLIC	?mlSinCos@@YAXPAUmlTrig@@M@Z			; mlSinCos
PUBLIC	?checked_atan2@@YANNN@Z				; checked_atan2
PUBLIC	??0?$allocator@PAVTextureHandle@@@std@@QAE@XZ	; std::allocator<TextureHandle *>::allocator<TextureHandle *>
PUBLIC	?deallocate@?$allocator@PAVTextureHandle@@@std@@QAEXPAPAVTextureHandle@@I@Z ; std::allocator<TextureHandle *>::deallocate
PUBLIC	?allocate@?$allocator@PAVTextureHandle@@@std@@QAEPAPAVTextureHandle@@I@Z ; std::allocator<TextureHandle *>::allocate
PUBLIC	?construct@?$allocator@PAVTextureHandle@@@std@@QAEXPAPAVTextureHandle@@ABQAV3@@Z ; std::allocator<TextureHandle *>::construct
PUBLIC	?max_size@?$allocator@PAVTextureHandle@@@std@@QBEIXZ ; std::allocator<TextureHandle *>::max_size
PUBLIC	?max_size@?$allocator_traits@V?$allocator@PAVTextureHandle@@@std@@@std@@SAIABV?$allocator@PAVTextureHandle@@@2@@Z ; std::allocator_traits<std::allocator<TextureHandle *> >::max_size
PUBLIC	??0?$_Wrap_alloc@V?$allocator@PAVTextureHandle@@@std@@@std@@QAE@XZ ; std::_Wrap_alloc<std::allocator<TextureHandle *> >::_Wrap_alloc<std::allocator<TextureHandle *> >
PUBLIC	?allocate@?$_Wrap_alloc@V?$allocator@PAVTextureHandle@@@std@@@std@@QAEPAPAVTextureHandle@@I@Z ; std::_Wrap_alloc<std::allocator<TextureHandle *> >::allocate
PUBLIC	?deallocate@?$_Wrap_alloc@V?$allocator@PAVTextureHandle@@@std@@@std@@QAEXPAPAVTextureHandle@@I@Z ; std::_Wrap_alloc<std::allocator<TextureHandle *> >::deallocate
PUBLIC	?max_size@?$_Wrap_alloc@V?$allocator@PAVTextureHandle@@@std@@@std@@QBEIXZ ; std::_Wrap_alloc<std::allocator<TextureHandle *> >::max_size
PUBLIC	?_Getal@?$_Vector_alloc@$0A@U?$_Vec_base_types@PAVTextureHandle@@V?$allocator@PAVTextureHandle@@@std@@@std@@@std@@QBE?AU?$_Wrap_alloc@V?$allocator@PAVTextureHandle@@@std@@@2@XZ ; std::_Vector_alloc<0,std::_Vec_base_types<TextureHandle *,std::allocator<TextureHandle *> > >::_Getal
PUBLIC	?capacity@?$vector@PAVTextureHandle@@V?$allocator@PAVTextureHandle@@@std@@@std@@QBEIXZ ; std::vector<TextureHandle *,std::allocator<TextureHandle *> >::capacity
PUBLIC	?_Unused_capacity@?$vector@PAVTextureHandle@@V?$allocator@PAVTextureHandle@@@std@@@std@@QBEIXZ ; std::vector<TextureHandle *,std::allocator<TextureHandle *> >::_Unused_capacity
PUBLIC	?size@?$vector@PAVTextureHandle@@V?$allocator@PAVTextureHandle@@@std@@@std@@QBEIXZ ; std::vector<TextureHandle *,std::allocator<TextureHandle *> >::size
PUBLIC	?max_size@?$vector@PAVTextureHandle@@V?$allocator@PAVTextureHandle@@@std@@@std@@QBEIXZ ; std::vector<TextureHandle *,std::allocator<TextureHandle *> >::max_size
PUBLIC	??A?$vector@PAVTextureHandle@@V?$allocator@PAVTextureHandle@@@std@@@std@@QAEAAPAVTextureHandle@@I@Z ; std::vector<TextureHandle *,std::allocator<TextureHandle *> >::operator[]
PUBLIC	?push_back@?$vector@PAVTextureHandle@@V?$allocator@PAVTextureHandle@@@std@@@std@@QAEXABQAVTextureHandle@@@Z ; std::vector<TextureHandle *,std::allocator<TextureHandle *> >::push_back
PUBLIC	?_Destroy@?$vector@PAVTextureHandle@@V?$allocator@PAVTextureHandle@@@std@@@std@@IAEXPAPAVTextureHandle@@0@Z ; std::vector<TextureHandle *,std::allocator<TextureHandle *> >::_Destroy
PUBLIC	?_Grow_to@?$vector@PAVTextureHandle@@V?$allocator@PAVTextureHandle@@@std@@@std@@IBEII@Z ; std::vector<TextureHandle *,std::allocator<TextureHandle *> >::_Grow_to
PUBLIC	?_Inside@?$vector@PAVTextureHandle@@V?$allocator@PAVTextureHandle@@@std@@@std@@IBE_NPBQAVTextureHandle@@@Z ; std::vector<TextureHandle *,std::allocator<TextureHandle *> >::_Inside
PUBLIC	?_Reallocate@?$vector@PAVTextureHandle@@V?$allocator@PAVTextureHandle@@@std@@@std@@IAEXI@Z ; std::vector<TextureHandle *,std::allocator<TextureHandle *> >::_Reallocate
PUBLIC	?_Reserve@?$vector@PAVTextureHandle@@V?$allocator@PAVTextureHandle@@@std@@@std@@IAEXI@Z ; std::vector<TextureHandle *,std::allocator<TextureHandle *> >::_Reserve
PUBLIC	?_Xlen@?$vector@PAVTextureHandle@@V?$allocator@PAVTextureHandle@@@std@@@std@@IBEXXZ ; std::vector<TextureHandle *,std::allocator<TextureHandle *> >::_Xlen
PUBLIC	?_Orphan_range@?$vector@PAVTextureHandle@@V?$allocator@PAVTextureHandle@@@std@@@std@@IBEXPAPAVTextureHandle@@0@Z ; std::vector<TextureHandle *,std::allocator<TextureHandle *> >::_Orphan_range
PUBLIC	?GetDisplayDevice@ImageBuffer@@QAEPAVDisplayDevice@@XZ ; ImageBuffer::GetDisplayDevice
PUBLIC	?CenterOriginInViewport@VirtualDisplay@@QAEXXZ	; VirtualDisplay::CenterOriginInViewport
PUBLIC	?ZeroRotationAboutOrigin@VirtualDisplay@@QAEXXZ	; VirtualDisplay::ZeroRotationAboutOrigin
PUBLIC	?glReleaseMemory@@YAXPAX@Z			; glReleaseMemory
PUBLIC	?GetGame@FalconSessionEntity@@QAEPAVFalconGameEntity@@XZ ; FalconSessionEntity::GetGame
PUBLIC	?INSState@AircraftClass@@QAEHW4INSAlignFlags@1@@Z ; AircraftClass::INSState
PUBLIC	?RunningTactical@SimulationDriver@@QBE_NXZ	; SimulationDriver::RunningTactical
PUBLIC	?GetPlayerEntity@SimulationDriver@@QBEPAVSimMoverClass@@XZ ; SimulationDriver::GetPlayerEntity
PUBLIC	?GetDefaultRC@DisplayDevice@@QAEPAVDXContext@@XZ ; DisplayDevice::GetDefaultRC
PUBLIC	?HandleEvent@CPObject@@UAEXXZ			; CPObject::HandleEvent
PUBLIC	?Translate@CPObject@@UAEXPAG@Z			; CPObject::Translate
PUBLIC	?Translate@CPObject@@UAEXPAK@Z			; CPObject::Translate
PUBLIC	??0CPHsi@@QAE@XZ				; CPHsi::CPHsi
PUBLIC	?Exec@CPHsi@@QAEXXZ				; CPHsi::Exec
PUBLIC	?IncState@CPHsi@@QAEXW4HSIButtonStates@1@M@Z	; CPHsi::IncState
PUBLIC	?DecState@CPHsi@@QAEXW4HSIButtonStates@1@M@Z	; CPHsi::DecState
PUBLIC	?GetState@CPHsi@@QAEHW4HSIButtonStates@1@@Z	; CPHsi::GetState
PUBLIC	?GetValue@CPHsi@@QAEMW4HSIValues@1@@Z		; CPHsi::GetValue
PUBLIC	?GetFlag@CPHsi@@QAEHW4HSIFlags@1@@Z		; CPHsi::GetFlag
PUBLIC	?ExecNav@CPHsi@@AAEXXZ				; CPHsi::ExecNav
PUBLIC	?ExecTacan@CPHsi@@AAEXXZ			; CPHsi::ExecTacan
PUBLIC	?ExecILSNav@CPHsi@@AAEXXZ			; CPHsi::ExecILSNav
PUBLIC	?ExecILSTacan@CPHsi@@AAEXXZ			; CPHsi::ExecILSTacan
PUBLIC	?ExecBeaconProximity@CPHsi@@AAEXMMMM@Z		; CPHsi::ExecBeaconProximity
PUBLIC	?CalcTCNCrsDev@CPHsi@@AAEXM@Z			; CPHsi::CalcTCNCrsDev
PUBLIC	?CalcILSCrsDev@CPHsi@@AAEXM@Z			; CPHsi::CalcILSCrsDev
PUBLIC	?BeaconInRange@CPHsi@@AAEHMM@Z			; CPHsi::BeaconInRange
PUBLIC	?MoveToCompassCenter@CPHsiView@@AAEXXZ		; CPHsiView::MoveToCompassCenter
PUBLIC	?DrawCourse@CPHsiView@@AAEXMM@Z			; CPHsiView::DrawCourse
PUBLIC	?DrawStationBearing@CPHsiView@@AAEXM@Z		; CPHsiView::DrawStationBearing
PUBLIC	?DrawAircraftSymbol@CPHsiView@@AAEXXZ		; CPHsiView::DrawAircraftSymbol
PUBLIC	?DrawHeadingMarker@CPHsiView@@AAEXM@Z		; CPHsiView::DrawHeadingMarker
PUBLIC	?DrawCourseWarning@CPHsiView@@AAEXXZ		; CPHsiView::DrawCourseWarning
PUBLIC	?DrawToFrom@CPHsiView@@AAEXXZ			; CPHsiView::DrawToFrom
PUBLIC	?DisplayDraw@CPHsiView@@UAEXXZ			; CPHsiView::DisplayDraw
PUBLIC	?DisplayBlit@CPHsiView@@UAEXXZ			; CPHsiView::DisplayBlit
PUBLIC	?Exec@CPHsiView@@UAEXPAVSimBaseClass@@@Z	; CPHsiView::Exec
PUBLIC	?DisplayBlit3D@CPHsiView@@UAEXXZ		; CPHsiView::DisplayBlit3D
PUBLIC	?CreateLit@CPHsiView@@UAEXXZ			; CPHsiView::CreateLit
PUBLIC	??0CPHsiView@@QAE@PAUObjectInitStr@@PAUHsiInitStr@@@Z ; CPHsiView::CPHsiView
PUBLIC	??1CPHsiView@@UAE@XZ				; CPHsiView::~CPHsiView
PUBLIC	??_GCPHsiView@@UAEPAXI@Z			; CPHsiView::`scalar deleting destructor'
PUBLIC	?GenerateFastRandom@@YAJXZ			; GenerateFastRandom
PUBLIC	?PRANDFloatPos@@YAMXZ				; PRANDFloatPos
PUBLIC	?RenderHSIPoly@@YAXPAUtagRECT@@0HPAVTextureHandle@@M@Z ; RenderHSIPoly
PUBLIC	??$addressof@QAVTextureHandle@@@std@@YAPBQAVTextureHandle@@ABQAV1@@Z ; std::addressof<TextureHandle * const>
PUBLIC	??$construct@PAVTextureHandle@@AAPAV1@@?$_Wrap_alloc@V?$allocator@PAVTextureHandle@@@std@@@std@@QAEXPAPAVTextureHandle@@AAPAV2@@Z ; std::_Wrap_alloc<std::allocator<TextureHandle *> >::construct<TextureHandle *,TextureHandle * &>
PUBLIC	??$construct@PAVTextureHandle@@ABQAV1@@?$_Wrap_alloc@V?$allocator@PAVTextureHandle@@@std@@@std@@QAEXPAPAVTextureHandle@@ABQAV2@@Z ; std::_Wrap_alloc<std::allocator<TextureHandle *> >::construct<TextureHandle *,TextureHandle * const &>
PUBLIC	??$construct@PADAAPAD@?$_Wrap_alloc@V?$allocator@D@std@@@std@@QAEXPAPADAAPAD@Z ; std::_Wrap_alloc<std::allocator<char> >::construct<char *,char * &>
PUBLIC	??$destroy@PAD@?$_Wrap_alloc@V?$allocator@D@std@@@std@@QAEXPAPAD@Z ; std::_Wrap_alloc<std::allocator<char> >::destroy<char *>
PUBLIC	??$addressof@D@std@@YAPADAAD@Z			; std::addressof<char>
PUBLIC	??$_Umove@PAPAVTextureHandle@@@?$vector@PAVTextureHandle@@V?$allocator@PAVTextureHandle@@@std@@@std@@IAEPAPAVTextureHandle@@PAPAV2@00@Z ; std::vector<TextureHandle *,std::allocator<TextureHandle *> >::_Umove<TextureHandle * *>
PUBLIC	??$_Destroy_range@U?$_Wrap_alloc@V?$allocator@PAVTextureHandle@@@std@@@std@@@std@@YAXPAPAVTextureHandle@@0AAU?$_Wrap_alloc@V?$allocator@PAVTextureHandle@@@std@@@0@@Z ; std::_Destroy_range<std::_Wrap_alloc<std::allocator<TextureHandle *> > >
PUBLIC	??$_Allocate@PAVTextureHandle@@@std@@YAPAPAVTextureHandle@@IPAPAV1@@Z ; std::_Allocate<TextureHandle *>
PUBLIC	??$_Allocate@D@std@@YAPADIPAD@Z			; std::_Allocate<char>
PUBLIC	??$forward@AAPAVTextureHandle@@@std@@YAAAPAVTextureHandle@@AAPAV1@@Z ; std::forward<TextureHandle * &>
PUBLIC	??$construct@PAVTextureHandle@@AAPAV1@@?$allocator_traits@V?$allocator@PAVTextureHandle@@@std@@@std@@SAXAAV?$allocator@PAVTextureHandle@@@1@PAPAVTextureHandle@@AAPAV3@@Z ; std::allocator_traits<std::allocator<TextureHandle *> >::construct<TextureHandle *,TextureHandle * &>
PUBLIC	??$forward@ABQAVTextureHandle@@@std@@YAABQAVTextureHandle@@ABQAV1@@Z ; std::forward<TextureHandle * const &>
PUBLIC	??$construct@PAVTextureHandle@@ABQAV1@@?$allocator_traits@V?$allocator@PAVTextureHandle@@@std@@@std@@SAXAAV?$allocator@PAVTextureHandle@@@1@PAPAVTextureHandle@@ABQAV3@@Z ; std::allocator_traits<std::allocator<TextureHandle *> >::construct<TextureHandle *,TextureHandle * const &>
PUBLIC	??$forward@AAPAD@std@@YAAAPADAAPAD@Z		; std::forward<char * &>
PUBLIC	??$construct@PADAAPAD@?$allocator_traits@V?$allocator@D@std@@@std@@SAXAAV?$allocator@D@1@PAPADAAPAD@Z ; std::allocator_traits<std::allocator<char> >::construct<char *,char * &>
PUBLIC	??$destroy@PAD@?$allocator_traits@V?$allocator@D@std@@@std@@SAXAAV?$allocator@D@1@PAPAD@Z ; std::allocator_traits<std::allocator<char> >::destroy<char *>
PUBLIC	??$_Uninitialized_move@PAPAVTextureHandle@@PAPAV1@U?$_Wrap_alloc@V?$allocator@PAVTextureHandle@@@std@@@std@@@std@@YAPAPAVTextureHandle@@PAPAV1@00AAU?$_Wrap_alloc@V?$allocator@PAVTextureHandle@@@std@@@0@@Z ; std::_Uninitialized_move<TextureHandle * *,TextureHandle * *,std::_Wrap_alloc<std::allocator<TextureHandle *> > >
PUBLIC	??$_Ptr_cat@PAVTextureHandle@@PAV1@@std@@YA?AU_Scalar_ptr_iterator_tag@0@PAPAVTextureHandle@@0@Z ; std::_Ptr_cat<TextureHandle *,TextureHandle *>
PUBLIC	??$_Destroy_range@U?$_Wrap_alloc@V?$allocator@PAVTextureHandle@@@std@@@std@@@std@@YAXPAPAVTextureHandle@@0AAU?$_Wrap_alloc@V?$allocator@PAVTextureHandle@@@std@@@0@U_Scalar_ptr_iterator_tag@0@@Z ; std::_Destroy_range<std::_Wrap_alloc<std::allocator<TextureHandle *> > >
PUBLIC	??$construct@PAVTextureHandle@@AAPAV1@@?$allocator@PAVTextureHandle@@@std@@QAEXPAPAVTextureHandle@@AAPAV2@@Z ; std::allocator<TextureHandle *>::construct<TextureHandle *,TextureHandle * &>
PUBLIC	??$construct@PADAAPAD@?$allocator@D@std@@QAEXPAPADAAPAD@Z ; std::allocator<char>::construct<char *,char * &>
PUBLIC	??$destroy@PAD@?$allocator@D@std@@QAEXPAPAD@Z	; std::allocator<char>::destroy<char *>
PUBLIC	??$_Val_type@PAPAVTextureHandle@@@std@@YAPAPAVTextureHandle@@PAPAV1@@Z ; std::_Val_type<TextureHandle * *>
PUBLIC	??$_Uninit_move@PAVTextureHandle@@PAV1@PAV1@@std@@YAPAPAVTextureHandle@@PAPAV1@00AAU?$_Wrap_alloc@V?$allocator@PAVTextureHandle@@@std@@@0@0U_Scalar_ptr_iterator_tag@0@@Z ; std::_Uninit_move<TextureHandle *,TextureHandle *,TextureHandle *>
PUBLIC	??_7_com_error@@6B@				; _com_error::`vftable'
PUBLIC	??_C@_0BE@NNIJINN@IDispatch?5error?5?$CD?$CFd?$AA@ ; `string'
PUBLIC	??_C@_0BF@IPPGFENJ@Unknown?5error?50x?$CF0lX?$AA@ ; `string'
PUBLIC	??_7error_category@std@@6B@			; std::error_category::`vftable'
PUBLIC	??_7_Generic_error_category@std@@6B@		; std::_Generic_error_category::`vftable'
PUBLIC	??_C@_07DCLBNMLN@generic?$AA@			; `string'
PUBLIC	??_C@_0O@BFJCFAAK@unknown?5error?$AA@		; `string'
PUBLIC	??_7_Iostream_error_category@std@@6B@		; std::_Iostream_error_category::`vftable'
PUBLIC	??_C@_08LLGCOLLL@iostream?$AA@			; `string'
PUBLIC	??_C@_0BG@PADBLCHM@iostream?5stream?5error?$AA@	; `string'
PUBLIC	??_7_System_error_category@std@@6B@		; std::_System_error_category::`vftable'
PUBLIC	??_C@_06FHFOAHML@system?$AA@			; `string'
PUBLIC	?_Generic_object@?$_Error_objects@H@std@@2V_Generic_error_category@2@A ; std::_Error_objects<int>::_Generic_object
PUBLIC	?_Iostream_object@?$_Error_objects@H@std@@2V_Iostream_error_category@2@A ; std::_Error_objects<int>::_Iostream_object
PUBLIC	?_System_object@?$_Error_objects@H@std@@2V_System_error_category@2@A ; std::_Error_objects<int>::_System_object
PUBLIC	?id@?$num_put@DV?$back_insert_iterator@V?$basic_string@DU?$char_traits@D@std@@V?$allocator@D@2@@std@@@std@@@std@@2V0locale@2@A ; std::num_put<char,std::back_insert_iterator<std::basic_string<char,std::char_traits<char>,std::allocator<char> > > >::id
PUBLIC	?id@?$num_put@_WV?$back_insert_iterator@V?$basic_string@_WU?$char_traits@_W@std@@V?$allocator@_W@2@@std@@@std@@@std@@2V0locale@2@A ; std::num_put<wchar_t,std::back_insert_iterator<std::basic_string<wchar_t,std::char_traits<wchar_t>,std::allocator<wchar_t> > > >::id
PUBLIC	__TI1?AV_com_error@@
PUBLIC	__CTA1?AV_com_error@@
PUBLIC	??_R0?AV_com_error@@@8				; _com_error `RTTI Type Descriptor'
PUBLIC	__CT??_R0?AV_com_error@@@8??0_com_error@@QAE@ABV0@@Z16
PUBLIC	??_7CPHsiView@@6B@				; CPHsiView::`vftable'
PUBLIC	?LastRandom@?1??GenerateFastRandom@@YAJXZ@4JA	; `GenerateFastRandom'::`2'::LastRandom
PUBLIC	??_C@_0BG@JDDPNFOC@10?5Instrument?5Landing?$AA@	; `string'
PUBLIC	??_C@_0BG@LDIJDCCC@bearingToBeacon?5?$DN?5?$CFf?6?$AA@ ; `string'
PUBLIC	??_C@_05EDMKJPGA@CPHsi?$AA@			; `string'
PUBLIC	??_C@_0CI@LMEDGJGB@CPHsi?3?3CreateHsiView?5?9?5Error?50x?$CF@ ; `string'
PUBLIC	?id@?$numpunct@D@std@@2V0locale@2@A		; std::numpunct<char>::id
PUBLIC	?id@?$numpunct@_W@std@@2V0locale@2@A		; std::numpunct<wchar_t>::id
PUBLIC	??_C@_0BI@CFPLBAOH@invalid?5string?5position?$AA@ ; `string'
PUBLIC	??_C@_0BD@OLBABOEK@vector?$DMT?$DO?5too?5long?$AA@ ; `string'
PUBLIC	??_C@_0BA@JFNIOLAK@string?5too?5long?$AA@	; `string'
PUBLIC	??_R4_com_error@@6B@				; _com_error::`RTTI Complete Object Locator'
PUBLIC	??_R3_com_error@@8				; _com_error::`RTTI Class Hierarchy Descriptor'
PUBLIC	??_R2_com_error@@8				; _com_error::`RTTI Base Class Array'
PUBLIC	??_R1A@?0A@EA@_com_error@@8			; _com_error::`RTTI Base Class Descriptor at (0,-1,0,64)'
PUBLIC	??_R4error_category@std@@6B@			; std::error_category::`RTTI Complete Object Locator'
PUBLIC	??_R0?AVerror_category@std@@@8			; std::error_category `RTTI Type Descriptor'
PUBLIC	??_R3error_category@std@@8			; std::error_category::`RTTI Class Hierarchy Descriptor'
PUBLIC	??_R2error_category@std@@8			; std::error_category::`RTTI Base Class Array'
PUBLIC	??_R1A@?0A@EA@error_category@std@@8		; std::error_category::`RTTI Base Class Descriptor at (0,-1,0,64)'
PUBLIC	??_R4_Generic_error_category@std@@6B@		; std::_Generic_error_category::`RTTI Complete Object Locator'
PUBLIC	??_R0?AV_Generic_error_category@std@@@8		; std::_Generic_error_category `RTTI Type Descriptor'
PUBLIC	??_R3_Generic_error_category@std@@8		; std::_Generic_error_category::`RTTI Class Hierarchy Descriptor'
PUBLIC	??_R2_Generic_error_category@std@@8		; std::_Generic_error_category::`RTTI Base Class Array'
PUBLIC	??_R1A@?0A@EA@_Generic_error_category@std@@8	; std::_Generic_error_category::`RTTI Base Class Descriptor at (0,-1,0,64)'
PUBLIC	??_R4_Iostream_error_category@std@@6B@		; std::_Iostream_error_category::`RTTI Complete Object Locator'
PUBLIC	??_R0?AV_Iostream_error_category@std@@@8	; std::_Iostream_error_category `RTTI Type Descriptor'
PUBLIC	??_R3_Iostream_error_category@std@@8		; std::_Iostream_error_category::`RTTI Class Hierarchy Descriptor'
PUBLIC	??_R2_Iostream_error_category@std@@8		; std::_Iostream_error_category::`RTTI Base Class Array'
PUBLIC	??_R1A@?0A@EA@_Iostream_error_category@std@@8	; std::_Iostream_error_category::`RTTI Base Class Descriptor at (0,-1,0,64)'
PUBLIC	??_R4_System_error_category@std@@6B@		; std::_System_error_category::`RTTI Complete Object Locator'
PUBLIC	??_R0?AV_System_error_category@std@@@8		; std::_System_error_category `RTTI Type Descriptor'
PUBLIC	??_R3_System_error_category@std@@8		; std::_System_error_category::`RTTI Class Hierarchy Descriptor'
PUBLIC	??_R2_System_error_category@std@@8		; std::_System_error_category::`RTTI Base Class Array'
PUBLIC	??_R1A@?0A@EA@_System_error_category@std@@8	; std::_System_error_category::`RTTI Base Class Descriptor at (0,-1,0,64)'
PUBLIC	??_R4CPHsiView@@6B@				; CPHsiView::`RTTI Complete Object Locator'
PUBLIC	??_R0?AVCPHsiView@@@8				; CPHsiView `RTTI Type Descriptor'
PUBLIC	??_R3CPHsiView@@8				; CPHsiView::`RTTI Class Hierarchy Descriptor'
PUBLIC	??_R2CPHsiView@@8				; CPHsiView::`RTTI Base Class Array'
PUBLIC	??_R1A@?0A@EA@CPHsiView@@8			; CPHsiView::`RTTI Base Class Descriptor at (0,-1,0,64)'
PUBLIC	??_R1A@?0A@EA@CPObject@@8			; CPObject::`RTTI Base Class Descriptor at (0,-1,0,64)'
PUBLIC	??_R0?AVCPObject@@@8				; CPObject `RTTI Type Descriptor'
PUBLIC	??_R3CPObject@@8				; CPObject::`RTTI Class Hierarchy Descriptor'
PUBLIC	??_R2CPObject@@8				; CPObject::`RTTI Base Class Array'
PUBLIC	__real@00000000
PUBLIC	__real@0000000000000000
PUBLIC	__real@392eb159
PUBLIC	__real@3d23d70b
PUBLIC	__real@3f000000
PUBLIC	__real@3f800000
PUBLIC	__real@3f87ae14
PUBLIC	__real@3fc99999a0000000
PUBLIC	__real@3fe0000000000000
PUBLIC	__real@3ff921fb54442d18
PUBLIC	__real@40000000
PUBLIC	__real@4000000000000000
PUBLIC	__real@400921fb54442d18
PUBLIC	__real@41200000
PUBLIC	__real@42652ee1
PUBLIC	__real@42b40000
PUBLIC	__real@43340000
PUBLIC	__real@43870000
PUBLIC	__real@43aa0000
PUBLIC	__real@43b40000
PUBLIC	__real@4479c000
PUBLIC	__real@477fff00
PUBLIC	__real@8000000000000000
PUBLIC	__real@bf800000
PUBLIC	__real@bff921fb54442d18
PUBLIC	__real@c0000000
PUBLIC	__real@c2b40000
PUBLIC	__xmm@80000000800000008000000080000000
EXTRN	__purecall:PROC
EXTRN	??2@YAPAXI@Z:PROC				; operator new
EXTRN	??3@YAXPAX@Z:PROC				; operator delete
EXTRN	_atexit:PROC
EXTRN	_memcpy:PROC
EXTRN	_memset:PROC
EXTRN	_strlen:PROC
EXTRN	_memmove:PROC
EXTRN	_strcmpi:PROC
EXTRN	__imp__LocalAlloc@8:PROC
EXTRN	__imp__LocalFree@4:PROC
EXTRN	__imp__FormatMessageA@28:PROC
EXTRN	__imp__lstrlenA@4:PROC
EXTRN	_sprintf_s:PROC
EXTRN	??_E_com_error@@UAEPAXI@Z:PROC			; _com_error::`vector deleting destructor'
EXTRN	_atan:PROC
EXTRN	_cos:PROC
EXTRN	_fabs:PROC
EXTRN	_sin:PROC
EXTRN	_ceil:PROC
EXTRN	_floor:PROC
EXTRN	??_V@YAXPAX@Z:PROC				; operator delete[]
EXTRN	??_U@YAPAXI@Z:PROC				; operator new[]
EXTRN	?_Xbad_alloc@std@@YAXXZ:PROC			; std::_Xbad_alloc
EXTRN	?_Xlength_error@std@@YAXPBD@Z:PROC		; std::_Xlength_error
EXTRN	?_Xout_of_range@std@@YAXPBD@Z:PROC		; std::_Xout_of_range
EXTRN	??_Eerror_category@std@@UAEPAXI@Z:PROC		; std::error_category::`vector deleting destructor'
EXTRN	?_Syserror_map@std@@YAPBDH@Z:PROC		; std::_Syserror_map
EXTRN	?_Winerror_map@std@@YAPBDH@Z:PROC		; std::_Winerror_map
EXTRN	??_E_Generic_error_category@std@@UAEPAXI@Z:PROC	; std::_Generic_error_category::`vector deleting destructor'
EXTRN	??_E_Iostream_error_category@std@@UAEPAXI@Z:PROC ; std::_Iostream_error_category::`vector deleting destructor'
EXTRN	??_E_System_error_category@std@@UAEPAXI@Z:PROC	; std::_System_error_category::`vector deleting destructor'
EXTRN	_MonoPrint:PROC
EXTRN	?F4IsBadReadPtr@@YA_NPBXI@Z:PROC		; F4IsBadReadPtr
EXTRN	?Game@VuSessionEntity@@QAEPAVVuGameEntity@@XZ:PROC ; VuSessionEntity::Game
EXTRN	??0TextureHandle@@QAE@XZ:PROC			; TextureHandle::TextureHandle
EXTRN	?Create@TextureHandle@@QAE_NPADKGGGK@Z:PROC	; TextureHandle::Create
EXTRN	?Load@TextureHandle@@QAE_NGIPAE_N1H@Z:PROC	; TextureHandle::Load
EXTRN	??0PaletteHandle@@QAE@PAUIDirectDraw7@@GG@Z:PROC ; PaletteHandle::PaletteHandle
EXTRN	?AttachToTexture@PaletteHandle@@QAEXPAVTextureHandle@@@Z:PROC ; PaletteHandle::AttachToTexture
EXTRN	?SelectTexture1@ContextMPR@@QAEXH@Z:PROC	; ContextMPR::SelectTexture1
EXTRN	?RestoreState@ContextMPR@@QAEXH@Z:PROC		; ContextMPR::RestoreState
EXTRN	?DrawPrimitive@ContextMPR@@QAEXHGGPAUMPRVtxTexClr_t@@G@Z:PROC ; ContextMPR::DrawPrimitive
EXTRN	??0ImageBuffer@@QAE@XZ:PROC			; ImageBuffer::ImageBuffer
EXTRN	?Setup@ImageBuffer@@QAEHPAVDisplayDevice@@HHW4MPRSurfaceType@@1PAUHWND__@@HHH@Z:PROC ; ImageBuffer::Setup
EXTRN	?Cleanup@ImageBuffer@@QAEXXZ:PROC		; ImageBuffer::Cleanup
EXTRN	?SetChromaKey@ImageBuffer@@QAEXK@Z:PROC		; ImageBuffer::SetChromaKey
EXTRN	?ComposeTransparent@ImageBuffer@@QAEXPAV1@PAUtagRECT@@1@Z:PROC ; ImageBuffer::ComposeTransparent
EXTRN	?ComposeRoundRot@ImageBuffer@@QAEXPAV1@PAUtagRECT@@1MPAH@Z:PROC ; ImageBuffer::ComposeRoundRot
EXTRN	?Clear@ImageBuffer@@QAEXK@Z:PROC		; ImageBuffer::Clear
EXTRN	?AdjustOriginInViewport@VirtualDisplay@@QAEXMM@Z:PROC ; VirtualDisplay::AdjustOriginInViewport
EXTRN	?AdjustRotationAboutOrigin@VirtualDisplay@@QAEXM@Z:PROC ; VirtualDisplay::AdjustRotationAboutOrigin
EXTRN	?GetLocation@WayPointClass@@QBEXPAM00@Z:PROC	; WayPointClass::GetLocation
EXTRN	?GetGameType@FalconGameEntity@@QAE?AW4FalconGameType@@XZ:PROC ; FalconGameEntity::GetGameType
EXTRN	?GetPlayerAircraft@SimulationDriver@@QBEPAVAircraftClass@@XZ:PROC ; SimulationDriver::GetPlayerAircraft
EXTRN	?GetFault@FackClass@@QAEHW4type_FSubSystem@FaultClass@@@Z:PROC ; FackClass::GetFault
EXTRN	?CalculateNVGColor@@YAKK@Z:PROC			; CalculateNVGColor
EXTRN	?ApplyLighting@CockpitManager@@QAEKK_N@Z:PROC	; CockpitManager::ApplyLighting
EXTRN	?DiscardLit@CPObject@@UAEXXZ:PROC		; CPObject::DiscardLit
EXTRN	??0CPObject@@QAE@PBUObjectInitStr@@@Z:PROC	; CPObject::CPObject
EXTRN	??1CPObject@@UAE@XZ:PROC			; CPObject::~CPObject
EXTRN	?GetTCNAttribute@NavigationSystem@@QAEHW4Attribute@1@PAM@Z:PROC ; NavigationSystem::GetTCNAttribute
EXTRN	?GetTCNPosition@NavigationSystem@@QAEHPAM00@Z:PROC ; NavigationSystem::GetTCNPosition
EXTRN	?GetILSAttribute@NavigationSystem@@QAEHW4Attribute@1@PAM@Z:PROC ; NavigationSystem::GetILSAttribute
EXTRN	?GetInstrumentMode@NavigationSystem@@QAE?AW4Instrument_Mode@1@XZ:PROC ; NavigationSystem::GetInstrumentMode
EXTRN	?IsTCNTanker@NavigationSystem@@QAEHXZ:PROC	; NavigationSystem::IsTCNTanker
EXTRN	?IsTCNCarrier@NavigationSystem@@QAEHXZ:PROC	; NavigationSystem::IsTCNCarrier
EXTRN	?IsTCNAirbase@NavigationSystem@@QAEHXZ:PROC	; NavigationSystem::IsTCNAirbase
EXTRN	?ConvertNavtoRad@@YAMM@Z:PROC			; ConvertNavtoRad
EXTRN	?ConvertRadtoNav@@YAMM@Z:PROC			; ConvertRadtoNav
EXTRN	??_ECPHsiView@@UAEPAXI@Z:PROC			; CPHsiView::`vector deleting destructor'
EXTRN	?get_type@tactical_mission@@QAE?AW4tactical_type@@XZ:PROC ; tactical_mission::get_type
EXTRN	?get_title@tactical_mission@@QAEPADXZ:PROC	; tactical_mission::get_title
EXTRN	@__security_check_cookie@4:PROC
EXTRN	__CxxThrowException@8:PROC
EXTRN	___CxxFrameHandler3:PROC
EXTRN	??_7type_info@@6B@:QWORD			; type_info::`vftable'
EXTRN	?vuLocalSessionEntity@@3V?$VuBin@VVuSessionEntity@@@@A:DWORD ; vuLocalSessionEntity
EXTRN	?DisplayOptions@@3VDisplayOptionsClass@@A:BYTE	; DisplayOptions
EXTRN	?CircleX@@3PAMA:BYTE				; CircleX
EXTRN	?CircleY@@3PAMA:BYTE				; CircleY
EXTRN	?OTWDriver@@3VOTWDriverClass@@A:BYTE		; OTWDriver
EXTRN	?SimLibElapsedTime@@3KA:DWORD			; SimLibElapsedTime
EXTRN	?SimDriver@@3VSimulationDriver@@A:BYTE		; SimDriver
EXTRN	?gNavigationSys@@3PAVNavigationSystem@@A:DWORD	; gNavigationSys
EXTRN	?current_tactical_mission@@3PAVtactical_mission@@A:DWORD ; current_tactical_mission
EXTRN	?FalconDisplay@@3VFalconDisplayConfiguration@@A:BYTE ; FalconDisplay
EXTRN	?g_bRealisticAvionics@@3_NA:BYTE		; g_bRealisticAvionics
EXTRN	?g_bINS@@3_NA:BYTE				; g_bINS
EXTRN	?g_bCockpitAutoScale@@3_NA:BYTE			; g_bCockpitAutoScale
EXTRN	?g_bFilter2DPit@@3_NA:BYTE			; g_bFilter2DPit
EXTRN	___security_cookie:DWORD
EXTRN	__fltused:DWORD
_BSS	SEGMENT
_piecewise_construct DB 01H DUP (?)
_allocator_arg DB 01H DUP (?)
_BSS	ENDS
;	COMDAT ?_Generic_object@?$_Error_objects@H@std@@2V_Generic_error_category@2@A
_BSS	SEGMENT
?_Generic_object@?$_Error_objects@H@std@@2V_Generic_error_category@2@A DD 01H DUP (?) ; std::_Error_objects<int>::_Generic_object
_BSS	ENDS
;	COMDAT ?_Iostream_object@?$_Error_objects@H@std@@2V_Iostream_error_category@2@A
_BSS	SEGMENT
?_Iostream_object@?$_Error_objects@H@std@@2V_Iostream_error_category@2@A DD 01H DUP (?) ; std::_Error_objects<int>::_Iostream_object
_BSS	ENDS
;	COMDAT ?_System_object@?$_Error_objects@H@std@@2V_System_error_category@2@A
_BSS	SEGMENT
?_System_object@?$_Error_objects@H@std@@2V_System_error_category@2@A DD 01H DUP (?) ; std::_Error_objects<int>::_System_object
_BSS	ENDS
;	COMDAT ?id@?$num_put@DV?$back_insert_iterator@V?$basic_string@DU?$char_traits@D@std@@V?$allocator@D@2@@std@@@std@@@std@@2V0locale@2@A
_BSS	SEGMENT
?id@?$num_put@DV?$back_insert_iterator@V?$basic_string@DU?$char_traits@D@std@@V?$allocator@D@2@@std@@@std@@@std@@2V0locale@2@A DD 01H DUP (?) ; std::num_put<char,std::back_insert_iterator<std::basic_string<char,std::char_traits<char>,std::allocator<char> > > >::id
_BSS	ENDS
;	COMDAT ?id@?$num_put@_WV?$back_insert_iterator@V?$basic_string@_WU?$char_traits@_W@std@@V?$allocator@_W@2@@std@@@std@@@std@@2V0locale@2@A
_BSS	SEGMENT
?id@?$num_put@_WV?$back_insert_iterator@V?$basic_string@_WU?$char_traits@_W@std@@V?$allocator@_W@2@@std@@@std@@@std@@2V0locale@2@A DD 01H DUP (?) ; std::num_put<wchar_t,std::back_insert_iterator<std::basic_string<wchar_t,std::char_traits<wchar_t>,std::allocator<wchar_t> > > >::id
_BSS	ENDS
;	COMDAT ?LastRandom@?1??GenerateFastRandom@@YAJXZ@4JA
_BSS	SEGMENT
?LastRandom@?1??GenerateFastRandom@@YAJXZ@4JA DD 01H DUP (?) ; `GenerateFastRandom'::`2'::LastRandom
_BSS	ENDS
;	COMDAT ?monoYes@?1??DisplayDraw@CPHsiView@@UAEXXZ@4HA
_BSS	SEGMENT
?monoYes@?1??DisplayDraw@CPHsiView@@UAEXXZ@4HA DD 01H DUP (?) ; `CPHsiView::DisplayDraw'::`2'::monoYes
_BSS	ENDS
;	COMDAT ?init@?1??DisplayDraw@CPHsiView@@UAEXXZ@4HA
_BSS	SEGMENT
?init@?1??DisplayDraw@CPHsiView@@UAEXXZ@4HA DD 01H DUP (?) ; `CPHsiView::DisplayDraw'::`2'::init
_BSS	ENDS
;	COMDAT ?id@?$numpunct@D@std@@2V0locale@2@A
_BSS	SEGMENT
?id@?$numpunct@D@std@@2V0locale@2@A DD 01H DUP (?)	; std::numpunct<char>::id
_BSS	ENDS
;	COMDAT ?id@?$numpunct@_W@std@@2V0locale@2@A
_BSS	SEGMENT
?id@?$numpunct@_W@std@@2V0locale@2@A DD 01H DUP (?)	; std::numpunct<wchar_t>::id
_BSS	ENDS
CRT$XCU	SEGMENT
_piecewise_construct$initializer$ DD FLAT:??__Epiecewise_construct@std@@YAXXZ
CRT$XCU	ENDS
;	COMDAT __xmm@80000000800000008000000080000000
CONST	SEGMENT
__xmm@80000000800000008000000080000000 DB 00H, 00H, 00H, 080H, 00H, 00H, 00H
	DB	080H, 00H, 00H, 00H, 080H, 00H, 00H, 00H, 080H
CONST	ENDS
;	COMDAT __real@c2b40000
CONST	SEGMENT
__real@c2b40000 DD 0c2b40000r			; -90
CONST	ENDS
;	COMDAT __real@c0000000
CONST	SEGMENT
__real@c0000000 DD 0c0000000r			; -2
CONST	ENDS
;	COMDAT __real@bff921fb54442d18
CONST	SEGMENT
__real@bff921fb54442d18 DQ 0bff921fb54442d18r	; -1.5708
CONST	ENDS
;	COMDAT __real@bf800000
CONST	SEGMENT
__real@bf800000 DD 0bf800000r			; -1
CONST	ENDS
;	COMDAT __real@8000000000000000
CONST	SEGMENT
__real@8000000000000000 DQ 08000000000000000r	; -0
CONST	ENDS
;	COMDAT __real@477fff00
CONST	SEGMENT
__real@477fff00 DD 0477fff00r			; 65535
CONST	ENDS
;	COMDAT __real@4479c000
CONST	SEGMENT
__real@4479c000 DD 04479c000r			; 999
CONST	ENDS
;	COMDAT __real@43b40000
CONST	SEGMENT
__real@43b40000 DD 043b40000r			; 360
CONST	ENDS
;	COMDAT __real@43aa0000
CONST	SEGMENT
__real@43aa0000 DD 043aa0000r			; 340
CONST	ENDS
;	COMDAT __real@43870000
CONST	SEGMENT
__real@43870000 DD 043870000r			; 270
CONST	ENDS
;	COMDAT __real@43340000
CONST	SEGMENT
__real@43340000 DD 043340000r			; 180
CONST	ENDS
;	COMDAT __real@42b40000
CONST	SEGMENT
__real@42b40000 DD 042b40000r			; 90
CONST	ENDS
;	COMDAT __real@42652ee1
CONST	SEGMENT
__real@42652ee1 DD 042652ee1r			; 57.2958
CONST	ENDS
;	COMDAT __real@41200000
CONST	SEGMENT
__real@41200000 DD 041200000r			; 10
CONST	ENDS
;	COMDAT __real@400921fb54442d18
CONST	SEGMENT
__real@400921fb54442d18 DQ 0400921fb54442d18r	; 3.14159
CONST	ENDS
;	COMDAT __real@4000000000000000
CONST	SEGMENT
__real@4000000000000000 DQ 04000000000000000r	; 2
CONST	ENDS
;	COMDAT __real@40000000
CONST	SEGMENT
__real@40000000 DD 040000000r			; 2
CONST	ENDS
;	COMDAT __real@3ff921fb54442d18
CONST	SEGMENT
__real@3ff921fb54442d18 DQ 03ff921fb54442d18r	; 1.5708
CONST	ENDS
;	COMDAT __real@3fe0000000000000
CONST	SEGMENT
__real@3fe0000000000000 DQ 03fe0000000000000r	; 0.5
CONST	ENDS
;	COMDAT __real@3fc99999a0000000
CONST	SEGMENT
__real@3fc99999a0000000 DQ 03fc99999a0000000r	; 0.2
CONST	ENDS
;	COMDAT __real@3f87ae14
CONST	SEGMENT
__real@3f87ae14 DD 03f87ae14r			; 1.06
CONST	ENDS
;	COMDAT __real@3f800000
CONST	SEGMENT
__real@3f800000 DD 03f800000r			; 1
CONST	ENDS
;	COMDAT __real@3f000000
CONST	SEGMENT
__real@3f000000 DD 03f000000r			; 0.5
CONST	ENDS
;	COMDAT __real@3d23d70b
CONST	SEGMENT
__real@3d23d70b DD 03d23d70br			; 0.04
CONST	ENDS
;	COMDAT __real@392eb159
CONST	SEGMENT
__real@392eb159 DD 0392eb159r			; 0.0001666
CONST	ENDS
;	COMDAT __real@0000000000000000
CONST	SEGMENT
__real@0000000000000000 DQ 00000000000000000r	; 0
CONST	ENDS
;	COMDAT __real@00000000
CONST	SEGMENT
__real@00000000 DD 000000000r			; 0
CONST	ENDS
;	COMDAT ??_R2CPObject@@8
rdata$r	SEGMENT
??_R2CPObject@@8 DD FLAT:??_R1A@?0A@EA@CPObject@@8	; CPObject::`RTTI Base Class Array'
rdata$r	ENDS
;	COMDAT ??_R3CPObject@@8
rdata$r	SEGMENT
??_R3CPObject@@8 DD 00H					; CPObject::`RTTI Class Hierarchy Descriptor'
	DD	00H
	DD	01H
	DD	FLAT:??_R2CPObject@@8
rdata$r	ENDS
;	COMDAT ??_R0?AVCPObject@@@8
_DATA	SEGMENT
??_R0?AVCPObject@@@8 DD FLAT:??_7type_info@@6B@		; CPObject `RTTI Type Descriptor'
	DD	00H
	DB	'.?AVCPObject@@', 00H
_DATA	ENDS
;	COMDAT ??_R1A@?0A@EA@CPObject@@8
rdata$r	SEGMENT
??_R1A@?0A@EA@CPObject@@8 DD FLAT:??_R0?AVCPObject@@@8	; CPObject::`RTTI Base Class Descriptor at (0,-1,0,64)'
	DD	00H
	DD	00H
	DD	0ffffffffH
	DD	00H
	DD	040H
	DD	FLAT:??_R3CPObject@@8
rdata$r	ENDS
;	COMDAT ??_R1A@?0A@EA@CPHsiView@@8
rdata$r	SEGMENT
??_R1A@?0A@EA@CPHsiView@@8 DD FLAT:??_R0?AVCPHsiView@@@8 ; CPHsiView::`RTTI Base Class Descriptor at (0,-1,0,64)'
	DD	01H
	DD	00H
	DD	0ffffffffH
	DD	00H
	DD	040H
	DD	FLAT:??_R3CPHsiView@@8
rdata$r	ENDS
;	COMDAT ??_R2CPHsiView@@8
rdata$r	SEGMENT
??_R2CPHsiView@@8 DD FLAT:??_R1A@?0A@EA@CPHsiView@@8	; CPHsiView::`RTTI Base Class Array'
	DD	FLAT:??_R1A@?0A@EA@CPObject@@8
rdata$r	ENDS
;	COMDAT ??_R3CPHsiView@@8
rdata$r	SEGMENT
??_R3CPHsiView@@8 DD 00H				; CPHsiView::`RTTI Class Hierarchy Descriptor'
	DD	00H
	DD	02H
	DD	FLAT:??_R2CPHsiView@@8
rdata$r	ENDS
;	COMDAT ??_R0?AVCPHsiView@@@8
_DATA	SEGMENT
??_R0?AVCPHsiView@@@8 DD FLAT:??_7type_info@@6B@	; CPHsiView `RTTI Type Descriptor'
	DD	00H
	DB	'.?AVCPHsiView@@', 00H
_DATA	ENDS
;	COMDAT ??_R4CPHsiView@@6B@
rdata$r	SEGMENT
??_R4CPHsiView@@6B@ DD 00H				; CPHsiView::`RTTI Complete Object Locator'
	DD	00H
	DD	00H
	DD	FLAT:??_R0?AVCPHsiView@@@8
	DD	FLAT:??_R3CPHsiView@@8
rdata$r	ENDS
;	COMDAT ??_R1A@?0A@EA@_System_error_category@std@@8
rdata$r	SEGMENT
??_R1A@?0A@EA@_System_error_category@std@@8 DD FLAT:??_R0?AV_System_error_category@std@@@8 ; std::_System_error_category::`RTTI Base Class Descriptor at (0,-1,0,64)'
	DD	02H
	DD	00H
	DD	0ffffffffH
	DD	00H
	DD	040H
	DD	FLAT:??_R3_System_error_category@std@@8
rdata$r	ENDS
;	COMDAT ??_R2_System_error_category@std@@8
rdata$r	SEGMENT
??_R2_System_error_category@std@@8 DD FLAT:??_R1A@?0A@EA@_System_error_category@std@@8 ; std::_System_error_category::`RTTI Base Class Array'
	DD	FLAT:??_R1A@?0A@EA@_Generic_error_category@std@@8
	DD	FLAT:??_R1A@?0A@EA@error_category@std@@8
rdata$r	ENDS
;	COMDAT ??_R3_System_error_category@std@@8
rdata$r	SEGMENT
??_R3_System_error_category@std@@8 DD 00H		; std::_System_error_category::`RTTI Class Hierarchy Descriptor'
	DD	00H
	DD	03H
	DD	FLAT:??_R2_System_error_category@std@@8
rdata$r	ENDS
;	COMDAT ??_R0?AV_System_error_category@std@@@8
_DATA	SEGMENT
??_R0?AV_System_error_category@std@@@8 DD FLAT:??_7type_info@@6B@ ; std::_System_error_category `RTTI Type Descriptor'
	DD	00H
	DB	'.?AV_System_error_category@std@@', 00H
_DATA	ENDS
;	COMDAT ??_R4_System_error_category@std@@6B@
rdata$r	SEGMENT
??_R4_System_error_category@std@@6B@ DD 00H		; std::_System_error_category::`RTTI Complete Object Locator'
	DD	00H
	DD	00H
	DD	FLAT:??_R0?AV_System_error_category@std@@@8
	DD	FLAT:??_R3_System_error_category@std@@8
rdata$r	ENDS
;	COMDAT ??_R1A@?0A@EA@_Iostream_error_category@std@@8
rdata$r	SEGMENT
??_R1A@?0A@EA@_Iostream_error_category@std@@8 DD FLAT:??_R0?AV_Iostream_error_category@std@@@8 ; std::_Iostream_error_category::`RTTI Base Class Descriptor at (0,-1,0,64)'
	DD	02H
	DD	00H
	DD	0ffffffffH
	DD	00H
	DD	040H
	DD	FLAT:??_R3_Iostream_error_category@std@@8
rdata$r	ENDS
;	COMDAT ??_R2_Iostream_error_category@std@@8
rdata$r	SEGMENT
??_R2_Iostream_error_category@std@@8 DD FLAT:??_R1A@?0A@EA@_Iostream_error_category@std@@8 ; std::_Iostream_error_category::`RTTI Base Class Array'
	DD	FLAT:??_R1A@?0A@EA@_Generic_error_category@std@@8
	DD	FLAT:??_R1A@?0A@EA@error_category@std@@8
rdata$r	ENDS
;	COMDAT ??_R3_Iostream_error_category@std@@8
rdata$r	SEGMENT
??_R3_Iostream_error_category@std@@8 DD 00H		; std::_Iostream_error_category::`RTTI Class Hierarchy Descriptor'
	DD	00H
	DD	03H
	DD	FLAT:??_R2_Iostream_error_category@std@@8
rdata$r	ENDS
;	COMDAT ??_R0?AV_Iostream_error_category@std@@@8
_DATA	SEGMENT
??_R0?AV_Iostream_error_category@std@@@8 DD FLAT:??_7type_info@@6B@ ; std::_Iostream_error_category `RTTI Type Descriptor'
	DD	00H
	DB	'.?AV_Iostream_error_category@std@@', 00H
_DATA	ENDS
;	COMDAT ??_R4_Iostream_error_category@std@@6B@
rdata$r	SEGMENT
??_R4_Iostream_error_category@std@@6B@ DD 00H		; std::_Iostream_error_category::`RTTI Complete Object Locator'
	DD	00H
	DD	00H
	DD	FLAT:??_R0?AV_Iostream_error_category@std@@@8
	DD	FLAT:??_R3_Iostream_error_category@std@@8
rdata$r	ENDS
;	COMDAT ??_R1A@?0A@EA@_Generic_error_category@std@@8
rdata$r	SEGMENT
??_R1A@?0A@EA@_Generic_error_category@std@@8 DD FLAT:??_R0?AV_Generic_error_category@std@@@8 ; std::_Generic_error_category::`RTTI Base Class Descriptor at (0,-1,0,64)'
	DD	01H
	DD	00H
	DD	0ffffffffH
	DD	00H
	DD	040H
	DD	FLAT:??_R3_Generic_error_category@std@@8
rdata$r	ENDS
;	COMDAT ??_R2_Generic_error_category@std@@8
rdata$r	SEGMENT
??_R2_Generic_error_category@std@@8 DD FLAT:??_R1A@?0A@EA@_Generic_error_category@std@@8 ; std::_Generic_error_category::`RTTI Base Class Array'
	DD	FLAT:??_R1A@?0A@EA@error_category@std@@8
rdata$r	ENDS
;	COMDAT ??_R3_Generic_error_category@std@@8
rdata$r	SEGMENT
??_R3_Generic_error_category@std@@8 DD 00H		; std::_Generic_error_category::`RTTI Class Hierarchy Descriptor'
	DD	00H
	DD	02H
	DD	FLAT:??_R2_Generic_error_category@std@@8
rdata$r	ENDS
;	COMDAT ??_R0?AV_Generic_error_category@std@@@8
_DATA	SEGMENT
??_R0?AV_Generic_error_category@std@@@8 DD FLAT:??_7type_info@@6B@ ; std::_Generic_error_category `RTTI Type Descriptor'
	DD	00H
	DB	'.?AV_Generic_error_category@std@@', 00H
_DATA	ENDS
;	COMDAT ??_R4_Generic_error_category@std@@6B@
rdata$r	SEGMENT
??_R4_Generic_error_category@std@@6B@ DD 00H		; std::_Generic_error_category::`RTTI Complete Object Locator'
	DD	00H
	DD	00H
	DD	FLAT:??_R0?AV_Generic_error_category@std@@@8
	DD	FLAT:??_R3_Generic_error_category@std@@8
rdata$r	ENDS
;	COMDAT ??_R1A@?0A@EA@error_category@std@@8
rdata$r	SEGMENT
??_R1A@?0A@EA@error_category@std@@8 DD FLAT:??_R0?AVerror_category@std@@@8 ; std::error_category::`RTTI Base Class Descriptor at (0,-1,0,64)'
	DD	00H
	DD	00H
	DD	0ffffffffH
	DD	00H
	DD	040H
	DD	FLAT:??_R3error_category@std@@8
rdata$r	ENDS
;	COMDAT ??_R2error_category@std@@8
rdata$r	SEGMENT
??_R2error_category@std@@8 DD FLAT:??_R1A@?0A@EA@error_category@std@@8 ; std::error_category::`RTTI Base Class Array'
rdata$r	ENDS
;	COMDAT ??_R3error_category@std@@8
rdata$r	SEGMENT
??_R3error_category@std@@8 DD 00H			; std::error_category::`RTTI Class Hierarchy Descriptor'
	DD	00H
	DD	01H
	DD	FLAT:??_R2error_category@std@@8
rdata$r	ENDS
;	COMDAT ??_R0?AVerror_category@std@@@8
_DATA	SEGMENT
??_R0?AVerror_category@std@@@8 DD FLAT:??_7type_info@@6B@ ; std::error_category `RTTI Type Descriptor'
	DD	00H
	DB	'.?AVerror_category@std@@', 00H
_DATA	ENDS
;	COMDAT ??_R4error_category@std@@6B@
rdata$r	SEGMENT
??_R4error_category@std@@6B@ DD 00H			; std::error_category::`RTTI Complete Object Locator'
	DD	00H
	DD	00H
	DD	FLAT:??_R0?AVerror_category@std@@@8
	DD	FLAT:??_R3error_category@std@@8
rdata$r	ENDS
;	COMDAT ??_R1A@?0A@EA@_com_error@@8
rdata$r	SEGMENT
??_R1A@?0A@EA@_com_error@@8 DD FLAT:??_R0?AV_com_error@@@8 ; _com_error::`RTTI Base Class Descriptor at (0,-1,0,64)'
	DD	00H
	DD	00H
	DD	0ffffffffH
	DD	00H
	DD	040H
	DD	FLAT:??_R3_com_error@@8
rdata$r	ENDS
;	COMDAT ??_R2_com_error@@8
rdata$r	SEGMENT
??_R2_com_error@@8 DD FLAT:??_R1A@?0A@EA@_com_error@@8	; _com_error::`RTTI Base Class Array'
rdata$r	ENDS
;	COMDAT ??_R3_com_error@@8
rdata$r	SEGMENT
??_R3_com_error@@8 DD 00H				; _com_error::`RTTI Class Hierarchy Descriptor'
	DD	00H
	DD	01H
	DD	FLAT:??_R2_com_error@@8
rdata$r	ENDS
;	COMDAT ??_R4_com_error@@6B@
rdata$r	SEGMENT
??_R4_com_error@@6B@ DD 00H				; _com_error::`RTTI Complete Object Locator'
	DD	00H
	DD	00H
	DD	FLAT:??_R0?AV_com_error@@@8
	DD	FLAT:??_R3_com_error@@8
rdata$r	ENDS
;	COMDAT ??_C@_0BA@JFNIOLAK@string?5too?5long?$AA@
CONST	SEGMENT
??_C@_0BA@JFNIOLAK@string?5too?5long?$AA@ DB 'string too long', 00H ; `string'
CONST	ENDS
;	COMDAT ??_C@_0BD@OLBABOEK@vector?$DMT?$DO?5too?5long?$AA@
CONST	SEGMENT
??_C@_0BD@OLBABOEK@vector?$DMT?$DO?5too?5long?$AA@ DB 'vector<T> too long'
	DB	00H						; `string'
CONST	ENDS
;	COMDAT ??_C@_0BI@CFPLBAOH@invalid?5string?5position?$AA@
CONST	SEGMENT
??_C@_0BI@CFPLBAOH@invalid?5string?5position?$AA@ DB 'invalid string posi'
	DB	'tion', 00H					; `string'
CONST	ENDS
;	COMDAT ??_C@_0CI@LMEDGJGB@CPHsi?3?3CreateHsiView?5?9?5Error?50x?$CF@
CONST	SEGMENT
??_C@_0CI@LMEDGJGB@CPHsi?3?3CreateHsiView?5?9?5Error?50x?$CF@ DB 'CPHsi::'
	DB	'CreateHsiView - Error 0x%X (%s)', 0aH, 00H	; `string'
CONST	ENDS
;	COMDAT ??_C@_05EDMKJPGA@CPHsi?$AA@
CONST	SEGMENT
??_C@_05EDMKJPGA@CPHsi?$AA@ DB 'CPHsi', 00H		; `string'
CONST	ENDS
;	COMDAT ?aircraftSymbol@?1??DrawAircraftSymbol@CPHsiView@@AAEXXZ@4QAY01$$CBMA
CONST	SEGMENT
?aircraftSymbol@?1??DrawAircraftSymbol@CPHsiView@@AAEXXZ@4QAY01$$CBMA DD 03c8b4396r ; 0.017 ; `CPHsiView::DrawAircraftSymbol'::`2'::aircraftSymbol
	DD	03e083127r			; 0.133
	DD	03e083127r			; 0.133
	DD	03c8b4396r			; 0.017
	DD	03d89374cr			; 0.067
	DD	0be083127r			; -0.133
	DD	03d89374cr			; 0.067
	DD	0be21cac1r			; -0.158
	DD	03c8b4396r			; 0.017
	DD	0be4ccccdr			; -0.2
	ORG $+40
CONST	ENDS
;	COMDAT ?courseDevWarn@?1??DrawCourse@CPHsiView@@AAEXMM@Z@4QBMB
CONST	SEGMENT
?courseDevWarn@?1??DrawCourse@CPHsiView@@AAEXMM@Z@4QBMB DD 0bd23d70ar ; -0.04 ; `CPHsiView::DrawCourse'::`2'::courseDevWarn
	DD	03da3d70ar			; 0.08
CONST	ENDS
;	COMDAT ?courseDevBar@?1??DrawCourse@CPHsiView@@AAEXMM@Z@4QAY01$$CBMA
CONST	SEGMENT
?courseDevBar@?1??DrawCourse@CPHsiView@@AAEXMM@Z@4QAY01$$CBMA DD 0bec7ae14r ; -0.39 ; `CPHsiView::DrawCourse'::`2'::courseDevBar
	DD	03ca3d70ar			; 0.02
	DD	03e75c28fr			; 0.24
	DD	03ca3d70ar			; 0.02
CONST	ENDS
;	COMDAT ?courseDevScale@?1??DrawCourse@CPHsiView@@AAEXMM@Z@4QBMB
CONST	SEGMENT
?courseDevScale@?1??DrawCourse@CPHsiView@@AAEXMM@Z@4QBMB DD 000000000r ; 0 ; `CPHsiView::DrawCourse'::`2'::courseDevScale
	DD	03e75c28fr			; 0.24
	DD	03d23d70ar			; 0.04
CONST	ENDS
;	COMDAT ?courseTail@?1??DrawCourse@CPHsiView@@AAEXMM@Z@4QAY01$$CBMA
CONST	SEGMENT
?courseTail@?1??DrawCourse@CPHsiView@@AAEXMM@Z@4QAY01$$CBMA DD 0becccccdr ; -0.4 ; `CPHsiView::DrawCourse'::`2'::courseTail
	DD	03ca3d70ar			; 0.02
	DD	0bf19999ar			; -0.6
	DD	03ca3d70ar			; 0.02
CONST	ENDS
;	COMDAT ?courseArrow@?1??DrawCourse@CPHsiView@@AAEXMM@Z@4QAY01$$CBMA
CONST	SEGMENT
?courseArrow@?1??DrawCourse@CPHsiView@@AAEXMM@Z@4QAY01$$CBMA DD 03f1c28f6r ; 0.61 ; `CPHsiView::DrawCourse'::`2'::courseArrow
	DD	000000000r			; 0
	DD	03f000000r			; 0.5
	DD	03d4ccccdr			; 0.05
	DD	03f000000r			; 0.5
	DD	03ca3d70ar			; 0.02
	DD	03e800000r			; 0.25
	DD	03ca3d70ar			; 0.02
CONST	ENDS
;	COMDAT ?bearingTail@?1??DrawStationBearing@CPHsiView@@AAEXM@Z@4QAY01$$CBMA
CONST	SEGMENT
?bearingTail@?1??DrawStationBearing@CPHsiView@@AAEXM@Z@4QAY01$$CBMA DD 0bf4ccccdr ; -0.8 ; `CPHsiView::DrawStationBearing'::`2'::bearingTail
	DD	03ca3d70ar			; 0.02
	DD	0bf30a3d7r			; -0.69
	DD	03ca3d70ar			; 0.02
CONST	ENDS
;	COMDAT ?bearingArrow@?1??DrawStationBearing@CPHsiView@@AAEXM@Z@4QAY01$$CBMA
CONST	SEGMENT
?bearingArrow@?1??DrawStationBearing@CPHsiView@@AAEXM@Z@4QAY01$$CBMA DD 03f30a3d7r ; 0.69 ; `CPHsiView::DrawStationBearing'::`2'::bearingArrow
	DD	03d4ccccdr			; 0.05
	DD	03f4ccccdr			; 0.8
	DD	000000000r			; 0
CONST	ENDS
;	COMDAT ?headingMarker@?1??DrawHeadingMarker@CPHsiView@@AAEXM@Z@4QAY01$$CBMA
CONST	SEGMENT
?headingMarker@?1??DrawHeadingMarker@CPHsiView@@AAEXM@Z@4QAY01$$CBMA DD 03f0f5c29r ; 0.56 ; `CPHsiView::DrawHeadingMarker'::`2'::headingMarker
	DD	03d23d70ar			; 0.04
	DD	03f1c28f6r			; 0.61
	DD	03d23d70ar			; 0.04
CONST	ENDS
;	COMDAT ?toArrow@?1??DrawToFrom@CPHsiView@@AAEXXZ@4QAY01$$CBMA
CONST	SEGMENT
?toArrow@?1??DrawToFrom@CPHsiView@@AAEXXZ@4QAY01$$CBMA DD 03d6147aer ; 0.055 ; `CPHsiView::DrawToFrom'::`2'::toArrow
	DD	0be051eb8r			; -0.13
	DD	03e20c49cr			; 0.157
	DD	0be800000r			; -0.25
	DD	03d6147aer			; 0.055
	DD	0bebd70a4r			; -0.37
CONST	ENDS
;	COMDAT ??_C@_0BG@LDIJDCCC@bearingToBeacon?5?$DN?5?$CFf?6?$AA@
CONST	SEGMENT
??_C@_0BG@LDIJDCCC@bearingToBeacon?5?$DN?5?$CFf?6?$AA@ DB 'bearingToBeaco'
	DB	'n = %f', 0aH, 00H				; `string'
CONST	ENDS
;	COMDAT ??_C@_0BG@JDDPNFOC@10?5Instrument?5Landing?$AA@
CONST	SEGMENT
??_C@_0BG@JDDPNFOC@10?5Instrument?5Landing?$AA@ DB '10 Instrument Landing'
	DB	00H						; `string'
CONST	ENDS
;	COMDAT ??_7CPHsiView@@6B@
CONST	SEGMENT
??_7CPHsiView@@6B@ DD FLAT:??_R4CPHsiView@@6B@		; CPHsiView::`vftable'
	DD	FLAT:?Exec@CPHsiView@@UAEXPAVSimBaseClass@@@Z
	DD	FLAT:?DisplayBlit@CPHsiView@@UAEXXZ
	DD	FLAT:?DisplayDraw@CPHsiView@@UAEXXZ
	DD	FLAT:?HandleEvent@CPObject@@UAEXXZ
	DD	FLAT:?CreateLit@CPHsiView@@UAEXXZ
	DD	FLAT:?DiscardLit@CPObject@@UAEXXZ
	DD	FLAT:?Translate@CPObject@@UAEXPAK@Z
	DD	FLAT:?Translate@CPObject@@UAEXPAG@Z
	DD	FLAT:?DisplayBlit3D@CPHsiView@@UAEXXZ
	DD	FLAT:??_ECPHsiView@@UAEPAXI@Z
CONST	ENDS
;	COMDAT __CT??_R0?AV_com_error@@@8??0_com_error@@QAE@ABV0@@Z16
xdata$x	SEGMENT
__CT??_R0?AV_com_error@@@8??0_com_error@@QAE@ABV0@@Z16 DD 00H
	DD	FLAT:??_R0?AV_com_error@@@8
	DD	00H
	DD	0ffffffffH
	ORG $+4
	DD	010H
	DD	FLAT:??0_com_error@@QAE@ABV0@@Z
xdata$x	ENDS
;	COMDAT ??_R0?AV_com_error@@@8
_DATA	SEGMENT
??_R0?AV_com_error@@@8 DD FLAT:??_7type_info@@6B@	; _com_error `RTTI Type Descriptor'
	DD	00H
	DB	'.?AV_com_error@@', 00H
_DATA	ENDS
;	COMDAT __CTA1?AV_com_error@@
xdata$x	SEGMENT
__CTA1?AV_com_error@@ DD 01H
	DD	FLAT:__CT??_R0?AV_com_error@@@8??0_com_error@@QAE@ABV0@@Z16
xdata$x	ENDS
;	COMDAT __TI1?AV_com_error@@
xdata$x	SEGMENT
__TI1?AV_com_error@@ DD 00H
	DD	FLAT:??1_com_error@@UAE@XZ
	DD	00H
	DD	FLAT:__CTA1?AV_com_error@@
xdata$x	ENDS
;	COMDAT ??_C@_06FHFOAHML@system?$AA@
CONST	SEGMENT
??_C@_06FHFOAHML@system?$AA@ DB 'system', 00H		; `string'
CONST	ENDS
;	COMDAT ??_7_System_error_category@std@@6B@
CONST	SEGMENT
??_7_System_error_category@std@@6B@ DD FLAT:??_R4_System_error_category@std@@6B@ ; std::_System_error_category::`vftable'
	DD	FLAT:??_E_System_error_category@std@@UAEPAXI@Z
	DD	FLAT:?name@_System_error_category@std@@UBEPBDXZ
	DD	FLAT:?message@_System_error_category@std@@UBE?AV?$basic_string@DU?$char_traits@D@std@@V?$allocator@D@2@@2@H@Z
	DD	FLAT:?default_error_condition@_System_error_category@std@@UBE?AVerror_condition@2@H@Z
	DD	FLAT:?equivalent@error_category@std@@UBE_NABVerror_code@2@H@Z
	DD	FLAT:?equivalent@error_category@std@@UBE_NHABVerror_condition@2@@Z
CONST	ENDS
;	COMDAT ??_C@_0BG@PADBLCHM@iostream?5stream?5error?$AA@
CONST	SEGMENT
??_C@_0BG@PADBLCHM@iostream?5stream?5error?$AA@ DB 'iostream stream error'
	DB	00H						; `string'
CONST	ENDS
;	COMDAT ??_C@_08LLGCOLLL@iostream?$AA@
CONST	SEGMENT
??_C@_08LLGCOLLL@iostream?$AA@ DB 'iostream', 00H	; `string'
CONST	ENDS
;	COMDAT ??_7_Iostream_error_category@std@@6B@
CONST	SEGMENT
??_7_Iostream_error_category@std@@6B@ DD FLAT:??_R4_Iostream_error_category@std@@6B@ ; std::_Iostream_error_category::`vftable'
	DD	FLAT:??_E_Iostream_error_category@std@@UAEPAXI@Z
	DD	FLAT:?name@_Iostream_error_category@std@@UBEPBDXZ
	DD	FLAT:?message@_Iostream_error_category@std@@UBE?AV?$basic_string@DU?$char_traits@D@std@@V?$allocator@D@2@@2@H@Z
	DD	FLAT:?default_error_condition@error_category@std@@UBE?AVerror_condition@2@H@Z
	DD	FLAT:?equivalent@error_category@std@@UBE_NABVerror_code@2@H@Z
	DD	FLAT:?equivalent@error_category@std@@UBE_NHABVerror_condition@2@@Z
CONST	ENDS
;	COMDAT ??_C@_0O@BFJCFAAK@unknown?5error?$AA@
CONST	SEGMENT
??_C@_0O@BFJCFAAK@unknown?5error?$AA@ DB 'unknown error', 00H ; `string'
CONST	ENDS
;	COMDAT ??_C@_07DCLBNMLN@generic?$AA@
CONST	SEGMENT
??_C@_07DCLBNMLN@generic?$AA@ DB 'generic', 00H		; `string'
CONST	ENDS
;	COMDAT ??_7_Generic_error_category@std@@6B@
CONST	SEGMENT
??_7_Generic_error_category@std@@6B@ DD FLAT:??_R4_Generic_error_category@std@@6B@ ; std::_Generic_error_category::`vftable'
	DD	FLAT:??_E_Generic_error_category@std@@UAEPAXI@Z
	DD	FLAT:?name@_Generic_error_category@std@@UBEPBDXZ
	DD	FLAT:?message@_Generic_error_category@std@@UBE?AV?$basic_string@DU?$char_traits@D@std@@V?$allocator@D@2@@2@H@Z
	DD	FLAT:?default_error_condition@error_category@std@@UBE?AVerror_condition@2@H@Z
	DD	FLAT:?equivalent@error_category@std@@UBE_NABVerror_code@2@H@Z
	DD	FLAT:?equivalent@error_category@std@@UBE_NHABVerror_condition@2@@Z
CONST	ENDS
;	COMDAT ??_7error_category@std@@6B@
CONST	SEGMENT
??_7error_category@std@@6B@ DD FLAT:??_R4error_category@std@@6B@ ; std::error_category::`vftable'
	DD	FLAT:??_Eerror_category@std@@UAEPAXI@Z
	DD	FLAT:__purecall
	DD	FLAT:__purecall
	DD	FLAT:?default_error_condition@error_category@std@@UBE?AVerror_condition@2@H@Z
	DD	FLAT:?equivalent@error_category@std@@UBE_NABVerror_code@2@H@Z
	DD	FLAT:?equivalent@error_category@std@@UBE_NHABVerror_condition@2@@Z
CONST	ENDS
;	COMDAT ??_C@_0BF@IPPGFENJ@Unknown?5error?50x?$CF0lX?$AA@
CONST	SEGMENT
??_C@_0BF@IPPGFENJ@Unknown?5error?50x?$CF0lX?$AA@ DB 'Unknown error 0x%0l'
	DB	'X', 00H					; `string'
CONST	ENDS
;	COMDAT ??_C@_0BE@NNIJINN@IDispatch?5error?5?$CD?$CFd?$AA@
CONST	SEGMENT
??_C@_0BE@NNIJINN@IDispatch?5error?5?$CD?$CFd?$AA@ DB 'IDispatch error #%'
	DB	'd', 00H					; `string'
CONST	ENDS
;	COMDAT ??_7_com_error@@6B@
CONST	SEGMENT
??_7_com_error@@6B@ DD FLAT:??_R4_com_error@@6B@	; _com_error::`vftable'
	DD	FLAT:??_E_com_error@@UAEPAXI@Z
CONST	ENDS
;	COMDAT xdata$x
xdata$x	SEGMENT
__unwindtable$??$construct@PADAAPAD@?$allocator@D@std@@QAEXPAPADAAPAD@Z DD 0ffffffffH
	DD	FLAT:__unwindfunclet$??$construct@PADAAPAD@?$allocator@D@std@@QAEXPAPADAAPAD@Z$0
__ehfuncinfo$??$construct@PADAAPAD@?$allocator@D@std@@QAEXPAPADAAPAD@Z DD 019930522H
	DD	01H
	DD	FLAT:__unwindtable$??$construct@PADAAPAD@?$allocator@D@std@@QAEXPAPADAAPAD@Z
	DD	2 DUP(00H)
	DD	2 DUP(00H)
	DD	00H
	DD	01H
xdata$x	ENDS
;	COMDAT xdata$x
xdata$x	SEGMENT
__unwindtable$??$construct@PAVTextureHandle@@AAPAV1@@?$allocator@PAVTextureHandle@@@std@@QAEXPAPAVTextureHandle@@AAPAV2@@Z DD 0ffffffffH
	DD	FLAT:__unwindfunclet$??$construct@PAVTextureHandle@@AAPAV1@@?$allocator@PAVTextureHandle@@@std@@QAEXPAPAVTextureHandle@@AAPAV2@@Z$0
__ehfuncinfo$??$construct@PAVTextureHandle@@AAPAV1@@?$allocator@PAVTextureHandle@@@std@@QAEXPAPAVTextureHandle@@AAPAV2@@Z DD 019930522H
	DD	01H
	DD	FLAT:__unwindtable$??$construct@PAVTextureHandle@@AAPAV1@@?$allocator@PAVTextureHandle@@@std@@QAEXPAPAVTextureHandle@@AAPAV2@@Z
	DD	2 DUP(00H)
	DD	2 DUP(00H)
	DD	00H
	DD	01H
xdata$x	ENDS
xdata$x	SEGMENT
__unwindtable$??1CPHsiView@@UAE@XZ DD 0ffffffffH
	DD	FLAT:__unwindfunclet$??1CPHsiView@@UAE@XZ$0
__unwindtable$??0CPHsiView@@QAE@PAUObjectInitStr@@PAUHsiInitStr@@@Z DD 0ffffffffH
	DD	FLAT:__unwindfunclet$??0CPHsiView@@QAE@PAUObjectInitStr@@PAUHsiInitStr@@@Z$0
	DD	00H
	DD	FLAT:__unwindfunclet$??0CPHsiView@@QAE@PAUObjectInitStr@@PAUHsiInitStr@@@Z$1
__catchsym$?CreateLit@CPHsiView@@UAEXXZ$5 DD 00H
	DD	FLAT:??_R0?AV_com_error@@@8
	DD	0ffffff8cH
	DD	FLAT:__catch$?CreateLit@CPHsiView@@UAEXXZ$0
__tryblocktable$?CreateLit@CPHsiView@@UAEXXZ DD 00H
	DD	02H
	DD	04H
	DD	01H
	DD	FLAT:__catchsym$?CreateLit@CPHsiView@@UAEXXZ$5
__ehfuncinfo$??1CPHsiView@@UAE@XZ DD 019930522H
	DD	01H
	DD	FLAT:__unwindtable$??1CPHsiView@@UAE@XZ
	DD	2 DUP(00H)
	DD	2 DUP(00H)
	DD	00H
	DD	01H
__ehfuncinfo$??0CPHsiView@@QAE@PAUObjectInitStr@@PAUHsiInitStr@@@Z DD 019930522H
	DD	02H
	DD	FLAT:__unwindtable$??0CPHsiView@@QAE@PAUObjectInitStr@@PAUHsiInitStr@@@Z
	DD	2 DUP(00H)
	DD	2 DUP(00H)
	DD	00H
	DD	01H
__ehfuncinfo$?CreateLit@CPHsiView@@UAEXXZ DD 019930522H
	DD	05H
	DD	FLAT:__unwindtable$?CreateLit@CPHsiView@@UAEXXZ
	DD	01H
	DD	FLAT:__tryblocktable$?CreateLit@CPHsiView@@UAEXXZ
	DD	2 DUP(00H)
	DD	00H
	DD	01H
__unwindtable$?CreateLit@CPHsiView@@UAEXXZ DD 0ffffffffH
	DD	00H
	DD	00H
	DD	FLAT:__unwindfunclet$?CreateLit@CPHsiView@@UAEXXZ$2
	DD	00H
	DD	FLAT:__unwindfunclet$?CreateLit@CPHsiView@@UAEXXZ$3
	DD	0ffffffffH
	DD	00H
	DD	03H
	DD	FLAT:__unwindfunclet$?CreateLit@CPHsiView@@UAEXXZ$4
xdata$x	ENDS
;	COMDAT xdata$x
xdata$x	SEGMENT
__catchsym$?_Reallocate@?$vector@PAVTextureHandle@@V?$allocator@PAVTextureHandle@@@std@@@std@@IAEXI@Z$2 DD 040H
	DD	00H
	DD	00H
	DD	FLAT:__catch$?_Reallocate@?$vector@PAVTextureHandle@@V?$allocator@PAVTextureHandle@@@std@@@std@@IAEXI@Z$0
__unwindtable$?_Reallocate@?$vector@PAVTextureHandle@@V?$allocator@PAVTextureHandle@@@std@@@std@@IAEXI@Z DD 0ffffffffH
	DD	00H
	DD	0ffffffffH
	DD	00H
__tryblocktable$?_Reallocate@?$vector@PAVTextureHandle@@V?$allocator@PAVTextureHandle@@@std@@@std@@IAEXI@Z DD 00H
	DD	00H
	DD	01H
	DD	01H
	DD	FLAT:__catchsym$?_Reallocate@?$vector@PAVTextureHandle@@V?$allocator@PAVTextureHandle@@@std@@@std@@IAEXI@Z$2
__ehfuncinfo$?_Reallocate@?$vector@PAVTextureHandle@@V?$allocator@PAVTextureHandle@@@std@@@std@@IAEXI@Z DD 019930522H
	DD	02H
	DD	FLAT:__unwindtable$?_Reallocate@?$vector@PAVTextureHandle@@V?$allocator@PAVTextureHandle@@@std@@@std@@IAEXI@Z
	DD	01H
	DD	FLAT:__tryblocktable$?_Reallocate@?$vector@PAVTextureHandle@@V?$allocator@PAVTextureHandle@@@std@@@std@@IAEXI@Z
	DD	2 DUP(00H)
	DD	00H
	DD	01H
xdata$x	ENDS
;	COMDAT xdata$x
xdata$x	SEGMENT
__catchsym$?_Copy@?$basic_string@DU?$char_traits@D@std@@V?$allocator@D@2@@std@@QAEXII@Z$5 DD 040H
	DD	00H
	DD	00H
	DD	FLAT:__catch$?_Copy@?$basic_string@DU?$char_traits@D@std@@V?$allocator@D@2@@std@@QAEXII@Z$0
__catchsym$?_Copy@?$basic_string@DU?$char_traits@D@std@@V?$allocator@D@2@@std@@QAEXII@Z$4 DD 040H
	DD	00H
	DD	00H
	DD	FLAT:__catch$?_Copy@?$basic_string@DU?$char_traits@D@std@@V?$allocator@D@2@@std@@QAEXII@Z$1
__unwindtable$?_Copy@?$basic_string@DU?$char_traits@D@std@@V?$allocator@D@2@@std@@QAEXII@Z DD 0ffffffffH
	DD	00H
	DD	0ffffffffH
	DD	00H
	DD	01H
	DD	00H
	DD	01H
	DD	00H
__ehfuncinfo$?_Copy@?$basic_string@DU?$char_traits@D@std@@V?$allocator@D@2@@std@@QAEXII@Z DD 019930522H
	DD	04H
	DD	FLAT:__unwindtable$?_Copy@?$basic_string@DU?$char_traits@D@std@@V?$allocator@D@2@@std@@QAEXII@Z
	DD	02H
	DD	FLAT:__tryblocktable$?_Copy@?$basic_string@DU?$char_traits@D@std@@V?$allocator@D@2@@std@@QAEXII@Z
	DD	2 DUP(00H)
	DD	00H
	DD	01H
__tryblocktable$?_Copy@?$basic_string@DU?$char_traits@D@std@@V?$allocator@D@2@@std@@QAEXII@Z DD 02H
	DD	02H
	DD	03H
	DD	01H
	DD	FLAT:__catchsym$?_Copy@?$basic_string@DU?$char_traits@D@std@@V?$allocator@D@2@@std@@QAEXII@Z$4
	DD	00H
	DD	00H
	DD	03H
	DD	01H
	DD	FLAT:__catchsym$?_Copy@?$basic_string@DU?$char_traits@D@std@@V?$allocator@D@2@@std@@QAEXII@Z$5
xdata$x	ENDS
CRT$XCU	SEGMENT
_allocator_arg$initializer$ DD FLAT:??__Eallocator_arg@std@@YAXXZ
CRT$XCU	ENDS
;	COMDAT CRT$XCU
CRT$XCU	SEGMENT
?_Generic_object$initializer$@?$_Error_objects@H@std@@2P6AXXZA DD FLAT:??__E?_Generic_object@?$_Error_objects@H@std@@2V_Generic_error_category@2@A@@YAXXZ ; std::_Error_objects<int>::_Generic_object$initializer$
CRT$XCU	ENDS
;	COMDAT CRT$XCU
CRT$XCU	SEGMENT
?_Iostream_object$initializer$@?$_Error_objects@H@std@@2P6AXXZA DD FLAT:??__E?_Iostream_object@?$_Error_objects@H@std@@2V_Iostream_error_category@2@A@@YAXXZ ; std::_Error_objects<int>::_Iostream_object$initializer$
CRT$XCU	ENDS
;	COMDAT CRT$XCU
CRT$XCU	SEGMENT
?_System_object$initializer$@?$_Error_objects@H@std@@2P6AXXZA DD FLAT:??__E?_System_object@?$_Error_objects@H@std@@2V_System_error_category@2@A@@YAXXZ ; std::_Error_objects<int>::_System_object$initializer$
CRT$XCU	ENDS
;	COMDAT CRT$XCU
CRT$XCU	SEGMENT
?id$initializer$@?$num_put@DV?$back_insert_iterator@V?$basic_string@DU?$char_traits@D@std@@V?$allocator@D@2@@std@@@std@@@std@@2P6AXXZA DD FLAT:??__E?id@?$num_put@DV?$back_insert_iterator@V?$basic_string@DU?$char_traits@D@std@@V?$allocator@D@2@@std@@@std@@@std@@2V0locale@2@A@@YAXXZ ; std::num_put<char,std::back_insert_iterator<std::basic_string<char,std::char_traits<char>,std::allocator<char> > > >::id$initializer$
CRT$XCU	ENDS
;	COMDAT CRT$XCU
CRT$XCU	SEGMENT
?id$initializer$@?$num_put@_WV?$back_insert_iterator@V?$basic_string@_WU?$char_traits@_W@std@@V?$allocator@_W@2@@std@@@std@@@std@@2P6AXXZA DD FLAT:??__E?id@?$num_put@_WV?$back_insert_iterator@V?$basic_string@_WU?$char_traits@_W@std@@V?$allocator@_W@2@@std@@@std@@@std@@2V0locale@2@A@@YAXXZ ; std::num_put<wchar_t,std::back_insert_iterator<std::basic_string<wchar_t,std::char_traits<wchar_t>,std::allocator<wchar_t> > > >::id$initializer$
CRT$XCU	ENDS
;	COMDAT CRT$XCU
CRT$XCU	SEGMENT
?id$initializer$@?$numpunct@D@std@@2P6AXXZA DD FLAT:??__E?id@?$numpunct@D@std@@2V0locale@2@A@@YAXXZ ; std::numpunct<char>::id$initializer$
CRT$XCU	ENDS
;	COMDAT CRT$XCU
CRT$XCU	SEGMENT
?id$initializer$@?$numpunct@_W@std@@2P6AXXZA DD FLAT:??__E?id@?$numpunct@_W@std@@2V0locale@2@A@@YAXXZ ; std::numpunct<wchar_t>::id$initializer$
CRT$XCU	ENDS
; Function compile flags: /Odtp
; File c:\program files (x86)\microsoft visual studio 11.0\vc\include\xmemory
;	COMDAT ??$_Uninit_move@PAVTextureHandle@@PAV1@PAV1@@std@@YAPAPAVTextureHandle@@PAPAV1@00AAU?$_Wrap_alloc@V?$allocator@PAVTextureHandle@@@std@@@0@0U_Scalar_ptr_iterator_tag@0@@Z
_TEXT	SEGMENT
__Count$ = -4						; size = 4
__First$ = 8						; size = 4
__Last$ = 12						; size = 4
__Dest$ = 16						; size = 4
___formal$ = 20						; size = 4
___formal$ = 24						; size = 4
___formal$ = 28						; size = 1
??$_Uninit_move@PAVTextureHandle@@PAV1@PAV1@@std@@YAPAPAVTextureHandle@@PAPAV1@00AAU?$_Wrap_alloc@V?$allocator@PAVTextureHandle@@@std@@@0@0U_Scalar_ptr_iterator_tag@0@@Z PROC ; std::_Uninit_move<TextureHandle *,TextureHandle *,TextureHandle *>, COMDAT

; 458  : 	{	// move [_First, _Last) to raw _Dest, scalar type

	push	ebp
	mov	ebp, esp
	push	ecx

; 459  : 	_DEBUG_RANGE(_First, _Last);
; 460  : 	_DEBUG_POINTER(_Dest);
; 461  : 	size_t _Count = (size_t)(_Last - _First);

	mov	eax, DWORD PTR __Last$[ebp]
	sub	eax, DWORD PTR __First$[ebp]
	sar	eax, 2
	mov	DWORD PTR __Count$[ebp], eax

; 462  : 	return ((_Ty2 *)_CSTD memmove(&*_Dest, &*_First,
; 463  : 		_Count * sizeof (*_First)) + _Count);	// NB: non-overlapping move

	mov	ecx, DWORD PTR __Count$[ebp]
	shl	ecx, 2
	push	ecx
	mov	edx, DWORD PTR __First$[ebp]
	push	edx
	mov	eax, DWORD PTR __Dest$[ebp]
	push	eax
	call	_memmove
	add	esp, 12					; 0000000cH
	mov	ecx, DWORD PTR __Count$[ebp]
	lea	eax, DWORD PTR [eax+ecx*4]

; 464  : 	}

	mov	esp, ebp
	pop	ebp
	ret	0
??$_Uninit_move@PAVTextureHandle@@PAV1@PAV1@@std@@YAPAPAVTextureHandle@@PAPAV1@00AAU?$_Wrap_alloc@V?$allocator@PAVTextureHandle@@@std@@@0@0U_Scalar_ptr_iterator_tag@0@@Z ENDP ; std::_Uninit_move<TextureHandle *,TextureHandle *,TextureHandle *>
_TEXT	ENDS
; Function compile flags: /Odtp
; File c:\program files (x86)\microsoft visual studio 11.0\vc\include\xutility
;	COMDAT ??$_Val_type@PAPAVTextureHandle@@@std@@YAPAPAVTextureHandle@@PAPAV1@@Z
_TEXT	SEGMENT
___formal$ = 8						; size = 4
??$_Val_type@PAPAVTextureHandle@@@std@@YAPAPAVTextureHandle@@PAPAV1@@Z PROC ; std::_Val_type<TextureHandle * *>, COMDAT

; 710  : 	{	// return value type from arbitrary argument

	push	ebp
	mov	ebp, esp

; 711  : 	return (0);

	xor	eax, eax

; 712  : 	}

	pop	ebp
	ret	0
??$_Val_type@PAPAVTextureHandle@@@std@@YAPAPAVTextureHandle@@PAPAV1@@Z ENDP ; std::_Val_type<TextureHandle * *>
_TEXT	ENDS
; Function compile flags: /Odtp
; File c:\program files (x86)\microsoft visual studio 11.0\vc\include\xmemory0
;	COMDAT ??$destroy@PAD@?$allocator@D@std@@QAEXPAPAD@Z
_TEXT	SEGMENT
_this$ = -4						; size = 4
__Ptr$ = 8						; size = 4
??$destroy@PAD@?$allocator@D@std@@QAEXPAPAD@Z PROC	; std::allocator<char>::destroy<char *>, COMDAT
; _this$ = ecx

; 621  : 		void destroy(_Uty *_Ptr)

	push	ebp
	mov	ebp, esp
	push	ecx
	mov	DWORD PTR _this$[ebp], ecx

; 622  : 		{	// destroy object at _Ptr
; 623  : 		_Ptr->~_Uty();
; 624  : 		}

	mov	esp, ebp
	pop	ebp
	ret	4
??$destroy@PAD@?$allocator@D@std@@QAEXPAPAD@Z ENDP	; std::allocator<char>::destroy<char *>
_TEXT	ENDS
; Function compile flags: /Odtp
; File c:\program files (x86)\microsoft visual studio 11.0\vc\include\xmemory0
;	COMDAT ??$construct@PADAAPAD@?$allocator@D@std@@QAEXPAPADAAPAD@Z
_TEXT	SEGMENT
$T2 = -28						; size = 4
_this$ = -24						; size = 4
tv73 = -20						; size = 4
$T3 = -16						; size = 4
__$EHRec$ = -12						; size = 12
__Ptr$ = 8						; size = 4
__V0$ = 12						; size = 4
??$construct@PADAAPAD@?$allocator@D@std@@QAEXPAPADAAPAD@Z PROC ; std::allocator<char>::construct<char *,char * &>, COMDAT
; _this$ = ecx

; 617  : _VARIADIC_EXPAND_0X(_ALLOC_MEMBER_CONSTRUCT, , , , )

	push	ebp
	mov	ebp, esp
	push	-1
	push	__ehhandler$??$construct@PADAAPAD@?$allocator@D@std@@QAEXPAPADAAPAD@Z
	mov	eax, DWORD PTR fs:0
	push	eax
	sub	esp, 16					; 00000010H
	mov	eax, DWORD PTR ___security_cookie
	xor	eax, ebp
	push	eax
	lea	eax, DWORD PTR __$EHRec$[ebp]
	mov	DWORD PTR fs:0, eax
	mov	DWORD PTR _this$[ebp], ecx
	mov	eax, DWORD PTR __Ptr$[ebp]
	push	eax
	push	4
	call	??2@YAPAXIPAX@Z				; operator new
	add	esp, 8
	mov	DWORD PTR $T3[ebp], eax
	mov	DWORD PTR __$EHRec$[ebp+8], 0
	cmp	DWORD PTR $T3[ebp], 0
	je	SHORT $LN3@construct
	mov	ecx, DWORD PTR __V0$[ebp]
	push	ecx
	call	??$forward@AAPAD@std@@YAAAPADAAPAD@Z	; std::forward<char * &>
	add	esp, 4
	mov	edx, DWORD PTR $T3[ebp]
	mov	eax, DWORD PTR [eax]
	mov	DWORD PTR [edx], eax
	mov	ecx, DWORD PTR $T3[ebp]
	mov	DWORD PTR tv73[ebp], ecx
	jmp	SHORT $LN4@construct
$LN3@construct:
	mov	DWORD PTR tv73[ebp], 0
$LN4@construct:
	mov	edx, DWORD PTR tv73[ebp]
	mov	DWORD PTR $T2[ebp], edx
	mov	DWORD PTR __$EHRec$[ebp+8], -1
	mov	ecx, DWORD PTR __$EHRec$[ebp]
	mov	DWORD PTR fs:0, ecx
	pop	ecx
	mov	esp, ebp
	pop	ebp
	ret	8
_TEXT	ENDS
;	COMDAT text$x
text$x	SEGMENT
__unwindfunclet$??$construct@PADAAPAD@?$allocator@D@std@@QAEXPAPADAAPAD@Z$0:
	mov	eax, DWORD PTR __Ptr$[ebp]
	push	eax
	mov	eax, DWORD PTR $T3[ebp]
	push	eax
	call	??3@YAXPAX0@Z				; operator delete
	add	esp, 8
	ret	0
__ehhandler$??$construct@PADAAPAD@?$allocator@D@std@@QAEXPAPADAAPAD@Z:
	mov	edx, DWORD PTR [esp+8]
	lea	eax, DWORD PTR [edx+12]
	mov	ecx, DWORD PTR [edx-20]
	xor	ecx, eax
	call	@__security_check_cookie@4
	mov	eax, OFFSET __ehfuncinfo$??$construct@PADAAPAD@?$allocator@D@std@@QAEXPAPADAAPAD@Z
	jmp	___CxxFrameHandler3
text$x	ENDS
??$construct@PADAAPAD@?$allocator@D@std@@QAEXPAPADAAPAD@Z ENDP ; std::allocator<char>::construct<char *,char * &>
; Function compile flags: /Odtp
; File c:\program files (x86)\microsoft visual studio 11.0\vc\include\xmemory0
;	COMDAT ??$construct@PAVTextureHandle@@AAPAV1@@?$allocator@PAVTextureHandle@@@std@@QAEXPAPAVTextureHandle@@AAPAV2@@Z
_TEXT	SEGMENT
$T2 = -28						; size = 4
_this$ = -24						; size = 4
tv73 = -20						; size = 4
$T3 = -16						; size = 4
__$EHRec$ = -12						; size = 12
__Ptr$ = 8						; size = 4
__V0$ = 12						; size = 4
??$construct@PAVTextureHandle@@AAPAV1@@?$allocator@PAVTextureHandle@@@std@@QAEXPAPAVTextureHandle@@AAPAV2@@Z PROC ; std::allocator<TextureHandle *>::construct<TextureHandle *,TextureHandle * &>, COMDAT
; _this$ = ecx

; 617  : _VARIADIC_EXPAND_0X(_ALLOC_MEMBER_CONSTRUCT, , , , )

	push	ebp
	mov	ebp, esp
	push	-1
	push	__ehhandler$??$construct@PAVTextureHandle@@AAPAV1@@?$allocator@PAVTextureHandle@@@std@@QAEXPAPAVTextureHandle@@AAPAV2@@Z
	mov	eax, DWORD PTR fs:0
	push	eax
	sub	esp, 16					; 00000010H
	mov	eax, DWORD PTR ___security_cookie
	xor	eax, ebp
	push	eax
	lea	eax, DWORD PTR __$EHRec$[ebp]
	mov	DWORD PTR fs:0, eax
	mov	DWORD PTR _this$[ebp], ecx
	mov	eax, DWORD PTR __Ptr$[ebp]
	push	eax
	push	4
	call	??2@YAPAXIPAX@Z				; operator new
	add	esp, 8
	mov	DWORD PTR $T3[ebp], eax
	mov	DWORD PTR __$EHRec$[ebp+8], 0
	cmp	DWORD PTR $T3[ebp], 0
	je	SHORT $LN3@construct
	mov	ecx, DWORD PTR __V0$[ebp]
	push	ecx
	call	??$forward@AAPAVTextureHandle@@@std@@YAAAPAVTextureHandle@@AAPAV1@@Z ; std::forward<TextureHandle * &>
	add	esp, 4
	mov	edx, DWORD PTR $T3[ebp]
	mov	eax, DWORD PTR [eax]
	mov	DWORD PTR [edx], eax
	mov	ecx, DWORD PTR $T3[ebp]
	mov	DWORD PTR tv73[ebp], ecx
	jmp	SHORT $LN4@construct
$LN3@construct:
	mov	DWORD PTR tv73[ebp], 0
$LN4@construct:
	mov	edx, DWORD PTR tv73[ebp]
	mov	DWORD PTR $T2[ebp], edx
	mov	DWORD PTR __$EHRec$[ebp+8], -1
	mov	ecx, DWORD PTR __$EHRec$[ebp]
	mov	DWORD PTR fs:0, ecx
	pop	ecx
	mov	esp, ebp
	pop	ebp
	ret	8
_TEXT	ENDS
;	COMDAT text$x
text$x	SEGMENT
__unwindfunclet$??$construct@PAVTextureHandle@@AAPAV1@@?$allocator@PAVTextureHandle@@@std@@QAEXPAPAVTextureHandle@@AAPAV2@@Z$0:
	mov	eax, DWORD PTR __Ptr$[ebp]
	push	eax
	mov	eax, DWORD PTR $T3[ebp]
	push	eax
	call	??3@YAXPAX0@Z				; operator delete
	add	esp, 8
	ret	0
__ehhandler$??$construct@PAVTextureHandle@@AAPAV1@@?$allocator@PAVTextureHandle@@@std@@QAEXPAPAVTextureHandle@@AAPAV2@@Z:
	mov	edx, DWORD PTR [esp+8]
	lea	eax, DWORD PTR [edx+12]
	mov	ecx, DWORD PTR [edx-20]
	xor	ecx, eax
	call	@__security_check_cookie@4
	mov	eax, OFFSET __ehfuncinfo$??$construct@PAVTextureHandle@@AAPAV1@@?$allocator@PAVTextureHandle@@@std@@QAEXPAPAVTextureHandle@@AAPAV2@@Z
	jmp	___CxxFrameHandler3
text$x	ENDS
??$construct@PAVTextureHandle@@AAPAV1@@?$allocator@PAVTextureHandle@@@std@@QAEXPAPAVTextureHandle@@AAPAV2@@Z ENDP ; std::allocator<TextureHandle *>::construct<TextureHandle *,TextureHandle * &>
; Function compile flags: /Odtp
; File c:\program files (x86)\microsoft visual studio 11.0\vc\include\xlocnum
;	COMDAT ??__E?id@?$numpunct@_W@std@@2V0locale@2@A@@YAXXZ
text$yc	SEGMENT
??__E?id@?$numpunct@_W@std@@2V0locale@2@A@@YAXXZ PROC	; `dynamic initializer for 'std::numpunct<wchar_t>::id'', COMDAT

; 155  : 		void _Getvals(wchar_t, const lconv *_Ptr, _Locinfo::_Cvtvec)

	push	ebp
	mov	ebp, esp
	push	0
	mov	ecx, OFFSET ?id@?$numpunct@_W@std@@2V0locale@2@A ; std::numpunct<wchar_t>::id
	call	??0id@locale@std@@QAE@I@Z		; std::locale::id::id
	pop	ebp
	ret	0
??__E?id@?$numpunct@_W@std@@2V0locale@2@A@@YAXXZ ENDP	; `dynamic initializer for 'std::numpunct<wchar_t>::id''
text$yc	ENDS
; Function compile flags: /Odtp
; File c:\program files (x86)\microsoft visual studio 11.0\vc\include\xlocnum
;	COMDAT ??__E?id@?$numpunct@D@std@@2V0locale@2@A@@YAXXZ
text$yc	SEGMENT
??__E?id@?$numpunct@D@std@@2V0locale@2@A@@YAXXZ PROC	; `dynamic initializer for 'std::numpunct<char>::id'', COMDAT

; 155  : 		void _Getvals(wchar_t, const lconv *_Ptr, _Locinfo::_Cvtvec)

	push	ebp
	mov	ebp, esp
	push	0
	mov	ecx, OFFSET ?id@?$numpunct@D@std@@2V0locale@2@A ; std::numpunct<char>::id
	call	??0id@locale@std@@QAE@I@Z		; std::locale::id::id
	pop	ebp
	ret	0
??__E?id@?$numpunct@D@std@@2V0locale@2@A@@YAXXZ ENDP	; `dynamic initializer for 'std::numpunct<char>::id''
text$yc	ENDS
; Function compile flags: /Odtp
; File c:\program files (x86)\microsoft visual studio 11.0\vc\include\xlocnum
;	COMDAT ??__E?id@?$num_put@_WV?$back_insert_iterator@V?$basic_string@_WU?$char_traits@_W@std@@V?$allocator@_W@2@@std@@@std@@@std@@2V0locale@2@A@@YAXXZ
text$yc	SEGMENT
??__E?id@?$num_put@_WV?$back_insert_iterator@V?$basic_string@_WU?$char_traits@_W@std@@V?$allocator@_W@2@@std@@@std@@@std@@2V0locale@2@A@@YAXXZ PROC ; `dynamic initializer for 'std::num_put<wchar_t,std::back_insert_iterator<std::basic_string<wchar_t,std::char_traits<wchar_t>,std::allocator<wchar_t> > > >::id'', COMDAT

; 155  : 		void _Getvals(wchar_t, const lconv *_Ptr, _Locinfo::_Cvtvec)

	push	ebp
	mov	ebp, esp
	push	0
	mov	ecx, OFFSET ?id@?$num_put@_WV?$back_insert_iterator@V?$basic_string@_WU?$char_traits@_W@std@@V?$allocator@_W@2@@std@@@std@@@std@@2V0locale@2@A ; std::num_put<wchar_t,std::back_insert_iterator<std::basic_string<wchar_t,std::char_traits<wchar_t>,std::allocator<wchar_t> > > >::id
	call	??0id@locale@std@@QAE@I@Z		; std::locale::id::id
	pop	ebp
	ret	0
??__E?id@?$num_put@_WV?$back_insert_iterator@V?$basic_string@_WU?$char_traits@_W@std@@V?$allocator@_W@2@@std@@@std@@@std@@2V0locale@2@A@@YAXXZ ENDP ; `dynamic initializer for 'std::num_put<wchar_t,std::back_insert_iterator<std::basic_string<wchar_t,std::char_traits<wchar_t>,std::allocator<wchar_t> > > >::id''
text$yc	ENDS
; Function compile flags: /Odtp
; File c:\program files (x86)\microsoft visual studio 11.0\vc\include\xlocnum
;	COMDAT ??__E?id@?$num_put@DV?$back_insert_iterator@V?$basic_string@DU?$char_traits@D@std@@V?$allocator@D@2@@std@@@std@@@std@@2V0locale@2@A@@YAXXZ
text$yc	SEGMENT
??__E?id@?$num_put@DV?$back_insert_iterator@V?$basic_string@DU?$char_traits@D@std@@V?$allocator@D@2@@std@@@std@@@std@@2V0locale@2@A@@YAXXZ PROC ; `dynamic initializer for 'std::num_put<char,std::back_insert_iterator<std::basic_string<char,std::char_traits<char>,std::allocator<char> > > >::id'', COMDAT

; 155  : 		void _Getvals(wchar_t, const lconv *_Ptr, _Locinfo::_Cvtvec)

	push	ebp
	mov	ebp, esp
	push	0
	mov	ecx, OFFSET ?id@?$num_put@DV?$back_insert_iterator@V?$basic_string@DU?$char_traits@D@std@@V?$allocator@D@2@@std@@@std@@@std@@2V0locale@2@A ; std::num_put<char,std::back_insert_iterator<std::basic_string<char,std::char_traits<char>,std::allocator<char> > > >::id
	call	??0id@locale@std@@QAE@I@Z		; std::locale::id::id
	pop	ebp
	ret	0
??__E?id@?$num_put@DV?$back_insert_iterator@V?$basic_string@DU?$char_traits@D@std@@V?$allocator@D@2@@std@@@std@@@std@@2V0locale@2@A@@YAXXZ ENDP ; `dynamic initializer for 'std::num_put<char,std::back_insert_iterator<std::basic_string<char,std::char_traits<char>,std::allocator<char> > > >::id''
text$yc	ENDS
; Function compile flags: /Odtp
; File c:\program files (x86)\microsoft visual studio 11.0\vc\include\xmemory0
;	COMDAT ??$_Destroy_range@U?$_Wrap_alloc@V?$allocator@PAVTextureHandle@@@std@@@std@@@std@@YAXPAPAVTextureHandle@@0AAU?$_Wrap_alloc@V?$allocator@PAVTextureHandle@@@std@@@0@U_Scalar_ptr_iterator_tag@0@@Z
_TEXT	SEGMENT
__First$ = 8						; size = 4
__Last$ = 12						; size = 4
__Al$ = 16						; size = 4
___formal$ = 20						; size = 1
??$_Destroy_range@U?$_Wrap_alloc@V?$allocator@PAVTextureHandle@@@std@@@std@@@std@@YAXPAPAVTextureHandle@@0AAU?$_Wrap_alloc@V?$allocator@PAVTextureHandle@@@std@@@0@U_Scalar_ptr_iterator_tag@0@@Z PROC ; std::_Destroy_range<std::_Wrap_alloc<std::allocator<TextureHandle *> > >, COMDAT

; 96   : 	{	// destroy [_First, _Last), scalar type (do nothing)

	push	ebp
	mov	ebp, esp

; 97   : 	}

	pop	ebp
	ret	0
??$_Destroy_range@U?$_Wrap_alloc@V?$allocator@PAVTextureHandle@@@std@@@std@@@std@@YAXPAPAVTextureHandle@@0AAU?$_Wrap_alloc@V?$allocator@PAVTextureHandle@@@std@@@0@U_Scalar_ptr_iterator_tag@0@@Z ENDP ; std::_Destroy_range<std::_Wrap_alloc<std::allocator<TextureHandle *> > >
_TEXT	ENDS
; Function compile flags: /Odtp
; File c:\program files (x86)\microsoft visual studio 11.0\vc\include\xutility
;	COMDAT ??$_Ptr_cat@PAVTextureHandle@@PAV1@@std@@YA?AU_Scalar_ptr_iterator_tag@0@PAPAVTextureHandle@@0@Z
_TEXT	SEGMENT
__Cat$ = -1						; size = 1
___formal$ = 8						; size = 4
___formal$ = 12						; size = 4
??$_Ptr_cat@PAVTextureHandle@@PAV1@@std@@YA?AU_Scalar_ptr_iterator_tag@0@PAPAVTextureHandle@@0@Z PROC ; std::_Ptr_cat<TextureHandle *,TextureHandle *>, COMDAT

; 437  : 	{	// return pointer category from pointers

	push	ebp
	mov	ebp, esp
	push	ecx

; 438  : 	typename _Ptr_cat_helper<_Elem1, _Elem2>::type _Cat;
; 439  : 	return (_Cat);

	mov	al, BYTE PTR __Cat$[ebp]

; 440  : 	}

	mov	esp, ebp
	pop	ebp
	ret	0
??$_Ptr_cat@PAVTextureHandle@@PAV1@@std@@YA?AU_Scalar_ptr_iterator_tag@0@PAPAVTextureHandle@@0@Z ENDP ; std::_Ptr_cat<TextureHandle *,TextureHandle *>
_TEXT	ENDS
; Function compile flags: /Odtp
; File c:\program files (x86)\microsoft visual studio 11.0\vc\include\xmemory
;	COMDAT ??$_Uninitialized_move@PAPAVTextureHandle@@PAPAV1@U?$_Wrap_alloc@V?$allocator@PAVTextureHandle@@@std@@@std@@@std@@YAPAPAVTextureHandle@@PAPAV1@00AAU?$_Wrap_alloc@V?$allocator@PAVTextureHandle@@@std@@@0@@Z
_TEXT	SEGMENT
$T1 = -1						; size = 1
__First$ = 8						; size = 4
__Last$ = 12						; size = 4
__Dest$ = 16						; size = 4
__Al$ = 20						; size = 4
??$_Uninitialized_move@PAPAVTextureHandle@@PAPAV1@U?$_Wrap_alloc@V?$allocator@PAVTextureHandle@@@std@@@std@@@std@@YAPAPAVTextureHandle@@PAPAV1@00AAU?$_Wrap_alloc@V?$allocator@PAVTextureHandle@@@std@@@0@@Z PROC ; std::_Uninitialized_move<TextureHandle * *,TextureHandle * *,std::_Wrap_alloc<std::allocator<TextureHandle *> > >, COMDAT

; 471  : 	{	// move [_First, _Last) to raw _Dest, using _Al

	push	ebp
	mov	ebp, esp
	push	ecx

; 472  : 	return (_Uninit_move(_First, _Last, _Dest, _Al,
; 473  : 		_Val_type(_First), _Ptr_cat(_First, _Dest)));

	mov	eax, DWORD PTR __Dest$[ebp]
	push	eax
	mov	ecx, DWORD PTR __First$[ebp]
	push	ecx
	call	??$_Ptr_cat@PAVTextureHandle@@PAV1@@std@@YA?AU_Scalar_ptr_iterator_tag@0@PAPAVTextureHandle@@0@Z ; std::_Ptr_cat<TextureHandle *,TextureHandle *>
	add	esp, 8
	mov	BYTE PTR $T1[ebp], al
	movzx	edx, BYTE PTR $T1[ebp]
	push	edx
	mov	eax, DWORD PTR __First$[ebp]
	push	eax
	call	??$_Val_type@PAPAVTextureHandle@@@std@@YAPAPAVTextureHandle@@PAPAV1@@Z ; std::_Val_type<TextureHandle * *>
	add	esp, 4
	push	eax
	mov	ecx, DWORD PTR __Al$[ebp]
	push	ecx
	mov	edx, DWORD PTR __Dest$[ebp]
	push	edx
	mov	eax, DWORD PTR __Last$[ebp]
	push	eax
	mov	ecx, DWORD PTR __First$[ebp]
	push	ecx
	call	??$_Uninit_move@PAVTextureHandle@@PAV1@PAV1@@std@@YAPAPAVTextureHandle@@PAPAV1@00AAU?$_Wrap_alloc@V?$allocator@PAVTextureHandle@@@std@@@0@0U_Scalar_ptr_iterator_tag@0@@Z ; std::_Uninit_move<TextureHandle *,TextureHandle *,TextureHandle *>
	add	esp, 24					; 00000018H

; 474  : 	}

	mov	esp, ebp
	pop	ebp
	ret	0
??$_Uninitialized_move@PAPAVTextureHandle@@PAPAV1@U?$_Wrap_alloc@V?$allocator@PAVTextureHandle@@@std@@@std@@@std@@YAPAPAVTextureHandle@@PAPAV1@00AAU?$_Wrap_alloc@V?$allocator@PAVTextureHandle@@@std@@@0@@Z ENDP ; std::_Uninitialized_move<TextureHandle * *,TextureHandle * *,std::_Wrap_alloc<std::allocator<TextureHandle *> > >
_TEXT	ENDS
; Function compile flags: /Odtp
; File c:\program files (x86)\microsoft visual studio 11.0\vc\include\xmemory0
;	COMDAT ??$destroy@PAD@?$allocator_traits@V?$allocator@D@std@@@std@@SAXAAV?$allocator@D@1@PAPAD@Z
_TEXT	SEGMENT
__Al$ = 8						; size = 4
__Ptr$ = 12						; size = 4
??$destroy@PAD@?$allocator_traits@V?$allocator@D@std@@@std@@SAXAAV?$allocator@D@1@PAPAD@Z PROC ; std::allocator_traits<std::allocator<char> >::destroy<char *>, COMDAT

; 755  : 		static void destroy(_Alloc& _Al, _Uty *_Ptr)

	push	ebp
	mov	ebp, esp

; 756  : 		{	// destroy object at _Ptr
; 757  : 		_Al.destroy(_Ptr);

	mov	eax, DWORD PTR __Ptr$[ebp]
	push	eax
	mov	ecx, DWORD PTR __Al$[ebp]
	call	??$destroy@PAD@?$allocator@D@std@@QAEXPAPAD@Z ; std::allocator<char>::destroy<char *>

; 758  : 		}

	pop	ebp
	ret	0
??$destroy@PAD@?$allocator_traits@V?$allocator@D@std@@@std@@SAXAAV?$allocator@D@1@PAPAD@Z ENDP ; std::allocator_traits<std::allocator<char> >::destroy<char *>
_TEXT	ENDS
; Function compile flags: /Odtp
; File c:\program files (x86)\microsoft visual studio 11.0\vc\include\xmemory0
;	COMDAT ??$construct@PADAAPAD@?$allocator_traits@V?$allocator@D@std@@@std@@SAXAAV?$allocator@D@1@PAPADAAPAD@Z
_TEXT	SEGMENT
__Al$ = 8						; size = 4
__Ptr$ = 12						; size = 4
__V0$ = 16						; size = 4
??$construct@PADAAPAD@?$allocator_traits@V?$allocator@D@std@@@std@@SAXAAV?$allocator@D@1@PAPADAAPAD@Z PROC ; std::allocator_traits<std::allocator<char> >::construct<char *,char * &>, COMDAT

; 751  : _VARIADIC_EXPAND_0X(_ALLOC_TRAITS_SPECIAL_CONSTRUCT, , , , )

	push	ebp
	mov	ebp, esp
	mov	eax, DWORD PTR __V0$[ebp]
	push	eax
	call	??$forward@AAPAD@std@@YAAAPADAAPAD@Z	; std::forward<char * &>
	add	esp, 4
	push	eax
	mov	ecx, DWORD PTR __Ptr$[ebp]
	push	ecx
	mov	ecx, DWORD PTR __Al$[ebp]
	call	??$construct@PADAAPAD@?$allocator@D@std@@QAEXPAPADAAPAD@Z ; std::allocator<char>::construct<char *,char * &>
	pop	ebp
	ret	0
??$construct@PADAAPAD@?$allocator_traits@V?$allocator@D@std@@@std@@SAXAAV?$allocator@D@1@PAPADAAPAD@Z ENDP ; std::allocator_traits<std::allocator<char> >::construct<char *,char * &>
_TEXT	ENDS
; Function compile flags: /Odtp
; File c:\program files (x86)\microsoft visual studio 11.0\vc\include\type_traits
;	COMDAT ??$forward@AAPAD@std@@YAAAPADAAPAD@Z
_TEXT	SEGMENT
__Arg$ = 8						; size = 4
??$forward@AAPAD@std@@YAAAPADAAPAD@Z PROC		; std::forward<char * &>, COMDAT

; 1775 : 	{	// forward an lvalue

	push	ebp
	mov	ebp, esp

; 1776 : 	return (static_cast<_Ty&&>(_Arg));

	mov	eax, DWORD PTR __Arg$[ebp]

; 1777 : 	}

	pop	ebp
	ret	0
??$forward@AAPAD@std@@YAAAPADAAPAD@Z ENDP		; std::forward<char * &>
_TEXT	ENDS
; Function compile flags: /Odtp
; File c:\program files (x86)\microsoft visual studio 11.0\vc\include\xmemory0
;	COMDAT ??$construct@PAVTextureHandle@@ABQAV1@@?$allocator_traits@V?$allocator@PAVTextureHandle@@@std@@@std@@SAXAAV?$allocator@PAVTextureHandle@@@1@PAPAVTextureHandle@@ABQAV3@@Z
_TEXT	SEGMENT
__Al$ = 8						; size = 4
__Ptr$ = 12						; size = 4
__V0$ = 16						; size = 4
??$construct@PAVTextureHandle@@ABQAV1@@?$allocator_traits@V?$allocator@PAVTextureHandle@@@std@@@std@@SAXAAV?$allocator@PAVTextureHandle@@@1@PAPAVTextureHandle@@ABQAV3@@Z PROC ; std::allocator_traits<std::allocator<TextureHandle *> >::construct<TextureHandle *,TextureHandle * const &>, COMDAT

; 751  : _VARIADIC_EXPAND_0X(_ALLOC_TRAITS_SPECIAL_CONSTRUCT, , , , )

	push	ebp
	mov	ebp, esp
	mov	eax, DWORD PTR __V0$[ebp]
	push	eax
	call	??$forward@ABQAVTextureHandle@@@std@@YAABQAVTextureHandle@@ABQAV1@@Z ; std::forward<TextureHandle * const &>
	add	esp, 4
	push	eax
	mov	ecx, DWORD PTR __Ptr$[ebp]
	push	ecx
	mov	ecx, DWORD PTR __Al$[ebp]
	call	?construct@?$allocator@PAVTextureHandle@@@std@@QAEXPAPAVTextureHandle@@ABQAV3@@Z ; std::allocator<TextureHandle *>::construct
	pop	ebp
	ret	0
??$construct@PAVTextureHandle@@ABQAV1@@?$allocator_traits@V?$allocator@PAVTextureHandle@@@std@@@std@@SAXAAV?$allocator@PAVTextureHandle@@@1@PAPAVTextureHandle@@ABQAV3@@Z ENDP ; std::allocator_traits<std::allocator<TextureHandle *> >::construct<TextureHandle *,TextureHandle * const &>
_TEXT	ENDS
; Function compile flags: /Odtp
; File c:\program files (x86)\microsoft visual studio 11.0\vc\include\type_traits
;	COMDAT ??$forward@ABQAVTextureHandle@@@std@@YAABQAVTextureHandle@@ABQAV1@@Z
_TEXT	SEGMENT
__Arg$ = 8						; size = 4
??$forward@ABQAVTextureHandle@@@std@@YAABQAVTextureHandle@@ABQAV1@@Z PROC ; std::forward<TextureHandle * const &>, COMDAT

; 1775 : 	{	// forward an lvalue

	push	ebp
	mov	ebp, esp

; 1776 : 	return (static_cast<_Ty&&>(_Arg));

	mov	eax, DWORD PTR __Arg$[ebp]

; 1777 : 	}

	pop	ebp
	ret	0
??$forward@ABQAVTextureHandle@@@std@@YAABQAVTextureHandle@@ABQAV1@@Z ENDP ; std::forward<TextureHandle * const &>
_TEXT	ENDS
; Function compile flags: /Odtp
; File c:\program files (x86)\microsoft visual studio 11.0\vc\include\xmemory0
;	COMDAT ??$construct@PAVTextureHandle@@AAPAV1@@?$allocator_traits@V?$allocator@PAVTextureHandle@@@std@@@std@@SAXAAV?$allocator@PAVTextureHandle@@@1@PAPAVTextureHandle@@AAPAV3@@Z
_TEXT	SEGMENT
__Al$ = 8						; size = 4
__Ptr$ = 12						; size = 4
__V0$ = 16						; size = 4
??$construct@PAVTextureHandle@@AAPAV1@@?$allocator_traits@V?$allocator@PAVTextureHandle@@@std@@@std@@SAXAAV?$allocator@PAVTextureHandle@@@1@PAPAVTextureHandle@@AAPAV3@@Z PROC ; std::allocator_traits<std::allocator<TextureHandle *> >::construct<TextureHandle *,TextureHandle * &>, COMDAT

; 751  : _VARIADIC_EXPAND_0X(_ALLOC_TRAITS_SPECIAL_CONSTRUCT, , , , )

	push	ebp
	mov	ebp, esp
	mov	eax, DWORD PTR __V0$[ebp]
	push	eax
	call	??$forward@AAPAVTextureHandle@@@std@@YAAAPAVTextureHandle@@AAPAV1@@Z ; std::forward<TextureHandle * &>
	add	esp, 4
	push	eax
	mov	ecx, DWORD PTR __Ptr$[ebp]
	push	ecx
	mov	ecx, DWORD PTR __Al$[ebp]
	call	??$construct@PAVTextureHandle@@AAPAV1@@?$allocator@PAVTextureHandle@@@std@@QAEXPAPAVTextureHandle@@AAPAV2@@Z ; std::allocator<TextureHandle *>::construct<TextureHandle *,TextureHandle * &>
	pop	ebp
	ret	0
??$construct@PAVTextureHandle@@AAPAV1@@?$allocator_traits@V?$allocator@PAVTextureHandle@@@std@@@std@@SAXAAV?$allocator@PAVTextureHandle@@@1@PAPAVTextureHandle@@AAPAV3@@Z ENDP ; std::allocator_traits<std::allocator<TextureHandle *> >::construct<TextureHandle *,TextureHandle * &>
_TEXT	ENDS
; Function compile flags: /Odtp
; File c:\program files (x86)\microsoft visual studio 11.0\vc\include\type_traits
;	COMDAT ??$forward@AAPAVTextureHandle@@@std@@YAAAPAVTextureHandle@@AAPAV1@@Z
_TEXT	SEGMENT
__Arg$ = 8						; size = 4
??$forward@AAPAVTextureHandle@@@std@@YAAAPAVTextureHandle@@AAPAV1@@Z PROC ; std::forward<TextureHandle * &>, COMDAT

; 1775 : 	{	// forward an lvalue

	push	ebp
	mov	ebp, esp

; 1776 : 	return (static_cast<_Ty&&>(_Arg));

	mov	eax, DWORD PTR __Arg$[ebp]

; 1777 : 	}

	pop	ebp
	ret	0
??$forward@AAPAVTextureHandle@@@std@@YAAAPAVTextureHandle@@AAPAV1@@Z ENDP ; std::forward<TextureHandle * &>
_TEXT	ENDS
; Function compile flags: /Odtp
;	COMDAT ??__F?_System_object@?$_Error_objects@H@std@@2V_System_error_category@2@A@@YAXXZ
text$yd	SEGMENT
??__F?_System_object@?$_Error_objects@H@std@@2V_System_error_category@2@A@@YAXXZ PROC ; `dynamic atexit destructor for 'std::_Error_objects<int>::_System_object'', COMDAT
	push	ebp
	mov	ebp, esp
	mov	ecx, OFFSET ?_System_object@?$_Error_objects@H@std@@2V_System_error_category@2@A ; std::_Error_objects<int>::_System_object
	call	??1_System_error_category@std@@UAE@XZ
	pop	ebp
	ret	0
??__F?_System_object@?$_Error_objects@H@std@@2V_System_error_category@2@A@@YAXXZ ENDP ; `dynamic atexit destructor for 'std::_Error_objects<int>::_System_object''
text$yd	ENDS
; Function compile flags: /Odtp
; File c:\program files (x86)\microsoft visual studio 11.0\vc\include\xmemory0
;	COMDAT ??__E?_System_object@?$_Error_objects@H@std@@2V_System_error_category@2@A@@YAXXZ
text$yc	SEGMENT
??__E?_System_object@?$_Error_objects@H@std@@2V_System_error_category@2@A@@YAXXZ PROC ; `dynamic initializer for 'std::_Error_objects<int>::_System_object'', COMDAT

; 627  : 		{	// estimate maximum array size

	push	ebp
	mov	ebp, esp
	mov	ecx, OFFSET ?_System_object@?$_Error_objects@H@std@@2V_System_error_category@2@A ; std::_Error_objects<int>::_System_object
	call	??0_System_error_category@std@@QAE@XZ	; std::_System_error_category::_System_error_category
	push	OFFSET ??__F?_System_object@?$_Error_objects@H@std@@2V_System_error_category@2@A@@YAXXZ ; `dynamic atexit destructor for 'std::_Error_objects<int>::_System_object''
	call	_atexit
	add	esp, 4
	pop	ebp
	ret	0
??__E?_System_object@?$_Error_objects@H@std@@2V_System_error_category@2@A@@YAXXZ ENDP ; `dynamic initializer for 'std::_Error_objects<int>::_System_object''
text$yc	ENDS
; Function compile flags: /Odtp
;	COMDAT ??__F?_Iostream_object@?$_Error_objects@H@std@@2V_Iostream_error_category@2@A@@YAXXZ
text$yd	SEGMENT
??__F?_Iostream_object@?$_Error_objects@H@std@@2V_Iostream_error_category@2@A@@YAXXZ PROC ; `dynamic atexit destructor for 'std::_Error_objects<int>::_Iostream_object'', COMDAT
	push	ebp
	mov	ebp, esp
	mov	ecx, OFFSET ?_Iostream_object@?$_Error_objects@H@std@@2V_Iostream_error_category@2@A ; std::_Error_objects<int>::_Iostream_object
	call	??1_Iostream_error_category@std@@UAE@XZ
	pop	ebp
	ret	0
??__F?_Iostream_object@?$_Error_objects@H@std@@2V_Iostream_error_category@2@A@@YAXXZ ENDP ; `dynamic atexit destructor for 'std::_Error_objects<int>::_Iostream_object''
text$yd	ENDS
; Function compile flags: /Odtp
; File c:\program files (x86)\microsoft visual studio 11.0\vc\include\xmemory0
;	COMDAT ??__E?_Iostream_object@?$_Error_objects@H@std@@2V_Iostream_error_category@2@A@@YAXXZ
text$yc	SEGMENT
??__E?_Iostream_object@?$_Error_objects@H@std@@2V_Iostream_error_category@2@A@@YAXXZ PROC ; `dynamic initializer for 'std::_Error_objects<int>::_Iostream_object'', COMDAT

; 627  : 		{	// estimate maximum array size

	push	ebp
	mov	ebp, esp
	mov	ecx, OFFSET ?_Iostream_object@?$_Error_objects@H@std@@2V_Iostream_error_category@2@A ; std::_Error_objects<int>::_Iostream_object
	call	??0_Iostream_error_category@std@@QAE@XZ	; std::_Iostream_error_category::_Iostream_error_category
	push	OFFSET ??__F?_Iostream_object@?$_Error_objects@H@std@@2V_Iostream_error_category@2@A@@YAXXZ ; `dynamic atexit destructor for 'std::_Error_objects<int>::_Iostream_object''
	call	_atexit
	add	esp, 4
	pop	ebp
	ret	0
??__E?_Iostream_object@?$_Error_objects@H@std@@2V_Iostream_error_category@2@A@@YAXXZ ENDP ; `dynamic initializer for 'std::_Error_objects<int>::_Iostream_object''
text$yc	ENDS
; Function compile flags: /Odtp
;	COMDAT ??__F?_Generic_object@?$_Error_objects@H@std@@2V_Generic_error_category@2@A@@YAXXZ
text$yd	SEGMENT
??__F?_Generic_object@?$_Error_objects@H@std@@2V_Generic_error_category@2@A@@YAXXZ PROC ; `dynamic atexit destructor for 'std::_Error_objects<int>::_Generic_object'', COMDAT
	push	ebp
	mov	ebp, esp
	mov	ecx, OFFSET ?_Generic_object@?$_Error_objects@H@std@@2V_Generic_error_category@2@A ; std::_Error_objects<int>::_Generic_object
	call	??1_Generic_error_category@std@@UAE@XZ
	pop	ebp
	ret	0
??__F?_Generic_object@?$_Error_objects@H@std@@2V_Generic_error_category@2@A@@YAXXZ ENDP ; `dynamic atexit destructor for 'std::_Error_objects<int>::_Generic_object''
text$yd	ENDS
; Function compile flags: /Odtp
; File c:\program files (x86)\microsoft visual studio 11.0\vc\include\xmemory0
;	COMDAT ??__E?_Generic_object@?$_Error_objects@H@std@@2V_Generic_error_category@2@A@@YAXXZ
text$yc	SEGMENT
??__E?_Generic_object@?$_Error_objects@H@std@@2V_Generic_error_category@2@A@@YAXXZ PROC ; `dynamic initializer for 'std::_Error_objects<int>::_Generic_object'', COMDAT

; 627  : 		{	// estimate maximum array size

	push	ebp
	mov	ebp, esp
	mov	ecx, OFFSET ?_Generic_object@?$_Error_objects@H@std@@2V_Generic_error_category@2@A ; std::_Error_objects<int>::_Generic_object
	call	??0_Generic_error_category@std@@QAE@XZ	; std::_Generic_error_category::_Generic_error_category
	push	OFFSET ??__F?_Generic_object@?$_Error_objects@H@std@@2V_Generic_error_category@2@A@@YAXXZ ; `dynamic atexit destructor for 'std::_Error_objects<int>::_Generic_object''
	call	_atexit
	add	esp, 4
	pop	ebp
	ret	0
??__E?_Generic_object@?$_Error_objects@H@std@@2V_Generic_error_category@2@A@@YAXXZ ENDP ; `dynamic initializer for 'std::_Error_objects<int>::_Generic_object''
text$yc	ENDS
; Function compile flags: /Odtp
; File c:\program files (x86)\microsoft visual studio 11.0\vc\include\xmemory0
;	COMDAT ??$_Allocate@D@std@@YAPADIPAD@Z
_TEXT	SEGMENT
__Ptr$ = -4						; size = 4
__Count$ = 8						; size = 4
___formal$ = 12						; size = 4
??$_Allocate@D@std@@YAPADIPAD@Z PROC			; std::_Allocate<char>, COMDAT

; 22   : 	{	// allocate storage for _Count elements of type _Ty

	push	ebp
	mov	ebp, esp
	push	ecx

; 23   : 	void *_Ptr = 0;

	mov	DWORD PTR __Ptr$[ebp], 0

; 24   : 
; 25   : 	if (_Count == 0)

	cmp	DWORD PTR __Count$[ebp], 0
	jne	SHORT $LN4@Allocate

; 26   : 		;
; 27   : 	else if (((size_t)(-1) / sizeof (_Ty) < _Count)

	jmp	SHORT $LN3@Allocate
$LN4@Allocate:

; 28   : 		|| (_Ptr = ::operator new(_Count * sizeof (_Ty))) == 0)

	cmp	DWORD PTR __Count$[ebp], -1
	ja	SHORT $LN1@Allocate
	mov	eax, DWORD PTR __Count$[ebp]
	push	eax
	call	??2@YAPAXI@Z				; operator new
	add	esp, 4
	mov	DWORD PTR __Ptr$[ebp], eax
	cmp	DWORD PTR __Ptr$[ebp], 0
	jne	SHORT $LN3@Allocate
$LN1@Allocate:

; 29   : 		_Xbad_alloc();	// report no memory

	call	?_Xbad_alloc@std@@YAXXZ			; std::_Xbad_alloc
$LN3@Allocate:

; 30   : 
; 31   : 	return ((_Ty *)_Ptr);

	mov	eax, DWORD PTR __Ptr$[ebp]
$LN6@Allocate:

; 32   : 	}

	mov	esp, ebp
	pop	ebp
	ret	0
??$_Allocate@D@std@@YAPADIPAD@Z ENDP			; std::_Allocate<char>
_TEXT	ENDS
; Function compile flags: /Odtp
; File c:\program files (x86)\microsoft visual studio 11.0\vc\include\xmemory0
;	COMDAT ??$_Allocate@PAVTextureHandle@@@std@@YAPAPAVTextureHandle@@IPAPAV1@@Z
_TEXT	SEGMENT
__Ptr$ = -4						; size = 4
__Count$ = 8						; size = 4
___formal$ = 12						; size = 4
??$_Allocate@PAVTextureHandle@@@std@@YAPAPAVTextureHandle@@IPAPAV1@@Z PROC ; std::_Allocate<TextureHandle *>, COMDAT

; 22   : 	{	// allocate storage for _Count elements of type _Ty

	push	ebp
	mov	ebp, esp
	push	ecx

; 23   : 	void *_Ptr = 0;

	mov	DWORD PTR __Ptr$[ebp], 0

; 24   : 
; 25   : 	if (_Count == 0)

	cmp	DWORD PTR __Count$[ebp], 0
	jne	SHORT $LN4@Allocate

; 26   : 		;
; 27   : 	else if (((size_t)(-1) / sizeof (_Ty) < _Count)

	jmp	SHORT $LN3@Allocate
$LN4@Allocate:

; 28   : 		|| (_Ptr = ::operator new(_Count * sizeof (_Ty))) == 0)

	cmp	DWORD PTR __Count$[ebp], 1073741823	; 3fffffffH
	ja	SHORT $LN1@Allocate
	mov	eax, DWORD PTR __Count$[ebp]
	shl	eax, 2
	push	eax
	call	??2@YAPAXI@Z				; operator new
	add	esp, 4
	mov	DWORD PTR __Ptr$[ebp], eax
	cmp	DWORD PTR __Ptr$[ebp], 0
	jne	SHORT $LN3@Allocate
$LN1@Allocate:

; 29   : 		_Xbad_alloc();	// report no memory

	call	?_Xbad_alloc@std@@YAXXZ			; std::_Xbad_alloc
$LN3@Allocate:

; 30   : 
; 31   : 	return ((_Ty *)_Ptr);

	mov	eax, DWORD PTR __Ptr$[ebp]
$LN6@Allocate:

; 32   : 	}

	mov	esp, ebp
	pop	ebp
	ret	0
??$_Allocate@PAVTextureHandle@@@std@@YAPAPAVTextureHandle@@IPAPAV1@@Z ENDP ; std::_Allocate<TextureHandle *>
_TEXT	ENDS
; Function compile flags: /Odtp
; File c:\program files (x86)\microsoft visual studio 11.0\vc\include\xmemory0
;	COMDAT ??$_Destroy_range@U?$_Wrap_alloc@V?$allocator@PAVTextureHandle@@@std@@@std@@@std@@YAXPAPAVTextureHandle@@0AAU?$_Wrap_alloc@V?$allocator@PAVTextureHandle@@@std@@@0@@Z
_TEXT	SEGMENT
$T1 = -1						; size = 1
__First$ = 8						; size = 4
__Last$ = 12						; size = 4
__Al$ = 16						; size = 4
??$_Destroy_range@U?$_Wrap_alloc@V?$allocator@PAVTextureHandle@@@std@@@std@@@std@@YAXPAPAVTextureHandle@@0AAU?$_Wrap_alloc@V?$allocator@PAVTextureHandle@@@std@@@0@@Z PROC ; std::_Destroy_range<std::_Wrap_alloc<std::allocator<TextureHandle *> > >, COMDAT

; 79   : 	{	// destroy [_First, _Last)

	push	ebp
	mov	ebp, esp
	push	ecx

; 80   : 	_Destroy_range(_First, _Last, _Al, _Ptr_cat(_First, _Last));

	mov	eax, DWORD PTR __Last$[ebp]
	push	eax
	mov	ecx, DWORD PTR __First$[ebp]
	push	ecx
	call	??$_Ptr_cat@PAVTextureHandle@@PAV1@@std@@YA?AU_Scalar_ptr_iterator_tag@0@PAPAVTextureHandle@@0@Z ; std::_Ptr_cat<TextureHandle *,TextureHandle *>
	add	esp, 8
	mov	BYTE PTR $T1[ebp], al
	movzx	edx, BYTE PTR $T1[ebp]
	push	edx
	mov	eax, DWORD PTR __Al$[ebp]
	push	eax
	mov	ecx, DWORD PTR __Last$[ebp]
	push	ecx
	mov	edx, DWORD PTR __First$[ebp]
	push	edx
	call	??$_Destroy_range@U?$_Wrap_alloc@V?$allocator@PAVTextureHandle@@@std@@@std@@@std@@YAXPAPAVTextureHandle@@0AAU?$_Wrap_alloc@V?$allocator@PAVTextureHandle@@@std@@@0@U_Scalar_ptr_iterator_tag@0@@Z ; std::_Destroy_range<std::_Wrap_alloc<std::allocator<TextureHandle *> > >
	add	esp, 16					; 00000010H

; 81   : 	}

	mov	esp, ebp
	pop	ebp
	ret	0
??$_Destroy_range@U?$_Wrap_alloc@V?$allocator@PAVTextureHandle@@@std@@@std@@@std@@YAXPAPAVTextureHandle@@0AAU?$_Wrap_alloc@V?$allocator@PAVTextureHandle@@@std@@@0@@Z ENDP ; std::_Destroy_range<std::_Wrap_alloc<std::allocator<TextureHandle *> > >
_TEXT	ENDS
; Function compile flags: /Odtp
; File c:\program files (x86)\microsoft visual studio 11.0\vc\include\vector
;	COMDAT ??$_Umove@PAPAVTextureHandle@@@?$vector@PAVTextureHandle@@V?$allocator@PAVTextureHandle@@@std@@@std@@IAEPAPAVTextureHandle@@PAPAV2@00@Z
_TEXT	SEGMENT
_this$ = -8						; size = 4
__Alval$ = -1						; size = 1
__First$ = 8						; size = 4
__Last$ = 12						; size = 4
__Ptr$ = 16						; size = 4
??$_Umove@PAPAVTextureHandle@@@?$vector@PAVTextureHandle@@V?$allocator@PAVTextureHandle@@@std@@@std@@IAEPAPAVTextureHandle@@PAPAV2@00@Z PROC ; std::vector<TextureHandle *,std::allocator<TextureHandle *> >::_Umove<TextureHandle * *>, COMDAT
; _this$ = ecx

; 1557 : 		pointer _Umove(_Iter _First, _Iter _Last, pointer _Ptr)

	push	ebp
	mov	ebp, esp
	sub	esp, 8
	mov	DWORD PTR _this$[ebp], ecx

; 1558 : 		{	// move initializing [_First, _Last), using allocator
; 1559 : 		_Alty _Alval(this->_Getal());

	lea	eax, DWORD PTR __Alval$[ebp]
	push	eax
	mov	ecx, DWORD PTR _this$[ebp]
	call	?_Getal@?$_Vector_alloc@$0A@U?$_Vec_base_types@PAVTextureHandle@@V?$allocator@PAVTextureHandle@@@std@@@std@@@std@@QBE?AU?$_Wrap_alloc@V?$allocator@PAVTextureHandle@@@std@@@2@XZ ; std::_Vector_alloc<0,std::_Vec_base_types<TextureHandle *,std::allocator<TextureHandle *> > >::_Getal

; 1560 : 		return (_Uninitialized_move(_First, _Last,
; 1561 : 			_Ptr, _Alval));

	lea	ecx, DWORD PTR __Alval$[ebp]
	push	ecx
	mov	edx, DWORD PTR __Ptr$[ebp]
	push	edx
	mov	eax, DWORD PTR __Last$[ebp]
	push	eax
	mov	ecx, DWORD PTR __First$[ebp]
	push	ecx
	call	??$_Uninitialized_move@PAPAVTextureHandle@@PAPAV1@U?$_Wrap_alloc@V?$allocator@PAVTextureHandle@@@std@@@std@@@std@@YAPAPAVTextureHandle@@PAPAV1@00AAU?$_Wrap_alloc@V?$allocator@PAVTextureHandle@@@std@@@0@@Z ; std::_Uninitialized_move<TextureHandle * *,TextureHandle * *,std::_Wrap_alloc<std::allocator<TextureHandle *> > >
	add	esp, 16					; 00000010H

; 1562 : 		}

	mov	esp, ebp
	pop	ebp
	ret	12					; 0000000cH
??$_Umove@PAPAVTextureHandle@@@?$vector@PAVTextureHandle@@V?$allocator@PAVTextureHandle@@@std@@@std@@IAEPAPAVTextureHandle@@PAPAV2@00@Z ENDP ; std::vector<TextureHandle *,std::allocator<TextureHandle *> >::_Umove<TextureHandle * *>
_TEXT	ENDS
; Function compile flags: /Odtp
; File c:\program files (x86)\microsoft visual studio 11.0\vc\include\xstddef
;	COMDAT ??$addressof@D@std@@YAPADAAD@Z
_TEXT	SEGMENT
__Val$ = 8						; size = 4
??$addressof@D@std@@YAPADAAD@Z PROC			; std::addressof<char>, COMDAT

; 85   : 	{	// return address of _Val

	push	ebp
	mov	ebp, esp

; 86   : 	return (reinterpret_cast<_Ty *>(
; 87   : 		(&const_cast<char&>(
; 88   : 		reinterpret_cast<const volatile char&>(_Val)))));

	mov	eax, DWORD PTR __Val$[ebp]

; 89   : 	}

	pop	ebp
	ret	0
??$addressof@D@std@@YAPADAAD@Z ENDP			; std::addressof<char>
_TEXT	ENDS
; Function compile flags: /Odtp
; File c:\program files (x86)\microsoft visual studio 11.0\vc\include\xmemory0
;	COMDAT ??$destroy@PAD@?$_Wrap_alloc@V?$allocator@D@std@@@std@@QAEXPAPAD@Z
_TEXT	SEGMENT
_this$ = -4						; size = 4
__Ptr$ = 8						; size = 4
??$destroy@PAD@?$_Wrap_alloc@V?$allocator@D@std@@@std@@QAEXPAPAD@Z PROC ; std::_Wrap_alloc<std::allocator<char> >::destroy<char *>, COMDAT
; _this$ = ecx

; 907  : 		void destroy(_Ty *_Ptr)

	push	ebp
	mov	ebp, esp
	push	ecx
	mov	DWORD PTR _this$[ebp], ecx

; 908  : 		{	// destroy object at _Ptr
; 909  : 		_Mytraits::destroy(*this, _Ptr);

	mov	eax, DWORD PTR __Ptr$[ebp]
	push	eax
	mov	ecx, DWORD PTR _this$[ebp]
	push	ecx
	call	??$destroy@PAD@?$allocator_traits@V?$allocator@D@std@@@std@@SAXAAV?$allocator@D@1@PAPAD@Z ; std::allocator_traits<std::allocator<char> >::destroy<char *>
	add	esp, 8

; 910  : 		}

	mov	esp, ebp
	pop	ebp
	ret	4
??$destroy@PAD@?$_Wrap_alloc@V?$allocator@D@std@@@std@@QAEXPAPAD@Z ENDP ; std::_Wrap_alloc<std::allocator<char> >::destroy<char *>
_TEXT	ENDS
; Function compile flags: /Odtp
; File c:\program files (x86)\microsoft visual studio 11.0\vc\include\xmemory0
;	COMDAT ??$construct@PADAAPAD@?$_Wrap_alloc@V?$allocator@D@std@@@std@@QAEXPAPADAAPAD@Z
_TEXT	SEGMENT
_this$ = -4						; size = 4
__Ptr$ = 8						; size = 4
__V0$ = 12						; size = 4
??$construct@PADAAPAD@?$_Wrap_alloc@V?$allocator@D@std@@@std@@QAEXPAPADAAPAD@Z PROC ; std::_Wrap_alloc<std::allocator<char> >::construct<char *,char * &>, COMDAT
; _this$ = ecx

; 903  : _VARIADIC_EXPAND_0X(_WRAP_ALLOC_CONSTRUCT, , , , )

	push	ebp
	mov	ebp, esp
	push	ecx
	mov	DWORD PTR _this$[ebp], ecx
	mov	eax, DWORD PTR __V0$[ebp]
	push	eax
	call	??$forward@AAPAD@std@@YAAAPADAAPAD@Z	; std::forward<char * &>
	add	esp, 4
	push	eax
	mov	ecx, DWORD PTR __Ptr$[ebp]
	push	ecx
	mov	edx, DWORD PTR _this$[ebp]
	push	edx
	call	??$construct@PADAAPAD@?$allocator_traits@V?$allocator@D@std@@@std@@SAXAAV?$allocator@D@1@PAPADAAPAD@Z ; std::allocator_traits<std::allocator<char> >::construct<char *,char * &>
	add	esp, 12					; 0000000cH
	mov	esp, ebp
	pop	ebp
	ret	8
??$construct@PADAAPAD@?$_Wrap_alloc@V?$allocator@D@std@@@std@@QAEXPAPADAAPAD@Z ENDP ; std::_Wrap_alloc<std::allocator<char> >::construct<char *,char * &>
_TEXT	ENDS
; Function compile flags: /Odtp
; File c:\program files (x86)\microsoft visual studio 11.0\vc\include\xmemory0
;	COMDAT ??$construct@PAVTextureHandle@@ABQAV1@@?$_Wrap_alloc@V?$allocator@PAVTextureHandle@@@std@@@std@@QAEXPAPAVTextureHandle@@ABQAV2@@Z
_TEXT	SEGMENT
_this$ = -4						; size = 4
__Ptr$ = 8						; size = 4
__V0$ = 12						; size = 4
??$construct@PAVTextureHandle@@ABQAV1@@?$_Wrap_alloc@V?$allocator@PAVTextureHandle@@@std@@@std@@QAEXPAPAVTextureHandle@@ABQAV2@@Z PROC ; std::_Wrap_alloc<std::allocator<TextureHandle *> >::construct<TextureHandle *,TextureHandle * const &>, COMDAT
; _this$ = ecx

; 903  : _VARIADIC_EXPAND_0X(_WRAP_ALLOC_CONSTRUCT, , , , )

	push	ebp
	mov	ebp, esp
	push	ecx
	mov	DWORD PTR _this$[ebp], ecx
	mov	eax, DWORD PTR __V0$[ebp]
	push	eax
	call	??$forward@ABQAVTextureHandle@@@std@@YAABQAVTextureHandle@@ABQAV1@@Z ; std::forward<TextureHandle * const &>
	add	esp, 4
	push	eax
	mov	ecx, DWORD PTR __Ptr$[ebp]
	push	ecx
	mov	edx, DWORD PTR _this$[ebp]
	push	edx
	call	??$construct@PAVTextureHandle@@ABQAV1@@?$allocator_traits@V?$allocator@PAVTextureHandle@@@std@@@std@@SAXAAV?$allocator@PAVTextureHandle@@@1@PAPAVTextureHandle@@ABQAV3@@Z ; std::allocator_traits<std::allocator<TextureHandle *> >::construct<TextureHandle *,TextureHandle * const &>
	add	esp, 12					; 0000000cH
	mov	esp, ebp
	pop	ebp
	ret	8
??$construct@PAVTextureHandle@@ABQAV1@@?$_Wrap_alloc@V?$allocator@PAVTextureHandle@@@std@@@std@@QAEXPAPAVTextureHandle@@ABQAV2@@Z ENDP ; std::_Wrap_alloc<std::allocator<TextureHandle *> >::construct<TextureHandle *,TextureHandle * const &>
_TEXT	ENDS
; Function compile flags: /Odtp
; File c:\program files (x86)\microsoft visual studio 11.0\vc\include\xmemory0
;	COMDAT ??$construct@PAVTextureHandle@@AAPAV1@@?$_Wrap_alloc@V?$allocator@PAVTextureHandle@@@std@@@std@@QAEXPAPAVTextureHandle@@AAPAV2@@Z
_TEXT	SEGMENT
_this$ = -4						; size = 4
__Ptr$ = 8						; size = 4
__V0$ = 12						; size = 4
??$construct@PAVTextureHandle@@AAPAV1@@?$_Wrap_alloc@V?$allocator@PAVTextureHandle@@@std@@@std@@QAEXPAPAVTextureHandle@@AAPAV2@@Z PROC ; std::_Wrap_alloc<std::allocator<TextureHandle *> >::construct<TextureHandle *,TextureHandle * &>, COMDAT
; _this$ = ecx

; 903  : _VARIADIC_EXPAND_0X(_WRAP_ALLOC_CONSTRUCT, , , , )

	push	ebp
	mov	ebp, esp
	push	ecx
	mov	DWORD PTR _this$[ebp], ecx
	mov	eax, DWORD PTR __V0$[ebp]
	push	eax
	call	??$forward@AAPAVTextureHandle@@@std@@YAAAPAVTextureHandle@@AAPAV1@@Z ; std::forward<TextureHandle * &>
	add	esp, 4
	push	eax
	mov	ecx, DWORD PTR __Ptr$[ebp]
	push	ecx
	mov	edx, DWORD PTR _this$[ebp]
	push	edx
	call	??$construct@PAVTextureHandle@@AAPAV1@@?$allocator_traits@V?$allocator@PAVTextureHandle@@@std@@@std@@SAXAAV?$allocator@PAVTextureHandle@@@1@PAPAVTextureHandle@@AAPAV3@@Z ; std::allocator_traits<std::allocator<TextureHandle *> >::construct<TextureHandle *,TextureHandle * &>
	add	esp, 12					; 0000000cH
	mov	esp, ebp
	pop	ebp
	ret	8
??$construct@PAVTextureHandle@@AAPAV1@@?$_Wrap_alloc@V?$allocator@PAVTextureHandle@@@std@@@std@@QAEXPAPAVTextureHandle@@AAPAV2@@Z ENDP ; std::_Wrap_alloc<std::allocator<TextureHandle *> >::construct<TextureHandle *,TextureHandle * &>
_TEXT	ENDS
; Function compile flags: /Odtp
; File c:\program files (x86)\microsoft visual studio 11.0\vc\include\xstddef
;	COMDAT ??$addressof@QAVTextureHandle@@@std@@YAPBQAVTextureHandle@@ABQAV1@@Z
_TEXT	SEGMENT
__Val$ = 8						; size = 4
??$addressof@QAVTextureHandle@@@std@@YAPBQAVTextureHandle@@ABQAV1@@Z PROC ; std::addressof<TextureHandle * const>, COMDAT

; 85   : 	{	// return address of _Val

	push	ebp
	mov	ebp, esp

; 86   : 	return (reinterpret_cast<_Ty *>(
; 87   : 		(&const_cast<char&>(
; 88   : 		reinterpret_cast<const volatile char&>(_Val)))));

	mov	eax, DWORD PTR __Val$[ebp]

; 89   : 	}

	pop	ebp
	ret	0
??$addressof@QAVTextureHandle@@@std@@YAPBQAVTextureHandle@@ABQAV1@@Z ENDP ; std::addressof<TextureHandle * const>
_TEXT	ENDS
; Function compile flags: /Odtp
; File c:\users\zhitao li\documents\visual studio 2012\projects\freefalcon\sim\cockpit\cphsi.cpp
_TEXT	SEGMENT
_tempx$1 = -3660					; size = 4
_hw_rate$ = -3656					; size = 4
_angcos$ = -3652					; size = 4
_y1$2 = -3648						; size = 4
_angsin$ = -3644					; size = 4
_fMaxU$ = -3640						; size = 4
_fStartU$ = -3636					; size = 4
_fStartV$ = -3632					; size = 4
_x1$3 = -3628						; size = 4
_Radius$ = -3624					; size = 4
_fMaxV$ = -3620						; size = 4
_y$ = -3616						; size = 4
_x$ = -3612						; size = 4
_entry$ = -3608						; size = 4
_pVtx$ = -3604						; size = 3600
__$ArrayPad$ = -4					; size = 4
_srcrect$ = 8						; size = 4
_destrect$ = 12						; size = 4
_alpha$ = 16						; size = 4
_pTex$ = 20						; size = 4
_angle$ = 24						; size = 4
?RenderHSIPoly@@YAXPAUtagRECT@@0HPAVTextureHandle@@M@Z PROC ; RenderHSIPoly

; 689  : {

	push	ebp
	mov	ebp, esp
	sub	esp, 3660				; 00000e4cH
	mov	eax, DWORD PTR ___security_cookie
	xor	eax, ebp
	mov	DWORD PTR __$ArrayPad$[ebp], eax

; 690  : 	int entry;
; 691  : 
; 692  : 	const float angsin = sin(angle);

	push	ecx
	movss	xmm0, DWORD PTR _angle$[ebp]
	movss	DWORD PTR [esp], xmm0
	call	?sin@@YAMM@Z				; sin
	add	esp, 4
	fstp	DWORD PTR _angsin$[ebp]

; 693  : 	const float angcos = cos(angle);

	push	ecx
	movss	xmm0, DWORD PTR _angle$[ebp]
	movss	DWORD PTR [esp], xmm0
	call	?cos@@YAMM@Z				; cos
	add	esp, 4
	fstp	DWORD PTR _angcos$[ebp]

; 694  : 
; 695  : 	float x = destrect->left+((float)(destrect->right-destrect->left)/2.0f);

	mov	eax, DWORD PTR _destrect$[ebp]
	cvtsi2ss xmm0, DWORD PTR [eax]
	mov	ecx, DWORD PTR _destrect$[ebp]
	mov	edx, DWORD PTR _destrect$[ebp]
	mov	eax, DWORD PTR [ecx+8]
	sub	eax, DWORD PTR [edx]
	cvtsi2ss xmm1, eax
	divss	xmm1, DWORD PTR __real@40000000
	addss	xmm0, xmm1
	movss	DWORD PTR _x$[ebp], xmm0

; 696  : 	float y = destrect->top+((float)(destrect->bottom-destrect->top)/2.0f);

	mov	ecx, DWORD PTR _destrect$[ebp]
	cvtsi2ss xmm0, DWORD PTR [ecx+4]
	mov	edx, DWORD PTR _destrect$[ebp]
	mov	eax, DWORD PTR _destrect$[ebp]
	mov	ecx, DWORD PTR [edx+12]
	sub	ecx, DWORD PTR [eax+4]
	cvtsi2ss xmm1, ecx
	divss	xmm1, DWORD PTR __real@40000000
	addss	xmm0, xmm1
	movss	DWORD PTR _y$[ebp], xmm0

; 697  : 	float Radius = (float)(destrect->bottom-destrect->top)/2.0f;

	mov	edx, DWORD PTR _destrect$[ebp]
	mov	eax, DWORD PTR _destrect$[ebp]
	mov	ecx, DWORD PTR [edx+12]
	sub	ecx, DWORD PTR [eax+4]
	cvtsi2ss xmm0, ecx
	divss	xmm0, DWORD PTR __real@40000000
	movss	DWORD PTR _Radius$[ebp], xmm0

; 698  : 	float hw_rate= OTWDriver.pCockpitManager->mHScale/OTWDriver.pCockpitManager->mVScale;

	mov	edx, DWORD PTR ?OTWDriver@@3VOTWDriverClass@@A+33684
	mov	eax, DWORD PTR ?OTWDriver@@3VOTWDriverClass@@A+33684
	movss	xmm0, DWORD PTR [edx+248]
	divss	xmm0, DWORD PTR [eax+252]
	movss	DWORD PTR _hw_rate$[ebp], xmm0

; 699  : 
; 700  : 
; 701  : 	OTWDriver.renderer->CenterOriginInViewport();

	mov	ecx, DWORD PTR ?OTWDriver@@3VOTWDriverClass@@A+33576
	call	?CenterOriginInViewport@VirtualDisplay@@QAEXXZ ; VirtualDisplay::CenterOriginInViewport

; 702  : 	OTWDriver.renderer->SetViewport(-1.0F, 1.0F, 1.0F, -1.0F);		

	push	ecx
	movss	xmm0, DWORD PTR __real@bf800000
	movss	DWORD PTR [esp], xmm0
	push	ecx
	movss	xmm0, DWORD PTR __real@3f800000
	movss	DWORD PTR [esp], xmm0
	push	ecx
	movss	xmm0, DWORD PTR __real@3f800000
	movss	DWORD PTR [esp], xmm0
	push	ecx
	movss	xmm0, DWORD PTR __real@bf800000
	movss	DWORD PTR [esp], xmm0
	mov	ecx, DWORD PTR ?OTWDriver@@3VOTWDriverClass@@A+33576
	mov	edx, DWORD PTR [ecx]
	mov	ecx, DWORD PTR ?OTWDriver@@3VOTWDriverClass@@A+33576
	mov	eax, DWORD PTR [edx+112]
	call	eax

; 703  : 
; 704  : 	// Setup vertices
; 705  : 	float fStartU = 0;

	movss	xmm0, DWORD PTR __real@00000000
	movss	DWORD PTR _fStartU$[ebp], xmm0

; 706  : 	float fMaxU = (float) pTex->m_nWidth / (float) pTex->m_nActualWidth;

	mov	ecx, DWORD PTR _pTex$[ebp]
	cvtsi2ss xmm0, DWORD PTR [ecx+8]
	mov	edx, DWORD PTR _pTex$[ebp]
	cvtsi2ss xmm1, DWORD PTR [edx+16]
	divss	xmm0, xmm1
	movss	DWORD PTR _fMaxU$[ebp], xmm0

; 707  : 	fMaxU -= fStartU;

	movss	xmm0, DWORD PTR _fMaxU$[ebp]
	subss	xmm0, DWORD PTR _fStartU$[ebp]
	movss	DWORD PTR _fMaxU$[ebp], xmm0

; 708  : 	float fStartV = 0;

	movss	xmm0, DWORD PTR __real@00000000
	movss	DWORD PTR _fStartV$[ebp], xmm0

; 709  : 	float fMaxV = (float) pTex->m_nHeight / (float) pTex->m_nActualHeight;

	mov	eax, DWORD PTR _pTex$[ebp]
	cvtsi2ss xmm0, DWORD PTR [eax+12]
	mov	ecx, DWORD PTR _pTex$[ebp]
	cvtsi2ss xmm1, DWORD PTR [ecx+20]
	divss	xmm0, xmm1
	movss	DWORD PTR _fMaxV$[ebp], xmm0

; 710  : 	fMaxV -= fStartV;

	movss	xmm0, DWORD PTR _fMaxV$[ebp]
	subss	xmm0, DWORD PTR _fStartV$[ebp]
	movss	DWORD PTR _fMaxV$[ebp], xmm0

; 711  : 
; 712  : 
; 713  : 	TwoDVertex pVtx[90];	
; 714  : 	ZeroMemory(pVtx, sizeof(pVtx));

	push	3600					; 00000e10H
	push	0
	lea	edx, DWORD PTR _pVtx$[ebp]
	push	edx
	call	_memset
	add	esp, 12					; 0000000cH

; 715  : 	for (entry = 0; entry <= CircleSegments-2; entry++) {

	mov	DWORD PTR _entry$[ebp], 0
	jmp	SHORT $LN3@RenderHSIP
$LN2@RenderHSIP:
	mov	eax, DWORD PTR _entry$[ebp]
	add	eax, 1
	mov	DWORD PTR _entry$[ebp], eax
$LN3@RenderHSIP:
	cmp	DWORD PTR _entry$[ebp], 89		; 00000059H
	jg	$LN1@RenderHSIP

; 716  : 		float x1, y1;
; 717  : 		// Compute the end point of this next segment
; 718  : 		x1 = (x + Radius*CircleX[entry]);

	mov	ecx, DWORD PTR _entry$[ebp]
	movss	xmm0, DWORD PTR _Radius$[ebp]
	mulss	xmm0, DWORD PTR ?CircleX@@3PAMA[ecx*4]
	addss	xmm0, DWORD PTR _x$[ebp]
	movss	DWORD PTR _x1$3[ebp], xmm0

; 719  : 		y1 = (y + Radius*CircleY[entry]);

	mov	edx, DWORD PTR _entry$[ebp]
	movss	xmm0, DWORD PTR _Radius$[ebp]
	mulss	xmm0, DWORD PTR ?CircleY@@3PAMA[edx*4]
	addss	xmm0, DWORD PTR _y$[ebp]
	movss	DWORD PTR _y1$2[ebp], xmm0

; 720  : 
; 721  : 		// Draw the segment
; 722  : 		pVtx[entry].x = x1;

	mov	eax, DWORD PTR _entry$[ebp]
	imul	eax, 40					; 00000028H
	movss	xmm0, DWORD PTR _x1$3[ebp]
	movss	DWORD PTR _pVtx$[ebp+eax], xmm0

; 723  : 		pVtx[entry].y = y1;		

	mov	ecx, DWORD PTR _entry$[ebp]
	imul	ecx, 40					; 00000028H
	movss	xmm0, DWORD PTR _y1$2[ebp]
	movss	DWORD PTR _pVtx$[ebp+ecx+4], xmm0

; 724  : 
; 725  : 		float tempx = pVtx[entry].x;

	mov	edx, DWORD PTR _entry$[ebp]
	imul	edx, 40					; 00000028H
	movss	xmm0, DWORD PTR _pVtx$[ebp+edx]
	movss	DWORD PTR _tempx$1[ebp], xmm0

; 726  : 		pVtx[entry].x = x + ((angcos*(pVtx[entry].x-x)) + (-angsin*(pVtx[entry].y-y)))  * hw_rate;

	mov	eax, DWORD PTR _entry$[ebp]
	imul	eax, 40					; 00000028H
	movss	xmm0, DWORD PTR _pVtx$[ebp+eax]
	subss	xmm0, DWORD PTR _x$[ebp]
	mulss	xmm0, DWORD PTR _angcos$[ebp]
	movss	xmm1, DWORD PTR _angsin$[ebp]
	xorps	xmm1, DWORD PTR __xmm@80000000800000008000000080000000
	mov	ecx, DWORD PTR _entry$[ebp]
	imul	ecx, 40					; 00000028H
	movss	xmm2, DWORD PTR _pVtx$[ebp+ecx+4]
	subss	xmm2, DWORD PTR _y$[ebp]
	mulss	xmm1, xmm2
	addss	xmm0, xmm1
	mulss	xmm0, DWORD PTR _hw_rate$[ebp]
	addss	xmm0, DWORD PTR _x$[ebp]
	mov	edx, DWORD PTR _entry$[ebp]
	imul	edx, 40					; 00000028H
	movss	DWORD PTR _pVtx$[ebp+edx], xmm0

; 727  : 		pVtx[entry].y = y + (angsin*(tempx-x)) + (angcos*(pVtx[entry].y-y));				

	movss	xmm0, DWORD PTR _tempx$1[ebp]
	subss	xmm0, DWORD PTR _x$[ebp]
	mulss	xmm0, DWORD PTR _angsin$[ebp]
	addss	xmm0, DWORD PTR _y$[ebp]
	mov	eax, DWORD PTR _entry$[ebp]
	imul	eax, 40					; 00000028H
	movss	xmm1, DWORD PTR _pVtx$[ebp+eax+4]
	subss	xmm1, DWORD PTR _y$[ebp]
	mulss	xmm1, DWORD PTR _angcos$[ebp]
	addss	xmm0, xmm1
	mov	ecx, DWORD PTR _entry$[ebp]
	imul	ecx, 40					; 00000028H
	movss	DWORD PTR _pVtx$[ebp+ecx+4], xmm0

; 728  : 		x1 = (x + Radius*CircleX[entry] * hw_rate);

	mov	edx, DWORD PTR _entry$[ebp]
	movss	xmm0, DWORD PTR _Radius$[ebp]
	mulss	xmm0, DWORD PTR ?CircleX@@3PAMA[edx*4]
	mulss	xmm0, DWORD PTR _hw_rate$[ebp]
	addss	xmm0, DWORD PTR _x$[ebp]
	movss	DWORD PTR _x1$3[ebp], xmm0

; 729  : 		pVtx[entry].u = fStartU + 
; 730  : 			(((float)(x1-destrect->left)/(float)(destrect->right-destrect->left)) * (fMaxU-fStartU));

	mov	eax, DWORD PTR _destrect$[ebp]
	cvtsi2ss xmm0, DWORD PTR [eax]
	movss	xmm1, DWORD PTR _x1$3[ebp]
	subss	xmm1, xmm0
	mov	ecx, DWORD PTR _destrect$[ebp]
	mov	edx, DWORD PTR _destrect$[ebp]
	mov	eax, DWORD PTR [ecx+8]
	sub	eax, DWORD PTR [edx]
	cvtsi2ss xmm0, eax
	divss	xmm1, xmm0
	movss	xmm0, DWORD PTR _fMaxU$[ebp]
	subss	xmm0, DWORD PTR _fStartU$[ebp]
	mulss	xmm1, xmm0
	addss	xmm1, DWORD PTR _fStartU$[ebp]
	mov	ecx, DWORD PTR _entry$[ebp]
	imul	ecx, 40					; 00000028H
	movss	DWORD PTR _pVtx$[ebp+ecx+24], xmm1

; 731  : 		pVtx[entry].v = fStartV + 
; 732  : 			(((float)(y1-destrect->top)/(float)(destrect->bottom-destrect->top)) * (fMaxV-fStartV));

	mov	edx, DWORD PTR _destrect$[ebp]
	cvtsi2ss xmm0, DWORD PTR [edx+4]
	movss	xmm1, DWORD PTR _y1$2[ebp]
	subss	xmm1, xmm0
	mov	eax, DWORD PTR _destrect$[ebp]
	mov	ecx, DWORD PTR _destrect$[ebp]
	mov	edx, DWORD PTR [eax+12]
	sub	edx, DWORD PTR [ecx+4]
	cvtsi2ss xmm0, edx
	divss	xmm1, xmm0
	movss	xmm0, DWORD PTR _fMaxV$[ebp]
	subss	xmm0, DWORD PTR _fStartV$[ebp]
	mulss	xmm1, xmm0
	addss	xmm1, DWORD PTR _fStartV$[ebp]
	mov	eax, DWORD PTR _entry$[ebp]
	imul	eax, 40					; 00000028H
	movss	DWORD PTR _pVtx$[ebp+eax+28], xmm1

; 733  : 
; 734  : 		pVtx[entry].r = pVtx[entry].g = pVtx[entry].b = pVtx[entry].a = 1.0f;

	mov	ecx, DWORD PTR _entry$[ebp]
	imul	ecx, 40					; 00000028H
	movss	xmm0, DWORD PTR __real@3f800000
	movss	DWORD PTR _pVtx$[ebp+ecx+20], xmm0
	mov	edx, DWORD PTR _entry$[ebp]
	imul	edx, 40					; 00000028H
	movss	xmm0, DWORD PTR __real@3f800000
	movss	DWORD PTR _pVtx$[ebp+edx+16], xmm0
	mov	eax, DWORD PTR _entry$[ebp]
	imul	eax, 40					; 00000028H
	movss	xmm0, DWORD PTR __real@3f800000
	movss	DWORD PTR _pVtx$[ebp+eax+12], xmm0
	mov	ecx, DWORD PTR _entry$[ebp]
	imul	ecx, 40					; 00000028H
	movss	xmm0, DWORD PTR __real@3f800000
	movss	DWORD PTR _pVtx$[ebp+ecx+8], xmm0

; 735  : 	}

	jmp	$LN2@RenderHSIP
$LN1@RenderHSIP:

; 736  : 	OTWDriver.renderer->context.RestoreState(alpha);	

	mov	edx, DWORD PTR _alpha$[ebp]
	push	edx
	mov	ecx, DWORD PTR ?OTWDriver@@3VOTWDriverClass@@A+33576
	add	ecx, 100				; 00000064H
	call	?RestoreState@ContextMPR@@QAEXH@Z	; ContextMPR::RestoreState

; 737  : 	OTWDriver.renderer->context.SelectTexture1((GLint) pTex);

	mov	eax, DWORD PTR _pTex$[ebp]
	push	eax
	mov	ecx, DWORD PTR ?OTWDriver@@3VOTWDriverClass@@A+33576
	add	ecx, 100				; 00000064H
	call	?SelectTexture1@ContextMPR@@QAEXH@Z	; ContextMPR::SelectTexture1

; 738  : 	OTWDriver.renderer->context.DrawPrimitive(MPR_PRM_TRIFAN,MPR_VI_COLOR|MPR_VI_TEXTURE,90,pVtx,sizeof(pVtx[0]));

	push	40					; 00000028H
	lea	ecx, DWORD PTR _pVtx$[ebp]
	push	ecx
	push	90					; 0000005aH
	push	6
	push	6
	mov	ecx, DWORD PTR ?OTWDriver@@3VOTWDriverClass@@A+33576
	add	ecx, 100				; 00000064H
	call	?DrawPrimitive@ContextMPR@@QAEXHGGPAUMPRVtxTexClr_t@@G@Z ; ContextMPR::DrawPrimitive

; 739  : }

	mov	ecx, DWORD PTR __$ArrayPad$[ebp]
	xor	ecx, ebp
	call	@__security_check_cookie@4
	mov	esp, ebp
	pop	ebp
	ret	0
?RenderHSIPoly@@YAXPAUtagRECT@@0HPAVTextureHandle@@M@Z ENDP ; RenderHSIPoly
_TEXT	ENDS
; Function compile flags: /Odtp
; File c:\users\zhitao li\documents\visual studio 2012\projects\freefalcon\falclib\include\fakerand.h
;	COMDAT ?PRANDFloatPos@@YAMXZ
_TEXT	SEGMENT
tv72 = -8						; size = 4
_x$ = -4						; size = 4
?PRANDFloatPos@@YAMXZ PROC				; PRANDFloatPos, COMDAT

; 150  : {

	push	ebp
	mov	ebp, esp
	sub	esp, 8

; 151  : //	return NRANDPOS;
; 152  : 	float	x=	(float)(GenerateFastRandom()&0xffff);

	call	?GenerateFastRandom@@YAJXZ		; GenerateFastRandom
	and	eax, 65535				; 0000ffffH
	cvtsi2ss xmm0, eax
	movss	DWORD PTR _x$[ebp], xmm0

; 153  : 	return( x / 65535.0f);

	movss	xmm0, DWORD PTR _x$[ebp]
	divss	xmm0, DWORD PTR __real@477fff00
	movss	DWORD PTR tv72[ebp], xmm0
	fld	DWORD PTR tv72[ebp]

; 154  : }

	mov	esp, ebp
	pop	ebp
	ret	0
?PRANDFloatPos@@YAMXZ ENDP				; PRANDFloatPos
_TEXT	ENDS
; Function compile flags: /Odtp
; File c:\users\zhitao li\documents\visual studio 2012\projects\freefalcon\falclib\include\fakerand.h
;	COMDAT ?GenerateFastRandom@@YAJXZ
_TEXT	SEGMENT
_FastRandom$ = -4					; size = 4
?GenerateFastRandom@@YAJXZ PROC				; GenerateFastRandom, COMDAT

; 108  : {

	push	ebp
	mov	ebp, esp
	push	ecx

; 109  : 	static long LastRandom;
; 110  : 	long	FastRandom;														// The Random Variable
; 111  : 	_asm {	
; 112  : 			push	edx

	push	edx

; 113  : 			push	eax

	push	eax

; 114  : 			RDTSC

	rdtsc

; 115  : 			add	DWORD PTR FastRandom,edx

	add	DWORD PTR _FastRandom$[ebp], edx

; 116  : 			xor	DWORD PTR FastRandom,eax

	xor	DWORD PTR _FastRandom$[ebp], eax

; 117  : 			mov	eax, DWORD PTR LastRandom

	mov	eax, DWORD PTR ?LastRandom@?1??GenerateFastRandom@@YAJXZ@4JA ; `GenerateFastRandom'::`2'::LastRandom

; 118  : 			add	DWORD PTR FastRandom,eax

	add	DWORD PTR _FastRandom$[ebp], eax

; 119  : 			add	DWORD PTR LastRandom,edx

	add	DWORD PTR ?LastRandom@?1??GenerateFastRandom@@YAJXZ@4JA, edx ; `GenerateFastRandom'::`2'::LastRandom

; 120  : 			pop	eax

	pop	eax

; 121  : 			pop	edx

	pop	edx

; 122  : 	}
; 123  : 	return(FastRandom);

	mov	eax, DWORD PTR _FastRandom$[ebp]

; 124  : }

	mov	esp, ebp
	pop	ebp
	ret	0
?GenerateFastRandom@@YAJXZ ENDP				; GenerateFastRandom
_TEXT	ENDS
; Function compile flags: /Odtp
;	COMDAT ??_GCPHsiView@@UAEPAXI@Z
_TEXT	SEGMENT
_this$ = -4						; size = 4
___flags$ = 8						; size = 4
??_GCPHsiView@@UAEPAXI@Z PROC				; CPHsiView::`scalar deleting destructor', COMDAT
; _this$ = ecx
	push	ebp
	mov	ebp, esp
	push	ecx
	mov	DWORD PTR _this$[ebp], ecx
	mov	ecx, DWORD PTR _this$[ebp]
	call	??1CPHsiView@@UAE@XZ			; CPHsiView::~CPHsiView
	mov	eax, DWORD PTR ___flags$[ebp]
	and	eax, 1
	je	SHORT $LN1@scalar
	mov	ecx, DWORD PTR _this$[ebp]
	push	ecx
	call	??3@YAXPAX@Z				; operator delete
	add	esp, 4
$LN1@scalar:
	mov	eax, DWORD PTR _this$[ebp]
	mov	esp, ebp
	pop	ebp
	ret	4
??_GCPHsiView@@UAEPAXI@Z ENDP				; CPHsiView::`scalar deleting destructor'
_TEXT	ENDS
; Function compile flags: /Odtp
; File c:\users\zhitao li\documents\visual studio 2012\projects\freefalcon\sim\cockpit\cphsi.cpp
_TEXT	SEGMENT
tv137 = -32						; size = 4
$T2 = -28						; size = 4
$T3 = -24						; size = 4
$T4 = -20						; size = 4
_this$ = -16						; size = 4
__$EHRec$ = -12						; size = 12
??1CPHsiView@@UAE@XZ PROC				; CPHsiView::~CPHsiView
; _this$ = ecx

; 616  : CPHsiView::~CPHsiView(void) {

	push	ebp
	mov	ebp, esp
	push	-1
	push	__ehhandler$??1CPHsiView@@UAE@XZ
	mov	eax, DWORD PTR fs:0
	push	eax
	sub	esp, 20					; 00000014H
	mov	eax, DWORD PTR ___security_cookie
	xor	eax, ebp
	push	eax
	lea	eax, DWORD PTR __$EHRec$[ebp]
	mov	DWORD PTR fs:0, eax
	mov	DWORD PTR _this$[ebp], ecx
	mov	eax, DWORD PTR _this$[ebp]
	mov	DWORD PTR [eax], OFFSET ??_7CPHsiView@@6B@
	mov	DWORD PTR __$EHRec$[ebp+8], 0

; 617  : 
; 618  : 	delete mpCompassCircle;

	mov	ecx, DWORD PTR _this$[ebp]
	mov	edx, DWORD PTR [ecx+252]
	mov	DWORD PTR $T3[ebp], edx
	mov	eax, DWORD PTR $T3[ebp]
	push	eax
	call	??3@YAXPAX@Z				; operator delete
	add	esp, 4

; 619  : 
; 620  : 	//Wombat778 3-22-04 clean up buffers
; 621  : 	if (DisplayOptions.bRender2DCockpit){		

	movzx	ecx, BYTE PTR ?DisplayOptions@@3VDisplayOptionsClass@@A+17
	test	ecx, ecx
	je	SHORT $LN5@CPHsiView

; 622  : 		glReleaseMemory((char*) mpSourceBuffer);				

	mov	edx, DWORD PTR _this$[ebp]
	mov	eax, DWORD PTR [edx+356]
	push	eax
	call	?glReleaseMemory@@YAXPAX@Z		; glReleaseMemory
	add	esp, 4
	jmp	$LN9@CPHsiView
$LN5@CPHsiView:

; 623  : 	}
; 624  : 	//Wombat778 10-06-2003 Added following lines to destroy the temporary imagebuffer;
; 625  : 	//unnecessary if using rendered hsi
; 626  : 	else if (g_bCockpitAutoScale && ((mVScale!=1.0f) || (mHScale!=1.0f))) 

	movzx	ecx, BYTE PTR ?g_bCockpitAutoScale@@3_NA ; g_bCockpitAutoScale
	test	ecx, ecx
	je	SHORT $LN9@CPHsiView
	mov	edx, DWORD PTR _this$[ebp]
	movss	xmm0, DWORD PTR [edx+20]
	ucomiss	xmm0, DWORD PTR __real@3f800000
	lahf
	test	ah, 68					; 00000044H
	jp	SHORT $LN2@CPHsiView
	mov	eax, DWORD PTR _this$[ebp]
	movss	xmm0, DWORD PTR [eax+16]
	ucomiss	xmm0, DWORD PTR __real@3f800000
	lahf
	test	ah, 68					; 00000044H
	jnp	SHORT $LN9@CPHsiView
$LN2@CPHsiView:

; 627  : 	{
; 628  : 		if (CompassBuffer) {

	mov	ecx, DWORD PTR _this$[ebp]
	cmp	DWORD PTR [ecx+272], 0
	je	SHORT $LN9@CPHsiView

; 629  : 			CompassBuffer->Cleanup();

	mov	edx, DWORD PTR _this$[ebp]
	mov	ecx, DWORD PTR [edx+272]
	call	?Cleanup@ImageBuffer@@QAEXXZ		; ImageBuffer::Cleanup

; 630  : 			delete CompassBuffer;

	mov	eax, DWORD PTR _this$[ebp]
	mov	ecx, DWORD PTR [eax+272]
	mov	DWORD PTR $T2[ebp], ecx
	mov	edx, DWORD PTR $T2[ebp]
	mov	DWORD PTR $T4[ebp], edx
	cmp	DWORD PTR $T4[ebp], 0
	je	SHORT $LN8@CPHsiView
	push	1
	mov	eax, DWORD PTR $T4[ebp]
	mov	edx, DWORD PTR [eax]
	mov	ecx, DWORD PTR $T4[ebp]
	mov	eax, DWORD PTR [edx]
	call	eax
	mov	DWORD PTR tv137[ebp], eax
	jmp	SHORT $LN9@CPHsiView
$LN8@CPHsiView:
	mov	DWORD PTR tv137[ebp], 0
$LN9@CPHsiView:

; 631  : 		}
; 632  : 	}
; 633  : 	//Wombat778 10-06-2003 End of added code
; 634  : }

	mov	DWORD PTR __$EHRec$[ebp+8], -1
	mov	ecx, DWORD PTR _this$[ebp]
	call	??1CPObject@@UAE@XZ			; CPObject::~CPObject
	mov	ecx, DWORD PTR __$EHRec$[ebp]
	mov	DWORD PTR fs:0, ecx
	pop	ecx
	mov	esp, ebp
	pop	ebp
	ret	0
_TEXT	ENDS
text$x	SEGMENT
__unwindfunclet$??1CPHsiView@@UAE@XZ$0:
	mov	ecx, DWORD PTR _this$[ebp]
	jmp	??1CPObject@@UAE@XZ			; CPObject::~CPObject
__ehhandler$??1CPHsiView@@UAE@XZ:
	mov	edx, DWORD PTR [esp+8]
	lea	eax, DWORD PTR [edx+12]
	mov	ecx, DWORD PTR [edx-24]
	xor	ecx, eax
	call	@__security_check_cookie@4
	mov	eax, OFFSET __ehfuncinfo$??1CPHsiView@@UAE@XZ
	jmp	___CxxFrameHandler3
text$x	ENDS
??1CPHsiView@@UAE@XZ ENDP				; CPHsiView::~CPHsiView
; Function compile flags: /Odtp
; File c:\users\zhitao li\documents\visual studio 2012\projects\freefalcon\sim\cockpit\cphsi.cpp
_TEXT	SEGMENT
$T2 = -68						; size = 4
_radiusSquared$ = -64					; size = 4
_halfArraySize$ = -60					; size = 4
$T3 = -56						; size = 4
tv443 = -52						; size = 4
$T4 = -48						; size = 4
_x$ = -44						; size = 4
_y$ = -40						; size = 4
_arraySize$ = -36					; size = 4
tv315 = -32						; size = 4
_halfWidth$ = -28					; size = 4
_halfHeight$ = -24					; size = 4
_i$ = -20						; size = 4
_this$ = -16						; size = 4
__$EHRec$ = -12						; size = 12
_pobjectInitStr$ = 8					; size = 4
_phsiInitStr$ = 12					; size = 4
??0CPHsiView@@QAE@PAUObjectInitStr@@PAUHsiInitStr@@@Z PROC ; CPHsiView::CPHsiView
; _this$ = ecx

; 519  : CPHsiView::CPHsiView(ObjectInitStr *pobjectInitStr, HsiInitStr *phsiInitStr) : CPObject(pobjectInitStr) {

	push	ebp
	mov	ebp, esp
	push	-1
	push	__ehhandler$??0CPHsiView@@QAE@PAUObjectInitStr@@PAUHsiInitStr@@@Z
	mov	eax, DWORD PTR fs:0
	push	eax
	sub	esp, 56					; 00000038H
	push	esi
	mov	eax, DWORD PTR ___security_cookie
	xor	eax, ebp
	push	eax
	lea	eax, DWORD PTR __$EHRec$[ebp]
	mov	DWORD PTR fs:0, eax
	mov	DWORD PTR _this$[ebp], ecx
	mov	eax, DWORD PTR _pobjectInitStr$[ebp]
	push	eax
	mov	ecx, DWORD PTR _this$[ebp]
	call	??0CPObject@@QAE@PBUObjectInitStr@@@Z	; CPObject::CPObject
	mov	DWORD PTR __$EHRec$[ebp+8], 0
	mov	ecx, DWORD PTR _this$[ebp]
	mov	DWORD PTR [ecx], OFFSET ??_7CPHsiView@@6B@

; 520  : 
; 521  : 	int	radiusSquared;
; 522  : 	int	arraySize, halfArraySize;
; 523  : 	int	i;
; 524  : 	float	x, y;
; 525  : 	int	halfHeight;
; 526  : 	int	halfWidth;
; 527  : 
; 528  : 	mWarnFlag.top					= (long)(phsiInitStr->warnFlag.top * mVScale);

	mov	edx, DWORD PTR _phsiInitStr$[ebp]
	cvtsi2ss xmm0, DWORD PTR [edx+72]
	mov	eax, DWORD PTR _this$[ebp]
	mulss	xmm0, DWORD PTR [eax+20]
	cvttss2si ecx, xmm0
	mov	edx, DWORD PTR _this$[ebp]
	mov	DWORD PTR [edx+236], ecx

; 529  : 	mWarnFlag.left					= (long)(phsiInitStr->warnFlag.left * mHScale);

	mov	eax, DWORD PTR _phsiInitStr$[ebp]
	cvtsi2ss xmm0, DWORD PTR [eax+68]
	mov	ecx, DWORD PTR _this$[ebp]
	mulss	xmm0, DWORD PTR [ecx+16]
	cvttss2si edx, xmm0
	mov	eax, DWORD PTR _this$[ebp]
	mov	DWORD PTR [eax+232], edx

; 530  : 	mWarnFlag.bottom				= (long)(phsiInitStr->warnFlag.bottom * mVScale);

	mov	ecx, DWORD PTR _phsiInitStr$[ebp]
	cvtsi2ss xmm0, DWORD PTR [ecx+80]
	mov	edx, DWORD PTR _this$[ebp]
	mulss	xmm0, DWORD PTR [edx+20]
	cvttss2si eax, xmm0
	mov	ecx, DWORD PTR _this$[ebp]
	mov	DWORD PTR [ecx+244], eax

; 531  : 	mWarnFlag.right					= (long)(phsiInitStr->warnFlag.right * mHScale);

	mov	edx, DWORD PTR _phsiInitStr$[ebp]
	cvtsi2ss xmm0, DWORD PTR [edx+76]
	mov	eax, DWORD PTR _this$[ebp]
	mulss	xmm0, DWORD PTR [eax+16]
	cvttss2si ecx, xmm0
	mov	edx, DWORD PTR _this$[ebp]
	mov	DWORD PTR [edx+240], ecx

; 532  : 
; 533  : 	mpHsi								= phsiInitStr->pHsi;

	mov	eax, DWORD PTR _this$[ebp]
	mov	ecx, DWORD PTR _phsiInitStr$[ebp]
	mov	edx, DWORD PTR [ecx+84]
	mov	DWORD PTR [eax+144], edx

; 534  : 
; 535  : 	mCompassTransparencyType	= phsiInitStr->compassTransparencyType;

	mov	eax, DWORD PTR _this$[ebp]
	mov	ecx, DWORD PTR _phsiInitStr$[ebp]
	mov	edx, DWORD PTR [ecx]
	mov	DWORD PTR [eax+248], edx

; 536  : 
; 537  : 	mCompassSrc						= phsiInitStr->compassSrc;

	mov	eax, DWORD PTR _phsiInitStr$[ebp]
	add	eax, 4
	mov	ecx, DWORD PTR _this$[ebp]
	add	ecx, 200				; 000000c8H
	mov	edx, DWORD PTR [eax]
	mov	DWORD PTR [ecx], edx
	mov	edx, DWORD PTR [eax+4]
	mov	DWORD PTR [ecx+4], edx
	mov	edx, DWORD PTR [eax+8]
	mov	DWORD PTR [ecx+8], edx
	mov	eax, DWORD PTR [eax+12]
	mov	DWORD PTR [ecx+12], eax

; 538  : 
; 539  : 	mCompassDest					= phsiInitStr->compassDest;

	mov	ecx, DWORD PTR _phsiInitStr$[ebp]
	add	ecx, 20					; 00000014H
	mov	edx, DWORD PTR _this$[ebp]
	add	edx, 216				; 000000d8H
	mov	eax, DWORD PTR [ecx]
	mov	DWORD PTR [edx], eax
	mov	eax, DWORD PTR [ecx+4]
	mov	DWORD PTR [edx+4], eax
	mov	eax, DWORD PTR [ecx+8]
	mov	DWORD PTR [edx+8], eax
	mov	ecx, DWORD PTR [ecx+12]
	mov	DWORD PTR [edx+12], ecx

; 540  : 	mCompassDest.top				= (long)(mCompassDest.top * mVScale);

	mov	edx, DWORD PTR _this$[ebp]
	cvtsi2ss xmm0, DWORD PTR [edx+220]
	mov	eax, DWORD PTR _this$[ebp]
	mulss	xmm0, DWORD PTR [eax+20]
	cvttss2si ecx, xmm0
	mov	edx, DWORD PTR _this$[ebp]
	mov	DWORD PTR [edx+220], ecx

; 541  : 	mCompassDest.left				= (long)(mCompassDest.left * mHScale);

	mov	eax, DWORD PTR _this$[ebp]
	cvtsi2ss xmm0, DWORD PTR [eax+216]
	mov	ecx, DWORD PTR _this$[ebp]
	mulss	xmm0, DWORD PTR [ecx+16]
	cvttss2si edx, xmm0
	mov	eax, DWORD PTR _this$[ebp]
	mov	DWORD PTR [eax+216], edx

; 542  : 	mCompassDest.bottom				= (long)(mCompassDest.bottom * mVScale);

	mov	ecx, DWORD PTR _this$[ebp]
	cvtsi2ss xmm0, DWORD PTR [ecx+228]
	mov	edx, DWORD PTR _this$[ebp]
	mulss	xmm0, DWORD PTR [edx+20]
	cvttss2si eax, xmm0
	mov	ecx, DWORD PTR _this$[ebp]
	mov	DWORD PTR [ecx+228], eax

; 543  : 	mCompassDest.right				= (long)(mCompassDest.right * mHScale);

	mov	edx, DWORD PTR _this$[ebp]
	cvtsi2ss xmm0, DWORD PTR [edx+224]
	mov	eax, DWORD PTR _this$[ebp]
	mulss	xmm0, DWORD PTR [eax+16]
	cvttss2si ecx, xmm0
	mov	edx, DWORD PTR _this$[ebp]
	mov	DWORD PTR [edx+224], ecx

; 544  : 
; 545  : 	mDevSrc							= phsiInitStr->devSrc;

	mov	eax, DWORD PTR _phsiInitStr$[ebp]
	add	eax, 36					; 00000024H
	mov	ecx, DWORD PTR _this$[ebp]
	add	ecx, 168				; 000000a8H
	mov	edx, DWORD PTR [eax]
	mov	DWORD PTR [ecx], edx
	mov	edx, DWORD PTR [eax+4]
	mov	DWORD PTR [ecx+4], edx
	mov	edx, DWORD PTR [eax+8]
	mov	DWORD PTR [ecx+8], edx
	mov	eax, DWORD PTR [eax+12]
	mov	DWORD PTR [ecx+12], eax

; 546  : 
; 547  : 	mDevDest							= phsiInitStr->devDest;

	mov	ecx, DWORD PTR _phsiInitStr$[ebp]
	add	ecx, 52					; 00000034H
	mov	edx, DWORD PTR _this$[ebp]
	add	edx, 184				; 000000b8H
	mov	eax, DWORD PTR [ecx]
	mov	DWORD PTR [edx], eax
	mov	eax, DWORD PTR [ecx+4]
	mov	DWORD PTR [edx+4], eax
	mov	eax, DWORD PTR [ecx+8]
	mov	DWORD PTR [edx+8], eax
	mov	ecx, DWORD PTR [ecx+12]
	mov	DWORD PTR [edx+12], ecx

; 548  : 	mDevDest.top					= (long)(mDevDest.top * mVScale);

	mov	edx, DWORD PTR _this$[ebp]
	cvtsi2ss xmm0, DWORD PTR [edx+188]
	mov	eax, DWORD PTR _this$[ebp]
	mulss	xmm0, DWORD PTR [eax+20]
	cvttss2si ecx, xmm0
	mov	edx, DWORD PTR _this$[ebp]
	mov	DWORD PTR [edx+188], ecx

; 549  : 	mDevDest.left					= (long)(mDevDest.left * mHScale);

	mov	eax, DWORD PTR _this$[ebp]
	cvtsi2ss xmm0, DWORD PTR [eax+184]
	mov	ecx, DWORD PTR _this$[ebp]
	mulss	xmm0, DWORD PTR [ecx+16]
	cvttss2si edx, xmm0
	mov	eax, DWORD PTR _this$[ebp]
	mov	DWORD PTR [eax+184], edx

; 550  : 	mDevDest.bottom					= (long)(mDevDest.bottom * mVScale);

	mov	ecx, DWORD PTR _this$[ebp]
	cvtsi2ss xmm0, DWORD PTR [ecx+196]
	mov	edx, DWORD PTR _this$[ebp]
	mulss	xmm0, DWORD PTR [edx+20]
	cvttss2si eax, xmm0
	mov	ecx, DWORD PTR _this$[ebp]
	mov	DWORD PTR [ecx+196], eax

; 551  : 	mDevDest.right					= (long)(mDevDest.right * mHScale);

	mov	edx, DWORD PTR _this$[ebp]
	cvtsi2ss xmm0, DWORD PTR [edx+192]
	mov	eax, DWORD PTR _this$[ebp]
	mulss	xmm0, DWORD PTR [eax+16]
	cvttss2si ecx, xmm0
	mov	edx, DWORD PTR _this$[ebp]
	mov	DWORD PTR [edx+192], ecx

; 552  : 
; 553  : 	mCompassWidth					= mCompassSrc.right - mCompassSrc.left;

	mov	eax, DWORD PTR _this$[ebp]
	mov	ecx, DWORD PTR _this$[ebp]
	mov	edx, DWORD PTR [eax+208]
	sub	edx, DWORD PTR [ecx+200]
	mov	eax, DWORD PTR _this$[ebp]
	mov	DWORD PTR [eax+264], edx

; 554  : 	mCompassHeight					= mCompassSrc.bottom - mCompassSrc.top;

	mov	ecx, DWORD PTR _this$[ebp]
	mov	edx, DWORD PTR _this$[ebp]
	mov	eax, DWORD PTR [ecx+212]
	sub	eax, DWORD PTR [edx+204]
	mov	ecx, DWORD PTR _this$[ebp]
	mov	DWORD PTR [ecx+268], eax

; 555  : 
; 556  : 	//	mCompassWidth					= mCompassDest.right - mCompassDest.left;
; 557  : 	//	mCompassHeight					= mCompassDest.bottom - mCompassDest.top;
; 558  : 
; 559  : 	mCompassXCenter				= mCompassDest.left + mCompassWidth / 2;

	mov	edx, DWORD PTR _this$[ebp]
	mov	eax, DWORD PTR [edx+264]
	cdq
	sub	eax, edx
	sar	eax, 1
	mov	ecx, DWORD PTR _this$[ebp]
	add	eax, DWORD PTR [ecx+216]
	mov	edx, DWORD PTR _this$[ebp]
	mov	DWORD PTR [edx+256], eax

; 560  : 	mCompassYCenter				= mCompassDest.top + mCompassHeight / 2;

	mov	eax, DWORD PTR _this$[ebp]
	mov	eax, DWORD PTR [eax+268]
	cdq
	sub	eax, edx
	sar	eax, 1
	mov	ecx, DWORD PTR _this$[ebp]
	add	eax, DWORD PTR [ecx+220]
	mov	edx, DWORD PTR _this$[ebp]
	mov	DWORD PTR [edx+260], eax

; 561  : 
; 562  : 	// Setup the compass circle limits
; 563  : 	mRadius							= max(mCompassWidth, mCompassHeight);

	mov	eax, DWORD PTR _this$[ebp]
	mov	ecx, DWORD PTR _this$[ebp]
	mov	edx, DWORD PTR [eax+264]
	cmp	edx, DWORD PTR [ecx+268]
	jle	SHORT $LN13@CPHsiView
	mov	eax, DWORD PTR _this$[ebp]
	mov	ecx, DWORD PTR [eax+264]
	mov	DWORD PTR tv315[ebp], ecx
	jmp	SHORT $LN14@CPHsiView
$LN13@CPHsiView:
	mov	edx, DWORD PTR _this$[ebp]
	mov	eax, DWORD PTR [edx+268]
	mov	DWORD PTR tv315[ebp], eax
$LN14@CPHsiView:
	mov	ecx, DWORD PTR _this$[ebp]
	mov	edx, DWORD PTR tv315[ebp]
	mov	DWORD PTR [ecx+164], edx

; 564  : 	mRadius							= (mRadius + 1)/ 2;

	mov	eax, DWORD PTR _this$[ebp]
	mov	eax, DWORD PTR [eax+164]
	add	eax, 1
	cdq
	sub	eax, edx
	sar	eax, 1
	mov	ecx, DWORD PTR _this$[ebp]
	mov	DWORD PTR [ecx+164], eax

; 565  : 	arraySize						= mRadius * 4;

	mov	edx, DWORD PTR _this$[ebp]
	mov	eax, DWORD PTR [edx+164]
	shl	eax, 2
	mov	DWORD PTR _arraySize$[ebp], eax

; 566  : 
; 567  : #ifdef USE_SH_POOLS
; 568  : 	mpCompassCircle = (int *)MemAllocPtr(gCockMemPool,sizeof(int)*arraySize,FALSE);
; 569  : #else
; 570  : 	mpCompassCircle				= new int[arraySize];

	xor	ecx, ecx
	mov	eax, DWORD PTR _arraySize$[ebp]
	mov	edx, 4
	mul	edx
	seto	cl
	neg	ecx
	or	ecx, eax
	push	ecx
	call	??_U@YAPAXI@Z				; operator new[]
	add	esp, 4
	mov	DWORD PTR $T3[ebp], eax
	mov	eax, DWORD PTR _this$[ebp]
	mov	ecx, DWORD PTR $T3[ebp]
	mov	DWORD PTR [eax+252], ecx

; 571  : #endif
; 572  : 
; 573  : 	radiusSquared					= mRadius * mRadius;

	mov	edx, DWORD PTR _this$[ebp]
	mov	eax, DWORD PTR _this$[ebp]
	mov	ecx, DWORD PTR [edx+164]
	imul	ecx, DWORD PTR [eax+164]
	mov	DWORD PTR _radiusSquared$[ebp], ecx

; 574  : 
; 575  : 	halfArraySize					= arraySize / 2;

	mov	eax, DWORD PTR _arraySize$[ebp]
	cdq
	sub	eax, edx
	sar	eax, 1
	mov	DWORD PTR _halfArraySize$[ebp], eax

; 576  : 	for(i = 0; i < halfArraySize; i++) {

	mov	DWORD PTR _i$[ebp], 0
	jmp	SHORT $LN10@CPHsiView
$LN9@CPHsiView:
	mov	edx, DWORD PTR _i$[ebp]
	add	edx, 1
	mov	DWORD PTR _i$[ebp], edx
$LN10@CPHsiView:
	mov	eax, DWORD PTR _i$[ebp]
	cmp	eax, DWORD PTR _halfArraySize$[ebp]
	jge	$LN8@CPHsiView

; 577  : 
; 578  : 		y								= (float)fabs((float)i - mRadius);

	cvtsi2ss xmm0, DWORD PTR _i$[ebp]
	mov	ecx, DWORD PTR _this$[ebp]
	cvtsi2ss xmm1, DWORD PTR [ecx+164]
	subss	xmm0, xmm1
	push	ecx
	movss	DWORD PTR [esp], xmm0
	call	?fabs@@YAMM@Z				; fabs
	add	esp, 4
	fstp	DWORD PTR _y$[ebp]

; 579  : 		x								= (float)sqrt(radiusSquared - y * y );

	cvtsi2ss xmm0, DWORD PTR _radiusSquared$[ebp]
	movss	xmm1, DWORD PTR _y$[ebp]
	mulss	xmm1, DWORD PTR _y$[ebp]
	subss	xmm0, xmm1
	push	ecx
	movss	DWORD PTR [esp], xmm0
	call	?SqrtSSE@@YAMM@Z			; SqrtSSE
	add	esp, 4
	fstp	DWORD PTR _x$[ebp]

; 580  : 		mpCompassCircle[i * 2 + 1]	= mRadius + (int)x; //right

	cvttss2si edx, DWORD PTR _x$[ebp]
	mov	eax, DWORD PTR _this$[ebp]
	add	edx, DWORD PTR [eax+164]
	mov	ecx, DWORD PTR _i$[ebp]
	shl	ecx, 1
	mov	eax, DWORD PTR _this$[ebp]
	mov	eax, DWORD PTR [eax+252]
	mov	DWORD PTR [eax+ecx*4+4], edx

; 581  : 		mpCompassCircle[i * 2 + 0]	= mRadius - (int)x; //left

	cvttss2si ecx, DWORD PTR _x$[ebp]
	mov	edx, DWORD PTR _this$[ebp]
	mov	eax, DWORD PTR [edx+164]
	sub	eax, ecx
	mov	ecx, DWORD PTR _i$[ebp]
	shl	ecx, 1
	mov	edx, DWORD PTR _this$[ebp]
	mov	edx, DWORD PTR [edx+252]
	mov	DWORD PTR [edx+ecx*4], eax

; 582  : 	}

	jmp	$LN9@CPHsiView
$LN8@CPHsiView:

; 583  : 
; 584  : 	halfHeight						= DisplayOptions.DispHeight / 2;

	movzx	eax, WORD PTR ?DisplayOptions@@3VDisplayOptionsClass@@A+2
	cdq
	sub	eax, edx
	sar	eax, 1
	mov	DWORD PTR _halfHeight$[ebp], eax

; 585  : 	halfWidth						= DisplayOptions.DispWidth / 2;

	movzx	eax, WORD PTR ?DisplayOptions@@3VDisplayOptionsClass@@A
	cdq
	sub	eax, edx
	sar	eax, 1
	mov	DWORD PTR _halfWidth$[ebp], eax

; 586  : 	mTop								=	(float) (halfHeight - mDevDest.top) / halfHeight;

	mov	eax, DWORD PTR _this$[ebp]
	mov	ecx, DWORD PTR _halfHeight$[ebp]
	sub	ecx, DWORD PTR [eax+188]
	cvtsi2ss xmm0, ecx
	cvtsi2ss xmm1, DWORD PTR _halfHeight$[ebp]
	divss	xmm0, xmm1
	mov	edx, DWORD PTR _this$[ebp]
	movss	DWORD PTR [edx+148], xmm0

; 587  : 	mLeft								=	(float) (mDevDest.left - halfWidth) / halfWidth;

	mov	eax, DWORD PTR _this$[ebp]
	mov	ecx, DWORD PTR [eax+184]
	sub	ecx, DWORD PTR _halfWidth$[ebp]
	cvtsi2ss xmm0, ecx
	cvtsi2ss xmm1, DWORD PTR _halfWidth$[ebp]
	divss	xmm0, xmm1
	mov	edx, DWORD PTR _this$[ebp]
	movss	DWORD PTR [edx+152], xmm0

; 588  : 	mBottom							=	(float) (halfHeight - mDevDest.bottom ) / halfHeight;

	mov	eax, DWORD PTR _this$[ebp]
	mov	ecx, DWORD PTR _halfHeight$[ebp]
	sub	ecx, DWORD PTR [eax+196]
	cvtsi2ss xmm0, ecx
	cvtsi2ss xmm1, DWORD PTR _halfHeight$[ebp]
	divss	xmm0, xmm1
	mov	edx, DWORD PTR _this$[ebp]
	movss	DWORD PTR [edx+156], xmm0

; 589  : 	mRight							=	(float) (mDevDest.right - halfWidth) / halfWidth;

	mov	eax, DWORD PTR _this$[ebp]
	mov	ecx, DWORD PTR [eax+192]
	sub	ecx, DWORD PTR _halfWidth$[ebp]
	cvtsi2ss xmm0, ecx
	cvtsi2ss xmm1, DWORD PTR _halfWidth$[ebp]
	divss	xmm0, xmm1
	mov	edx, DWORD PTR _this$[ebp]
	movss	DWORD PTR [edx+160], xmm0

; 590  : 
; 591  : 	for (i = 0; i < HSI_COLOR_TOTAL; i++) {

	mov	DWORD PTR _i$[ebp], 0
	jmp	SHORT $LN7@CPHsiView
$LN6@CPHsiView:
	mov	eax, DWORD PTR _i$[ebp]
	add	eax, 1
	mov	DWORD PTR _i$[ebp], eax
$LN7@CPHsiView:
	cmp	DWORD PTR _i$[ebp], 10			; 0000000aH
	jge	SHORT $LN5@CPHsiView

; 592  : 		mColor[0][i] = phsiInitStr->colors[i];

	mov	ecx, 40					; 00000028H
	imul	ecx, 0
	mov	edx, DWORD PTR _this$[ebp]
	lea	eax, DWORD PTR [edx+ecx+276]
	mov	ecx, DWORD PTR _i$[ebp]
	mov	edx, DWORD PTR _i$[ebp]
	mov	esi, DWORD PTR _phsiInitStr$[ebp]
	mov	edx, DWORD PTR [esi+edx*4+88]
	mov	DWORD PTR [eax+ecx*4], edx

; 593  : 		mColor[1][i] = CalculateNVGColor(mColor[0][i]);

	mov	eax, 40					; 00000028H
	imul	eax, 0
	mov	ecx, DWORD PTR _this$[ebp]
	lea	edx, DWORD PTR [ecx+eax+276]
	mov	eax, DWORD PTR _i$[ebp]
	mov	ecx, DWORD PTR [edx+eax*4]
	push	ecx
	call	?CalculateNVGColor@@YAKK@Z		; CalculateNVGColor
	add	esp, 4
	mov	edx, 40					; 00000028H
	shl	edx, 0
	mov	ecx, DWORD PTR _this$[ebp]
	lea	edx, DWORD PTR [ecx+edx+276]
	mov	ecx, DWORD PTR _i$[ebp]
	mov	DWORD PTR [edx+ecx*4], eax

; 594  : 	}

	jmp	SHORT $LN6@CPHsiView
$LN5@CPHsiView:

; 595  : 
; 596  : 
; 597  : 
; 598  : 	//Wombat778 3-22-04  Added for rendered (rather than blitted hsi)
; 599  : 	if (DisplayOptions.bRender2DCockpit)

	movzx	edx, BYTE PTR ?DisplayOptions@@3VDisplayOptionsClass@@A+17
	test	edx, edx
	je	SHORT $LN4@CPHsiView

; 600  : 	{
; 601  : 		mpSourceBuffer = phsiInitStr->sourcehsi;		

	mov	eax, DWORD PTR _this$[ebp]
	mov	ecx, DWORD PTR _phsiInitStr$[ebp]
	mov	edx, DWORD PTR [ecx+128]
	mov	DWORD PTR [eax+356], edx
	jmp	$LN2@CPHsiView
$LN4@CPHsiView:

; 602  : 	}
; 603  : 	//Wombat778 10-06-2003 Added following lines to set up a temporary buffer for the HSI
; 604  : 	//this is unnecessary in using rendered pit
; 605  : 	else if (g_bCockpitAutoScale && ((mVScale!=1.0f) || (mHScale!=1.0f))){

	movzx	eax, BYTE PTR ?g_bCockpitAutoScale@@3_NA ; g_bCockpitAutoScale
	test	eax, eax
	je	$LN2@CPHsiView
	mov	ecx, DWORD PTR _this$[ebp]
	movss	xmm0, DWORD PTR [ecx+20]
	ucomiss	xmm0, DWORD PTR __real@3f800000
	lahf
	test	ah, 68					; 00000044H
	jp	SHORT $LN1@CPHsiView
	mov	edx, DWORD PTR _this$[ebp]
	movss	xmm0, DWORD PTR [edx+16]
	ucomiss	xmm0, DWORD PTR __real@3f800000
	lahf
	test	ah, 68					; 00000044H
	jnp	$LN2@CPHsiView
$LN1@CPHsiView:

; 606  : 
; 607  : 		CompassBuffer = new ImageBuffer;

	push	348					; 0000015cH
	call	??2@YAPAXI@Z				; operator new
	add	esp, 4
	mov	DWORD PTR $T4[ebp], eax
	mov	BYTE PTR __$EHRec$[ebp+8], 1
	cmp	DWORD PTR $T4[ebp], 0
	je	SHORT $LN15@CPHsiView
	mov	ecx, DWORD PTR $T4[ebp]
	call	??0ImageBuffer@@QAE@XZ			; ImageBuffer::ImageBuffer
	mov	DWORD PTR tv443[ebp], eax
	jmp	SHORT $LN16@CPHsiView
$LN15@CPHsiView:
	mov	DWORD PTR tv443[ebp], 0
$LN16@CPHsiView:
	mov	eax, DWORD PTR tv443[ebp]
	mov	DWORD PTR $T2[ebp], eax
	mov	BYTE PTR __$EHRec$[ebp+8], 0
	mov	ecx, DWORD PTR _this$[ebp]
	mov	edx, DWORD PTR $T2[ebp]
	mov	DWORD PTR [ecx+272], edx

; 608  : 		CompassBuffer->Setup(&FalconDisplay.theDisplayDevice,mCompassWidth,mCompassHeight,SystemMem,None,FALSE);  //Wombat778 10-06 2003 Setup a new imagebuffer the size of the Compass

	push	0
	push	0
	push	0
	push	0
	push	4
	push	0
	mov	eax, DWORD PTR _this$[ebp]
	mov	ecx, DWORD PTR [eax+268]
	push	ecx
	mov	edx, DWORD PTR _this$[ebp]
	mov	eax, DWORD PTR [edx+264]
	push	eax
	push	OFFSET ?FalconDisplay@@3VFalconDisplayConfiguration@@A+132
	mov	ecx, DWORD PTR _this$[ebp]
	mov	ecx, DWORD PTR [ecx+272]
	call	?Setup@ImageBuffer@@QAEHPAVDisplayDevice@@HHW4MPRSurfaceType@@1PAUHWND__@@HHH@Z ; ImageBuffer::Setup

; 609  : 		CompassBuffer->SetChromaKey(0xFFFF0000);

	push	-65536					; ffff0000H
	mov	edx, DWORD PTR _this$[ebp]
	mov	ecx, DWORD PTR [edx+272]
	call	?SetChromaKey@ImageBuffer@@QAEXK@Z	; ImageBuffer::SetChromaKey
$LN2@CPHsiView:

; 610  : 	}
; 611  : 
; 612  : 	//Wombat778 10-06-2003 End of added code
; 613  : }

	mov	DWORD PTR __$EHRec$[ebp+8], -1
	mov	eax, DWORD PTR _this$[ebp]
	mov	ecx, DWORD PTR __$EHRec$[ebp]
	mov	DWORD PTR fs:0, ecx
	pop	ecx
	pop	esi
	mov	esp, ebp
	pop	ebp
	ret	8
_TEXT	ENDS
text$x	SEGMENT
__unwindfunclet$??0CPHsiView@@QAE@PAUObjectInitStr@@PAUHsiInitStr@@@Z$0:
	mov	ecx, DWORD PTR _this$[ebp]
	jmp	??1CPObject@@UAE@XZ			; CPObject::~CPObject
__unwindfunclet$??0CPHsiView@@QAE@PAUObjectInitStr@@PAUHsiInitStr@@@Z$1:
	mov	eax, DWORD PTR $T4[ebp]
	push	eax
	call	??3@YAXPAX@Z				; operator delete
	pop	ecx
	ret	0
__ehhandler$??0CPHsiView@@QAE@PAUObjectInitStr@@PAUHsiInitStr@@@Z:
	mov	edx, DWORD PTR [esp+8]
	lea	eax, DWORD PTR [edx+12]
	mov	ecx, DWORD PTR [edx-64]
	xor	ecx, eax
	call	@__security_check_cookie@4
	mov	eax, OFFSET __ehfuncinfo$??0CPHsiView@@QAE@PAUObjectInitStr@@PAUHsiInitStr@@@Z
	jmp	___CxxFrameHandler3
text$x	ENDS
??0CPHsiView@@QAE@PAUObjectInitStr@@PAUHsiInitStr@@@Z ENDP ; CPHsiView::CPHsiView
; Function compile flags: /Odtp
; File c:\users\zhitao li\documents\visual studio 2012\projects\freefalcon\sim\cockpit\cphsi.cpp
_TEXT	SEGMENT
$T2 = -180						; size = 16
$T3 = -164						; size = 16
$T4 = -148						; size = 16
$T5 = -132						; size = 16
_e$6 = -116						; size = 16
tv244 = -100						; size = 4
tv246 = -96						; size = 4
tv252 = -92						; size = 4
tv243 = -88						; size = 4
$T7 = -84						; size = 4
$T8 = -80						; size = 4
tv251 = -76						; size = 4
tv256 = -72						; size = 4
tv247 = -68						; size = 4
tv253 = -64						; size = 4
tv245 = -60						; size = 4
_dwMaxTextureHeight$9 = -56				; size = 4
_dwMaxTextureWidth$10 = -52				; size = 4
tv250 = -48						; size = 4
tv168 = -44						; size = 4
$T11 = -40						; size = 4
$T12 = -36						; size = 4
tv145 = -32						; size = 4
_pTex$13 = -28						; size = 4
tv257 = -22						; size = 1
tv258 = -21						; size = 1
_this$ = -20						; size = 4
__$EHRec$ = -16						; size = 16
?CreateLit@CPHsiView@@UAEXXZ PROC			; CPHsiView::CreateLit
; _this$ = ecx

; 1129 : {

	push	ebp
	mov	ebp, esp
	push	-1
	push	__ehhandler$?CreateLit@CPHsiView@@UAEXXZ
	mov	eax, DWORD PTR fs:0
	push	eax
	push	ecx
	sub	esp, 164				; 000000a4H
	push	ebx
	push	esi
	push	edi
	mov	eax, DWORD PTR ___security_cookie
	xor	eax, ebp
	push	eax
	lea	eax, DWORD PTR __$EHRec$[ebp+4]
	mov	DWORD PTR fs:0, eax
	mov	DWORD PTR __$EHRec$[ebp], esp
	mov	DWORD PTR _this$[ebp], ecx

; 1130 : 	if (DisplayOptions.bRender2DCockpit){

	movzx	eax, BYTE PTR ?DisplayOptions@@3VDisplayOptionsClass@@A+17
	test	eax, eax
	je	$LN9@CreateLit

; 1131 : 		try {

	mov	DWORD PTR __$EHRec$[ebp+12], 0

; 1132 : 			const DWORD dwMaxTextureWidth = 
; 1133 : 				mpOTWImage->GetDisplayDevice()->GetDefaultRC()->m_pD3DHWDeviceDesc->dwMaxTextureWidth;

	mov	ecx, DWORD PTR _this$[ebp]
	mov	ecx, DWORD PTR [ecx+104]
	call	?GetDisplayDevice@ImageBuffer@@QAEPAVDisplayDevice@@XZ ; ImageBuffer::GetDisplayDevice
	mov	DWORD PTR tv243[ebp], eax
	mov	ecx, DWORD PTR tv243[ebp]
	call	?GetDefaultRC@DisplayDevice@@QAEPAVDXContext@@XZ ; DisplayDevice::GetDefaultRC
	mov	DWORD PTR tv244[ebp], eax
	mov	edx, DWORD PTR tv244[ebp]
	mov	eax, DWORD PTR [edx+68]
	mov	ecx, DWORD PTR [eax+132]
	mov	DWORD PTR _dwMaxTextureWidth$10[ebp], ecx

; 1134 : 			const DWORD dwMaxTextureHeight = 
; 1135 : 				mpOTWImage->GetDisplayDevice()->GetDefaultRC()->m_pD3DHWDeviceDesc->dwMaxTextureHeight;

	mov	edx, DWORD PTR _this$[ebp]
	mov	ecx, DWORD PTR [edx+104]
	call	?GetDisplayDevice@ImageBuffer@@QAEPAVDisplayDevice@@XZ ; ImageBuffer::GetDisplayDevice
	mov	DWORD PTR tv245[ebp], eax
	mov	ecx, DWORD PTR tv245[ebp]
	call	?GetDefaultRC@DisplayDevice@@QAEPAVDXContext@@XZ ; DisplayDevice::GetDefaultRC
	mov	DWORD PTR tv246[ebp], eax
	mov	eax, DWORD PTR tv246[ebp]
	mov	ecx, DWORD PTR [eax+68]
	mov	edx, DWORD PTR [ecx+136]
	mov	DWORD PTR _dwMaxTextureHeight$9[ebp], edx

; 1136 : 			m_pPalette = new PaletteHandle(mpOTWImage->GetDisplayDevice()->GetDefaultRC()->m_pDD, 32, 256);

	push	24					; 00000018H
	call	??2@YAPAXI@Z				; operator new
	add	esp, 4
	mov	DWORD PTR tv247[ebp], eax
	mov	eax, DWORD PTR tv247[ebp]
	mov	DWORD PTR $T11[ebp], eax
	mov	BYTE PTR __$EHRec$[ebp+12], 1
	cmp	DWORD PTR $T11[ebp], 0
	je	SHORT $LN10@CreateLit
	mov	ecx, DWORD PTR _this$[ebp]
	mov	ecx, DWORD PTR [ecx+104]
	call	?GetDisplayDevice@ImageBuffer@@QAEPAVDisplayDevice@@XZ ; ImageBuffer::GetDisplayDevice
	mov	DWORD PTR tv250[ebp], eax
	mov	ecx, DWORD PTR tv250[ebp]
	call	?GetDefaultRC@DisplayDevice@@QAEPAVDXContext@@XZ ; DisplayDevice::GetDefaultRC
	mov	DWORD PTR tv251[ebp], eax
	push	256					; 00000100H
	push	32					; 00000020H
	mov	edx, DWORD PTR tv251[ebp]
	mov	eax, DWORD PTR [edx]
	push	eax
	mov	ecx, DWORD PTR $T11[ebp]
	call	??0PaletteHandle@@QAE@PAUIDirectDraw7@@GG@Z ; PaletteHandle::PaletteHandle
	mov	DWORD PTR tv252[ebp], eax
	mov	ecx, DWORD PTR tv252[ebp]
	mov	DWORD PTR tv145[ebp], ecx
	jmp	SHORT $LN11@CreateLit
$LN10@CreateLit:
	mov	DWORD PTR tv145[ebp], 0
$LN11@CreateLit:
	mov	edx, DWORD PTR tv145[ebp]
	mov	DWORD PTR $T7[ebp], edx
	mov	BYTE PTR __$EHRec$[ebp+12], 0
	mov	eax, DWORD PTR _this$[ebp]
	mov	ecx, DWORD PTR $T7[ebp]
	mov	DWORD PTR [eax+116], ecx

; 1137 : 			if (!m_pPalette){

	mov	edx, DWORD PTR _this$[ebp]
	cmp	DWORD PTR [edx+116], 0
	jne	SHORT $LN5@CreateLit

; 1138 : 				throw _com_error(E_OUTOFMEMORY);

	push	0
	push	0
	push	-2147024882				; 8007000eH
	lea	ecx, DWORD PTR $T3[ebp]
	call	??0_com_error@@QAE@JPAUIErrorInfo@@_N@Z	; _com_error::_com_error
	push	OFFSET __TI1?AV_com_error@@
	lea	eax, DWORD PTR $T3[ebp]
	push	eax
	call	__CxxThrowException@8
$LN5@CreateLit:

; 1139 : 			}
; 1140 : 
; 1141 : 			// Check if we can use a single texture
; 1142 : 			if (
; 1143 : 				(dwMaxTextureWidth >= (unsigned int)mCompassWidth) && 
; 1144 : 				(dwMaxTextureHeight >= (unsigned int)mCompassHeight) 
; 1145 : 			){

	mov	ecx, DWORD PTR _this$[ebp]
	mov	edx, DWORD PTR _dwMaxTextureWidth$10[ebp]
	cmp	edx, DWORD PTR [ecx+264]
	jb	$LN4@CreateLit
	mov	eax, DWORD PTR _this$[ebp]
	mov	ecx, DWORD PTR _dwMaxTextureHeight$9[ebp]
	cmp	ecx, DWORD PTR [eax+268]
	jb	$LN4@CreateLit

; 1146 : 				TextureHandle *pTex = new TextureHandle;

	push	48					; 00000030H
	call	??2@YAPAXI@Z				; operator new
	add	esp, 4
	mov	DWORD PTR tv253[ebp], eax
	mov	edx, DWORD PTR tv253[ebp]
	mov	DWORD PTR $T12[ebp], edx
	mov	BYTE PTR __$EHRec$[ebp+12], 2
	cmp	DWORD PTR $T12[ebp], 0
	je	SHORT $LN12@CreateLit
	mov	ecx, DWORD PTR $T12[ebp]
	call	??0TextureHandle@@QAE@XZ		; TextureHandle::TextureHandle
	mov	DWORD PTR tv256[ebp], eax
	mov	eax, DWORD PTR tv256[ebp]
	mov	DWORD PTR tv168[ebp], eax
	jmp	SHORT $LN13@CreateLit
$LN12@CreateLit:
	mov	DWORD PTR tv168[ebp], 0
$LN13@CreateLit:
	mov	ecx, DWORD PTR tv168[ebp]
	mov	DWORD PTR $T8[ebp], ecx
	mov	BYTE PTR __$EHRec$[ebp+12], 0
	mov	edx, DWORD PTR $T8[ebp]
	mov	DWORD PTR _pTex$13[ebp], edx

; 1147 : 				if (!pTex){

	cmp	DWORD PTR _pTex$13[ebp], 0
	jne	SHORT $LN3@CreateLit

; 1148 : 					throw _com_error(E_OUTOFMEMORY);

	push	0
	push	0
	push	-2147024882				; 8007000eH
	lea	ecx, DWORD PTR $T5[ebp]
	call	??0_com_error@@QAE@JPAUIErrorInfo@@_N@Z	; _com_error::_com_error
	push	OFFSET __TI1?AV_com_error@@
	lea	eax, DWORD PTR $T5[ebp]
	push	eax
	call	__CxxThrowException@8
$LN3@CreateLit:

; 1149 : 				}
; 1150 : 				m_pPalette->AttachToTexture(pTex);

	mov	ecx, DWORD PTR _pTex$13[ebp]
	push	ecx
	mov	edx, DWORD PTR _this$[ebp]
	mov	ecx, DWORD PTR [edx+116]
	call	?AttachToTexture@PaletteHandle@@QAEXPAVTextureHandle@@@Z ; PaletteHandle::AttachToTexture

; 1151 : 				if (!pTex->Create("CPHsi", MPR_TI_PALETTE | MPR_TI_CHROMAKEY, 8, mCompassWidth, mCompassHeight)){

	push	0
	mov	eax, DWORD PTR _this$[ebp]
	movzx	ecx, WORD PTR [eax+268]
	push	ecx
	mov	edx, DWORD PTR _this$[ebp]
	movzx	eax, WORD PTR [edx+264]
	push	eax
	push	8
	push	160					; 000000a0H
	push	OFFSET ??_C@_05EDMKJPGA@CPHsi?$AA@
	mov	ecx, DWORD PTR _pTex$13[ebp]
	call	?Create@TextureHandle@@QAE_NPADKGGGK@Z	; TextureHandle::Create
	mov	BYTE PTR tv257[ebp], al
	movzx	ecx, BYTE PTR tv257[ebp]
	test	ecx, ecx
	jne	SHORT $LN2@CreateLit

; 1152 : 					throw _com_error(E_FAIL);

	push	0
	push	0
	push	-2147467259				; 80004005H
	lea	ecx, DWORD PTR $T4[ebp]
	call	??0_com_error@@QAE@JPAUIErrorInfo@@_N@Z	; _com_error::_com_error
	push	OFFSET __TI1?AV_com_error@@
	lea	edx, DWORD PTR $T4[ebp]
	push	edx
	call	__CxxThrowException@8
$LN2@CreateLit:

; 1153 : 				}
; 1154 : 				if (!pTex->Load(0, 0xFFFF0000, (BYTE*)mpSourceBuffer, true, true)){

	push	-1
	push	1
	push	1
	mov	eax, DWORD PTR _this$[ebp]
	mov	ecx, DWORD PTR [eax+356]
	push	ecx
	push	-65536					; ffff0000H
	push	0
	mov	ecx, DWORD PTR _pTex$13[ebp]
	call	?Load@TextureHandle@@QAE_NGIPAE_N1H@Z	; TextureHandle::Load
	mov	BYTE PTR tv258[ebp], al
	movzx	edx, BYTE PTR tv258[ebp]
	test	edx, edx
	jne	SHORT $LN1@CreateLit

; 1155 : 					// soon to be re-loaded by CPSurface::Translate3D
; 1156 : 					throw _com_error(E_FAIL);

	push	0
	push	0
	push	-2147467259				; 80004005H
	lea	ecx, DWORD PTR $T2[ebp]
	call	??0_com_error@@QAE@JPAUIErrorInfo@@_N@Z	; _com_error::_com_error
	push	OFFSET __TI1?AV_com_error@@
	lea	eax, DWORD PTR $T2[ebp]
	push	eax
	call	__CxxThrowException@8
$LN1@CreateLit:

; 1157 : 				}
; 1158 : 				m_arrTex.push_back(pTex);

	lea	ecx, DWORD PTR _pTex$13[ebp]
	push	ecx
	mov	ecx, DWORD PTR _this$[ebp]
	add	ecx, 120				; 00000078H
	call	?push_back@?$vector@PAVTextureHandle@@V?$allocator@PAVTextureHandle@@@std@@@std@@QAEXABQAVTextureHandle@@@Z ; std::vector<TextureHandle *,std::allocator<TextureHandle *> >::push_back
$LN4@CreateLit:

; 1159 : 			}
; 1160 : 		}

	jmp	SHORT $LN14@CreateLit
__catch$?CreateLit@CPHsiView@@UAEXXZ$0:

; 1161 : 		catch(_com_error e)

	mov	BYTE PTR __$EHRec$[ebp+12], 4

; 1162 : 		{
; 1163 : 			MonoPrint("CPHsi::CreateHsiView - Error 0x%X (%s)\n", e.Error(), e.ErrorMessage());

	lea	ecx, DWORD PTR _e$6[ebp]
	call	?ErrorMessage@_com_error@@QBEPBDXZ	; _com_error::ErrorMessage
	push	eax
	lea	ecx, DWORD PTR _e$6[ebp]
	call	?Error@_com_error@@QBEJXZ		; _com_error::Error
	push	eax
	push	OFFSET ??_C@_0CI@LMEDGJGB@CPHsi?3?3CreateHsiView?5?9?5Error?50x?$CF@
	call	_MonoPrint
	add	esp, 12					; 0000000cH

; 1164 : 			DiscardLit();

	mov	edx, DWORD PTR _this$[ebp]
	mov	eax, DWORD PTR [edx]
	mov	ecx, DWORD PTR _this$[ebp]
	mov	edx, DWORD PTR [eax+20]
	call	edx

; 1165 : 		}

	mov	BYTE PTR __$EHRec$[ebp+12], 3
	lea	ecx, DWORD PTR _e$6[ebp]
	call	??1_com_error@@UAE@XZ			; _com_error::~_com_error
	mov	eax, $LN20@CreateLit
	ret	0
$LN14@CreateLit:
	mov	DWORD PTR __$EHRec$[ebp+12], -1
	jmp	SHORT $LN9@CreateLit
$LN20@CreateLit:
	mov	DWORD PTR __$EHRec$[ebp+12], -1
$LN9@CreateLit:

; 1166 : 	}
; 1167 : }

	mov	ecx, DWORD PTR __$EHRec$[ebp+4]
	mov	DWORD PTR fs:0, ecx
	pop	ecx
	pop	edi
	pop	esi
	pop	ebx
	mov	esp, ebp
	pop	ebp
	ret	0
_TEXT	ENDS
text$x	SEGMENT
__unwindfunclet$?CreateLit@CPHsiView@@UAEXXZ$2:
	mov	eax, DWORD PTR $T11[ebp]
	push	eax
	call	??3@YAXPAX@Z				; operator delete
	pop	ecx
	ret	0
__unwindfunclet$?CreateLit@CPHsiView@@UAEXXZ$3:
	mov	eax, DWORD PTR $T12[ebp]
	push	eax
	call	??3@YAXPAX@Z				; operator delete
	pop	ecx
	ret	0
__unwindfunclet$?CreateLit@CPHsiView@@UAEXXZ$4:
	lea	ecx, DWORD PTR _e$6[ebp]
	jmp	??1_com_error@@UAE@XZ			; _com_error::~_com_error
__ehhandler$?CreateLit@CPHsiView@@UAEXXZ:
	mov	edx, DWORD PTR [esp+8]
	lea	eax, DWORD PTR [edx+12]
	mov	ecx, DWORD PTR [edx-184]
	xor	ecx, eax
	call	@__security_check_cookie@4
	mov	eax, OFFSET __ehfuncinfo$?CreateLit@CPHsiView@@UAEXXZ
	jmp	___CxxFrameHandler3
text$x	ENDS
?CreateLit@CPHsiView@@UAEXXZ ENDP			; CPHsiView::CreateLit
; Function compile flags: /Odtp
; File c:\users\zhitao li\documents\visual studio 2012\projects\freefalcon\sim\cockpit\cphsi.cpp
_TEXT	SEGMENT
_currentHeading$ = -40					; size = 4
_OffsetX$ = -36						; size = 4
_OffsetY$ = -32						; size = 4
_angle$ = -28						; size = 4
_this$ = -24						; size = 4
_DestRect$ = -20					; size = 16
__$ArrayPad$ = -4					; size = 4
?DisplayBlit3D@CPHsiView@@UAEXXZ PROC			; CPHsiView::DisplayBlit3D
; _this$ = ecx

; 742  : void CPHsiView::DisplayBlit3D() {	

	push	ebp
	mov	ebp, esp
	sub	esp, 40					; 00000028H
	mov	eax, DWORD PTR ___security_cookie
	xor	eax, ebp
	mov	DWORD PTR __$ArrayPad$[ebp], eax
	mov	DWORD PTR _this$[ebp], ecx

; 743  : 
; 744  : 	mDirtyFlag = TRUE;	

	mov	eax, DWORD PTR _this$[ebp]
	mov	DWORD PTR [eax+52], 1

; 745  : 	if(!mDirtyFlag || !DisplayOptions.bRender2DCockpit){

	mov	ecx, DWORD PTR _this$[ebp]
	cmp	DWORD PTR [ecx+52], 0
	je	SHORT $LN4@DisplayBli
	movzx	edx, BYTE PTR ?DisplayOptions@@3VDisplayOptionsClass@@A+17
	test	edx, edx
	jne	SHORT $LN5@DisplayBli
$LN4@DisplayBli:

; 746  : 		return;

	jmp	$LN6@DisplayBli
$LN5@DisplayBli:

; 747  : 	}
; 748  : 
; 749  : 	float	angle;
; 750  : 	float	currentHeading = mpHsi->GetValue(CPHsi::HSI_VAL_CURRENT_HEADING);

	push	4
	mov	eax, DWORD PTR _this$[ebp]
	mov	ecx, DWORD PTR [eax+144]
	call	?GetValue@CPHsi@@QAEMW4HSIValues@1@@Z	; CPHsi::GetValue
	fstp	DWORD PTR _currentHeading$[ebp]

; 751  : 
; 752  : 	angle = currentHeading + 90.0F;

	movss	xmm0, DWORD PTR _currentHeading$[ebp]
	addss	xmm0, DWORD PTR __real@42b40000
	movss	DWORD PTR _angle$[ebp], xmm0

; 753  : 	if(angle > 360.0F) {

	movss	xmm0, DWORD PTR _angle$[ebp]
	comiss	xmm0, DWORD PTR __real@43b40000
	jbe	SHORT $LN3@DisplayBli

; 754  : 		angle -= 360.0F;

	movss	xmm0, DWORD PTR _angle$[ebp]
	subss	xmm0, DWORD PTR __real@43b40000
	movss	DWORD PTR _angle$[ebp], xmm0
$LN3@DisplayBli:

; 755  : 	}
; 756  : 
; 757  : 	RECT DestRect=mCompassDest;

	mov	ecx, DWORD PTR _this$[ebp]
	add	ecx, 216				; 000000d8H
	mov	edx, DWORD PTR [ecx]
	mov	DWORD PTR _DestRect$[ebp], edx
	mov	eax, DWORD PTR [ecx+4]
	mov	DWORD PTR _DestRect$[ebp+4], eax
	mov	edx, DWORD PTR [ecx+8]
	mov	DWORD PTR _DestRect$[ebp+8], edx
	mov	eax, DWORD PTR [ecx+12]
	mov	DWORD PTR _DestRect$[ebp+12], eax

; 758  : 	// COBRA - RED - Pit Vibrations
; 759  : 	int	OffsetX=(int)OTWDriver.pCockpitManager->PitTurbulence.x;

	mov	ecx, DWORD PTR ?OTWDriver@@3VOTWDriverClass@@A+33684
	cvttss2si edx, DWORD PTR [ecx+728]
	mov	DWORD PTR _OffsetX$[ebp], edx

; 760  : 	int	OffsetY=(int)OTWDriver.pCockpitManager->PitTurbulence.y;

	mov	eax, DWORD PTR ?OTWDriver@@3VOTWDriverClass@@A+33684
	cvttss2si ecx, DWORD PTR [eax+732]
	mov	DWORD PTR _OffsetY$[ebp], ecx

; 761  : 	DestRect.top+=OffsetY;

	mov	edx, DWORD PTR _DestRect$[ebp+4]
	add	edx, DWORD PTR _OffsetY$[ebp]
	mov	DWORD PTR _DestRect$[ebp+4], edx

; 762  : 	DestRect.bottom+=OffsetY;

	mov	eax, DWORD PTR _DestRect$[ebp+12]
	add	eax, DWORD PTR _OffsetY$[ebp]
	mov	DWORD PTR _DestRect$[ebp+12], eax

; 763  : 	DestRect.left+=OffsetX;

	mov	ecx, DWORD PTR _DestRect$[ebp]
	add	ecx, DWORD PTR _OffsetX$[ebp]
	mov	DWORD PTR _DestRect$[ebp], ecx

; 764  : 	DestRect.right+=OffsetX;

	mov	edx, DWORD PTR _DestRect$[ebp+8]
	add	edx, DWORD PTR _OffsetX$[ebp]
	mov	DWORD PTR _DestRect$[ebp+8], edx

; 765  : 
; 766  : 
; 767  : 	if (g_bFilter2DPit){

	movzx	eax, BYTE PTR ?g_bFilter2DPit@@3_NA	; g_bFilter2DPit
	test	eax, eax
	je	SHORT $LN2@DisplayBli

; 768  : 		//Wombat778 3-30-04 Added option to filter
; 769  : 		RenderHSIPoly(&mCompassSrc,&DestRect,STATE_TEXTURE,m_arrTex[0], ConvertNavtoRad(angle));

	push	ecx
	movss	xmm0, DWORD PTR _angle$[ebp]
	movss	DWORD PTR [esp], xmm0
	call	?ConvertNavtoRad@@YAMM@Z		; ConvertNavtoRad
	fstp	DWORD PTR [esp]
	push	0
	mov	ecx, DWORD PTR _this$[ebp]
	add	ecx, 120				; 00000078H
	call	??A?$vector@PAVTextureHandle@@V?$allocator@PAVTextureHandle@@@std@@@std@@QAEAAPAVTextureHandle@@I@Z ; std::vector<TextureHandle *,std::allocator<TextureHandle *> >::operator[]
	mov	ecx, DWORD PTR [eax]
	push	ecx
	push	3
	lea	edx, DWORD PTR _DestRect$[ebp]
	push	edx
	mov	eax, DWORD PTR _this$[ebp]
	add	eax, 200				; 000000c8H
	push	eax
	call	?RenderHSIPoly@@YAXPAUtagRECT@@0HPAVTextureHandle@@M@Z ; RenderHSIPoly
	add	esp, 20					; 00000014H

; 770  : 	}
; 771  : 	else {

	jmp	SHORT $LN1@DisplayBli
$LN2@DisplayBli:

; 772  : 		RenderHSIPoly(&mCompassSrc,&DestRect,STATE_TEXTURE_NOFILTER,m_arrTex[0], ConvertNavtoRad(angle));

	push	ecx
	movss	xmm0, DWORD PTR _angle$[ebp]
	movss	DWORD PTR [esp], xmm0
	call	?ConvertNavtoRad@@YAMM@Z		; ConvertNavtoRad
	fstp	DWORD PTR [esp]
	push	0
	mov	ecx, DWORD PTR _this$[ebp]
	add	ecx, 120				; 00000078H
	call	??A?$vector@PAVTextureHandle@@V?$allocator@PAVTextureHandle@@@std@@@std@@QAEAAPAVTextureHandle@@I@Z ; std::vector<TextureHandle *,std::allocator<TextureHandle *> >::operator[]
	mov	ecx, DWORD PTR [eax]
	push	ecx
	push	11					; 0000000bH
	lea	edx, DWORD PTR _DestRect$[ebp]
	push	edx
	mov	eax, DWORD PTR _this$[ebp]
	add	eax, 200				; 000000c8H
	push	eax
	call	?RenderHSIPoly@@YAXPAUtagRECT@@0HPAVTextureHandle@@M@Z ; RenderHSIPoly
	add	esp, 20					; 00000014H
$LN1@DisplayBli:

; 773  : 	}
; 774  : 	mDirtyFlag = FALSE;

	mov	ecx, DWORD PTR _this$[ebp]
	mov	DWORD PTR [ecx+52], 0
$LN6@DisplayBli:

; 775  : }

	mov	ecx, DWORD PTR __$ArrayPad$[ebp]
	xor	ecx, ebp
	call	@__security_check_cookie@4
	mov	esp, ebp
	pop	ebp
	ret	0
?DisplayBlit3D@CPHsiView@@UAEXXZ ENDP			; CPHsiView::DisplayBlit3D
_TEXT	ENDS
; Function compile flags: /Odtp
; File c:\users\zhitao li\documents\visual studio 2012\projects\freefalcon\sim\cockpit\cphsi.cpp
_TEXT	SEGMENT
_this$ = -4						; size = 4
___formal$ = 8						; size = 4
?Exec@CPHsiView@@UAEXPAVSimBaseClass@@@Z PROC		; CPHsiView::Exec
; _this$ = ecx

; 780  : void CPHsiView::Exec(SimBaseClass*) { 

	push	ebp
	mov	ebp, esp
	push	ecx
	mov	DWORD PTR _this$[ebp], ecx

; 781  : 
; 782  : 	OTWDriver.pCockpitManager->mpHsi->Exec();

	mov	eax, DWORD PTR ?OTWDriver@@3VOTWDriverClass@@A+33684
	mov	ecx, DWORD PTR [eax+692]
	call	?Exec@CPHsi@@QAEXXZ			; CPHsi::Exec

; 783  : }

	mov	esp, ebp
	pop	ebp
	ret	4
?Exec@CPHsiView@@UAEXPAVSimBaseClass@@@Z ENDP		; CPHsiView::Exec
_TEXT	ENDS
; Function compile flags: /Odtp
; File c:\users\zhitao li\documents\visual studio 2012\projects\freefalcon\sim\cockpit\cphsi.cpp
_TEXT	SEGMENT
_currentHeading$ = -32					; size = 4
_angle$ = -28						; size = 4
_this$ = -24						; size = 4
_temprect$1 = -20					; size = 16
__$ArrayPad$ = -4					; size = 4
?DisplayBlit@CPHsiView@@UAEXXZ PROC			; CPHsiView::DisplayBlit
; _this$ = ecx

; 644  : void CPHsiView::DisplayBlit() {	

	push	ebp
	mov	ebp, esp
	sub	esp, 32					; 00000020H
	mov	eax, DWORD PTR ___security_cookie
	xor	eax, ebp
	mov	DWORD PTR __$ArrayPad$[ebp], eax
	mov	DWORD PTR _this$[ebp], ecx

; 645  : 
; 646  : 	mDirtyFlag = TRUE;	

	mov	eax, DWORD PTR _this$[ebp]
	mov	DWORD PTR [eax+52], 1

; 647  : 	if(!mDirtyFlag || DisplayOptions.bRender2DCockpit) {

	mov	ecx, DWORD PTR _this$[ebp]
	cmp	DWORD PTR [ecx+52], 0
	je	SHORT $LN5@DisplayBli
	movzx	edx, BYTE PTR ?DisplayOptions@@3VDisplayOptionsClass@@A+17
	test	edx, edx
	je	SHORT $LN6@DisplayBli
$LN5@DisplayBli:

; 648  : 		return;

	jmp	$LN7@DisplayBli
$LN6@DisplayBli:

; 649  : 	}
; 650  : 
; 651  : 	float	angle;
; 652  : 	float	currentHeading = mpHsi->GetValue(CPHsi::HSI_VAL_CURRENT_HEADING);

	push	4
	mov	eax, DWORD PTR _this$[ebp]
	mov	ecx, DWORD PTR [eax+144]
	call	?GetValue@CPHsi@@QAEMW4HSIValues@1@@Z	; CPHsi::GetValue
	fstp	DWORD PTR _currentHeading$[ebp]

; 653  : 
; 654  : 	angle = currentHeading + 90.0F;

	movss	xmm0, DWORD PTR _currentHeading$[ebp]
	addss	xmm0, DWORD PTR __real@42b40000
	movss	DWORD PTR _angle$[ebp], xmm0

; 655  : 	if(angle > 360.0F) {

	movss	xmm0, DWORD PTR _angle$[ebp]
	comiss	xmm0, DWORD PTR __real@43b40000
	jbe	SHORT $LN4@DisplayBli

; 656  : 		angle -= 360.0F;

	movss	xmm0, DWORD PTR _angle$[ebp]
	subss	xmm0, DWORD PTR __real@43b40000
	movss	DWORD PTR _angle$[ebp], xmm0
$LN4@DisplayBli:

; 657  : 	}
; 658  : 
; 659  : 	// Make the rotating blt call
; 660  : 
; 661  : 	//Wombat778 10-06-2003, modified following lines. allows HSI to scale properly when using cockpit auto scaling
; 662  : 	if (g_bCockpitAutoScale && ((mVScale!=1.0f) || (mHScale!=1.0f))) {			//dont run this code if the var is set but no scaling is occuring

	movzx	ecx, BYTE PTR ?g_bCockpitAutoScale@@3_NA ; g_bCockpitAutoScale
	test	ecx, ecx
	je	$LN3@DisplayBli
	mov	edx, DWORD PTR _this$[ebp]
	movss	xmm0, DWORD PTR [edx+20]
	ucomiss	xmm0, DWORD PTR __real@3f800000
	lahf
	test	ah, 68					; 00000044H
	jp	SHORT $LN2@DisplayBli
	mov	eax, DWORD PTR _this$[ebp]
	movss	xmm0, DWORD PTR [eax+16]
	ucomiss	xmm0, DWORD PTR __real@3f800000
	lahf
	test	ah, 68					; 00000044H
	jnp	$LN3@DisplayBli
$LN2@DisplayBli:

; 663  : 
; 664  : 		RECT temprect;
; 665  : 
; 666  : 		temprect.top=0;

	mov	DWORD PTR _temprect$1[ebp+4], 0

; 667  : 		temprect.left=0;

	mov	DWORD PTR _temprect$1[ebp], 0

; 668  : 		temprect.right=mCompassWidth;

	mov	ecx, DWORD PTR _this$[ebp]
	mov	edx, DWORD PTR [ecx+264]
	mov	DWORD PTR _temprect$1[ebp+8], edx

; 669  : 		temprect.bottom=mCompassHeight;

	mov	eax, DWORD PTR _this$[ebp]
	mov	ecx, DWORD PTR [eax+268]
	mov	DWORD PTR _temprect$1[ebp+12], ecx

; 670  : 
; 671  : 		CompassBuffer->Clear(0xFFFF0000);			//clear the temp buffer with chromakey blue;

	push	-65536					; ffff0000H
	mov	edx, DWORD PTR _this$[ebp]
	mov	ecx, DWORD PTR [edx+272]
	call	?Clear@ImageBuffer@@QAEXK@Z		; ImageBuffer::Clear

; 672  : 		CompassBuffer->ComposeRoundRot(mpTemplate,&mCompassSrc,&temprect, ConvertNavtoRad(angle), mpCompassCircle);  //Rotate the image from template to temp buffer

	mov	eax, DWORD PTR _this$[ebp]
	mov	ecx, DWORD PTR [eax+252]
	push	ecx
	push	ecx
	movss	xmm0, DWORD PTR _angle$[ebp]
	movss	DWORD PTR [esp], xmm0
	call	?ConvertNavtoRad@@YAMM@Z		; ConvertNavtoRad
	fstp	DWORD PTR [esp]
	lea	edx, DWORD PTR _temprect$1[ebp]
	push	edx
	mov	eax, DWORD PTR _this$[ebp]
	add	eax, 200				; 000000c8H
	push	eax
	mov	ecx, DWORD PTR _this$[ebp]
	mov	edx, DWORD PTR [ecx+108]
	push	edx
	mov	eax, DWORD PTR _this$[ebp]
	mov	ecx, DWORD PTR [eax+272]
	call	?ComposeRoundRot@ImageBuffer@@QAEXPAV1@PAUtagRECT@@1MPAH@Z ; ImageBuffer::ComposeRoundRot

; 673  : 		mpOTWImage->ComposeTransparent(CompassBuffer, &temprect, &mCompassDest);

	mov	ecx, DWORD PTR _this$[ebp]
	add	ecx, 216				; 000000d8H
	push	ecx
	lea	edx, DWORD PTR _temprect$1[ebp]
	push	edx
	mov	eax, DWORD PTR _this$[ebp]
	mov	ecx, DWORD PTR [eax+272]
	push	ecx
	mov	edx, DWORD PTR _this$[ebp]
	mov	ecx, DWORD PTR [edx+104]
	call	?ComposeTransparent@ImageBuffer@@QAEXPAV1@PAUtagRECT@@1@Z ; ImageBuffer::ComposeTransparent

; 674  : 
; 675  : 	}
; 676  : 	else

	jmp	SHORT $LN1@DisplayBli
$LN3@DisplayBli:

; 677  : 	{
; 678  : 		mpOTWImage->ComposeRoundRot(mpTemplate, &mCompassSrc, &mCompassDest, ConvertNavtoRad(angle), mpCompassCircle);

	mov	eax, DWORD PTR _this$[ebp]
	mov	ecx, DWORD PTR [eax+252]
	push	ecx
	push	ecx
	movss	xmm0, DWORD PTR _angle$[ebp]
	movss	DWORD PTR [esp], xmm0
	call	?ConvertNavtoRad@@YAMM@Z		; ConvertNavtoRad
	fstp	DWORD PTR [esp]
	mov	edx, DWORD PTR _this$[ebp]
	add	edx, 216				; 000000d8H
	push	edx
	mov	eax, DWORD PTR _this$[ebp]
	add	eax, 200				; 000000c8H
	push	eax
	mov	ecx, DWORD PTR _this$[ebp]
	mov	edx, DWORD PTR [ecx+108]
	push	edx
	mov	eax, DWORD PTR _this$[ebp]
	mov	ecx, DWORD PTR [eax+104]
	call	?ComposeRoundRot@ImageBuffer@@QAEXPAV1@PAUtagRECT@@1MPAH@Z ; ImageBuffer::ComposeRoundRot
$LN1@DisplayBli:

; 679  : 	}
; 680  : 
; 681  : 	//Wombat778 10-06-2003  End of modified lines
; 682  : 
; 683  : 	mDirtyFlag = FALSE;

	mov	ecx, DWORD PTR _this$[ebp]
	mov	DWORD PTR [ecx+52], 0
$LN7@DisplayBli:

; 684  : }

	mov	ecx, DWORD PTR __$ArrayPad$[ebp]
	xor	ecx, ebp
	call	@__security_check_cookie@4
	mov	esp, ebp
	pop	ebp
	ret	0
?DisplayBlit@CPHsiView@@UAEXXZ ENDP			; CPHsiView::DisplayBlit
_TEXT	ENDS
; Function compile flags: /Odtp
; File c:\users\zhitao li\documents\visual studio 2012\projects\freefalcon\sim\cockpit\cphsi.cpp
_TEXT	SEGMENT
_crsWarnFlag$ = -24					; size = 4
_desiredHeading$ = -20					; size = 4
_desiredCourse$ = -16					; size = 4
_courseDeviation$ = -12					; size = 4
_bearingToBeacon$ = -8					; size = 4
_this$ = -4						; size = 4
?DisplayDraw@CPHsiView@@UAEXXZ PROC			; CPHsiView::DisplayDraw
; _this$ = ecx

; 786  : void CPHsiView::DisplayDraw() {	

	push	ebp
	mov	ebp, esp
	sub	esp, 24					; 00000018H
	mov	DWORD PTR _this$[ebp], ecx

; 787  : 	static BOOL monoYes;
; 788  : 	static int init = 0;
; 789  : 
; 790  : 	if(!init) {

	cmp	DWORD PTR ?init@?1??DisplayDraw@CPHsiView@@UAEXXZ@4HA, 0
	jne	SHORT $LN4@DisplayDra

; 791  : 		monoYes = 0;

	mov	DWORD PTR ?monoYes@?1??DisplayDraw@CPHsiView@@UAEXXZ@4HA, 0

; 792  : 		init = 1;

	mov	DWORD PTR ?init@?1??DisplayDraw@CPHsiView@@UAEXXZ@4HA, 1
$LN4@DisplayDra:

; 793  : 	}
; 794  : 	mDirtyFlag = TRUE;

	mov	eax, DWORD PTR _this$[ebp]
	mov	DWORD PTR [eax+52], 1

; 795  : 	if(!mDirtyFlag) {

	mov	ecx, DWORD PTR _this$[ebp]
	cmp	DWORD PTR [ecx+52], 0
	jne	SHORT $LN3@DisplayDra

; 796  : 		return;

	jmp	$LN5@DisplayDra
$LN3@DisplayDra:

; 797  : 	}
; 798  : 
; 799  : 	float	desiredCourse		= mpHsi->GetValue(CPHsi::HSI_VAL_DESIRED_CRS);

	push	1
	mov	edx, DWORD PTR _this$[ebp]
	mov	ecx, DWORD PTR [edx+144]
	call	?GetValue@CPHsi@@QAEMW4HSIValues@1@@Z	; CPHsi::GetValue
	fstp	DWORD PTR _desiredCourse$[ebp]

; 800  : 	float	desiredHeading		= mpHsi->GetValue(CPHsi::HSI_VAL_DESIRED_HEADING);

	push	5
	mov	eax, DWORD PTR _this$[ebp]
	mov	ecx, DWORD PTR [eax+144]
	call	?GetValue@CPHsi@@QAEMW4HSIValues@1@@Z	; CPHsi::GetValue
	fstp	DWORD PTR _desiredHeading$[ebp]

; 801  : 	float	courseDeviation		= mpHsi->GetValue(CPHsi::HSI_VAL_CRS_DEVIATION);

	push	0
	mov	ecx, DWORD PTR _this$[ebp]
	mov	ecx, DWORD PTR [ecx+144]
	call	?GetValue@CPHsi@@QAEMW4HSIValues@1@@Z	; CPHsi::GetValue
	fstp	DWORD PTR _courseDeviation$[ebp]

; 802  : 	float	bearingToBeacon		= mpHsi->GetValue(CPHsi::HSI_VAL_BEARING_TO_BEACON);

	push	3
	mov	edx, DWORD PTR _this$[ebp]
	mov	ecx, DWORD PTR [edx+144]
	call	?GetValue@CPHsi@@QAEMW4HSIValues@1@@Z	; CPHsi::GetValue
	fstp	DWORD PTR _bearingToBeacon$[ebp]

; 803  : 	BOOL	crsWarnFlag			= mpHsi->GetFlag(CPHsi::HSI_FLAG_CRS_WARN);

	push	2
	mov	eax, DWORD PTR _this$[ebp]
	mov	ecx, DWORD PTR [eax+144]
	call	?GetFlag@CPHsi@@QAEHW4HSIFlags@1@@Z	; CPHsi::GetFlag
	mov	DWORD PTR _crsWarnFlag$[ebp], eax

; 804  : 
; 805  : 
; 806  : 	if(monoYes) {

	cmp	DWORD PTR ?monoYes@?1??DisplayDraw@CPHsiView@@UAEXXZ@4HA, 0
	je	SHORT $LN2@DisplayDra

; 807  : 		MonoPrint("bearingToBeacon = %f\n", bearingToBeacon);

	cvtss2sd xmm0, DWORD PTR _bearingToBeacon$[ebp]
	sub	esp, 8
	movsd	QWORD PTR [esp], xmm0
	push	OFFSET ??_C@_0BG@LDIJDCCC@bearingToBeacon?5?$DN?5?$CFf?6?$AA@
	call	_MonoPrint
	add	esp, 12					; 0000000cH
$LN2@DisplayDra:

; 808  : 	}
; 809  : 
; 810  : 
; 811  : 	OTWDriver.renderer->SetViewport(mLeft, mTop, mRight, mBottom);

	mov	ecx, DWORD PTR _this$[ebp]
	push	ecx
	movss	xmm0, DWORD PTR [ecx+156]
	movss	DWORD PTR [esp], xmm0
	mov	edx, DWORD PTR _this$[ebp]
	push	ecx
	movss	xmm0, DWORD PTR [edx+160]
	movss	DWORD PTR [esp], xmm0
	mov	eax, DWORD PTR _this$[ebp]
	push	ecx
	movss	xmm0, DWORD PTR [eax+148]
	movss	DWORD PTR [esp], xmm0
	mov	ecx, DWORD PTR _this$[ebp]
	push	ecx
	movss	xmm0, DWORD PTR [ecx+152]
	movss	DWORD PTR [esp], xmm0
	mov	edx, DWORD PTR ?OTWDriver@@3VOTWDriverClass@@A+33576
	mov	eax, DWORD PTR [edx]
	mov	ecx, DWORD PTR ?OTWDriver@@3VOTWDriverClass@@A+33576
	mov	edx, DWORD PTR [eax+112]
	call	edx

; 812  : 
; 813  : 	DrawCourse(desiredCourse, courseDeviation);

	push	ecx
	movss	xmm0, DWORD PTR _courseDeviation$[ebp]
	movss	DWORD PTR [esp], xmm0
	push	ecx
	movss	xmm0, DWORD PTR _desiredCourse$[ebp]
	movss	DWORD PTR [esp], xmm0
	mov	ecx, DWORD PTR _this$[ebp]
	call	?DrawCourse@CPHsiView@@AAEXMM@Z		; CPHsiView::DrawCourse

; 814  : 	DrawStationBearing(bearingToBeacon);

	push	ecx
	movss	xmm0, DWORD PTR _bearingToBeacon$[ebp]
	movss	DWORD PTR [esp], xmm0
	mov	ecx, DWORD PTR _this$[ebp]
	call	?DrawStationBearing@CPHsiView@@AAEXM@Z	; CPHsiView::DrawStationBearing

; 815  : 	DrawHeadingMarker(desiredHeading);

	push	ecx
	movss	xmm0, DWORD PTR _desiredHeading$[ebp]
	movss	DWORD PTR [esp], xmm0
	mov	ecx, DWORD PTR _this$[ebp]
	call	?DrawHeadingMarker@CPHsiView@@AAEXM@Z	; CPHsiView::DrawHeadingMarker

; 816  : 
; 817  : 	DrawAircraftSymbol();

	mov	ecx, DWORD PTR _this$[ebp]
	call	?DrawAircraftSymbol@CPHsiView@@AAEXXZ	; CPHsiView::DrawAircraftSymbol

; 818  : 
; 819  : 	if(crsWarnFlag) {

	cmp	DWORD PTR _crsWarnFlag$[ebp], 0
	je	SHORT $LN1@DisplayDra

; 820  : 		DrawCourseWarning();

	mov	ecx, DWORD PTR _this$[ebp]
	call	?DrawCourseWarning@CPHsiView@@AAEXXZ	; CPHsiView::DrawCourseWarning
$LN1@DisplayDra:

; 821  : 	}
; 822  : 
; 823  : 	mDirtyFlag = FALSE;

	mov	eax, DWORD PTR _this$[ebp]
	mov	DWORD PTR [eax+52], 0
$LN5@DisplayDra:

; 824  : }

	mov	esp, ebp
	pop	ebp
	ret	0
?DisplayDraw@CPHsiView@@UAEXXZ ENDP			; CPHsiView::DisplayDraw
_TEXT	ENDS
; Function compile flags: /Odtp
; File c:\users\zhitao li\documents\visual studio 2012\projects\freefalcon\sim\cockpit\cphsi.cpp
_TEXT	SEGMENT
_colorArrows$ = -16					; size = 4
_colorArrowGhost$ = -12					; size = 4
_crsToTrueFlag$ = -8					; size = 4
_this$ = -4						; size = 4
?DrawToFrom@CPHsiView@@AAEXXZ PROC			; CPHsiView::DrawToFrom
; _this$ = ecx

; 827  : void CPHsiView::DrawToFrom(void) {

	push	ebp
	mov	ebp, esp
	sub	esp, 16					; 00000010H
	mov	DWORD PTR _this$[ebp], ecx

; 828  : 
; 829  : 	static const float	toArrow[3][2] = {
; 830  : 		{ 0.055F,  0.12F - 0.25f},
; 831  : 		{ 0.157F,  0.00F - 0.25f},
; 832  : 		{ 0.055F, -0.12F - 0.25f},
; 833  : 	};
; 834  : 	BOOL	crsToTrueFlag		= mpHsi->GetFlag(CPHsi::HSI_FLAG_TO_TRUE);

	push	0
	mov	eax, DWORD PTR _this$[ebp]
	mov	ecx, DWORD PTR [eax+144]
	call	?GetFlag@CPHsi@@QAEHW4HSIFlags@1@@Z	; CPHsi::GetFlag
	mov	DWORD PTR _crsToTrueFlag$[ebp], eax

; 835  : 
; 836  : 	//MI
; 837  : 	if(g_bRealisticAvionics)

	movzx	ecx, BYTE PTR ?g_bRealisticAvionics@@3_NA ; g_bRealisticAvionics
	test	ecx, ecx
	je	SHORT $LN5@DrawToFrom

; 838  : 	{
; 839  : 		if(gNavigationSys)

	cmp	DWORD PTR ?gNavigationSys@@3PAVNavigationSystem@@A, 0 ; gNavigationSys
	je	SHORT $LN5@DrawToFrom

; 840  : 		{
; 841  : 			if(gNavigationSys->GetInstrumentMode() == NavigationSystem::NAV)

	mov	ecx, DWORD PTR ?gNavigationSys@@3PAVNavigationSystem@@A ; gNavigationSys
	call	?GetInstrumentMode@NavigationSystem@@QAE?AW4Instrument_Mode@1@XZ ; NavigationSystem::GetInstrumentMode
	test	eax, eax
	jne	SHORT $LN5@DrawToFrom

; 842  : 				crsToTrueFlag = FALSE;

	mov	DWORD PTR _crsToTrueFlag$[ebp], 0
$LN5@DrawToFrom:

; 843  : 		}
; 844  : 	}
; 845  : 
; 846  : 	//sfr: took the colors out of the ifs
; 847  : 	DWORD colorArrows = OTWDriver.pCockpitManager->ApplyLighting(mColor[0][HSI_COLOR_ARROWS], true);

	push	1
	mov	edx, 40					; 00000028H
	imul	edx, 0
	mov	eax, DWORD PTR _this$[ebp]
	lea	ecx, DWORD PTR [eax+edx+276]
	mov	edx, 4
	imul	edx, 0
	mov	eax, DWORD PTR [ecx+edx]
	push	eax
	mov	ecx, DWORD PTR ?OTWDriver@@3VOTWDriverClass@@A+33684
	call	?ApplyLighting@CockpitManager@@QAEKK_N@Z ; CockpitManager::ApplyLighting
	mov	DWORD PTR _colorArrows$[ebp], eax

; 848  : 	DWORD colorArrowGhost = OTWDriver.pCockpitManager->ApplyLighting(mColor[0][HSI_COLOR_ARROWGHOST], true);

	push	1
	mov	ecx, 40					; 00000028H
	imul	ecx, 0
	mov	edx, DWORD PTR _this$[ebp]
	lea	eax, DWORD PTR [edx+ecx+276]
	mov	ecx, 4
	shl	ecx, 0
	mov	edx, DWORD PTR [eax+ecx]
	push	edx
	mov	ecx, DWORD PTR ?OTWDriver@@3VOTWDriverClass@@A+33684
	call	?ApplyLighting@CockpitManager@@QAEKK_N@Z ; CockpitManager::ApplyLighting
	mov	DWORD PTR _colorArrowGhost$[ebp], eax

; 849  : 
; 850  : 	if(crsToTrueFlag == TRUE) {

	cmp	DWORD PTR _crsToTrueFlag$[ebp], 1
	jne	$LN4@DrawToFrom

; 851  : 		// Draw To-From Arrows
; 852  : 		OTWDriver.renderer->SetColor(colorArrows);

	mov	eax, DWORD PTR _colorArrows$[ebp]
	push	eax
	mov	ecx, DWORD PTR ?OTWDriver@@3VOTWDriverClass@@A+33576
	mov	edx, DWORD PTR [ecx]
	mov	ecx, DWORD PTR ?OTWDriver@@3VOTWDriverClass@@A+33576
	mov	eax, DWORD PTR [edx+92]
	call	eax

; 853  : 		OTWDriver.renderer->Tri(toArrow[0][0], toArrow[0][1], toArrow[1][0], toArrow[1][1],
; 854  : 				toArrow[2][0], toArrow[2][1]);

	mov	ecx, 8
	shl	ecx, 1
	mov	edx, 4
	shl	edx, 0
	push	ecx
	movss	xmm0, DWORD PTR ?toArrow@?1??DrawToFrom@CPHsiView@@AAEXXZ@4QAY01$$CBMA[ecx+edx]
	movss	DWORD PTR [esp], xmm0
	mov	eax, 8
	shl	eax, 1
	mov	ecx, 4
	imul	ecx, 0
	push	ecx
	movss	xmm0, DWORD PTR ?toArrow@?1??DrawToFrom@CPHsiView@@AAEXXZ@4QAY01$$CBMA[eax+ecx]
	movss	DWORD PTR [esp], xmm0
	mov	edx, 8
	shl	edx, 0
	mov	eax, 4
	shl	eax, 0
	push	ecx
	movss	xmm0, DWORD PTR ?toArrow@?1??DrawToFrom@CPHsiView@@AAEXXZ@4QAY01$$CBMA[edx+eax]
	movss	DWORD PTR [esp], xmm0
	mov	ecx, 8
	shl	ecx, 0
	mov	edx, 4
	imul	edx, 0
	push	ecx
	movss	xmm0, DWORD PTR ?toArrow@?1??DrawToFrom@CPHsiView@@AAEXXZ@4QAY01$$CBMA[ecx+edx]
	movss	DWORD PTR [esp], xmm0
	mov	eax, 8
	imul	eax, 0
	mov	ecx, 4
	shl	ecx, 0
	push	ecx
	movss	xmm0, DWORD PTR ?toArrow@?1??DrawToFrom@CPHsiView@@AAEXXZ@4QAY01$$CBMA[eax+ecx]
	movss	DWORD PTR [esp], xmm0
	mov	edx, 8
	imul	edx, 0
	mov	eax, 4
	imul	eax, 0
	push	ecx
	movss	xmm0, DWORD PTR ?toArrow@?1??DrawToFrom@CPHsiView@@AAEXXZ@4QAY01$$CBMA[edx+eax]
	movss	DWORD PTR [esp], xmm0
	mov	ecx, DWORD PTR ?OTWDriver@@3VOTWDriverClass@@A+33576
	mov	edx, DWORD PTR [ecx]
	mov	ecx, DWORD PTR ?OTWDriver@@3VOTWDriverClass@@A+33576
	mov	eax, DWORD PTR [edx+36]
	call	eax

; 855  : 		// draw ghost arrow
; 856  : 		OTWDriver.renderer->SetColor(colorArrowGhost);

	mov	ecx, DWORD PTR _colorArrowGhost$[ebp]
	push	ecx
	mov	edx, DWORD PTR ?OTWDriver@@3VOTWDriverClass@@A+33576
	mov	eax, DWORD PTR [edx]
	mov	ecx, DWORD PTR ?OTWDriver@@3VOTWDriverClass@@A+33576
	mov	edx, DWORD PTR [eax+92]
	call	edx

; 857  : 		OTWDriver.renderer->Line(-toArrow[0][0], toArrow[0][1], -toArrow[1][0], toArrow[1][1]);

	mov	eax, 8
	shl	eax, 0
	mov	ecx, 4
	shl	ecx, 0
	push	ecx
	movss	xmm0, DWORD PTR ?toArrow@?1??DrawToFrom@CPHsiView@@AAEXXZ@4QAY01$$CBMA[eax+ecx]
	movss	DWORD PTR [esp], xmm0
	mov	edx, 8
	shl	edx, 0
	mov	eax, 4
	imul	eax, 0
	movss	xmm0, DWORD PTR ?toArrow@?1??DrawToFrom@CPHsiView@@AAEXXZ@4QAY01$$CBMA[edx+eax]
	xorps	xmm0, DWORD PTR __xmm@80000000800000008000000080000000
	push	ecx
	movss	DWORD PTR [esp], xmm0
	mov	ecx, 8
	imul	ecx, 0
	mov	edx, 4
	shl	edx, 0
	push	ecx
	movss	xmm0, DWORD PTR ?toArrow@?1??DrawToFrom@CPHsiView@@AAEXXZ@4QAY01$$CBMA[ecx+edx]
	movss	DWORD PTR [esp], xmm0
	mov	eax, 8
	imul	eax, 0
	mov	ecx, 4
	imul	ecx, 0
	movss	xmm0, DWORD PTR ?toArrow@?1??DrawToFrom@CPHsiView@@AAEXXZ@4QAY01$$CBMA[eax+ecx]
	xorps	xmm0, DWORD PTR __xmm@80000000800000008000000080000000
	push	ecx
	movss	DWORD PTR [esp], xmm0
	mov	edx, DWORD PTR ?OTWDriver@@3VOTWDriverClass@@A+33576
	mov	eax, DWORD PTR [edx]
	mov	ecx, DWORD PTR ?OTWDriver@@3VOTWDriverClass@@A+33576
	mov	edx, DWORD PTR [eax+32]
	call	edx

; 858  : 		OTWDriver.renderer->Line(-toArrow[1][0], toArrow[1][1], -toArrow[2][0], toArrow[2][1]);

	mov	eax, 8
	shl	eax, 1
	mov	ecx, 4
	shl	ecx, 0
	push	ecx
	movss	xmm0, DWORD PTR ?toArrow@?1??DrawToFrom@CPHsiView@@AAEXXZ@4QAY01$$CBMA[eax+ecx]
	movss	DWORD PTR [esp], xmm0
	mov	edx, 8
	shl	edx, 1
	mov	eax, 4
	imul	eax, 0
	movss	xmm0, DWORD PTR ?toArrow@?1??DrawToFrom@CPHsiView@@AAEXXZ@4QAY01$$CBMA[edx+eax]
	xorps	xmm0, DWORD PTR __xmm@80000000800000008000000080000000
	push	ecx
	movss	DWORD PTR [esp], xmm0
	mov	ecx, 8
	shl	ecx, 0
	mov	edx, 4
	shl	edx, 0
	push	ecx
	movss	xmm0, DWORD PTR ?toArrow@?1??DrawToFrom@CPHsiView@@AAEXXZ@4QAY01$$CBMA[ecx+edx]
	movss	DWORD PTR [esp], xmm0
	mov	eax, 8
	shl	eax, 0
	mov	ecx, 4
	imul	ecx, 0
	movss	xmm0, DWORD PTR ?toArrow@?1??DrawToFrom@CPHsiView@@AAEXXZ@4QAY01$$CBMA[eax+ecx]
	xorps	xmm0, DWORD PTR __xmm@80000000800000008000000080000000
	push	ecx
	movss	DWORD PTR [esp], xmm0
	mov	edx, DWORD PTR ?OTWDriver@@3VOTWDriverClass@@A+33576
	mov	eax, DWORD PTR [edx]
	mov	ecx, DWORD PTR ?OTWDriver@@3VOTWDriverClass@@A+33576
	mov	edx, DWORD PTR [eax+32]
	call	edx

; 859  : 		OTWDriver.renderer->Line(-toArrow[2][0], toArrow[2][1], -toArrow[0][0], toArrow[0][1]);

	mov	eax, 8
	imul	eax, 0
	mov	ecx, 4
	shl	ecx, 0
	push	ecx
	movss	xmm0, DWORD PTR ?toArrow@?1??DrawToFrom@CPHsiView@@AAEXXZ@4QAY01$$CBMA[eax+ecx]
	movss	DWORD PTR [esp], xmm0
	mov	edx, 8
	imul	edx, 0
	mov	eax, 4
	imul	eax, 0
	movss	xmm0, DWORD PTR ?toArrow@?1??DrawToFrom@CPHsiView@@AAEXXZ@4QAY01$$CBMA[edx+eax]
	xorps	xmm0, DWORD PTR __xmm@80000000800000008000000080000000
	push	ecx
	movss	DWORD PTR [esp], xmm0
	mov	ecx, 8
	shl	ecx, 1
	mov	edx, 4
	shl	edx, 0
	push	ecx
	movss	xmm0, DWORD PTR ?toArrow@?1??DrawToFrom@CPHsiView@@AAEXXZ@4QAY01$$CBMA[ecx+edx]
	movss	DWORD PTR [esp], xmm0
	mov	eax, 8
	shl	eax, 1
	mov	ecx, 4
	imul	ecx, 0
	movss	xmm0, DWORD PTR ?toArrow@?1??DrawToFrom@CPHsiView@@AAEXXZ@4QAY01$$CBMA[eax+ecx]
	xorps	xmm0, DWORD PTR __xmm@80000000800000008000000080000000
	push	ecx
	movss	DWORD PTR [esp], xmm0
	mov	edx, DWORD PTR ?OTWDriver@@3VOTWDriverClass@@A+33576
	mov	eax, DWORD PTR [edx]
	mov	ecx, DWORD PTR ?OTWDriver@@3VOTWDriverClass@@A+33576
	mov	edx, DWORD PTR [eax+32]
	call	edx
	jmp	$LN1@DrawToFrom
$LN4@DrawToFrom:

; 860  : 
; 861  : 	}
; 862  : 	else if (crsToTrueFlag == 2) { 

	cmp	DWORD PTR _crsToTrueFlag$[ebp], 2
	jne	$LN2@DrawToFrom

; 863  : 		// from
; 864  : 		OTWDriver.renderer->SetColor(colorArrows);

	mov	eax, DWORD PTR _colorArrows$[ebp]
	push	eax
	mov	ecx, DWORD PTR ?OTWDriver@@3VOTWDriverClass@@A+33576
	mov	edx, DWORD PTR [ecx]
	mov	ecx, DWORD PTR ?OTWDriver@@3VOTWDriverClass@@A+33576
	mov	eax, DWORD PTR [edx+92]
	call	eax

; 865  : 		OTWDriver.renderer->Tri(-toArrow[0][0], toArrow[0][1], -toArrow[1][0], toArrow[1][1],
; 866  : 				-toArrow[2][0], toArrow[2][1]);

	mov	ecx, 8
	shl	ecx, 1
	mov	edx, 4
	shl	edx, 0
	push	ecx
	movss	xmm0, DWORD PTR ?toArrow@?1??DrawToFrom@CPHsiView@@AAEXXZ@4QAY01$$CBMA[ecx+edx]
	movss	DWORD PTR [esp], xmm0
	mov	eax, 8
	shl	eax, 1
	mov	ecx, 4
	imul	ecx, 0
	movss	xmm0, DWORD PTR ?toArrow@?1??DrawToFrom@CPHsiView@@AAEXXZ@4QAY01$$CBMA[eax+ecx]
	xorps	xmm0, DWORD PTR __xmm@80000000800000008000000080000000
	push	ecx
	movss	DWORD PTR [esp], xmm0
	mov	edx, 8
	shl	edx, 0
	mov	eax, 4
	shl	eax, 0
	push	ecx
	movss	xmm0, DWORD PTR ?toArrow@?1??DrawToFrom@CPHsiView@@AAEXXZ@4QAY01$$CBMA[edx+eax]
	movss	DWORD PTR [esp], xmm0
	mov	ecx, 8
	shl	ecx, 0
	mov	edx, 4
	imul	edx, 0
	movss	xmm0, DWORD PTR ?toArrow@?1??DrawToFrom@CPHsiView@@AAEXXZ@4QAY01$$CBMA[ecx+edx]
	xorps	xmm0, DWORD PTR __xmm@80000000800000008000000080000000
	push	ecx
	movss	DWORD PTR [esp], xmm0
	mov	eax, 8
	imul	eax, 0
	mov	ecx, 4
	shl	ecx, 0
	push	ecx
	movss	xmm0, DWORD PTR ?toArrow@?1??DrawToFrom@CPHsiView@@AAEXXZ@4QAY01$$CBMA[eax+ecx]
	movss	DWORD PTR [esp], xmm0
	mov	edx, 8
	imul	edx, 0
	mov	eax, 4
	imul	eax, 0
	movss	xmm0, DWORD PTR ?toArrow@?1??DrawToFrom@CPHsiView@@AAEXXZ@4QAY01$$CBMA[edx+eax]
	xorps	xmm0, DWORD PTR __xmm@80000000800000008000000080000000
	push	ecx
	movss	DWORD PTR [esp], xmm0
	mov	ecx, DWORD PTR ?OTWDriver@@3VOTWDriverClass@@A+33576
	mov	edx, DWORD PTR [ecx]
	mov	ecx, DWORD PTR ?OTWDriver@@3VOTWDriverClass@@A+33576
	mov	eax, DWORD PTR [edx+36]
	call	eax

; 867  : 		// draw ghost arrow
; 868  : 		OTWDriver.renderer->SetColor(colorArrowGhost);

	mov	ecx, DWORD PTR _colorArrowGhost$[ebp]
	push	ecx
	mov	edx, DWORD PTR ?OTWDriver@@3VOTWDriverClass@@A+33576
	mov	eax, DWORD PTR [edx]
	mov	ecx, DWORD PTR ?OTWDriver@@3VOTWDriverClass@@A+33576
	mov	edx, DWORD PTR [eax+92]
	call	edx

; 869  : 		OTWDriver.renderer->Line(toArrow[0][0], toArrow[0][1], toArrow[1][0], toArrow[1][1]);

	mov	eax, 8
	shl	eax, 0
	mov	ecx, 4
	shl	ecx, 0
	push	ecx
	movss	xmm0, DWORD PTR ?toArrow@?1??DrawToFrom@CPHsiView@@AAEXXZ@4QAY01$$CBMA[eax+ecx]
	movss	DWORD PTR [esp], xmm0
	mov	edx, 8
	shl	edx, 0
	mov	eax, 4
	imul	eax, 0
	push	ecx
	movss	xmm0, DWORD PTR ?toArrow@?1??DrawToFrom@CPHsiView@@AAEXXZ@4QAY01$$CBMA[edx+eax]
	movss	DWORD PTR [esp], xmm0
	mov	ecx, 8
	imul	ecx, 0
	mov	edx, 4
	shl	edx, 0
	push	ecx
	movss	xmm0, DWORD PTR ?toArrow@?1??DrawToFrom@CPHsiView@@AAEXXZ@4QAY01$$CBMA[ecx+edx]
	movss	DWORD PTR [esp], xmm0
	mov	eax, 8
	imul	eax, 0
	mov	ecx, 4
	imul	ecx, 0
	push	ecx
	movss	xmm0, DWORD PTR ?toArrow@?1??DrawToFrom@CPHsiView@@AAEXXZ@4QAY01$$CBMA[eax+ecx]
	movss	DWORD PTR [esp], xmm0
	mov	edx, DWORD PTR ?OTWDriver@@3VOTWDriverClass@@A+33576
	mov	eax, DWORD PTR [edx]
	mov	ecx, DWORD PTR ?OTWDriver@@3VOTWDriverClass@@A+33576
	mov	edx, DWORD PTR [eax+32]
	call	edx

; 870  : 		OTWDriver.renderer->Line(toArrow[1][0], toArrow[1][1], toArrow[2][0], toArrow[2][1]);

	mov	eax, 8
	shl	eax, 1
	mov	ecx, 4
	shl	ecx, 0
	push	ecx
	movss	xmm0, DWORD PTR ?toArrow@?1??DrawToFrom@CPHsiView@@AAEXXZ@4QAY01$$CBMA[eax+ecx]
	movss	DWORD PTR [esp], xmm0
	mov	edx, 8
	shl	edx, 1
	mov	eax, 4
	imul	eax, 0
	push	ecx
	movss	xmm0, DWORD PTR ?toArrow@?1??DrawToFrom@CPHsiView@@AAEXXZ@4QAY01$$CBMA[edx+eax]
	movss	DWORD PTR [esp], xmm0
	mov	ecx, 8
	shl	ecx, 0
	mov	edx, 4
	shl	edx, 0
	push	ecx
	movss	xmm0, DWORD PTR ?toArrow@?1??DrawToFrom@CPHsiView@@AAEXXZ@4QAY01$$CBMA[ecx+edx]
	movss	DWORD PTR [esp], xmm0
	mov	eax, 8
	shl	eax, 0
	mov	ecx, 4
	imul	ecx, 0
	push	ecx
	movss	xmm0, DWORD PTR ?toArrow@?1??DrawToFrom@CPHsiView@@AAEXXZ@4QAY01$$CBMA[eax+ecx]
	movss	DWORD PTR [esp], xmm0
	mov	edx, DWORD PTR ?OTWDriver@@3VOTWDriverClass@@A+33576
	mov	eax, DWORD PTR [edx]
	mov	ecx, DWORD PTR ?OTWDriver@@3VOTWDriverClass@@A+33576
	mov	edx, DWORD PTR [eax+32]
	call	edx

; 871  : 		OTWDriver.renderer->Line(toArrow[2][0], toArrow[2][1], toArrow[0][0], toArrow[0][1]);

	mov	eax, 8
	imul	eax, 0
	mov	ecx, 4
	shl	ecx, 0
	push	ecx
	movss	xmm0, DWORD PTR ?toArrow@?1??DrawToFrom@CPHsiView@@AAEXXZ@4QAY01$$CBMA[eax+ecx]
	movss	DWORD PTR [esp], xmm0
	mov	edx, 8
	imul	edx, 0
	mov	eax, 4
	imul	eax, 0
	push	ecx
	movss	xmm0, DWORD PTR ?toArrow@?1??DrawToFrom@CPHsiView@@AAEXXZ@4QAY01$$CBMA[edx+eax]
	movss	DWORD PTR [esp], xmm0
	mov	ecx, 8
	shl	ecx, 1
	mov	edx, 4
	shl	edx, 0
	push	ecx
	movss	xmm0, DWORD PTR ?toArrow@?1??DrawToFrom@CPHsiView@@AAEXXZ@4QAY01$$CBMA[ecx+edx]
	movss	DWORD PTR [esp], xmm0
	mov	eax, 8
	shl	eax, 1
	mov	ecx, 4
	imul	ecx, 0
	push	ecx
	movss	xmm0, DWORD PTR ?toArrow@?1??DrawToFrom@CPHsiView@@AAEXXZ@4QAY01$$CBMA[eax+ecx]
	movss	DWORD PTR [esp], xmm0
	mov	edx, DWORD PTR ?OTWDriver@@3VOTWDriverClass@@A+33576
	mov	eax, DWORD PTR [edx]
	mov	ecx, DWORD PTR ?OTWDriver@@3VOTWDriverClass@@A+33576
	mov	edx, DWORD PTR [eax+32]
	call	edx

; 872  : 	}
; 873  : 	else {

	jmp	$LN1@DrawToFrom
$LN2@DrawToFrom:

; 874  : 		OTWDriver.renderer->SetColor(colorArrowGhost);

	mov	eax, DWORD PTR _colorArrowGhost$[ebp]
	push	eax
	mov	ecx, DWORD PTR ?OTWDriver@@3VOTWDriverClass@@A+33576
	mov	edx, DWORD PTR [ecx]
	mov	ecx, DWORD PTR ?OTWDriver@@3VOTWDriverClass@@A+33576
	mov	eax, DWORD PTR [edx+92]
	call	eax

; 875  : 		// draw ghost arrow
; 876  : 		OTWDriver.renderer->Line(-toArrow[0][0], toArrow[0][1], -toArrow[1][0], toArrow[1][1]);

	mov	ecx, 8
	shl	ecx, 0
	mov	edx, 4
	shl	edx, 0
	push	ecx
	movss	xmm0, DWORD PTR ?toArrow@?1??DrawToFrom@CPHsiView@@AAEXXZ@4QAY01$$CBMA[ecx+edx]
	movss	DWORD PTR [esp], xmm0
	mov	eax, 8
	shl	eax, 0
	mov	ecx, 4
	imul	ecx, 0
	movss	xmm0, DWORD PTR ?toArrow@?1??DrawToFrom@CPHsiView@@AAEXXZ@4QAY01$$CBMA[eax+ecx]
	xorps	xmm0, DWORD PTR __xmm@80000000800000008000000080000000
	push	ecx
	movss	DWORD PTR [esp], xmm0
	mov	edx, 8
	imul	edx, 0
	mov	eax, 4
	shl	eax, 0
	push	ecx
	movss	xmm0, DWORD PTR ?toArrow@?1??DrawToFrom@CPHsiView@@AAEXXZ@4QAY01$$CBMA[edx+eax]
	movss	DWORD PTR [esp], xmm0
	mov	ecx, 8
	imul	ecx, 0
	mov	edx, 4
	imul	edx, 0
	movss	xmm0, DWORD PTR ?toArrow@?1??DrawToFrom@CPHsiView@@AAEXXZ@4QAY01$$CBMA[ecx+edx]
	xorps	xmm0, DWORD PTR __xmm@80000000800000008000000080000000
	push	ecx
	movss	DWORD PTR [esp], xmm0
	mov	eax, DWORD PTR ?OTWDriver@@3VOTWDriverClass@@A+33576
	mov	edx, DWORD PTR [eax]
	mov	ecx, DWORD PTR ?OTWDriver@@3VOTWDriverClass@@A+33576
	mov	eax, DWORD PTR [edx+32]
	call	eax

; 877  : 		OTWDriver.renderer->Line(-toArrow[1][0], toArrow[1][1], -toArrow[2][0], toArrow[2][1]);

	mov	ecx, 8
	shl	ecx, 1
	mov	edx, 4
	shl	edx, 0
	push	ecx
	movss	xmm0, DWORD PTR ?toArrow@?1??DrawToFrom@CPHsiView@@AAEXXZ@4QAY01$$CBMA[ecx+edx]
	movss	DWORD PTR [esp], xmm0
	mov	eax, 8
	shl	eax, 1
	mov	ecx, 4
	imul	ecx, 0
	movss	xmm0, DWORD PTR ?toArrow@?1??DrawToFrom@CPHsiView@@AAEXXZ@4QAY01$$CBMA[eax+ecx]
	xorps	xmm0, DWORD PTR __xmm@80000000800000008000000080000000
	push	ecx
	movss	DWORD PTR [esp], xmm0
	mov	edx, 8
	shl	edx, 0
	mov	eax, 4
	shl	eax, 0
	push	ecx
	movss	xmm0, DWORD PTR ?toArrow@?1??DrawToFrom@CPHsiView@@AAEXXZ@4QAY01$$CBMA[edx+eax]
	movss	DWORD PTR [esp], xmm0
	mov	ecx, 8
	shl	ecx, 0
	mov	edx, 4
	imul	edx, 0
	movss	xmm0, DWORD PTR ?toArrow@?1??DrawToFrom@CPHsiView@@AAEXXZ@4QAY01$$CBMA[ecx+edx]
	xorps	xmm0, DWORD PTR __xmm@80000000800000008000000080000000
	push	ecx
	movss	DWORD PTR [esp], xmm0
	mov	eax, DWORD PTR ?OTWDriver@@3VOTWDriverClass@@A+33576
	mov	edx, DWORD PTR [eax]
	mov	ecx, DWORD PTR ?OTWDriver@@3VOTWDriverClass@@A+33576
	mov	eax, DWORD PTR [edx+32]
	call	eax

; 878  : 		OTWDriver.renderer->Line(-toArrow[2][0], toArrow[2][1], -toArrow[0][0], toArrow[0][1]);

	mov	ecx, 8
	imul	ecx, 0
	mov	edx, 4
	shl	edx, 0
	push	ecx
	movss	xmm0, DWORD PTR ?toArrow@?1??DrawToFrom@CPHsiView@@AAEXXZ@4QAY01$$CBMA[ecx+edx]
	movss	DWORD PTR [esp], xmm0
	mov	eax, 8
	imul	eax, 0
	mov	ecx, 4
	imul	ecx, 0
	movss	xmm0, DWORD PTR ?toArrow@?1??DrawToFrom@CPHsiView@@AAEXXZ@4QAY01$$CBMA[eax+ecx]
	xorps	xmm0, DWORD PTR __xmm@80000000800000008000000080000000
	push	ecx
	movss	DWORD PTR [esp], xmm0
	mov	edx, 8
	shl	edx, 1
	mov	eax, 4
	shl	eax, 0
	push	ecx
	movss	xmm0, DWORD PTR ?toArrow@?1??DrawToFrom@CPHsiView@@AAEXXZ@4QAY01$$CBMA[edx+eax]
	movss	DWORD PTR [esp], xmm0
	mov	ecx, 8
	shl	ecx, 1
	mov	edx, 4
	imul	edx, 0
	movss	xmm0, DWORD PTR ?toArrow@?1??DrawToFrom@CPHsiView@@AAEXXZ@4QAY01$$CBMA[ecx+edx]
	xorps	xmm0, DWORD PTR __xmm@80000000800000008000000080000000
	push	ecx
	movss	DWORD PTR [esp], xmm0
	mov	eax, DWORD PTR ?OTWDriver@@3VOTWDriverClass@@A+33576
	mov	edx, DWORD PTR [eax]
	mov	ecx, DWORD PTR ?OTWDriver@@3VOTWDriverClass@@A+33576
	mov	eax, DWORD PTR [edx+32]
	call	eax

; 879  : 		// draw ghost arrow
; 880  : 		OTWDriver.renderer->Line(toArrow[0][0], toArrow[0][1], toArrow[1][0], toArrow[1][1]);

	mov	ecx, 8
	shl	ecx, 0
	mov	edx, 4
	shl	edx, 0
	push	ecx
	movss	xmm0, DWORD PTR ?toArrow@?1??DrawToFrom@CPHsiView@@AAEXXZ@4QAY01$$CBMA[ecx+edx]
	movss	DWORD PTR [esp], xmm0
	mov	eax, 8
	shl	eax, 0
	mov	ecx, 4
	imul	ecx, 0
	push	ecx
	movss	xmm0, DWORD PTR ?toArrow@?1??DrawToFrom@CPHsiView@@AAEXXZ@4QAY01$$CBMA[eax+ecx]
	movss	DWORD PTR [esp], xmm0
	mov	edx, 8
	imul	edx, 0
	mov	eax, 4
	shl	eax, 0
	push	ecx
	movss	xmm0, DWORD PTR ?toArrow@?1??DrawToFrom@CPHsiView@@AAEXXZ@4QAY01$$CBMA[edx+eax]
	movss	DWORD PTR [esp], xmm0
	mov	ecx, 8
	imul	ecx, 0
	mov	edx, 4
	imul	edx, 0
	push	ecx
	movss	xmm0, DWORD PTR ?toArrow@?1??DrawToFrom@CPHsiView@@AAEXXZ@4QAY01$$CBMA[ecx+edx]
	movss	DWORD PTR [esp], xmm0
	mov	eax, DWORD PTR ?OTWDriver@@3VOTWDriverClass@@A+33576
	mov	edx, DWORD PTR [eax]
	mov	ecx, DWORD PTR ?OTWDriver@@3VOTWDriverClass@@A+33576
	mov	eax, DWORD PTR [edx+32]
	call	eax

; 881  : 		OTWDriver.renderer->Line(toArrow[1][0], toArrow[1][1], toArrow[2][0], toArrow[2][1]);

	mov	ecx, 8
	shl	ecx, 1
	mov	edx, 4
	shl	edx, 0
	push	ecx
	movss	xmm0, DWORD PTR ?toArrow@?1??DrawToFrom@CPHsiView@@AAEXXZ@4QAY01$$CBMA[ecx+edx]
	movss	DWORD PTR [esp], xmm0
	mov	eax, 8
	shl	eax, 1
	mov	ecx, 4
	imul	ecx, 0
	push	ecx
	movss	xmm0, DWORD PTR ?toArrow@?1??DrawToFrom@CPHsiView@@AAEXXZ@4QAY01$$CBMA[eax+ecx]
	movss	DWORD PTR [esp], xmm0
	mov	edx, 8
	shl	edx, 0
	mov	eax, 4
	shl	eax, 0
	push	ecx
	movss	xmm0, DWORD PTR ?toArrow@?1??DrawToFrom@CPHsiView@@AAEXXZ@4QAY01$$CBMA[edx+eax]
	movss	DWORD PTR [esp], xmm0
	mov	ecx, 8
	shl	ecx, 0
	mov	edx, 4
	imul	edx, 0
	push	ecx
	movss	xmm0, DWORD PTR ?toArrow@?1??DrawToFrom@CPHsiView@@AAEXXZ@4QAY01$$CBMA[ecx+edx]
	movss	DWORD PTR [esp], xmm0
	mov	eax, DWORD PTR ?OTWDriver@@3VOTWDriverClass@@A+33576
	mov	edx, DWORD PTR [eax]
	mov	ecx, DWORD PTR ?OTWDriver@@3VOTWDriverClass@@A+33576
	mov	eax, DWORD PTR [edx+32]
	call	eax

; 882  : 		OTWDriver.renderer->Line(toArrow[2][0], toArrow[2][1], toArrow[0][0], toArrow[0][1]);

	mov	ecx, 8
	imul	ecx, 0
	mov	edx, 4
	shl	edx, 0
	push	ecx
	movss	xmm0, DWORD PTR ?toArrow@?1??DrawToFrom@CPHsiView@@AAEXXZ@4QAY01$$CBMA[ecx+edx]
	movss	DWORD PTR [esp], xmm0
	mov	eax, 8
	imul	eax, 0
	mov	ecx, 4
	imul	ecx, 0
	push	ecx
	movss	xmm0, DWORD PTR ?toArrow@?1??DrawToFrom@CPHsiView@@AAEXXZ@4QAY01$$CBMA[eax+ecx]
	movss	DWORD PTR [esp], xmm0
	mov	edx, 8
	shl	edx, 1
	mov	eax, 4
	shl	eax, 0
	push	ecx
	movss	xmm0, DWORD PTR ?toArrow@?1??DrawToFrom@CPHsiView@@AAEXXZ@4QAY01$$CBMA[edx+eax]
	movss	DWORD PTR [esp], xmm0
	mov	ecx, 8
	shl	ecx, 1
	mov	edx, 4
	imul	edx, 0
	push	ecx
	movss	xmm0, DWORD PTR ?toArrow@?1??DrawToFrom@CPHsiView@@AAEXXZ@4QAY01$$CBMA[ecx+edx]
	movss	DWORD PTR [esp], xmm0
	mov	eax, DWORD PTR ?OTWDriver@@3VOTWDriverClass@@A+33576
	mov	edx, DWORD PTR [eax]
	mov	ecx, DWORD PTR ?OTWDriver@@3VOTWDriverClass@@A+33576
	mov	eax, DWORD PTR [edx+32]
	call	eax
$LN1@DrawToFrom:

; 883  : 	}
; 884  : }

	mov	esp, ebp
	pop	ebp
	ret	0
?DrawToFrom@CPHsiView@@AAEXXZ ENDP			; CPHsiView::DrawToFrom
_TEXT	ENDS
; Function compile flags: /Odtp
; File c:\users\zhitao li\documents\visual studio 2012\projects\freefalcon\sim\cockpit\cphsi.cpp
_TEXT	SEGMENT
_color$ = -8						; size = 4
_this$ = -4						; size = 4
?DrawCourseWarning@CPHsiView@@AAEXXZ PROC		; CPHsiView::DrawCourseWarning
; _this$ = ecx

; 887  : void CPHsiView::DrawCourseWarning(void) {

	push	ebp
	mov	ebp, esp
	sub	esp, 8
	mov	DWORD PTR _this$[ebp], ecx

; 888  : 
; 889  : 	OTWDriver.renderer->SetViewport(-1.0F, 1.0F, 1.0F, -1.0F);

	push	ecx
	movss	xmm0, DWORD PTR __real@bf800000
	movss	DWORD PTR [esp], xmm0
	push	ecx
	movss	xmm0, DWORD PTR __real@3f800000
	movss	DWORD PTR [esp], xmm0
	push	ecx
	movss	xmm0, DWORD PTR __real@3f800000
	movss	DWORD PTR [esp], xmm0
	push	ecx
	movss	xmm0, DWORD PTR __real@bf800000
	movss	DWORD PTR [esp], xmm0
	mov	eax, DWORD PTR ?OTWDriver@@3VOTWDriverClass@@A+33576
	mov	edx, DWORD PTR [eax]
	mov	ecx, DWORD PTR ?OTWDriver@@3VOTWDriverClass@@A+33576
	mov	eax, DWORD PTR [edx+112]
	call	eax

; 890  : 	DWORD color = OTWDriver.pCockpitManager->ApplyLighting(mColor[0][HSI_COLOR_COURSEWARN], true);

	push	1
	mov	ecx, 40					; 00000028H
	imul	ecx, 0
	mov	edx, DWORD PTR _this$[ebp]
	lea	eax, DWORD PTR [edx+ecx+276]
	mov	ecx, 4
	shl	ecx, 1
	mov	edx, DWORD PTR [eax+ecx]
	push	edx
	mov	ecx, DWORD PTR ?OTWDriver@@3VOTWDriverClass@@A+33684
	call	?ApplyLighting@CockpitManager@@QAEKK_N@Z ; CockpitManager::ApplyLighting
	mov	DWORD PTR _color$[ebp], eax

; 891  : 	OTWDriver.renderer->SetColor(color);

	mov	eax, DWORD PTR _color$[ebp]
	push	eax
	mov	ecx, DWORD PTR ?OTWDriver@@3VOTWDriverClass@@A+33576
	mov	edx, DWORD PTR [ecx]
	mov	ecx, DWORD PTR ?OTWDriver@@3VOTWDriverClass@@A+33576
	mov	eax, DWORD PTR [edx+92]
	call	eax

; 892  : 	OTWDriver.renderer->Render2DTri((float)mWarnFlag.left, (float)mWarnFlag.top,
; 893  : 			(float)mWarnFlag.right, (float)mWarnFlag.top,
; 894  : 			(float)mWarnFlag.right, (float)mWarnFlag.bottom);

	mov	ecx, DWORD PTR _this$[ebp]
	cvtsi2ss xmm0, DWORD PTR [ecx+244]
	push	ecx
	movss	DWORD PTR [esp], xmm0
	mov	edx, DWORD PTR _this$[ebp]
	cvtsi2ss xmm0, DWORD PTR [edx+240]
	push	ecx
	movss	DWORD PTR [esp], xmm0
	mov	eax, DWORD PTR _this$[ebp]
	cvtsi2ss xmm0, DWORD PTR [eax+236]
	push	ecx
	movss	DWORD PTR [esp], xmm0
	mov	ecx, DWORD PTR _this$[ebp]
	cvtsi2ss xmm0, DWORD PTR [ecx+240]
	push	ecx
	movss	DWORD PTR [esp], xmm0
	mov	edx, DWORD PTR _this$[ebp]
	cvtsi2ss xmm0, DWORD PTR [edx+236]
	push	ecx
	movss	DWORD PTR [esp], xmm0
	mov	eax, DWORD PTR _this$[ebp]
	cvtsi2ss xmm0, DWORD PTR [eax+232]
	push	ecx
	movss	DWORD PTR [esp], xmm0
	mov	ecx, DWORD PTR ?OTWDriver@@3VOTWDriverClass@@A+33576
	mov	edx, DWORD PTR [ecx]
	mov	ecx, DWORD PTR ?OTWDriver@@3VOTWDriverClass@@A+33576
	mov	eax, DWORD PTR [edx+128]
	call	eax

; 895  : 	OTWDriver.renderer->Render2DTri((float)mWarnFlag.left, (float)mWarnFlag.top,
; 896  : 			(float)mWarnFlag.left, (float)mWarnFlag.bottom,
; 897  : 			(float)mWarnFlag.right, (float)mWarnFlag.bottom);

	mov	ecx, DWORD PTR _this$[ebp]
	cvtsi2ss xmm0, DWORD PTR [ecx+244]
	push	ecx
	movss	DWORD PTR [esp], xmm0
	mov	edx, DWORD PTR _this$[ebp]
	cvtsi2ss xmm0, DWORD PTR [edx+240]
	push	ecx
	movss	DWORD PTR [esp], xmm0
	mov	eax, DWORD PTR _this$[ebp]
	cvtsi2ss xmm0, DWORD PTR [eax+244]
	push	ecx
	movss	DWORD PTR [esp], xmm0
	mov	ecx, DWORD PTR _this$[ebp]
	cvtsi2ss xmm0, DWORD PTR [ecx+232]
	push	ecx
	movss	DWORD PTR [esp], xmm0
	mov	edx, DWORD PTR _this$[ebp]
	cvtsi2ss xmm0, DWORD PTR [edx+236]
	push	ecx
	movss	DWORD PTR [esp], xmm0
	mov	eax, DWORD PTR _this$[ebp]
	cvtsi2ss xmm0, DWORD PTR [eax+232]
	push	ecx
	movss	DWORD PTR [esp], xmm0
	mov	ecx, DWORD PTR ?OTWDriver@@3VOTWDriverClass@@A+33576
	mov	edx, DWORD PTR [ecx]
	mov	ecx, DWORD PTR ?OTWDriver@@3VOTWDriverClass@@A+33576
	mov	eax, DWORD PTR [edx+128]
	call	eax

; 898  : 
; 899  : }

	mov	esp, ebp
	pop	ebp
	ret	0
?DrawCourseWarning@CPHsiView@@AAEXXZ ENDP		; CPHsiView::DrawCourseWarning
_TEXT	ENDS
; Function compile flags: /Odtp
; File c:\users\zhitao li\documents\visual studio 2012\projects\freefalcon\sim\cockpit\cphsi.cpp
_TEXT	SEGMENT
_color$ = -16						; size = 4
tv217 = -12						; size = 4
_currentHeading$ = -8					; size = 4
_this$ = -4						; size = 4
_desiredHeading$ = 8					; size = 4
?DrawHeadingMarker@CPHsiView@@AAEXM@Z PROC		; CPHsiView::DrawHeadingMarker
; _this$ = ecx

; 902  : void CPHsiView::DrawHeadingMarker(float desiredHeading) {

	push	ebp
	mov	ebp, esp
	sub	esp, 16					; 00000010H
	mov	DWORD PTR _this$[ebp], ecx

; 903  : 
; 904  : 	static const float	headingMarker[2][2] = {
; 905  : 		{0.56F, 0.04F},
; 906  : 		{0.61F, 0.04F},
; 907  : 	};
; 908  : 	float	currentHeading = mpHsi->GetValue(CPHsi::HSI_VAL_CURRENT_HEADING);

	push	4
	mov	eax, DWORD PTR _this$[ebp]
	mov	ecx, DWORD PTR [eax+144]
	call	?GetValue@CPHsi@@QAEMW4HSIValues@1@@Z	; CPHsi::GetValue
	fstp	DWORD PTR _currentHeading$[ebp]

; 909  : 
; 910  : 	MoveToCompassCenter();

	mov	ecx, DWORD PTR _this$[ebp]
	call	?MoveToCompassCenter@CPHsiView@@AAEXXZ	; CPHsiView::MoveToCompassCenter

; 911  : 
; 912  : 
; 913  : 	OTWDriver.renderer->AdjustRotationAboutOrigin(-ConvertNavtoRad(360.0F - currentHeading + desiredHeading));

	movss	xmm0, DWORD PTR __real@43b40000
	subss	xmm0, DWORD PTR _currentHeading$[ebp]
	addss	xmm0, DWORD PTR _desiredHeading$[ebp]
	push	ecx
	movss	DWORD PTR [esp], xmm0
	call	?ConvertNavtoRad@@YAMM@Z		; ConvertNavtoRad
	add	esp, 4
	fstp	DWORD PTR tv217[ebp]
	movss	xmm0, DWORD PTR tv217[ebp]
	xorps	xmm0, DWORD PTR __xmm@80000000800000008000000080000000
	push	ecx
	movss	DWORD PTR [esp], xmm0
	mov	ecx, DWORD PTR ?OTWDriver@@3VOTWDriverClass@@A+33576
	call	?AdjustRotationAboutOrigin@VirtualDisplay@@QAEXM@Z ; VirtualDisplay::AdjustRotationAboutOrigin

; 914  : 	DWORD color = OTWDriver.pCockpitManager->ApplyLighting(mColor[0][HSI_COLOR_HEADINGMARK], true);

	push	1
	mov	ecx, 40					; 00000028H
	imul	ecx, 0
	mov	edx, DWORD PTR _this$[ebp]
	lea	eax, DWORD PTR [edx+ecx+276]
	mov	ecx, 4
	imul	ecx, 3
	mov	edx, DWORD PTR [eax+ecx]
	push	edx
	mov	ecx, DWORD PTR ?OTWDriver@@3VOTWDriverClass@@A+33684
	call	?ApplyLighting@CockpitManager@@QAEKK_N@Z ; CockpitManager::ApplyLighting
	mov	DWORD PTR _color$[ebp], eax

; 915  : 	OTWDriver.renderer->SetColor(color);

	mov	eax, DWORD PTR _color$[ebp]
	push	eax
	mov	ecx, DWORD PTR ?OTWDriver@@3VOTWDriverClass@@A+33576
	mov	edx, DWORD PTR [ecx]
	mov	ecx, DWORD PTR ?OTWDriver@@3VOTWDriverClass@@A+33576
	mov	eax, DWORD PTR [edx+92]
	call	eax

; 916  : 
; 917  : 	// draw tail
; 918  : 	OTWDriver.renderer->Tri(headingMarker[0][0], headingMarker[0][1], headingMarker[1][0], headingMarker[1][1],
; 919  : 			headingMarker[1][0], -headingMarker[1][1]);

	mov	ecx, 8
	shl	ecx, 0
	mov	edx, 4
	shl	edx, 0
	movss	xmm0, DWORD PTR ?headingMarker@?1??DrawHeadingMarker@CPHsiView@@AAEXM@Z@4QAY01$$CBMA[ecx+edx]
	xorps	xmm0, DWORD PTR __xmm@80000000800000008000000080000000
	push	ecx
	movss	DWORD PTR [esp], xmm0
	mov	eax, 8
	shl	eax, 0
	mov	ecx, 4
	imul	ecx, 0
	push	ecx
	movss	xmm0, DWORD PTR ?headingMarker@?1??DrawHeadingMarker@CPHsiView@@AAEXM@Z@4QAY01$$CBMA[eax+ecx]
	movss	DWORD PTR [esp], xmm0
	mov	edx, 8
	shl	edx, 0
	mov	eax, 4
	shl	eax, 0
	push	ecx
	movss	xmm0, DWORD PTR ?headingMarker@?1??DrawHeadingMarker@CPHsiView@@AAEXM@Z@4QAY01$$CBMA[edx+eax]
	movss	DWORD PTR [esp], xmm0
	mov	ecx, 8
	shl	ecx, 0
	mov	edx, 4
	imul	edx, 0
	push	ecx
	movss	xmm0, DWORD PTR ?headingMarker@?1??DrawHeadingMarker@CPHsiView@@AAEXM@Z@4QAY01$$CBMA[ecx+edx]
	movss	DWORD PTR [esp], xmm0
	mov	eax, 8
	imul	eax, 0
	mov	ecx, 4
	shl	ecx, 0
	push	ecx
	movss	xmm0, DWORD PTR ?headingMarker@?1??DrawHeadingMarker@CPHsiView@@AAEXM@Z@4QAY01$$CBMA[eax+ecx]
	movss	DWORD PTR [esp], xmm0
	mov	edx, 8
	imul	edx, 0
	mov	eax, 4
	imul	eax, 0
	push	ecx
	movss	xmm0, DWORD PTR ?headingMarker@?1??DrawHeadingMarker@CPHsiView@@AAEXM@Z@4QAY01$$CBMA[edx+eax]
	movss	DWORD PTR [esp], xmm0
	mov	ecx, DWORD PTR ?OTWDriver@@3VOTWDriverClass@@A+33576
	mov	edx, DWORD PTR [ecx]
	mov	ecx, DWORD PTR ?OTWDriver@@3VOTWDriverClass@@A+33576
	mov	eax, DWORD PTR [edx+36]
	call	eax

; 920  : 	OTWDriver.renderer->Tri(headingMarker[0][0], headingMarker[0][1], headingMarker[1][0], -headingMarker[1][1],
; 921  : 			headingMarker[0][0], -headingMarker[0][1]);

	mov	ecx, 8
	imul	ecx, 0
	mov	edx, 4
	shl	edx, 0
	movss	xmm0, DWORD PTR ?headingMarker@?1??DrawHeadingMarker@CPHsiView@@AAEXM@Z@4QAY01$$CBMA[ecx+edx]
	xorps	xmm0, DWORD PTR __xmm@80000000800000008000000080000000
	push	ecx
	movss	DWORD PTR [esp], xmm0
	mov	eax, 8
	imul	eax, 0
	mov	ecx, 4
	imul	ecx, 0
	push	ecx
	movss	xmm0, DWORD PTR ?headingMarker@?1??DrawHeadingMarker@CPHsiView@@AAEXM@Z@4QAY01$$CBMA[eax+ecx]
	movss	DWORD PTR [esp], xmm0
	mov	edx, 8
	shl	edx, 0
	mov	eax, 4
	shl	eax, 0
	movss	xmm0, DWORD PTR ?headingMarker@?1??DrawHeadingMarker@CPHsiView@@AAEXM@Z@4QAY01$$CBMA[edx+eax]
	xorps	xmm0, DWORD PTR __xmm@80000000800000008000000080000000
	push	ecx
	movss	DWORD PTR [esp], xmm0
	mov	ecx, 8
	shl	ecx, 0
	mov	edx, 4
	imul	edx, 0
	push	ecx
	movss	xmm0, DWORD PTR ?headingMarker@?1??DrawHeadingMarker@CPHsiView@@AAEXM@Z@4QAY01$$CBMA[ecx+edx]
	movss	DWORD PTR [esp], xmm0
	mov	eax, 8
	imul	eax, 0
	mov	ecx, 4
	shl	ecx, 0
	push	ecx
	movss	xmm0, DWORD PTR ?headingMarker@?1??DrawHeadingMarker@CPHsiView@@AAEXM@Z@4QAY01$$CBMA[eax+ecx]
	movss	DWORD PTR [esp], xmm0
	mov	edx, 8
	imul	edx, 0
	mov	eax, 4
	imul	eax, 0
	push	ecx
	movss	xmm0, DWORD PTR ?headingMarker@?1??DrawHeadingMarker@CPHsiView@@AAEXM@Z@4QAY01$$CBMA[edx+eax]
	movss	DWORD PTR [esp], xmm0
	mov	ecx, DWORD PTR ?OTWDriver@@3VOTWDriverClass@@A+33576
	mov	edx, DWORD PTR [ecx]
	mov	ecx, DWORD PTR ?OTWDriver@@3VOTWDriverClass@@A+33576
	mov	eax, DWORD PTR [edx+36]
	call	eax

; 922  : 
; 923  : }

	mov	esp, ebp
	pop	ebp
	ret	4
?DrawHeadingMarker@CPHsiView@@AAEXM@Z ENDP		; CPHsiView::DrawHeadingMarker
_TEXT	ENDS
; Function compile flags: /Odtp
; File c:\users\zhitao li\documents\visual studio 2012\projects\freefalcon\sim\cockpit\cphsi.cpp
_TEXT	SEGMENT
_color$ = -8						; size = 4
_this$ = -4						; size = 4
?DrawAircraftSymbol@CPHsiView@@AAEXXZ PROC		; CPHsiView::DrawAircraftSymbol
; _this$ = ecx

; 1094 : void CPHsiView::DrawAircraftSymbol(void) {

	push	ebp
	mov	ebp, esp
	sub	esp, 8
	mov	DWORD PTR _this$[ebp], ecx

; 1095 : 
; 1096 : 	static const float	aircraftSymbol[10][2] = {
; 1097 : 		{0.017F, 0.133F},
; 1098 : 		{0.133F, 0.017F},
; 1099 : 		{0.067F, -0.133F},
; 1100 : 		{0.067F, -0.158F},
; 1101 : 		{0.017F, -0.2F},
; 1102 : 	};
; 1103 : 
; 1104 : 
; 1105 : 	MoveToCompassCenter();

	mov	ecx, DWORD PTR _this$[ebp]
	call	?MoveToCompassCenter@CPHsiView@@AAEXXZ	; CPHsiView::MoveToCompassCenter

; 1106 : 
; 1107 : 	//transform the color using cockpit light
; 1108 : 	DWORD color = OTWDriver.pCockpitManager->ApplyLighting(mColor[0][HSI_COLOR_AIRCRAFT], true);

	push	1
	mov	eax, 40					; 00000028H
	imul	eax, 0
	mov	ecx, DWORD PTR _this$[ebp]
	lea	edx, DWORD PTR [ecx+eax+276]
	mov	eax, 4
	imul	eax, 6
	mov	ecx, DWORD PTR [edx+eax]
	push	ecx
	mov	ecx, DWORD PTR ?OTWDriver@@3VOTWDriverClass@@A+33684
	call	?ApplyLighting@CockpitManager@@QAEKK_N@Z ; CockpitManager::ApplyLighting
	mov	DWORD PTR _color$[ebp], eax

; 1109 : 	OTWDriver.renderer->SetColor(color);

	mov	edx, DWORD PTR _color$[ebp]
	push	edx
	mov	eax, DWORD PTR ?OTWDriver@@3VOTWDriverClass@@A+33576
	mov	edx, DWORD PTR [eax]
	mov	ecx, DWORD PTR ?OTWDriver@@3VOTWDriverClass@@A+33576
	mov	eax, DWORD PTR [edx+92]
	call	eax

; 1110 : 
; 1111 : 	// draw the aircraft symbol
; 1112 : 	OTWDriver.renderer->Tri(-aircraftSymbol[0][0], aircraftSymbol[0][1], aircraftSymbol[0][0], aircraftSymbol[0][1],
; 1113 : 			aircraftSymbol[4][0], aircraftSymbol[4][1]);

	mov	ecx, 8
	shl	ecx, 2
	mov	edx, 4
	shl	edx, 0
	push	ecx
	movss	xmm0, DWORD PTR ?aircraftSymbol@?1??DrawAircraftSymbol@CPHsiView@@AAEXXZ@4QAY01$$CBMA[ecx+edx]
	movss	DWORD PTR [esp], xmm0
	mov	eax, 8
	shl	eax, 2
	mov	ecx, 4
	imul	ecx, 0
	push	ecx
	movss	xmm0, DWORD PTR ?aircraftSymbol@?1??DrawAircraftSymbol@CPHsiView@@AAEXXZ@4QAY01$$CBMA[eax+ecx]
	movss	DWORD PTR [esp], xmm0
	mov	edx, 8
	imul	edx, 0
	mov	eax, 4
	shl	eax, 0
	push	ecx
	movss	xmm0, DWORD PTR ?aircraftSymbol@?1??DrawAircraftSymbol@CPHsiView@@AAEXXZ@4QAY01$$CBMA[edx+eax]
	movss	DWORD PTR [esp], xmm0
	mov	ecx, 8
	imul	ecx, 0
	mov	edx, 4
	imul	edx, 0
	push	ecx
	movss	xmm0, DWORD PTR ?aircraftSymbol@?1??DrawAircraftSymbol@CPHsiView@@AAEXXZ@4QAY01$$CBMA[ecx+edx]
	movss	DWORD PTR [esp], xmm0
	mov	eax, 8
	imul	eax, 0
	mov	ecx, 4
	shl	ecx, 0
	push	ecx
	movss	xmm0, DWORD PTR ?aircraftSymbol@?1??DrawAircraftSymbol@CPHsiView@@AAEXXZ@4QAY01$$CBMA[eax+ecx]
	movss	DWORD PTR [esp], xmm0
	mov	edx, 8
	imul	edx, 0
	mov	eax, 4
	imul	eax, 0
	movss	xmm0, DWORD PTR ?aircraftSymbol@?1??DrawAircraftSymbol@CPHsiView@@AAEXXZ@4QAY01$$CBMA[edx+eax]
	xorps	xmm0, DWORD PTR __xmm@80000000800000008000000080000000
	push	ecx
	movss	DWORD PTR [esp], xmm0
	mov	ecx, DWORD PTR ?OTWDriver@@3VOTWDriverClass@@A+33576
	mov	edx, DWORD PTR [ecx]
	mov	ecx, DWORD PTR ?OTWDriver@@3VOTWDriverClass@@A+33576
	mov	eax, DWORD PTR [edx+36]
	call	eax

; 1114 : 	OTWDriver.renderer->Tri(-aircraftSymbol[0][0], aircraftSymbol[0][1], aircraftSymbol[4][0], aircraftSymbol[4][1],
; 1115 : 			-aircraftSymbol[4][0], aircraftSymbol[4][1]);

	mov	ecx, 8
	shl	ecx, 2
	mov	edx, 4
	shl	edx, 0
	push	ecx
	movss	xmm0, DWORD PTR ?aircraftSymbol@?1??DrawAircraftSymbol@CPHsiView@@AAEXXZ@4QAY01$$CBMA[ecx+edx]
	movss	DWORD PTR [esp], xmm0
	mov	eax, 8
	shl	eax, 2
	mov	ecx, 4
	imul	ecx, 0
	movss	xmm0, DWORD PTR ?aircraftSymbol@?1??DrawAircraftSymbol@CPHsiView@@AAEXXZ@4QAY01$$CBMA[eax+ecx]
	xorps	xmm0, DWORD PTR __xmm@80000000800000008000000080000000
	push	ecx
	movss	DWORD PTR [esp], xmm0
	mov	edx, 8
	shl	edx, 2
	mov	eax, 4
	shl	eax, 0
	push	ecx
	movss	xmm0, DWORD PTR ?aircraftSymbol@?1??DrawAircraftSymbol@CPHsiView@@AAEXXZ@4QAY01$$CBMA[edx+eax]
	movss	DWORD PTR [esp], xmm0
	mov	ecx, 8
	shl	ecx, 2
	mov	edx, 4
	imul	edx, 0
	push	ecx
	movss	xmm0, DWORD PTR ?aircraftSymbol@?1??DrawAircraftSymbol@CPHsiView@@AAEXXZ@4QAY01$$CBMA[ecx+edx]
	movss	DWORD PTR [esp], xmm0
	mov	eax, 8
	imul	eax, 0
	mov	ecx, 4
	shl	ecx, 0
	push	ecx
	movss	xmm0, DWORD PTR ?aircraftSymbol@?1??DrawAircraftSymbol@CPHsiView@@AAEXXZ@4QAY01$$CBMA[eax+ecx]
	movss	DWORD PTR [esp], xmm0
	mov	edx, 8
	imul	edx, 0
	mov	eax, 4
	imul	eax, 0
	movss	xmm0, DWORD PTR ?aircraftSymbol@?1??DrawAircraftSymbol@CPHsiView@@AAEXXZ@4QAY01$$CBMA[edx+eax]
	xorps	xmm0, DWORD PTR __xmm@80000000800000008000000080000000
	push	ecx
	movss	DWORD PTR [esp], xmm0
	mov	ecx, DWORD PTR ?OTWDriver@@3VOTWDriverClass@@A+33576
	mov	edx, DWORD PTR [ecx]
	mov	ecx, DWORD PTR ?OTWDriver@@3VOTWDriverClass@@A+33576
	mov	eax, DWORD PTR [edx+36]
	call	eax

; 1116 : 	OTWDriver.renderer->Tri(-aircraftSymbol[1][0], aircraftSymbol[1][1], aircraftSymbol[1][0], aircraftSymbol[1][1],
; 1117 : 			aircraftSymbol[1][0], -aircraftSymbol[1][1]);

	mov	ecx, 8
	shl	ecx, 0
	mov	edx, 4
	shl	edx, 0
	movss	xmm0, DWORD PTR ?aircraftSymbol@?1??DrawAircraftSymbol@CPHsiView@@AAEXXZ@4QAY01$$CBMA[ecx+edx]
	xorps	xmm0, DWORD PTR __xmm@80000000800000008000000080000000
	push	ecx
	movss	DWORD PTR [esp], xmm0
	mov	eax, 8
	shl	eax, 0
	mov	ecx, 4
	imul	ecx, 0
	push	ecx
	movss	xmm0, DWORD PTR ?aircraftSymbol@?1??DrawAircraftSymbol@CPHsiView@@AAEXXZ@4QAY01$$CBMA[eax+ecx]
	movss	DWORD PTR [esp], xmm0
	mov	edx, 8
	shl	edx, 0
	mov	eax, 4
	shl	eax, 0
	push	ecx
	movss	xmm0, DWORD PTR ?aircraftSymbol@?1??DrawAircraftSymbol@CPHsiView@@AAEXXZ@4QAY01$$CBMA[edx+eax]
	movss	DWORD PTR [esp], xmm0
	mov	ecx, 8
	shl	ecx, 0
	mov	edx, 4
	imul	edx, 0
	push	ecx
	movss	xmm0, DWORD PTR ?aircraftSymbol@?1??DrawAircraftSymbol@CPHsiView@@AAEXXZ@4QAY01$$CBMA[ecx+edx]
	movss	DWORD PTR [esp], xmm0
	mov	eax, 8
	shl	eax, 0
	mov	ecx, 4
	shl	ecx, 0
	push	ecx
	movss	xmm0, DWORD PTR ?aircraftSymbol@?1??DrawAircraftSymbol@CPHsiView@@AAEXXZ@4QAY01$$CBMA[eax+ecx]
	movss	DWORD PTR [esp], xmm0
	mov	edx, 8
	shl	edx, 0
	mov	eax, 4
	imul	eax, 0
	movss	xmm0, DWORD PTR ?aircraftSymbol@?1??DrawAircraftSymbol@CPHsiView@@AAEXXZ@4QAY01$$CBMA[edx+eax]
	xorps	xmm0, DWORD PTR __xmm@80000000800000008000000080000000
	push	ecx
	movss	DWORD PTR [esp], xmm0
	mov	ecx, DWORD PTR ?OTWDriver@@3VOTWDriverClass@@A+33576
	mov	edx, DWORD PTR [ecx]
	mov	ecx, DWORD PTR ?OTWDriver@@3VOTWDriverClass@@A+33576
	mov	eax, DWORD PTR [edx+36]
	call	eax

; 1118 : 	OTWDriver.renderer->Tri(-aircraftSymbol[1][0], aircraftSymbol[1][1], aircraftSymbol[1][0], -aircraftSymbol[1][1],
; 1119 : 			-aircraftSymbol[1][0], -aircraftSymbol[1][1]);

	mov	ecx, 8
	shl	ecx, 0
	mov	edx, 4
	shl	edx, 0
	movss	xmm0, DWORD PTR ?aircraftSymbol@?1??DrawAircraftSymbol@CPHsiView@@AAEXXZ@4QAY01$$CBMA[ecx+edx]
	xorps	xmm0, DWORD PTR __xmm@80000000800000008000000080000000
	push	ecx
	movss	DWORD PTR [esp], xmm0
	mov	eax, 8
	shl	eax, 0
	mov	ecx, 4
	imul	ecx, 0
	movss	xmm0, DWORD PTR ?aircraftSymbol@?1??DrawAircraftSymbol@CPHsiView@@AAEXXZ@4QAY01$$CBMA[eax+ecx]
	xorps	xmm0, DWORD PTR __xmm@80000000800000008000000080000000
	push	ecx
	movss	DWORD PTR [esp], xmm0
	mov	edx, 8
	shl	edx, 0
	mov	eax, 4
	shl	eax, 0
	movss	xmm0, DWORD PTR ?aircraftSymbol@?1??DrawAircraftSymbol@CPHsiView@@AAEXXZ@4QAY01$$CBMA[edx+eax]
	xorps	xmm0, DWORD PTR __xmm@80000000800000008000000080000000
	push	ecx
	movss	DWORD PTR [esp], xmm0
	mov	ecx, 8
	shl	ecx, 0
	mov	edx, 4
	imul	edx, 0
	push	ecx
	movss	xmm0, DWORD PTR ?aircraftSymbol@?1??DrawAircraftSymbol@CPHsiView@@AAEXXZ@4QAY01$$CBMA[ecx+edx]
	movss	DWORD PTR [esp], xmm0
	mov	eax, 8
	shl	eax, 0
	mov	ecx, 4
	shl	ecx, 0
	push	ecx
	movss	xmm0, DWORD PTR ?aircraftSymbol@?1??DrawAircraftSymbol@CPHsiView@@AAEXXZ@4QAY01$$CBMA[eax+ecx]
	movss	DWORD PTR [esp], xmm0
	mov	edx, 8
	shl	edx, 0
	mov	eax, 4
	imul	eax, 0
	movss	xmm0, DWORD PTR ?aircraftSymbol@?1??DrawAircraftSymbol@CPHsiView@@AAEXXZ@4QAY01$$CBMA[edx+eax]
	xorps	xmm0, DWORD PTR __xmm@80000000800000008000000080000000
	push	ecx
	movss	DWORD PTR [esp], xmm0
	mov	ecx, DWORD PTR ?OTWDriver@@3VOTWDriverClass@@A+33576
	mov	edx, DWORD PTR [ecx]
	mov	ecx, DWORD PTR ?OTWDriver@@3VOTWDriverClass@@A+33576
	mov	eax, DWORD PTR [edx+36]
	call	eax

; 1120 : 	OTWDriver.renderer->Tri(-aircraftSymbol[2][0], aircraftSymbol[2][1], aircraftSymbol[2][0], aircraftSymbol[2][1],
; 1121 : 			aircraftSymbol[3][0], aircraftSymbol[3][1]);

	mov	ecx, 8
	imul	ecx, 3
	mov	edx, 4
	shl	edx, 0
	push	ecx
	movss	xmm0, DWORD PTR ?aircraftSymbol@?1??DrawAircraftSymbol@CPHsiView@@AAEXXZ@4QAY01$$CBMA[ecx+edx]
	movss	DWORD PTR [esp], xmm0
	mov	eax, 8
	imul	eax, 3
	mov	ecx, 4
	imul	ecx, 0
	push	ecx
	movss	xmm0, DWORD PTR ?aircraftSymbol@?1??DrawAircraftSymbol@CPHsiView@@AAEXXZ@4QAY01$$CBMA[eax+ecx]
	movss	DWORD PTR [esp], xmm0
	mov	edx, 8
	shl	edx, 1
	mov	eax, 4
	shl	eax, 0
	push	ecx
	movss	xmm0, DWORD PTR ?aircraftSymbol@?1??DrawAircraftSymbol@CPHsiView@@AAEXXZ@4QAY01$$CBMA[edx+eax]
	movss	DWORD PTR [esp], xmm0
	mov	ecx, 8
	shl	ecx, 1
	mov	edx, 4
	imul	edx, 0
	push	ecx
	movss	xmm0, DWORD PTR ?aircraftSymbol@?1??DrawAircraftSymbol@CPHsiView@@AAEXXZ@4QAY01$$CBMA[ecx+edx]
	movss	DWORD PTR [esp], xmm0
	mov	eax, 8
	shl	eax, 1
	mov	ecx, 4
	shl	ecx, 0
	push	ecx
	movss	xmm0, DWORD PTR ?aircraftSymbol@?1??DrawAircraftSymbol@CPHsiView@@AAEXXZ@4QAY01$$CBMA[eax+ecx]
	movss	DWORD PTR [esp], xmm0
	mov	edx, 8
	shl	edx, 1
	mov	eax, 4
	imul	eax, 0
	movss	xmm0, DWORD PTR ?aircraftSymbol@?1??DrawAircraftSymbol@CPHsiView@@AAEXXZ@4QAY01$$CBMA[edx+eax]
	xorps	xmm0, DWORD PTR __xmm@80000000800000008000000080000000
	push	ecx
	movss	DWORD PTR [esp], xmm0
	mov	ecx, DWORD PTR ?OTWDriver@@3VOTWDriverClass@@A+33576
	mov	edx, DWORD PTR [ecx]
	mov	ecx, DWORD PTR ?OTWDriver@@3VOTWDriverClass@@A+33576
	mov	eax, DWORD PTR [edx+36]
	call	eax

; 1122 : 	OTWDriver.renderer->Tri(-aircraftSymbol[2][0], aircraftSymbol[2][1], aircraftSymbol[3][0], aircraftSymbol[3][1],
; 1123 : 			-aircraftSymbol[3][0], aircraftSymbol[3][1]);

	mov	ecx, 8
	imul	ecx, 3
	mov	edx, 4
	shl	edx, 0
	push	ecx
	movss	xmm0, DWORD PTR ?aircraftSymbol@?1??DrawAircraftSymbol@CPHsiView@@AAEXXZ@4QAY01$$CBMA[ecx+edx]
	movss	DWORD PTR [esp], xmm0
	mov	eax, 8
	imul	eax, 3
	mov	ecx, 4
	imul	ecx, 0
	movss	xmm0, DWORD PTR ?aircraftSymbol@?1??DrawAircraftSymbol@CPHsiView@@AAEXXZ@4QAY01$$CBMA[eax+ecx]
	xorps	xmm0, DWORD PTR __xmm@80000000800000008000000080000000
	push	ecx
	movss	DWORD PTR [esp], xmm0
	mov	edx, 8
	imul	edx, 3
	mov	eax, 4
	shl	eax, 0
	push	ecx
	movss	xmm0, DWORD PTR ?aircraftSymbol@?1??DrawAircraftSymbol@CPHsiView@@AAEXXZ@4QAY01$$CBMA[edx+eax]
	movss	DWORD PTR [esp], xmm0
	mov	ecx, 8
	imul	ecx, 3
	mov	edx, 4
	imul	edx, 0
	push	ecx
	movss	xmm0, DWORD PTR ?aircraftSymbol@?1??DrawAircraftSymbol@CPHsiView@@AAEXXZ@4QAY01$$CBMA[ecx+edx]
	movss	DWORD PTR [esp], xmm0
	mov	eax, 8
	shl	eax, 1
	mov	ecx, 4
	shl	ecx, 0
	push	ecx
	movss	xmm0, DWORD PTR ?aircraftSymbol@?1??DrawAircraftSymbol@CPHsiView@@AAEXXZ@4QAY01$$CBMA[eax+ecx]
	movss	DWORD PTR [esp], xmm0
	mov	edx, 8
	shl	edx, 1
	mov	eax, 4
	imul	eax, 0
	movss	xmm0, DWORD PTR ?aircraftSymbol@?1??DrawAircraftSymbol@CPHsiView@@AAEXXZ@4QAY01$$CBMA[edx+eax]
	xorps	xmm0, DWORD PTR __xmm@80000000800000008000000080000000
	push	ecx
	movss	DWORD PTR [esp], xmm0
	mov	ecx, DWORD PTR ?OTWDriver@@3VOTWDriverClass@@A+33576
	mov	edx, DWORD PTR [ecx]
	mov	ecx, DWORD PTR ?OTWDriver@@3VOTWDriverClass@@A+33576
