; Listing generated by Microsoft (R) Optimizing Compiler Version 17.00.51106.1 

	TITLE	C:\Users\Zhitao Li\Documents\Visual Studio 2012\Projects\Freefalcon\SIM\Cockpit\cpkneeview.cpp
	.686P
	.XMM
	include listing.inc
	.model	flat

INCLUDELIB LIBCMT
INCLUDELIB OLDNAMES

PUBLIC	?min_exponent@?$numeric_limits@M@std@@2HB	; std::numeric_limits<float>::min_exponent
PUBLIC	?min_exponent10@?$numeric_limits@M@std@@2HB	; std::numeric_limits<float>::min_exponent10
PUBLIC	?digits@?$numeric_limits@N@std@@2HB		; std::numeric_limits<double>::digits
PUBLIC	?digits10@?$numeric_limits@N@std@@2HB		; std::numeric_limits<double>::digits10
PUBLIC	?max_digits10@?$numeric_limits@N@std@@2HB	; std::numeric_limits<double>::max_digits10
PUBLIC	?max_exponent@?$numeric_limits@N@std@@2HB	; std::numeric_limits<double>::max_exponent
PUBLIC	?max_exponent10@?$numeric_limits@N@std@@2HB	; std::numeric_limits<double>::max_exponent10
PUBLIC	?min_exponent@?$numeric_limits@N@std@@2HB	; std::numeric_limits<double>::min_exponent
PUBLIC	?min_exponent10@?$numeric_limits@N@std@@2HB	; std::numeric_limits<double>::min_exponent10
PUBLIC	?digits@?$numeric_limits@O@std@@2HB		; std::numeric_limits<long double>::digits
PUBLIC	?digits10@?$numeric_limits@O@std@@2HB		; std::numeric_limits<long double>::digits10
PUBLIC	?max_digits10@?$numeric_limits@O@std@@2HB	; std::numeric_limits<long double>::max_digits10
PUBLIC	?max_exponent@?$numeric_limits@O@std@@2HB	; std::numeric_limits<long double>::max_exponent
PUBLIC	?max_exponent10@?$numeric_limits@O@std@@2HB	; std::numeric_limits<long double>::max_exponent10
PUBLIC	?min_exponent@?$numeric_limits@O@std@@2HB	; std::numeric_limits<long double>::min_exponent
PUBLIC	?min_exponent10@?$numeric_limits@O@std@@2HB	; std::numeric_limits<long double>::min_exponent10
PUBLIC	?skipws@?$_Iosb@H@std@@2W4_Fmtflags@12@B	; std::_Iosb<int>::skipws
PUBLIC	?unitbuf@?$_Iosb@H@std@@2W4_Fmtflags@12@B	; std::_Iosb<int>::unitbuf
PUBLIC	?uppercase@?$_Iosb@H@std@@2W4_Fmtflags@12@B	; std::_Iosb<int>::uppercase
PUBLIC	?showbase@?$_Iosb@H@std@@2W4_Fmtflags@12@B	; std::_Iosb<int>::showbase
PUBLIC	?showpoint@?$_Iosb@H@std@@2W4_Fmtflags@12@B	; std::_Iosb<int>::showpoint
PUBLIC	?showpos@?$_Iosb@H@std@@2W4_Fmtflags@12@B	; std::_Iosb<int>::showpos
PUBLIC	?left@?$_Iosb@H@std@@2W4_Fmtflags@12@B		; std::_Iosb<int>::left
PUBLIC	?right@?$_Iosb@H@std@@2W4_Fmtflags@12@B		; std::_Iosb<int>::right
PUBLIC	?internal@?$_Iosb@H@std@@2W4_Fmtflags@12@B	; std::_Iosb<int>::internal
PUBLIC	?dec@?$_Iosb@H@std@@2W4_Fmtflags@12@B		; std::_Iosb<int>::dec
PUBLIC	?oct@?$_Iosb@H@std@@2W4_Fmtflags@12@B		; std::_Iosb<int>::oct
PUBLIC	?hex@?$_Iosb@H@std@@2W4_Fmtflags@12@B		; std::_Iosb<int>::hex
PUBLIC	?scientific@?$_Iosb@H@std@@2W4_Fmtflags@12@B	; std::_Iosb<int>::scientific
PUBLIC	?fixed@?$_Iosb@H@std@@2W4_Fmtflags@12@B		; std::_Iosb<int>::fixed
PUBLIC	?hexfloat@?$_Iosb@H@std@@2W4_Fmtflags@12@B	; std::_Iosb<int>::hexfloat
PUBLIC	?boolalpha@?$_Iosb@H@std@@2W4_Fmtflags@12@B	; std::_Iosb<int>::boolalpha
PUBLIC	?_Stdio@?$_Iosb@H@std@@2W4_Fmtflags@12@B	; std::_Iosb<int>::_Stdio
PUBLIC	?adjustfield@?$_Iosb@H@std@@2W4_Fmtflags@12@B	; std::_Iosb<int>::adjustfield
PUBLIC	?basefield@?$_Iosb@H@std@@2W4_Fmtflags@12@B	; std::_Iosb<int>::basefield
PUBLIC	?floatfield@?$_Iosb@H@std@@2W4_Fmtflags@12@B	; std::_Iosb<int>::floatfield
PUBLIC	?goodbit@?$_Iosb@H@std@@2W4_Iostate@12@B	; std::_Iosb<int>::goodbit
PUBLIC	?eofbit@?$_Iosb@H@std@@2W4_Iostate@12@B		; std::_Iosb<int>::eofbit
PUBLIC	?failbit@?$_Iosb@H@std@@2W4_Iostate@12@B	; std::_Iosb<int>::failbit
PUBLIC	?value@?$_Sizeof@U_Nil@std@@U12@U12@U12@U12@U12@U12@U12@@std@@2IB ; std::_Sizeof<std::_Nil,std::_Nil,std::_Nil,std::_Nil,std::_Nil,std::_Nil,std::_Nil,std::_Nil>::value
PUBLIC	?badbit@?$_Iosb@H@std@@2W4_Iostate@12@B		; std::_Iosb<int>::badbit
PUBLIC	?_Hardfail@?$_Iosb@H@std@@2W4_Iostate@12@B	; std::_Iosb<int>::_Hardfail
PUBLIC	?in@?$_Iosb@H@std@@2W4_Openmode@12@B		; std::_Iosb<int>::in
PUBLIC	?out@?$_Iosb@H@std@@2W4_Openmode@12@B		; std::_Iosb<int>::out
PUBLIC	?ate@?$_Iosb@H@std@@2W4_Openmode@12@B		; std::_Iosb<int>::ate
PUBLIC	?app@?$_Iosb@H@std@@2W4_Openmode@12@B		; std::_Iosb<int>::app
PUBLIC	?trunc@?$_Iosb@H@std@@2W4_Openmode@12@B		; std::_Iosb<int>::trunc
PUBLIC	?_Nocreate@?$_Iosb@H@std@@2W4_Openmode@12@B	; std::_Iosb<int>::_Nocreate
PUBLIC	?_Noreplace@?$_Iosb@H@std@@2W4_Openmode@12@B	; std::_Iosb<int>::_Noreplace
PUBLIC	?binary@?$_Iosb@H@std@@2W4_Openmode@12@B	; std::_Iosb<int>::binary
PUBLIC	?beg@?$_Iosb@H@std@@2W4_Seekdir@12@B		; std::_Iosb<int>::beg
PUBLIC	?cur@?$_Iosb@H@std@@2W4_Seekdir@12@B		; std::_Iosb<int>::cur
PUBLIC	?end@?$_Iosb@H@std@@2W4_Seekdir@12@B		; std::_Iosb<int>::end
PUBLIC	?_Stream_err@failure@ios_base@std@@0W4io_errc@43@B ; std::ios_base::failure::_Stream_err
PUBLIC	?has_denorm@_Num_base@std@@2W4float_denorm_style@2@B ; std::_Num_base::has_denorm
PUBLIC	?has_denorm_loss@_Num_base@std@@2_NB		; std::_Num_base::has_denorm_loss
PUBLIC	?has_infinity@_Num_base@std@@2_NB		; std::_Num_base::has_infinity
PUBLIC	?has_quiet_NaN@_Num_base@std@@2_NB		; std::_Num_base::has_quiet_NaN
PUBLIC	?has_signaling_NaN@_Num_base@std@@2_NB		; std::_Num_base::has_signaling_NaN
PUBLIC	?is_bounded@_Num_base@std@@2_NB			; std::_Num_base::is_bounded
PUBLIC	?is_exact@_Num_base@std@@2_NB			; std::_Num_base::is_exact
PUBLIC	?is_iec559@_Num_base@std@@2_NB			; std::_Num_base::is_iec559
PUBLIC	?is_integer@_Num_base@std@@2_NB			; std::_Num_base::is_integer
PUBLIC	?is_modulo@_Num_base@std@@2_NB			; std::_Num_base::is_modulo
PUBLIC	?is_signed@_Num_base@std@@2_NB			; std::_Num_base::is_signed
PUBLIC	?is_specialized@_Num_base@std@@2_NB		; std::_Num_base::is_specialized
PUBLIC	?tinyness_before@_Num_base@std@@2_NB		; std::_Num_base::tinyness_before
PUBLIC	?traps@_Num_base@std@@2_NB			; std::_Num_base::traps
PUBLIC	?round_style@_Num_base@std@@2W4float_round_style@2@B ; std::_Num_base::round_style
PUBLIC	?digits@_Num_base@std@@2HB			; std::_Num_base::digits
PUBLIC	?digits10@_Num_base@std@@2HB			; std::_Num_base::digits10
PUBLIC	?max_digits10@_Num_base@std@@2HB		; std::_Num_base::max_digits10
PUBLIC	?max_exponent@_Num_base@std@@2HB		; std::_Num_base::max_exponent
PUBLIC	?max_exponent10@_Num_base@std@@2HB		; std::_Num_base::max_exponent10
PUBLIC	?min_exponent@_Num_base@std@@2HB		; std::_Num_base::min_exponent
PUBLIC	?min_exponent10@_Num_base@std@@2HB		; std::_Num_base::min_exponent10
PUBLIC	?radix@_Num_base@std@@2HB			; std::_Num_base::radix
PUBLIC	?is_bounded@_Num_int_base@std@@2_NB		; std::_Num_int_base::is_bounded
PUBLIC	?is_exact@_Num_int_base@std@@2_NB		; std::_Num_int_base::is_exact
PUBLIC	?is_integer@_Num_int_base@std@@2_NB		; std::_Num_int_base::is_integer
PUBLIC	?is_modulo@_Num_int_base@std@@2_NB		; std::_Num_int_base::is_modulo
PUBLIC	?is_specialized@_Num_int_base@std@@2_NB		; std::_Num_int_base::is_specialized
PUBLIC	?radix@_Num_int_base@std@@2HB			; std::_Num_int_base::radix
PUBLIC	?has_denorm@_Num_float_base@std@@2W4float_denorm_style@2@B ; std::_Num_float_base::has_denorm
PUBLIC	?has_denorm_loss@_Num_float_base@std@@2_NB	; std::_Num_float_base::has_denorm_loss
PUBLIC	?has_infinity@_Num_float_base@std@@2_NB		; std::_Num_float_base::has_infinity
PUBLIC	?has_quiet_NaN@_Num_float_base@std@@2_NB	; std::_Num_float_base::has_quiet_NaN
PUBLIC	?has_signaling_NaN@_Num_float_base@std@@2_NB	; std::_Num_float_base::has_signaling_NaN
PUBLIC	?is_bounded@_Num_float_base@std@@2_NB		; std::_Num_float_base::is_bounded
PUBLIC	?is_exact@_Num_float_base@std@@2_NB		; std::_Num_float_base::is_exact
PUBLIC	?is_iec559@_Num_float_base@std@@2_NB		; std::_Num_float_base::is_iec559
PUBLIC	?is_integer@_Num_float_base@std@@2_NB		; std::_Num_float_base::is_integer
PUBLIC	?is_modulo@_Num_float_base@std@@2_NB		; std::_Num_float_base::is_modulo
PUBLIC	?is_signed@_Num_float_base@std@@2_NB		; std::_Num_float_base::is_signed
PUBLIC	?is_specialized@_Num_float_base@std@@2_NB	; std::_Num_float_base::is_specialized
PUBLIC	?tinyness_before@_Num_float_base@std@@2_NB	; std::_Num_float_base::tinyness_before
PUBLIC	?traps@_Num_float_base@std@@2_NB		; std::_Num_float_base::traps
PUBLIC	?round_style@_Num_float_base@std@@2W4float_round_style@2@B ; std::_Num_float_base::round_style
PUBLIC	?radix@_Num_float_base@std@@2HB			; std::_Num_float_base::radix
PUBLIC	?is_signed@?$numeric_limits@D@std@@2_NB		; std::numeric_limits<char>::is_signed
PUBLIC	?digits@?$numeric_limits@D@std@@2HB		; std::numeric_limits<char>::digits
PUBLIC	?digits10@?$numeric_limits@D@std@@2HB		; std::numeric_limits<char>::digits10
PUBLIC	?value@?$integral_constant@_N$0A@@std@@2_NB	; std::integral_constant<bool,0>::value
PUBLIC	?is_signed@?$numeric_limits@_W@std@@2_NB	; std::numeric_limits<wchar_t>::is_signed
PUBLIC	?digits@?$numeric_limits@_W@std@@2HB		; std::numeric_limits<wchar_t>::digits
PUBLIC	?digits10@?$numeric_limits@_W@std@@2HB		; std::numeric_limits<wchar_t>::digits10
PUBLIC	?value@?$integral_constant@_N$00@std@@2_NB	; std::integral_constant<bool,1>::value
PUBLIC	?is_modulo@?$numeric_limits@_N@std@@2_NB	; std::numeric_limits<bool>::is_modulo
PUBLIC	?is_signed@?$numeric_limits@_N@std@@2_NB	; std::numeric_limits<bool>::is_signed
PUBLIC	?digits@?$numeric_limits@_N@std@@2HB		; std::numeric_limits<bool>::digits
PUBLIC	?digits10@?$numeric_limits@_N@std@@2HB		; std::numeric_limits<bool>::digits10
PUBLIC	?collate@?$_Locbase@H@std@@2HB			; std::_Locbase<int>::collate
PUBLIC	?ctype@?$_Locbase@H@std@@2HB			; std::_Locbase<int>::ctype
PUBLIC	?monetary@?$_Locbase@H@std@@2HB			; std::_Locbase<int>::monetary
PUBLIC	?numeric@?$_Locbase@H@std@@2HB			; std::_Locbase<int>::numeric
PUBLIC	?time@?$_Locbase@H@std@@2HB			; std::_Locbase<int>::time
PUBLIC	?messages@?$_Locbase@H@std@@2HB			; std::_Locbase<int>::messages
PUBLIC	?all@?$_Locbase@H@std@@2HB			; std::_Locbase<int>::all
PUBLIC	?none@?$_Locbase@H@std@@2HB			; std::_Locbase<int>::none
PUBLIC	?is_signed@?$numeric_limits@C@std@@2_NB		; std::numeric_limits<signed char>::is_signed
PUBLIC	?digits@?$numeric_limits@C@std@@2HB		; std::numeric_limits<signed char>::digits
PUBLIC	?digits10@?$numeric_limits@C@std@@2HB		; std::numeric_limits<signed char>::digits10
PUBLIC	?is_signed@?$numeric_limits@E@std@@2_NB		; std::numeric_limits<unsigned char>::is_signed
PUBLIC	?digits@?$numeric_limits@E@std@@2HB		; std::numeric_limits<unsigned char>::digits
PUBLIC	?digits10@?$numeric_limits@E@std@@2HB		; std::numeric_limits<unsigned char>::digits10
PUBLIC	?value@?$_Sizeof@HU_Nil@std@@U12@U12@U12@U12@U12@U12@@std@@2IB ; std::_Sizeof<int,std::_Nil,std::_Nil,std::_Nil,std::_Nil,std::_Nil,std::_Nil,std::_Nil>::value
PUBLIC	?is_signed@?$numeric_limits@F@std@@2_NB		; std::numeric_limits<short>::is_signed
PUBLIC	?digits@?$numeric_limits@F@std@@2HB		; std::numeric_limits<short>::digits
PUBLIC	?digits10@?$numeric_limits@F@std@@2HB		; std::numeric_limits<short>::digits10
PUBLIC	?table_size@?$ctype@D@std@@2IB			; std::ctype<char>::table_size
PUBLIC	?is_signed@?$numeric_limits@G@std@@2_NB		; std::numeric_limits<unsigned short>::is_signed
PUBLIC	?digits@?$numeric_limits@G@std@@2HB		; std::numeric_limits<unsigned short>::digits
PUBLIC	?digits10@?$numeric_limits@G@std@@2HB		; std::numeric_limits<unsigned short>::digits10
PUBLIC	__GUID_00000000_0000_0000_0000_000000000000
PUBLIC	?is_signed@?$numeric_limits@H@std@@2_NB		; std::numeric_limits<int>::is_signed
PUBLIC	?digits@?$numeric_limits@H@std@@2HB		; std::numeric_limits<int>::digits
PUBLIC	?digits10@?$numeric_limits@H@std@@2HB		; std::numeric_limits<int>::digits10
PUBLIC	?is_signed@?$numeric_limits@I@std@@2_NB		; std::numeric_limits<unsigned int>::is_signed
PUBLIC	?digits@?$numeric_limits@I@std@@2HB		; std::numeric_limits<unsigned int>::digits
PUBLIC	?digits10@?$numeric_limits@I@std@@2HB		; std::numeric_limits<unsigned int>::digits10
PUBLIC	?SIMDIRTYDATA_INTERVAL@FalconEntity@@2KB	; FalconEntity::SIMDIRTYDATA_INTERVAL
PUBLIC	?CMPDIRTYDATA_INTERVAL@FalconEntity@@2KB	; FalconEntity::CMPDIRTYDATA_INTERVAL
PUBLIC	?is_signed@?$numeric_limits@J@std@@2_NB		; std::numeric_limits<long>::is_signed
PUBLIC	?digits@?$numeric_limits@J@std@@2HB		; std::numeric_limits<long>::digits
PUBLIC	?digits10@?$numeric_limits@J@std@@2HB		; std::numeric_limits<long>::digits10
PUBLIC	?is_signed@?$numeric_limits@K@std@@2_NB		; std::numeric_limits<unsigned long>::is_signed
PUBLIC	?digits@?$numeric_limits@K@std@@2HB		; std::numeric_limits<unsigned long>::digits
PUBLIC	?digits10@?$numeric_limits@K@std@@2HB		; std::numeric_limits<unsigned long>::digits10
PUBLIC	?is_signed@?$numeric_limits@_J@std@@2_NB	; std::numeric_limits<__int64>::is_signed
PUBLIC	?digits@?$numeric_limits@_J@std@@2HB		; std::numeric_limits<__int64>::digits
PUBLIC	?digits10@?$numeric_limits@_J@std@@2HB		; std::numeric_limits<__int64>::digits10
PUBLIC	?value@?$integral_constant@I$0A@@std@@2IB	; std::integral_constant<unsigned int,0>::value
PUBLIC	?is_signed@?$numeric_limits@_K@std@@2_NB	; std::numeric_limits<unsigned __int64>::is_signed
PUBLIC	?digits@?$numeric_limits@_K@std@@2HB		; std::numeric_limits<unsigned __int64>::digits
PUBLIC	?digits10@?$numeric_limits@_K@std@@2HB		; std::numeric_limits<unsigned __int64>::digits10
PUBLIC	?digits@?$numeric_limits@M@std@@2HB		; std::numeric_limits<float>::digits
PUBLIC	?digits10@?$numeric_limits@M@std@@2HB		; std::numeric_limits<float>::digits10
PUBLIC	?max_digits10@?$numeric_limits@M@std@@2HB	; std::numeric_limits<float>::max_digits10
PUBLIC	?max_exponent@?$numeric_limits@M@std@@2HB	; std::numeric_limits<float>::max_exponent
PUBLIC	?max_exponent10@?$numeric_limits@M@std@@2HB	; std::numeric_limits<float>::max_exponent10
;	COMDAT ?max_exponent10@?$numeric_limits@M@std@@2HB
CONST	SEGMENT
?max_exponent10@?$numeric_limits@M@std@@2HB DD 026H	; std::numeric_limits<float>::max_exponent10
CONST	ENDS
;	COMDAT ?max_exponent@?$numeric_limits@M@std@@2HB
CONST	SEGMENT
?max_exponent@?$numeric_limits@M@std@@2HB DD 080H	; std::numeric_limits<float>::max_exponent
CONST	ENDS
;	COMDAT ?max_digits10@?$numeric_limits@M@std@@2HB
CONST	SEGMENT
?max_digits10@?$numeric_limits@M@std@@2HB DD 09H	; std::numeric_limits<float>::max_digits10
CONST	ENDS
;	COMDAT ?digits10@?$numeric_limits@M@std@@2HB
CONST	SEGMENT
?digits10@?$numeric_limits@M@std@@2HB DD 06H		; std::numeric_limits<float>::digits10
CONST	ENDS
;	COMDAT ?digits@?$numeric_limits@M@std@@2HB
CONST	SEGMENT
?digits@?$numeric_limits@M@std@@2HB DD 018H		; std::numeric_limits<float>::digits
CONST	ENDS
;	COMDAT ?digits10@?$numeric_limits@_K@std@@2HB
CONST	SEGMENT
?digits10@?$numeric_limits@_K@std@@2HB DD 013H		; std::numeric_limits<unsigned __int64>::digits10
CONST	ENDS
;	COMDAT ?digits@?$numeric_limits@_K@std@@2HB
CONST	SEGMENT
?digits@?$numeric_limits@_K@std@@2HB DD 040H		; std::numeric_limits<unsigned __int64>::digits
CONST	ENDS
;	COMDAT ?is_signed@?$numeric_limits@_K@std@@2_NB
CONST	SEGMENT
?is_signed@?$numeric_limits@_K@std@@2_NB DB 00H		; std::numeric_limits<unsigned __int64>::is_signed
CONST	ENDS
;	COMDAT ?value@?$integral_constant@I$0A@@std@@2IB
CONST	SEGMENT
?value@?$integral_constant@I$0A@@std@@2IB DD 00H	; std::integral_constant<unsigned int,0>::value
CONST	ENDS
;	COMDAT ?digits10@?$numeric_limits@_J@std@@2HB
CONST	SEGMENT
?digits10@?$numeric_limits@_J@std@@2HB DD 012H		; std::numeric_limits<__int64>::digits10
CONST	ENDS
;	COMDAT ?digits@?$numeric_limits@_J@std@@2HB
CONST	SEGMENT
?digits@?$numeric_limits@_J@std@@2HB DD 03fH		; std::numeric_limits<__int64>::digits
CONST	ENDS
;	COMDAT ?is_signed@?$numeric_limits@_J@std@@2_NB
CONST	SEGMENT
?is_signed@?$numeric_limits@_J@std@@2_NB DB 01H		; std::numeric_limits<__int64>::is_signed
CONST	ENDS
;	COMDAT ?digits10@?$numeric_limits@K@std@@2HB
CONST	SEGMENT
?digits10@?$numeric_limits@K@std@@2HB DD 09H		; std::numeric_limits<unsigned long>::digits10
CONST	ENDS
;	COMDAT ?digits@?$numeric_limits@K@std@@2HB
CONST	SEGMENT
?digits@?$numeric_limits@K@std@@2HB DD 020H		; std::numeric_limits<unsigned long>::digits
CONST	ENDS
;	COMDAT ?is_signed@?$numeric_limits@K@std@@2_NB
CONST	SEGMENT
?is_signed@?$numeric_limits@K@std@@2_NB DB 00H		; std::numeric_limits<unsigned long>::is_signed
CONST	ENDS
;	COMDAT ?digits10@?$numeric_limits@J@std@@2HB
CONST	SEGMENT
?digits10@?$numeric_limits@J@std@@2HB DD 09H		; std::numeric_limits<long>::digits10
CONST	ENDS
;	COMDAT ?digits@?$numeric_limits@J@std@@2HB
CONST	SEGMENT
?digits@?$numeric_limits@J@std@@2HB DD 01fH		; std::numeric_limits<long>::digits
CONST	ENDS
;	COMDAT ?is_signed@?$numeric_limits@J@std@@2_NB
CONST	SEGMENT
?is_signed@?$numeric_limits@J@std@@2_NB DB 01H		; std::numeric_limits<long>::is_signed
CONST	ENDS
;	COMDAT ?CMPDIRTYDATA_INTERVAL@FalconEntity@@2KB
CONST	SEGMENT
?CMPDIRTYDATA_INTERVAL@FalconEntity@@2KB DD 0c8H	; FalconEntity::CMPDIRTYDATA_INTERVAL
CONST	ENDS
;	COMDAT ?SIMDIRTYDATA_INTERVAL@FalconEntity@@2KB
CONST	SEGMENT
?SIMDIRTYDATA_INTERVAL@FalconEntity@@2KB DD 0c8H	; FalconEntity::SIMDIRTYDATA_INTERVAL
CONST	ENDS
;	COMDAT ?digits10@?$numeric_limits@I@std@@2HB
CONST	SEGMENT
?digits10@?$numeric_limits@I@std@@2HB DD 09H		; std::numeric_limits<unsigned int>::digits10
CONST	ENDS
;	COMDAT ?digits@?$numeric_limits@I@std@@2HB
CONST	SEGMENT
?digits@?$numeric_limits@I@std@@2HB DD 020H		; std::numeric_limits<unsigned int>::digits
CONST	ENDS
;	COMDAT ?is_signed@?$numeric_limits@I@std@@2_NB
CONST	SEGMENT
?is_signed@?$numeric_limits@I@std@@2_NB DB 00H		; std::numeric_limits<unsigned int>::is_signed
CONST	ENDS
;	COMDAT ?digits10@?$numeric_limits@H@std@@2HB
CONST	SEGMENT
?digits10@?$numeric_limits@H@std@@2HB DD 09H		; std::numeric_limits<int>::digits10
CONST	ENDS
;	COMDAT ?digits@?$numeric_limits@H@std@@2HB
CONST	SEGMENT
?digits@?$numeric_limits@H@std@@2HB DD 01fH		; std::numeric_limits<int>::digits
CONST	ENDS
;	COMDAT ?is_signed@?$numeric_limits@H@std@@2_NB
CONST	SEGMENT
?is_signed@?$numeric_limits@H@std@@2_NB DB 01H		; std::numeric_limits<int>::is_signed
CONST	ENDS
;	COMDAT __GUID_00000000_0000_0000_0000_000000000000
CONST	SEGMENT
__GUID_00000000_0000_0000_0000_000000000000 DD 00H
	DW	00H
	DW	00H
	DB	00H
	DB	00H
	DB	00H
	DB	00H
	DB	00H
	DB	00H
	DB	00H
	DB	00H
CONST	ENDS
;	COMDAT ?digits10@?$numeric_limits@G@std@@2HB
CONST	SEGMENT
?digits10@?$numeric_limits@G@std@@2HB DD 04H		; std::numeric_limits<unsigned short>::digits10
CONST	ENDS
;	COMDAT ?digits@?$numeric_limits@G@std@@2HB
CONST	SEGMENT
?digits@?$numeric_limits@G@std@@2HB DD 010H		; std::numeric_limits<unsigned short>::digits
CONST	ENDS
;	COMDAT ?is_signed@?$numeric_limits@G@std@@2_NB
CONST	SEGMENT
?is_signed@?$numeric_limits@G@std@@2_NB DB 00H		; std::numeric_limits<unsigned short>::is_signed
CONST	ENDS
;	COMDAT ?table_size@?$ctype@D@std@@2IB
CONST	SEGMENT
?table_size@?$ctype@D@std@@2IB DD 0100H			; std::ctype<char>::table_size
CONST	ENDS
;	COMDAT ?digits10@?$numeric_limits@F@std@@2HB
CONST	SEGMENT
?digits10@?$numeric_limits@F@std@@2HB DD 04H		; std::numeric_limits<short>::digits10
CONST	ENDS
;	COMDAT ?digits@?$numeric_limits@F@std@@2HB
CONST	SEGMENT
?digits@?$numeric_limits@F@std@@2HB DD 0fH		; std::numeric_limits<short>::digits
CONST	ENDS
;	COMDAT ?is_signed@?$numeric_limits@F@std@@2_NB
CONST	SEGMENT
?is_signed@?$numeric_limits@F@std@@2_NB DB 01H		; std::numeric_limits<short>::is_signed
CONST	ENDS
;	COMDAT ?value@?$_Sizeof@HU_Nil@std@@U12@U12@U12@U12@U12@U12@@std@@2IB
CONST	SEGMENT
?value@?$_Sizeof@HU_Nil@std@@U12@U12@U12@U12@U12@U12@@std@@2IB DD 01H ; std::_Sizeof<int,std::_Nil,std::_Nil,std::_Nil,std::_Nil,std::_Nil,std::_Nil,std::_Nil>::value
CONST	ENDS
;	COMDAT ?digits10@?$numeric_limits@E@std@@2HB
CONST	SEGMENT
?digits10@?$numeric_limits@E@std@@2HB DD 02H		; std::numeric_limits<unsigned char>::digits10
CONST	ENDS
;	COMDAT ?digits@?$numeric_limits@E@std@@2HB
CONST	SEGMENT
?digits@?$numeric_limits@E@std@@2HB DD 08H		; std::numeric_limits<unsigned char>::digits
CONST	ENDS
;	COMDAT ?is_signed@?$numeric_limits@E@std@@2_NB
CONST	SEGMENT
?is_signed@?$numeric_limits@E@std@@2_NB DB 00H		; std::numeric_limits<unsigned char>::is_signed
CONST	ENDS
;	COMDAT ?digits10@?$numeric_limits@C@std@@2HB
CONST	SEGMENT
?digits10@?$numeric_limits@C@std@@2HB DD 02H		; std::numeric_limits<signed char>::digits10
CONST	ENDS
;	COMDAT ?digits@?$numeric_limits@C@std@@2HB
CONST	SEGMENT
?digits@?$numeric_limits@C@std@@2HB DD 07H		; std::numeric_limits<signed char>::digits
CONST	ENDS
;	COMDAT ?is_signed@?$numeric_limits@C@std@@2_NB
CONST	SEGMENT
?is_signed@?$numeric_limits@C@std@@2_NB DB 01H		; std::numeric_limits<signed char>::is_signed
CONST	ENDS
;	COMDAT ?none@?$_Locbase@H@std@@2HB
CONST	SEGMENT
?none@?$_Locbase@H@std@@2HB DD 00H			; std::_Locbase<int>::none
CONST	ENDS
;	COMDAT ?all@?$_Locbase@H@std@@2HB
CONST	SEGMENT
?all@?$_Locbase@H@std@@2HB DD 03fH			; std::_Locbase<int>::all
CONST	ENDS
;	COMDAT ?messages@?$_Locbase@H@std@@2HB
CONST	SEGMENT
?messages@?$_Locbase@H@std@@2HB DD 020H			; std::_Locbase<int>::messages
CONST	ENDS
;	COMDAT ?time@?$_Locbase@H@std@@2HB
CONST	SEGMENT
?time@?$_Locbase@H@std@@2HB DD 010H			; std::_Locbase<int>::time
CONST	ENDS
;	COMDAT ?numeric@?$_Locbase@H@std@@2HB
CONST	SEGMENT
?numeric@?$_Locbase@H@std@@2HB DD 08H			; std::_Locbase<int>::numeric
CONST	ENDS
;	COMDAT ?monetary@?$_Locbase@H@std@@2HB
CONST	SEGMENT
?monetary@?$_Locbase@H@std@@2HB DD 04H			; std::_Locbase<int>::monetary
CONST	ENDS
;	COMDAT ?ctype@?$_Locbase@H@std@@2HB
CONST	SEGMENT
?ctype@?$_Locbase@H@std@@2HB DD 02H			; std::_Locbase<int>::ctype
CONST	ENDS
;	COMDAT ?collate@?$_Locbase@H@std@@2HB
CONST	SEGMENT
?collate@?$_Locbase@H@std@@2HB DD 01H			; std::_Locbase<int>::collate
CONST	ENDS
;	COMDAT ?digits10@?$numeric_limits@_N@std@@2HB
CONST	SEGMENT
?digits10@?$numeric_limits@_N@std@@2HB DD 00H		; std::numeric_limits<bool>::digits10
CONST	ENDS
;	COMDAT ?digits@?$numeric_limits@_N@std@@2HB
CONST	SEGMENT
?digits@?$numeric_limits@_N@std@@2HB DD 01H		; std::numeric_limits<bool>::digits
CONST	ENDS
;	COMDAT ?is_signed@?$numeric_limits@_N@std@@2_NB
CONST	SEGMENT
?is_signed@?$numeric_limits@_N@std@@2_NB DB 00H		; std::numeric_limits<bool>::is_signed
CONST	ENDS
;	COMDAT ?is_modulo@?$numeric_limits@_N@std@@2_NB
CONST	SEGMENT
?is_modulo@?$numeric_limits@_N@std@@2_NB DB 00H		; std::numeric_limits<bool>::is_modulo
CONST	ENDS
;	COMDAT ?value@?$integral_constant@_N$00@std@@2_NB
CONST	SEGMENT
?value@?$integral_constant@_N$00@std@@2_NB DB 01H	; std::integral_constant<bool,1>::value
CONST	ENDS
;	COMDAT ?digits10@?$numeric_limits@_W@std@@2HB
CONST	SEGMENT
?digits10@?$numeric_limits@_W@std@@2HB DD 04H		; std::numeric_limits<wchar_t>::digits10
CONST	ENDS
;	COMDAT ?digits@?$numeric_limits@_W@std@@2HB
CONST	SEGMENT
?digits@?$numeric_limits@_W@std@@2HB DD 010H		; std::numeric_limits<wchar_t>::digits
CONST	ENDS
;	COMDAT ?is_signed@?$numeric_limits@_W@std@@2_NB
CONST	SEGMENT
?is_signed@?$numeric_limits@_W@std@@2_NB DB 00H		; std::numeric_limits<wchar_t>::is_signed
CONST	ENDS
;	COMDAT ?value@?$integral_constant@_N$0A@@std@@2_NB
CONST	SEGMENT
?value@?$integral_constant@_N$0A@@std@@2_NB DB 00H	; std::integral_constant<bool,0>::value
CONST	ENDS
;	COMDAT ?digits10@?$numeric_limits@D@std@@2HB
CONST	SEGMENT
?digits10@?$numeric_limits@D@std@@2HB DD 02H		; std::numeric_limits<char>::digits10
CONST	ENDS
;	COMDAT ?digits@?$numeric_limits@D@std@@2HB
CONST	SEGMENT
?digits@?$numeric_limits@D@std@@2HB DD 07H		; std::numeric_limits<char>::digits
CONST	ENDS
;	COMDAT ?is_signed@?$numeric_limits@D@std@@2_NB
CONST	SEGMENT
?is_signed@?$numeric_limits@D@std@@2_NB DB 01H		; std::numeric_limits<char>::is_signed
CONST	ENDS
CONST	SEGMENT
_L_2	DD	03f317218r			; 0.693147
_NEAR_CLIP DD	03f800000r			; 1
_WP_SIZE DD	03cf5c28fr			; 0.03
_ORIDE_WP_SIZE DD 03da3d70ar			; 0.08
_AC_SIZE DD	03d75c28fr			; 0.06
_BORDER_PERCENT DD 03d4ccccdr			; 0.05
_KNEEBOARD_SMALLEST_MAP_FRACTION DD 040800000r	; 4
CONST	ENDS
;	COMDAT ?radix@_Num_float_base@std@@2HB
CONST	SEGMENT
?radix@_Num_float_base@std@@2HB DD 02H			; std::_Num_float_base::radix
CONST	ENDS
;	COMDAT ?round_style@_Num_float_base@std@@2W4float_round_style@2@B
CONST	SEGMENT
?round_style@_Num_float_base@std@@2W4float_round_style@2@B DD 01H ; std::_Num_float_base::round_style
CONST	ENDS
;	COMDAT ?traps@_Num_float_base@std@@2_NB
CONST	SEGMENT
?traps@_Num_float_base@std@@2_NB DB 00H			; std::_Num_float_base::traps
CONST	ENDS
;	COMDAT ?tinyness_before@_Num_float_base@std@@2_NB
CONST	SEGMENT
?tinyness_before@_Num_float_base@std@@2_NB DB 01H	; std::_Num_float_base::tinyness_before
CONST	ENDS
;	COMDAT ?is_specialized@_Num_float_base@std@@2_NB
CONST	SEGMENT
?is_specialized@_Num_float_base@std@@2_NB DB 01H	; std::_Num_float_base::is_specialized
CONST	ENDS
;	COMDAT ?is_signed@_Num_float_base@std@@2_NB
CONST	SEGMENT
?is_signed@_Num_float_base@std@@2_NB DB 01H		; std::_Num_float_base::is_signed
CONST	ENDS
;	COMDAT ?is_modulo@_Num_float_base@std@@2_NB
CONST	SEGMENT
?is_modulo@_Num_float_base@std@@2_NB DB 00H		; std::_Num_float_base::is_modulo
CONST	ENDS
;	COMDAT ?is_integer@_Num_float_base@std@@2_NB
CONST	SEGMENT
?is_integer@_Num_float_base@std@@2_NB DB 00H		; std::_Num_float_base::is_integer
CONST	ENDS
;	COMDAT ?is_iec559@_Num_float_base@std@@2_NB
CONST	SEGMENT
?is_iec559@_Num_float_base@std@@2_NB DB 01H		; std::_Num_float_base::is_iec559
CONST	ENDS
;	COMDAT ?is_exact@_Num_float_base@std@@2_NB
CONST	SEGMENT
?is_exact@_Num_float_base@std@@2_NB DB 00H		; std::_Num_float_base::is_exact
CONST	ENDS
;	COMDAT ?is_bounded@_Num_float_base@std@@2_NB
CONST	SEGMENT
?is_bounded@_Num_float_base@std@@2_NB DB 01H		; std::_Num_float_base::is_bounded
CONST	ENDS
;	COMDAT ?has_signaling_NaN@_Num_float_base@std@@2_NB
CONST	SEGMENT
?has_signaling_NaN@_Num_float_base@std@@2_NB DB 01H	; std::_Num_float_base::has_signaling_NaN
CONST	ENDS
;	COMDAT ?has_quiet_NaN@_Num_float_base@std@@2_NB
CONST	SEGMENT
?has_quiet_NaN@_Num_float_base@std@@2_NB DB 01H		; std::_Num_float_base::has_quiet_NaN
CONST	ENDS
;	COMDAT ?has_infinity@_Num_float_base@std@@2_NB
CONST	SEGMENT
?has_infinity@_Num_float_base@std@@2_NB DB 01H		; std::_Num_float_base::has_infinity
CONST	ENDS
;	COMDAT ?has_denorm_loss@_Num_float_base@std@@2_NB
CONST	SEGMENT
?has_denorm_loss@_Num_float_base@std@@2_NB DB 01H	; std::_Num_float_base::has_denorm_loss
CONST	ENDS
;	COMDAT ?has_denorm@_Num_float_base@std@@2W4float_denorm_style@2@B
CONST	SEGMENT
?has_denorm@_Num_float_base@std@@2W4float_denorm_style@2@B DD 01H ; std::_Num_float_base::has_denorm
CONST	ENDS
;	COMDAT ?radix@_Num_int_base@std@@2HB
CONST	SEGMENT
?radix@_Num_int_base@std@@2HB DD 02H			; std::_Num_int_base::radix
CONST	ENDS
;	COMDAT ?is_specialized@_Num_int_base@std@@2_NB
CONST	SEGMENT
?is_specialized@_Num_int_base@std@@2_NB DB 01H		; std::_Num_int_base::is_specialized
CONST	ENDS
;	COMDAT ?is_modulo@_Num_int_base@std@@2_NB
CONST	SEGMENT
?is_modulo@_Num_int_base@std@@2_NB DB 01H		; std::_Num_int_base::is_modulo
CONST	ENDS
;	COMDAT ?is_integer@_Num_int_base@std@@2_NB
CONST	SEGMENT
?is_integer@_Num_int_base@std@@2_NB DB 01H		; std::_Num_int_base::is_integer
CONST	ENDS
;	COMDAT ?is_exact@_Num_int_base@std@@2_NB
CONST	SEGMENT
?is_exact@_Num_int_base@std@@2_NB DB 01H		; std::_Num_int_base::is_exact
CONST	ENDS
;	COMDAT ?is_bounded@_Num_int_base@std@@2_NB
CONST	SEGMENT
?is_bounded@_Num_int_base@std@@2_NB DB 01H		; std::_Num_int_base::is_bounded
CONST	ENDS
;	COMDAT ?radix@_Num_base@std@@2HB
CONST	SEGMENT
?radix@_Num_base@std@@2HB DD 00H			; std::_Num_base::radix
CONST	ENDS
;	COMDAT ?min_exponent10@_Num_base@std@@2HB
CONST	SEGMENT
?min_exponent10@_Num_base@std@@2HB DD 00H		; std::_Num_base::min_exponent10
CONST	ENDS
;	COMDAT ?min_exponent@_Num_base@std@@2HB
CONST	SEGMENT
?min_exponent@_Num_base@std@@2HB DD 00H			; std::_Num_base::min_exponent
CONST	ENDS
;	COMDAT ?max_exponent10@_Num_base@std@@2HB
CONST	SEGMENT
?max_exponent10@_Num_base@std@@2HB DD 00H		; std::_Num_base::max_exponent10
CONST	ENDS
;	COMDAT ?max_exponent@_Num_base@std@@2HB
CONST	SEGMENT
?max_exponent@_Num_base@std@@2HB DD 00H			; std::_Num_base::max_exponent
CONST	ENDS
;	COMDAT ?max_digits10@_Num_base@std@@2HB
CONST	SEGMENT
?max_digits10@_Num_base@std@@2HB DD 00H			; std::_Num_base::max_digits10
CONST	ENDS
;	COMDAT ?digits10@_Num_base@std@@2HB
CONST	SEGMENT
?digits10@_Num_base@std@@2HB DD 00H			; std::_Num_base::digits10
CONST	ENDS
;	COMDAT ?digits@_Num_base@std@@2HB
CONST	SEGMENT
?digits@_Num_base@std@@2HB DD 00H			; std::_Num_base::digits
CONST	ENDS
;	COMDAT ?round_style@_Num_base@std@@2W4float_round_style@2@B
CONST	SEGMENT
?round_style@_Num_base@std@@2W4float_round_style@2@B DD 00H ; std::_Num_base::round_style
CONST	ENDS
;	COMDAT ?traps@_Num_base@std@@2_NB
CONST	SEGMENT
?traps@_Num_base@std@@2_NB DB 00H			; std::_Num_base::traps
CONST	ENDS
;	COMDAT ?tinyness_before@_Num_base@std@@2_NB
CONST	SEGMENT
?tinyness_before@_Num_base@std@@2_NB DB 00H		; std::_Num_base::tinyness_before
CONST	ENDS
;	COMDAT ?is_specialized@_Num_base@std@@2_NB
CONST	SEGMENT
?is_specialized@_Num_base@std@@2_NB DB 00H		; std::_Num_base::is_specialized
CONST	ENDS
;	COMDAT ?is_signed@_Num_base@std@@2_NB
CONST	SEGMENT
?is_signed@_Num_base@std@@2_NB DB 00H			; std::_Num_base::is_signed
CONST	ENDS
;	COMDAT ?is_modulo@_Num_base@std@@2_NB
CONST	SEGMENT
?is_modulo@_Num_base@std@@2_NB DB 00H			; std::_Num_base::is_modulo
CONST	ENDS
;	COMDAT ?is_integer@_Num_base@std@@2_NB
CONST	SEGMENT
?is_integer@_Num_base@std@@2_NB DB 00H			; std::_Num_base::is_integer
CONST	ENDS
;	COMDAT ?is_iec559@_Num_base@std@@2_NB
CONST	SEGMENT
?is_iec559@_Num_base@std@@2_NB DB 00H			; std::_Num_base::is_iec559
CONST	ENDS
;	COMDAT ?is_exact@_Num_base@std@@2_NB
CONST	SEGMENT
?is_exact@_Num_base@std@@2_NB DB 00H			; std::_Num_base::is_exact
CONST	ENDS
;	COMDAT ?is_bounded@_Num_base@std@@2_NB
CONST	SEGMENT
?is_bounded@_Num_base@std@@2_NB DB 00H			; std::_Num_base::is_bounded
CONST	ENDS
;	COMDAT ?has_signaling_NaN@_Num_base@std@@2_NB
CONST	SEGMENT
?has_signaling_NaN@_Num_base@std@@2_NB DB 00H		; std::_Num_base::has_signaling_NaN
CONST	ENDS
;	COMDAT ?has_quiet_NaN@_Num_base@std@@2_NB
CONST	SEGMENT
?has_quiet_NaN@_Num_base@std@@2_NB DB 00H		; std::_Num_base::has_quiet_NaN
CONST	ENDS
;	COMDAT ?has_infinity@_Num_base@std@@2_NB
CONST	SEGMENT
?has_infinity@_Num_base@std@@2_NB DB 00H		; std::_Num_base::has_infinity
CONST	ENDS
;	COMDAT ?has_denorm_loss@_Num_base@std@@2_NB
CONST	SEGMENT
?has_denorm_loss@_Num_base@std@@2_NB DB 00H		; std::_Num_base::has_denorm_loss
CONST	ENDS
;	COMDAT ?has_denorm@_Num_base@std@@2W4float_denorm_style@2@B
CONST	SEGMENT
?has_denorm@_Num_base@std@@2W4float_denorm_style@2@B DD 00H ; std::_Num_base::has_denorm
CONST	ENDS
;	COMDAT ?_Stream_err@failure@ios_base@std@@0W4io_errc@43@B
CONST	SEGMENT
?_Stream_err@failure@ios_base@std@@0W4io_errc@43@B DD 01H ; std::ios_base::failure::_Stream_err
CONST	ENDS
;	COMDAT ?end@?$_Iosb@H@std@@2W4_Seekdir@12@B
CONST	SEGMENT
?end@?$_Iosb@H@std@@2W4_Seekdir@12@B DD 02H		; std::_Iosb<int>::end
CONST	ENDS
;	COMDAT ?cur@?$_Iosb@H@std@@2W4_Seekdir@12@B
CONST	SEGMENT
?cur@?$_Iosb@H@std@@2W4_Seekdir@12@B DD 01H		; std::_Iosb<int>::cur
CONST	ENDS
;	COMDAT ?beg@?$_Iosb@H@std@@2W4_Seekdir@12@B
CONST	SEGMENT
?beg@?$_Iosb@H@std@@2W4_Seekdir@12@B DD 00H		; std::_Iosb<int>::beg
CONST	ENDS
;	COMDAT ?binary@?$_Iosb@H@std@@2W4_Openmode@12@B
CONST	SEGMENT
?binary@?$_Iosb@H@std@@2W4_Openmode@12@B DD 020H	; std::_Iosb<int>::binary
CONST	ENDS
;	COMDAT ?_Noreplace@?$_Iosb@H@std@@2W4_Openmode@12@B
CONST	SEGMENT
?_Noreplace@?$_Iosb@H@std@@2W4_Openmode@12@B DD 080H	; std::_Iosb<int>::_Noreplace
CONST	ENDS
;	COMDAT ?_Nocreate@?$_Iosb@H@std@@2W4_Openmode@12@B
CONST	SEGMENT
?_Nocreate@?$_Iosb@H@std@@2W4_Openmode@12@B DD 040H	; std::_Iosb<int>::_Nocreate
CONST	ENDS
;	COMDAT ?trunc@?$_Iosb@H@std@@2W4_Openmode@12@B
CONST	SEGMENT
?trunc@?$_Iosb@H@std@@2W4_Openmode@12@B DD 010H		; std::_Iosb<int>::trunc
CONST	ENDS
;	COMDAT ?app@?$_Iosb@H@std@@2W4_Openmode@12@B
CONST	SEGMENT
?app@?$_Iosb@H@std@@2W4_Openmode@12@B DD 08H		; std::_Iosb<int>::app
CONST	ENDS
;	COMDAT ?ate@?$_Iosb@H@std@@2W4_Openmode@12@B
CONST	SEGMENT
?ate@?$_Iosb@H@std@@2W4_Openmode@12@B DD 04H		; std::_Iosb<int>::ate
CONST	ENDS
;	COMDAT ?out@?$_Iosb@H@std@@2W4_Openmode@12@B
CONST	SEGMENT
?out@?$_Iosb@H@std@@2W4_Openmode@12@B DD 02H		; std::_Iosb<int>::out
CONST	ENDS
;	COMDAT ?in@?$_Iosb@H@std@@2W4_Openmode@12@B
CONST	SEGMENT
?in@?$_Iosb@H@std@@2W4_Openmode@12@B DD 01H		; std::_Iosb<int>::in
CONST	ENDS
;	COMDAT ?_Hardfail@?$_Iosb@H@std@@2W4_Iostate@12@B
CONST	SEGMENT
?_Hardfail@?$_Iosb@H@std@@2W4_Iostate@12@B DD 010H	; std::_Iosb<int>::_Hardfail
CONST	ENDS
;	COMDAT ?badbit@?$_Iosb@H@std@@2W4_Iostate@12@B
CONST	SEGMENT
?badbit@?$_Iosb@H@std@@2W4_Iostate@12@B DD 04H		; std::_Iosb<int>::badbit
CONST	ENDS
;	COMDAT ?value@?$_Sizeof@U_Nil@std@@U12@U12@U12@U12@U12@U12@U12@@std@@2IB
CONST	SEGMENT
?value@?$_Sizeof@U_Nil@std@@U12@U12@U12@U12@U12@U12@U12@@std@@2IB DD 00H ; std::_Sizeof<std::_Nil,std::_Nil,std::_Nil,std::_Nil,std::_Nil,std::_Nil,std::_Nil,std::_Nil>::value
CONST	ENDS
;	COMDAT ?failbit@?$_Iosb@H@std@@2W4_Iostate@12@B
CONST	SEGMENT
?failbit@?$_Iosb@H@std@@2W4_Iostate@12@B DD 02H		; std::_Iosb<int>::failbit
CONST	ENDS
;	COMDAT ?eofbit@?$_Iosb@H@std@@2W4_Iostate@12@B
CONST	SEGMENT
?eofbit@?$_Iosb@H@std@@2W4_Iostate@12@B DD 01H		; std::_Iosb<int>::eofbit
CONST	ENDS
;	COMDAT ?goodbit@?$_Iosb@H@std@@2W4_Iostate@12@B
CONST	SEGMENT
?goodbit@?$_Iosb@H@std@@2W4_Iostate@12@B DD 00H		; std::_Iosb<int>::goodbit
CONST	ENDS
;	COMDAT ?floatfield@?$_Iosb@H@std@@2W4_Fmtflags@12@B
CONST	SEGMENT
?floatfield@?$_Iosb@H@std@@2W4_Fmtflags@12@B DD 03000H	; std::_Iosb<int>::floatfield
CONST	ENDS
;	COMDAT ?basefield@?$_Iosb@H@std@@2W4_Fmtflags@12@B
CONST	SEGMENT
?basefield@?$_Iosb@H@std@@2W4_Fmtflags@12@B DD 0e00H	; std::_Iosb<int>::basefield
CONST	ENDS
;	COMDAT ?adjustfield@?$_Iosb@H@std@@2W4_Fmtflags@12@B
CONST	SEGMENT
?adjustfield@?$_Iosb@H@std@@2W4_Fmtflags@12@B DD 01c0H	; std::_Iosb<int>::adjustfield
CONST	ENDS
;	COMDAT ?_Stdio@?$_Iosb@H@std@@2W4_Fmtflags@12@B
CONST	SEGMENT
?_Stdio@?$_Iosb@H@std@@2W4_Fmtflags@12@B DD 08000H	; std::_Iosb<int>::_Stdio
CONST	ENDS
;	COMDAT ?boolalpha@?$_Iosb@H@std@@2W4_Fmtflags@12@B
CONST	SEGMENT
?boolalpha@?$_Iosb@H@std@@2W4_Fmtflags@12@B DD 04000H	; std::_Iosb<int>::boolalpha
CONST	ENDS
;	COMDAT ?hexfloat@?$_Iosb@H@std@@2W4_Fmtflags@12@B
CONST	SEGMENT
?hexfloat@?$_Iosb@H@std@@2W4_Fmtflags@12@B DD 03000H	; std::_Iosb<int>::hexfloat
CONST	ENDS
;	COMDAT ?fixed@?$_Iosb@H@std@@2W4_Fmtflags@12@B
CONST	SEGMENT
?fixed@?$_Iosb@H@std@@2W4_Fmtflags@12@B DD 02000H	; std::_Iosb<int>::fixed
CONST	ENDS
;	COMDAT ?scientific@?$_Iosb@H@std@@2W4_Fmtflags@12@B
CONST	SEGMENT
?scientific@?$_Iosb@H@std@@2W4_Fmtflags@12@B DD 01000H	; std::_Iosb<int>::scientific
CONST	ENDS
;	COMDAT ?hex@?$_Iosb@H@std@@2W4_Fmtflags@12@B
CONST	SEGMENT
?hex@?$_Iosb@H@std@@2W4_Fmtflags@12@B DD 0800H		; std::_Iosb<int>::hex
CONST	ENDS
;	COMDAT ?oct@?$_Iosb@H@std@@2W4_Fmtflags@12@B
CONST	SEGMENT
?oct@?$_Iosb@H@std@@2W4_Fmtflags@12@B DD 0400H		; std::_Iosb<int>::oct
CONST	ENDS
;	COMDAT ?dec@?$_Iosb@H@std@@2W4_Fmtflags@12@B
CONST	SEGMENT
?dec@?$_Iosb@H@std@@2W4_Fmtflags@12@B DD 0200H		; std::_Iosb<int>::dec
CONST	ENDS
;	COMDAT ?internal@?$_Iosb@H@std@@2W4_Fmtflags@12@B
CONST	SEGMENT
?internal@?$_Iosb@H@std@@2W4_Fmtflags@12@B DD 0100H	; std::_Iosb<int>::internal
CONST	ENDS
;	COMDAT ?right@?$_Iosb@H@std@@2W4_Fmtflags@12@B
CONST	SEGMENT
?right@?$_Iosb@H@std@@2W4_Fmtflags@12@B DD 080H		; std::_Iosb<int>::right
CONST	ENDS
;	COMDAT ?left@?$_Iosb@H@std@@2W4_Fmtflags@12@B
CONST	SEGMENT
?left@?$_Iosb@H@std@@2W4_Fmtflags@12@B DD 040H		; std::_Iosb<int>::left
CONST	ENDS
;	COMDAT ?showpos@?$_Iosb@H@std@@2W4_Fmtflags@12@B
CONST	SEGMENT
?showpos@?$_Iosb@H@std@@2W4_Fmtflags@12@B DD 020H	; std::_Iosb<int>::showpos
CONST	ENDS
;	COMDAT ?showpoint@?$_Iosb@H@std@@2W4_Fmtflags@12@B
CONST	SEGMENT
?showpoint@?$_Iosb@H@std@@2W4_Fmtflags@12@B DD 010H	; std::_Iosb<int>::showpoint
CONST	ENDS
;	COMDAT ?showbase@?$_Iosb@H@std@@2W4_Fmtflags@12@B
CONST	SEGMENT
?showbase@?$_Iosb@H@std@@2W4_Fmtflags@12@B DD 08H	; std::_Iosb<int>::showbase
CONST	ENDS
;	COMDAT ?uppercase@?$_Iosb@H@std@@2W4_Fmtflags@12@B
CONST	SEGMENT
?uppercase@?$_Iosb@H@std@@2W4_Fmtflags@12@B DD 04H	; std::_Iosb<int>::uppercase
CONST	ENDS
;	COMDAT ?unitbuf@?$_Iosb@H@std@@2W4_Fmtflags@12@B
CONST	SEGMENT
?unitbuf@?$_Iosb@H@std@@2W4_Fmtflags@12@B DD 02H	; std::_Iosb<int>::unitbuf
CONST	ENDS
;	COMDAT ?skipws@?$_Iosb@H@std@@2W4_Fmtflags@12@B
CONST	SEGMENT
?skipws@?$_Iosb@H@std@@2W4_Fmtflags@12@B DD 01H		; std::_Iosb<int>::skipws
CONST	ENDS
;	COMDAT ?min_exponent10@?$numeric_limits@O@std@@2HB
CONST	SEGMENT
?min_exponent10@?$numeric_limits@O@std@@2HB DD 0fffffecdH ; std::numeric_limits<long double>::min_exponent10
CONST	ENDS
;	COMDAT ?min_exponent@?$numeric_limits@O@std@@2HB
CONST	SEGMENT
?min_exponent@?$numeric_limits@O@std@@2HB DD 0fffffc03H	; std::numeric_limits<long double>::min_exponent
CONST	ENDS
;	COMDAT ?max_exponent10@?$numeric_limits@O@std@@2HB
CONST	SEGMENT
?max_exponent10@?$numeric_limits@O@std@@2HB DD 0134H	; std::numeric_limits<long double>::max_exponent10
CONST	ENDS
;	COMDAT ?max_exponent@?$numeric_limits@O@std@@2HB
CONST	SEGMENT
?max_exponent@?$numeric_limits@O@std@@2HB DD 0400H	; std::numeric_limits<long double>::max_exponent
CONST	ENDS
;	COMDAT ?max_digits10@?$numeric_limits@O@std@@2HB
CONST	SEGMENT
?max_digits10@?$numeric_limits@O@std@@2HB DD 011H	; std::numeric_limits<long double>::max_digits10
CONST	ENDS
;	COMDAT ?digits10@?$numeric_limits@O@std@@2HB
CONST	SEGMENT
?digits10@?$numeric_limits@O@std@@2HB DD 0fH		; std::numeric_limits<long double>::digits10
CONST	ENDS
;	COMDAT ?digits@?$numeric_limits@O@std@@2HB
CONST	SEGMENT
?digits@?$numeric_limits@O@std@@2HB DD 035H		; std::numeric_limits<long double>::digits
CONST	ENDS
;	COMDAT ?min_exponent10@?$numeric_limits@N@std@@2HB
CONST	SEGMENT
?min_exponent10@?$numeric_limits@N@std@@2HB DD 0fffffecdH ; std::numeric_limits<double>::min_exponent10
CONST	ENDS
;	COMDAT ?min_exponent@?$numeric_limits@N@std@@2HB
CONST	SEGMENT
?min_exponent@?$numeric_limits@N@std@@2HB DD 0fffffc03H	; std::numeric_limits<double>::min_exponent
CONST	ENDS
;	COMDAT ?max_exponent10@?$numeric_limits@N@std@@2HB
CONST	SEGMENT
?max_exponent10@?$numeric_limits@N@std@@2HB DD 0134H	; std::numeric_limits<double>::max_exponent10
CONST	ENDS
;	COMDAT ?max_exponent@?$numeric_limits@N@std@@2HB
CONST	SEGMENT
?max_exponent@?$numeric_limits@N@std@@2HB DD 0400H	; std::numeric_limits<double>::max_exponent
CONST	ENDS
;	COMDAT ?max_digits10@?$numeric_limits@N@std@@2HB
CONST	SEGMENT
?max_digits10@?$numeric_limits@N@std@@2HB DD 011H	; std::numeric_limits<double>::max_digits10
CONST	ENDS
;	COMDAT ?digits10@?$numeric_limits@N@std@@2HB
CONST	SEGMENT
?digits10@?$numeric_limits@N@std@@2HB DD 0fH		; std::numeric_limits<double>::digits10
CONST	ENDS
;	COMDAT ?digits@?$numeric_limits@N@std@@2HB
CONST	SEGMENT
?digits@?$numeric_limits@N@std@@2HB DD 035H		; std::numeric_limits<double>::digits
CONST	ENDS
;	COMDAT ?min_exponent10@?$numeric_limits@M@std@@2HB
CONST	SEGMENT
?min_exponent10@?$numeric_limits@M@std@@2HB DD 0ffffffdbH ; std::numeric_limits<float>::min_exponent10
CONST	ENDS
;	COMDAT ?min_exponent@?$numeric_limits@M@std@@2HB
CONST	SEGMENT
?min_exponent@?$numeric_limits@M@std@@2HB DD 0ffffff83H	; std::numeric_limits<float>::min_exponent
CONST	ENDS
PUBLIC	??2@YAPAXIPAX@Z					; operator new
PUBLIC	??3@YAXPAX0@Z					; operator delete
PUBLIC	_fabsf
PUBLIC	_cosf
PUBLIC	_floorf
PUBLIC	?cos@@YAMM@Z					; cos
PUBLIC	?fabs@@YAMM@Z					; fabs
PUBLIC	?floor@@YAMM@Z					; floor
PUBLIC	?length@?$char_traits@D@std@@SAIPBD@Z		; std::char_traits<char>::length
PUBLIC	?copy@?$char_traits@D@std@@SAPADPADPBDI@Z	; std::char_traits<char>::copy
PUBLIC	?move@?$char_traits@D@std@@SAPADPADPBDI@Z	; std::char_traits<char>::move
PUBLIC	?assign@?$char_traits@D@std@@SAXAADABD@Z	; std::char_traits<char>::assign
PUBLIC	??0?$allocator@D@std@@QAE@XZ			; std::allocator<char>::allocator<char>
PUBLIC	?deallocate@?$allocator@D@std@@QAEXPADI@Z	; std::allocator<char>::deallocate
PUBLIC	?allocate@?$allocator@D@std@@QAEPADI@Z		; std::allocator<char>::allocate
PUBLIC	?max_size@?$allocator@D@std@@QBEIXZ		; std::allocator<char>::max_size
PUBLIC	?max_size@?$allocator_traits@V?$allocator@D@std@@@std@@SAIABV?$allocator@D@2@@Z ; std::allocator_traits<std::allocator<char> >::max_size
PUBLIC	??0?$_Wrap_alloc@V?$allocator@D@std@@@std@@QAE@XZ ; std::_Wrap_alloc<std::allocator<char> >::_Wrap_alloc<std::allocator<char> >
PUBLIC	?allocate@?$_Wrap_alloc@V?$allocator@D@std@@@std@@QAEPADI@Z ; std::_Wrap_alloc<std::allocator<char> >::allocate
PUBLIC	?deallocate@?$_Wrap_alloc@V?$allocator@D@std@@@std@@QAEXPADI@Z ; std::_Wrap_alloc<std::allocator<char> >::deallocate
PUBLIC	?max_size@?$_Wrap_alloc@V?$allocator@D@std@@@std@@QBEIXZ ; std::_Wrap_alloc<std::allocator<char> >::max_size
PUBLIC	??0?$_String_val@U?$_Simple_types@D@std@@@std@@QAE@XZ ; std::_String_val<std::_Simple_types<char> >::_String_val<std::_Simple_types<char> >
PUBLIC	?_Myptr@?$_String_val@U?$_Simple_types@D@std@@@std@@QAEPADXZ ; std::_String_val<std::_Simple_types<char> >::_Myptr
PUBLIC	?_Myptr@?$_String_val@U?$_Simple_types@D@std@@@std@@QBEPBDXZ ; std::_String_val<std::_Simple_types<char> >::_Myptr
PUBLIC	??0?$_String_alloc@$0A@U?$_String_base_types@DV?$allocator@D@std@@@std@@@std@@QAE@ABV?$allocator@D@1@@Z ; std::_String_alloc<0,std::_String_base_types<char,std::allocator<char> > >::_String_alloc<0,std::_String_base_types<char,std::allocator<char> > >
PUBLIC	?_Getal@?$_String_alloc@$0A@U?$_String_base_types@DV?$allocator@D@std@@@std@@@std@@QBE?AU?$_Wrap_alloc@V?$allocator@D@std@@@2@XZ ; std::_String_alloc<0,std::_String_base_types<char,std::allocator<char> > >::_Getal
PUBLIC	??0?$basic_string@DU?$char_traits@D@std@@V?$allocator@D@2@@std@@QAE@PBD@Z ; std::basic_string<char,std::char_traits<char>,std::allocator<char> >::basic_string<char,std::char_traits<char>,std::allocator<char> >
PUBLIC	?assign@?$basic_string@DU?$char_traits@D@std@@V?$allocator@D@2@@std@@QAEAAV12@ABV12@II@Z ; std::basic_string<char,std::char_traits<char>,std::allocator<char> >::assign
PUBLIC	?assign@?$basic_string@DU?$char_traits@D@std@@V?$allocator@D@2@@std@@QAEAAV12@PBDI@Z ; std::basic_string<char,std::char_traits<char>,std::allocator<char> >::assign
PUBLIC	?assign@?$basic_string@DU?$char_traits@D@std@@V?$allocator@D@2@@std@@QAEAAV12@PBD@Z ; std::basic_string<char,std::char_traits<char>,std::allocator<char> >::assign
PUBLIC	?erase@?$basic_string@DU?$char_traits@D@std@@V?$allocator@D@2@@std@@QAEAAV12@I@Z ; std::basic_string<char,std::char_traits<char>,std::allocator<char> >::erase
PUBLIC	?erase@?$basic_string@DU?$char_traits@D@std@@V?$allocator@D@2@@std@@QAEAAV12@II@Z ; std::basic_string<char,std::char_traits<char>,std::allocator<char> >::erase
PUBLIC	?size@?$basic_string@DU?$char_traits@D@std@@V?$allocator@D@2@@std@@QBEIXZ ; std::basic_string<char,std::char_traits<char>,std::allocator<char> >::size
PUBLIC	?max_size@?$basic_string@DU?$char_traits@D@std@@V?$allocator@D@2@@std@@QBEIXZ ; std::basic_string<char,std::char_traits<char>,std::allocator<char> >::max_size
PUBLIC	?_Copy@?$basic_string@DU?$char_traits@D@std@@V?$allocator@D@2@@std@@QAEXII@Z ; std::basic_string<char,std::char_traits<char>,std::allocator<char> >::_Copy
PUBLIC	?_Eos@?$basic_string@DU?$char_traits@D@std@@V?$allocator@D@2@@std@@QAEXI@Z ; std::basic_string<char,std::char_traits<char>,std::allocator<char> >::_Eos
PUBLIC	?_Grow@?$basic_string@DU?$char_traits@D@std@@V?$allocator@D@2@@std@@QAE_NI_N@Z ; std::basic_string<char,std::char_traits<char>,std::allocator<char> >::_Grow
PUBLIC	?_Inside@?$basic_string@DU?$char_traits@D@std@@V?$allocator@D@2@@std@@QAE_NPBD@Z ; std::basic_string<char,std::char_traits<char>,std::allocator<char> >::_Inside
PUBLIC	?_Tidy@?$basic_string@DU?$char_traits@D@std@@V?$allocator@D@2@@std@@QAEX_NI@Z ; std::basic_string<char,std::char_traits<char>,std::allocator<char> >::_Tidy
PUBLIC	?_Xlen@?$basic_string@DU?$char_traits@D@std@@V?$allocator@D@2@@std@@QBEXXZ ; std::basic_string<char,std::char_traits<char>,std::allocator<char> >::_Xlen
PUBLIC	?_Xran@?$basic_string@DU?$char_traits@D@std@@V?$allocator@D@2@@std@@QBEXXZ ; std::basic_string<char,std::char_traits<char>,std::allocator<char> >::_Xran
PUBLIC	??0id@locale@std@@QAE@I@Z			; std::locale::id::id
PUBLIC	?generic_category@std@@YAABVerror_category@1@XZ	; std::generic_category
PUBLIC	?system_category@std@@YAABVerror_category@1@XZ	; std::system_category
PUBLIC	??0error_category@std@@QAE@XZ			; std::error_category::error_category
PUBLIC	??1error_category@std@@UAE@XZ			; std::error_category::~error_category
PUBLIC	?default_error_condition@error_category@std@@UBE?AVerror_condition@2@H@Z ; std::error_category::default_error_condition
PUBLIC	?equivalent@error_category@std@@UBE_NHABVerror_condition@2@@Z ; std::error_category::equivalent
PUBLIC	?equivalent@error_category@std@@UBE_NABVerror_code@2@H@Z ; std::error_category::equivalent
PUBLIC	??8error_category@std@@QBE_NABV01@@Z		; std::error_category::operator==
PUBLIC	??_Gerror_category@std@@UAEPAXI@Z		; std::error_category::`scalar deleting destructor'
PUBLIC	?value@error_code@std@@QBEHXZ			; std::error_code::value
PUBLIC	?category@error_code@std@@QBEABVerror_category@2@XZ ; std::error_code::category
PUBLIC	??0error_condition@std@@QAE@HABVerror_category@1@@Z ; std::error_condition::error_condition
PUBLIC	?value@error_condition@std@@QBEHXZ		; std::error_condition::value
PUBLIC	?category@error_condition@std@@QBEABVerror_category@2@XZ ; std::error_condition::category
PUBLIC	??8error_condition@std@@QBE_NABV01@@Z		; std::error_condition::operator==
PUBLIC	??0_Generic_error_category@std@@QAE@XZ		; std::_Generic_error_category::_Generic_error_category
PUBLIC	?name@_Generic_error_category@std@@UBEPBDXZ	; std::_Generic_error_category::name
PUBLIC	?message@_Generic_error_category@std@@UBE?AV?$basic_string@DU?$char_traits@D@std@@V?$allocator@D@2@@2@H@Z ; std::_Generic_error_category::message
PUBLIC	??1_Generic_error_category@std@@UAE@XZ		; std::_Generic_error_category::~_Generic_error_category
PUBLIC	??_G_Generic_error_category@std@@UAEPAXI@Z	; std::_Generic_error_category::`scalar deleting destructor'
PUBLIC	??0_Iostream_error_category@std@@QAE@XZ		; std::_Iostream_error_category::_Iostream_error_category
PUBLIC	?name@_Iostream_error_category@std@@UBEPBDXZ	; std::_Iostream_error_category::name
PUBLIC	?message@_Iostream_error_category@std@@UBE?AV?$basic_string@DU?$char_traits@D@std@@V?$allocator@D@2@@2@H@Z ; std::_Iostream_error_category::message
PUBLIC	??1_Iostream_error_category@std@@UAE@XZ		; std::_Iostream_error_category::~_Iostream_error_category
PUBLIC	??_G_Iostream_error_category@std@@UAEPAXI@Z	; std::_Iostream_error_category::`scalar deleting destructor'
PUBLIC	??0_System_error_category@std@@QAE@XZ		; std::_System_error_category::_System_error_category
PUBLIC	?name@_System_error_category@std@@UBEPBDXZ	; std::_System_error_category::name
PUBLIC	?message@_System_error_category@std@@UBE?AV?$basic_string@DU?$char_traits@D@std@@V?$allocator@D@2@@2@H@Z ; std::_System_error_category::message
PUBLIC	?default_error_condition@_System_error_category@std@@UBE?AVerror_condition@2@H@Z ; std::_System_error_category::default_error_condition
PUBLIC	??1_System_error_category@std@@UAE@XZ		; std::_System_error_category::~_System_error_category
PUBLIC	??_G_System_error_category@std@@UAEPAXI@Z	; std::_System_error_category::`scalar deleting destructor'
PUBLIC	?XPos@VuEntity@@QBEMXZ				; VuEntity::XPos
PUBLIC	?YPos@VuEntity@@QBEMXZ				; VuEntity::YPos
PUBLIC	?Yaw@VuEntity@@QBEMXZ				; VuEntity::Yaw
PUBLIC	??B?$VuBin@VVuSessionEntity@@@@QBE_NXZ		; VuBin<VuSessionEntity>::operator bool
PUBLIC	?get@?$VuBin@VVuSessionEntity@@@@QBEPAVVuSessionEntity@@XZ ; VuBin<VuSessionEntity>::get
PUBLIC	?mlSinCos@@YAXPAUmlTrig@@M@Z			; mlSinCos
PUBLIC	?GetAvionicsType@PlayerOptionsClass@@QAEHXZ	; PlayerOptionsClass::GetAvionicsType
PUBLIC	?CurrentForegroundColor@ContextMPR@@QAEHXZ	; ContextMPR::CurrentForegroundColor
PUBLIC	?targetXres@ImageBuffer@@QAEHXZ			; ImageBuffer::targetXres
PUBLIC	?targetYres@ImageBuffer@@QAEHXZ			; ImageBuffer::targetYres
PUBLIC	?PixelSize@ImageBuffer@@QAEHXZ			; ImageBuffer::PixelSize
PUBLIC	?Pixel@ImageBuffer@@QAEPAXPAXHH@Z		; ImageBuffer::Pixel
PUBLIC	??0VirtualDisplay@@QAE@XZ			; VirtualDisplay::VirtualDisplay
PUBLIC	??1VirtualDisplay@@UAE@XZ			; VirtualDisplay::~VirtualDisplay
PUBLIC	?Circle@VirtualDisplay@@UAEXMMM@Z		; VirtualDisplay::Circle
PUBLIC	?Arc@VirtualDisplay@@UAEXMMMMM@Z		; VirtualDisplay::Arc
PUBLIC	?TextWidth@VirtualDisplay@@UAEMPAD@Z		; VirtualDisplay::TextWidth
PUBLIC	?TextHeight@VirtualDisplay@@UAEMXZ		; VirtualDisplay::TextHeight
PUBLIC	?CurFont@VirtualDisplay@@SAHXZ			; VirtualDisplay::CurFont
PUBLIC	?SetLineStyle@VirtualDisplay@@UAEXH@Z		; VirtualDisplay::SetLineStyle
PUBLIC	?Color@VirtualDisplay@@UAEKXZ			; VirtualDisplay::Color
PUBLIC	?CenterOriginInViewport@VirtualDisplay@@QAEXXZ	; VirtualDisplay::CenterOriginInViewport
PUBLIC	??_GVirtualDisplay@@UAEPAXI@Z			; VirtualDisplay::`scalar deleting destructor'
PUBLIC	??0Render2D@@QAE@XZ				; Render2D::Render2D
PUBLIC	??1Render2D@@UAE@XZ				; Render2D::~Render2D
PUBLIC	?ClearDraw@Render2D@@UAEXXZ			; Render2D::ClearDraw
PUBLIC	?ClearZBuffer@Render2D@@UAEXXZ			; Render2D::ClearZBuffer
PUBLIC	?Color@Render2D@@UAEKXZ				; Render2D::Color
PUBLIC	?SetColor@Render2D@@UAEXK@Z			; Render2D::SetColor
PUBLIC	?SetBackground@Render2D@@UAEXK@Z		; Render2D::SetBackground
PUBLIC	?SetLineStyle@Render2D@@UAEXH@Z			; Render2D::SetLineStyle
PUBLIC	??_GRender2D@@UAEPAXI@Z				; Render2D::`scalar deleting destructor'
PUBLIC	?get@?$VuBin@VCampBaseClass@@@@QBEPAVCampBaseClass@@XZ ; VuBin<CampBaseClass>::get
PUBLIC	?GetCampaignObject@SimBaseClass@@QAEPAVCampBaseClass@@XZ ; SimBaseClass::GetCampaignObject
PUBLIC	?IsHardware@DisplayDevice@@QAEHXZ		; DisplayDevice::IsHardware
PUBLIC	?HandleEvent@CPObject@@UAEXXZ			; CPObject::HandleEvent
PUBLIC	?CreateLit@CPObject@@UAEXXZ			; CPObject::CreateLit
PUBLIC	?Translate@CPObject@@UAEXPAG@Z			; CPObject::Translate
PUBLIC	?Translate@CPObject@@UAEXPAK@Z			; CPObject::Translate
PUBLIC	?DisplayBlit3D@CPObject@@UAEXXZ			; CPObject::DisplayBlit3D
PUBLIC	?GetNextWP@WayPointClass@@QAEPAV1@XZ		; WayPointClass::GetNextWP
PUBLIC	?KneeFont@CockpitManager@@QAEHXZ		; CockpitManager::KneeFont
PUBLIC	?GetPage@KneeBoard@@QAE?AW4Page@1@XZ		; KneeBoard::GetPage
PUBLIC	?GetImageFile@KneeBoard@@QAEAAVCImageFileMemory@@XZ ; KneeBoard::GetImageFile
PUBLIC	?Exec@CPKneeView@@UAEXPAVSimBaseClass@@@Z	; CPKneeView::Exec
PUBLIC	?DisplayBlit@CPKneeView@@UAEXXZ			; CPKneeView::DisplayBlit
PUBLIC	?DisplayDraw@CPKneeView@@UAEXXZ			; CPKneeView::DisplayDraw
PUBLIC	?Refresh@CPKneeView@@UAEXPAVSimVehicleClass@@@Z	; CPKneeView::Refresh
PUBLIC	?Setup@CPKneeView@@UAEXPAVDisplayDevice@@HHHH@Z	; CPKneeView::Setup
PUBLIC	?Cleanup@CPKneeView@@UAEXXZ			; CPKneeView::Cleanup
PUBLIC	??0CPKneeView@@QAE@PAUObjectInitStr@@PAVKneeBoard@@@Z ; CPKneeView::CPKneeView
PUBLIC	??1CPKneeView@@UAE@XZ				; CPKneeView::~CPKneeView
PUBLIC	?DrawMissionText@CPKneeView@@AAEXPAVRender2D@@PAVSimVehicleClass@@@Z ; CPKneeView::DrawMissionText
PUBLIC	?RenderMap@CPKneeView@@AAEXPAVSimVehicleClass@@@Z ; CPKneeView::RenderMap
PUBLIC	?UpdateMapDimensions@CPKneeView@@AAEXPAVSimVehicleClass@@@Z ; CPKneeView::UpdateMapDimensions
PUBLIC	?DrawMap@CPKneeView@@AAEXXZ			; CPKneeView::DrawMap
PUBLIC	?DrawWaypoints@CPKneeView@@AAEXPAVSimVehicleClass@@@Z ; CPKneeView::DrawWaypoints
PUBLIC	?DrawCurrentPosition@CPKneeView@@AAEXPAVImageBuffer@@PAVRender2D@@PAVSimVehicleClass@@@Z ; CPKneeView::DrawCurrentPosition
PUBLIC	?MapWaypointToDisplay@CPKneeView@@AAEXPAVWayPointClass@@PAM1@Z ; CPKneeView::MapWaypointToDisplay
PUBLIC	??_GCPKneeView@@UAEPAXI@Z			; CPKneeView::`scalar deleting destructor'
PUBLIC	?GetGame@FalconSessionEntity@@QAEPAVFalconGameEntity@@XZ ; FalconSessionEntity::GetGame
PUBLIC	?RunningInstantAction@SimulationDriver@@QBE_NXZ	; SimulationDriver::RunningInstantAction
PUBLIC	?RunningDogfight@SimulationDriver@@QBE_NXZ	; SimulationDriver::RunningDogfight
PUBLIC	?GetPlayerEntity@SimulationDriver@@QBEPAVSimMoverClass@@XZ ; SimulationDriver::GetPlayerEntity
PUBLIC	?FTperBLOCK@TLevel@@QAEMXZ			; TLevel::FTperBLOCK
PUBLIC	?BlocksWide@TLevel@@QAEIXZ			; TLevel::BlocksWide
PUBLIC	?BlocksHigh@TLevel@@QAEIXZ			; TLevel::BlocksHigh
PUBLIC	?NorthEdge@TMap@@QAEMXZ				; TMap::NorthEdge
PUBLIC	?EastEdge@TMap@@QAEMXZ				; TMap::EastEdge
PUBLIC	?WestEdge@TMap@@QAEMXZ				; TMap::WestEdge
PUBLIC	?SouthEdge@TMap@@QAEMXZ				; TMap::SouthEdge
PUBLIC	??$construct@PADAAPAD@?$_Wrap_alloc@V?$allocator@D@std@@@std@@QAEXPAPADAAPAD@Z ; std::_Wrap_alloc<std::allocator<char> >::construct<char *,char * &>
PUBLIC	??$destroy@PAD@?$_Wrap_alloc@V?$allocator@D@std@@@std@@QAEXPAPAD@Z ; std::_Wrap_alloc<std::allocator<char> >::destroy<char *>
PUBLIC	??$addressof@D@std@@YAPADAAD@Z			; std::addressof<char>
PUBLIC	??$_Allocate@D@std@@YAPADIPAD@Z			; std::_Allocate<char>
PUBLIC	??$forward@AAPAD@std@@YAAAPADAAPAD@Z		; std::forward<char * &>
PUBLIC	??$construct@PADAAPAD@?$allocator_traits@V?$allocator@D@std@@@std@@SAXAAV?$allocator@D@1@PAPADAAPAD@Z ; std::allocator_traits<std::allocator<char> >::construct<char *,char * &>
PUBLIC	??$destroy@PAD@?$allocator_traits@V?$allocator@D@std@@@std@@SAXAAV?$allocator@D@1@PAPAD@Z ; std::allocator_traits<std::allocator<char> >::destroy<char *>
PUBLIC	??$construct@PADAAPAD@?$allocator@D@std@@QAEXPAPADAAPAD@Z ; std::allocator<char>::construct<char *,char * &>
PUBLIC	??$destroy@PAD@?$allocator@D@std@@QAEXPAPAD@Z	; std::allocator<char>::destroy<char *>
PUBLIC	??_ECPKneeView@@WJA@AEPAXI@Z			; [thunk]:CPKneeView::`vector deleting destructor'
PUBLIC	??_C@_00CNPNBAHC@?$AA@				; `string'
PUBLIC	??_7error_category@std@@6B@			; std::error_category::`vftable'
PUBLIC	??_7_Generic_error_category@std@@6B@		; std::_Generic_error_category::`vftable'
PUBLIC	??_C@_07DCLBNMLN@generic?$AA@			; `string'
PUBLIC	??_C@_0O@BFJCFAAK@unknown?5error?$AA@		; `string'
PUBLIC	??_7_Iostream_error_category@std@@6B@		; std::_Iostream_error_category::`vftable'
PUBLIC	??_C@_08LLGCOLLL@iostream?$AA@			; `string'
PUBLIC	??_C@_0BG@PADBLCHM@iostream?5stream?5error?$AA@	; `string'
PUBLIC	??_7_System_error_category@std@@6B@		; std::_System_error_category::`vftable'
PUBLIC	??_C@_06FHFOAHML@system?$AA@			; `string'
PUBLIC	?_Generic_object@?$_Error_objects@H@std@@2V_Generic_error_category@2@A ; std::_Error_objects<int>::_Generic_object
PUBLIC	?_Iostream_object@?$_Error_objects@H@std@@2V_Iostream_error_category@2@A ; std::_Error_objects<int>::_Iostream_object
PUBLIC	?_System_object@?$_Error_objects@H@std@@2V_System_error_category@2@A ; std::_Error_objects<int>::_System_object
PUBLIC	?id@?$num_put@DV?$back_insert_iterator@V?$basic_string@DU?$char_traits@D@std@@V?$allocator@D@2@@std@@@std@@@std@@2V0locale@2@A ; std::num_put<char,std::back_insert_iterator<std::basic_string<char,std::char_traits<char>,std::allocator<char> > > >::id
PUBLIC	?id@?$num_put@_WV?$back_insert_iterator@V?$basic_string@_WU?$char_traits@_W@std@@V?$allocator@_W@2@@std@@@std@@@std@@2V0locale@2@A ; std::num_put<wchar_t,std::back_insert_iterator<std::basic_string<wchar_t,std::char_traits<wchar_t>,std::allocator<wchar_t> > > >::id
PUBLIC	??_7VirtualDisplay@@6B@				; VirtualDisplay::`vftable'
PUBLIC	??_7Render2D@@6B@				; Render2D::`vftable'
PUBLIC	??_7CPKneeView@@6BCPObject@@@			; CPKneeView::`vftable'
PUBLIC	??_7CPKneeView@@6BRender2D@@@			; CPKneeView::`vftable'
PUBLIC	??_C@_0BF@POFDKNCE@LAT?5?5N?5?$CF3d?$AD?50?$CF2?42f?8?6?$AA@ ; `string'
PUBLIC	??_C@_0BE@DFFILLAH@LAT?5?5N?5?$CF3d?$AD?5?$CF2?42f?8?6?$AA@ ; `string'
PUBLIC	??_C@_0BF@GIADELBL@LNG?5?5E?5?$CF3d?$AD?50?$CF2?42f?8?6?$AA@ ; `string'
PUBLIC	??_C@_0BE@GMBGAKEN@LNG?5?5E?5?$CF3d?$AD?5?$CF2?42f?8?6?$AA@ ; `string'
PUBLIC	??_C@_09DOBOALLE@SALT?5?$CFdFT?$AA@		; `string'
PUBLIC	?id@?$numpunct@D@std@@2V0locale@2@A		; std::numpunct<char>::id
PUBLIC	?id@?$numpunct@_W@std@@2V0locale@2@A		; std::numpunct<wchar_t>::id
PUBLIC	??_C@_0BI@CFPLBAOH@invalid?5string?5position?$AA@ ; `string'
PUBLIC	??_C@_0BA@JFNIOLAK@string?5too?5long?$AA@	; `string'
PUBLIC	??_R4error_category@std@@6B@			; std::error_category::`RTTI Complete Object Locator'
PUBLIC	??_R0?AVerror_category@std@@@8			; std::error_category `RTTI Type Descriptor'
PUBLIC	??_R3error_category@std@@8			; std::error_category::`RTTI Class Hierarchy Descriptor'
PUBLIC	??_R2error_category@std@@8			; std::error_category::`RTTI Base Class Array'
PUBLIC	??_R1A@?0A@EA@error_category@std@@8		; std::error_category::`RTTI Base Class Descriptor at (0,-1,0,64)'
PUBLIC	??_R4_Generic_error_category@std@@6B@		; std::_Generic_error_category::`RTTI Complete Object Locator'
PUBLIC	??_R0?AV_Generic_error_category@std@@@8		; std::_Generic_error_category `RTTI Type Descriptor'
PUBLIC	??_R3_Generic_error_category@std@@8		; std::_Generic_error_category::`RTTI Class Hierarchy Descriptor'
PUBLIC	??_R2_Generic_error_category@std@@8		; std::_Generic_error_category::`RTTI Base Class Array'
PUBLIC	??_R1A@?0A@EA@_Generic_error_category@std@@8	; std::_Generic_error_category::`RTTI Base Class Descriptor at (0,-1,0,64)'
PUBLIC	??_R4_Iostream_error_category@std@@6B@		; std::_Iostream_error_category::`RTTI Complete Object Locator'
PUBLIC	??_R0?AV_Iostream_error_category@std@@@8	; std::_Iostream_error_category `RTTI Type Descriptor'
PUBLIC	??_R3_Iostream_error_category@std@@8		; std::_Iostream_error_category::`RTTI Class Hierarchy Descriptor'
PUBLIC	??_R2_Iostream_error_category@std@@8		; std::_Iostream_error_category::`RTTI Base Class Array'
PUBLIC	??_R1A@?0A@EA@_Iostream_error_category@std@@8	; std::_Iostream_error_category::`RTTI Base Class Descriptor at (0,-1,0,64)'
PUBLIC	??_R4_System_error_category@std@@6B@		; std::_System_error_category::`RTTI Complete Object Locator'
PUBLIC	??_R0?AV_System_error_category@std@@@8		; std::_System_error_category `RTTI Type Descriptor'
PUBLIC	??_R3_System_error_category@std@@8		; std::_System_error_category::`RTTI Class Hierarchy Descriptor'
PUBLIC	??_R2_System_error_category@std@@8		; std::_System_error_category::`RTTI Base Class Array'
PUBLIC	??_R1A@?0A@EA@_System_error_category@std@@8	; std::_System_error_category::`RTTI Base Class Descriptor at (0,-1,0,64)'
PUBLIC	??_R1A@?0A@EA@Render2D@@8			; Render2D::`RTTI Base Class Descriptor at (0,-1,0,64)'
PUBLIC	??_R0?AVRender2D@@@8				; Render2D `RTTI Type Descriptor'
PUBLIC	??_R3Render2D@@8				; Render2D::`RTTI Class Hierarchy Descriptor'
PUBLIC	??_R2Render2D@@8				; Render2D::`RTTI Base Class Array'
PUBLIC	??_R1A@?0A@EA@VirtualDisplay@@8			; VirtualDisplay::`RTTI Base Class Descriptor at (0,-1,0,64)'
PUBLIC	??_R0?AVVirtualDisplay@@@8			; VirtualDisplay `RTTI Type Descriptor'
PUBLIC	??_R3VirtualDisplay@@8				; VirtualDisplay::`RTTI Class Hierarchy Descriptor'
PUBLIC	??_R2VirtualDisplay@@8				; VirtualDisplay::`RTTI Base Class Array'
PUBLIC	??_R4VirtualDisplay@@6B@			; VirtualDisplay::`RTTI Complete Object Locator'
PUBLIC	??_R4Render2D@@6B@				; Render2D::`RTTI Complete Object Locator'
PUBLIC	??_R4CPKneeView@@6BCPObject@@@			; CPKneeView::`RTTI Complete Object Locator'
PUBLIC	??_R0?AVCPKneeView@@@8				; CPKneeView `RTTI Type Descriptor'
PUBLIC	??_R3CPKneeView@@8				; CPKneeView::`RTTI Class Hierarchy Descriptor'
PUBLIC	??_R2CPKneeView@@8				; CPKneeView::`RTTI Base Class Array'
PUBLIC	??_R1A@?0A@EA@CPKneeView@@8			; CPKneeView::`RTTI Base Class Descriptor at (0,-1,0,64)'
PUBLIC	??_R1A@?0A@EA@CPObject@@8			; CPObject::`RTTI Base Class Descriptor at (0,-1,0,64)'
PUBLIC	??_R0?AVCPObject@@@8				; CPObject `RTTI Type Descriptor'
PUBLIC	??_R3CPObject@@8				; CPObject::`RTTI Class Hierarchy Descriptor'
PUBLIC	??_R2CPObject@@8				; CPObject::`RTTI Base Class Array'
PUBLIC	??_R1JA@?0A@EN@Render2D@@8			; Render2D::`RTTI Base Class Descriptor at (144,-1,0,77)'
PUBLIC	??_R1JA@?0A@EJ@VirtualDisplay@@8		; VirtualDisplay::`RTTI Base Class Descriptor at (144,-1,0,73)'
PUBLIC	??_R4CPKneeView@@6BRender2D@@@			; CPKneeView::`RTTI Complete Object Locator'
PUBLIC	__real@00000000
PUBLIC	__real@399fcd90
PUBLIC	__real@3c8efa34
PUBLIC	__real@3f000000
PUBLIC	__real@3f4ccccd
PUBLIC	__real@3f733333
PUBLIC	__real@3f800000
PUBLIC	__real@3fc00000
PUBLIC	__real@3fd9999a
PUBLIC	__real@40000000
PUBLIC	__real@41200000
PUBLIC	__real@42652ee1
PUBLIC	__real@42700000
PUBLIC	__real@454cffae
PUBLIC	__real@45be3840
PUBLIC	__real@4b9fa682
PUBLIC	__real@bdcccccd
PUBLIC	__real@bf4ccccd
PUBLIC	__real@bf666666
PUBLIC	__real@bf733333
PUBLIC	__real@c0000000
PUBLIC	__xmm@41f00000000000000000000000000000
PUBLIC	__xmm@80000000800000008000000080000000
EXTRN	__purecall:PROC
EXTRN	??2@YAPAXI@Z:PROC				; operator new
EXTRN	??3@YAXPAX@Z:PROC				; operator delete
EXTRN	_atexit:PROC
EXTRN	_memcpy:PROC
EXTRN	_strlen:PROC
EXTRN	_memmove:PROC
EXTRN	_sprintf:PROC
EXTRN	_cos:PROC
EXTRN	_fabs:PROC
EXTRN	_floor:PROC
EXTRN	?_Xbad_alloc@std@@YAXXZ:PROC			; std::_Xbad_alloc
EXTRN	?_Xlength_error@std@@YAXPBD@Z:PROC		; std::_Xlength_error
EXTRN	?_Xout_of_range@std@@YAXPBD@Z:PROC		; std::_Xout_of_range
EXTRN	??_Eerror_category@std@@UAEPAXI@Z:PROC		; std::error_category::`vector deleting destructor'
EXTRN	?_Syserror_map@std@@YAPBDH@Z:PROC		; std::_Syserror_map
EXTRN	?_Winerror_map@std@@YAPBDH@Z:PROC		; std::_Winerror_map
EXTRN	??_E_Generic_error_category@std@@UAEPAXI@Z:PROC	; std::_Generic_error_category::`vector deleting destructor'
EXTRN	??_E_Iostream_error_category@std@@UAEPAXI@Z:PROC ; std::_Iostream_error_category::`vector deleting destructor'
EXTRN	??_E_System_error_category@std@@UAEPAXI@Z:PROC	; std::_System_error_category::`vector deleting destructor'
EXTRN	?Game@VuSessionEntity@@QAEPAVVuGameEntity@@XZ:PROC ; VuSessionEntity::Game
EXTRN	??0ContextMPR@@QAE@XZ:PROC			; ContextMPR::ContextMPR
EXTRN	??1ContextMPR@@UAE@XZ:PROC			; ContextMPR::~ContextMPR
EXTRN	?SetState@ContextMPR@@QAEXGK@Z:PROC		; ContextMPR::SetState
EXTRN	?ClearBuffers@ContextMPR@@QAEXG@Z:PROC		; ContextMPR::ClearBuffers
EXTRN	?SelectForegroundColor@ContextMPR@@QAEXH@Z:PROC	; ContextMPR::SelectForegroundColor
EXTRN	?RestoreState@ContextMPR@@QAEXH@Z:PROC		; ContextMPR::RestoreState
EXTRN	??0ImageBuffer@@QAE@XZ:PROC			; ImageBuffer::ImageBuffer
EXTRN	?Setup@ImageBuffer@@QAEHPAVDisplayDevice@@HHW4MPRSurfaceType@@1PAUHWND__@@HHH@Z:PROC ; ImageBuffer::Setup
EXTRN	?Cleanup@ImageBuffer@@QAEXXZ:PROC		; ImageBuffer::Cleanup
EXTRN	?Lock@ImageBuffer@@QAEPAX_N0@Z:PROC		; ImageBuffer::Lock
EXTRN	?Unlock@ImageBuffer@@QAEXXZ:PROC		; ImageBuffer::Unlock
EXTRN	?Compose@ImageBuffer@@QAEXPAV1@PAUtagRECT@@1@Z:PROC ; ImageBuffer::Compose
EXTRN	?Setup@VirtualDisplay@@UAEXXZ:PROC		; VirtualDisplay::Setup
EXTRN	?Cleanup@VirtualDisplay@@UAEXXZ:PROC		; VirtualDisplay::Cleanup
EXTRN	?Point@VirtualDisplay@@UAEXMM@Z:PROC		; VirtualDisplay::Point
EXTRN	?Line@VirtualDisplay@@UAEXMMMM@Z:PROC		; VirtualDisplay::Line
EXTRN	?Line@VirtualDisplay@@UAEXMMMMM@Z:PROC		; VirtualDisplay::Line
EXTRN	?Tri@VirtualDisplay@@UAEXMMMMMM@Z:PROC		; VirtualDisplay::Tri
EXTRN	?Oval@VirtualDisplay@@UAEXMMMM@Z:PROC		; VirtualDisplay::Oval
EXTRN	?OvalArc@VirtualDisplay@@UAEXMMMMMM@Z:PROC	; VirtualDisplay::OvalArc
EXTRN	?TextLeft@VirtualDisplay@@UAEXMMPBDH@Z:PROC	; VirtualDisplay::TextLeft
EXTRN	?TextRight@VirtualDisplay@@UAEXMMPBDH@Z:PROC	; VirtualDisplay::TextRight
EXTRN	?TextLeftVertical@VirtualDisplay@@UAEXMMPBDH@Z:PROC ; VirtualDisplay::TextLeftVertical
EXTRN	?TextRightVertical@VirtualDisplay@@UAEXMMPBDH@Z:PROC ; VirtualDisplay::TextRightVertical
EXTRN	?TextCenter@VirtualDisplay@@UAEXMMPBDH@Z:PROC	; VirtualDisplay::TextCenter
EXTRN	?TextCenterVertical@VirtualDisplay@@UAEXMMPBDH@Z:PROC ; VirtualDisplay::TextCenterVertical
EXTRN	?TextWrap@VirtualDisplay@@UAEHMMPBDMM@Z:PROC	; VirtualDisplay::TextWrap
EXTRN	?ScreenTextHeight@VirtualDisplay@@SAHXZ:PROC	; VirtualDisplay::ScreenTextHeight
EXTRN	?ScreenTextWidth@VirtualDisplay@@SAHPBD@Z:PROC	; VirtualDisplay::ScreenTextWidth
EXTRN	?SetFont@VirtualDisplay@@SAXH@Z:PROC		; VirtualDisplay::SetFont
EXTRN	?SetViewport@VirtualDisplay@@UAEXMMMM@Z:PROC	; VirtualDisplay::SetViewport
EXTRN	?SetViewportRelative@VirtualDisplay@@UAEXMMMM@Z:PROC ; VirtualDisplay::SetViewportRelative
EXTRN	?AdjustOriginInViewport@VirtualDisplay@@QAEXMM@Z:PROC ; VirtualDisplay::AdjustOriginInViewport
EXTRN	?Render2DTri@VirtualDisplay@@MAEXMMMMMM@Z:PROC	; VirtualDisplay::Render2DTri
EXTRN	??_EVirtualDisplay@@UAEPAXI@Z:PROC		; VirtualDisplay::`vector deleting destructor'
EXTRN	?Setup@Render2D@@UAEXPAVImageBuffer@@@Z:PROC	; Render2D::Setup
EXTRN	?Cleanup@Render2D@@UAEXXZ:PROC			; Render2D::Cleanup
EXTRN	?SetImageBuffer@Render2D@@UAEXPAVImageBuffer@@@Z:PROC ; Render2D::SetImageBuffer
EXTRN	?StartDraw@Render2D@@UAEXXZ:PROC		; Render2D::StartDraw
EXTRN	?EndDraw@Render2D@@UAEXXZ:PROC			; Render2D::EndDraw
EXTRN	?SetViewport@Render2D@@UAEXMMMM@Z:PROC		; Render2D::SetViewport
EXTRN	?Render2DPoint@Render2D@@UAEXMM@Z:PROC		; Render2D::Render2DPoint
EXTRN	?Render2DLine@Render2D@@UAEXMMMM@Z:PROC		; Render2D::Render2DLine
EXTRN	?Render2DTri@Render2D@@UAEXMMMMMM@Z:PROC	; Render2D::Render2DTri
EXTRN	?ScreenText@Render2D@@UAEXMMPBDH@Z:PROC		; Render2D::ScreenText
EXTRN	??_ERender2D@@UAEPAXI@Z:PROC			; Render2D::`vector deleting destructor'
EXTRN	?DiscardLit@CPObject@@UAEXXZ:PROC		; CPObject::DiscardLit
EXTRN	??0CPObject@@QAE@PBUObjectInitStr@@@Z:PROC	; CPObject::CPObject
EXTRN	??1CPObject@@UAE@XZ:PROC			; CPObject::~CPObject
EXTRN	?GetLocation@WayPointClass@@QBEXPAM00@Z:PROC	; WayPointClass::GetLocation
EXTRN	?ApplyLightingToPalette@@YAXPAK0MMM@Z:PROC	; ApplyLightingToPalette
EXTRN	?InvertRGBOrder@@YAKK@Z:PROC			; InvertRGBOrder
EXTRN	?ApplyLighting@CockpitManager@@QAEKK_N@Z:PROC	; CockpitManager::ApplyLighting
EXTRN	?ComputeLightFactors@CockpitManager@@QAEXPAM0@Z:PROC ; CockpitManager::ComputeLightFactors
EXTRN	??_ECPKneeView@@UAEPAXI@Z:PROC			; CPKneeView::`vector deleting destructor'
EXTRN	?SupportsSRT@DDDriverInfo@DeviceManager@@QAE_NXZ:PROC ; DeviceManager::DDDriverInfo::SupportsSRT
EXTRN	?GetDriver@DeviceManager@@QAEPAVDDDriverInfo@1@H@Z:PROC ; DeviceManager::GetDriver
EXTRN	?GetGameType@FalconGameEntity@@QAE?AW4FalconGameType@@XZ:PROC ; FalconGameEntity::GetGameType
EXTRN	?GetBriefingData@@YAHHHPADH@Z:PROC		; GetBriefingData
EXTRN	?GetOverrideWP@FlightClass@@QAEPAVWayPointClass@@XZ:PROC ; FlightClass::GetOverrideWP
EXTRN	@__security_check_cookie@4:PROC
EXTRN	__CxxThrowException@8:PROC
EXTRN	___CxxFrameHandler3:PROC
EXTRN	??_7type_info@@6B@:QWORD			; type_info::`vftable'
EXTRN	?vuLocalSessionEntity@@3V?$VuBin@VVuSessionEntity@@@@A:DWORD ; vuLocalSessionEntity
EXTRN	?vuxRealTime@@3KA:DWORD				; vuxRealTime
EXTRN	?DisplayOptions@@3VDisplayOptionsClass@@A:BYTE	; DisplayOptions
EXTRN	?PlayerOptions@@3VPlayerOptionsClass@@A:BYTE	; PlayerOptions
EXTRN	?pFontSet@VirtualDisplay@@2PAUFontSet@@A:DWORD	; VirtualDisplay::pFontSet
EXTRN	?OTWDriver@@3VOTWDriverClass@@A:BYTE		; OTWDriver
EXTRN	?cockpitFlightData@@3VFlightData@@A:BYTE	; cockpitFlightData
EXTRN	?FalconDisplay@@3VFalconDisplayConfiguration@@A:BYTE ; FalconDisplay
EXTRN	?SimDriver@@3VSimulationDriver@@A:BYTE		; SimDriver
EXTRN	?FALCON_ORIGIN_LAT@@3MA:DWORD			; FALCON_ORIGIN_LAT
EXTRN	?FALCON_ORIGIN_LONG@@3MA:DWORD			; FALCON_ORIGIN_LONG
EXTRN	?TheMap@@3VTMap@@A:BYTE				; TheMap
EXTRN	?g_bRealisticAvionics@@3_NA:BYTE		; g_bRealisticAvionics
EXTRN	?g_bINS@@3_NA:BYTE				; g_bINS
EXTRN	___security_cookie:DWORD
EXTRN	__fltused:DWORD
_BSS	SEGMENT
_piecewise_construct DB 01H DUP (?)
_allocator_arg DB 01H DUP (?)
_BSS	ENDS
;	COMDAT ?_Generic_object@?$_Error_objects@H@std@@2V_Generic_error_category@2@A
_BSS	SEGMENT
?_Generic_object@?$_Error_objects@H@std@@2V_Generic_error_category@2@A DD 01H DUP (?) ; std::_Error_objects<int>::_Generic_object
_BSS	ENDS
;	COMDAT ?_Iostream_object@?$_Error_objects@H@std@@2V_Iostream_error_category@2@A
_BSS	SEGMENT
?_Iostream_object@?$_Error_objects@H@std@@2V_Iostream_error_category@2@A DD 01H DUP (?) ; std::_Error_objects<int>::_Iostream_object
_BSS	ENDS
;	COMDAT ?_System_object@?$_Error_objects@H@std@@2V_System_error_category@2@A
_BSS	SEGMENT
?_System_object@?$_Error_objects@H@std@@2V_System_error_category@2@A DD 01H DUP (?) ; std::_Error_objects<int>::_System_object
_BSS	ENDS
;	COMDAT ?id@?$num_put@DV?$back_insert_iterator@V?$basic_string@DU?$char_traits@D@std@@V?$allocator@D@2@@std@@@std@@@std@@2V0locale@2@A
_BSS	SEGMENT
?id@?$num_put@DV?$back_insert_iterator@V?$basic_string@DU?$char_traits@D@std@@V?$allocator@D@2@@std@@@std@@@std@@2V0locale@2@A DD 01H DUP (?) ; std::num_put<char,std::back_insert_iterator<std::basic_string<char,std::char_traits<char>,std::allocator<char> > > >::id
_BSS	ENDS
;	COMDAT ?id@?$num_put@_WV?$back_insert_iterator@V?$basic_string@_WU?$char_traits@_W@std@@V?$allocator@_W@2@@std@@@std@@@std@@2V0locale@2@A
_BSS	SEGMENT
?id@?$num_put@_WV?$back_insert_iterator@V?$basic_string@_WU?$char_traits@_W@std@@V?$allocator@_W@2@@std@@@std@@@std@@2V0locale@2@A DD 01H DUP (?) ; std::num_put<wchar_t,std::back_insert_iterator<std::basic_string<wchar_t,std::char_traits<wchar_t>,std::allocator<wchar_t> > > >::id
_BSS	ENDS
;	COMDAT ?id@?$numpunct@D@std@@2V0locale@2@A
_BSS	SEGMENT
?id@?$numpunct@D@std@@2V0locale@2@A DD 01H DUP (?)	; std::numpunct<char>::id
_BSS	ENDS
;	COMDAT ?id@?$numpunct@_W@std@@2V0locale@2@A
_BSS	SEGMENT
?id@?$numpunct@_W@std@@2V0locale@2@A DD 01H DUP (?)	; std::numpunct<wchar_t>::id
_BSS	ENDS
CRT$XCU	SEGMENT
_piecewise_construct$initializer$ DD FLAT:??__Epiecewise_construct@std@@YAXXZ
CRT$XCU	ENDS
;	COMDAT __xmm@80000000800000008000000080000000
CONST	SEGMENT
__xmm@80000000800000008000000080000000 DB 00H, 00H, 00H, 080H, 00H, 00H, 00H
	DB	080H, 00H, 00H, 00H, 080H, 00H, 00H, 00H, 080H
CONST	ENDS
;	COMDAT __xmm@41f00000000000000000000000000000
CONST	SEGMENT
__xmm@41f00000000000000000000000000000 DB 00H, 00H, 00H, 00H, 00H, 00H, 00H
	DB	00H, 00H, 00H, 00H, 00H, 00H, 00H, 0f0H, 'A'
CONST	ENDS
;	COMDAT __real@c0000000
CONST	SEGMENT
__real@c0000000 DD 0c0000000r			; -2
CONST	ENDS
;	COMDAT __real@bf733333
CONST	SEGMENT
__real@bf733333 DD 0bf733333r			; -0.95
CONST	ENDS
;	COMDAT __real@bf666666
CONST	SEGMENT
__real@bf666666 DD 0bf666666r			; -0.9
CONST	ENDS
;	COMDAT __real@bf4ccccd
CONST	SEGMENT
__real@bf4ccccd DD 0bf4ccccdr			; -0.8
CONST	ENDS
;	COMDAT __real@bdcccccd
CONST	SEGMENT
__real@bdcccccd DD 0bdcccccdr			; -0.1
CONST	ENDS
;	COMDAT __real@4b9fa682
CONST	SEGMENT
__real@4b9fa682 DD 04b9fa682r			; 2.09257e+007
CONST	ENDS
;	COMDAT __real@45be3840
CONST	SEGMENT
__real@45be3840 DD 045be3840r			; 6087.03
CONST	ENDS
;	COMDAT __real@454cffae
CONST	SEGMENT
__real@454cffae DD 0454cffaer			; 3279.98
CONST	ENDS
;	COMDAT __real@42700000
CONST	SEGMENT
__real@42700000 DD 042700000r			; 60
CONST	ENDS
;	COMDAT __real@42652ee1
CONST	SEGMENT
__real@42652ee1 DD 042652ee1r			; 57.2958
CONST	ENDS
;	COMDAT __real@41200000
CONST	SEGMENT
__real@41200000 DD 041200000r			; 10
CONST	ENDS
;	COMDAT __real@40000000
CONST	SEGMENT
__real@40000000 DD 040000000r			; 2
CONST	ENDS
;	COMDAT __real@3fd9999a
CONST	SEGMENT
__real@3fd9999a DD 03fd9999ar			; 1.7
CONST	ENDS
;	COMDAT __real@3fc00000
CONST	SEGMENT
__real@3fc00000 DD 03fc00000r			; 1.5
CONST	ENDS
;	COMDAT __real@3f800000
CONST	SEGMENT
__real@3f800000 DD 03f800000r			; 1
CONST	ENDS
;	COMDAT __real@3f733333
CONST	SEGMENT
__real@3f733333 DD 03f733333r			; 0.95
CONST	ENDS
;	COMDAT __real@3f4ccccd
CONST	SEGMENT
__real@3f4ccccd DD 03f4ccccdr			; 0.8
CONST	ENDS
;	COMDAT __real@3f000000
CONST	SEGMENT
__real@3f000000 DD 03f000000r			; 0.5
CONST	ENDS
;	COMDAT __real@3c8efa34
CONST	SEGMENT
__real@3c8efa34 DD 03c8efa34r			; 0.0174533
CONST	ENDS
;	COMDAT __real@399fcd90
CONST	SEGMENT
__real@399fcd90 DD 0399fcd90r			; 0.0003048
CONST	ENDS
;	COMDAT __real@00000000
CONST	SEGMENT
__real@00000000 DD 000000000r			; 0
CONST	ENDS
;	COMDAT ??_R4CPKneeView@@6BRender2D@@@
rdata$r	SEGMENT
??_R4CPKneeView@@6BRender2D@@@ DD 00H			; CPKneeView::`RTTI Complete Object Locator'
	DD	090H
	DD	00H
	DD	FLAT:??_R0?AVCPKneeView@@@8
	DD	FLAT:??_R3CPKneeView@@8
rdata$r	ENDS
;	COMDAT ??_R1JA@?0A@EJ@VirtualDisplay@@8
rdata$r	SEGMENT
??_R1JA@?0A@EJ@VirtualDisplay@@8 DD FLAT:??_R0?AVVirtualDisplay@@@8 ; VirtualDisplay::`RTTI Base Class Descriptor at (144,-1,0,73)'
	DD	00H
	DD	090H
	DD	0ffffffffH
	DD	00H
	DD	049H
	DD	FLAT:??_R3VirtualDisplay@@8
rdata$r	ENDS
;	COMDAT ??_R1JA@?0A@EN@Render2D@@8
rdata$r	SEGMENT
??_R1JA@?0A@EN@Render2D@@8 DD FLAT:??_R0?AVRender2D@@@8	; Render2D::`RTTI Base Class Descriptor at (144,-1,0,77)'
	DD	01H
	DD	090H
	DD	0ffffffffH
	DD	00H
	DD	04dH
	DD	FLAT:??_R3Render2D@@8
rdata$r	ENDS
;	COMDAT ??_R2CPObject@@8
rdata$r	SEGMENT
??_R2CPObject@@8 DD FLAT:??_R1A@?0A@EA@CPObject@@8	; CPObject::`RTTI Base Class Array'
rdata$r	ENDS
;	COMDAT ??_R3CPObject@@8
rdata$r	SEGMENT
??_R3CPObject@@8 DD 00H					; CPObject::`RTTI Class Hierarchy Descriptor'
	DD	00H
	DD	01H
	DD	FLAT:??_R2CPObject@@8
rdata$r	ENDS
;	COMDAT ??_R0?AVCPObject@@@8
_DATA	SEGMENT
??_R0?AVCPObject@@@8 DD FLAT:??_7type_info@@6B@		; CPObject `RTTI Type Descriptor'
	DD	00H
	DB	'.?AVCPObject@@', 00H
_DATA	ENDS
;	COMDAT ??_R1A@?0A@EA@CPObject@@8
rdata$r	SEGMENT
??_R1A@?0A@EA@CPObject@@8 DD FLAT:??_R0?AVCPObject@@@8	; CPObject::`RTTI Base Class Descriptor at (0,-1,0,64)'
	DD	00H
	DD	00H
	DD	0ffffffffH
	DD	00H
	DD	040H
	DD	FLAT:??_R3CPObject@@8
rdata$r	ENDS
;	COMDAT ??_R1A@?0A@EA@CPKneeView@@8
rdata$r	SEGMENT
??_R1A@?0A@EA@CPKneeView@@8 DD FLAT:??_R0?AVCPKneeView@@@8 ; CPKneeView::`RTTI Base Class Descriptor at (0,-1,0,64)'
	DD	03H
	DD	00H
	DD	0ffffffffH
	DD	00H
	DD	040H
	DD	FLAT:??_R3CPKneeView@@8
rdata$r	ENDS
;	COMDAT ??_R2CPKneeView@@8
rdata$r	SEGMENT
??_R2CPKneeView@@8 DD FLAT:??_R1A@?0A@EA@CPKneeView@@8	; CPKneeView::`RTTI Base Class Array'
	DD	FLAT:??_R1A@?0A@EA@CPObject@@8
	DD	FLAT:??_R1JA@?0A@EN@Render2D@@8
	DD	FLAT:??_R1JA@?0A@EJ@VirtualDisplay@@8
rdata$r	ENDS
;	COMDAT ??_R3CPKneeView@@8
rdata$r	SEGMENT
??_R3CPKneeView@@8 DD 00H				; CPKneeView::`RTTI Class Hierarchy Descriptor'
	DD	01H
	DD	04H
	DD	FLAT:??_R2CPKneeView@@8
rdata$r	ENDS
;	COMDAT ??_R0?AVCPKneeView@@@8
_DATA	SEGMENT
??_R0?AVCPKneeView@@@8 DD FLAT:??_7type_info@@6B@	; CPKneeView `RTTI Type Descriptor'
	DD	00H
	DB	'.?AVCPKneeView@@', 00H
_DATA	ENDS
;	COMDAT ??_R4CPKneeView@@6BCPObject@@@
rdata$r	SEGMENT
??_R4CPKneeView@@6BCPObject@@@ DD 00H			; CPKneeView::`RTTI Complete Object Locator'
	DD	00H
	DD	00H
	DD	FLAT:??_R0?AVCPKneeView@@@8
	DD	FLAT:??_R3CPKneeView@@8
rdata$r	ENDS
;	COMDAT ??_R4Render2D@@6B@
rdata$r	SEGMENT
??_R4Render2D@@6B@ DD 00H				; Render2D::`RTTI Complete Object Locator'
	DD	00H
	DD	00H
	DD	FLAT:??_R0?AVRender2D@@@8
	DD	FLAT:??_R3Render2D@@8
rdata$r	ENDS
;	COMDAT ??_R4VirtualDisplay@@6B@
rdata$r	SEGMENT
??_R4VirtualDisplay@@6B@ DD 00H				; VirtualDisplay::`RTTI Complete Object Locator'
	DD	00H
	DD	00H
	DD	FLAT:??_R0?AVVirtualDisplay@@@8
	DD	FLAT:??_R3VirtualDisplay@@8
rdata$r	ENDS
;	COMDAT ??_R2VirtualDisplay@@8
rdata$r	SEGMENT
??_R2VirtualDisplay@@8 DD FLAT:??_R1A@?0A@EA@VirtualDisplay@@8 ; VirtualDisplay::`RTTI Base Class Array'
rdata$r	ENDS
;	COMDAT ??_R3VirtualDisplay@@8
rdata$r	SEGMENT
??_R3VirtualDisplay@@8 DD 00H				; VirtualDisplay::`RTTI Class Hierarchy Descriptor'
	DD	00H
	DD	01H
	DD	FLAT:??_R2VirtualDisplay@@8
rdata$r	ENDS
;	COMDAT ??_R0?AVVirtualDisplay@@@8
_DATA	SEGMENT
??_R0?AVVirtualDisplay@@@8 DD FLAT:??_7type_info@@6B@	; VirtualDisplay `RTTI Type Descriptor'
	DD	00H
	DB	'.?AVVirtualDisplay@@', 00H
_DATA	ENDS
;	COMDAT ??_R1A@?0A@EA@VirtualDisplay@@8
rdata$r	SEGMENT
??_R1A@?0A@EA@VirtualDisplay@@8 DD FLAT:??_R0?AVVirtualDisplay@@@8 ; VirtualDisplay::`RTTI Base Class Descriptor at (0,-1,0,64)'
	DD	00H
	DD	00H
	DD	0ffffffffH
	DD	00H
	DD	040H
	DD	FLAT:??_R3VirtualDisplay@@8
rdata$r	ENDS
;	COMDAT ??_R2Render2D@@8
rdata$r	SEGMENT
??_R2Render2D@@8 DD FLAT:??_R1A@?0A@EA@Render2D@@8	; Render2D::`RTTI Base Class Array'
	DD	FLAT:??_R1A@?0A@EA@VirtualDisplay@@8
rdata$r	ENDS
;	COMDAT ??_R3Render2D@@8
rdata$r	SEGMENT
??_R3Render2D@@8 DD 00H					; Render2D::`RTTI Class Hierarchy Descriptor'
	DD	00H
	DD	02H
	DD	FLAT:??_R2Render2D@@8
rdata$r	ENDS
;	COMDAT ??_R0?AVRender2D@@@8
_DATA	SEGMENT
??_R0?AVRender2D@@@8 DD FLAT:??_7type_info@@6B@		; Render2D `RTTI Type Descriptor'
	DD	00H
	DB	'.?AVRender2D@@', 00H
_DATA	ENDS
;	COMDAT ??_R1A@?0A@EA@Render2D@@8
rdata$r	SEGMENT
??_R1A@?0A@EA@Render2D@@8 DD FLAT:??_R0?AVRender2D@@@8	; Render2D::`RTTI Base Class Descriptor at (0,-1,0,64)'
	DD	01H
	DD	00H
	DD	0ffffffffH
	DD	00H
	DD	040H
	DD	FLAT:??_R3Render2D@@8
rdata$r	ENDS
;	COMDAT ??_R1A@?0A@EA@_System_error_category@std@@8
rdata$r	SEGMENT
??_R1A@?0A@EA@_System_error_category@std@@8 DD FLAT:??_R0?AV_System_error_category@std@@@8 ; std::_System_error_category::`RTTI Base Class Descriptor at (0,-1,0,64)'
	DD	02H
	DD	00H
	DD	0ffffffffH
	DD	00H
	DD	040H
	DD	FLAT:??_R3_System_error_category@std@@8
rdata$r	ENDS
;	COMDAT ??_R2_System_error_category@std@@8
rdata$r	SEGMENT
??_R2_System_error_category@std@@8 DD FLAT:??_R1A@?0A@EA@_System_error_category@std@@8 ; std::_System_error_category::`RTTI Base Class Array'
	DD	FLAT:??_R1A@?0A@EA@_Generic_error_category@std@@8
	DD	FLAT:??_R1A@?0A@EA@error_category@std@@8
rdata$r	ENDS
;	COMDAT ??_R3_System_error_category@std@@8
rdata$r	SEGMENT
??_R3_System_error_category@std@@8 DD 00H		; std::_System_error_category::`RTTI Class Hierarchy Descriptor'
	DD	00H
	DD	03H
	DD	FLAT:??_R2_System_error_category@std@@8
rdata$r	ENDS
;	COMDAT ??_R0?AV_System_error_category@std@@@8
_DATA	SEGMENT
??_R0?AV_System_error_category@std@@@8 DD FLAT:??_7type_info@@6B@ ; std::_System_error_category `RTTI Type Descriptor'
	DD	00H
	DB	'.?AV_System_error_category@std@@', 00H
_DATA	ENDS
;	COMDAT ??_R4_System_error_category@std@@6B@
rdata$r	SEGMENT
??_R4_System_error_category@std@@6B@ DD 00H		; std::_System_error_category::`RTTI Complete Object Locator'
	DD	00H
	DD	00H
	DD	FLAT:??_R0?AV_System_error_category@std@@@8
	DD	FLAT:??_R3_System_error_category@std@@8
rdata$r	ENDS
;	COMDAT ??_R1A@?0A@EA@_Iostream_error_category@std@@8
rdata$r	SEGMENT
??_R1A@?0A@EA@_Iostream_error_category@std@@8 DD FLAT:??_R0?AV_Iostream_error_category@std@@@8 ; std::_Iostream_error_category::`RTTI Base Class Descriptor at (0,-1,0,64)'
	DD	02H
	DD	00H
	DD	0ffffffffH
	DD	00H
	DD	040H
	DD	FLAT:??_R3_Iostream_error_category@std@@8
rdata$r	ENDS
;	COMDAT ??_R2_Iostream_error_category@std@@8
rdata$r	SEGMENT
??_R2_Iostream_error_category@std@@8 DD FLAT:??_R1A@?0A@EA@_Iostream_error_category@std@@8 ; std::_Iostream_error_category::`RTTI Base Class Array'
	DD	FLAT:??_R1A@?0A@EA@_Generic_error_category@std@@8
	DD	FLAT:??_R1A@?0A@EA@error_category@std@@8
rdata$r	ENDS
;	COMDAT ??_R3_Iostream_error_category@std@@8
rdata$r	SEGMENT
??_R3_Iostream_error_category@std@@8 DD 00H		; std::_Iostream_error_category::`RTTI Class Hierarchy Descriptor'
	DD	00H
	DD	03H
	DD	FLAT:??_R2_Iostream_error_category@std@@8
rdata$r	ENDS
;	COMDAT ??_R0?AV_Iostream_error_category@std@@@8
_DATA	SEGMENT
??_R0?AV_Iostream_error_category@std@@@8 DD FLAT:??_7type_info@@6B@ ; std::_Iostream_error_category `RTTI Type Descriptor'
	DD	00H
	DB	'.?AV_Iostream_error_category@std@@', 00H
_DATA	ENDS
;	COMDAT ??_R4_Iostream_error_category@std@@6B@
rdata$r	SEGMENT
??_R4_Iostream_error_category@std@@6B@ DD 00H		; std::_Iostream_error_category::`RTTI Complete Object Locator'
	DD	00H
	DD	00H
	DD	FLAT:??_R0?AV_Iostream_error_category@std@@@8
	DD	FLAT:??_R3_Iostream_error_category@std@@8
rdata$r	ENDS
;	COMDAT ??_R1A@?0A@EA@_Generic_error_category@std@@8
rdata$r	SEGMENT
??_R1A@?0A@EA@_Generic_error_category@std@@8 DD FLAT:??_R0?AV_Generic_error_category@std@@@8 ; std::_Generic_error_category::`RTTI Base Class Descriptor at (0,-1,0,64)'
	DD	01H
	DD	00H
	DD	0ffffffffH
	DD	00H
	DD	040H
	DD	FLAT:??_R3_Generic_error_category@std@@8
rdata$r	ENDS
;	COMDAT ??_R2_Generic_error_category@std@@8
rdata$r	SEGMENT
??_R2_Generic_error_category@std@@8 DD FLAT:??_R1A@?0A@EA@_Generic_error_category@std@@8 ; std::_Generic_error_category::`RTTI Base Class Array'
	DD	FLAT:??_R1A@?0A@EA@error_category@std@@8
rdata$r	ENDS
;	COMDAT ??_R3_Generic_error_category@std@@8
rdata$r	SEGMENT
??_R3_Generic_error_category@std@@8 DD 00H		; std::_Generic_error_category::`RTTI Class Hierarchy Descriptor'
	DD	00H
	DD	02H
	DD	FLAT:??_R2_Generic_error_category@std@@8
rdata$r	ENDS
;	COMDAT ??_R0?AV_Generic_error_category@std@@@8
_DATA	SEGMENT
??_R0?AV_Generic_error_category@std@@@8 DD FLAT:??_7type_info@@6B@ ; std::_Generic_error_category `RTTI Type Descriptor'
	DD	00H
	DB	'.?AV_Generic_error_category@std@@', 00H
_DATA	ENDS
;	COMDAT ??_R4_Generic_error_category@std@@6B@
rdata$r	SEGMENT
??_R4_Generic_error_category@std@@6B@ DD 00H		; std::_Generic_error_category::`RTTI Complete Object Locator'
	DD	00H
	DD	00H
	DD	FLAT:??_R0?AV_Generic_error_category@std@@@8
	DD	FLAT:??_R3_Generic_error_category@std@@8
rdata$r	ENDS
;	COMDAT ??_R1A@?0A@EA@error_category@std@@8
rdata$r	SEGMENT
??_R1A@?0A@EA@error_category@std@@8 DD FLAT:??_R0?AVerror_category@std@@@8 ; std::error_category::`RTTI Base Class Descriptor at (0,-1,0,64)'
	DD	00H
	DD	00H
	DD	0ffffffffH
	DD	00H
	DD	040H
	DD	FLAT:??_R3error_category@std@@8
rdata$r	ENDS
;	COMDAT ??_R2error_category@std@@8
rdata$r	SEGMENT
??_R2error_category@std@@8 DD FLAT:??_R1A@?0A@EA@error_category@std@@8 ; std::error_category::`RTTI Base Class Array'
rdata$r	ENDS
;	COMDAT ??_R3error_category@std@@8
rdata$r	SEGMENT
??_R3error_category@std@@8 DD 00H			; std::error_category::`RTTI Class Hierarchy Descriptor'
	DD	00H
	DD	01H
	DD	FLAT:??_R2error_category@std@@8
rdata$r	ENDS
;	COMDAT ??_R0?AVerror_category@std@@@8
_DATA	SEGMENT
??_R0?AVerror_category@std@@@8 DD FLAT:??_7type_info@@6B@ ; std::error_category `RTTI Type Descriptor'
	DD	00H
	DB	'.?AVerror_category@std@@', 00H
_DATA	ENDS
;	COMDAT ??_R4error_category@std@@6B@
rdata$r	SEGMENT
??_R4error_category@std@@6B@ DD 00H			; std::error_category::`RTTI Complete Object Locator'
	DD	00H
	DD	00H
	DD	FLAT:??_R0?AVerror_category@std@@@8
	DD	FLAT:??_R3error_category@std@@8
rdata$r	ENDS
;	COMDAT ??_C@_0BA@JFNIOLAK@string?5too?5long?$AA@
CONST	SEGMENT
??_C@_0BA@JFNIOLAK@string?5too?5long?$AA@ DB 'string too long', 00H ; `string'
CONST	ENDS
;	COMDAT ??_C@_0BI@CFPLBAOH@invalid?5string?5position?$AA@
CONST	SEGMENT
??_C@_0BI@CFPLBAOH@invalid?5string?5position?$AA@ DB 'invalid string posi'
	DB	'tion', 00H					; `string'
CONST	ENDS
;	COMDAT ?pos@?1??DrawCurrentPosition@CPKneeView@@AAEXPAVImageBuffer@@PAVRender2D@@PAVSimVehicleClass@@@Z@4QBU<unnamed-type-pos>@?1??12@AAEX012@Z@B
CONST	SEGMENT
?pos@?1??DrawCurrentPosition@CPKneeView@@AAEXPAVImageBuffer@@PAVRender2D@@PAVSimVehicleClass@@@Z@4QBU<unnamed-type-pos>@?1??12@AAEX012@Z@B DD 000000000r ; 0 ; `CPKneeView::DrawCurrentPosition'::`2'::pos
	DD	03f800000r			; 1
	DD	000000000r			; 0
	DD	0bf800000r			; -1
	DD	0bf800000r			; -1
	DD	0becccccdr			; -0.4
	DD	03f800000r			; 1
	DD	0becccccdr			; -0.4
	DD	000000000r			; 0
	DD	03e99999ar			; 0.3
	DD	0bf000000r			; -0.5
	DD	0bf800000r			; -1
	DD	0bf000000r			; -0.5
	DD	0bf800000r			; -1
CONST	ENDS
;	COMDAT ??_C@_09DOBOALLE@SALT?5?$CFdFT?$AA@
CONST	SEGMENT
??_C@_09DOBOALLE@SALT?5?$CFdFT?$AA@ DB 'SALT %dFT', 00H	; `string'
CONST	ENDS
;	COMDAT ??_C@_0BE@GMBGAKEN@LNG?5?5E?5?$CF3d?$AD?5?$CF2?42f?8?6?$AA@
CONST	SEGMENT
??_C@_0BE@GMBGAKEN@LNG?5?5E?5?$CF3d?$AD?5?$CF2?42f?8?6?$AA@ DB 'LNG  E %3'
	DB	'd', 03H, ' %2.2f''', 0aH, 00H		; `string'
CONST	ENDS
;	COMDAT ??_C@_0BF@GIADELBL@LNG?5?5E?5?$CF3d?$AD?50?$CF2?42f?8?6?$AA@
CONST	SEGMENT
??_C@_0BF@GIADELBL@LNG?5?5E?5?$CF3d?$AD?50?$CF2?42f?8?6?$AA@ DB 'LNG  E %'
	DB	'3d', 03H, ' 0%2.2f''', 0aH, 00H		; `string'
CONST	ENDS
;	COMDAT ??_C@_0BE@DFFILLAH@LAT?5?5N?5?$CF3d?$AD?5?$CF2?42f?8?6?$AA@
CONST	SEGMENT
??_C@_0BE@DFFILLAH@LAT?5?5N?5?$CF3d?$AD?5?$CF2?42f?8?6?$AA@ DB 'LAT  N %3'
	DB	'd', 03H, ' %2.2f''', 0aH, 00H		; `string'
CONST	ENDS
;	COMDAT ??_C@_0BF@POFDKNCE@LAT?5?5N?5?$CF3d?$AD?50?$CF2?42f?8?6?$AA@
CONST	SEGMENT
??_C@_0BF@POFDKNCE@LAT?5?5N?5?$CF3d?$AD?50?$CF2?42f?8?6?$AA@ DB 'LAT  N %'
	DB	'3d', 03H, ' 0%2.2f''', 0aH, 00H		; `string'
CONST	ENDS
;	COMDAT ??_7CPKneeView@@6BRender2D@@@
CONST	SEGMENT
??_7CPKneeView@@6BRender2D@@@ DD FLAT:??_R4CPKneeView@@6BRender2D@@@ ; CPKneeView::`vftable'
	DD	FLAT:??_ECPKneeView@@WJA@AEPAXI@Z
	DD	FLAT:?Setup@VirtualDisplay@@UAEXXZ
	DD	FLAT:?Cleanup@CPKneeView@@UAEXXZ
	DD	FLAT:?StartDraw@Render2D@@UAEXXZ
	DD	FLAT:?ClearDraw@Render2D@@UAEXXZ
	DD	FLAT:?EndDraw@Render2D@@UAEXXZ
	DD	FLAT:?Point@VirtualDisplay@@UAEXMM@Z
	DD	FLAT:?Line@VirtualDisplay@@UAEXMMMMM@Z
	DD	FLAT:?Line@VirtualDisplay@@UAEXMMMM@Z
	DD	FLAT:?Tri@VirtualDisplay@@UAEXMMMMMM@Z
	DD	FLAT:?Oval@VirtualDisplay@@UAEXMMMM@Z
	DD	FLAT:?OvalArc@VirtualDisplay@@UAEXMMMMMM@Z
	DD	FLAT:?Circle@VirtualDisplay@@UAEXMMM@Z
	DD	FLAT:?Arc@VirtualDisplay@@UAEXMMMMM@Z
	DD	FLAT:?TextLeft@VirtualDisplay@@UAEXMMPBDH@Z
	DD	FLAT:?TextRight@VirtualDisplay@@UAEXMMPBDH@Z
	DD	FLAT:?TextLeftVertical@VirtualDisplay@@UAEXMMPBDH@Z
	DD	FLAT:?TextRightVertical@VirtualDisplay@@UAEXMMPBDH@Z
	DD	FLAT:?TextCenter@VirtualDisplay@@UAEXMMPBDH@Z
	DD	FLAT:?TextCenterVertical@VirtualDisplay@@UAEXMMPBDH@Z
	DD	FLAT:?TextWrap@VirtualDisplay@@UAEHMMPBDMM@Z
	DD	FLAT:?TextWidth@VirtualDisplay@@UAEMPAD@Z
	DD	FLAT:?TextHeight@VirtualDisplay@@UAEMXZ
	DD	FLAT:?SetColor@Render2D@@UAEXK@Z
	DD	FLAT:?SetBackground@Render2D@@UAEXK@Z
	DD	FLAT:?ScreenText@Render2D@@UAEXMMPBDH@Z
	DD	FLAT:?SetLineStyle@Render2D@@UAEXH@Z
	DD	FLAT:?Color@Render2D@@UAEKXZ
	DD	FLAT:?SetViewport@Render2D@@UAEXMMMM@Z
	DD	FLAT:?SetViewportRelative@VirtualDisplay@@UAEXMMMM@Z
	DD	FLAT:?Render2DPoint@Render2D@@UAEXMM@Z
	DD	FLAT:?Render2DLine@Render2D@@UAEXMMMM@Z
	DD	FLAT:?Render2DTri@Render2D@@UAEXMMMMMM@Z
	DD	FLAT:?Setup@Render2D@@UAEXPAVImageBuffer@@@Z
	DD	FLAT:?SetImageBuffer@Render2D@@UAEXPAVImageBuffer@@@Z
	DD	FLAT:?ClearZBuffer@Render2D@@UAEXXZ
CONST	ENDS
;	COMDAT ??_7CPKneeView@@6BCPObject@@@
CONST	SEGMENT
??_7CPKneeView@@6BCPObject@@@ DD FLAT:??_R4CPKneeView@@6BCPObject@@@ ; CPKneeView::`vftable'
	DD	FLAT:?Exec@CPKneeView@@UAEXPAVSimBaseClass@@@Z
	DD	FLAT:?DisplayBlit@CPKneeView@@UAEXXZ
	DD	FLAT:?DisplayDraw@CPKneeView@@UAEXXZ
	DD	FLAT:?HandleEvent@CPObject@@UAEXXZ
	DD	FLAT:?CreateLit@CPObject@@UAEXXZ
	DD	FLAT:?DiscardLit@CPObject@@UAEXXZ
	DD	FLAT:?Translate@CPObject@@UAEXPAK@Z
	DD	FLAT:?Translate@CPObject@@UAEXPAG@Z
	DD	FLAT:?DisplayBlit3D@CPObject@@UAEXXZ
	DD	FLAT:??_ECPKneeView@@UAEPAXI@Z
	DD	FLAT:?Refresh@CPKneeView@@UAEXPAVSimVehicleClass@@@Z
	DD	FLAT:?Setup@CPKneeView@@UAEXPAVDisplayDevice@@HHHH@Z
CONST	ENDS
;	COMDAT ??_7Render2D@@6B@
CONST	SEGMENT
??_7Render2D@@6B@ DD FLAT:??_R4Render2D@@6B@		; Render2D::`vftable'
	DD	FLAT:??_ERender2D@@UAEPAXI@Z
	DD	FLAT:?Setup@VirtualDisplay@@UAEXXZ
	DD	FLAT:?Cleanup@Render2D@@UAEXXZ
	DD	FLAT:?StartDraw@Render2D@@UAEXXZ
	DD	FLAT:?ClearDraw@Render2D@@UAEXXZ
	DD	FLAT:?EndDraw@Render2D@@UAEXXZ
	DD	FLAT:?Point@VirtualDisplay@@UAEXMM@Z
	DD	FLAT:?Line@VirtualDisplay@@UAEXMMMMM@Z
	DD	FLAT:?Line@VirtualDisplay@@UAEXMMMM@Z
	DD	FLAT:?Tri@VirtualDisplay@@UAEXMMMMMM@Z
	DD	FLAT:?Oval@VirtualDisplay@@UAEXMMMM@Z
	DD	FLAT:?OvalArc@VirtualDisplay@@UAEXMMMMMM@Z
	DD	FLAT:?Circle@VirtualDisplay@@UAEXMMM@Z
	DD	FLAT:?Arc@VirtualDisplay@@UAEXMMMMM@Z
	DD	FLAT:?TextLeft@VirtualDisplay@@UAEXMMPBDH@Z
	DD	FLAT:?TextRight@VirtualDisplay@@UAEXMMPBDH@Z
	DD	FLAT:?TextLeftVertical@VirtualDisplay@@UAEXMMPBDH@Z
	DD	FLAT:?TextRightVertical@VirtualDisplay@@UAEXMMPBDH@Z
	DD	FLAT:?TextCenter@VirtualDisplay@@UAEXMMPBDH@Z
	DD	FLAT:?TextCenterVertical@VirtualDisplay@@UAEXMMPBDH@Z
	DD	FLAT:?TextWrap@VirtualDisplay@@UAEHMMPBDMM@Z
	DD	FLAT:?TextWidth@VirtualDisplay@@UAEMPAD@Z
	DD	FLAT:?TextHeight@VirtualDisplay@@UAEMXZ
	DD	FLAT:?SetColor@Render2D@@UAEXK@Z
	DD	FLAT:?SetBackground@Render2D@@UAEXK@Z
	DD	FLAT:?ScreenText@Render2D@@UAEXMMPBDH@Z
	DD	FLAT:?SetLineStyle@Render2D@@UAEXH@Z
	DD	FLAT:?Color@Render2D@@UAEKXZ
	DD	FLAT:?SetViewport@Render2D@@UAEXMMMM@Z
	DD	FLAT:?SetViewportRelative@VirtualDisplay@@UAEXMMMM@Z
	DD	FLAT:?Render2DPoint@Render2D@@UAEXMM@Z
	DD	FLAT:?Render2DLine@Render2D@@UAEXMMMM@Z
	DD	FLAT:?Render2DTri@Render2D@@UAEXMMMMMM@Z
	DD	FLAT:?Setup@Render2D@@UAEXPAVImageBuffer@@@Z
	DD	FLAT:?SetImageBuffer@Render2D@@UAEXPAVImageBuffer@@@Z
	DD	FLAT:?ClearZBuffer@Render2D@@UAEXXZ
CONST	ENDS
;	COMDAT ??_7VirtualDisplay@@6B@
CONST	SEGMENT
??_7VirtualDisplay@@6B@ DD FLAT:??_R4VirtualDisplay@@6B@ ; VirtualDisplay::`vftable'
	DD	FLAT:??_EVirtualDisplay@@UAEPAXI@Z
	DD	FLAT:?Setup@VirtualDisplay@@UAEXXZ
	DD	FLAT:?Cleanup@VirtualDisplay@@UAEXXZ
	DD	FLAT:__purecall
	DD	FLAT:__purecall
	DD	FLAT:__purecall
	DD	FLAT:?Point@VirtualDisplay@@UAEXMM@Z
	DD	FLAT:?Line@VirtualDisplay@@UAEXMMMMM@Z
	DD	FLAT:?Line@VirtualDisplay@@UAEXMMMM@Z
	DD	FLAT:?Tri@VirtualDisplay@@UAEXMMMMMM@Z
	DD	FLAT:?Oval@VirtualDisplay@@UAEXMMMM@Z
	DD	FLAT:?OvalArc@VirtualDisplay@@UAEXMMMMMM@Z
	DD	FLAT:?Circle@VirtualDisplay@@UAEXMMM@Z
	DD	FLAT:?Arc@VirtualDisplay@@UAEXMMMMM@Z
	DD	FLAT:?TextLeft@VirtualDisplay@@UAEXMMPBDH@Z
	DD	FLAT:?TextRight@VirtualDisplay@@UAEXMMPBDH@Z
	DD	FLAT:?TextLeftVertical@VirtualDisplay@@UAEXMMPBDH@Z
	DD	FLAT:?TextRightVertical@VirtualDisplay@@UAEXMMPBDH@Z
	DD	FLAT:?TextCenter@VirtualDisplay@@UAEXMMPBDH@Z
	DD	FLAT:?TextCenterVertical@VirtualDisplay@@UAEXMMPBDH@Z
	DD	FLAT:?TextWrap@VirtualDisplay@@UAEHMMPBDMM@Z
	DD	FLAT:?TextWidth@VirtualDisplay@@UAEMPAD@Z
	DD	FLAT:?TextHeight@VirtualDisplay@@UAEMXZ
	DD	FLAT:__purecall
	DD	FLAT:__purecall
	DD	FLAT:__purecall
	DD	FLAT:?SetLineStyle@VirtualDisplay@@UAEXH@Z
	DD	FLAT:?Color@VirtualDisplay@@UAEKXZ
	DD	FLAT:?SetViewport@VirtualDisplay@@UAEXMMMM@Z
	DD	FLAT:?SetViewportRelative@VirtualDisplay@@UAEXMMMM@Z
	DD	FLAT:__purecall
	DD	FLAT:__purecall
	DD	FLAT:?Render2DTri@VirtualDisplay@@MAEXMMMMMM@Z
CONST	ENDS
;	COMDAT ??_C@_06FHFOAHML@system?$AA@
CONST	SEGMENT
??_C@_06FHFOAHML@system?$AA@ DB 'system', 00H		; `string'
CONST	ENDS
;	COMDAT ??_7_System_error_category@std@@6B@
CONST	SEGMENT
??_7_System_error_category@std@@6B@ DD FLAT:??_R4_System_error_category@std@@6B@ ; std::_System_error_category::`vftable'
	DD	FLAT:??_E_System_error_category@std@@UAEPAXI@Z
	DD	FLAT:?name@_System_error_category@std@@UBEPBDXZ
	DD	FLAT:?message@_System_error_category@std@@UBE?AV?$basic_string@DU?$char_traits@D@std@@V?$allocator@D@2@@2@H@Z
	DD	FLAT:?default_error_condition@_System_error_category@std@@UBE?AVerror_condition@2@H@Z
	DD	FLAT:?equivalent@error_category@std@@UBE_NABVerror_code@2@H@Z
	DD	FLAT:?equivalent@error_category@std@@UBE_NHABVerror_condition@2@@Z
CONST	ENDS
;	COMDAT ??_C@_0BG@PADBLCHM@iostream?5stream?5error?$AA@
CONST	SEGMENT
??_C@_0BG@PADBLCHM@iostream?5stream?5error?$AA@ DB 'iostream stream error'
	DB	00H						; `string'
CONST	ENDS
;	COMDAT ??_C@_08LLGCOLLL@iostream?$AA@
CONST	SEGMENT
??_C@_08LLGCOLLL@iostream?$AA@ DB 'iostream', 00H	; `string'
CONST	ENDS
;	COMDAT ??_7_Iostream_error_category@std@@6B@
CONST	SEGMENT
??_7_Iostream_error_category@std@@6B@ DD FLAT:??_R4_Iostream_error_category@std@@6B@ ; std::_Iostream_error_category::`vftable'
	DD	FLAT:??_E_Iostream_error_category@std@@UAEPAXI@Z
	DD	FLAT:?name@_Iostream_error_category@std@@UBEPBDXZ
	DD	FLAT:?message@_Iostream_error_category@std@@UBE?AV?$basic_string@DU?$char_traits@D@std@@V?$allocator@D@2@@2@H@Z
	DD	FLAT:?default_error_condition@error_category@std@@UBE?AVerror_condition@2@H@Z
	DD	FLAT:?equivalent@error_category@std@@UBE_NABVerror_code@2@H@Z
	DD	FLAT:?equivalent@error_category@std@@UBE_NHABVerror_condition@2@@Z
CONST	ENDS
;	COMDAT ??_C@_0O@BFJCFAAK@unknown?5error?$AA@
CONST	SEGMENT
??_C@_0O@BFJCFAAK@unknown?5error?$AA@ DB 'unknown error', 00H ; `string'
CONST	ENDS
;	COMDAT ??_C@_07DCLBNMLN@generic?$AA@
CONST	SEGMENT
??_C@_07DCLBNMLN@generic?$AA@ DB 'generic', 00H		; `string'
CONST	ENDS
;	COMDAT ??_7_Generic_error_category@std@@6B@
CONST	SEGMENT
??_7_Generic_error_category@std@@6B@ DD FLAT:??_R4_Generic_error_category@std@@6B@ ; std::_Generic_error_category::`vftable'
	DD	FLAT:??_E_Generic_error_category@std@@UAEPAXI@Z
	DD	FLAT:?name@_Generic_error_category@std@@UBEPBDXZ
	DD	FLAT:?message@_Generic_error_category@std@@UBE?AV?$basic_string@DU?$char_traits@D@std@@V?$allocator@D@2@@2@H@Z
	DD	FLAT:?default_error_condition@error_category@std@@UBE?AVerror_condition@2@H@Z
	DD	FLAT:?equivalent@error_category@std@@UBE_NABVerror_code@2@H@Z
	DD	FLAT:?equivalent@error_category@std@@UBE_NHABVerror_condition@2@@Z
CONST	ENDS
;	COMDAT ??_7error_category@std@@6B@
CONST	SEGMENT
??_7error_category@std@@6B@ DD FLAT:??_R4error_category@std@@6B@ ; std::error_category::`vftable'
	DD	FLAT:??_Eerror_category@std@@UAEPAXI@Z
	DD	FLAT:__purecall
	DD	FLAT:__purecall
	DD	FLAT:?default_error_condition@error_category@std@@UBE?AVerror_condition@2@H@Z
	DD	FLAT:?equivalent@error_category@std@@UBE_NABVerror_code@2@H@Z
	DD	FLAT:?equivalent@error_category@std@@UBE_NHABVerror_condition@2@@Z
CONST	ENDS
;	COMDAT ??_C@_00CNPNBAHC@?$AA@
CONST	SEGMENT
??_C@_00CNPNBAHC@?$AA@ DB 00H				; `string'
CONST	ENDS
;	COMDAT xdata$x
xdata$x	SEGMENT
__unwindtable$??$construct@PADAAPAD@?$allocator@D@std@@QAEXPAPADAAPAD@Z DD 0ffffffffH
	DD	FLAT:__unwindfunclet$??$construct@PADAAPAD@?$allocator@D@std@@QAEXPAPADAAPAD@Z$0
__ehfuncinfo$??$construct@PADAAPAD@?$allocator@D@std@@QAEXPAPADAAPAD@Z DD 019930522H
	DD	01H
	DD	FLAT:__unwindtable$??$construct@PADAAPAD@?$allocator@D@std@@QAEXPAPADAAPAD@Z
	DD	2 DUP(00H)
	DD	2 DUP(00H)
	DD	00H
	DD	01H
xdata$x	ENDS
xdata$x	SEGMENT
__unwindtable$?Setup@CPKneeView@@UAEXPAVDisplayDevice@@HHHH@Z DD 0ffffffffH
	DD	FLAT:__unwindfunclet$?Setup@CPKneeView@@UAEXPAVDisplayDevice@@HHHH@Z$0
__unwindtable$??1CPKneeView@@UAE@XZ DD 0ffffffffH
	DD	FLAT:__unwindfunclet$??1CPKneeView@@UAE@XZ$0
	DD	00H
	DD	FLAT:__unwindfunclet$??1CPKneeView@@UAE@XZ$1
__unwindtable$??0CPKneeView@@QAE@PAUObjectInitStr@@PAVKneeBoard@@@Z DD 0ffffffffH
	DD	FLAT:__unwindfunclet$??0CPKneeView@@QAE@PAUObjectInitStr@@PAVKneeBoard@@@Z$0
	DD	00H
	DD	FLAT:__unwindfunclet$??0CPKneeView@@QAE@PAUObjectInitStr@@PAVKneeBoard@@@Z$1
__ehfuncinfo$??1CPKneeView@@UAE@XZ DD 019930522H
	DD	02H
	DD	FLAT:__unwindtable$??1CPKneeView@@UAE@XZ
	DD	2 DUP(00H)
	DD	2 DUP(00H)
	DD	00H
	DD	01H
__ehfuncinfo$??0CPKneeView@@QAE@PAUObjectInitStr@@PAVKneeBoard@@@Z DD 019930522H
	DD	02H
	DD	FLAT:__unwindtable$??0CPKneeView@@QAE@PAUObjectInitStr@@PAVKneeBoard@@@Z
	DD	2 DUP(00H)
	DD	2 DUP(00H)
	DD	00H
	DD	01H
__ehfuncinfo$?Setup@CPKneeView@@UAEXPAVDisplayDevice@@HHHH@Z DD 019930522H
	DD	01H
	DD	FLAT:__unwindtable$?Setup@CPKneeView@@UAEXPAVDisplayDevice@@HHHH@Z
	DD	2 DUP(00H)
	DD	2 DUP(00H)
	DD	00H
	DD	01H
xdata$x	ENDS
;	COMDAT xdata$x
xdata$x	SEGMENT
__catchsym$?_Copy@?$basic_string@DU?$char_traits@D@std@@V?$allocator@D@2@@std@@QAEXII@Z$5 DD 040H
	DD	00H
	DD	00H
	DD	FLAT:__catch$?_Copy@?$basic_string@DU?$char_traits@D@std@@V?$allocator@D@2@@std@@QAEXII@Z$0
__catchsym$?_Copy@?$basic_string@DU?$char_traits@D@std@@V?$allocator@D@2@@std@@QAEXII@Z$4 DD 040H
	DD	00H
	DD	00H
	DD	FLAT:__catch$?_Copy@?$basic_string@DU?$char_traits@D@std@@V?$allocator@D@2@@std@@QAEXII@Z$1
__unwindtable$?_Copy@?$basic_string@DU?$char_traits@D@std@@V?$allocator@D@2@@std@@QAEXII@Z DD 0ffffffffH
	DD	00H
	DD	0ffffffffH
	DD	00H
	DD	01H
	DD	00H
	DD	01H
	DD	00H
__ehfuncinfo$?_Copy@?$basic_string@DU?$char_traits@D@std@@V?$allocator@D@2@@std@@QAEXII@Z DD 019930522H
	DD	04H
	DD	FLAT:__unwindtable$?_Copy@?$basic_string@DU?$char_traits@D@std@@V?$allocator@D@2@@std@@QAEXII@Z
	DD	02H
	DD	FLAT:__tryblocktable$?_Copy@?$basic_string@DU?$char_traits@D@std@@V?$allocator@D@2@@std@@QAEXII@Z
	DD	2 DUP(00H)
	DD	00H
	DD	01H
__tryblocktable$?_Copy@?$basic_string@DU?$char_traits@D@std@@V?$allocator@D@2@@std@@QAEXII@Z DD 02H
	DD	02H
	DD	03H
	DD	01H
	DD	FLAT:__catchsym$?_Copy@?$basic_string@DU?$char_traits@D@std@@V?$allocator@D@2@@std@@QAEXII@Z$4
	DD	00H
	DD	00H
	DD	03H
	DD	01H
	DD	FLAT:__catchsym$?_Copy@?$basic_string@DU?$char_traits@D@std@@V?$allocator@D@2@@std@@QAEXII@Z$5
xdata$x	ENDS
CRT$XCU	SEGMENT
_allocator_arg$initializer$ DD FLAT:??__Eallocator_arg@std@@YAXXZ
CRT$XCU	ENDS
;	COMDAT CRT$XCU
CRT$XCU	SEGMENT
?_Generic_object$initializer$@?$_Error_objects@H@std@@2P6AXXZA DD FLAT:??__E?_Generic_object@?$_Error_objects@H@std@@2V_Generic_error_category@2@A@@YAXXZ ; std::_Error_objects<int>::_Generic_object$initializer$
CRT$XCU	ENDS
;	COMDAT CRT$XCU
CRT$XCU	SEGMENT
?_Iostream_object$initializer$@?$_Error_objects@H@std@@2P6AXXZA DD FLAT:??__E?_Iostream_object@?$_Error_objects@H@std@@2V_Iostream_error_category@2@A@@YAXXZ ; std::_Error_objects<int>::_Iostream_object$initializer$
CRT$XCU	ENDS
;	COMDAT CRT$XCU
CRT$XCU	SEGMENT
?_System_object$initializer$@?$_Error_objects@H@std@@2P6AXXZA DD FLAT:??__E?_System_object@?$_Error_objects@H@std@@2V_System_error_category@2@A@@YAXXZ ; std::_Error_objects<int>::_System_object$initializer$
CRT$XCU	ENDS
;	COMDAT CRT$XCU
CRT$XCU	SEGMENT
?id$initializer$@?$num_put@DV?$back_insert_iterator@V?$basic_string@DU?$char_traits@D@std@@V?$allocator@D@2@@std@@@std@@@std@@2P6AXXZA DD FLAT:??__E?id@?$num_put@DV?$back_insert_iterator@V?$basic_string@DU?$char_traits@D@std@@V?$allocator@D@2@@std@@@std@@@std@@2V0locale@2@A@@YAXXZ ; std::num_put<char,std::back_insert_iterator<std::basic_string<char,std::char_traits<char>,std::allocator<char> > > >::id$initializer$
CRT$XCU	ENDS
;	COMDAT CRT$XCU
CRT$XCU	SEGMENT
?id$initializer$@?$num_put@_WV?$back_insert_iterator@V?$basic_string@_WU?$char_traits@_W@std@@V?$allocator@_W@2@@std@@@std@@@std@@2P6AXXZA DD FLAT:??__E?id@?$num_put@_WV?$back_insert_iterator@V?$basic_string@_WU?$char_traits@_W@std@@V?$allocator@_W@2@@std@@@std@@@std@@2V0locale@2@A@@YAXXZ ; std::num_put<wchar_t,std::back_insert_iterator<std::basic_string<wchar_t,std::char_traits<wchar_t>,std::allocator<wchar_t> > > >::id$initializer$
CRT$XCU	ENDS
;	COMDAT CRT$XCU
CRT$XCU	SEGMENT
?id$initializer$@?$numpunct@D@std@@2P6AXXZA DD FLAT:??__E?id@?$numpunct@D@std@@2V0locale@2@A@@YAXXZ ; std::numpunct<char>::id$initializer$
CRT$XCU	ENDS
;	COMDAT CRT$XCU
CRT$XCU	SEGMENT
?id$initializer$@?$numpunct@_W@std@@2P6AXXZA DD FLAT:??__E?id@?$numpunct@_W@std@@2V0locale@2@A@@YAXXZ ; std::numpunct<wchar_t>::id$initializer$
CRT$XCU	ENDS
; Function compile flags: /Odsp
;	COMDAT ??_ECPKneeView@@WJA@AEPAXI@Z
_TEXT	SEGMENT
??_ECPKneeView@@WJA@AEPAXI@Z PROC			; [thunk]:CPKneeView::`vector deleting destructor', COMDAT
	sub	ecx, 144				; 00000090H
	jmp	??_ECPKneeView@@UAEPAXI@Z
??_ECPKneeView@@WJA@AEPAXI@Z ENDP			; [thunk]:CPKneeView::`vector deleting destructor'
_TEXT	ENDS
; Function compile flags: /Odtp
; File c:\program files (x86)\microsoft visual studio 11.0\vc\include\xmemory0
;	COMDAT ??$destroy@PAD@?$allocator@D@std@@QAEXPAPAD@Z
_TEXT	SEGMENT
_this$ = -4						; size = 4
__Ptr$ = 8						; size = 4
??$destroy@PAD@?$allocator@D@std@@QAEXPAPAD@Z PROC	; std::allocator<char>::destroy<char *>, COMDAT
; _this$ = ecx

; 621  : 		void destroy(_Uty *_Ptr)

	push	ebp
	mov	ebp, esp
	push	ecx
	mov	DWORD PTR _this$[ebp], ecx

; 622  : 		{	// destroy object at _Ptr
; 623  : 		_Ptr->~_Uty();
; 624  : 		}

	mov	esp, ebp
	pop	ebp
	ret	4
??$destroy@PAD@?$allocator@D@std@@QAEXPAPAD@Z ENDP	; std::allocator<char>::destroy<char *>
_TEXT	ENDS
; Function compile flags: /Odtp
; File c:\program files (x86)\microsoft visual studio 11.0\vc\include\xmemory0
;	COMDAT ??$construct@PADAAPAD@?$allocator@D@std@@QAEXPAPADAAPAD@Z
_TEXT	SEGMENT
$T2 = -28						; size = 4
_this$ = -24						; size = 4
tv73 = -20						; size = 4
$T3 = -16						; size = 4
__$EHRec$ = -12						; size = 12
__Ptr$ = 8						; size = 4
__V0$ = 12						; size = 4
??$construct@PADAAPAD@?$allocator@D@std@@QAEXPAPADAAPAD@Z PROC ; std::allocator<char>::construct<char *,char * &>, COMDAT
; _this$ = ecx

; 617  : _VARIADIC_EXPAND_0X(_ALLOC_MEMBER_CONSTRUCT, , , , )

	push	ebp
	mov	ebp, esp
	push	-1
	push	__ehhandler$??$construct@PADAAPAD@?$allocator@D@std@@QAEXPAPADAAPAD@Z
	mov	eax, DWORD PTR fs:0
	push	eax
	sub	esp, 16					; 00000010H
	mov	eax, DWORD PTR ___security_cookie
	xor	eax, ebp
	push	eax
	lea	eax, DWORD PTR __$EHRec$[ebp]
	mov	DWORD PTR fs:0, eax
	mov	DWORD PTR _this$[ebp], ecx
	mov	eax, DWORD PTR __Ptr$[ebp]
	push	eax
	push	4
	call	??2@YAPAXIPAX@Z				; operator new
	add	esp, 8
	mov	DWORD PTR $T3[ebp], eax
	mov	DWORD PTR __$EHRec$[ebp+8], 0
	cmp	DWORD PTR $T3[ebp], 0
	je	SHORT $LN3@construct
	mov	ecx, DWORD PTR __V0$[ebp]
	push	ecx
	call	??$forward@AAPAD@std@@YAAAPADAAPAD@Z	; std::forward<char * &>
	add	esp, 4
	mov	edx, DWORD PTR $T3[ebp]
	mov	eax, DWORD PTR [eax]
	mov	DWORD PTR [edx], eax
	mov	ecx, DWORD PTR $T3[ebp]
	mov	DWORD PTR tv73[ebp], ecx
	jmp	SHORT $LN4@construct
$LN3@construct:
	mov	DWORD PTR tv73[ebp], 0
$LN4@construct:
	mov	edx, DWORD PTR tv73[ebp]
	mov	DWORD PTR $T2[ebp], edx
	mov	DWORD PTR __$EHRec$[ebp+8], -1
	mov	ecx, DWORD PTR __$EHRec$[ebp]
	mov	DWORD PTR fs:0, ecx
	pop	ecx
	mov	esp, ebp
	pop	ebp
	ret	8
_TEXT	ENDS
;	COMDAT text$x
text$x	SEGMENT
__unwindfunclet$??$construct@PADAAPAD@?$allocator@D@std@@QAEXPAPADAAPAD@Z$0:
	mov	eax, DWORD PTR __Ptr$[ebp]
	push	eax
	mov	eax, DWORD PTR $T3[ebp]
	push	eax
	call	??3@YAXPAX0@Z				; operator delete
	add	esp, 8
	ret	0
__ehhandler$??$construct@PADAAPAD@?$allocator@D@std@@QAEXPAPADAAPAD@Z:
	mov	edx, DWORD PTR [esp+8]
	lea	eax, DWORD PTR [edx+12]
	mov	ecx, DWORD PTR [edx-20]
	xor	ecx, eax
	call	@__security_check_cookie@4
	mov	eax, OFFSET __ehfuncinfo$??$construct@PADAAPAD@?$allocator@D@std@@QAEXPAPADAAPAD@Z
	jmp	___CxxFrameHandler3
text$x	ENDS
??$construct@PADAAPAD@?$allocator@D@std@@QAEXPAPADAAPAD@Z ENDP ; std::allocator<char>::construct<char *,char * &>
; Function compile flags: /Odtp
; File c:\program files (x86)\microsoft visual studio 11.0\vc\include\xlocnum
;	COMDAT ??__E?id@?$numpunct@_W@std@@2V0locale@2@A@@YAXXZ
text$yc	SEGMENT
??__E?id@?$numpunct@_W@std@@2V0locale@2@A@@YAXXZ PROC	; `dynamic initializer for 'std::numpunct<wchar_t>::id'', COMDAT

; 155  : 		void _Getvals(wchar_t, const lconv *_Ptr, _Locinfo::_Cvtvec)

	push	ebp
	mov	ebp, esp
	push	0
	mov	ecx, OFFSET ?id@?$numpunct@_W@std@@2V0locale@2@A ; std::numpunct<wchar_t>::id
	call	??0id@locale@std@@QAE@I@Z		; std::locale::id::id
	pop	ebp
	ret	0
??__E?id@?$numpunct@_W@std@@2V0locale@2@A@@YAXXZ ENDP	; `dynamic initializer for 'std::numpunct<wchar_t>::id''
text$yc	ENDS
; Function compile flags: /Odtp
; File c:\program files (x86)\microsoft visual studio 11.0\vc\include\xlocnum
;	COMDAT ??__E?id@?$numpunct@D@std@@2V0locale@2@A@@YAXXZ
text$yc	SEGMENT
??__E?id@?$numpunct@D@std@@2V0locale@2@A@@YAXXZ PROC	; `dynamic initializer for 'std::numpunct<char>::id'', COMDAT

; 155  : 		void _Getvals(wchar_t, const lconv *_Ptr, _Locinfo::_Cvtvec)

	push	ebp
	mov	ebp, esp
	push	0
	mov	ecx, OFFSET ?id@?$numpunct@D@std@@2V0locale@2@A ; std::numpunct<char>::id
	call	??0id@locale@std@@QAE@I@Z		; std::locale::id::id
	pop	ebp
	ret	0
??__E?id@?$numpunct@D@std@@2V0locale@2@A@@YAXXZ ENDP	; `dynamic initializer for 'std::numpunct<char>::id''
text$yc	ENDS
; Function compile flags: /Odtp
; File c:\program files (x86)\microsoft visual studio 11.0\vc\include\xlocnum
;	COMDAT ??__E?id@?$num_put@_WV?$back_insert_iterator@V?$basic_string@_WU?$char_traits@_W@std@@V?$allocator@_W@2@@std@@@std@@@std@@2V0locale@2@A@@YAXXZ
text$yc	SEGMENT
??__E?id@?$num_put@_WV?$back_insert_iterator@V?$basic_string@_WU?$char_traits@_W@std@@V?$allocator@_W@2@@std@@@std@@@std@@2V0locale@2@A@@YAXXZ PROC ; `dynamic initializer for 'std::num_put<wchar_t,std::back_insert_iterator<std::basic_string<wchar_t,std::char_traits<wchar_t>,std::allocator<wchar_t> > > >::id'', COMDAT

; 155  : 		void _Getvals(wchar_t, const lconv *_Ptr, _Locinfo::_Cvtvec)

	push	ebp
	mov	ebp, esp
	push	0
	mov	ecx, OFFSET ?id@?$num_put@_WV?$back_insert_iterator@V?$basic_string@_WU?$char_traits@_W@std@@V?$allocator@_W@2@@std@@@std@@@std@@2V0locale@2@A ; std::num_put<wchar_t,std::back_insert_iterator<std::basic_string<wchar_t,std::char_traits<wchar_t>,std::allocator<wchar_t> > > >::id
	call	??0id@locale@std@@QAE@I@Z		; std::locale::id::id
	pop	ebp
	ret	0
??__E?id@?$num_put@_WV?$back_insert_iterator@V?$basic_string@_WU?$char_traits@_W@std@@V?$allocator@_W@2@@std@@@std@@@std@@2V0locale@2@A@@YAXXZ ENDP ; `dynamic initializer for 'std::num_put<wchar_t,std::back_insert_iterator<std::basic_string<wchar_t,std::char_traits<wchar_t>,std::allocator<wchar_t> > > >::id''
text$yc	ENDS
; Function compile flags: /Odtp
; File c:\program files (x86)\microsoft visual studio 11.0\vc\include\xlocnum
;	COMDAT ??__E?id@?$num_put@DV?$back_insert_iterator@V?$basic_string@DU?$char_traits@D@std@@V?$allocator@D@2@@std@@@std@@@std@@2V0locale@2@A@@YAXXZ
text$yc	SEGMENT
??__E?id@?$num_put@DV?$back_insert_iterator@V?$basic_string@DU?$char_traits@D@std@@V?$allocator@D@2@@std@@@std@@@std@@2V0locale@2@A@@YAXXZ PROC ; `dynamic initializer for 'std::num_put<char,std::back_insert_iterator<std::basic_string<char,std::char_traits<char>,std::allocator<char> > > >::id'', COMDAT

; 155  : 		void _Getvals(wchar_t, const lconv *_Ptr, _Locinfo::_Cvtvec)

	push	ebp
	mov	ebp, esp
	push	0
	mov	ecx, OFFSET ?id@?$num_put@DV?$back_insert_iterator@V?$basic_string@DU?$char_traits@D@std@@V?$allocator@D@2@@std@@@std@@@std@@2V0locale@2@A ; std::num_put<char,std::back_insert_iterator<std::basic_string<char,std::char_traits<char>,std::allocator<char> > > >::id
	call	??0id@locale@std@@QAE@I@Z		; std::locale::id::id
	pop	ebp
	ret	0
??__E?id@?$num_put@DV?$back_insert_iterator@V?$basic_string@DU?$char_traits@D@std@@V?$allocator@D@2@@std@@@std@@@std@@2V0locale@2@A@@YAXXZ ENDP ; `dynamic initializer for 'std::num_put<char,std::back_insert_iterator<std::basic_string<char,std::char_traits<char>,std::allocator<char> > > >::id''
text$yc	ENDS
; Function compile flags: /Odtp
; File c:\program files (x86)\microsoft visual studio 11.0\vc\include\xmemory0
;	COMDAT ??$destroy@PAD@?$allocator_traits@V?$allocator@D@std@@@std@@SAXAAV?$allocator@D@1@PAPAD@Z
_TEXT	SEGMENT
__Al$ = 8						; size = 4
__Ptr$ = 12						; size = 4
??$destroy@PAD@?$allocator_traits@V?$allocator@D@std@@@std@@SAXAAV?$allocator@D@1@PAPAD@Z PROC ; std::allocator_traits<std::allocator<char> >::destroy<char *>, COMDAT

; 755  : 		static void destroy(_Alloc& _Al, _Uty *_Ptr)

	push	ebp
	mov	ebp, esp

; 756  : 		{	// destroy object at _Ptr
; 757  : 		_Al.destroy(_Ptr);

	mov	eax, DWORD PTR __Ptr$[ebp]
	push	eax
	mov	ecx, DWORD PTR __Al$[ebp]
	call	??$destroy@PAD@?$allocator@D@std@@QAEXPAPAD@Z ; std::allocator<char>::destroy<char *>

; 758  : 		}

	pop	ebp
	ret	0
??$destroy@PAD@?$allocator_traits@V?$allocator@D@std@@@std@@SAXAAV?$allocator@D@1@PAPAD@Z ENDP ; std::allocator_traits<std::allocator<char> >::destroy<char *>
_TEXT	ENDS
; Function compile flags: /Odtp
; File c:\program files (x86)\microsoft visual studio 11.0\vc\include\xmemory0
;	COMDAT ??$construct@PADAAPAD@?$allocator_traits@V?$allocator@D@std@@@std@@SAXAAV?$allocator@D@1@PAPADAAPAD@Z
_TEXT	SEGMENT
__Al$ = 8						; size = 4
__Ptr$ = 12						; size = 4
__V0$ = 16						; size = 4
??$construct@PADAAPAD@?$allocator_traits@V?$allocator@D@std@@@std@@SAXAAV?$allocator@D@1@PAPADAAPAD@Z PROC ; std::allocator_traits<std::allocator<char> >::construct<char *,char * &>, COMDAT

; 751  : _VARIADIC_EXPAND_0X(_ALLOC_TRAITS_SPECIAL_CONSTRUCT, , , , )

	push	ebp
	mov	ebp, esp
	mov	eax, DWORD PTR __V0$[ebp]
	push	eax
	call	??$forward@AAPAD@std@@YAAAPADAAPAD@Z	; std::forward<char * &>
	add	esp, 4
	push	eax
	mov	ecx, DWORD PTR __Ptr$[ebp]
	push	ecx
	mov	ecx, DWORD PTR __Al$[ebp]
	call	??$construct@PADAAPAD@?$allocator@D@std@@QAEXPAPADAAPAD@Z ; std::allocator<char>::construct<char *,char * &>
	pop	ebp
	ret	0
??$construct@PADAAPAD@?$allocator_traits@V?$allocator@D@std@@@std@@SAXAAV?$allocator@D@1@PAPADAAPAD@Z ENDP ; std::allocator_traits<std::allocator<char> >::construct<char *,char * &>
_TEXT	ENDS
; Function compile flags: /Odtp
; File c:\program files (x86)\microsoft visual studio 11.0\vc\include\type_traits
;	COMDAT ??$forward@AAPAD@std@@YAAAPADAAPAD@Z
_TEXT	SEGMENT
__Arg$ = 8						; size = 4
??$forward@AAPAD@std@@YAAAPADAAPAD@Z PROC		; std::forward<char * &>, COMDAT

; 1775 : 	{	// forward an lvalue

	push	ebp
	mov	ebp, esp

; 1776 : 	return (static_cast<_Ty&&>(_Arg));

	mov	eax, DWORD PTR __Arg$[ebp]

; 1777 : 	}

	pop	ebp
	ret	0
??$forward@AAPAD@std@@YAAAPADAAPAD@Z ENDP		; std::forward<char * &>
_TEXT	ENDS
; Function compile flags: /Odtp
;	COMDAT ??__F?_System_object@?$_Error_objects@H@std@@2V_System_error_category@2@A@@YAXXZ
text$yd	SEGMENT
??__F?_System_object@?$_Error_objects@H@std@@2V_System_error_category@2@A@@YAXXZ PROC ; `dynamic atexit destructor for 'std::_Error_objects<int>::_System_object'', COMDAT
	push	ebp
	mov	ebp, esp
	mov	ecx, OFFSET ?_System_object@?$_Error_objects@H@std@@2V_System_error_category@2@A ; std::_Error_objects<int>::_System_object
	call	??1_System_error_category@std@@UAE@XZ
	pop	ebp
	ret	0
??__F?_System_object@?$_Error_objects@H@std@@2V_System_error_category@2@A@@YAXXZ ENDP ; `dynamic atexit destructor for 'std::_Error_objects<int>::_System_object''
text$yd	ENDS
; Function compile flags: /Odtp
; File c:\program files (x86)\microsoft visual studio 11.0\vc\include\xmemory0
;	COMDAT ??__E?_System_object@?$_Error_objects@H@std@@2V_System_error_category@2@A@@YAXXZ
text$yc	SEGMENT
??__E?_System_object@?$_Error_objects@H@std@@2V_System_error_category@2@A@@YAXXZ PROC ; `dynamic initializer for 'std::_Error_objects<int>::_System_object'', COMDAT

; 627  : 		{	// estimate maximum array size

	push	ebp
	mov	ebp, esp
	mov	ecx, OFFSET ?_System_object@?$_Error_objects@H@std@@2V_System_error_category@2@A ; std::_Error_objects<int>::_System_object
	call	??0_System_error_category@std@@QAE@XZ	; std::_System_error_category::_System_error_category
	push	OFFSET ??__F?_System_object@?$_Error_objects@H@std@@2V_System_error_category@2@A@@YAXXZ ; `dynamic atexit destructor for 'std::_Error_objects<int>::_System_object''
	call	_atexit
	add	esp, 4
	pop	ebp
	ret	0
??__E?_System_object@?$_Error_objects@H@std@@2V_System_error_category@2@A@@YAXXZ ENDP ; `dynamic initializer for 'std::_Error_objects<int>::_System_object''
text$yc	ENDS
; Function compile flags: /Odtp
;	COMDAT ??__F?_Iostream_object@?$_Error_objects@H@std@@2V_Iostream_error_category@2@A@@YAXXZ
text$yd	SEGMENT
??__F?_Iostream_object@?$_Error_objects@H@std@@2V_Iostream_error_category@2@A@@YAXXZ PROC ; `dynamic atexit destructor for 'std::_Error_objects<int>::_Iostream_object'', COMDAT
	push	ebp
	mov	ebp, esp
	mov	ecx, OFFSET ?_Iostream_object@?$_Error_objects@H@std@@2V_Iostream_error_category@2@A ; std::_Error_objects<int>::_Iostream_object
	call	??1_Iostream_error_category@std@@UAE@XZ
	pop	ebp
	ret	0
??__F?_Iostream_object@?$_Error_objects@H@std@@2V_Iostream_error_category@2@A@@YAXXZ ENDP ; `dynamic atexit destructor for 'std::_Error_objects<int>::_Iostream_object''
text$yd	ENDS
; Function compile flags: /Odtp
; File c:\program files (x86)\microsoft visual studio 11.0\vc\include\xmemory0
;	COMDAT ??__E?_Iostream_object@?$_Error_objects@H@std@@2V_Iostream_error_category@2@A@@YAXXZ
text$yc	SEGMENT
??__E?_Iostream_object@?$_Error_objects@H@std@@2V_Iostream_error_category@2@A@@YAXXZ PROC ; `dynamic initializer for 'std::_Error_objects<int>::_Iostream_object'', COMDAT

; 627  : 		{	// estimate maximum array size

	push	ebp
	mov	ebp, esp
	mov	ecx, OFFSET ?_Iostream_object@?$_Error_objects@H@std@@2V_Iostream_error_category@2@A ; std::_Error_objects<int>::_Iostream_object
	call	??0_Iostream_error_category@std@@QAE@XZ	; std::_Iostream_error_category::_Iostream_error_category
	push	OFFSET ??__F?_Iostream_object@?$_Error_objects@H@std@@2V_Iostream_error_category@2@A@@YAXXZ ; `dynamic atexit destructor for 'std::_Error_objects<int>::_Iostream_object''
	call	_atexit
	add	esp, 4
	pop	ebp
	ret	0
??__E?_Iostream_object@?$_Error_objects@H@std@@2V_Iostream_error_category@2@A@@YAXXZ ENDP ; `dynamic initializer for 'std::_Error_objects<int>::_Iostream_object''
text$yc	ENDS
; Function compile flags: /Odtp
;	COMDAT ??__F?_Generic_object@?$_Error_objects@H@std@@2V_Generic_error_category@2@A@@YAXXZ
text$yd	SEGMENT
??__F?_Generic_object@?$_Error_objects@H@std@@2V_Generic_error_category@2@A@@YAXXZ PROC ; `dynamic atexit destructor for 'std::_Error_objects<int>::_Generic_object'', COMDAT
	push	ebp
	mov	ebp, esp
	mov	ecx, OFFSET ?_Generic_object@?$_Error_objects@H@std@@2V_Generic_error_category@2@A ; std::_Error_objects<int>::_Generic_object
	call	??1_Generic_error_category@std@@UAE@XZ
	pop	ebp
	ret	0
??__F?_Generic_object@?$_Error_objects@H@std@@2V_Generic_error_category@2@A@@YAXXZ ENDP ; `dynamic atexit destructor for 'std::_Error_objects<int>::_Generic_object''
text$yd	ENDS
; Function compile flags: /Odtp
; File c:\program files (x86)\microsoft visual studio 11.0\vc\include\xmemory0
;	COMDAT ??__E?_Generic_object@?$_Error_objects@H@std@@2V_Generic_error_category@2@A@@YAXXZ
text$yc	SEGMENT
??__E?_Generic_object@?$_Error_objects@H@std@@2V_Generic_error_category@2@A@@YAXXZ PROC ; `dynamic initializer for 'std::_Error_objects<int>::_Generic_object'', COMDAT

; 627  : 		{	// estimate maximum array size

	push	ebp
	mov	ebp, esp
	mov	ecx, OFFSET ?_Generic_object@?$_Error_objects@H@std@@2V_Generic_error_category@2@A ; std::_Error_objects<int>::_Generic_object
	call	??0_Generic_error_category@std@@QAE@XZ	; std::_Generic_error_category::_Generic_error_category
	push	OFFSET ??__F?_Generic_object@?$_Error_objects@H@std@@2V_Generic_error_category@2@A@@YAXXZ ; `dynamic atexit destructor for 'std::_Error_objects<int>::_Generic_object''
	call	_atexit
	add	esp, 4
	pop	ebp
	ret	0
??__E?_Generic_object@?$_Error_objects@H@std@@2V_Generic_error_category@2@A@@YAXXZ ENDP ; `dynamic initializer for 'std::_Error_objects<int>::_Generic_object''
text$yc	ENDS
; Function compile flags: /Odtp
; File c:\program files (x86)\microsoft visual studio 11.0\vc\include\xmemory0
;	COMDAT ??$_Allocate@D@std@@YAPADIPAD@Z
_TEXT	SEGMENT
__Ptr$ = -4						; size = 4
__Count$ = 8						; size = 4
___formal$ = 12						; size = 4
??$_Allocate@D@std@@YAPADIPAD@Z PROC			; std::_Allocate<char>, COMDAT

; 22   : 	{	// allocate storage for _Count elements of type _Ty

	push	ebp
	mov	ebp, esp
	push	ecx

; 23   : 	void *_Ptr = 0;

	mov	DWORD PTR __Ptr$[ebp], 0

; 24   : 
; 25   : 	if (_Count == 0)

	cmp	DWORD PTR __Count$[ebp], 0
	jne	SHORT $LN4@Allocate

; 26   : 		;
; 27   : 	else if (((size_t)(-1) / sizeof (_Ty) < _Count)

	jmp	SHORT $LN3@Allocate
$LN4@Allocate:

; 28   : 		|| (_Ptr = ::operator new(_Count * sizeof (_Ty))) == 0)

	cmp	DWORD PTR __Count$[ebp], -1
	ja	SHORT $LN1@Allocate
	mov	eax, DWORD PTR __Count$[ebp]
	push	eax
	call	??2@YAPAXI@Z				; operator new
	add	esp, 4
	mov	DWORD PTR __Ptr$[ebp], eax
	cmp	DWORD PTR __Ptr$[ebp], 0
	jne	SHORT $LN3@Allocate
$LN1@Allocate:

; 29   : 		_Xbad_alloc();	// report no memory

	call	?_Xbad_alloc@std@@YAXXZ			; std::_Xbad_alloc
$LN3@Allocate:

; 30   : 
; 31   : 	return ((_Ty *)_Ptr);

	mov	eax, DWORD PTR __Ptr$[ebp]
$LN6@Allocate:

; 32   : 	}

	mov	esp, ebp
	pop	ebp
	ret	0
??$_Allocate@D@std@@YAPADIPAD@Z ENDP			; std::_Allocate<char>
_TEXT	ENDS
; Function compile flags: /Odtp
; File c:\program files (x86)\microsoft visual studio 11.0\vc\include\xstddef
;	COMDAT ??$addressof@D@std@@YAPADAAD@Z
_TEXT	SEGMENT
__Val$ = 8						; size = 4
??$addressof@D@std@@YAPADAAD@Z PROC			; std::addressof<char>, COMDAT

; 85   : 	{	// return address of _Val

	push	ebp
	mov	ebp, esp

; 86   : 	return (reinterpret_cast<_Ty *>(
; 87   : 		(&const_cast<char&>(
; 88   : 		reinterpret_cast<const volatile char&>(_Val)))));

	mov	eax, DWORD PTR __Val$[ebp]

; 89   : 	}

	pop	ebp
	ret	0
??$addressof@D@std@@YAPADAAD@Z ENDP			; std::addressof<char>
_TEXT	ENDS
; Function compile flags: /Odtp
; File c:\program files (x86)\microsoft visual studio 11.0\vc\include\xmemory0
;	COMDAT ??$destroy@PAD@?$_Wrap_alloc@V?$allocator@D@std@@@std@@QAEXPAPAD@Z
_TEXT	SEGMENT
_this$ = -4						; size = 4
__Ptr$ = 8						; size = 4
??$destroy@PAD@?$_Wrap_alloc@V?$allocator@D@std@@@std@@QAEXPAPAD@Z PROC ; std::_Wrap_alloc<std::allocator<char> >::destroy<char *>, COMDAT
; _this$ = ecx

; 907  : 		void destroy(_Ty *_Ptr)

	push	ebp
	mov	ebp, esp
	push	ecx
	mov	DWORD PTR _this$[ebp], ecx

; 908  : 		{	// destroy object at _Ptr
; 909  : 		_Mytraits::destroy(*this, _Ptr);

	mov	eax, DWORD PTR __Ptr$[ebp]
	push	eax
	mov	ecx, DWORD PTR _this$[ebp]
	push	ecx
	call	??$destroy@PAD@?$allocator_traits@V?$allocator@D@std@@@std@@SAXAAV?$allocator@D@1@PAPAD@Z ; std::allocator_traits<std::allocator<char> >::destroy<char *>
	add	esp, 8

; 910  : 		}

	mov	esp, ebp
	pop	ebp
	ret	4
??$destroy@PAD@?$_Wrap_alloc@V?$allocator@D@std@@@std@@QAEXPAPAD@Z ENDP ; std::_Wrap_alloc<std::allocator<char> >::destroy<char *>
_TEXT	ENDS
; Function compile flags: /Odtp
; File c:\program files (x86)\microsoft visual studio 11.0\vc\include\xmemory0
;	COMDAT ??$construct@PADAAPAD@?$_Wrap_alloc@V?$allocator@D@std@@@std@@QAEXPAPADAAPAD@Z
_TEXT	SEGMENT
_this$ = -4						; size = 4
__Ptr$ = 8						; size = 4
__V0$ = 12						; size = 4
??$construct@PADAAPAD@?$_Wrap_alloc@V?$allocator@D@std@@@std@@QAEXPAPADAAPAD@Z PROC ; std::_Wrap_alloc<std::allocator<char> >::construct<char *,char * &>, COMDAT
; _this$ = ecx

; 903  : _VARIADIC_EXPAND_0X(_WRAP_ALLOC_CONSTRUCT, , , , )

	push	ebp
	mov	ebp, esp
	push	ecx
	mov	DWORD PTR _this$[ebp], ecx
	mov	eax, DWORD PTR __V0$[ebp]
	push	eax
	call	??$forward@AAPAD@std@@YAAAPADAAPAD@Z	; std::forward<char * &>
	add	esp, 4
	push	eax
	mov	ecx, DWORD PTR __Ptr$[ebp]
	push	ecx
	mov	edx, DWORD PTR _this$[ebp]
	push	edx
	call	??$construct@PADAAPAD@?$allocator_traits@V?$allocator@D@std@@@std@@SAXAAV?$allocator@D@1@PAPADAAPAD@Z ; std::allocator_traits<std::allocator<char> >::construct<char *,char * &>
	add	esp, 12					; 0000000cH
	mov	esp, ebp
	pop	ebp
	ret	8
??$construct@PADAAPAD@?$_Wrap_alloc@V?$allocator@D@std@@@std@@QAEXPAPADAAPAD@Z ENDP ; std::_Wrap_alloc<std::allocator<char> >::construct<char *,char * &>
_TEXT	ENDS
; Function compile flags: /Odtp
; File c:\users\zhitao li\documents\visual studio 2012\projects\freefalcon\graphics\include\tmap.h
;	COMDAT ?SouthEdge@TMap@@QAEMXZ
_TEXT	SEGMENT
_this$ = -4						; size = 4
?SouthEdge@TMap@@QAEMXZ PROC				; TMap::SouthEdge, COMDAT
; _this$ = ecx

; 42   : 	float	SouthEdge()	{ ShiAssert(IsReady());  return 0.0f; };

	push	ebp
	mov	ebp, esp
	push	ecx
	mov	DWORD PTR _this$[ebp], ecx
	fldz
	mov	esp, ebp
	pop	ebp
	ret	0
?SouthEdge@TMap@@QAEMXZ ENDP				; TMap::SouthEdge
_TEXT	ENDS
; Function compile flags: /Odtp
; File c:\users\zhitao li\documents\visual studio 2012\projects\freefalcon\graphics\include\tmap.h
;	COMDAT ?WestEdge@TMap@@QAEMXZ
_TEXT	SEGMENT
_this$ = -4						; size = 4
?WestEdge@TMap@@QAEMXZ PROC				; TMap::WestEdge, COMDAT
; _this$ = ecx

; 41   : 	float	WestEdge()	{ ShiAssert(IsReady());  return 0.0f; };

	push	ebp
	mov	ebp, esp
	push	ecx
	mov	DWORD PTR _this$[ebp], ecx
	fldz
	mov	esp, ebp
	pop	ebp
	ret	0
?WestEdge@TMap@@QAEMXZ ENDP				; TMap::WestEdge
_TEXT	ENDS
; Function compile flags: /Odtp
; File c:\users\zhitao li\documents\visual studio 2012\projects\freefalcon\graphics\include\tmap.h
;	COMDAT ?EastEdge@TMap@@QAEMXZ
_TEXT	SEGMENT
tv79 = -28						; size = 8
tv89 = -20						; size = 4
tv87 = -16						; size = 4
tv93 = -12						; size = 4
_this$ = -8						; size = 4
tv76 = -4						; size = 4
?EastEdge@TMap@@QAEMXZ PROC				; TMap::EastEdge, COMDAT
; _this$ = ecx

; 40   : 	float	EastEdge()	{ ShiAssert(IsReady());  return Levels->BlocksWide()*Levels->FTperBLOCK(); };

	push	ebp
	mov	ebp, esp
	sub	esp, 28					; 0000001cH
	mov	DWORD PTR _this$[ebp], ecx
	mov	eax, DWORD PTR _this$[ebp]
	mov	ecx, DWORD PTR [eax+12304]
	call	?BlocksWide@TLevel@@QAEIXZ		; TLevel::BlocksWide
	mov	DWORD PTR tv76[ebp], eax
	cvtsi2sd xmm0, DWORD PTR tv76[ebp]
	mov	ecx, DWORD PTR tv76[ebp]
	shr	ecx, 31					; 0000001fH
	addsd	xmm0, QWORD PTR __xmm@41f00000000000000000000000000000[ecx*8]
	movsd	QWORD PTR tv79[ebp], xmm0
	cvtsd2ss xmm0, QWORD PTR tv79[ebp]
	mov	edx, DWORD PTR _this$[ebp]
	mov	ecx, DWORD PTR [edx+12304]
	movss	DWORD PTR tv93[ebp], xmm0
	call	?FTperBLOCK@TLevel@@QAEMXZ		; TLevel::FTperBLOCK
	fstp	DWORD PTR tv87[ebp]
	movss	xmm0, DWORD PTR tv93[ebp]
	mulss	xmm0, DWORD PTR tv87[ebp]
	movss	DWORD PTR tv89[ebp], xmm0
	fld	DWORD PTR tv89[ebp]
	mov	esp, ebp
	pop	ebp
	ret	0
?EastEdge@TMap@@QAEMXZ ENDP				; TMap::EastEdge
_TEXT	ENDS
; Function compile flags: /Odtp
; File c:\users\zhitao li\documents\visual studio 2012\projects\freefalcon\graphics\include\tmap.h
;	COMDAT ?NorthEdge@TMap@@QAEMXZ
_TEXT	SEGMENT
tv79 = -28						; size = 8
tv89 = -20						; size = 4
tv87 = -16						; size = 4
tv93 = -12						; size = 4
_this$ = -8						; size = 4
tv76 = -4						; size = 4
?NorthEdge@TMap@@QAEMXZ PROC				; TMap::NorthEdge, COMDAT
; _this$ = ecx

; 39   : 	float	NorthEdge()	{ ShiAssert(IsReady());  return Levels->BlocksHigh()*Levels->FTperBLOCK(); };

	push	ebp
	mov	ebp, esp
	sub	esp, 28					; 0000001cH
	mov	DWORD PTR _this$[ebp], ecx
	mov	eax, DWORD PTR _this$[ebp]
	mov	ecx, DWORD PTR [eax+12304]
	call	?BlocksHigh@TLevel@@QAEIXZ		; TLevel::BlocksHigh
	mov	DWORD PTR tv76[ebp], eax
	cvtsi2sd xmm0, DWORD PTR tv76[ebp]
	mov	ecx, DWORD PTR tv76[ebp]
	shr	ecx, 31					; 0000001fH
	addsd	xmm0, QWORD PTR __xmm@41f00000000000000000000000000000[ecx*8]
	movsd	QWORD PTR tv79[ebp], xmm0
	cvtsd2ss xmm0, QWORD PTR tv79[ebp]
	mov	edx, DWORD PTR _this$[ebp]
	mov	ecx, DWORD PTR [edx+12304]
	movss	DWORD PTR tv93[ebp], xmm0
	call	?FTperBLOCK@TLevel@@QAEMXZ		; TLevel::FTperBLOCK
	fstp	DWORD PTR tv87[ebp]
	movss	xmm0, DWORD PTR tv93[ebp]
	mulss	xmm0, DWORD PTR tv87[ebp]
	movss	DWORD PTR tv89[ebp], xmm0
	fld	DWORD PTR tv89[ebp]
	mov	esp, ebp
	pop	ebp
	ret	0
?NorthEdge@TMap@@QAEMXZ ENDP				; TMap::NorthEdge
_TEXT	ENDS
; Function compile flags: /Odtp
; File c:\users\zhitao li\documents\visual studio 2012\projects\freefalcon\graphics\include\tlevel.h
;	COMDAT ?BlocksHigh@TLevel@@QAEIXZ
_TEXT	SEGMENT
_this$ = -4						; size = 4
?BlocksHigh@TLevel@@QAEIXZ PROC				; TLevel::BlocksHigh, COMDAT
; _this$ = ecx

; 54   : 	UINT	BlocksHigh( void ) { return blocks_high; };		// How many blocks high is this level

	push	ebp
	mov	ebp, esp
	push	ecx
	mov	DWORD PTR _this$[ebp], ecx
	mov	eax, DWORD PTR _this$[ebp]
	mov	eax, DWORD PTR [eax+4]
	mov	esp, ebp
	pop	ebp
	ret	0
?BlocksHigh@TLevel@@QAEIXZ ENDP				; TLevel::BlocksHigh
_TEXT	ENDS
; Function compile flags: /Odtp
; File c:\users\zhitao li\documents\visual studio 2012\projects\freefalcon\graphics\include\tlevel.h
;	COMDAT ?BlocksWide@TLevel@@QAEIXZ
_TEXT	SEGMENT
_this$ = -4						; size = 4
?BlocksWide@TLevel@@QAEIXZ PROC				; TLevel::BlocksWide, COMDAT
; _this$ = ecx

; 53   : 	UINT	BlocksWide( void ) { return blocks_wide; };	 	// How many blocks across is this level

	push	ebp
	mov	ebp, esp
	push	ecx
	mov	DWORD PTR _this$[ebp], ecx
	mov	eax, DWORD PTR _this$[ebp]
	mov	eax, DWORD PTR [eax]
	mov	esp, ebp
	pop	ebp
	ret	0
?BlocksWide@TLevel@@QAEIXZ ENDP				; TLevel::BlocksWide
_TEXT	ENDS
; Function compile flags: /Odtp
; File c:\users\zhitao li\documents\visual studio 2012\projects\freefalcon\graphics\include\tlevel.h
;	COMDAT ?FTperBLOCK@TLevel@@QAEMXZ
_TEXT	SEGMENT
_this$ = -4						; size = 4
?FTperBLOCK@TLevel@@QAEMXZ PROC				; TLevel::FTperBLOCK, COMDAT
; _this$ = ecx

; 48   :   	float	FTperBLOCK()	{ return feet_per_block; };

	push	ebp
	mov	ebp, esp
	push	ecx
	mov	DWORD PTR _this$[ebp], ecx
	mov	eax, DWORD PTR _this$[ebp]
	fld	DWORD PTR [eax+16]
	mov	esp, ebp
	pop	ebp
	ret	0
?FTperBLOCK@TLevel@@QAEMXZ ENDP				; TLevel::FTperBLOCK
_TEXT	ENDS
; Function compile flags: /Odtp
; File c:\users\zhitao li\documents\visual studio 2012\projects\freefalcon\sim\include\simdrive.h
;	COMDAT ?GetPlayerEntity@SimulationDriver@@QBEPAVSimMoverClass@@XZ
_TEXT	SEGMENT
_this$ = -4						; size = 4
?GetPlayerEntity@SimulationDriver@@QBEPAVSimMoverClass@@XZ PROC ; SimulationDriver::GetPlayerEntity, COMDAT
; _this$ = ecx

; 76   : 	SimMoverClass *GetPlayerEntity() const { return const_cast<SimMoverClass*>(playerEntity); }

	push	ebp
	mov	ebp, esp
	push	ecx
	mov	DWORD PTR _this$[ebp], ecx
	mov	eax, DWORD PTR _this$[ebp]
	mov	eax, DWORD PTR [eax+56]
	mov	esp, ebp
	pop	ebp
	ret	0
?GetPlayerEntity@SimulationDriver@@QBEPAVSimMoverClass@@XZ ENDP ; SimulationDriver::GetPlayerEntity
_TEXT	ENDS
; Function compile flags: /Odtp
; File c:\users\zhitao li\documents\visual studio 2012\projects\freefalcon\sim\include\simdrive.h
;	COMDAT ?RunningDogfight@SimulationDriver@@QBE_NXZ
_TEXT	SEGMENT
_this$ = -12						; size = 4
tv80 = -8						; size = 4
tv76 = -4						; size = 4
?RunningDogfight@SimulationDriver@@QBE_NXZ PROC		; SimulationDriver::RunningDogfight, COMDAT
; _this$ = ecx

; 55   : 	bool RunningDogfight() const             { return FalconLocalGame->GetGameType() == game_Dogfight; }

	push	ebp
	mov	ebp, esp
	sub	esp, 12					; 0000000cH
	mov	DWORD PTR _this$[ebp], ecx
	mov	ecx, OFFSET ?vuLocalSessionEntity@@3V?$VuBin@VVuSessionEntity@@@@A ; vuLocalSessionEntity
	call	??B?$VuBin@VVuSessionEntity@@@@QBE_NXZ	; VuBin<VuSessionEntity>::operator bool
	movzx	eax, al
	test	eax, eax
	je	SHORT $LN3@RunningDog
	mov	ecx, OFFSET ?vuLocalSessionEntity@@3V?$VuBin@VVuSessionEntity@@@@A ; vuLocalSessionEntity
	call	?get@?$VuBin@VVuSessionEntity@@@@QBEPAVVuSessionEntity@@XZ ; VuBin<VuSessionEntity>::get
	mov	ecx, eax
	call	?GetGame@FalconSessionEntity@@QAEPAVFalconGameEntity@@XZ ; FalconSessionEntity::GetGame
	mov	DWORD PTR tv76[ebp], eax
	jmp	SHORT $LN4@RunningDog
$LN3@RunningDog:
	mov	DWORD PTR tv76[ebp], 0
$LN4@RunningDog:
	mov	ecx, DWORD PTR tv76[ebp]
	call	?GetGameType@FalconGameEntity@@QAE?AW4FalconGameType@@XZ ; FalconGameEntity::GetGameType
	cmp	eax, 2
	jne	SHORT $LN5@RunningDog
	mov	DWORD PTR tv80[ebp], 1
	jmp	SHORT $LN6@RunningDog
$LN5@RunningDog:
	mov	DWORD PTR tv80[ebp], 0
$LN6@RunningDog:
	mov	al, BYTE PTR tv80[ebp]
	mov	esp, ebp
	pop	ebp
	ret	0
?RunningDogfight@SimulationDriver@@QBE_NXZ ENDP		; SimulationDriver::RunningDogfight
_TEXT	ENDS
; Function compile flags: /Odtp
; File c:\users\zhitao li\documents\visual studio 2012\projects\freefalcon\sim\include\simdrive.h
;	COMDAT ?RunningInstantAction@SimulationDriver@@QBE_NXZ
_TEXT	SEGMENT
_this$ = -12						; size = 4
tv80 = -8						; size = 4
tv76 = -4						; size = 4
?RunningInstantAction@SimulationDriver@@QBE_NXZ PROC	; SimulationDriver::RunningInstantAction, COMDAT
; _this$ = ecx

; 53   : 	bool RunningInstantAction() const  { return FalconLocalGame->GetGameType() == game_InstantAction; }

	push	ebp
	mov	ebp, esp
	sub	esp, 12					; 0000000cH
	mov	DWORD PTR _this$[ebp], ecx
	mov	ecx, OFFSET ?vuLocalSessionEntity@@3V?$VuBin@VVuSessionEntity@@@@A ; vuLocalSessionEntity
	call	??B?$VuBin@VVuSessionEntity@@@@QBE_NXZ	; VuBin<VuSessionEntity>::operator bool
	movzx	eax, al
	test	eax, eax
	je	SHORT $LN3@RunningIns
	mov	ecx, OFFSET ?vuLocalSessionEntity@@3V?$VuBin@VVuSessionEntity@@@@A ; vuLocalSessionEntity
	call	?get@?$VuBin@VVuSessionEntity@@@@QBEPAVVuSessionEntity@@XZ ; VuBin<VuSessionEntity>::get
	mov	ecx, eax
	call	?GetGame@FalconSessionEntity@@QAEPAVFalconGameEntity@@XZ ; FalconSessionEntity::GetGame
	mov	DWORD PTR tv76[ebp], eax
	jmp	SHORT $LN4@RunningIns
$LN3@RunningIns:
	mov	DWORD PTR tv76[ebp], 0
$LN4@RunningIns:
	mov	ecx, DWORD PTR tv76[ebp]
	call	?GetGameType@FalconGameEntity@@QAE?AW4FalconGameType@@XZ ; FalconGameEntity::GetGameType
	cmp	eax, 1
	jne	SHORT $LN5@RunningIns
	mov	DWORD PTR tv80[ebp], 1
	jmp	SHORT $LN6@RunningIns
$LN5@RunningIns:
	mov	DWORD PTR tv80[ebp], 0
$LN6@RunningIns:
	mov	al, BYTE PTR tv80[ebp]
	mov	esp, ebp
	pop	ebp
	ret	0
?RunningInstantAction@SimulationDriver@@QBE_NXZ ENDP	; SimulationDriver::RunningInstantAction
_TEXT	ENDS
; Function compile flags: /Odtp
; File c:\users\zhitao li\documents\visual studio 2012\projects\freefalcon\falclib\include\falcsess.h
;	COMDAT ?GetGame@FalconSessionEntity@@QAEPAVFalconGameEntity@@XZ
_TEXT	SEGMENT
_this$ = -4						; size = 4
?GetGame@FalconSessionEntity@@QAEPAVFalconGameEntity@@XZ PROC ; FalconSessionEntity::GetGame, COMDAT
; _this$ = ecx

; 154  : 	FalconGameEntity* GetGame (void)              { return (FalconGameEntity*)VuSessionEntity::Game(); }

	push	ebp
	mov	ebp, esp
	push	ecx
	mov	DWORD PTR _this$[ebp], ecx
	mov	ecx, DWORD PTR _this$[ebp]
	call	?Game@VuSessionEntity@@QAEPAVVuGameEntity@@XZ ; VuSessionEntity::Game
	mov	esp, ebp
	pop	ebp
	ret	0
?GetGame@FalconSessionEntity@@QAEPAVFalconGameEntity@@XZ ENDP ; FalconSessionEntity::GetGame
_TEXT	ENDS
; Function compile flags: /Odtp
;	COMDAT ??_GCPKneeView@@UAEPAXI@Z
_TEXT	SEGMENT
_this$ = -4						; size = 4
___flags$ = 8						; size = 4
??_GCPKneeView@@UAEPAXI@Z PROC				; CPKneeView::`scalar deleting destructor', COMDAT
; _this$ = ecx
	push	ebp
	mov	ebp, esp
	push	ecx
	mov	DWORD PTR _this$[ebp], ecx
	mov	ecx, DWORD PTR _this$[ebp]
	call	??1CPKneeView@@UAE@XZ			; CPKneeView::~CPKneeView
	mov	eax, DWORD PTR ___flags$[ebp]
	and	eax, 1
	je	SHORT $LN1@scalar
	mov	ecx, DWORD PTR _this$[ebp]
	push	ecx
	call	??3@YAXPAX@Z				; operator delete
	add	esp, 4
$LN1@scalar:
	mov	eax, DWORD PTR _this$[ebp]
	mov	esp, ebp
	pop	ebp
	ret	4
??_GCPKneeView@@UAEPAXI@Z ENDP				; CPKneeView::`scalar deleting destructor'
_TEXT	ENDS
; Function compile flags: /Odtp
; File c:\users\zhitao li\documents\visual studio 2012\projects\freefalcon\sim\cockpit\cpkneeview.cpp
_TEXT	SEGMENT
_wpZ$ = -16						; size = 4
_wpY$ = -12						; size = 4
_wpX$ = -8						; size = 4
_this$ = -4						; size = 4
_pwaypoint$ = 8						; size = 4
_h$ = 12						; size = 4
_v$ = 16						; size = 4
?MapWaypointToDisplay@CPKneeView@@AAEXPAVWayPointClass@@PAM1@Z PROC ; CPKneeView::MapWaypointToDisplay
; _this$ = ecx

; 530  : {

	push	ebp
	mov	ebp, esp
	sub	esp, 16					; 00000010H
	mov	DWORD PTR _this$[ebp], ecx

; 531  : 	float wpX;
; 532  : 	float wpY;
; 533  : 	float wpZ;
; 534  : 
; 535  : 	pwaypoint->GetLocation (&wpX, &wpY, &wpZ);

	lea	eax, DWORD PTR _wpZ$[ebp]
	push	eax
	lea	ecx, DWORD PTR _wpY$[ebp]
	push	ecx
	lea	edx, DWORD PTR _wpX$[ebp]
	push	edx
	mov	ecx, DWORD PTR _pwaypoint$[ebp]
	call	?GetLocation@WayPointClass@@QBEXPAM00@Z	; WayPointClass::GetLocation

; 536  : 
; 537  : 	// Return values are in screen space, while the waypoint location is in falcon (X North, Y East)
; 538  : 	*v = (wpX - wsVcenter) / wsVsize;

	mov	eax, DWORD PTR _this$[ebp]
	movss	xmm0, DWORD PTR _wpX$[ebp]
	subss	xmm0, DWORD PTR [eax+263024]
	mov	ecx, DWORD PTR _this$[ebp]
	divss	xmm0, DWORD PTR [ecx+263036]
	mov	edx, DWORD PTR _v$[ebp]
	movss	DWORD PTR [edx], xmm0

; 539  : 	*h = (wpY - wsHcenter) / wsHsize;

	mov	eax, DWORD PTR _this$[ebp]
	movss	xmm0, DWORD PTR _wpY$[ebp]
	subss	xmm0, DWORD PTR [eax+263028]
	mov	ecx, DWORD PTR _this$[ebp]
	divss	xmm0, DWORD PTR [ecx+263032]
	mov	edx, DWORD PTR _h$[ebp]
	movss	DWORD PTR [edx], xmm0

; 540  : }

	mov	esp, ebp
	pop	ebp
	ret	12					; 0000000cH
?MapWaypointToDisplay@CPKneeView@@AAEXPAVWayPointClass@@PAM1@Z ENDP ; CPKneeView::MapWaypointToDisplay
_TEXT	ENDS
; Function compile flags: /Odtp
; File c:\users\zhitao li\documents\visual studio 2012\projects\freefalcon\sim\cockpit\cpkneeview.cpp
_TEXT	SEGMENT
tv323 = -112						; size = 4
_aspect$ = -108						; size = 4
tv299 = -104						; size = 4
_acColor$ = -100					; size = 4
tv305 = -96						; size = 4
_rColor$ = -92						; size = 4
tv313 = -88						; size = 4
_trig$ = -84						; size = 8
_v$ = -76						; size = 4
_h$ = -72						; size = 4
_this$ = -68						; size = 4
_i$1 = -64						; size = 4
_x$ = -60						; size = 28
_y$ = -32						; size = 28
__$ArrayPad$ = -4					; size = 4
_targetBuffer$ = 8					; size = 4
_renderer$ = 12						; size = 4
_platform$ = 16						; size = 4
?DrawCurrentPosition@CPKneeView@@AAEXPAVImageBuffer@@PAVRender2D@@PAVSimVehicleClass@@@Z PROC ; CPKneeView::DrawCurrentPosition
; _this$ = ecx

; 455  : {

	push	ebp
	mov	ebp, esp
	sub	esp, 112				; 00000070H
	mov	eax, DWORD PTR ___security_cookie
	xor	eax, ebp
	mov	DWORD PTR __$ArrayPad$[ebp], eax
	mov	DWORD PTR _this$[ebp], ecx

; 456  : 	const float	aspect = (float)srcRect.right/(float)srcRect.bottom;

	mov	eax, DWORD PTR _this$[ebp]
	cvtsi2ss xmm0, DWORD PTR [eax+262996]
	mov	ecx, DWORD PTR _this$[ebp]
	cvtsi2ss xmm1, DWORD PTR [ecx+263000]
	divss	xmm0, xmm1
	movss	DWORD PTR _aspect$[ebp], xmm0

; 457  : 	float		h, v;
; 458  : 	mlTrig		trig;
; 459  : 	static const struct {
; 460  : 		float	x,	y;
; 461  : 	} pos[] = {
; 462  : 		 0.0f,   1.0f,			// nose
; 463  : 		 0.0f,  -1.0f,			// tail
; 464  : 		-1.0f,  -0.4f,			// left wing tip
; 465  : 		 1.0f,  -0.4f,			// right wing tip
; 466  : 		 0.0f,   0.3f,			// leading edge at fuselage
; 467  : 		-0.5f,  -1.0f,			// left stab
; 468  : 		-0.5f,  -1.0f,			// right stab
; 469  : 	};
; 470  : 	static const int	numPoints = sizeof(pos)/sizeof(pos[0]);
; 471  : 	float	x[numPoints];
; 472  : 	float	y[numPoints];
; 473  : 
; 474  : 	// Convert our position into display space within the destination rect
; 475  : 	v = (platform->XPos() - wsVcenter) / wsVsize;

	mov	ecx, DWORD PTR _platform$[ebp]
	call	?XPos@VuEntity@@QBEMXZ			; VuEntity::XPos
	fstp	DWORD PTR tv299[ebp]
	movss	xmm0, DWORD PTR tv299[ebp]
	mov	edx, DWORD PTR _this$[ebp]
	subss	xmm0, DWORD PTR [edx+263024]
	mov	eax, DWORD PTR _this$[ebp]
	divss	xmm0, DWORD PTR [eax+263036]
	movss	DWORD PTR _v$[ebp], xmm0

; 476  : 	h = (platform->YPos() - wsHcenter) / wsHsize;

	mov	ecx, DWORD PTR _platform$[ebp]
	call	?YPos@VuEntity@@QBEMXZ			; VuEntity::YPos
	fstp	DWORD PTR tv305[ebp]
	movss	xmm0, DWORD PTR tv305[ebp]
	mov	ecx, DWORD PTR _this$[ebp]
	subss	xmm0, DWORD PTR [ecx+263028]
	mov	edx, DWORD PTR _this$[ebp]
	divss	xmm0, DWORD PTR [edx+263032]
	movss	DWORD PTR _h$[ebp], xmm0

; 477  : 	if (fabs(v) > 0.95f) {

	push	ecx
	movss	xmm0, DWORD PTR _v$[ebp]
	movss	DWORD PTR [esp], xmm0
	call	?fabs@@YAMM@Z				; fabs
	add	esp, 4
	fstp	DWORD PTR tv313[ebp]
	movss	xmm0, DWORD PTR tv313[ebp]
	comiss	xmm0, DWORD PTR __real@3f733333
	jbe	SHORT $LN8@DrawCurren

; 478  : 		if (v > 0.95f) {

	movss	xmm0, DWORD PTR _v$[ebp]
	comiss	xmm0, DWORD PTR __real@3f733333
	jbe	SHORT $LN10@DrawCurren

; 479  : 			v =  0.95f;

	movss	xmm0, DWORD PTR __real@3f733333
	movss	DWORD PTR _v$[ebp], xmm0

; 480  : 		} else {

	jmp	SHORT $LN9@DrawCurren
$LN10@DrawCurren:

; 481  : 			v = -0.95f;

	movss	xmm0, DWORD PTR __real@bf733333
	movss	DWORD PTR _v$[ebp], xmm0
$LN9@DrawCurren:

; 482  : 		}
; 483  : 
; 484  : 		if (vuxRealTime & 0x200) {

	mov	eax, DWORD PTR ?vuxRealTime@@3KA	; vuxRealTime
	and	eax, 512				; 00000200H
	je	SHORT $LN8@DrawCurren

; 485  : 			// Don't draw to implement a flashing icon when the real postion is off screen.
; 486  : 			return;

	jmp	$LN12@DrawCurren
$LN8@DrawCurren:

; 487  : 		}
; 488  : 	}
; 489  : 	if (fabs(h) > 0.95f) {

	push	ecx
	movss	xmm0, DWORD PTR _h$[ebp]
	movss	DWORD PTR [esp], xmm0
	call	?fabs@@YAMM@Z				; fabs
	add	esp, 4
	fstp	DWORD PTR tv323[ebp]
	movss	xmm0, DWORD PTR tv323[ebp]
	comiss	xmm0, DWORD PTR __real@3f733333
	jbe	SHORT $LN4@DrawCurren

; 490  : 		if (h > 0.95f) {

	movss	xmm0, DWORD PTR _h$[ebp]
	comiss	xmm0, DWORD PTR __real@3f733333
	jbe	SHORT $LN6@DrawCurren

; 491  : 			h =  0.95f;

	movss	xmm0, DWORD PTR __real@3f733333
	movss	DWORD PTR _h$[ebp], xmm0

; 492  : 		} else {

	jmp	SHORT $LN5@DrawCurren
$LN6@DrawCurren:

; 493  : 			h = -0.95f;

	movss	xmm0, DWORD PTR __real@bf733333
	movss	DWORD PTR _h$[ebp], xmm0
$LN5@DrawCurren:

; 494  : 		}
; 495  : 
; 496  : 		if (vuxRealTime & 0x200) {

	mov	ecx, DWORD PTR ?vuxRealTime@@3KA	; vuxRealTime
	and	ecx, 512				; 00000200H
	je	SHORT $LN4@DrawCurren

; 497  : 			// Don't draw to implement a flashing icon when the real postion is off screen.
; 498  : 			return;

	jmp	$LN12@DrawCurren
$LN4@DrawCurren:

; 499  : 		}
; 500  : 	}
; 501  : 
; 502  : 	// Setup local coordinates for the symbol drawing
; 503  : 	renderer->CenterOriginInViewport();

	mov	ecx, DWORD PTR _renderer$[ebp]
	call	?CenterOriginInViewport@VirtualDisplay@@QAEXXZ ; VirtualDisplay::CenterOriginInViewport

; 504  : 	renderer->AdjustOriginInViewport( h, v );

	push	ecx
	movss	xmm0, DWORD PTR _v$[ebp]
	movss	DWORD PTR [esp], xmm0
	push	ecx
	movss	xmm0, DWORD PTR _h$[ebp]
	movss	DWORD PTR [esp], xmm0
	mov	ecx, DWORD PTR _renderer$[ebp]
	call	?AdjustOriginInViewport@VirtualDisplay@@QAEXMM@Z ; VirtualDisplay::AdjustOriginInViewport

; 505  : 
; 506  : 	// Transform all our verts
; 507  : 	mlSinCos( &trig, platform->Yaw() );

	mov	ecx, DWORD PTR _platform$[ebp]
	call	?Yaw@VuEntity@@QBEMXZ			; VuEntity::Yaw
	push	ecx
	fstp	DWORD PTR [esp]
	lea	edx, DWORD PTR _trig$[ebp]
	push	edx
	call	?mlSinCos@@YAXPAUmlTrig@@M@Z		; mlSinCos
	add	esp, 8

; 508  : 	trig.sin *= AC_SIZE;

	movss	xmm0, DWORD PTR _trig$[ebp]
	mulss	xmm0, DWORD PTR _AC_SIZE
	movss	DWORD PTR _trig$[ebp], xmm0

; 509  : 	trig.cos *= AC_SIZE;

	movss	xmm0, DWORD PTR _trig$[ebp+4]
	mulss	xmm0, DWORD PTR _AC_SIZE
	movss	DWORD PTR _trig$[ebp+4], xmm0

; 510  : 	for (int i=numPoints-1; i>=0; i--) {

	mov	DWORD PTR _i$1[ebp], 6
	jmp	SHORT $LN3@DrawCurren
$LN2@DrawCurren:
	mov	eax, DWORD PTR _i$1[ebp]
	sub	eax, 1
	mov	DWORD PTR _i$1[ebp], eax
$LN3@DrawCurren:
	cmp	DWORD PTR _i$1[ebp], 0
	jl	SHORT $LN1@DrawCurren

; 511  : 		x[i] = ( pos[i].x * trig.cos + pos[i].y * trig.sin);

	mov	ecx, DWORD PTR _i$1[ebp]
	movss	xmm0, DWORD PTR ?pos@?1??DrawCurrentPosition@CPKneeView@@AAEXPAVImageBuffer@@PAVRender2D@@PAVSimVehicleClass@@@Z@4QBU<unnamed-type-pos>@?1??12@AAEX012@Z@B[ecx*8]
	mulss	xmm0, DWORD PTR _trig$[ebp+4]
	mov	edx, DWORD PTR _i$1[ebp]
	movss	xmm1, DWORD PTR ?pos@?1??DrawCurrentPosition@CPKneeView@@AAEXPAVImageBuffer@@PAVRender2D@@PAVSimVehicleClass@@@Z@4QBU<unnamed-type-pos>@?1??12@AAEX012@Z@B[edx*8+4]
	mulss	xmm1, DWORD PTR _trig$[ebp]
	addss	xmm0, xmm1
	mov	eax, DWORD PTR _i$1[ebp]
	movss	DWORD PTR _x$[ebp+eax*4], xmm0

; 512  : 		y[i] = (-pos[i].x * trig.sin + pos[i].y * trig.cos) * aspect;

	mov	ecx, DWORD PTR _i$1[ebp]
	movss	xmm0, DWORD PTR ?pos@?1??DrawCurrentPosition@CPKneeView@@AAEXPAVImageBuffer@@PAVRender2D@@PAVSimVehicleClass@@@Z@4QBU<unnamed-type-pos>@?1??12@AAEX012@Z@B[ecx*8]
	xorps	xmm0, DWORD PTR __xmm@80000000800000008000000080000000
	mulss	xmm0, DWORD PTR _trig$[ebp]
	mov	edx, DWORD PTR _i$1[ebp]
	movss	xmm1, DWORD PTR ?pos@?1??DrawCurrentPosition@CPKneeView@@AAEXPAVImageBuffer@@PAVRender2D@@PAVSimVehicleClass@@@Z@4QBU<unnamed-type-pos>@?1??12@AAEX012@Z@B[edx*8+4]
	mulss	xmm1, DWORD PTR _trig$[ebp+4]
	addss	xmm0, xmm1
	mulss	xmm0, DWORD PTR _aspect$[ebp]
	mov	eax, DWORD PTR _i$1[ebp]
	movss	DWORD PTR _y$[ebp+eax*4], xmm0

; 513  : 	}

	jmp	SHORT $LN2@DrawCurren
$LN1@DrawCurren:

; 514  : 
; 515  : 	// Draw the aircraft symbol
; 516  : 	DWORD acColor = OTWDriver.pCockpitManager->ApplyLighting(AC_COLOR, false);

	push	0
	push	-16711681				; ff00ffffH
	mov	ecx, DWORD PTR ?OTWDriver@@3VOTWDriverClass@@A+33684
	call	?ApplyLighting@CockpitManager@@QAEKK_N@Z ; CockpitManager::ApplyLighting
	mov	DWORD PTR _acColor$[ebp], eax

; 517  : 	renderer->SetColor( acColor );

	mov	ecx, DWORD PTR _acColor$[ebp]
	push	ecx
	mov	edx, DWORD PTR _renderer$[ebp]
	mov	eax, DWORD PTR [edx]
	mov	ecx, DWORD PTR _renderer$[ebp]
	mov	edx, DWORD PTR [eax+92]
	call	edx

; 518  : 	renderer->Line( x[0], y[0], x[1], y[1] );				// Body

	mov	eax, 4
	shl	eax, 0
	push	ecx
	movss	xmm0, DWORD PTR _y$[ebp+eax]
	movss	DWORD PTR [esp], xmm0
	mov	ecx, 4
	shl	ecx, 0
	push	ecx
	movss	xmm0, DWORD PTR _x$[ebp+ecx]
	movss	DWORD PTR [esp], xmm0
	mov	edx, 4
	imul	edx, 0
	push	ecx
	movss	xmm0, DWORD PTR _y$[ebp+edx]
	movss	DWORD PTR [esp], xmm0
	mov	eax, 4
	imul	eax, 0
	push	ecx
	movss	xmm0, DWORD PTR _x$[ebp+eax]
	movss	DWORD PTR [esp], xmm0
	mov	ecx, DWORD PTR _renderer$[ebp]
	mov	edx, DWORD PTR [ecx]
	mov	ecx, DWORD PTR _renderer$[ebp]
	mov	eax, DWORD PTR [edx+32]
	call	eax

; 519  : 	renderer->Line( x[5], y[5], x[6], y[6] );				// Tail

	mov	ecx, 4
	imul	ecx, 6
	push	ecx
	movss	xmm0, DWORD PTR _y$[ebp+ecx]
	movss	DWORD PTR [esp], xmm0
	mov	edx, 4
	imul	edx, 6
	push	ecx
	movss	xmm0, DWORD PTR _x$[ebp+edx]
	movss	DWORD PTR [esp], xmm0
	mov	eax, 4
	imul	eax, 5
	push	ecx
	movss	xmm0, DWORD PTR _y$[ebp+eax]
	movss	DWORD PTR [esp], xmm0
	mov	ecx, 4
	imul	ecx, 5
	push	ecx
	movss	xmm0, DWORD PTR _x$[ebp+ecx]
	movss	DWORD PTR [esp], xmm0
	mov	edx, DWORD PTR _renderer$[ebp]
	mov	eax, DWORD PTR [edx]
	mov	ecx, DWORD PTR _renderer$[ebp]
	mov	edx, DWORD PTR [eax+32]
	call	edx

; 520  : 	renderer->Tri(  x[2], y[2], x[3], y[3], x[4], y[4] );	// Wing

	mov	eax, 4
	shl	eax, 2
	push	ecx
	movss	xmm0, DWORD PTR _y$[ebp+eax]
	movss	DWORD PTR [esp], xmm0
	mov	ecx, 4
	shl	ecx, 2
	push	ecx
	movss	xmm0, DWORD PTR _x$[ebp+ecx]
	movss	DWORD PTR [esp], xmm0
	mov	edx, 4
	imul	edx, 3
	push	ecx
	movss	xmm0, DWORD PTR _y$[ebp+edx]
	movss	DWORD PTR [esp], xmm0
	mov	eax, 4
	imul	eax, 3
	push	ecx
	movss	xmm0, DWORD PTR _x$[ebp+eax]
	movss	DWORD PTR [esp], xmm0
	mov	ecx, 4
	shl	ecx, 1
	push	ecx
	movss	xmm0, DWORD PTR _y$[ebp+ecx]
	movss	DWORD PTR [esp], xmm0
	mov	edx, 4
	shl	edx, 1
	push	ecx
	movss	xmm0, DWORD PTR _x$[ebp+edx]
	movss	DWORD PTR [esp], xmm0
	mov	eax, DWORD PTR _renderer$[ebp]
	mov	edx, DWORD PTR [eax]
	mov	ecx, DWORD PTR _renderer$[ebp]
	mov	eax, DWORD PTR [edx+36]
	call	eax

; 521  : 
; 522  : 	// Draw a ring around the aircraft symbol to highlight it
; 523  : 	DWORD rColor = OTWDriver.pCockpitManager->ApplyLighting(0xFF00FF00, false);

	push	0
	push	-16711936				; ff00ff00H
	mov	ecx, DWORD PTR ?OTWDriver@@3VOTWDriverClass@@A+33684
	call	?ApplyLighting@CockpitManager@@QAEKK_N@Z ; CockpitManager::ApplyLighting
	mov	DWORD PTR _rColor$[ebp], eax

; 524  : 	renderer->SetColor( rColor );

	mov	ecx, DWORD PTR _rColor$[ebp]
	push	ecx
	mov	edx, DWORD PTR _renderer$[ebp]
	mov	eax, DWORD PTR [edx]
	mov	ecx, DWORD PTR _renderer$[ebp]
	mov	edx, DWORD PTR [eax+92]
	call	edx

; 525  : 	renderer->Circle( 0.0f, 0.0f, 1.5f*AC_SIZE );

	movss	xmm0, DWORD PTR __real@3fc00000
	mulss	xmm0, DWORD PTR _AC_SIZE
	push	ecx
	movss	DWORD PTR [esp], xmm0
	push	ecx
	movss	xmm0, DWORD PTR __real@00000000
	movss	DWORD PTR [esp], xmm0
	push	ecx
	movss	xmm0, DWORD PTR __real@00000000
	movss	DWORD PTR [esp], xmm0
	mov	eax, DWORD PTR _renderer$[ebp]
	mov	edx, DWORD PTR [eax]
	mov	ecx, DWORD PTR _renderer$[ebp]
	mov	eax, DWORD PTR [edx+48]
	call	eax
$LN12@DrawCurren:

; 526  : }

	mov	ecx, DWORD PTR __$ArrayPad$[ebp]
	xor	ecx, ebp
	call	@__security_check_cookie@4
	mov	esp, ebp
	pop	ebp
	ret	12					; 0000000cH
?DrawCurrentPosition@CPKneeView@@AAEXPAVImageBuffer@@PAVRender2D@@PAVSimVehicleClass@@@Z ENDP ; CPKneeView::DrawCurrentPosition
_TEXT	ENDS
; Function compile flags: /Odtp
; File c:\users\zhitao li\documents\visual studio 2012\projects\freefalcon\sim\cockpit\cpkneeview.cpp
_TEXT	SEGMENT
_color$ = -32						; size = 4
_isFirst$ = -28						; size = 4
_y2$ = -24						; size = 4
_x2$ = -20						; size = 4
_wp$ = -16						; size = 4
_x1$ = -12						; size = 4
_y1$ = -8						; size = 4
_this$ = -4						; size = 4
_platform$ = 8						; size = 4
?DrawWaypoints@CPKneeView@@AAEXPAVSimVehicleClass@@@Z PROC ; CPKneeView::DrawWaypoints
; _this$ = ecx

; 404  : {

	push	ebp
	mov	ebp, esp
	sub	esp, 32					; 00000020H
	mov	DWORD PTR _this$[ebp], ecx

; 405  : 	WayPointClass*	wp=NULL;

	mov	DWORD PTR _wp$[ebp], 0

; 406  : 	BOOL			isFirst=TRUE;

	mov	DWORD PTR _isFirst$[ebp], 1

; 407  : 	float			x1=0.0F, y1=0.0F, x2=0.0F, y2=0.0F;

	movss	xmm0, DWORD PTR __real@00000000
	movss	DWORD PTR _x1$[ebp], xmm0
	movss	xmm0, DWORD PTR __real@00000000
	movss	DWORD PTR _y1$[ebp], xmm0
	movss	xmm0, DWORD PTR __real@00000000
	movss	DWORD PTR _x2$[ebp], xmm0
	movss	xmm0, DWORD PTR __real@00000000
	movss	DWORD PTR _y2$[ebp], xmm0

; 408  : 
; 409  : 
; 410  : 	DWORD color =  OTWDriver.pCockpitManager->ApplyLighting(WP_COLOR, false);

	push	0
	push	-16776961				; ff0000ffH
	mov	ecx, DWORD PTR ?OTWDriver@@3VOTWDriverClass@@A+33684
	call	?ApplyLighting@CockpitManager@@QAEKK_N@Z ; CockpitManager::ApplyLighting
	mov	DWORD PTR _color$[ebp], eax

; 411  : 	//OTWDriver.renderer->SetColor(color);
; 412  : 	SetColor(color);

	mov	eax, DWORD PTR _color$[ebp]
	push	eax
	mov	ecx, DWORD PTR _this$[ebp]
	add	ecx, 144				; 00000090H
	mov	edx, DWORD PTR _this$[ebp]
	mov	eax, DWORD PTR [edx+144]
	mov	edx, DWORD PTR [eax+92]
	call	edx

; 413  : 
; 414  : 	// Draw in the waypoints
; 415  : 	for (wp=platform->waypoint; wp; wp=wp->GetNextWP()) {

	mov	eax, DWORD PTR _platform$[ebp]
	mov	ecx, DWORD PTR [eax+732]
	mov	DWORD PTR _wp$[ebp], ecx
	jmp	SHORT $LN5@DrawWaypoi
$LN4@DrawWaypoi:
	mov	ecx, DWORD PTR _wp$[ebp]
	call	?GetNextWP@WayPointClass@@QAEPAV1@XZ	; WayPointClass::GetNextWP
	mov	DWORD PTR _wp$[ebp], eax
$LN5@DrawWaypoi:
	cmp	DWORD PTR _wp$[ebp], 0
	je	$LN3@DrawWaypoi

; 416  : 
; 417  : 		// Get the display coordinates of this waypoint
; 418  : 		MapWaypointToDisplay(wp, &x1, &y1);

	lea	edx, DWORD PTR _y1$[ebp]
	push	edx
	lea	eax, DWORD PTR _x1$[ebp]
	push	eax
	mov	ecx, DWORD PTR _wp$[ebp]
	push	ecx
	mov	ecx, DWORD PTR _this$[ebp]
	call	?MapWaypointToDisplay@CPKneeView@@AAEXPAVWayPointClass@@PAM1@Z ; CPKneeView::MapWaypointToDisplay

; 419  : 		
; 420  : 		// Draw the waypoint marker and the connecting line if this isn't the first one
; 421  : 		Circle( x1, y1, WP_SIZE );

	push	ecx
	movss	xmm0, DWORD PTR _WP_SIZE
	movss	DWORD PTR [esp], xmm0
	push	ecx
	movss	xmm0, DWORD PTR _y1$[ebp]
	movss	DWORD PTR [esp], xmm0
	push	ecx
	movss	xmm0, DWORD PTR _x1$[ebp]
	movss	DWORD PTR [esp], xmm0
	mov	ecx, DWORD PTR _this$[ebp]
	add	ecx, 144				; 00000090H
	mov	edx, DWORD PTR _this$[ebp]
	mov	eax, DWORD PTR [edx+144]
	mov	edx, DWORD PTR [eax+48]
	call	edx

; 422  : 		if (!isFirst) {

	cmp	DWORD PTR _isFirst$[ebp], 0
	jne	SHORT $LN2@DrawWaypoi

; 423  : 			Line( x1, y1, x2, y2 );

	push	ecx
	movss	xmm0, DWORD PTR _y2$[ebp]
	movss	DWORD PTR [esp], xmm0
	push	ecx
	movss	xmm0, DWORD PTR _x2$[ebp]
	movss	DWORD PTR [esp], xmm0
	push	ecx
	movss	xmm0, DWORD PTR _y1$[ebp]
	movss	DWORD PTR [esp], xmm0
	push	ecx
	movss	xmm0, DWORD PTR _x1$[ebp]
	movss	DWORD PTR [esp], xmm0
	mov	ecx, DWORD PTR _this$[ebp]
	add	ecx, 144				; 00000090H
	mov	eax, DWORD PTR _this$[ebp]
	mov	edx, DWORD PTR [eax+144]
	mov	eax, DWORD PTR [edx+32]
	call	eax
$LN2@DrawWaypoi:

; 424  : 		}
; 425  : 
; 426  : 		// Step to the next waypoint
; 427  : 		x2	= x1;

	movss	xmm0, DWORD PTR _x1$[ebp]
	movss	DWORD PTR _x2$[ebp], xmm0

; 428  : 		y2	= y1;

	movss	xmm0, DWORD PTR _y1$[ebp]
	movss	DWORD PTR _y2$[ebp], xmm0

; 429  : 		isFirst = FALSE;

	mov	DWORD PTR _isFirst$[ebp], 0

; 430  : 	}

	jmp	$LN4@DrawWaypoi
$LN3@DrawWaypoi:

; 431  : 
; 432  : 	// Draw the override waypoint marker (if any)
; 433  : 	ShiAssert( platform->GetCampaignObject() );
; 434  : 	ShiAssert( platform->GetCampaignObject()->IsFlight() );
; 435  : 	wp = ((FlightClass*)platform->GetCampaignObject())->GetOverrideWP();

	mov	ecx, DWORD PTR _platform$[ebp]
	call	?GetCampaignObject@SimBaseClass@@QAEPAVCampBaseClass@@XZ ; SimBaseClass::GetCampaignObject
	mov	ecx, eax
	call	?GetOverrideWP@FlightClass@@QAEPAVWayPointClass@@XZ ; FlightClass::GetOverrideWP
	mov	DWORD PTR _wp$[ebp], eax

; 436  : 	if (wp) {

	cmp	DWORD PTR _wp$[ebp], 0
	je	$LN1@DrawWaypoi

; 437  : 
; 438  : 		// Get the display coordinates of this waypoint
; 439  : 		MapWaypointToDisplay(wp, &x1, &y1);

	lea	ecx, DWORD PTR _y1$[ebp]
	push	ecx
	lea	edx, DWORD PTR _x1$[ebp]
	push	edx
	mov	eax, DWORD PTR _wp$[ebp]
	push	eax
	mov	ecx, DWORD PTR _this$[ebp]
	call	?MapWaypointToDisplay@CPKneeView@@AAEXPAVWayPointClass@@PAM1@Z ; CPKneeView::MapWaypointToDisplay

; 440  : 		x2 = x1+ORIDE_WP_SIZE;

	movss	xmm0, DWORD PTR _x1$[ebp]
	addss	xmm0, DWORD PTR _ORIDE_WP_SIZE
	movss	DWORD PTR _x2$[ebp], xmm0

; 441  : 		y2 = y1+ORIDE_WP_SIZE;

	movss	xmm0, DWORD PTR _y1$[ebp]
	addss	xmm0, DWORD PTR _ORIDE_WP_SIZE
	movss	DWORD PTR _y2$[ebp], xmm0

; 442  : 		x1 = x1-ORIDE_WP_SIZE;

	movss	xmm0, DWORD PTR _x1$[ebp]
	subss	xmm0, DWORD PTR _ORIDE_WP_SIZE
	movss	DWORD PTR _x1$[ebp], xmm0

; 443  : 		y1 = y1-ORIDE_WP_SIZE;

	movss	xmm0, DWORD PTR _y1$[ebp]
	subss	xmm0, DWORD PTR _ORIDE_WP_SIZE
	movss	DWORD PTR _y1$[ebp], xmm0

; 444  : 		
; 445  : 		// Draw the waypoint marker
; 446  : 		Line( x1, y1, x2, y1 );

	push	ecx
	movss	xmm0, DWORD PTR _y1$[ebp]
	movss	DWORD PTR [esp], xmm0
	push	ecx
	movss	xmm0, DWORD PTR _x2$[ebp]
	movss	DWORD PTR [esp], xmm0
	push	ecx
	movss	xmm0, DWORD PTR _y1$[ebp]
	movss	DWORD PTR [esp], xmm0
	push	ecx
	movss	xmm0, DWORD PTR _x1$[ebp]
	movss	DWORD PTR [esp], xmm0
	mov	ecx, DWORD PTR _this$[ebp]
	add	ecx, 144				; 00000090H
	mov	edx, DWORD PTR _this$[ebp]
	mov	eax, DWORD PTR [edx+144]
	mov	edx, DWORD PTR [eax+32]
	call	edx

; 447  : 		Line( x2, y1, x2, y2 );

	push	ecx
	movss	xmm0, DWORD PTR _y2$[ebp]
	movss	DWORD PTR [esp], xmm0
	push	ecx
	movss	xmm0, DWORD PTR _x2$[ebp]
	movss	DWORD PTR [esp], xmm0
	push	ecx
	movss	xmm0, DWORD PTR _y1$[ebp]
	movss	DWORD PTR [esp], xmm0
	push	ecx
	movss	xmm0, DWORD PTR _x2$[ebp]
	movss	DWORD PTR [esp], xmm0
	mov	ecx, DWORD PTR _this$[ebp]
	add	ecx, 144				; 00000090H
	mov	eax, DWORD PTR _this$[ebp]
	mov	edx, DWORD PTR [eax+144]
	mov	eax, DWORD PTR [edx+32]
	call	eax

; 448  : 		Line( x2, y2, x1, y2 );

	push	ecx
	movss	xmm0, DWORD PTR _y2$[ebp]
	movss	DWORD PTR [esp], xmm0
	push	ecx
	movss	xmm0, DWORD PTR _x1$[ebp]
	movss	DWORD PTR [esp], xmm0
	push	ecx
	movss	xmm0, DWORD PTR _y2$[ebp]
	movss	DWORD PTR [esp], xmm0
	push	ecx
	movss	xmm0, DWORD PTR _x2$[ebp]
	movss	DWORD PTR [esp], xmm0
	mov	ecx, DWORD PTR _this$[ebp]
	add	ecx, 144				; 00000090H
	mov	edx, DWORD PTR _this$[ebp]
	mov	eax, DWORD PTR [edx+144]
	mov	edx, DWORD PTR [eax+32]
	call	edx

; 449  : 		Line( x1, y2, x1, y1 );

	push	ecx
	movss	xmm0, DWORD PTR _y1$[ebp]
	movss	DWORD PTR [esp], xmm0
	push	ecx
	movss	xmm0, DWORD PTR _x1$[ebp]
	movss	DWORD PTR [esp], xmm0
	push	ecx
	movss	xmm0, DWORD PTR _y2$[ebp]
	movss	DWORD PTR [esp], xmm0
	push	ecx
	movss	xmm0, DWORD PTR _x1$[ebp]
	movss	DWORD PTR [esp], xmm0
	mov	ecx, DWORD PTR _this$[ebp]
	add	ecx, 144				; 00000090H
	mov	eax, DWORD PTR _this$[ebp]
	mov	edx, DWORD PTR [eax+144]
	mov	eax, DWORD PTR [edx+32]
	call	eax
$LN1@DrawWaypoi:

; 450  : 	}
; 451  : }

	mov	esp, ebp
	pop	ebp
	ret	4
?DrawWaypoints@CPKneeView@@AAEXPAVSimVehicleClass@@@Z ENDP ; CPKneeView::DrawWaypoints
_TEXT	ENDS
; Function compile flags: /Odtp
; File c:\users\zhitao li\documents\visual studio 2012\projects\freefalcon\sim\cockpit\cpkneeview.cpp
_TEXT	SEGMENT
_dstWidth$ = -1120					; size = 4
_dstHeight$ = -1116					; size = 4
_ptr$ = -1112						; size = 4
_pixelPointer$1 = -1108					; size = 4
tv230 = -1104						; size = 4
_rowFirstPointer$2 = -1100				; size = 4
_h$ = -1096						; size = 4
_inColor$ = -1092					; size = 4
_w$ = -1088						; size = 4
_srcRowInitOffset$ = -1084				; size = 4
_srcColInitOffset$ = -1080				; size = 4
_mapFirstPointer$ = -1076				; size = 4
_dst$3 = -1072						; size = 4
_mapImageFile$ = -1068					; size = 4
_dstCol$4 = -1064					; size = 4
_dstRow$5 = -1060					; size = 4
_this$ = -1056						; size = 4
_outColor$ = -1052					; size = 1024
_iLight$ = -28						; size = 12
_eLight$ = -16						; size = 12
__$ArrayPad$ = -4					; size = 4
?DrawMap@CPKneeView@@AAEXXZ PROC			; CPKneeView::DrawMap
; _this$ = ecx

; 336  : void CPKneeView::DrawMap(){

	push	ebp
	mov	ebp, esp
	sub	esp, 1120				; 00000460H
	mov	eax, DWORD PTR ___security_cookie
	xor	eax, ebp
	mov	DWORD PTR __$ArrayPad$[ebp], eax
	mov	DWORD PTR _this$[ebp], ecx

; 337  : 	//Pu239
; 338  :     //pmvstrm
; 339  : 	//bool m_imageloaded = false;
; 340  : 	//ShiAssert(m_imageloaded);
; 341  : 	if (mpKneeBoard == NULL){

	mov	eax, DWORD PTR _this$[ebp]
	cmp	DWORD PTR [eax+262984], 0
	jne	SHORT $LN10@DrawMap

; 342  : 		return;

	jmp	$LN11@DrawMap
$LN10@DrawMap:

; 343  : 	}
; 344  : 
; 345  : 	//light factors
; 346  : 	float eLight[3], iLight[3]; //iLight is not used here...
; 347  : 	OTWDriver.pCockpitManager->ComputeLightFactors(eLight, iLight);

	lea	ecx, DWORD PTR _iLight$[ebp]
	push	ecx
	lea	edx, DWORD PTR _eLight$[ebp]
	push	edx
	mov	ecx, DWORD PTR ?OTWDriver@@3VOTWDriverClass@@A+33684
	call	?ComputeLightFactors@CockpitManager@@QAEXPAM0@Z ; CockpitManager::ComputeLightFactors

; 348  : 
; 349  : 	//we load map palette and apply lighting to it
; 350  : 	CImageFileMemory &mapImageFile = mpKneeBoard->GetImageFile();

	mov	eax, DWORD PTR _this$[ebp]
	mov	ecx, DWORD PTR [eax+262984]
	call	?GetImageFile@KneeBoard@@QAEAAVCImageFileMemory@@XZ ; KneeBoard::GetImageFile
	mov	DWORD PTR _mapImageFile$[ebp], eax

; 351  : 	DWORD *inColor = mapImageFile.image.palette;

	mov	ecx, DWORD PTR _mapImageFile$[ebp]
	mov	edx, DWORD PTR [ecx+40]
	mov	DWORD PTR _inColor$[ebp], edx

; 352  : 	DWORD outColor[256];
; 353  : 	ApplyLightingToPalette(inColor, outColor, eLight[0], eLight[1], eLight[2]);

	mov	eax, 4
	shl	eax, 1
	push	ecx
	movss	xmm0, DWORD PTR _eLight$[ebp+eax]
	movss	DWORD PTR [esp], xmm0
	mov	ecx, 4
	shl	ecx, 0
	push	ecx
	movss	xmm0, DWORD PTR _eLight$[ebp+ecx]
	movss	DWORD PTR [esp], xmm0
	mov	edx, 4
	imul	edx, 0
	push	ecx
	movss	xmm0, DWORD PTR _eLight$[ebp+edx]
	movss	DWORD PTR [esp], xmm0
	lea	eax, DWORD PTR _outColor$[ebp]
	push	eax
	mov	ecx, DWORD PTR _inColor$[ebp]
	push	ecx
	call	?ApplyLightingToPalette@@YAXPAK0MMM@Z	; ApplyLightingToPalette
	add	esp, 20					; 00000014H

; 354  : 
; 355  : 	//now we apply lighting to palette and copy only the portion we want from the map
; 356  : 	int w = mapImageFile.image.width;

	mov	edx, DWORD PTR _mapImageFile$[ebp]
	mov	eax, DWORD PTR [edx+32]
	mov	DWORD PTR _w$[ebp], eax

; 357  : 	int h = mapImageFile.image.height;

	mov	ecx, DWORD PTR _mapImageFile$[ebp]
	mov	edx, DWORD PTR [ecx+36]
	mov	DWORD PTR _h$[ebp], edx

; 358  : 
; 359  : 	// Decide where to start in the source image
; 360  : 	int srcRowInitOffset	= (int)((TheMap.NorthEdge() - (wsVsize + wsVcenter)) * FT_TO_KM / m_pixel2nmX);

	mov	ecx, OFFSET ?TheMap@@3VTMap@@A		; TheMap
	call	?NorthEdge@TMap@@QAEMXZ			; TMap::NorthEdge
	fstp	DWORD PTR tv230[ebp]
	movss	xmm0, DWORD PTR tv230[ebp]
	mov	eax, DWORD PTR _this$[ebp]
	mov	ecx, DWORD PTR _this$[ebp]
	movss	xmm1, DWORD PTR [eax+263036]
	addss	xmm1, DWORD PTR [ecx+263024]
	subss	xmm0, xmm1
	mulss	xmm0, DWORD PTR __real@399fcd90
	mov	edx, DWORD PTR _this$[ebp]
	divss	xmm0, DWORD PTR [edx+263044]
	cvttss2si eax, xmm0
	mov	DWORD PTR _srcRowInitOffset$[ebp], eax

; 361  : 	int srcColInitOffset	= (int)((wsHcenter - wsHsize)                        * FT_TO_KM / m_pixel2nmY);

	mov	ecx, DWORD PTR _this$[ebp]
	mov	edx, DWORD PTR _this$[ebp]
	movss	xmm0, DWORD PTR [ecx+263028]
	subss	xmm0, DWORD PTR [edx+263032]
	mulss	xmm0, DWORD PTR __real@399fcd90
	mov	eax, DWORD PTR _this$[ebp]
	divss	xmm0, DWORD PTR [eax+263048]
	cvttss2si ecx, xmm0
	mov	DWORD PTR _srcColInitOffset$[ebp], ecx

; 362  : 
; 363  : 	// Lock the back buffer
; 364  : 	DWORD *ptr = (DWORD*)mapImageBuffer->Lock();

	push	1
	push	0
	mov	edx, DWORD PTR _this$[ebp]
	mov	ecx, DWORD PTR [edx+263020]
	call	?Lock@ImageBuffer@@QAEPAX_N0@Z		; ImageBuffer::Lock
	mov	DWORD PTR _ptr$[ebp], eax

; 365  : 
; 366  : 	//here we get a pointer to the initial position of the map(0,0)
; 367  : 	UInt8 *mapFirstPointer = mapImageFile.image.image;

	mov	eax, DWORD PTR _mapImageFile$[ebp]
	mov	ecx, DWORD PTR [eax+44]
	mov	DWORD PTR _mapFirstPointer$[ebp], ecx

; 368  : 	mapFirstPointer += 0;//srcRowInitOffset*w + srcColInitOffset;

	mov	edx, DWORD PTR _mapFirstPointer$[ebp]
	mov	DWORD PTR _mapFirstPointer$[ebp], edx

; 369  : 
; 370  : 	//some auxiliary variables
; 371  : 	int dstWidth = dstRect.right - dstRect.left;

	mov	eax, DWORD PTR _this$[ebp]
	mov	ecx, DWORD PTR _this$[ebp]
	mov	edx, DWORD PTR [eax+263012]
	sub	edx, DWORD PTR [ecx+263004]
	mov	DWORD PTR _dstWidth$[ebp], edx

; 372  : 	int dstHeight = dstRect.bottom - dstRect.top;

	mov	eax, DWORD PTR _this$[ebp]
	mov	ecx, DWORD PTR _this$[ebp]
	mov	edx, DWORD PTR [eax+263016]
	sub	edx, DWORD PTR [ecx+263008]
	mov	DWORD PTR _dstHeight$[ebp], edx

; 373  : 
; 374  : 	// Copy from map to kneeboard
; 375  : 	for (int dstRow = 0; dstRow < (dstRect.bottom - dstRect.top); dstRow++) {

	mov	DWORD PTR _dstRow$5[ebp], 0
	jmp	SHORT $LN9@DrawMap
$LN8@DrawMap:
	mov	eax, DWORD PTR _dstRow$5[ebp]
	add	eax, 1
	mov	DWORD PTR _dstRow$5[ebp], eax
$LN9@DrawMap:
	mov	ecx, DWORD PTR _this$[ebp]
	mov	edx, DWORD PTR _this$[ebp]
	mov	eax, DWORD PTR [ecx+263016]
	sub	eax, DWORD PTR [edx+263008]
	cmp	DWORD PTR _dstRow$5[ebp], eax
	jge	$LN7@DrawMap

; 376  : 		//find the first pointer of that row in the map
; 377  : 		UInt8 *rowFirstPointer = mapFirstPointer + (dstRow + srcRowInitOffset)*w + srcColInitOffset;

	mov	ecx, DWORD PTR _dstRow$5[ebp]
	add	ecx, DWORD PTR _srcRowInitOffset$[ebp]
	imul	ecx, DWORD PTR _w$[ebp]
	add	ecx, DWORD PTR _mapFirstPointer$[ebp]
	add	ecx, DWORD PTR _srcColInitOffset$[ebp]
	mov	DWORD PTR _rowFirstPointer$2[ebp], ecx

; 378  : 		//first destination pointer
; 379  : 		DWORD *dst = (DWORD*)mapImageBuffer->Pixel( ptr, dstRow, 0);

	push	0
	mov	edx, DWORD PTR _dstRow$5[ebp]
	push	edx
	mov	eax, DWORD PTR _ptr$[ebp]
	push	eax
	mov	ecx, DWORD PTR _this$[ebp]
	mov	ecx, DWORD PTR [ecx+263020]
	call	?Pixel@ImageBuffer@@QAEPAXPAXHH@Z	; ImageBuffer::Pixel
	mov	DWORD PTR _dst$3[ebp], eax

; 380  : 
; 381  : 		for (int dstCol = 0; dstCol < (dstRect.right - dstRect.left); dstCol++) {

	mov	DWORD PTR _dstCol$4[ebp], 0
	jmp	SHORT $LN6@DrawMap
$LN5@DrawMap:
	mov	edx, DWORD PTR _dstCol$4[ebp]
	add	edx, 1
	mov	DWORD PTR _dstCol$4[ebp], edx
$LN6@DrawMap:
	mov	eax, DWORD PTR _this$[ebp]
	mov	ecx, DWORD PTR _this$[ebp]
	mov	edx, DWORD PTR [eax+263012]
	sub	edx, DWORD PTR [ecx+263004]
	cmp	DWORD PTR _dstCol$4[ebp], edx
	jge	$LN4@DrawMap

; 382  : 			//this points to the pixel
; 383  : 			UInt8 *pixelPointer = rowFirstPointer + dstCol;

	mov	eax, DWORD PTR _rowFirstPointer$2[ebp]
	add	eax, DWORD PTR _dstCol$4[ebp]
	mov	DWORD PTR _pixelPointer$1[ebp], eax

; 384  : 			
; 385  : 			if ( ((srcRowInitOffset + dstRow) >= h) || ((srcRowInitOffset + dstRow) < 0) ||
; 386  : 				((srcColInitOffset + dstCol) >= w) || ((srcColInitOffset + dstCol) < 0)){

	mov	ecx, DWORD PTR _srcRowInitOffset$[ebp]
	add	ecx, DWORD PTR _dstRow$5[ebp]
	cmp	ecx, DWORD PTR _h$[ebp]
	jge	SHORT $LN2@DrawMap
	mov	edx, DWORD PTR _srcRowInitOffset$[ebp]
	add	edx, DWORD PTR _dstRow$5[ebp]
	js	SHORT $LN2@DrawMap
	mov	eax, DWORD PTR _srcColInitOffset$[ebp]
	add	eax, DWORD PTR _dstCol$4[ebp]
	cmp	eax, DWORD PTR _w$[ebp]
	jge	SHORT $LN2@DrawMap
	mov	ecx, DWORD PTR _srcColInitOffset$[ebp]
	add	ecx, DWORD PTR _dstCol$4[ebp]
	jns	SHORT $LN3@DrawMap
$LN2@DrawMap:

; 387  : 				//we use a transparent pixel...
; 388  : 				dst[0] = 0xff000000;

	mov	edx, 4
	imul	edx, 0
	mov	eax, DWORD PTR _dst$3[ebp]
	mov	DWORD PTR [eax+edx], -16777216		; ff000000H

; 389  : 			}
; 390  : 			else{

	jmp	SHORT $LN1@DrawMap
$LN3@DrawMap:

; 391  : 				//this is destination pixel
; 392  : 				dst[0] = InvertRGBOrder(outColor[*pixelPointer]);

	mov	ecx, DWORD PTR _pixelPointer$1[ebp]
	movzx	edx, BYTE PTR [ecx]
	mov	eax, DWORD PTR _outColor$[ebp+edx*4]
	push	eax
	call	?InvertRGBOrder@@YAKK@Z			; InvertRGBOrder
	add	esp, 4
	mov	ecx, 4
	imul	ecx, 0
	mov	edx, DWORD PTR _dst$3[ebp]
	mov	DWORD PTR [edx+ecx], eax
$LN1@DrawMap:

; 393  : 			}
; 394  : 			dst++;

	mov	eax, DWORD PTR _dst$3[ebp]
	add	eax, 4
	mov	DWORD PTR _dst$3[ebp], eax

; 395  : 		}

	jmp	$LN5@DrawMap
$LN4@DrawMap:

; 396  : 	}

	jmp	$LN8@DrawMap
$LN7@DrawMap:

; 397  : 
; 398  : 	// Release the source image and unlock the target surface
; 399  : 	mapImageBuffer->Unlock();

	mov	ecx, DWORD PTR _this$[ebp]
	mov	ecx, DWORD PTR [ecx+263020]
	call	?Unlock@ImageBuffer@@QAEXXZ		; ImageBuffer::Unlock
$LN11@DrawMap:

; 400  : 	return;
; 401  : }

	mov	ecx, DWORD PTR __$ArrayPad$[ebp]
	xor	ecx, ebp
	call	@__security_check_cookie@4
	mov	esp, ebp
	pop	ebp
	ret	0
?DrawMap@CPKneeView@@AAEXXZ ENDP			; CPKneeView::DrawMap
_TEXT	ENDS
; Function compile flags: /Odtp
; File c:\users\zhitao li\documents\visual studio 2012\projects\freefalcon\sim\cockpit\cpkneeview.cpp
_TEXT	SEGMENT
tv620 = -244						; size = 4
tv627 = -240						; size = 4
tv616 = -236						; size = 4
tv496 = -232						; size = 4
tv645 = -228						; size = 4
tv511 = -224						; size = 4
tv607 = -220						; size = 4
tv629 = -216						; size = 4
tv643 = -212						; size = 4
tv515 = -208						; size = 4
tv603 = -204						; size = 4
tv633 = -200						; size = 4
tv594 = -196						; size = 4
tv492 = -192						; size = 4
tv590 = -188						; size = 4
_z$ = -184						; size = 4
tv641 = -180						; size = 4
tv399 = -176						; size = 4
tv581 = -172						; size = 4
tv635 = -168						; size = 4
tv639 = -164						; size = 4
tv505 = -160						; size = 4
tv577 = -156						; size = 4
tv501 = -152						; size = 4
_mapPixels$ = -148					; size = 4
tv631 = -144						; size = 4
_drawPixels$ = -140					; size = 4
tv486 = -136						; size = 4
tv532 = -132						; size = 4
tv395 = -128						; size = 4
tv637 = -124						; size = 4
tv408 = -120						; size = 4
tv528 = -116						; size = 4
tv404 = -112						; size = 4
_vSourcePixels$ = -108					; size = 4
tv625 = -104						; size = 4
_hSourcePixels$ = -100					; size = 4
tv482 = -96						; size = 4
tv270 = -92						; size = 4
tv152 = -88						; size = 4
_maxMag$ = -84						; size = 4
tv173 = -80						; size = 4
tv269 = -76						; size = 4
_mapImageFile$ = -72					; size = 4
tv266 = -68						; size = 4
tv154 = -64						; size = 4
tv179 = -60						; size = 4
tv150 = -56						; size = 4
tv177 = -52						; size = 4
tv175 = -48						; size = 4
tv148 = -44						; size = 4
_vPixelMag$ = -40					; size = 4
_hPixelMag$ = -36					; size = 4
_wp$ = -32						; size = 4
_top$ = -28						; size = 4
_right$ = -24						; size = 4
_y$ = -20						; size = 4
_x$ = -16						; size = 4
_left$ = -12						; size = 4
_bottom$ = -8						; size = 4
_this$ = -4						; size = 4
_platform$ = 8						; size = 4
?UpdateMapDimensions@CPKneeView@@AAEXPAVSimVehicleClass@@@Z PROC ; CPKneeView::UpdateMapDimensions
; _this$ = ecx

; 222  : void CPKneeView::UpdateMapDimensions( SimVehicleClass *platform ){

	push	ebp
	mov	ebp, esp
	sub	esp, 244				; 000000f4H
	mov	DWORD PTR _this$[ebp], ecx

; 223  : 
; 224  : 	WayPointClass*	wp;
; 225  : 	float			x, y, z;
; 226  : 	float			left, right, top, bottom;
; 227  : 
; 228  : 	m_pixel2nmY = (TheMap.NorthEdge() - TheMap.SouthEdge()) * FT_TO_KM;

	mov	ecx, OFFSET ?TheMap@@3VTMap@@A		; TheMap
	call	?NorthEdge@TMap@@QAEMXZ			; TMap::NorthEdge
	fstp	DWORD PTR tv395[ebp]
	movss	xmm0, DWORD PTR tv395[ebp]
	mov	ecx, OFFSET ?TheMap@@3VTMap@@A		; TheMap
	movss	DWORD PTR tv625[ebp], xmm0
	call	?SouthEdge@TMap@@QAEMXZ			; TMap::SouthEdge
	fstp	DWORD PTR tv399[ebp]
	movss	xmm0, DWORD PTR tv625[ebp]
	subss	xmm0, DWORD PTR tv399[ebp]
	mulss	xmm0, DWORD PTR __real@399fcd90
	mov	eax, DWORD PTR _this$[ebp]
	movss	DWORD PTR [eax+263048], xmm0

; 229  : 	m_pixel2nmX = (TheMap.EastEdge() - TheMap.WestEdge()) * FT_TO_KM;

	mov	ecx, OFFSET ?TheMap@@3VTMap@@A		; TheMap
	call	?EastEdge@TMap@@QAEMXZ			; TMap::EastEdge
	fstp	DWORD PTR tv404[ebp]
	movss	xmm0, DWORD PTR tv404[ebp]
	mov	ecx, OFFSET ?TheMap@@3VTMap@@A		; TheMap
	movss	DWORD PTR tv627[ebp], xmm0
	call	?WestEdge@TMap@@QAEMXZ			; TMap::WestEdge
	fstp	DWORD PTR tv408[ebp]
	movss	xmm0, DWORD PTR tv627[ebp]
	subss	xmm0, DWORD PTR tv408[ebp]
	mulss	xmm0, DWORD PTR __real@399fcd90
	mov	ecx, DWORD PTR _this$[ebp]
	movss	DWORD PTR [ecx+263044], xmm0

; 230  : 	
; 231  : 	CImageFileMemory &mapImageFile = mpKneeBoard->GetImageFile();

	mov	edx, DWORD PTR _this$[ebp]
	mov	ecx, DWORD PTR [edx+262984]
	call	?GetImageFile@KneeBoard@@QAEAAVCImageFileMemory@@XZ ; KneeBoard::GetImageFile
	mov	DWORD PTR _mapImageFile$[ebp], eax

; 232  : 	m_pixel2nmY /= mapImageFile.image.height;

	mov	eax, DWORD PTR _mapImageFile$[ebp]
	cvtsi2ss xmm0, DWORD PTR [eax+36]
	mov	ecx, DWORD PTR _this$[ebp]
	movss	xmm1, DWORD PTR [ecx+263048]
	divss	xmm1, xmm0
	mov	edx, DWORD PTR _this$[ebp]
	movss	DWORD PTR [edx+263048], xmm1

; 233  : 	m_pixel2nmX /= mapImageFile.image.width;

	mov	eax, DWORD PTR _mapImageFile$[ebp]
	cvtsi2ss xmm0, DWORD PTR [eax+32]
	mov	ecx, DWORD PTR _this$[ebp]
	movss	xmm1, DWORD PTR [ecx+263044]
	divss	xmm1, xmm0
	mov	edx, DWORD PTR _this$[ebp]
	movss	DWORD PTR [edx+263044], xmm1

; 234  : 	// Start with our current location
; 235  : 	top   = bottom  = platform->XPos();

	mov	ecx, DWORD PTR _platform$[ebp]
	call	?XPos@VuEntity@@QBEMXZ			; VuEntity::XPos
	fstp	DWORD PTR _bottom$[ebp]
	movss	xmm0, DWORD PTR _bottom$[ebp]
	movss	DWORD PTR _top$[ebp], xmm0

; 236  : 	right = left    = platform->YPos();

	mov	ecx, DWORD PTR _platform$[ebp]
	call	?YPos@VuEntity@@QBEMXZ			; VuEntity::YPos
	fstp	DWORD PTR _left$[ebp]
	movss	xmm0, DWORD PTR _left$[ebp]
	movss	DWORD PTR _right$[ebp], xmm0

; 237  : 
; 238  : 	// Walk the waypoints and get min/max info
; 239  : 	for (wp=platform->waypoint; wp; wp=wp->GetNextWP()) {

	mov	eax, DWORD PTR _platform$[ebp]
	mov	ecx, DWORD PTR [eax+732]
	mov	DWORD PTR _wp$[ebp], ecx
	jmp	SHORT $LN11@UpdateMapD
$LN10@UpdateMapD:
	mov	ecx, DWORD PTR _wp$[ebp]
	call	?GetNextWP@WayPointClass@@QAEPAV1@XZ	; WayPointClass::GetNextWP
	mov	DWORD PTR _wp$[ebp], eax
$LN11@UpdateMapD:
	cmp	DWORD PTR _wp$[ebp], 0
	je	$LN9@UpdateMapD

; 240  : 		wp->GetLocation (&x, &y, &z);

	lea	edx, DWORD PTR _z$[ebp]
	push	edx
	lea	eax, DWORD PTR _y$[ebp]
	push	eax
	lea	ecx, DWORD PTR _x$[ebp]
	push	ecx
	mov	ecx, DWORD PTR _wp$[ebp]
	call	?GetLocation@WayPointClass@@QBEXPAM00@Z	; WayPointClass::GetLocation

; 241  : 
; 242  : 		right	= max( right,	y );

	movss	xmm0, DWORD PTR _right$[ebp]
	comiss	xmm0, DWORD PTR _y$[ebp]
	jbe	SHORT $LN14@UpdateMapD
	movss	xmm0, DWORD PTR _right$[ebp]
	movss	DWORD PTR tv148[ebp], xmm0
	jmp	SHORT $LN15@UpdateMapD
$LN14@UpdateMapD:
	movss	xmm0, DWORD PTR _y$[ebp]
	movss	DWORD PTR tv148[ebp], xmm0
$LN15@UpdateMapD:
	movss	xmm0, DWORD PTR tv148[ebp]
	movss	DWORD PTR _right$[ebp], xmm0

; 243  : 		left	= min( left,	y );

	movss	xmm0, DWORD PTR _y$[ebp]
	comiss	xmm0, DWORD PTR _left$[ebp]
	jbe	SHORT $LN16@UpdateMapD
	movss	xmm0, DWORD PTR _left$[ebp]
	movss	DWORD PTR tv150[ebp], xmm0
	jmp	SHORT $LN17@UpdateMapD
$LN16@UpdateMapD:
	movss	xmm0, DWORD PTR _y$[ebp]
	movss	DWORD PTR tv150[ebp], xmm0
$LN17@UpdateMapD:
	movss	xmm0, DWORD PTR tv150[ebp]
	movss	DWORD PTR _left$[ebp], xmm0

; 244  : 		top		= max( top,		x );

	movss	xmm0, DWORD PTR _top$[ebp]
	comiss	xmm0, DWORD PTR _x$[ebp]
	jbe	SHORT $LN18@UpdateMapD
	movss	xmm0, DWORD PTR _top$[ebp]
	movss	DWORD PTR tv152[ebp], xmm0
	jmp	SHORT $LN19@UpdateMapD
$LN18@UpdateMapD:
	movss	xmm0, DWORD PTR _x$[ebp]
	movss	DWORD PTR tv152[ebp], xmm0
$LN19@UpdateMapD:
	movss	xmm0, DWORD PTR tv152[ebp]
	movss	DWORD PTR _top$[ebp], xmm0

; 245  : 		bottom	= min( bottom,	x );

	movss	xmm0, DWORD PTR _x$[ebp]
	comiss	xmm0, DWORD PTR _bottom$[ebp]
	jbe	SHORT $LN20@UpdateMapD
	movss	xmm0, DWORD PTR _bottom$[ebp]
	movss	DWORD PTR tv154[ebp], xmm0
	jmp	SHORT $LN21@UpdateMapD
$LN20@UpdateMapD:
	movss	xmm0, DWORD PTR _x$[ebp]
	movss	DWORD PTR tv154[ebp], xmm0
$LN21@UpdateMapD:
	movss	xmm0, DWORD PTR tv154[ebp]
	movss	DWORD PTR _bottom$[ebp], xmm0

; 246  : 	}

	jmp	$LN10@UpdateMapD
$LN9@UpdateMapD:

; 247  : 
; 248  : 	// Add the position of the override waypoint (if any)
; 249  : 	ShiAssert( platform->GetCampaignObject() );
; 250  : 	ShiAssert( platform->GetCampaignObject()->IsFlight() );
; 251  : 	wp = ((FlightClass*)platform->GetCampaignObject())->GetOverrideWP();

	mov	ecx, DWORD PTR _platform$[ebp]
	call	?GetCampaignObject@SimBaseClass@@QAEPAVCampBaseClass@@XZ ; SimBaseClass::GetCampaignObject
	mov	ecx, eax
	call	?GetOverrideWP@FlightClass@@QAEPAVWayPointClass@@XZ ; FlightClass::GetOverrideWP
	mov	DWORD PTR _wp$[ebp], eax

; 252  : 	if (wp) {

	cmp	DWORD PTR _wp$[ebp], 0
	je	$LN8@UpdateMapD

; 253  : 		wp->GetLocation (&x, &y, &z);

	lea	edx, DWORD PTR _z$[ebp]
	push	edx
	lea	eax, DWORD PTR _y$[ebp]
	push	eax
	lea	ecx, DWORD PTR _x$[ebp]
	push	ecx
	mov	ecx, DWORD PTR _wp$[ebp]
	call	?GetLocation@WayPointClass@@QBEXPAM00@Z	; WayPointClass::GetLocation

; 254  : 
; 255  : 		right	= max( right,	y );

	movss	xmm0, DWORD PTR _right$[ebp]
	comiss	xmm0, DWORD PTR _y$[ebp]
	jbe	SHORT $LN22@UpdateMapD
	movss	xmm0, DWORD PTR _right$[ebp]
	movss	DWORD PTR tv173[ebp], xmm0
	jmp	SHORT $LN23@UpdateMapD
$LN22@UpdateMapD:
	movss	xmm0, DWORD PTR _y$[ebp]
	movss	DWORD PTR tv173[ebp], xmm0
$LN23@UpdateMapD:
	movss	xmm0, DWORD PTR tv173[ebp]
	movss	DWORD PTR _right$[ebp], xmm0

; 256  : 		left	= min( left,	y );

	movss	xmm0, DWORD PTR _y$[ebp]
	comiss	xmm0, DWORD PTR _left$[ebp]
	jbe	SHORT $LN24@UpdateMapD
	movss	xmm0, DWORD PTR _left$[ebp]
	movss	DWORD PTR tv175[ebp], xmm0
	jmp	SHORT $LN25@UpdateMapD
$LN24@UpdateMapD:
	movss	xmm0, DWORD PTR _y$[ebp]
	movss	DWORD PTR tv175[ebp], xmm0
$LN25@UpdateMapD:
	movss	xmm0, DWORD PTR tv175[ebp]
	movss	DWORD PTR _left$[ebp], xmm0

; 257  : 		top		= max( top,		x );

	movss	xmm0, DWORD PTR _top$[ebp]
	comiss	xmm0, DWORD PTR _x$[ebp]
	jbe	SHORT $LN26@UpdateMapD
	movss	xmm0, DWORD PTR _top$[ebp]
	movss	DWORD PTR tv177[ebp], xmm0
	jmp	SHORT $LN27@UpdateMapD
$LN26@UpdateMapD:
	movss	xmm0, DWORD PTR _x$[ebp]
	movss	DWORD PTR tv177[ebp], xmm0
$LN27@UpdateMapD:
	movss	xmm0, DWORD PTR tv177[ebp]
	movss	DWORD PTR _top$[ebp], xmm0

; 258  : 		bottom	= min( bottom,	x );

	movss	xmm0, DWORD PTR _x$[ebp]
	comiss	xmm0, DWORD PTR _bottom$[ebp]
	jbe	SHORT $LN28@UpdateMapD
	movss	xmm0, DWORD PTR _bottom$[ebp]
	movss	DWORD PTR tv179[ebp], xmm0
	jmp	SHORT $LN29@UpdateMapD
$LN28@UpdateMapD:
	movss	xmm0, DWORD PTR _x$[ebp]
	movss	DWORD PTR tv179[ebp], xmm0
$LN29@UpdateMapD:
	movss	xmm0, DWORD PTR tv179[ebp]
	movss	DWORD PTR _bottom$[ebp], xmm0
$LN8@UpdateMapD:

; 259  : 	}
; 260  : 
; 261  : 	// Now get the center of the map we want to display
; 262  : 	wsHcenter = (right+left) * 0.5f;

	movss	xmm0, DWORD PTR _right$[ebp]
	addss	xmm0, DWORD PTR _left$[ebp]
	mulss	xmm0, DWORD PTR __real@3f000000
	mov	edx, DWORD PTR _this$[ebp]
	movss	DWORD PTR [edx+263028], xmm0

; 263  : 	wsVcenter = (top+bottom) * 0.5f;

	movss	xmm0, DWORD PTR _top$[ebp]
	addss	xmm0, DWORD PTR _bottom$[ebp]
	mulss	xmm0, DWORD PTR __real@3f000000
	mov	eax, DWORD PTR _this$[ebp]
	movss	DWORD PTR [eax+263024], xmm0

; 264  : 
; 265  : 	// Now figure out the minimum width and height we want (as a distance for center for now)
; 266  : 	wsHsize = (right - left) * 0.5f * (1.0f + BORDER_PERCENT);

	movss	xmm0, DWORD PTR _right$[ebp]
	subss	xmm0, DWORD PTR _left$[ebp]
	mulss	xmm0, DWORD PTR __real@3f000000
	movss	xmm1, DWORD PTR __real@3f800000
	addss	xmm1, DWORD PTR _BORDER_PERCENT
	mulss	xmm0, xmm1
	mov	ecx, DWORD PTR _this$[ebp]
	movss	DWORD PTR [ecx+263032], xmm0

; 267  : 	wsVsize = (top - bottom) * 0.5f * (1.0f + BORDER_PERCENT);

	movss	xmm0, DWORD PTR _top$[ebp]
	subss	xmm0, DWORD PTR _bottom$[ebp]
	mulss	xmm0, DWORD PTR __real@3f000000
	movss	xmm1, DWORD PTR __real@3f800000
	addss	xmm1, DWORD PTR _BORDER_PERCENT
	mulss	xmm0, xmm1
	mov	edx, DWORD PTR _this$[ebp]
	movss	DWORD PTR [edx+263036], xmm0

; 268  : 	if (wsHsize >= TheMap.EastEdge() - TheMap.WestEdge()) {

	mov	ecx, OFFSET ?TheMap@@3VTMap@@A		; TheMap
	call	?EastEdge@TMap@@QAEMXZ			; TMap::EastEdge
	fstp	DWORD PTR tv482[ebp]
	movss	xmm0, DWORD PTR tv482[ebp]
	mov	ecx, OFFSET ?TheMap@@3VTMap@@A		; TheMap
	movss	DWORD PTR tv629[ebp], xmm0
	call	?WestEdge@TMap@@QAEMXZ			; TMap::WestEdge
	fstp	DWORD PTR tv486[ebp]
	movss	xmm0, DWORD PTR tv629[ebp]
	subss	xmm0, DWORD PTR tv486[ebp]
	mov	eax, DWORD PTR _this$[ebp]
	movss	xmm1, DWORD PTR [eax+263032]
	comiss	xmm1, xmm0
	jb	SHORT $LN7@UpdateMapD

; 269  : 		wsHsize = TheMap.EastEdge() - TheMap.WestEdge() - 1.0f;		// -1 is for rounding safety...

	mov	ecx, OFFSET ?TheMap@@3VTMap@@A		; TheMap
	call	?EastEdge@TMap@@QAEMXZ			; TMap::EastEdge
	fstp	DWORD PTR tv492[ebp]
	movss	xmm0, DWORD PTR tv492[ebp]
	mov	ecx, OFFSET ?TheMap@@3VTMap@@A		; TheMap
	movss	DWORD PTR tv631[ebp], xmm0
	call	?WestEdge@TMap@@QAEMXZ			; TMap::WestEdge
	fstp	DWORD PTR tv496[ebp]
	movss	xmm0, DWORD PTR tv631[ebp]
	subss	xmm0, DWORD PTR tv496[ebp]
	subss	xmm0, DWORD PTR __real@3f800000
	mov	ecx, DWORD PTR _this$[ebp]
	movss	DWORD PTR [ecx+263032], xmm0
$LN7@UpdateMapD:

; 270  : 	}
; 271  : 	if (wsVsize >= TheMap.NorthEdge() - TheMap.SouthEdge()) {

	mov	ecx, OFFSET ?TheMap@@3VTMap@@A		; TheMap
	call	?NorthEdge@TMap@@QAEMXZ			; TMap::NorthEdge
	fstp	DWORD PTR tv501[ebp]
	movss	xmm0, DWORD PTR tv501[ebp]
	mov	ecx, OFFSET ?TheMap@@3VTMap@@A		; TheMap
	movss	DWORD PTR tv633[ebp], xmm0
	call	?SouthEdge@TMap@@QAEMXZ			; TMap::SouthEdge
	fstp	DWORD PTR tv505[ebp]
	movss	xmm0, DWORD PTR tv633[ebp]
	subss	xmm0, DWORD PTR tv505[ebp]
	mov	edx, DWORD PTR _this$[ebp]
	movss	xmm1, DWORD PTR [edx+263036]
	comiss	xmm1, xmm0
	jb	SHORT $LN6@UpdateMapD

; 272  : 		wsVsize = TheMap.NorthEdge() - TheMap.SouthEdge() - 1.0f;	// -1 is for rounding safety...

	mov	ecx, OFFSET ?TheMap@@3VTMap@@A		; TheMap
	call	?NorthEdge@TMap@@QAEMXZ			; TMap::NorthEdge
	fstp	DWORD PTR tv511[ebp]
	movss	xmm0, DWORD PTR tv511[ebp]
	mov	ecx, OFFSET ?TheMap@@3VTMap@@A		; TheMap
	movss	DWORD PTR tv635[ebp], xmm0
	call	?SouthEdge@TMap@@QAEMXZ			; TMap::SouthEdge
	fstp	DWORD PTR tv515[ebp]
	movss	xmm0, DWORD PTR tv635[ebp]
	subss	xmm0, DWORD PTR tv515[ebp]
	subss	xmm0, DWORD PTR __real@3f800000
	mov	eax, DWORD PTR _this$[ebp]
	movss	DWORD PTR [eax+263036], xmm0
$LN6@UpdateMapD:

; 273  : 	}
; 274  : 
; 275  : 	// See how many source pixels we're talking about and round down to an even divisor of the dest pixels
; 276  : 	float hSourcePixels = wsHsize*2.0f*FT_TO_KM / m_pixel2nmX;

	mov	ecx, DWORD PTR _this$[ebp]
	movss	xmm0, DWORD PTR [ecx+263032]
	mulss	xmm0, DWORD PTR __real@40000000
	mulss	xmm0, DWORD PTR __real@399fcd90
	mov	edx, DWORD PTR _this$[ebp]
	divss	xmm0, DWORD PTR [edx+263044]
	movss	DWORD PTR _hSourcePixels$[ebp], xmm0

; 277  : 	float vSourcePixels = wsVsize*2.0f*FT_TO_KM / m_pixel2nmY;

	mov	eax, DWORD PTR _this$[ebp]
	movss	xmm0, DWORD PTR [eax+263036]
	mulss	xmm0, DWORD PTR __real@40000000
	mulss	xmm0, DWORD PTR __real@399fcd90
	mov	ecx, DWORD PTR _this$[ebp]
	divss	xmm0, DWORD PTR [ecx+263048]
	movss	DWORD PTR _vSourcePixels$[ebp], xmm0

; 278  : 
; 279  : 	float hPixelMag = srcRect.right  / hSourcePixels;

	mov	edx, DWORD PTR _this$[ebp]
	cvtsi2ss xmm0, DWORD PTR [edx+262996]
	divss	xmm0, DWORD PTR _hSourcePixels$[ebp]
	movss	DWORD PTR _hPixelMag$[ebp], xmm0

; 280  : 	float vPixelMag = srcRect.bottom / vSourcePixels;

	mov	eax, DWORD PTR _this$[ebp]
	cvtsi2ss xmm0, DWORD PTR [eax+263000]
	divss	xmm0, DWORD PTR _vSourcePixels$[ebp]
	movss	DWORD PTR _vPixelMag$[ebp], xmm0

; 281  : 
; 282  : 	// Cap the pixel magnification at a reasonable level
; 283  : 	float mapPixels		= (TheMap.NorthEdge()-TheMap.SouthEdge())*FT_TO_KM/m_pixel2nmY;

	mov	ecx, OFFSET ?TheMap@@3VTMap@@A		; TheMap
	call	?NorthEdge@TMap@@QAEMXZ			; TMap::NorthEdge
	fstp	DWORD PTR tv528[ebp]
	movss	xmm0, DWORD PTR tv528[ebp]
	mov	ecx, OFFSET ?TheMap@@3VTMap@@A		; TheMap
	movss	DWORD PTR tv637[ebp], xmm0
	call	?SouthEdge@TMap@@QAEMXZ			; TMap::SouthEdge
	fstp	DWORD PTR tv532[ebp]
	movss	xmm0, DWORD PTR tv637[ebp]
	subss	xmm0, DWORD PTR tv532[ebp]
	mulss	xmm0, DWORD PTR __real@399fcd90
	mov	ecx, DWORD PTR _this$[ebp]
	divss	xmm0, DWORD PTR [ecx+263048]
	movss	DWORD PTR _mapPixels$[ebp], xmm0

; 284  : 	float drawPixels	= (float)srcRect.bottom;

	mov	edx, DWORD PTR _this$[ebp]
	cvtsi2ss xmm0, DWORD PTR [edx+263000]
	movss	DWORD PTR _drawPixels$[ebp], xmm0

; 285  : 	float maxMag		= drawPixels / mapPixels * KNEEBOARD_SMALLEST_MAP_FRACTION;

	movss	xmm0, DWORD PTR _drawPixels$[ebp]
	divss	xmm0, DWORD PTR _mapPixels$[ebp]
	mulss	xmm0, DWORD PTR _KNEEBOARD_SMALLEST_MAP_FRACTION
	movss	DWORD PTR _maxMag$[ebp], xmm0

; 286  : 	pixelMag = FloatToInt32( (float)floor( min( min( hPixelMag, vPixelMag), maxMag) ) );

	movss	xmm0, DWORD PTR _vPixelMag$[ebp]
	comiss	xmm0, DWORD PTR _hPixelMag$[ebp]
	jbe	SHORT $LN30@UpdateMapD
	movss	xmm0, DWORD PTR _hPixelMag$[ebp]
	movss	DWORD PTR tv266[ebp], xmm0
	jmp	SHORT $LN31@UpdateMapD
$LN30@UpdateMapD:
	movss	xmm0, DWORD PTR _vPixelMag$[ebp]
	movss	DWORD PTR tv266[ebp], xmm0
$LN31@UpdateMapD:
	movss	xmm0, DWORD PTR _maxMag$[ebp]
	comiss	xmm0, DWORD PTR tv266[ebp]
	jbe	SHORT $LN34@UpdateMapD
	movss	xmm0, DWORD PTR _vPixelMag$[ebp]
	comiss	xmm0, DWORD PTR _hPixelMag$[ebp]
	jbe	SHORT $LN32@UpdateMapD
	movss	xmm0, DWORD PTR _hPixelMag$[ebp]
	movss	DWORD PTR tv269[ebp], xmm0
	jmp	SHORT $LN33@UpdateMapD
$LN32@UpdateMapD:
	movss	xmm0, DWORD PTR _vPixelMag$[ebp]
	movss	DWORD PTR tv269[ebp], xmm0
$LN33@UpdateMapD:
	movss	xmm0, DWORD PTR tv269[ebp]
	movss	DWORD PTR tv270[ebp], xmm0
	jmp	SHORT $LN35@UpdateMapD
$LN34@UpdateMapD:
	movss	xmm0, DWORD PTR _maxMag$[ebp]
	movss	DWORD PTR tv270[ebp], xmm0
$LN35@UpdateMapD:
	push	ecx
	movss	xmm0, DWORD PTR tv270[ebp]
	movss	DWORD PTR [esp], xmm0
	call	?floor@@YAMM@Z				; floor
	fstp	DWORD PTR [esp]
	call	?FloatToInt32@@YAHM@Z			; FloatToInt32
	add	esp, 4
	mov	ecx, DWORD PTR _this$[ebp]
	mov	DWORD PTR [ecx+263040], eax

; 287  : 
; 288  : 	// Detect the case where the whole desired image won't fit on screen
; 289  : 	if (pixelMag < 1) {

	mov	edx, DWORD PTR _this$[ebp]
	cmp	DWORD PTR [edx+263040], 1
	jge	SHORT $LN5@UpdateMapD

; 290  : 		pixelMag = 1;

	mov	eax, DWORD PTR _this$[ebp]
	mov	DWORD PTR [eax+263040], 1

; 291  : 
; 292  : 		// Recenter on the current position to ensure its visible
; 293  : 		wsHcenter = platform->YPos();

	mov	ecx, DWORD PTR _platform$[ebp]
	call	?YPos@VuEntity@@QBEMXZ			; VuEntity::YPos
	mov	ecx, DWORD PTR _this$[ebp]
	fstp	DWORD PTR [ecx+263028]

; 294  : 		wsVcenter = platform->XPos();

	mov	ecx, DWORD PTR _platform$[ebp]
	call	?XPos@VuEntity@@QBEMXZ			; VuEntity::XPos
	mov	edx, DWORD PTR _this$[ebp]
	fstp	DWORD PTR [edx+263024]
$LN5@UpdateMapD:

; 295  : 	}
; 296  : 
; 297  : 	// Now readjust our world space dimensions to reflect what we'll actually draw
; 298  : 	wsHsize = 0.5f * srcRect.right  / (float)pixelMag * m_pixel2nmX * KM_TO_FT;

	mov	eax, DWORD PTR _this$[ebp]
	cvtsi2ss xmm0, DWORD PTR [eax+262996]
	mulss	xmm0, DWORD PTR __real@3f000000
	mov	ecx, DWORD PTR _this$[ebp]
	cvtsi2ss xmm1, DWORD PTR [ecx+263040]
	divss	xmm0, xmm1
	mov	edx, DWORD PTR _this$[ebp]
	mulss	xmm0, DWORD PTR [edx+263044]
	mulss	xmm0, DWORD PTR __real@454cffae
	mov	eax, DWORD PTR _this$[ebp]
	movss	DWORD PTR [eax+263032], xmm0

; 299  : 	wsVsize = 0.5f * srcRect.bottom / (float)pixelMag * m_pixel2nmY * KM_TO_FT;

	mov	ecx, DWORD PTR _this$[ebp]
	cvtsi2ss xmm0, DWORD PTR [ecx+263000]
	mulss	xmm0, DWORD PTR __real@3f000000
	mov	edx, DWORD PTR _this$[ebp]
	cvtsi2ss xmm1, DWORD PTR [edx+263040]
	divss	xmm0, xmm1
	mov	eax, DWORD PTR _this$[ebp]
	mulss	xmm0, DWORD PTR [eax+263048]
	mulss	xmm0, DWORD PTR __real@454cffae
	mov	ecx, DWORD PTR _this$[ebp]
	movss	DWORD PTR [ecx+263036], xmm0

; 300  : 
; 301  : 	// Finally shift the center point as necessary to ensure we won't try to draw off the edge
; 302  : 	if (wsHcenter-wsHsize <= TheMap.WestEdge()) {

	mov	edx, DWORD PTR _this$[ebp]
	mov	eax, DWORD PTR _this$[ebp]
	movss	xmm0, DWORD PTR [edx+263028]
	subss	xmm0, DWORD PTR [eax+263032]
	mov	ecx, OFFSET ?TheMap@@3VTMap@@A		; TheMap
	movss	DWORD PTR tv639[ebp], xmm0
	call	?WestEdge@TMap@@QAEMXZ			; TMap::WestEdge
	fstp	DWORD PTR tv577[ebp]
	movss	xmm0, DWORD PTR tv577[ebp]
	movss	xmm1, DWORD PTR tv639[ebp]
	comiss	xmm0, xmm1
	jb	SHORT $LN4@UpdateMapD

; 303  : 		wsHcenter = TheMap.WestEdge() + wsHsize + 0.5f;		// +1/2 is for rounding safety...

	mov	ecx, OFFSET ?TheMap@@3VTMap@@A		; TheMap
	call	?WestEdge@TMap@@QAEMXZ			; TMap::WestEdge
	fstp	DWORD PTR tv581[ebp]
	movss	xmm0, DWORD PTR tv581[ebp]
	mov	ecx, DWORD PTR _this$[ebp]
	addss	xmm0, DWORD PTR [ecx+263032]
	addss	xmm0, DWORD PTR __real@3f000000
	mov	edx, DWORD PTR _this$[ebp]
	movss	DWORD PTR [edx+263028], xmm0
$LN4@UpdateMapD:

; 304  : 	}
; 305  : 	if (wsHcenter+wsHsize >= TheMap.EastEdge()) {

	mov	eax, DWORD PTR _this$[ebp]
	mov	ecx, DWORD PTR _this$[ebp]
	movss	xmm0, DWORD PTR [eax+263028]
	addss	xmm0, DWORD PTR [ecx+263032]
	mov	ecx, OFFSET ?TheMap@@3VTMap@@A		; TheMap
	movss	DWORD PTR tv641[ebp], xmm0
	call	?EastEdge@TMap@@QAEMXZ			; TMap::EastEdge
	fstp	DWORD PTR tv590[ebp]
	movss	xmm0, DWORD PTR tv641[ebp]
	comiss	xmm0, DWORD PTR tv590[ebp]
	jb	SHORT $LN3@UpdateMapD

; 306  : 		wsHcenter = TheMap.EastEdge() - wsHsize - 0.5f;		// -1/2 is for rounding safety...

	mov	ecx, OFFSET ?TheMap@@3VTMap@@A		; TheMap
	call	?EastEdge@TMap@@QAEMXZ			; TMap::EastEdge
	fstp	DWORD PTR tv594[ebp]
	movss	xmm0, DWORD PTR tv594[ebp]
	mov	edx, DWORD PTR _this$[ebp]
	subss	xmm0, DWORD PTR [edx+263032]
	subss	xmm0, DWORD PTR __real@3f000000
	mov	eax, DWORD PTR _this$[ebp]
	movss	DWORD PTR [eax+263028], xmm0
$LN3@UpdateMapD:

; 307  : 	}
; 308  : 	if (wsVcenter-wsVsize <= TheMap.SouthEdge()) {

	mov	ecx, DWORD PTR _this$[ebp]
	mov	edx, DWORD PTR _this$[ebp]
	movss	xmm0, DWORD PTR [ecx+263024]
	subss	xmm0, DWORD PTR [edx+263036]
	mov	ecx, OFFSET ?TheMap@@3VTMap@@A		; TheMap
	movss	DWORD PTR tv643[ebp], xmm0
	call	?SouthEdge@TMap@@QAEMXZ			; TMap::SouthEdge
	fstp	DWORD PTR tv603[ebp]
	movss	xmm0, DWORD PTR tv603[ebp]
	movss	xmm1, DWORD PTR tv643[ebp]
	comiss	xmm0, xmm1
	jb	SHORT $LN2@UpdateMapD

; 309  : 		wsVcenter = TheMap.SouthEdge() + wsVsize + 0.5f;	// +1/2 is for rounding safety...

	mov	ecx, OFFSET ?TheMap@@3VTMap@@A		; TheMap
	call	?SouthEdge@TMap@@QAEMXZ			; TMap::SouthEdge
	fstp	DWORD PTR tv607[ebp]
	movss	xmm0, DWORD PTR tv607[ebp]
	mov	eax, DWORD PTR _this$[ebp]
	addss	xmm0, DWORD PTR [eax+263036]
	addss	xmm0, DWORD PTR __real@3f000000
	mov	ecx, DWORD PTR _this$[ebp]
	movss	DWORD PTR [ecx+263024], xmm0
$LN2@UpdateMapD:

; 310  : 	}
; 311  : 	if (wsVcenter+wsVsize >= TheMap.NorthEdge()) {

	mov	edx, DWORD PTR _this$[ebp]
	mov	eax, DWORD PTR _this$[ebp]
	movss	xmm0, DWORD PTR [edx+263024]
	addss	xmm0, DWORD PTR [eax+263036]
	mov	ecx, OFFSET ?TheMap@@3VTMap@@A		; TheMap
	movss	DWORD PTR tv645[ebp], xmm0
	call	?NorthEdge@TMap@@QAEMXZ			; TMap::NorthEdge
	fstp	DWORD PTR tv616[ebp]
	movss	xmm0, DWORD PTR tv645[ebp]
	comiss	xmm0, DWORD PTR tv616[ebp]
	jb	SHORT $LN1@UpdateMapD

; 312  : 		wsVcenter = TheMap.NorthEdge() - wsVsize - 0.5f;	// -1/2 is for rounding safety...

	mov	ecx, OFFSET ?TheMap@@3VTMap@@A		; TheMap
	call	?NorthEdge@TMap@@QAEMXZ			; TMap::NorthEdge
	fstp	DWORD PTR tv620[ebp]
	movss	xmm0, DWORD PTR tv620[ebp]
	mov	ecx, DWORD PTR _this$[ebp]
	subss	xmm0, DWORD PTR [ecx+263036]
	subss	xmm0, DWORD PTR __real@3f000000
	mov	edx, DWORD PTR _this$[ebp]
	movss	DWORD PTR [edx+263024], xmm0
$LN1@UpdateMapD:

; 313  : 	}
; 314  : }

	mov	esp, ebp
	pop	ebp
	ret	4
?UpdateMapDimensions@CPKneeView@@AAEXPAVSimVehicleClass@@@Z ENDP ; CPKneeView::UpdateMapDimensions
_TEXT	ENDS
; Function compile flags: /Odtp
; File c:\users\zhitao li\documents\visual studio 2012\projects\freefalcon\sim\cockpit\cpkneeview.cpp
_TEXT	SEGMENT
_pDI$ = -8						; size = 4
_this$ = -4						; size = 4
_platform$ = 8						; size = 4
?RenderMap@CPKneeView@@AAEXPAVSimVehicleClass@@@Z PROC	; CPKneeView::RenderMap
; _this$ = ecx

; 317  : void CPKneeView::RenderMap( SimVehicleClass *platform ){

	push	ebp
	mov	ebp, esp
	sub	esp, 8
	mov	DWORD PTR _this$[ebp], ecx

; 318  : 	// Recompute what portion of the world map we need to draw
; 319  : 	UpdateMapDimensions( platform );

	mov	eax, DWORD PTR _platform$[ebp]
	push	eax
	mov	ecx, DWORD PTR _this$[ebp]
	call	?UpdateMapDimensions@CPKneeView@@AAEXPAVSimVehicleClass@@@Z ; CPKneeView::UpdateMapDimensions

; 320  : 
; 321  : 	// Copy the map image into the target buffer
; 322  : 	DrawMap( );

	mov	ecx, DWORD PTR _this$[ebp]
	call	?DrawMap@CPKneeView@@AAEXXZ		; CPKneeView::DrawMap

; 323  : 
; 324  : 	// OW FIXME: the following StartFrame() call will result in a call to IDirect3DDevice7::SetRenderTarget. We can't do this on the Voodoo 1 & 2 ;(
; 325  : 	DeviceManager::DDDriverInfo *pDI = FalconDisplay.devmgr.GetDriver(DisplayOptions.DispVideoDriver);

	movzx	ecx, BYTE PTR ?DisplayOptions@@3VDisplayOptionsClass@@A+5
	push	ecx
	mov	ecx, OFFSET ?FalconDisplay@@3VFalconDisplayConfiguration@@A+116
	call	?GetDriver@DeviceManager@@QAEPAVDDDriverInfo@1@H@Z ; DeviceManager::GetDriver
	mov	DWORD PTR _pDI$[ebp], eax

; 326  : 	if(!pDI->SupportsSRT())

	mov	ecx, DWORD PTR _pDI$[ebp]
	call	?SupportsSRT@DDDriverInfo@DeviceManager@@QAE_NXZ ; DeviceManager::DDDriverInfo::SupportsSRT
	movzx	edx, al
	test	edx, edx
	jne	SHORT $LN1@RenderMap

; 327  : 		return;

	jmp	SHORT $LN2@RenderMap
$LN1@RenderMap:

; 328  : 
; 329  : 	// Draw in the waypoints
; 330  : 	StartDraw();

	mov	ecx, DWORD PTR _this$[ebp]
	add	ecx, 144				; 00000090H
	mov	eax, DWORD PTR _this$[ebp]
	mov	edx, DWORD PTR [eax+144]
	mov	eax, DWORD PTR [edx+12]
	call	eax

; 331  : 	DrawWaypoints( platform );

	mov	ecx, DWORD PTR _platform$[ebp]
	push	ecx
	mov	ecx, DWORD PTR _this$[ebp]
	call	?DrawWaypoints@CPKneeView@@AAEXPAVSimVehicleClass@@@Z ; CPKneeView::DrawWaypoints

; 332  : 	EndDraw();

	mov	ecx, DWORD PTR _this$[ebp]
	add	ecx, 144				; 00000090H
	mov	edx, DWORD PTR _this$[ebp]
	mov	eax, DWORD PTR [edx+144]
	mov	edx, DWORD PTR [eax+20]
	call	edx
$LN2@RenderMap:

; 333  : }

	mov	esp, ebp
	pop	ebp
	ret	4
?RenderMap@CPKneeView@@AAEXPAVSimVehicleClass@@@Z ENDP	; CPKneeView::RenderMap
_TEXT	ENDS
; Function compile flags: /Odtp
; File c:\users\zhitao li\documents\visual studio 2012\projects\freefalcon\sim\cockpit\cpkneeview.cpp
_TEXT	SEGMENT
tv567 = -1144						; size = 4
tv576 = -1140						; size = 4
_this$ = -1136						; size = 4
_oldFont$ = -1132					; size = 4
_iColor$ = -1128					; size = 4
_cosLatitude$1 = -1124					; size = 4
tv194 = -1120						; size = 4
_latMin$2 = -1116					; size = 4
_longMin$3 = -1112					; size = 4
_longDeg$4 = -1108					; size = 4
_latDeg$5 = -1104					; size = 4
_longitude$6 = -1100					; size = 4
_latitude$7 = -1096					; size = 4
_lines$ = -1092						; size = 4
_LINE_HEIGHT$ = -1088					; size = 4
_v$ = -1084						; size = 4
_string$ = -1080					; size = 1024
_longStr$8 = -56					; size = 20
_latStr$9 = -36						; size = 20
_tempstr$10 = -16					; size = 10
__$ArrayPad$ = -4					; size = 4
_renderer$ = 8						; size = 4
_platform$ = 12						; size = 4
?DrawMissionText@CPKneeView@@AAEXPAVRender2D@@PAVSimVehicleClass@@@Z PROC ; CPKneeView::DrawMissionText
; _this$ = ecx

; 113  : {

	push	ebp
	mov	ebp, esp
	sub	esp, 1144				; 00000478H
	mov	eax, DWORD PTR ___security_cookie
	xor	eax, ebp
	mov	DWORD PTR __$ArrayPad$[ebp], eax
	mov	DWORD PTR _this$[ebp], ecx

; 114  : 	// sfr: check at beginning
; 115  : 	if (SimDriver.RunningDogfight() || SimDriver.RunningInstantAction()){

	mov	ecx, OFFSET ?SimDriver@@3VSimulationDriver@@A ; SimDriver
	call	?RunningDogfight@SimulationDriver@@QBE_NXZ ; SimulationDriver::RunningDogfight
	movzx	eax, al
	test	eax, eax
	jne	SHORT $LN20@DrawMissio
	mov	ecx, OFFSET ?SimDriver@@3VSimulationDriver@@A ; SimDriver
	call	?RunningInstantAction@SimulationDriver@@QBE_NXZ ; SimulationDriver::RunningInstantAction
	movzx	ecx, al
	test	ecx, ecx
	je	SHORT $LN21@DrawMissio
$LN20@DrawMissio:

; 116  : 		return;

	jmp	$LN22@DrawMissio
$LN21@DrawMissio:

; 117  : 	}
; 118  : 
; 119  : 	float		LINE_HEIGHT = renderer->TextHeight();

	mov	edx, DWORD PTR _renderer$[ebp]
	mov	eax, DWORD PTR [edx]
	mov	ecx, DWORD PTR _renderer$[ebp]
	mov	edx, DWORD PTR [eax+88]
	call	edx
	fstp	DWORD PTR _LINE_HEIGHT$[ebp]

; 120  : 	int			lines;
; 121  : 	float		v = 0.80f;

	movss	xmm0, DWORD PTR __real@3f4ccccd
	movss	DWORD PTR _v$[ebp], xmm0

; 122  : 	int oldFont = VirtualDisplay::CurFont();

	call	?CurFont@VirtualDisplay@@SAHXZ		; VirtualDisplay::CurFont
	mov	DWORD PTR _oldFont$[ebp], eax

; 123  : 	DWORD iColor = OTWDriver.pCockpitManager->ApplyLighting( 0xFF000000 , false);

	push	0
	push	-16777216				; ff000000H
	mov	ecx, DWORD PTR ?OTWDriver@@3VOTWDriverClass@@A+33684
	call	?ApplyLighting@CockpitManager@@QAEKK_N@Z ; CockpitManager::ApplyLighting
	mov	DWORD PTR _iColor$[ebp], eax

; 124  : 	renderer->SetColor( iColor );		// Black (ink color)

	mov	eax, DWORD PTR _iColor$[ebp]
	push	eax
	mov	ecx, DWORD PTR _renderer$[ebp]
	mov	edx, DWORD PTR [ecx]
	mov	ecx, DWORD PTR _renderer$[ebp]
	mov	eax, DWORD PTR [edx+92]
	call	eax

; 125  : 
; 126  : 	VirtualDisplay::SetFont(OTWDriver.pCockpitManager->KneeFont());

	mov	ecx, DWORD PTR ?OTWDriver@@3VOTWDriverClass@@A+33684
	call	?KneeFont@CockpitManager@@QAEHXZ	; CockpitManager::KneeFont
	push	eax
	call	?SetFont@VirtualDisplay@@SAXH@Z		; VirtualDisplay::SetFont
	add	esp, 4

; 127  : 
; 128  : 	// Display the players call sign and assignment
; 129  : 	char string[1024];
; 130  : 	if (mpKneeBoard->GetPage() == KneeBoard::STEERPOINT) { // JPO new kneeboard page

	mov	ecx, DWORD PTR _this$[ebp]
	mov	ecx, DWORD PTR [ecx+262984]
	call	?GetPage@KneeBoard@@QAE?AW4Page@1@XZ	; KneeBoard::GetPage
	cmp	eax, 2
	jne	$LN19@DrawMissio

; 131  : 	    v = 0.95f - LINE_HEIGHT;

	movss	xmm0, DWORD PTR __real@3f733333
	subss	xmm0, DWORD PTR _LINE_HEIGHT$[ebp]
	movss	DWORD PTR _v$[ebp], xmm0

; 132  : 	    if (GetBriefingData(GBD_PACKAGE_STPTHDR, 0, string, sizeof(string)) != -1) {

	push	1024					; 00000400H
	lea	edx, DWORD PTR _string$[ebp]
	push	edx
	push	0
	push	7
	call	?GetBriefingData@@YAHHHPADH@Z		; GetBriefingData
	add	esp, 16					; 00000010H
	cmp	eax, -1
	je	SHORT $LN18@DrawMissio

; 133  : 			renderer->TextLeft(-0.95f, v, string);

	push	0
	lea	eax, DWORD PTR _string$[ebp]
	push	eax
	push	ecx
	movss	xmm0, DWORD PTR _v$[ebp]
	movss	DWORD PTR [esp], xmm0
	push	ecx
	movss	xmm0, DWORD PTR __real@bf733333
	movss	DWORD PTR [esp], xmm0
	mov	ecx, DWORD PTR _renderer$[ebp]
	mov	edx, DWORD PTR [ecx]
	mov	ecx, DWORD PTR _renderer$[ebp]
	mov	eax, DWORD PTR [edx+56]
	call	eax

; 134  : 			v -= LINE_HEIGHT;

	movss	xmm0, DWORD PTR _v$[ebp]
	subss	xmm0, DWORD PTR _LINE_HEIGHT$[ebp]
	movss	DWORD PTR _v$[ebp], xmm0
$LN18@DrawMissio:

; 135  : 	    }
; 136  : 	    for (lines = 0; GetBriefingData(GBD_PACKAGE_STPT, lines, string, sizeof(string)) != -1; ++lines){

	mov	DWORD PTR _lines$[ebp], 0
	jmp	SHORT $LN17@DrawMissio
$LN16@DrawMissio:
	mov	ecx, DWORD PTR _lines$[ebp]
	add	ecx, 1
	mov	DWORD PTR _lines$[ebp], ecx
$LN17@DrawMissio:
	push	1024					; 00000400H
	lea	edx, DWORD PTR _string$[ebp]
	push	edx
	mov	eax, DWORD PTR _lines$[ebp]
	push	eax
	push	8
	call	?GetBriefingData@@YAHHHPADH@Z		; GetBriefingData
	add	esp, 16					; 00000010H
	cmp	eax, -1
	je	SHORT $LN15@DrawMissio

; 137  : 			renderer->TextLeft(-0.95f, v, string);

	push	0
	lea	ecx, DWORD PTR _string$[ebp]
	push	ecx
	push	ecx
	movss	xmm0, DWORD PTR _v$[ebp]
	movss	DWORD PTR [esp], xmm0
	push	ecx
	movss	xmm0, DWORD PTR __real@bf733333
	movss	DWORD PTR [esp], xmm0
	mov	edx, DWORD PTR _renderer$[ebp]
	mov	eax, DWORD PTR [edx]
	mov	ecx, DWORD PTR _renderer$[ebp]
	mov	edx, DWORD PTR [eax+56]
	call	edx

; 138  : 			v -= LINE_HEIGHT;

	movss	xmm0, DWORD PTR _v$[ebp]
	subss	xmm0, DWORD PTR _LINE_HEIGHT$[ebp]
	movss	DWORD PTR _v$[ebp], xmm0

; 139  : 	    }

	jmp	SHORT $LN16@DrawMissio
$LN15@DrawMissio:

; 140  : 
; 141  : 		//MI display GPS coords when on ground, for INS alignment stuff
; 142  : 		if(g_bRealisticAvionics && g_bINS)

	movzx	eax, BYTE PTR ?g_bRealisticAvionics@@3_NA ; g_bRealisticAvionics
	test	eax, eax
	je	$LN13@DrawMissio
	movzx	ecx, BYTE PTR ?g_bINS@@3_NA		; g_bINS
	test	ecx, ecx
	je	$LN13@DrawMissio

; 143  : 		{
; 144  : 			v -= 2 * LINE_HEIGHT;

	movss	xmm0, DWORD PTR __real@40000000
	mulss	xmm0, DWORD PTR _LINE_HEIGHT$[ebp]
	movss	xmm1, DWORD PTR _v$[ebp]
	subss	xmm1, xmm0
	movss	DWORD PTR _v$[ebp], xmm1

; 145  : 			if(((AircraftClass*)SimDriver.GetPlayerEntity()) && ((AircraftClass*)SimDriver.GetPlayerEntity())->OnGround())

	mov	ecx, OFFSET ?SimDriver@@3VSimulationDriver@@A ; SimDriver
	call	?GetPlayerEntity@SimulationDriver@@QBEPAVSimMoverClass@@XZ ; SimulationDriver::GetPlayerEntity
	test	eax, eax
	je	$LN13@DrawMissio
	mov	ecx, OFFSET ?SimDriver@@3VSimulationDriver@@A ; SimDriver
	call	?GetPlayerEntity@SimulationDriver@@QBEPAVSimMoverClass@@XZ ; SimulationDriver::GetPlayerEntity
	mov	DWORD PTR tv194[ebp], eax
	mov	edx, DWORD PTR tv194[ebp]
	mov	eax, DWORD PTR [edx]
	mov	ecx, DWORD PTR tv194[ebp]
	mov	edx, DWORD PTR [eax+148]
	call	edx
	test	eax, eax
	je	$LN13@DrawMissio

; 146  : 			{
; 147  : 				char latStr[20] = "";

	mov	al, BYTE PTR ??_C@_00CNPNBAHC@?$AA@
	mov	BYTE PTR _latStr$9[ebp], al
	xor	ecx, ecx
	mov	DWORD PTR _latStr$9[ebp+1], ecx
	mov	DWORD PTR _latStr$9[ebp+5], ecx
	mov	DWORD PTR _latStr$9[ebp+9], ecx
	mov	DWORD PTR _latStr$9[ebp+13], ecx
	mov	WORD PTR _latStr$9[ebp+17], cx
	mov	BYTE PTR _latStr$9[ebp+19], cl

; 148  : 				char longStr[20] = "";

	mov	dl, BYTE PTR ??_C@_00CNPNBAHC@?$AA@
	mov	BYTE PTR _longStr$8[ebp], dl
	xor	eax, eax
	mov	DWORD PTR _longStr$8[ebp+1], eax
	mov	DWORD PTR _longStr$8[ebp+5], eax
	mov	DWORD PTR _longStr$8[ebp+9], eax
	mov	DWORD PTR _longStr$8[ebp+13], eax
	mov	WORD PTR _longStr$8[ebp+17], ax
	mov	BYTE PTR _longStr$8[ebp+19], al

; 149  : 				char tempstr[10] = "";

	mov	cl, BYTE PTR ??_C@_00CNPNBAHC@?$AA@
	mov	BYTE PTR _tempstr$10[ebp], cl
	xor	edx, edx
	mov	DWORD PTR _tempstr$10[ebp+1], edx
	mov	DWORD PTR _tempstr$10[ebp+5], edx
	mov	BYTE PTR _tempstr$10[ebp+9], dl

; 150  : 				float latitude	= (FALCON_ORIGIN_LAT * FT_PER_DEGREE + cockpitFlightData.x) / EARTH_RADIUS_FT;

	movss	xmm0, DWORD PTR ?FALCON_ORIGIN_LAT@@3MA
	mulss	xmm0, DWORD PTR __real@45be3840
	mulss	xmm0, DWORD PTR __real@42700000
	addss	xmm0, DWORD PTR ?cockpitFlightData@@3VFlightData@@A
	divss	xmm0, DWORD PTR __real@4b9fa682
	movss	DWORD PTR _latitude$7[ebp], xmm0

; 151  : 				float cosLatitude = (float)cos(latitude);

	push	ecx
	movss	xmm0, DWORD PTR _latitude$7[ebp]
	movss	DWORD PTR [esp], xmm0
	call	?cos@@YAMM@Z				; cos
	add	esp, 4
	fstp	DWORD PTR _cosLatitude$1[ebp]

; 152  : 				float longitude	= ((FALCON_ORIGIN_LONG * DTR * EARTH_RADIUS_FT * cosLatitude) + cockpitFlightData.y) / (EARTH_RADIUS_FT * cosLatitude);

	movss	xmm0, DWORD PTR ?FALCON_ORIGIN_LONG@@3MA
	mulss	xmm0, DWORD PTR __real@3c8efa34
	mulss	xmm0, DWORD PTR __real@4b9fa682
	mulss	xmm0, DWORD PTR _cosLatitude$1[ebp]
	addss	xmm0, DWORD PTR ?cockpitFlightData@@3VFlightData@@A+4
	movss	xmm1, DWORD PTR __real@4b9fa682
	mulss	xmm1, DWORD PTR _cosLatitude$1[ebp]
	divss	xmm0, xmm1
	movss	DWORD PTR _longitude$6[ebp], xmm0

; 153  : 				
; 154  : 				latitude	*= RTD;

	movss	xmm0, DWORD PTR _latitude$7[ebp]
	mulss	xmm0, DWORD PTR __real@42652ee1
	movss	DWORD PTR _latitude$7[ebp], xmm0

; 155  : 				longitude	*= RTD;

	movss	xmm0, DWORD PTR _longitude$6[ebp]
	mulss	xmm0, DWORD PTR __real@42652ee1
	movss	DWORD PTR _longitude$6[ebp], xmm0

; 156  : 				
; 157  : 				int longDeg		= FloatToInt32(longitude);

	push	ecx
	movss	xmm0, DWORD PTR _longitude$6[ebp]
	movss	DWORD PTR [esp], xmm0
	call	?FloatToInt32@@YAHM@Z			; FloatToInt32
	add	esp, 4
	mov	DWORD PTR _longDeg$4[ebp], eax

; 158  : 				float longMin	= (float)fabs(longitude - longDeg) * DEG_TO_MIN;

	cvtsi2ss xmm0, DWORD PTR _longDeg$4[ebp]
	movss	xmm1, DWORD PTR _longitude$6[ebp]
	subss	xmm1, xmm0
	push	ecx
	movss	DWORD PTR [esp], xmm1
	call	?fabs@@YAMM@Z				; fabs
	add	esp, 4
	fstp	DWORD PTR tv567[ebp]
	movss	xmm0, DWORD PTR tv567[ebp]
	mulss	xmm0, DWORD PTR __real@42700000
	movss	DWORD PTR _longMin$3[ebp], xmm0

; 159  : 
; 160  : 				int latDeg		= FloatToInt32(latitude);

	push	ecx
	movss	xmm0, DWORD PTR _latitude$7[ebp]
	movss	DWORD PTR [esp], xmm0
	call	?FloatToInt32@@YAHM@Z			; FloatToInt32
	add	esp, 4
	mov	DWORD PTR _latDeg$5[ebp], eax

; 161  : 				float latMin	= (float)fabs(latitude - latDeg) * DEG_TO_MIN;

	cvtsi2ss xmm0, DWORD PTR _latDeg$5[ebp]
	movss	xmm1, DWORD PTR _latitude$7[ebp]
	subss	xmm1, xmm0
	push	ecx
	movss	DWORD PTR [esp], xmm1
	call	?fabs@@YAMM@Z				; fabs
	add	esp, 4
	fstp	DWORD PTR tv576[ebp]
	movss	xmm0, DWORD PTR tv576[ebp]
	mulss	xmm0, DWORD PTR __real@42700000
	movss	DWORD PTR _latMin$2[ebp], xmm0

; 162  : 
; 163  : 				// format lat/long here
; 164  : 				if(latMin < 10.0F){

	movss	xmm0, DWORD PTR __real@41200000
	comiss	xmm0, DWORD PTR _latMin$2[ebp]
	jbe	SHORT $LN12@DrawMissio

; 165  : 					sprintf(latStr, "LAT  N %3d\x03 0%2.2f\'\n", latDeg, latMin);

	cvtss2sd xmm0, DWORD PTR _latMin$2[ebp]
	sub	esp, 8
	movsd	QWORD PTR [esp], xmm0
	mov	eax, DWORD PTR _latDeg$5[ebp]
	push	eax
	push	OFFSET ??_C@_0BF@POFDKNCE@LAT?5?5N?5?$CF3d?$AD?50?$CF2?42f?8?6?$AA@
	lea	ecx, DWORD PTR _latStr$9[ebp]
	push	ecx
	call	_sprintf
	add	esp, 20					; 00000014H

; 166  : 				}
; 167  : 				else {

	jmp	SHORT $LN11@DrawMissio
$LN12@DrawMissio:

; 168  : 					sprintf(latStr, "LAT  N %3d\x03 %2.2f\'\n", latDeg, latMin);

	cvtss2sd xmm0, DWORD PTR _latMin$2[ebp]
	sub	esp, 8
	movsd	QWORD PTR [esp], xmm0
	mov	edx, DWORD PTR _latDeg$5[ebp]
	push	edx
	push	OFFSET ??_C@_0BE@DFFILLAH@LAT?5?5N?5?$CF3d?$AD?5?$CF2?42f?8?6?$AA@
	lea	eax, DWORD PTR _latStr$9[ebp]
	push	eax
	call	_sprintf
	add	esp, 20					; 00000014H
$LN11@DrawMissio:

; 169  : 				}
; 170  : 				if(longMin < 10.0F) {

	movss	xmm0, DWORD PTR __real@41200000
	comiss	xmm0, DWORD PTR _longMin$3[ebp]
	jbe	SHORT $LN10@DrawMissio

; 171  : 					sprintf(longStr, "LNG  E %3d\x03 0%2.2f\'\n", longDeg, longMin);

	cvtss2sd xmm0, DWORD PTR _longMin$3[ebp]
	sub	esp, 8
	movsd	QWORD PTR [esp], xmm0
	mov	ecx, DWORD PTR _longDeg$4[ebp]
	push	ecx
	push	OFFSET ??_C@_0BF@GIADELBL@LNG?5?5E?5?$CF3d?$AD?50?$CF2?42f?8?6?$AA@
	lea	edx, DWORD PTR _longStr$8[ebp]
	push	edx
	call	_sprintf
	add	esp, 20					; 00000014H

; 172  : 				}
; 173  : 				else {

	jmp	SHORT $LN9@DrawMissio
$LN10@DrawMissio:

; 174  : 					sprintf(longStr, "LNG  E %3d\x03 %2.2f\'\n", longDeg, longMin);

	cvtss2sd xmm0, DWORD PTR _longMin$3[ebp]
	sub	esp, 8
	movsd	QWORD PTR [esp], xmm0
	mov	eax, DWORD PTR _longDeg$4[ebp]
	push	eax
	push	OFFSET ??_C@_0BE@GMBGAKEN@LNG?5?5E?5?$CF3d?$AD?5?$CF2?42f?8?6?$AA@
	lea	ecx, DWORD PTR _longStr$8[ebp]
	push	ecx
	call	_sprintf
	add	esp, 20					; 00000014H
$LN9@DrawMissio:

; 175  : 				}
; 176  : 
; 177  : 				renderer->TextLeft(-0.95F, v, latStr);

	push	0
	lea	edx, DWORD PTR _latStr$9[ebp]
	push	edx
	push	ecx
	movss	xmm0, DWORD PTR _v$[ebp]
	movss	DWORD PTR [esp], xmm0
	push	ecx
	movss	xmm0, DWORD PTR __real@bf733333
	movss	DWORD PTR [esp], xmm0
	mov	eax, DWORD PTR _renderer$[ebp]
	mov	edx, DWORD PTR [eax]
	mov	ecx, DWORD PTR _renderer$[ebp]
	mov	eax, DWORD PTR [edx+56]
	call	eax

; 178  : 				v -= LINE_HEIGHT;

	movss	xmm0, DWORD PTR _v$[ebp]
	subss	xmm0, DWORD PTR _LINE_HEIGHT$[ebp]
	movss	DWORD PTR _v$[ebp], xmm0

; 179  : 				renderer->TextLeft(-0.95F, v, longStr);

	push	0
	lea	ecx, DWORD PTR _longStr$8[ebp]
	push	ecx
	push	ecx
	movss	xmm0, DWORD PTR _v$[ebp]
	movss	DWORD PTR [esp], xmm0
	push	ecx
	movss	xmm0, DWORD PTR __real@bf733333
	movss	DWORD PTR [esp], xmm0
	mov	edx, DWORD PTR _renderer$[ebp]
	mov	eax, DWORD PTR [edx]
	mov	ecx, DWORD PTR _renderer$[ebp]
	mov	edx, DWORD PTR [eax+56]
	call	edx

; 180  : 				v -= LINE_HEIGHT;

	movss	xmm0, DWORD PTR _v$[ebp]
	subss	xmm0, DWORD PTR _LINE_HEIGHT$[ebp]
	movss	DWORD PTR _v$[ebp], xmm0

; 181  : 				sprintf(tempstr, "SALT %dFT", (long)-cockpitFlightData.z);

	movss	xmm0, DWORD PTR ?cockpitFlightData@@3VFlightData@@A+8
	xorps	xmm0, DWORD PTR __xmm@80000000800000008000000080000000
	cvttss2si eax, xmm0
	push	eax
	push	OFFSET ??_C@_09DOBOALLE@SALT?5?$CFdFT?$AA@
	lea	ecx, DWORD PTR _tempstr$10[ebp]
	push	ecx
	call	_sprintf
	add	esp, 12					; 0000000cH

; 182  : 				renderer->TextLeft(-0.95F, v, tempstr);

	push	0
	lea	edx, DWORD PTR _tempstr$10[ebp]
	push	edx
	push	ecx
	movss	xmm0, DWORD PTR _v$[ebp]
	movss	DWORD PTR [esp], xmm0
	push	ecx
	movss	xmm0, DWORD PTR __real@bf733333
	movss	DWORD PTR [esp], xmm0
	mov	eax, DWORD PTR _renderer$[ebp]
	mov	edx, DWORD PTR [eax]
	mov	ecx, DWORD PTR _renderer$[ebp]
	mov	eax, DWORD PTR [edx+56]
	call	eax
$LN13@DrawMissio:

; 183  : 			}
; 184  : 		}
; 185  : 	}
; 186  : 	else {

	jmp	$LN2@DrawMissio
$LN19@DrawMissio:

; 187  : 		if (GetBriefingData( GBD_PLAYER_ELEMENT, 0, string, sizeof(string) ) != -1) {

	push	1024					; 00000400H
	lea	ecx, DWORD PTR _string$[ebp]
	push	ecx
	push	0
	push	1
	call	?GetBriefingData@@YAHHHPADH@Z		; GetBriefingData
	add	esp, 16					; 00000010H
	cmp	eax, -1
	je	SHORT $LN7@DrawMissio

; 188  : 			renderer->TextLeft( -0.9f, v, string );

	push	0
	lea	edx, DWORD PTR _string$[ebp]
	push	edx
	push	ecx
	movss	xmm0, DWORD PTR _v$[ebp]
	movss	DWORD PTR [esp], xmm0
	push	ecx
	movss	xmm0, DWORD PTR __real@bf666666
	movss	DWORD PTR [esp], xmm0
	mov	eax, DWORD PTR _renderer$[ebp]
	mov	edx, DWORD PTR [eax]
	mov	ecx, DWORD PTR _renderer$[ebp]
	mov	eax, DWORD PTR [edx+56]
	call	eax

; 189  : 			v -= LINE_HEIGHT;

	movss	xmm0, DWORD PTR _v$[ebp]
	subss	xmm0, DWORD PTR _LINE_HEIGHT$[ebp]
	movss	DWORD PTR _v$[ebp], xmm0
$LN7@DrawMissio:

; 190  : 		}
; 191  : 
; 192  : 		if (GetBriefingData( GBD_PLAYER_TASK,    0, string, sizeof(string) ) != -1) {

	push	1024					; 00000400H
	lea	ecx, DWORD PTR _string$[ebp]
	push	ecx
	push	0
	push	2
	call	?GetBriefingData@@YAHHHPADH@Z		; GetBriefingData
	add	esp, 16					; 00000010H
	cmp	eax, -1
	je	SHORT $LN6@DrawMissio

; 193  : 			lines = renderer->TextWrap( -0.8f, v, string, LINE_HEIGHT, 1.7f );

	push	ecx
	movss	xmm0, DWORD PTR __real@3fd9999a
	movss	DWORD PTR [esp], xmm0
	push	ecx
	movss	xmm0, DWORD PTR _LINE_HEIGHT$[ebp]
	movss	DWORD PTR [esp], xmm0
	lea	edx, DWORD PTR _string$[ebp]
	push	edx
	push	ecx
	movss	xmm0, DWORD PTR _v$[ebp]
	movss	DWORD PTR [esp], xmm0
	push	ecx
	movss	xmm0, DWORD PTR __real@bf4ccccd
	movss	DWORD PTR [esp], xmm0
	mov	eax, DWORD PTR _renderer$[ebp]
	mov	edx, DWORD PTR [eax]
	mov	ecx, DWORD PTR _renderer$[ebp]
	mov	eax, DWORD PTR [edx+80]
	call	eax
	mov	DWORD PTR _lines$[ebp], eax

; 194  : 			v -= (lines+1)*LINE_HEIGHT;

	mov	ecx, DWORD PTR _lines$[ebp]
	add	ecx, 1
	cvtsi2ss xmm0, ecx
	mulss	xmm0, DWORD PTR _LINE_HEIGHT$[ebp]
	movss	xmm1, DWORD PTR _v$[ebp]
	subss	xmm1, xmm0
	movss	DWORD PTR _v$[ebp], xmm1
$LN6@DrawMissio:

; 195  : 		}
; 196  : 
; 197  : 		// Display the package info (if we are part of a package)
; 198  : 		if (GetBriefingData( GBD_PACKAGE_LABEL, 0, string, sizeof(string) ) != -1) {

	push	1024					; 00000400H
	lea	edx, DWORD PTR _string$[ebp]
	push	edx
	push	0
	push	3
	call	?GetBriefingData@@YAHHHPADH@Z		; GetBriefingData
	add	esp, 16					; 00000010H
	cmp	eax, -1
	je	$LN2@DrawMissio

; 199  : 			renderer->TextLeft( -0.9f, v, string );

	push	0
	lea	eax, DWORD PTR _string$[ebp]
	push	eax
	push	ecx
	movss	xmm0, DWORD PTR _v$[ebp]
	movss	DWORD PTR [esp], xmm0
	push	ecx
	movss	xmm0, DWORD PTR __real@bf666666
	movss	DWORD PTR [esp], xmm0
	mov	ecx, DWORD PTR _renderer$[ebp]
	mov	edx, DWORD PTR [ecx]
	mov	ecx, DWORD PTR _renderer$[ebp]
	mov	eax, DWORD PTR [edx+56]
	call	eax

; 200  : 			v -= LINE_HEIGHT;

	movss	xmm0, DWORD PTR _v$[ebp]
	subss	xmm0, DWORD PTR _LINE_HEIGHT$[ebp]
	movss	DWORD PTR _v$[ebp], xmm0

; 201  : 
; 202  : 			// Package mission statement
; 203  : 			if (GetBriefingData( GBD_PACKAGE_MISSION, 0, string, sizeof(string) ) != -1) {

	push	1024					; 00000400H
	lea	ecx, DWORD PTR _string$[ebp]
	push	ecx
	push	0
	push	4
	call	?GetBriefingData@@YAHHHPADH@Z		; GetBriefingData
	add	esp, 16					; 00000010H
	cmp	eax, -1
	je	SHORT $LN4@DrawMissio

; 204  : 				lines = renderer->TextWrap( -0.8f, v, string, LINE_HEIGHT, 1.7f );

	push	ecx
	movss	xmm0, DWORD PTR __real@3fd9999a
	movss	DWORD PTR [esp], xmm0
	push	ecx
	movss	xmm0, DWORD PTR _LINE_HEIGHT$[ebp]
	movss	DWORD PTR [esp], xmm0
	lea	edx, DWORD PTR _string$[ebp]
	push	edx
	push	ecx
	movss	xmm0, DWORD PTR _v$[ebp]
	movss	DWORD PTR [esp], xmm0
	push	ecx
	movss	xmm0, DWORD PTR __real@bf4ccccd
	movss	DWORD PTR [esp], xmm0
	mov	eax, DWORD PTR _renderer$[ebp]
	mov	edx, DWORD PTR [eax]
	mov	ecx, DWORD PTR _renderer$[ebp]
	mov	eax, DWORD PTR [edx+80]
	call	eax
	mov	DWORD PTR _lines$[ebp], eax

; 205  : 				v -= lines*LINE_HEIGHT;

	cvtsi2ss xmm0, DWORD PTR _lines$[ebp]
	mulss	xmm0, DWORD PTR _LINE_HEIGHT$[ebp]
	movss	xmm1, DWORD PTR _v$[ebp]
	subss	xmm1, xmm0
	movss	DWORD PTR _v$[ebp], xmm1
$LN4@DrawMissio:

; 206  : 			}
; 207  : 
; 208  : 			// List the flights in the package
; 209  : 			lines = 0;

	mov	DWORD PTR _lines$[ebp], 0
$LN3@DrawMissio:

; 210  : 			while (GetBriefingData( GBD_PACKAGE_ELEMENT_NAME, lines, string, sizeof(string) ) != -1) {

	push	1024					; 00000400H
	lea	ecx, DWORD PTR _string$[ebp]
	push	ecx
	mov	edx, DWORD PTR _lines$[ebp]
	push	edx
	push	5
	call	?GetBriefingData@@YAHHHPADH@Z		; GetBriefingData
	add	esp, 16					; 00000010H
	cmp	eax, -1
	je	$LN2@DrawMissio

; 211  : 				renderer->TextLeft( -0.8f, v, string );

	push	0
	lea	eax, DWORD PTR _string$[ebp]
	push	eax
	push	ecx
	movss	xmm0, DWORD PTR _v$[ebp]
	movss	DWORD PTR [esp], xmm0
	push	ecx
	movss	xmm0, DWORD PTR __real@bf4ccccd
	movss	DWORD PTR [esp], xmm0
	mov	ecx, DWORD PTR _renderer$[ebp]
	mov	edx, DWORD PTR [ecx]
	mov	ecx, DWORD PTR _renderer$[ebp]
	mov	eax, DWORD PTR [edx+56]
	call	eax

; 212  : 				if (GetBriefingData( GBD_PACKAGE_ELEMENT_TASK, lines, string, sizeof(string) ) != -1)

	push	1024					; 00000400H
	lea	ecx, DWORD PTR _string$[ebp]
	push	ecx
	mov	edx, DWORD PTR _lines$[ebp]
	push	edx
	push	6
	call	?GetBriefingData@@YAHHHPADH@Z		; GetBriefingData
	add	esp, 16					; 00000010H
	cmp	eax, -1
	je	SHORT $LN1@DrawMissio

; 213  : 					renderer->TextLeft( -0.1f, v, string );

	push	0
	lea	eax, DWORD PTR _string$[ebp]
	push	eax
	push	ecx
	movss	xmm0, DWORD PTR _v$[ebp]
	movss	DWORD PTR [esp], xmm0
	push	ecx
	movss	xmm0, DWORD PTR __real@bdcccccd
	movss	DWORD PTR [esp], xmm0
	mov	ecx, DWORD PTR _renderer$[ebp]
	mov	edx, DWORD PTR [ecx]
	mov	ecx, DWORD PTR _renderer$[ebp]
	mov	eax, DWORD PTR [edx+56]
	call	eax
$LN1@DrawMissio:

; 214  : 				lines ++;

	mov	ecx, DWORD PTR _lines$[ebp]
	add	ecx, 1
	mov	DWORD PTR _lines$[ebp], ecx

; 215  : 				v -= LINE_HEIGHT;

	movss	xmm0, DWORD PTR _v$[ebp]
	subss	xmm0, DWORD PTR _LINE_HEIGHT$[ebp]
	movss	DWORD PTR _v$[ebp], xmm0

; 216  : 			}

	jmp	$LN3@DrawMissio
$LN2@DrawMissio:

; 217  : 		}
; 218  : 	}
; 219  : 	VirtualDisplay::SetFont(oldFont);

	mov	edx, DWORD PTR _oldFont$[ebp]
	push	edx
	call	?SetFont@VirtualDisplay@@SAXH@Z		; VirtualDisplay::SetFont
	add	esp, 4
$LN22@DrawMissio:

; 220  : }

	mov	ecx, DWORD PTR __$ArrayPad$[ebp]
	xor	ecx, ebp
	call	@__security_check_cookie@4
	mov	esp, ebp
	pop	ebp
	ret	8
?DrawMissionText@CPKneeView@@AAEXPAVRender2D@@PAVSimVehicleClass@@@Z ENDP ; CPKneeView::DrawMissionText
_TEXT	ENDS
; Function compile flags: /Odtp
; File c:\users\zhitao li\documents\visual studio 2012\projects\freefalcon\sim\cockpit\cpkneeview.cpp
_TEXT	SEGMENT
_this$ = -16						; size = 4
__$EHRec$ = -12						; size = 12
??1CPKneeView@@UAE@XZ PROC				; CPKneeView::~CPKneeView
; _this$ = ecx

; 39   : CPKneeView::~CPKneeView(){

	push	ebp
	mov	ebp, esp
	push	-1
	push	__ehhandler$??1CPKneeView@@UAE@XZ
	mov	eax, DWORD PTR fs:0
	push	eax
	push	ecx
	mov	eax, DWORD PTR ___security_cookie
	xor	eax, ebp
	push	eax
	lea	eax, DWORD PTR __$EHRec$[ebp]
	mov	DWORD PTR fs:0, eax
	mov	DWORD PTR _this$[ebp], ecx
	mov	eax, DWORD PTR _this$[ebp]
	mov	DWORD PTR [eax], OFFSET ??_7CPKneeView@@6BCPObject@@@
	mov	ecx, DWORD PTR _this$[ebp]
	mov	DWORD PTR [ecx+144], OFFSET ??_7CPKneeView@@6BRender2D@@@
	mov	DWORD PTR __$EHRec$[ebp+8], 1

; 40   : 	Cleanup();

	mov	ecx, DWORD PTR _this$[ebp]
	add	ecx, 144				; 00000090H
	call	?Cleanup@CPKneeView@@UAEXXZ		; CPKneeView::Cleanup

; 41   : }

	mov	BYTE PTR __$EHRec$[ebp+8], 0
	mov	ecx, DWORD PTR _this$[ebp]
	add	ecx, 144				; 00000090H
	call	??1Render2D@@UAE@XZ			; Render2D::~Render2D
	mov	DWORD PTR __$EHRec$[ebp+8], -1
	mov	ecx, DWORD PTR _this$[ebp]
	call	??1CPObject@@UAE@XZ			; CPObject::~CPObject
	mov	ecx, DWORD PTR __$EHRec$[ebp]
	mov	DWORD PTR fs:0, ecx
	pop	ecx
	mov	esp, ebp
	pop	ebp
	ret	0
_TEXT	ENDS
text$x	SEGMENT
__unwindfunclet$??1CPKneeView@@UAE@XZ$0:
	mov	ecx, DWORD PTR _this$[ebp]
	jmp	??1CPObject@@UAE@XZ			; CPObject::~CPObject
__unwindfunclet$??1CPKneeView@@UAE@XZ$1:
	mov	ecx, DWORD PTR _this$[ebp]
	add	ecx, 144				; 00000090H
	jmp	??1Render2D@@UAE@XZ			; Render2D::~Render2D
__ehhandler$??1CPKneeView@@UAE@XZ:
	mov	edx, DWORD PTR [esp+8]
	lea	eax, DWORD PTR [edx+12]
	mov	ecx, DWORD PTR [edx-8]
	xor	ecx, eax
	call	@__security_check_cookie@4
	mov	eax, OFFSET __ehfuncinfo$??1CPKneeView@@UAE@XZ
	jmp	___CxxFrameHandler3
text$x	ENDS
??1CPKneeView@@UAE@XZ ENDP				; CPKneeView::~CPKneeView
; Function compile flags: /Odtp
; File c:\users\zhitao li\documents\visual studio 2012\projects\freefalcon\sim\cockpit\cpkneeview.cpp
_TEXT	SEGMENT
_this$ = -16						; size = 4
__$EHRec$ = -12						; size = 12
_pobjectInitStr$ = 8					; size = 4
_pboard$ = 12						; size = 4
??0CPKneeView@@QAE@PAUObjectInitStr@@PAVKneeBoard@@@Z PROC ; CPKneeView::CPKneeView
; _this$ = ecx

; 30   : {

	push	ebp
	mov	ebp, esp
	push	-1
	push	__ehhandler$??0CPKneeView@@QAE@PAUObjectInitStr@@PAVKneeBoard@@@Z
	mov	eax, DWORD PTR fs:0
	push	eax
	push	ecx
	mov	eax, DWORD PTR ___security_cookie
	xor	eax, ebp
	push	eax
	lea	eax, DWORD PTR __$EHRec$[ebp]
	mov	DWORD PTR fs:0, eax
	mov	DWORD PTR _this$[ebp], ecx
	mov	eax, DWORD PTR _pobjectInitStr$[ebp]
	push	eax
	mov	ecx, DWORD PTR _this$[ebp]
	call	??0CPObject@@QAE@PBUObjectInitStr@@@Z	; CPObject::CPObject
	mov	DWORD PTR __$EHRec$[ebp+8], 0
	mov	ecx, DWORD PTR _this$[ebp]
	add	ecx, 144				; 00000090H
	call	??0Render2D@@QAE@XZ			; Render2D::Render2D
	mov	BYTE PTR __$EHRec$[ebp+8], 1
	mov	ecx, DWORD PTR _this$[ebp]
	mov	DWORD PTR [ecx], OFFSET ??_7CPKneeView@@6BCPObject@@@
	mov	edx, DWORD PTR _this$[ebp]
	mov	DWORD PTR [edx+144], OFFSET ??_7CPKneeView@@6BRender2D@@@

; 31   : 	mapImageBuffer = NULL;

	mov	eax, DWORD PTR _this$[ebp]
	mov	DWORD PTR [eax+263020], 0

; 32   : 	mpKneeBoard = pboard;

	mov	ecx, DWORD PTR _this$[ebp]
	mov	edx, DWORD PTR _pboard$[ebp]
	mov	DWORD PTR [ecx+262984], edx

; 33   : 
; 34   : 	Setup(
; 35   : 		&FalconDisplay.theDisplayDevice, mDestRect.top, mDestRect.left, mDestRect.bottom, mDestRect.right
; 36   : 	);

	mov	eax, DWORD PTR _this$[ebp]
	mov	ecx, DWORD PTR [eax+40]
	push	ecx
	mov	edx, DWORD PTR _this$[ebp]
	mov	eax, DWORD PTR [edx+44]
	push	eax
	mov	ecx, DWORD PTR _this$[ebp]
	mov	edx, DWORD PTR [ecx+32]
	push	edx
	mov	eax, DWORD PTR _this$[ebp]
	mov	ecx, DWORD PTR [eax+36]
	push	ecx
	push	OFFSET ?FalconDisplay@@3VFalconDisplayConfiguration@@A+132
	mov	ecx, DWORD PTR _this$[ebp]
	call	?Setup@CPKneeView@@UAEXPAVDisplayDevice@@HHHH@Z ; CPKneeView::Setup

; 37   : }

	mov	DWORD PTR __$EHRec$[ebp+8], -1
	mov	eax, DWORD PTR _this$[ebp]
	mov	ecx, DWORD PTR __$EHRec$[ebp]
	mov	DWORD PTR fs:0, ecx
	pop	ecx
	mov	esp, ebp
	pop	ebp
	ret	8
_TEXT	ENDS
text$x	SEGMENT
__unwindfunclet$??0CPKneeView@@QAE@PAUObjectInitStr@@PAVKneeBoard@@@Z$0:
	mov	ecx, DWORD PTR _this$[ebp]
	jmp	??1CPObject@@UAE@XZ			; CPObject::~CPObject
__unwindfunclet$??0CPKneeView@@QAE@PAUObjectInitStr@@PAVKneeBoard@@@Z$1:
	mov	ecx, DWORD PTR _this$[ebp]
	add	ecx, 144				; 00000090H
	jmp	??1Render2D@@UAE@XZ			; Render2D::~Render2D
__ehhandler$??0CPKneeView@@QAE@PAUObjectInitStr@@PAVKneeBoard@@@Z:
	mov	edx, DWORD PTR [esp+8]
	lea	eax, DWORD PTR [edx+12]
	mov	ecx, DWORD PTR [edx-8]
	xor	ecx, eax
	call	@__security_check_cookie@4
	mov	eax, OFFSET __ehfuncinfo$??0CPKneeView@@QAE@PAUObjectInitStr@@PAVKneeBoard@@@Z
	jmp	___CxxFrameHandler3
text$x	ENDS
??0CPKneeView@@QAE@PAUObjectInitStr@@PAVKneeBoard@@@Z ENDP ; CPKneeView::CPKneeView
; Function compile flags: /Odtp
; File c:\users\zhitao li\documents\visual studio 2012\projects\freefalcon\sim\cockpit\cpkneeview.cpp
_TEXT	SEGMENT
tv78 = -16						; size = 4
$T1 = -12						; size = 4
$T2 = -8						; size = 4
_this$ = -4						; size = 4
?Cleanup@CPKneeView@@UAEXXZ PROC			; CPKneeView::Cleanup
; _this$ = ecx

; 62   : void CPKneeView::Cleanup(){

	push	ebp
	mov	ebp, esp
	sub	esp, 16					; 00000010H
	mov	DWORD PTR _this$[ebp], ecx

; 63   : 	if(mapImageBuffer){

	mov	eax, DWORD PTR _this$[ebp]
	cmp	DWORD PTR [eax+262876], 0
	je	SHORT $LN1@Cleanup

; 64   : 		mapImageBuffer->Cleanup();

	mov	ecx, DWORD PTR _this$[ebp]
	mov	ecx, DWORD PTR [ecx+262876]
	call	?Cleanup@ImageBuffer@@QAEXXZ		; ImageBuffer::Cleanup

; 65   : 		delete mapImageBuffer;

	mov	edx, DWORD PTR _this$[ebp]
	mov	eax, DWORD PTR [edx+262876]
	mov	DWORD PTR $T1[ebp], eax
	mov	ecx, DWORD PTR $T1[ebp]
	mov	DWORD PTR $T2[ebp], ecx
	cmp	DWORD PTR $T2[ebp], 0
	je	SHORT $LN4@Cleanup
	push	1
	mov	edx, DWORD PTR $T2[ebp]
	mov	eax, DWORD PTR [edx]
	mov	ecx, DWORD PTR $T2[ebp]
	mov	edx, DWORD PTR [eax]
	call	edx
	mov	DWORD PTR tv78[ebp], eax
	jmp	SHORT $LN5@Cleanup
$LN4@Cleanup:
	mov	DWORD PTR tv78[ebp], 0
$LN5@Cleanup:

; 66   : 		mapImageBuffer = NULL;

	mov	eax, DWORD PTR _this$[ebp]
	mov	DWORD PTR [eax+262876], 0
$LN1@Cleanup:

; 67   : 	}
; 68   : 	Render2D::Cleanup();

	mov	ecx, DWORD PTR _this$[ebp]
	call	?Cleanup@Render2D@@UAEXXZ		; Render2D::Cleanup

; 69   : 	mpKneeBoard->Cleanup();

	mov	ecx, DWORD PTR _this$[ebp]
	mov	edx, DWORD PTR [ecx+262840]
	mov	eax, DWORD PTR _this$[ebp]
	mov	edx, DWORD PTR [edx]
	mov	ecx, DWORD PTR [eax+262840]
	mov	eax, DWORD PTR [edx+8]
	call	eax

; 70   : }

	mov	esp, ebp
	pop	ebp
	ret	0
?Cleanup@CPKneeView@@UAEXXZ ENDP			; CPKneeView::Cleanup
_TEXT	ENDS
; Function compile flags: /Odtp
; File c:\users\zhitao li\documents\visual studio 2012\projects\freefalcon\sim\cockpit\cpkneeview.cpp
_TEXT	SEGMENT
_front$ = -36						; size = 4
$T2 = -32						; size = 4
tv133 = -28						; size = 4
$T3 = -24						; size = 4
tv92 = -20						; size = 4
_this$ = -16						; size = 4
__$EHRec$ = -12						; size = 12
_device$ = 8						; size = 4
_top$ = 12						; size = 4
_left$ = 16						; size = 4
_bottom$ = 20						; size = 4
_right$ = 24						; size = 4
?Setup@CPKneeView@@UAEXPAVDisplayDevice@@HHHH@Z PROC	; CPKneeView::Setup
; _this$ = ecx

; 43   : void CPKneeView::Setup( DisplayDevice *device, int top, int left, int bottom, int right ){

	push	ebp
	mov	ebp, esp
	push	-1
	push	__ehhandler$?Setup@CPKneeView@@UAEXPAVDisplayDevice@@HHHH@Z
	mov	eax, DWORD PTR fs:0
	push	eax
	sub	esp, 24					; 00000018H
	mov	eax, DWORD PTR ___security_cookie
	xor	eax, ebp
	push	eax
	lea	eax, DWORD PTR __$EHRec$[ebp]
	mov	DWORD PTR fs:0, eax
	mov	DWORD PTR _this$[ebp], ecx

; 44   : 	mpKneeBoard->Setup();

	mov	eax, DWORD PTR _this$[ebp]
	mov	ecx, DWORD PTR [eax+262984]
	mov	edx, DWORD PTR _this$[ebp]
	mov	eax, DWORD PTR [ecx]
	mov	ecx, DWORD PTR [edx+262984]
	mov	edx, DWORD PTR [eax+4]
	call	edx

; 45   : 	dstRect.top		= top;

	mov	eax, DWORD PTR _this$[ebp]
	mov	ecx, DWORD PTR _top$[ebp]
	mov	DWORD PTR [eax+263008], ecx

; 46   : 	dstRect.left	= left;

	mov	edx, DWORD PTR _this$[ebp]
	mov	eax, DWORD PTR _left$[ebp]
	mov	DWORD PTR [edx+263004], eax

; 47   : 	dstRect.bottom	= bottom;

	mov	ecx, DWORD PTR _this$[ebp]
	mov	edx, DWORD PTR _bottom$[ebp]
	mov	DWORD PTR [ecx+263016], edx

; 48   : 	dstRect.right	= right;

	mov	eax, DWORD PTR _this$[ebp]
	mov	ecx, DWORD PTR _right$[ebp]
	mov	DWORD PTR [eax+263012], ecx

; 49   : 
; 50   : 	srcRect.top		= 0;

	mov	edx, DWORD PTR _this$[ebp]
	mov	DWORD PTR [edx+262992], 0

; 51   : 	srcRect.left	= 0;

	mov	eax, DWORD PTR _this$[ebp]
	mov	DWORD PTR [eax+262988], 0

; 52   : 	srcRect.bottom	= bottom - top;

	mov	ecx, DWORD PTR _bottom$[ebp]
	sub	ecx, DWORD PTR _top$[ebp]
	mov	edx, DWORD PTR _this$[ebp]
	mov	DWORD PTR [edx+263000], ecx

; 53   : 	srcRect.right	= right - left;

	mov	eax, DWORD PTR _right$[ebp]
	sub	eax, DWORD PTR _left$[ebp]
	mov	ecx, DWORD PTR _this$[ebp]
	mov	DWORD PTR [ecx+262996], eax

; 54   : 
; 55   : 	// Setup our off screen map buffer and renderer
; 56   : 	MPRSurfaceType front = FalconDisplay.theDisplayDevice.IsHardware() ? VideoMem : SystemMem;

	mov	ecx, OFFSET ?FalconDisplay@@3VFalconDisplayConfiguration@@A+132
	call	?IsHardware@DisplayDevice@@QAEHXZ	; DisplayDevice::IsHardware
	test	eax, eax
	je	SHORT $LN3@Setup
	mov	DWORD PTR tv92[ebp], 1
	jmp	SHORT $LN4@Setup
$LN3@Setup:
	mov	DWORD PTR tv92[ebp], 0
$LN4@Setup:
	mov	edx, DWORD PTR tv92[ebp]
	mov	DWORD PTR _front$[ebp], edx

; 57   : 	mapImageBuffer = new ImageBuffer;

	push	348					; 0000015cH
	call	??2@YAPAXI@Z				; operator new
	add	esp, 4
	mov	DWORD PTR $T3[ebp], eax
	mov	DWORD PTR __$EHRec$[ebp+8], 0
	cmp	DWORD PTR $T3[ebp], 0
	je	SHORT $LN5@Setup
	mov	ecx, DWORD PTR $T3[ebp]
	call	??0ImageBuffer@@QAE@XZ			; ImageBuffer::ImageBuffer
	mov	DWORD PTR tv133[ebp], eax
	jmp	SHORT $LN6@Setup
$LN5@Setup:
	mov	DWORD PTR tv133[ebp], 0
$LN6@Setup:
	mov	eax, DWORD PTR tv133[ebp]
	mov	DWORD PTR $T2[ebp], eax
	mov	DWORD PTR __$EHRec$[ebp+8], -1
	mov	ecx, DWORD PTR _this$[ebp]
	mov	edx, DWORD PTR $T2[ebp]
	mov	DWORD PTR [ecx+263020], edx

; 58   : 	mapImageBuffer->Setup( device, srcRect.right, srcRect.bottom, front, None );

	push	0
	push	0
	push	0
	push	0
	push	4
	mov	eax, DWORD PTR _front$[ebp]
	push	eax
	mov	ecx, DWORD PTR _this$[ebp]
	mov	edx, DWORD PTR [ecx+263000]
	push	edx
	mov	eax, DWORD PTR _this$[ebp]
	mov	ecx, DWORD PTR [eax+262996]
	push	ecx
	mov	edx, DWORD PTR _device$[ebp]
	push	edx
	mov	eax, DWORD PTR _this$[ebp]
	mov	ecx, DWORD PTR [eax+263020]
	call	?Setup@ImageBuffer@@QAEHPAVDisplayDevice@@HHW4MPRSurfaceType@@1PAUHWND__@@HHH@Z ; ImageBuffer::Setup

; 59   : 	Render2D::Setup(mapImageBuffer);

	mov	ecx, DWORD PTR _this$[ebp]
	mov	edx, DWORD PTR [ecx+263020]
	push	edx
	mov	ecx, DWORD PTR _this$[ebp]
	add	ecx, 144				; 00000090H
	call	?Setup@Render2D@@UAEXPAVImageBuffer@@@Z	; Render2D::Setup

; 60   : }

	mov	ecx, DWORD PTR __$EHRec$[ebp]
	mov	DWORD PTR fs:0, ecx
	pop	ecx
	mov	esp, ebp
	pop	ebp
	ret	20					; 00000014H
_TEXT	ENDS
text$x	SEGMENT
__unwindfunclet$?Setup@CPKneeView@@UAEXPAVDisplayDevice@@HHHH@Z$0:
	mov	eax, DWORD PTR $T3[ebp]
	push	eax
	call	??3@YAXPAX@Z				; operator delete
	pop	ecx
	ret	0
__ehhandler$?Setup@CPKneeView@@UAEXPAVDisplayDevice@@HHHH@Z:
	mov	edx, DWORD PTR [esp+8]
	lea	eax, DWORD PTR [edx+12]
	mov	ecx, DWORD PTR [edx-28]
	xor	ecx, eax
	call	@__security_check_cookie@4
	mov	eax, OFFSET __ehfuncinfo$?Setup@CPKneeView@@UAEXPAVDisplayDevice@@HHHH@Z
	jmp	___CxxFrameHandler3
text$x	ENDS
?Setup@CPKneeView@@UAEXPAVDisplayDevice@@HHHH@Z ENDP	; CPKneeView::Setup
; Function compile flags: /Odtp
; File c:\users\zhitao li\documents\visual studio 2012\projects\freefalcon\sim\cockpit\cpkneeview.cpp
_TEXT	SEGMENT
_this$ = -4						; size = 4
_platform$ = 8						; size = 4
?Refresh@CPKneeView@@UAEXPAVSimVehicleClass@@@Z PROC	; CPKneeView::Refresh
; _this$ = ecx

; 72   : void CPKneeView::Refresh( SimVehicleClass *platform ){

	push	ebp
	mov	ebp, esp
	push	ecx
	mov	DWORD PTR _this$[ebp], ecx

; 73   : 	RenderMap(platform);

	mov	eax, DWORD PTR _platform$[ebp]
	push	eax
	mov	ecx, DWORD PTR _this$[ebp]
	call	?RenderMap@CPKneeView@@AAEXPAVSimVehicleClass@@@Z ; CPKneeView::RenderMap

; 74   : }

	mov	esp, ebp
	pop	ebp
	ret	4
?Refresh@CPKneeView@@UAEXPAVSimVehicleClass@@@Z ENDP	; CPKneeView::Refresh
_TEXT	ENDS
; Function compile flags: /Odtp
; File c:\users\zhitao li\documents\visual studio 2012\projects\freefalcon\sim\cockpit\cpkneeview.cpp
_TEXT	SEGMENT
tv250 = -24						; size = 4
tv248 = -20						; size = 4
tv246 = -16						; size = 4
tv244 = -12						; size = 4
_renderer$ = -8						; size = 4
_this$ = -4						; size = 4
?DisplayDraw@CPKneeView@@UAEXXZ PROC			; CPKneeView::DisplayDraw
; _this$ = ecx

; 88   : void CPKneeView::DisplayDraw(void){

	push	ebp
	mov	ebp, esp
	sub	esp, 24					; 00000018H
	mov	DWORD PTR _this$[ebp], ecx

; 89   : 	// Set the viewport to the active region of our display
; 90   : 	RenderOTW *renderer = OTWDriver.renderer;

	mov	eax, DWORD PTR ?OTWDriver@@3VOTWDriverClass@@A+33576
	mov	DWORD PTR _renderer$[ebp], eax

; 91   : 	renderer->SetViewport(
; 92   : 		(float)dstRect.left  /mpOTWImage->targetXres()*( 2.0f) - 1.0f, 
; 93   : 		(float)dstRect.top   /mpOTWImage->targetYres()*(-2.0f) + 1.0f,
; 94   : 		(float)dstRect.right /mpOTWImage->targetXres()*( 2.0f) - 1.0f,
; 95   : 		(float)dstRect.bottom/mpOTWImage->targetYres()*(-2.0f) + 1.0f 
; 96   : 	);

	mov	ecx, DWORD PTR _this$[ebp]
	cvtsi2ss xmm0, DWORD PTR [ecx+263016]
	mov	edx, DWORD PTR _this$[ebp]
	mov	ecx, DWORD PTR [edx+104]
	movss	DWORD PTR tv244[ebp], xmm0
	call	?targetYres@ImageBuffer@@QAEHXZ		; ImageBuffer::targetYres
	cvtsi2ss xmm0, eax
	movss	xmm1, DWORD PTR tv244[ebp]
	divss	xmm1, xmm0
	mulss	xmm1, DWORD PTR __real@c0000000
	addss	xmm1, DWORD PTR __real@3f800000
	push	ecx
	movss	DWORD PTR [esp], xmm1
	mov	eax, DWORD PTR _this$[ebp]
	cvtsi2ss xmm0, DWORD PTR [eax+263012]
	mov	ecx, DWORD PTR _this$[ebp]
	mov	ecx, DWORD PTR [ecx+104]
	movss	DWORD PTR tv246[ebp], xmm0
	call	?targetXres@ImageBuffer@@QAEHXZ		; ImageBuffer::targetXres
	cvtsi2ss xmm0, eax
	movss	xmm1, DWORD PTR tv246[ebp]
	divss	xmm1, xmm0
	mulss	xmm1, DWORD PTR __real@40000000
	subss	xmm1, DWORD PTR __real@3f800000
	push	ecx
	movss	DWORD PTR [esp], xmm1
	mov	edx, DWORD PTR _this$[ebp]
	cvtsi2ss xmm0, DWORD PTR [edx+263008]
	mov	eax, DWORD PTR _this$[ebp]
	mov	ecx, DWORD PTR [eax+104]
	movss	DWORD PTR tv248[ebp], xmm0
	call	?targetYres@ImageBuffer@@QAEHXZ		; ImageBuffer::targetYres
	cvtsi2ss xmm0, eax
	movss	xmm1, DWORD PTR tv248[ebp]
	divss	xmm1, xmm0
	mulss	xmm1, DWORD PTR __real@c0000000
	addss	xmm1, DWORD PTR __real@3f800000
	push	ecx
	movss	DWORD PTR [esp], xmm1
	mov	ecx, DWORD PTR _this$[ebp]
	cvtsi2ss xmm0, DWORD PTR [ecx+263004]
	mov	edx, DWORD PTR _this$[ebp]
	mov	ecx, DWORD PTR [edx+104]
	movss	DWORD PTR tv250[ebp], xmm0
	call	?targetXres@ImageBuffer@@QAEHXZ		; ImageBuffer::targetXres
	cvtsi2ss xmm0, eax
	movss	xmm1, DWORD PTR tv250[ebp]
	divss	xmm1, xmm0
	mulss	xmm1, DWORD PTR __real@40000000
	subss	xmm1, DWORD PTR __real@3f800000
	push	ecx
	movss	DWORD PTR [esp], xmm1
	mov	eax, DWORD PTR _renderer$[ebp]
	mov	edx, DWORD PTR [eax]
	mov	ecx, DWORD PTR _renderer$[ebp]
	mov	eax, DWORD PTR [edx+112]
	call	eax

; 97   : 	
; 98   : 	if (mpKneeBoard->GetPage() == KneeBoard::MAP) {

	mov	ecx, DWORD PTR _this$[ebp]
	mov	ecx, DWORD PTR [ecx+262984]
	call	?GetPage@KneeBoard@@QAE?AW4Page@1@XZ	; KneeBoard::GetPage
	cmp	eax, 1
	jne	SHORT $LN3@DisplayDra

; 99   : 		// If we're not in Realistic mode, draw the current position marker
; 100  : 		// M.N. Added Full realism mode
; 101  : 		if (PlayerOptions.GetAvionicsType() != ATRealistic && PlayerOptions.GetAvionicsType() != ATRealisticAV ) {

	mov	ecx, OFFSET ?PlayerOptions@@3VPlayerOptionsClass@@A ; PlayerOptions
	call	?GetAvionicsType@PlayerOptionsClass@@QAEHXZ ; PlayerOptionsClass::GetAvionicsType
	cmp	eax, 2
	je	SHORT $LN2@DisplayDra
	mov	ecx, OFFSET ?PlayerOptions@@3VPlayerOptionsClass@@A ; PlayerOptions
	call	?GetAvionicsType@PlayerOptionsClass@@QAEHXZ ; PlayerOptionsClass::GetAvionicsType
	cmp	eax, 3
	je	SHORT $LN2@DisplayDra

; 102  : 			DrawCurrentPosition( mpOTWImage, renderer, (SimVehicleClass*)mpOwnship );

	mov	edx, DWORD PTR _this$[ebp]
	mov	eax, DWORD PTR [edx+100]
	push	eax
	mov	ecx, DWORD PTR _renderer$[ebp]
	push	ecx
	mov	edx, DWORD PTR _this$[ebp]
	mov	eax, DWORD PTR [edx+104]
	push	eax
	mov	ecx, DWORD PTR _this$[ebp]
	call	?DrawCurrentPosition@CPKneeView@@AAEXPAVImageBuffer@@PAVRender2D@@PAVSimVehicleClass@@@Z ; CPKneeView::DrawCurrentPosition
$LN2@DisplayDra:

; 103  : 		}
; 104  : 	}
; 105  : 	else {

	jmp	SHORT $LN1@DisplayDra
$LN3@DisplayDra:

; 106  : 		DrawMissionText( renderer, (SimVehicleClass*)mpOwnship );

	mov	ecx, DWORD PTR _this$[ebp]
	mov	edx, DWORD PTR [ecx+100]
	push	edx
	mov	eax, DWORD PTR _renderer$[ebp]
	push	eax
	mov	ecx, DWORD PTR _this$[ebp]
	call	?DrawMissionText@CPKneeView@@AAEXPAVRender2D@@PAVSimVehicleClass@@@Z ; CPKneeView::DrawMissionText
$LN1@DisplayDra:

; 107  : 	}
; 108  : }

	mov	esp, ebp
	pop	ebp
	ret	0
?DisplayDraw@CPKneeView@@UAEXXZ ENDP			; CPKneeView::DisplayDraw
_TEXT	ENDS
; Function compile flags: /Odtp
; File c:\users\zhitao li\documents\visual studio 2012\projects\freefalcon\sim\cockpit\cpkneeview.cpp
_TEXT	SEGMENT
_this$ = -4						; size = 4
?DisplayBlit@CPKneeView@@UAEXXZ PROC			; CPKneeView::DisplayBlit
; _this$ = ecx

; 81   : void CPKneeView::DisplayBlit(void){	

	push	ebp
	mov	ebp, esp
	push	ecx
	mov	DWORD PTR _this$[ebp], ecx

; 82   : 	if (mpKneeBoard->GetPage() == KneeBoard::MAP) {

	mov	eax, DWORD PTR _this$[ebp]
	mov	ecx, DWORD PTR [eax+262984]
	call	?GetPage@KneeBoard@@QAE?AW4Page@1@XZ	; KneeBoard::GetPage
	cmp	eax, 1
	jne	SHORT $LN2@DisplayBli

; 83   : 		// BLT in the map
; 84   : 		mpOTWImage->Compose( mapImageBuffer, &srcRect, &dstRect);

	mov	ecx, DWORD PTR _this$[ebp]
	add	ecx, 263004				; 0004035cH
	push	ecx
	mov	edx, DWORD PTR _this$[ebp]
	add	edx, 262988				; 0004034cH
	push	edx
	mov	eax, DWORD PTR _this$[ebp]
	mov	ecx, DWORD PTR [eax+263020]
	push	ecx
	mov	edx, DWORD PTR _this$[ebp]
	mov	ecx, DWORD PTR [edx+104]
	call	?Compose@ImageBuffer@@QAEXPAV1@PAUtagRECT@@1@Z ; ImageBuffer::Compose
$LN2@DisplayBli:

; 85   : 	}
; 86   : }

	mov	esp, ebp
	pop	ebp
	ret	0
?DisplayBlit@CPKneeView@@UAEXXZ ENDP			; CPKneeView::DisplayBlit
_TEXT	ENDS
; Function compile flags: /Odtp
; File c:\users\zhitao li\documents\visual studio 2012\projects\freefalcon\sim\cockpit\cpkneeview.cpp
_TEXT	SEGMENT
_this$ = -4						; size = 4
_pOwnship$ = 8						; size = 4
?Exec@CPKneeView@@UAEXPAVSimBaseClass@@@Z PROC		; CPKneeView::Exec
; _this$ = ecx

; 76   : void CPKneeView::Exec(SimBaseClass* pOwnship) { 

	push	ebp
	mov	ebp, esp
	push	ecx
	mov	DWORD PTR _this$[ebp], ecx

; 77   : 	mpOwnship = pOwnship;

	mov	eax, DWORD PTR _this$[ebp]
	mov	ecx, DWORD PTR _pOwnship$[ebp]
	mov	DWORD PTR [eax+100], ecx

; 78   : 	RenderMap((SimVehicleClass*)mpOwnship );

	mov	edx, DWORD PTR _this$[ebp]
	mov	eax, DWORD PTR [edx+100]
	push	eax
	mov	ecx, DWORD PTR _this$[ebp]
	call	?RenderMap@CPKneeView@@AAEXPAVSimVehicleClass@@@Z ; CPKneeView::RenderMap

; 79   : }

	mov	esp, ebp
	pop	ebp
	ret	4
?Exec@CPKneeView@@UAEXPAVSimBaseClass@@@Z ENDP		; CPKneeView::Exec
_TEXT	ENDS
; Function compile flags: /Odtp
; File c:\users\zhitao li\documents\visual studio 2012\projects\freefalcon\sim\include\kneeboard.h
;	COMDAT ?GetImageFile@KneeBoard@@QAEAAVCImageFileMemory@@XZ
_TEXT	SEGMENT
_this$ = -4						; size = 4
?GetImageFile@KneeBoard@@QAEAAVCImageFileMemory@@XZ PROC ; KneeBoard::GetImageFile, COMDAT
; _this$ = ecx

; 34   : 	CImageFileMemory &GetImageFile() { return mapImageFile; }

	push	ebp
	mov	ebp, esp
	push	ecx
	mov	DWORD PTR _this$[ebp], ecx
	mov	eax, DWORD PTR _this$[ebp]
	add	eax, 16					; 00000010H
	mov	esp, ebp
	pop	ebp
	ret	0
?GetImageFile@KneeBoard@@QAEAAVCImageFileMemory@@XZ ENDP ; KneeBoard::GetImageFile
_TEXT	ENDS
; Function compile flags: /Odtp
; File c:\users\zhitao li\documents\visual studio 2012\projects\freefalcon\sim\include\kneeboard.h
;	COMDAT ?GetPage@KneeBoard@@QAE?AW4Page@1@XZ
_TEXT	SEGMENT
_this$ = -4						; size = 4
?GetPage@KneeBoard@@QAE?AW4Page@1@XZ PROC		; KneeBoard::GetPage, COMDAT
; _this$ = ecx

; 31   : 	Page GetPage( void )	{ return page; };

	push	ebp
	mov	ebp, esp
	push	ecx
	mov	DWORD PTR _this$[ebp], ecx
	mov	eax, DWORD PTR _this$[ebp]
	mov	eax, DWORD PTR [eax+8]
	mov	esp, ebp
	pop	ebp
	ret	0
?GetPage@KneeBoard@@QAE?AW4Page@1@XZ ENDP		; KneeBoard::GetPage
_TEXT	ENDS
; Function compile flags: /Odtp
; File c:\users\zhitao li\documents\visual studio 2012\projects\freefalcon\sim\include\cpmanager.h
;	COMDAT ?KneeFont@CockpitManager@@QAEHXZ
_TEXT	SEGMENT
_this$ = -4						; size = 4
?KneeFont@CockpitManager@@QAEHXZ PROC			; CockpitManager::KneeFont, COMDAT
; _this$ = ecx

; 595  : 	int      KneeFont(void) { return mKneeFont;};

	push	ebp
	mov	ebp, esp
	push	ecx
	mov	DWORD PTR _this$[ebp], ecx
	mov	eax, DWORD PTR _this$[ebp]
	mov	eax, DWORD PTR [eax+84]
	mov	esp, ebp
	pop	ebp
	ret	0
?KneeFont@CockpitManager@@QAEHXZ ENDP			; CockpitManager::KneeFont
_TEXT	ENDS
; Function compile flags: /Odtp
; File c:\users\zhitao li\documents\visual studio 2012\projects\freefalcon\campaign\include\campwp.h
;	COMDAT ?GetNextWP@WayPointClass@@QAEPAV1@XZ
_TEXT	SEGMENT
_this$ = -4						; size = 4
?GetNextWP@WayPointClass@@QAEPAV1@XZ PROC		; WayPointClass::GetNextWP, COMDAT
; _this$ = ecx

; 175  : 	WayPoint GetNextWP (void)						{ return NextWP; }

	push	ebp
	mov	ebp, esp
	push	ecx
	mov	DWORD PTR _this$[ebp], ecx
	mov	eax, DWORD PTR _this$[ebp]
	mov	eax, DWORD PTR [eax+44]
	mov	esp, ebp
	pop	ebp
	ret	0
?GetNextWP@WayPointClass@@QAEPAV1@XZ ENDP		; WayPointClass::GetNextWP
_TEXT	ENDS
; Function compile flags: /Odtp
; File c:\users\zhitao li\documents\visual studio 2012\projects\freefalcon\sim\include\cpobject.h
;	COMDAT ?DisplayBlit3D@CPObject@@UAEXXZ
_TEXT	SEGMENT
_this$ = -4						; size = 4
?DisplayBlit3D@CPObject@@UAEXXZ PROC			; CPObject::DisplayBlit3D, COMDAT
; _this$ = ecx

; 115  : 	virtual void DisplayBlit3D() { };

	push	ebp
	mov	ebp, esp
	push	ecx
	mov	DWORD PTR _this$[ebp], ecx
	mov	esp, ebp
	pop	ebp
	ret	0
?DisplayBlit3D@CPObject@@UAEXXZ ENDP			; CPObject::DisplayBlit3D
_TEXT	ENDS
; Function compile flags: /Odtp
; File c:\users\zhitao li\documents\visual studio 2012\projects\freefalcon\sim\include\cpobject.h
;	COMDAT ?Translate@CPObject@@UAEXPAK@Z
_TEXT	SEGMENT
_this$ = -4						; size = 4
___formal$ = 8						; size = 4
?Translate@CPObject@@UAEXPAK@Z PROC			; CPObject::Translate, COMDAT
; _this$ = ecx

; 112  : 	virtual void	Translate(DWORD*) {};		// OW added for 32 Bit rendering

	push	ebp
	mov	ebp, esp
	push	ecx
	mov	DWORD PTR _this$[ebp], ecx
	mov	esp, ebp
	pop	ebp
	ret	4
?Translate@CPObject@@UAEXPAK@Z ENDP			; CPObject::Translate
_TEXT	ENDS
; Function compile flags: /Odtp
; File c:\users\zhitao li\documents\visual studio 2012\projects\freefalcon\sim\include\cpobject.h
;	COMDAT ?Translate@CPObject@@UAEXPAG@Z
_TEXT	SEGMENT
_this$ = -4						; size = 4
___formal$ = 8						; size = 4
?Translate@CPObject@@UAEXPAG@Z PROC			; CPObject::Translate, COMDAT
; _this$ = ecx

; 111  : 	virtual void	Translate(WORD*) {};

	push	ebp
	mov	ebp, esp
	push	ecx
	mov	DWORD PTR _this$[ebp], ecx
	mov	esp, ebp
	pop	ebp
	ret	4
?Translate@CPObject@@UAEXPAG@Z ENDP			; CPObject::Translate
_TEXT	ENDS
; Function compile flags: /Odtp
; File c:\users\zhitao li\documents\visual studio 2012\projects\freefalcon\sim\include\cpobject.h
;	COMDAT ?CreateLit@CPObject@@UAEXXZ
_TEXT	SEGMENT
_this$ = -4						; size = 4
?CreateLit@CPObject@@UAEXXZ PROC			; CPObject::CreateLit, COMDAT
; _this$ = ecx

; 109  : 	virtual void 	CreateLit(void){};

	push	ebp
	mov	ebp, esp
	push	ecx
	mov	DWORD PTR _this$[ebp], ecx
	mov	esp, ebp
	pop	ebp
	ret	0
?CreateLit@CPObject@@UAEXXZ ENDP			; CPObject::CreateLit
_TEXT	ENDS
; Function compile flags: /Odtp
; File c:\users\zhitao li\documents\visual studio 2012\projects\freefalcon\sim\include\cpobject.h
;	COMDAT ?HandleEvent@CPObject@@UAEXXZ
_TEXT	SEGMENT
_this$ = -4						; size = 4
?HandleEvent@CPObject@@UAEXXZ PROC			; CPObject::HandleEvent, COMDAT
; _this$ = ecx

; 107  : 	virtual void	HandleEvent(void) {};

	push	ebp
	mov	ebp, esp
	push	ecx
	mov	DWORD PTR _this$[ebp], ecx
	mov	esp, ebp
	pop	ebp
	ret	0
?HandleEvent@CPObject@@UAEXXZ ENDP			; CPObject::HandleEvent
_TEXT	ENDS
; Function compile flags: /Odtp
; File c:\users\zhitao li\documents\visual studio 2012\projects\freefalcon\graphics\include\device.h
;	COMDAT ?IsHardware@DisplayDevice@@QAEHXZ
_TEXT	SEGMENT
_this$ = -8						; size = 4
tv67 = -4						; size = 4
?IsHardware@DisplayDevice@@QAEHXZ PROC			; DisplayDevice::IsHardware, COMDAT
; _this$ = ecx

; 24   : 	BOOL			IsHardware( void )				{ ShiAssert(IsReady());  return m_DXCtx->m_eDeviceCategory > DXContext::D3DDeviceCategory_Software; };

	push	ebp
	mov	ebp, esp
	sub	esp, 8
	mov	DWORD PTR _this$[ebp], ecx
	mov	eax, DWORD PTR _this$[ebp]
	mov	ecx, DWORD PTR [eax]
	cmp	DWORD PTR [ecx+60], 1
	jle	SHORT $LN3@IsHardware
	mov	DWORD PTR tv67[ebp], 1
	jmp	SHORT $LN4@IsHardware
$LN3@IsHardware:
	mov	DWORD PTR tv67[ebp], 0
$LN4@IsHardware:
	mov	eax, DWORD PTR tv67[ebp]
	mov	esp, ebp
	pop	ebp
	ret	0
?IsHardware@DisplayDevice@@QAEHXZ ENDP			; DisplayDevice::IsHardware
_TEXT	ENDS
; Function compile flags: /Odtp
; File c:\users\zhitao li\documents\visual studio 2012\projects\freefalcon\sim\include\simbase.h
;	COMDAT ?GetCampaignObject@SimBaseClass@@QAEPAVCampBaseClass@@XZ
_TEXT	SEGMENT
_this$ = -4						; size = 4
?GetCampaignObject@SimBaseClass@@QAEPAVCampBaseClass@@XZ PROC ; SimBaseClass::GetCampaignObject, COMDAT
; _this$ = ecx

; 212  : 	CampBaseClass *GetCampaignObject (void) { return campaignObject.get(); }

	push	ebp
	mov	ebp, esp
	push	ecx
	mov	DWORD PTR _this$[ebp], ecx
	mov	ecx, DWORD PTR _this$[ebp]
	add	ecx, 144				; 00000090H
	call	?get@?$VuBin@VCampBaseClass@@@@QBEPAVCampBaseClass@@XZ ; VuBin<CampBaseClass>::get
	mov	esp, ebp
	pop	ebp
	ret	0
?GetCampaignObject@SimBaseClass@@QAEPAVCampBaseClass@@XZ ENDP ; SimBaseClass::GetCampaignObject
_TEXT	ENDS
; Function compile flags: /Odtp
; File c:\users\zhitao li\documents\visual studio 2012\projects\freefalcon\vu2\include\vu_templates.h
;	COMDAT ?get@?$VuBin@VCampBaseClass@@@@QBEPAVCampBaseClass@@XZ
_TEXT	SEGMENT
_this$ = -4						; size = 4
?get@?$VuBin@VCampBaseClass@@@@QBEPAVCampBaseClass@@XZ PROC ; VuBin<CampBaseClass>::get, COMDAT
; _this$ = ecx

; 55   : 	E *get() const{

	push	ebp
	mov	ebp, esp
	push	ecx
	mov	DWORD PTR _this$[ebp], ecx

; 56   : 		return e;

	mov	eax, DWORD PTR _this$[ebp]
	mov	eax, DWORD PTR [eax]

; 57   : 	}

	mov	esp, ebp
	pop	ebp
	ret	0
?get@?$VuBin@VCampBaseClass@@@@QBEPAVCampBaseClass@@XZ ENDP ; VuBin<CampBaseClass>::get
_TEXT	ENDS
; Function compile flags: /Odtp
;	COMDAT ??_GRender2D@@UAEPAXI@Z
_TEXT	SEGMENT
_this$ = -4						; size = 4
___flags$ = 8						; size = 4
??_GRender2D@@UAEPAXI@Z PROC				; Render2D::`scalar deleting destructor', COMDAT
; _this$ = ecx
	push	ebp
	mov	ebp, esp
	push	ecx
	mov	DWORD PTR _this$[ebp], ecx
	mov	ecx, DWORD PTR _this$[ebp]
	call	??1Render2D@@UAE@XZ			; Render2D::~Render2D
	mov	eax, DWORD PTR ___flags$[ebp]
	and	eax, 1
	je	SHORT $LN1@scalar
	mov	ecx, DWORD PTR _this$[ebp]
	push	ecx
	call	??3@YAXPAX@Z				; operator delete
	add	esp, 4
$LN1@scalar:
	mov	eax, DWORD PTR _this$[ebp]
	mov	esp, ebp
	pop	ebp
	ret	4
??_GRender2D@@UAEPAXI@Z ENDP				; Render2D::`scalar deleting destructor'
_TEXT	ENDS
; Function compile flags: /Odtp
; File c:\users\zhitao li\documents\visual studio 2012\projects\freefalcon\graphics\include\render2d.h
;	COMDAT ?SetLineStyle@Render2D@@UAEXH@Z
_TEXT	SEGMENT
_this$ = -4						; size = 4
___formal$ = 8						; size = 4
?SetLineStyle@Render2D@@UAEXH@Z PROC			; Render2D::SetLineStyle, COMDAT
; _this$ = ecx

; 60   : 	virtual void SetLineStyle (int) {};

	push	ebp
	mov	ebp, esp
	push	ecx
	mov	DWORD PTR _this$[ebp], ecx
	mov	esp, ebp
	pop	ebp
	ret	4
?SetLineStyle@Render2D@@UAEXH@Z ENDP			; Render2D::SetLineStyle
_TEXT	ENDS
; Function compile flags: /Odtp
; File c:\users\zhitao li\documents\visual studio 2012\projects\freefalcon\graphics\include\render2d.h
;	COMDAT ?SetBackground@Render2D@@UAEXK@Z
_TEXT	SEGMENT
_this$ = -4						; size = 4
_packedRGBA$ = 8					; size = 4
?SetBackground@Render2D@@UAEXK@Z PROC			; Render2D::SetBackground, COMDAT
; _this$ = ecx

; 50   : 	virtual void SetBackground(DWORD packedRGBA){ context.SetState(MPR_STA_BG_COLOR,packedRGBA); };

	push	ebp
	mov	ebp, esp
	push	ecx
	mov	DWORD PTR _this$[ebp], ecx
	mov	eax, DWORD PTR _packedRGBA$[ebp]
	push	eax
	push	10					; 0000000aH
	mov	ecx, DWORD PTR _this$[ebp]
	add	ecx, 100				; 00000064H
	call	?SetState@ContextMPR@@QAEXGK@Z		; ContextMPR::SetState
	mov	esp, ebp
	pop	ebp
	ret	4
?SetBackground@Render2D@@UAEXK@Z ENDP			; Render2D::SetBackground
_TEXT	ENDS
; Function compile flags: /Odtp
; File c:\users\zhitao li\documents\visual studio 2012\projects\freefalcon\graphics\include\render2d.h
;	COMDAT ?SetColor@Render2D@@UAEXK@Z
_TEXT	SEGMENT
_this$ = -4						; size = 4
_packedRGBA$ = 8					; size = 4
?SetColor@Render2D@@UAEXK@Z PROC			; Render2D::SetColor, COMDAT
; _this$ = ecx

; 49   : 	virtual void SetColor(DWORD packedRGBA)	{ context.RestoreState(STATE_SOLID); context.SelectForegroundColor(packedRGBA); };

	push	ebp
	mov	ebp, esp
	push	ecx
	mov	DWORD PTR _this$[ebp], ecx
	push	0
	mov	ecx, DWORD PTR _this$[ebp]
	add	ecx, 100				; 00000064H
	call	?RestoreState@ContextMPR@@QAEXH@Z	; ContextMPR::RestoreState
	mov	eax, DWORD PTR _packedRGBA$[ebp]
	push	eax
	mov	ecx, DWORD PTR _this$[ebp]
	add	ecx, 100				; 00000064H
	call	?SelectForegroundColor@ContextMPR@@QAEXH@Z ; ContextMPR::SelectForegroundColor
	mov	esp, ebp
	pop	ebp
	ret	4
?SetColor@Render2D@@UAEXK@Z ENDP			; Render2D::SetColor
_TEXT	ENDS
; Function compile flags: /Odtp
; File c:\users\zhitao li\documents\visual studio 2012\projects\freefalcon\graphics\include\render2d.h
;	COMDAT ?Color@Render2D@@UAEKXZ
_TEXT	SEGMENT
_this$ = -4						; size = 4
?Color@Render2D@@UAEKXZ PROC				; Render2D::Color, COMDAT
; _this$ = ecx

; 48   : 	virtual DWORD Color(void) { return context.CurrentForegroundColor(); };

	push	ebp
	mov	ebp, esp
	push	ecx
	mov	DWORD PTR _this$[ebp], ecx
	mov	ecx, DWORD PTR _this$[ebp]
	add	ecx, 100				; 00000064H
	call	?CurrentForegroundColor@ContextMPR@@QAEHXZ ; ContextMPR::CurrentForegroundColor
	mov	esp, ebp
	pop	ebp
	ret	0
?Color@Render2D@@UAEKXZ ENDP				; Render2D::Color
_TEXT	ENDS
; Function compile flags: /Odtp
; File c:\users\zhitao li\documents\visual studio 2012\projects\freefalcon\graphics\include\render2d.h
;	COMDAT ?ClearZBuffer@Render2D@@UAEXXZ
_TEXT	SEGMENT
_this$ = -4						; size = 4
?ClearZBuffer@Render2D@@UAEXXZ PROC			; Render2D::ClearZBuffer, COMDAT
; _this$ = ecx

; 42   : 	virtual void ClearZBuffer( void )	{ context.ClearBuffers( MPR_CI_ZBUFFER ); };

	push	ebp
	mov	ebp, esp
	push	ecx
	mov	DWORD PTR _this$[ebp], ecx
	push	4
	mov	ecx, DWORD PTR _this$[ebp]
	add	ecx, 100				; 00000064H
	call	?ClearBuffers@ContextMPR@@QAEXG@Z	; ContextMPR::ClearBuffers
	mov	esp, ebp
	pop	ebp
	ret	0
?ClearZBuffer@Render2D@@UAEXXZ ENDP			; Render2D::ClearZBuffer
_TEXT	ENDS
; Function compile flags: /Odtp
; File c:\users\zhitao li\documents\visual studio 2012\projects\freefalcon\graphics\include\render2d.h
;	COMDAT ?ClearDraw@Render2D@@UAEXXZ
_TEXT	SEGMENT
_this$ = -4						; size = 4
?ClearDraw@Render2D@@UAEXXZ PROC			; Render2D::ClearDraw, COMDAT
; _this$ = ecx

; 41   : 	virtual void ClearDraw( void )		{ context.ClearBuffers( MPR_CI_DRAW_BUFFER ); };

	push	ebp
	mov	ebp, esp
	push	ecx
	mov	DWORD PTR _this$[ebp], ecx
	push	1
	mov	ecx, DWORD PTR _this$[ebp]
	add	ecx, 100				; 00000064H
	call	?ClearBuffers@ContextMPR@@QAEXG@Z	; ContextMPR::ClearBuffers
	mov	esp, ebp
	pop	ebp
	ret	0
?ClearDraw@Render2D@@UAEXXZ ENDP			; Render2D::ClearDraw
_TEXT	ENDS
; Function compile flags: /Odtp
; File c:\users\zhitao li\documents\visual studio 2012\projects\freefalcon\graphics\include\render2d.h
;	COMDAT ??1Render2D@@UAE@XZ
_TEXT	SEGMENT
_this$ = -4						; size = 4
??1Render2D@@UAE@XZ PROC				; Render2D::~Render2D, COMDAT
; _this$ = ecx

; 32   : 	virtual ~Render2D()	{};

	push	ebp
	mov	ebp, esp
	push	ecx
	mov	DWORD PTR _this$[ebp], ecx
	mov	eax, DWORD PTR _this$[ebp]
	mov	DWORD PTR [eax], OFFSET ??_7Render2D@@6B@
	mov	ecx, DWORD PTR _this$[ebp]
	call	??1VirtualDisplay@@UAE@XZ		; VirtualDisplay::~VirtualDisplay
	mov	esp, ebp
	pop	ebp
	ret	0
??1Render2D@@UAE@XZ ENDP				; Render2D::~Render2D
_TEXT	ENDS
; Function compile flags: /Odtp
; File c:\users\zhitao li\documents\visual studio 2012\projects\freefalcon\graphics\include\render2d.h
;	COMDAT ??0Render2D@@QAE@XZ
_TEXT	SEGMENT
_this$ = -4						; size = 4
??0Render2D@@QAE@XZ PROC				; Render2D::Render2D, COMDAT
; _this$ = ecx

; 31   : 	Render2D()			{};

	push	ebp
	mov	ebp, esp
	push	ecx
	mov	DWORD PTR _this$[ebp], ecx
	mov	ecx, DWORD PTR _this$[ebp]
	call	??0VirtualDisplay@@QAE@XZ		; VirtualDisplay::VirtualDisplay
	mov	eax, DWORD PTR _this$[ebp]
	mov	DWORD PTR [eax], OFFSET ??_7Render2D@@6B@
	mov	eax, DWORD PTR _this$[ebp]
	mov	esp, ebp
	pop	ebp
	ret	0
??0Render2D@@QAE@XZ ENDP				; Render2D::Render2D
_TEXT	ENDS
; Function compile flags: /Odtp
;	COMDAT ??_GVirtualDisplay@@UAEPAXI@Z
_TEXT	SEGMENT
_this$ = -4						; size = 4
___flags$ = 8						; size = 4
??_GVirtualDisplay@@UAEPAXI@Z PROC			; VirtualDisplay::`scalar deleting destructor', COMDAT
; _this$ = ecx
	push	ebp
	mov	ebp, esp
	push	ecx
	mov	DWORD PTR _this$[ebp], ecx
	mov	ecx, DWORD PTR _this$[ebp]
	call	??1VirtualDisplay@@UAE@XZ		; VirtualDisplay::~VirtualDisplay
	mov	eax, DWORD PTR ___flags$[ebp]
	and	eax, 1
	je	SHORT $LN1@scalar
	mov	ecx, DWORD PTR _this$[ebp]
	push	ecx
	call	??3@YAXPAX@Z				; operator delete
	add	esp, 4
$LN1@scalar:
	mov	eax, DWORD PTR _this$[ebp]
	mov	esp, ebp
	pop	ebp
	ret	4
??_GVirtualDisplay@@UAEPAXI@Z ENDP			; VirtualDisplay::`scalar deleting destructor'
_TEXT	ENDS
; Function compile flags: /Odtp
; File c:\users\zhitao li\documents\visual studio 2012\projects\freefalcon\graphics\include\display.h
;	COMDAT ?CenterOriginInViewport@VirtualDisplay@@QAEXXZ
_TEXT	SEGMENT
_this$ = -4						; size = 4
?CenterOriginInViewport@VirtualDisplay@@QAEXXZ PROC	; VirtualDisplay::CenterOriginInViewport, COMDAT
; _this$ = ecx

; 143  : 	void CenterOriginInViewport( void )  { dmatrix.translationX = 0.0f; dmatrix.translationY = 0.0f; };

	push	ebp
	mov	ebp, esp
	push	ecx
	mov	DWORD PTR _this$[ebp], ecx
	mov	eax, DWORD PTR _this$[ebp]
	movss	xmm0, DWORD PTR __real@00000000
	movss	DWORD PTR [eax+68], xmm0
	mov	ecx, DWORD PTR _this$[ebp]
	movss	xmm0, DWORD PTR __real@00000000
	movss	DWORD PTR [ecx+72], xmm0
	mov	esp, ebp
	pop	ebp
	ret	0
?CenterOriginInViewport@VirtualDisplay@@QAEXXZ ENDP	; VirtualDisplay::CenterOriginInViewport
_TEXT	ENDS
; Function compile flags: /Odtp
; File c:\users\zhitao li\documents\visual studio 2012\projects\freefalcon\graphics\include\display.h
;	COMDAT ?Color@VirtualDisplay@@UAEKXZ
_TEXT	SEGMENT
_this$ = -4						; size = 4
?Color@VirtualDisplay@@UAEKXZ PROC			; VirtualDisplay::Color, COMDAT
; _this$ = ecx

; 136  : 	virtual DWORD Color( void )	{return 0x0; };

	push	ebp
	mov	ebp, esp
	push	ecx
	mov	DWORD PTR _this$[ebp], ecx
	xor	eax, eax
	mov	esp, ebp
	pop	ebp
	ret	0
?Color@VirtualDisplay@@UAEKXZ ENDP			; VirtualDisplay::Color
_TEXT	ENDS
; Function compile flags: /Odtp
; File c:\users\zhitao li\documents\visual studio 2012\projects\freefalcon\graphics\include\display.h
;	COMDAT ?SetLineStyle@VirtualDisplay@@UAEXH@Z
_TEXT	SEGMENT
_this$ = -4						; size = 4
___formal$ = 8						; size = 4
?SetLineStyle@VirtualDisplay@@UAEXH@Z PROC		; VirtualDisplay::SetLineStyle, COMDAT
; _this$ = ecx

; 135  : 	virtual void SetLineStyle (int) {};

	push	ebp
	mov	ebp, esp
	push	ecx
	mov	DWORD PTR _this$[ebp], ecx
	mov	esp, ebp
	pop	ebp
	ret	4
?SetLineStyle@VirtualDisplay@@UAEXH@Z ENDP		; VirtualDisplay::SetLineStyle
_TEXT	ENDS
; Function compile flags: /Odtp
; File c:\users\zhitao li\documents\visual studio 2012\projects\freefalcon\graphics\include\display.h
;	COMDAT ?CurFont@VirtualDisplay@@SAHXZ
_TEXT	SEGMENT
?CurFont@VirtualDisplay@@SAHXZ PROC			; VirtualDisplay::CurFont, COMDAT

; 132  : 	static int CurFont(void) { return pFontSet->fontNum; };

	push	ebp
	mov	ebp, esp
	mov	eax, DWORD PTR ?pFontSet@VirtualDisplay@@2PAUFontSet@@A ; VirtualDisplay::pFontSet
	mov	eax, DWORD PTR [eax+24672]
	pop	ebp
	ret	0
?CurFont@VirtualDisplay@@SAHXZ ENDP			; VirtualDisplay::CurFont
_TEXT	ENDS
; Function compile flags: /Odtp
; File c:\users\zhitao li\documents\visual studio 2012\projects\freefalcon\graphics\include\display.h
;	COMDAT ?TextHeight@VirtualDisplay@@UAEMXZ
_TEXT	SEGMENT
tv71 = -8						; size = 4
_this$ = -4						; size = 4
?TextHeight@VirtualDisplay@@UAEMXZ PROC			; VirtualDisplay::TextHeight, COMDAT
; _this$ = ecx

; 121  : 	virtual float TextHeight(void)			{ return ScreenTextHeight()/scaleY; };		// normalized screen space

	push	ebp
	mov	ebp, esp
	sub	esp, 8
	mov	DWORD PTR _this$[ebp], ecx
	call	?ScreenTextHeight@VirtualDisplay@@SAHXZ	; VirtualDisplay::ScreenTextHeight
	cvtsi2ss xmm0, eax
	mov	eax, DWORD PTR _this$[ebp]
	divss	xmm0, DWORD PTR [eax+36]
	movss	DWORD PTR tv71[ebp], xmm0
	fld	DWORD PTR tv71[ebp]
	mov	esp, ebp
	pop	ebp
	ret	0
?TextHeight@VirtualDisplay@@UAEMXZ ENDP			; VirtualDisplay::TextHeight
_TEXT	ENDS
; Function compile flags: /Odtp
; File c:\users\zhitao li\documents\visual studio 2012\projects\freefalcon\graphics\include\display.h
;	COMDAT ?TextWidth@VirtualDisplay@@UAEMPAD@Z
_TEXT	SEGMENT
tv73 = -8						; size = 4
_this$ = -4						; size = 4
_string$ = 8						; size = 4
?TextWidth@VirtualDisplay@@UAEMPAD@Z PROC		; VirtualDisplay::TextWidth, COMDAT
; _this$ = ecx

; 120  : 	virtual float TextWidth(char *string)	{ return ScreenTextWidth(string)/scaleX; };	// normalized screen space

	push	ebp
	mov	ebp, esp
	sub	esp, 8
	mov	DWORD PTR _this$[ebp], ecx
	mov	eax, DWORD PTR _string$[ebp]
	push	eax
	call	?ScreenTextWidth@VirtualDisplay@@SAHPBD@Z ; VirtualDisplay::ScreenTextWidth
	add	esp, 4
	cvtsi2ss xmm0, eax
	mov	ecx, DWORD PTR _this$[ebp]
	divss	xmm0, DWORD PTR [ecx+32]
	movss	DWORD PTR tv73[ebp], xmm0
	fld	DWORD PTR tv73[ebp]
	mov	esp, ebp
	pop	ebp
	ret	4
?TextWidth@VirtualDisplay@@UAEMPAD@Z ENDP		; VirtualDisplay::TextWidth
_TEXT	ENDS
; Function compile flags: /Odtp
; File c:\users\zhitao li\documents\visual studio 2012\projects\freefalcon\graphics\include\display.h
;	COMDAT ?Arc@VirtualDisplay@@UAEXMMMMM@Z
_TEXT	SEGMENT
_this$ = -4						; size = 4
_x$ = 8							; size = 4
_y$ = 12						; size = 4
_xRadius$ = 16						; size = 4
_start$ = 20						; size = 4
_stop$ = 24						; size = 4
?Arc@VirtualDisplay@@UAEXMMMMM@Z PROC			; VirtualDisplay::Arc, COMDAT
; _this$ = ecx

; 109  : 		{ OvalArc(x, y, xRadius, xRadius*scaleX/scaleY, start, stop); };

	push	ebp
	mov	ebp, esp
	push	ecx
	mov	DWORD PTR _this$[ebp], ecx
	push	ecx
	movss	xmm0, DWORD PTR _stop$[ebp]
	movss	DWORD PTR [esp], xmm0
	push	ecx
	movss	xmm0, DWORD PTR _start$[ebp]
	movss	DWORD PTR [esp], xmm0
	mov	eax, DWORD PTR _this$[ebp]
	movss	xmm0, DWORD PTR _xRadius$[ebp]
	mulss	xmm0, DWORD PTR [eax+32]
	mov	ecx, DWORD PTR _this$[ebp]
	divss	xmm0, DWORD PTR [ecx+36]
	push	ecx
	movss	DWORD PTR [esp], xmm0
	push	ecx
	movss	xmm0, DWORD PTR _xRadius$[ebp]
	movss	DWORD PTR [esp], xmm0
	push	ecx
	movss	xmm0, DWORD PTR _y$[ebp]
	movss	DWORD PTR [esp], xmm0
	push	ecx
	movss	xmm0, DWORD PTR _x$[ebp]
	movss	DWORD PTR [esp], xmm0
	mov	edx, DWORD PTR _this$[ebp]
	mov	eax, DWORD PTR [edx]
	mov	ecx, DWORD PTR _this$[ebp]
	mov	edx, DWORD PTR [eax+44]
	call	edx
	mov	esp, ebp
	pop	ebp
	ret	20					; 00000014H
?Arc@VirtualDisplay@@UAEXMMMMM@Z ENDP			; VirtualDisplay::Arc
_TEXT	ENDS
; Function compile flags: /Odtp
; File c:\users\zhitao li\documents\visual studio 2012\projects\freefalcon\graphics\include\display.h
;	COMDAT ?Circle@VirtualDisplay@@UAEXMMM@Z
_TEXT	SEGMENT
_this$ = -4						; size = 4
_x$ = 8							; size = 4
_y$ = 12						; size = 4
_xRadius$ = 16						; size = 4
?Circle@VirtualDisplay@@UAEXMMM@Z PROC			; VirtualDisplay::Circle, COMDAT
; _this$ = ecx

; 107  : 		{ Oval(x, y, xRadius, xRadius*scaleX/scaleY); };

	push	ebp
	mov	ebp, esp
	push	ecx
	mov	DWORD PTR _this$[ebp], ecx
	mov	eax, DWORD PTR _this$[ebp]
	movss	xmm0, DWORD PTR _xRadius$[ebp]
	mulss	xmm0, DWORD PTR [eax+32]
	mov	ecx, DWORD PTR _this$[ebp]
	divss	xmm0, DWORD PTR [ecx+36]
	push	ecx
	movss	DWORD PTR [esp], xmm0
	push	ecx
	movss	xmm0, DWORD PTR _xRadius$[ebp]
	movss	DWORD PTR [esp], xmm0
	push	ecx
	movss	xmm0, DWORD PTR _y$[ebp]
	movss	DWORD PTR [esp], xmm0
	push	ecx
	movss	xmm0, DWORD PTR _x$[ebp]
	movss	DWORD PTR [esp], xmm0
	mov	edx, DWORD PTR _this$[ebp]
	mov	eax, DWORD PTR [edx]
	mov	ecx, DWORD PTR _this$[ebp]
	mov	edx, DWORD PTR [eax+40]
	call	edx
	mov	esp, ebp
	pop	ebp
	ret	12					; 0000000cH
?Circle@VirtualDisplay@@UAEXMMM@Z ENDP			; VirtualDisplay::Circle
_TEXT	ENDS
; Function compile flags: /Odtp
; File c:\users\zhitao li\documents\visual studio 2012\projects\freefalcon\graphics\include\display.h
;	COMDAT ??1VirtualDisplay@@UAE@XZ
_TEXT	SEGMENT
_this$ = -4						; size = 4
??1VirtualDisplay@@UAE@XZ PROC				; VirtualDisplay::~VirtualDisplay, COMDAT
; _this$ = ecx

; 86   :     virtual ~VirtualDisplay()	{ ShiAssert( ready == FALSE ); }

	push	ebp
	mov	ebp, esp
	push	ecx
	mov	DWORD PTR _this$[ebp], ecx
	mov	eax, DWORD PTR _this$[ebp]
	mov	DWORD PTR [eax], OFFSET ??_7VirtualDisplay@@6B@
	mov	ecx, DWORD PTR _this$[ebp]
	add	ecx, 100				; 00000064H
	call	??1ContextMPR@@UAE@XZ			; ContextMPR::~ContextMPR
	mov	esp, ebp
	pop	ebp
	ret	0
??1VirtualDisplay@@UAE@XZ ENDP				; VirtualDisplay::~VirtualDisplay
_TEXT	ENDS
; Function compile flags: /Odtp
; File c:\users\zhitao li\documents\visual studio 2012\projects\freefalcon\graphics\include\display.h
;	COMDAT ??0VirtualDisplay@@QAE@XZ
_TEXT	SEGMENT
_this$ = -4						; size = 4
??0VirtualDisplay@@QAE@XZ PROC				; VirtualDisplay::VirtualDisplay, COMDAT
; _this$ = ecx

; 85   :     VirtualDisplay()			{ ready = FALSE; tLeft = tTop = tRight = tBottom = txRes = tyRes = 0; }

	push	ebp
	mov	ebp, esp
	push	ecx
	mov	DWORD PTR _this$[ebp], ecx
	mov	eax, DWORD PTR _this$[ebp]
	mov	DWORD PTR [eax], OFFSET ??_7VirtualDisplay@@6B@
	mov	ecx, DWORD PTR _this$[ebp]
	add	ecx, 100				; 00000064H
	call	??0ContextMPR@@QAE@XZ			; ContextMPR::ContextMPR
	mov	ecx, DWORD PTR _this$[ebp]
	mov	DWORD PTR [ecx+92], 0
	mov	edx, DWORD PTR _this$[ebp]
	mov	DWORD PTR [edx+262776], 0
	mov	eax, DWORD PTR _this$[ebp]
	mov	DWORD PTR [eax+262772], 0
	mov	ecx, DWORD PTR _this$[ebp]
	mov	DWORD PTR [ecx+262768], 0
	mov	edx, DWORD PTR _this$[ebp]
	mov	DWORD PTR [edx+262764], 0
	mov	eax, DWORD PTR _this$[ebp]
	mov	DWORD PTR [eax+262760], 0
	mov	ecx, DWORD PTR _this$[ebp]
	mov	DWORD PTR [ecx+262756], 0
	mov	eax, DWORD PTR _this$[ebp]
	mov	esp, ebp
	pop	ebp
	ret	0
??0VirtualDisplay@@QAE@XZ ENDP				; VirtualDisplay::VirtualDisplay
_TEXT	ENDS
; Function compile flags: /Odtp
; File c:\users\zhitao li\documents\visual studio 2012\projects\freefalcon\graphics\include\imagebuf.h
;	COMDAT ?Pixel@ImageBuffer@@QAEPAXPAXHH@Z
_TEXT	SEGMENT
_this$ = -4						; size = 4
_ptr$ = 8						; size = 4
_row$ = 12						; size = 4
_col$ = 16						; size = 4
?Pixel@ImageBuffer@@QAEPAXPAXHH@Z PROC			; ImageBuffer::Pixel, COMDAT
; _this$ = ecx

; 70   : 	void* Pixel( void* ptr, int row, int col )	  { ShiAssert( ptr );

	push	ebp
	mov	ebp, esp
	push	ecx
	push	esi
	mov	DWORD PTR _this$[ebp], ecx

; 71   : 											return (BYTE*)ptr + 
; 72   : 											  row*m_ddsdBack.lPitch + 
; 73   : 											  col*PixelSize(); };

	mov	eax, DWORD PTR _this$[ebp]
	mov	esi, DWORD PTR _row$[ebp]
	imul	esi, DWORD PTR [eax+184]
	add	esi, DWORD PTR _ptr$[ebp]
	mov	ecx, DWORD PTR _this$[ebp]
	call	?PixelSize@ImageBuffer@@QAEHXZ		; ImageBuffer::PixelSize
	imul	eax, DWORD PTR _col$[ebp]
	add	eax, esi
	pop	esi
	mov	esp, ebp
	pop	ebp
	ret	12					; 0000000cH
?Pixel@ImageBuffer@@QAEPAXPAXHH@Z ENDP			; ImageBuffer::Pixel
_TEXT	ENDS
; Function compile flags: /Odtp
; File c:\users\zhitao li\documents\visual studio 2012\projects\freefalcon\graphics\include\imagebuf.h
;	COMDAT ?PixelSize@ImageBuffer@@QAEHXZ
_TEXT	SEGMENT
_this$ = -4						; size = 4
?PixelSize@ImageBuffer@@QAEHXZ PROC			; ImageBuffer::PixelSize, COMDAT
; _this$ = ecx

; 56   : 	int	PixelSize() { return m_ddsdFront.ddpfPixelFormat.dwRGBBitCount >>3; };

	push	ebp
	mov	ebp, esp
	push	ecx
	mov	DWORD PTR _this$[ebp], ecx
	mov	eax, DWORD PTR _this$[ebp]
	mov	eax, DWORD PTR [eax+100]
	shr	eax, 3
	mov	esp, ebp
	pop	ebp
	ret	0
?PixelSize@ImageBuffer@@QAEHXZ ENDP			; ImageBuffer::PixelSize
_TEXT	ENDS
; Function compile flags: /Odtp
; File c:\users\zhitao li\documents\visual studio 2012\projects\freefalcon\graphics\include\imagebuf.h
;	COMDAT ?targetYres@ImageBuffer@@QAEHXZ
_TEXT	SEGMENT
_this$ = -4						; size = 4
?targetYres@ImageBuffer@@QAEHXZ PROC			; ImageBuffer::targetYres, COMDAT
; _this$ = ecx

; 46   : 	int	targetYres()	{ return height; };

	push	ebp
	mov	ebp, esp
	push	ecx
	mov	DWORD PTR _this$[ebp], ecx
	mov	eax, DWORD PTR _this$[ebp]
	mov	eax, DWORD PTR [eax+296]
	mov	esp, ebp
	pop	ebp
	ret	0
