; Listing generated by Microsoft (R) Optimizing Compiler Version 17.00.51106.1 

	TITLE	C:\Users\Zhitao Li\Documents\Visual Studio 2012\Projects\Freefalcon\UI\SRC\general\viewer.cpp
	.686P
	.XMM
	include listing.inc
	.model	flat

INCLUDELIB LIBCMT
INCLUDELIB OLDNAMES

PUBLIC	?value@?$integral_constant@_N$0A@@std@@2_NB	; std::integral_constant<bool,0>::value
PUBLIC	?is_signed@?$numeric_limits@_W@std@@2_NB	; std::numeric_limits<wchar_t>::is_signed
PUBLIC	?digits@?$numeric_limits@_W@std@@2HB		; std::numeric_limits<wchar_t>::digits
PUBLIC	?digits10@?$numeric_limits@_W@std@@2HB		; std::numeric_limits<wchar_t>::digits10
PUBLIC	?value@?$integral_constant@_N$00@std@@2_NB	; std::integral_constant<bool,1>::value
PUBLIC	?is_modulo@?$numeric_limits@_N@std@@2_NB	; std::numeric_limits<bool>::is_modulo
PUBLIC	?is_signed@?$numeric_limits@_N@std@@2_NB	; std::numeric_limits<bool>::is_signed
PUBLIC	?digits@?$numeric_limits@_N@std@@2HB		; std::numeric_limits<bool>::digits
PUBLIC	?digits10@?$numeric_limits@_N@std@@2HB		; std::numeric_limits<bool>::digits10
PUBLIC	?is_signed@?$numeric_limits@C@std@@2_NB		; std::numeric_limits<signed char>::is_signed
PUBLIC	?Recon@@3UOBJECTINFO@@A				; Recon
PUBLIC	?digits@?$numeric_limits@C@std@@2HB		; std::numeric_limits<signed char>::digits
PUBLIC	?digits10@?$numeric_limits@C@std@@2HB		; std::numeric_limits<signed char>::digits10
PUBLIC	?UIrend3d@@3PAVRender3D@@A			; UIrend3d
PUBLIC	?UIviewPoint@@3PAVRViewPoint@@A			; UIviewPoint
PUBLIC	?is_signed@?$numeric_limits@E@std@@2_NB		; std::numeric_limits<unsigned char>::is_signed
PUBLIC	?digits@?$numeric_limits@E@std@@2HB		; std::numeric_limits<unsigned char>::digits
PUBLIC	?digits10@?$numeric_limits@E@std@@2HB		; std::numeric_limits<unsigned char>::digits10
PUBLIC	?collate@?$_Locbase@H@std@@2HB			; std::_Locbase<int>::collate
PUBLIC	?ctype@?$_Locbase@H@std@@2HB			; std::_Locbase<int>::ctype
PUBLIC	?monetary@?$_Locbase@H@std@@2HB			; std::_Locbase<int>::monetary
PUBLIC	?numeric@?$_Locbase@H@std@@2HB			; std::_Locbase<int>::numeric
PUBLIC	?time@?$_Locbase@H@std@@2HB			; std::_Locbase<int>::time
PUBLIC	?messages@?$_Locbase@H@std@@2HB			; std::_Locbase<int>::messages
PUBLIC	?all@?$_Locbase@H@std@@2HB			; std::_Locbase<int>::all
PUBLIC	?is_signed@?$numeric_limits@F@std@@2_NB		; std::numeric_limits<short>::is_signed
PUBLIC	?none@?$_Locbase@H@std@@2HB			; std::_Locbase<int>::none
PUBLIC	?digits@?$numeric_limits@F@std@@2HB		; std::numeric_limits<short>::digits
PUBLIC	?digits10@?$numeric_limits@F@std@@2HB		; std::numeric_limits<short>::digits10
PUBLIC	?is_signed@?$numeric_limits@G@std@@2_NB		; std::numeric_limits<unsigned short>::is_signed
PUBLIC	?digits@?$numeric_limits@G@std@@2HB		; std::numeric_limits<unsigned short>::digits
PUBLIC	?digits10@?$numeric_limits@G@std@@2HB		; std::numeric_limits<unsigned short>::digits10
PUBLIC	?is_signed@?$numeric_limits@H@std@@2_NB		; std::numeric_limits<int>::is_signed
PUBLIC	?value@?$_Sizeof@HU_Nil@std@@U12@U12@U12@U12@U12@U12@@std@@2IB ; std::_Sizeof<int,std::_Nil,std::_Nil,std::_Nil,std::_Nil,std::_Nil,std::_Nil,std::_Nil>::value
PUBLIC	?digits@?$numeric_limits@H@std@@2HB		; std::numeric_limits<int>::digits
PUBLIC	?digits10@?$numeric_limits@H@std@@2HB		; std::numeric_limits<int>::digits10
PUBLIC	?table_size@?$ctype@D@std@@2IB			; std::ctype<char>::table_size
PUBLIC	?is_signed@?$numeric_limits@I@std@@2_NB		; std::numeric_limits<unsigned int>::is_signed
PUBLIC	?digits@?$numeric_limits@I@std@@2HB		; std::numeric_limits<unsigned int>::digits
PUBLIC	?digits10@?$numeric_limits@I@std@@2HB		; std::numeric_limits<unsigned int>::digits10
PUBLIC	?is_signed@?$numeric_limits@J@std@@2_NB		; std::numeric_limits<long>::is_signed
PUBLIC	?digits@?$numeric_limits@J@std@@2HB		; std::numeric_limits<long>::digits
PUBLIC	?digits10@?$numeric_limits@J@std@@2HB		; std::numeric_limits<long>::digits10
PUBLIC	?is_signed@?$numeric_limits@K@std@@2_NB		; std::numeric_limits<unsigned long>::is_signed
PUBLIC	?digits@?$numeric_limits@K@std@@2HB		; std::numeric_limits<unsigned long>::digits
PUBLIC	?digits10@?$numeric_limits@K@std@@2HB		; std::numeric_limits<unsigned long>::digits10
PUBLIC	?is_signed@?$numeric_limits@_J@std@@2_NB	; std::numeric_limits<__int64>::is_signed
PUBLIC	?digits@?$numeric_limits@_J@std@@2HB		; std::numeric_limits<__int64>::digits
PUBLIC	?digits10@?$numeric_limits@_J@std@@2HB		; std::numeric_limits<__int64>::digits10
PUBLIC	?SIMDIRTYDATA_INTERVAL@FalconEntity@@2KB	; FalconEntity::SIMDIRTYDATA_INTERVAL
PUBLIC	?CMPDIRTYDATA_INTERVAL@FalconEntity@@2KB	; FalconEntity::CMPDIRTYDATA_INTERVAL
PUBLIC	?is_signed@?$numeric_limits@_K@std@@2_NB	; std::numeric_limits<unsigned __int64>::is_signed
PUBLIC	?digits@?$numeric_limits@_K@std@@2HB		; std::numeric_limits<unsigned __int64>::digits
PUBLIC	?digits10@?$numeric_limits@_K@std@@2HB		; std::numeric_limits<unsigned __int64>::digits10
PUBLIC	?digits@?$numeric_limits@M@std@@2HB		; std::numeric_limits<float>::digits
PUBLIC	?digits10@?$numeric_limits@M@std@@2HB		; std::numeric_limits<float>::digits10
PUBLIC	?max_digits10@?$numeric_limits@M@std@@2HB	; std::numeric_limits<float>::max_digits10
PUBLIC	?max_exponent@?$numeric_limits@M@std@@2HB	; std::numeric_limits<float>::max_exponent
PUBLIC	?max_exponent10@?$numeric_limits@M@std@@2HB	; std::numeric_limits<float>::max_exponent10
PUBLIC	?min_exponent@?$numeric_limits@M@std@@2HB	; std::numeric_limits<float>::min_exponent
PUBLIC	?min_exponent10@?$numeric_limits@M@std@@2HB	; std::numeric_limits<float>::min_exponent10
PUBLIC	?value@?$integral_constant@I$0A@@std@@2IB	; std::integral_constant<unsigned int,0>::value
PUBLIC	?digits@?$numeric_limits@N@std@@2HB		; std::numeric_limits<double>::digits
PUBLIC	?digits10@?$numeric_limits@N@std@@2HB		; std::numeric_limits<double>::digits10
PUBLIC	?max_digits10@?$numeric_limits@N@std@@2HB	; std::numeric_limits<double>::max_digits10
PUBLIC	?max_exponent@?$numeric_limits@N@std@@2HB	; std::numeric_limits<double>::max_exponent
PUBLIC	?max_exponent10@?$numeric_limits@N@std@@2HB	; std::numeric_limits<double>::max_exponent10
PUBLIC	?min_exponent@?$numeric_limits@N@std@@2HB	; std::numeric_limits<double>::min_exponent
PUBLIC	?min_exponent10@?$numeric_limits@N@std@@2HB	; std::numeric_limits<double>::min_exponent10
PUBLIC	?digits@?$numeric_limits@O@std@@2HB		; std::numeric_limits<long double>::digits
PUBLIC	?digits10@?$numeric_limits@O@std@@2HB		; std::numeric_limits<long double>::digits10
PUBLIC	?max_digits10@?$numeric_limits@O@std@@2HB	; std::numeric_limits<long double>::max_digits10
PUBLIC	?max_exponent@?$numeric_limits@O@std@@2HB	; std::numeric_limits<long double>::max_exponent
PUBLIC	?max_exponent10@?$numeric_limits@O@std@@2HB	; std::numeric_limits<long double>::max_exponent10
PUBLIC	?min_exponent@?$numeric_limits@O@std@@2HB	; std::numeric_limits<long double>::min_exponent
PUBLIC	?min_exponent10@?$numeric_limits@O@std@@2HB	; std::numeric_limits<long double>::min_exponent10
PUBLIC	?gBSPList@@3PAVC_BSPList@@A			; gBSPList
PUBLIC	?value@?$_Sizeof@U_Nil@std@@U12@U12@U12@U12@U12@U12@U12@@std@@2IB ; std::_Sizeof<std::_Nil,std::_Nil,std::_Nil,std::_Nil,std::_Nil,std::_Nil,std::_Nil,std::_Nil>::value
PUBLIC	?skipws@?$_Iosb@H@std@@2W4_Fmtflags@12@B	; std::_Iosb<int>::skipws
PUBLIC	?unitbuf@?$_Iosb@H@std@@2W4_Fmtflags@12@B	; std::_Iosb<int>::unitbuf
PUBLIC	?uppercase@?$_Iosb@H@std@@2W4_Fmtflags@12@B	; std::_Iosb<int>::uppercase
PUBLIC	?showbase@?$_Iosb@H@std@@2W4_Fmtflags@12@B	; std::_Iosb<int>::showbase
PUBLIC	?showpoint@?$_Iosb@H@std@@2W4_Fmtflags@12@B	; std::_Iosb<int>::showpoint
PUBLIC	?showpos@?$_Iosb@H@std@@2W4_Fmtflags@12@B	; std::_Iosb<int>::showpos
PUBLIC	?left@?$_Iosb@H@std@@2W4_Fmtflags@12@B		; std::_Iosb<int>::left
PUBLIC	?right@?$_Iosb@H@std@@2W4_Fmtflags@12@B		; std::_Iosb<int>::right
PUBLIC	?internal@?$_Iosb@H@std@@2W4_Fmtflags@12@B	; std::_Iosb<int>::internal
PUBLIC	?dec@?$_Iosb@H@std@@2W4_Fmtflags@12@B		; std::_Iosb<int>::dec
PUBLIC	?oct@?$_Iosb@H@std@@2W4_Fmtflags@12@B		; std::_Iosb<int>::oct
PUBLIC	?hex@?$_Iosb@H@std@@2W4_Fmtflags@12@B		; std::_Iosb<int>::hex
PUBLIC	?scientific@?$_Iosb@H@std@@2W4_Fmtflags@12@B	; std::_Iosb<int>::scientific
PUBLIC	?fixed@?$_Iosb@H@std@@2W4_Fmtflags@12@B		; std::_Iosb<int>::fixed
PUBLIC	?hexfloat@?$_Iosb@H@std@@2W4_Fmtflags@12@B	; std::_Iosb<int>::hexfloat
PUBLIC	?boolalpha@?$_Iosb@H@std@@2W4_Fmtflags@12@B	; std::_Iosb<int>::boolalpha
PUBLIC	?_Stdio@?$_Iosb@H@std@@2W4_Fmtflags@12@B	; std::_Iosb<int>::_Stdio
PUBLIC	?adjustfield@?$_Iosb@H@std@@2W4_Fmtflags@12@B	; std::_Iosb<int>::adjustfield
PUBLIC	?basefield@?$_Iosb@H@std@@2W4_Fmtflags@12@B	; std::_Iosb<int>::basefield
PUBLIC	?floatfield@?$_Iosb@H@std@@2W4_Fmtflags@12@B	; std::_Iosb<int>::floatfield
PUBLIC	?goodbit@?$_Iosb@H@std@@2W4_Iostate@12@B	; std::_Iosb<int>::goodbit
PUBLIC	?eofbit@?$_Iosb@H@std@@2W4_Iostate@12@B		; std::_Iosb<int>::eofbit
PUBLIC	?failbit@?$_Iosb@H@std@@2W4_Iostate@12@B	; std::_Iosb<int>::failbit
PUBLIC	?has_denorm@_Num_base@std@@2W4float_denorm_style@2@B ; std::_Num_base::has_denorm
PUBLIC	?badbit@?$_Iosb@H@std@@2W4_Iostate@12@B		; std::_Iosb<int>::badbit
PUBLIC	?has_denorm_loss@_Num_base@std@@2_NB		; std::_Num_base::has_denorm_loss
PUBLIC	?_Hardfail@?$_Iosb@H@std@@2W4_Iostate@12@B	; std::_Iosb<int>::_Hardfail
PUBLIC	?has_infinity@_Num_base@std@@2_NB		; std::_Num_base::has_infinity
PUBLIC	?has_quiet_NaN@_Num_base@std@@2_NB		; std::_Num_base::has_quiet_NaN
PUBLIC	?in@?$_Iosb@H@std@@2W4_Openmode@12@B		; std::_Iosb<int>::in
PUBLIC	?out@?$_Iosb@H@std@@2W4_Openmode@12@B		; std::_Iosb<int>::out
PUBLIC	?has_signaling_NaN@_Num_base@std@@2_NB		; std::_Num_base::has_signaling_NaN
PUBLIC	?ate@?$_Iosb@H@std@@2W4_Openmode@12@B		; std::_Iosb<int>::ate
PUBLIC	?is_bounded@_Num_base@std@@2_NB			; std::_Num_base::is_bounded
PUBLIC	?is_exact@_Num_base@std@@2_NB			; std::_Num_base::is_exact
PUBLIC	?app@?$_Iosb@H@std@@2W4_Openmode@12@B		; std::_Iosb<int>::app
PUBLIC	?is_iec559@_Num_base@std@@2_NB			; std::_Num_base::is_iec559
PUBLIC	?trunc@?$_Iosb@H@std@@2W4_Openmode@12@B		; std::_Iosb<int>::trunc
PUBLIC	?_Nocreate@?$_Iosb@H@std@@2W4_Openmode@12@B	; std::_Iosb<int>::_Nocreate
PUBLIC	?is_integer@_Num_base@std@@2_NB			; std::_Num_base::is_integer
PUBLIC	?_Noreplace@?$_Iosb@H@std@@2W4_Openmode@12@B	; std::_Iosb<int>::_Noreplace
PUBLIC	?is_modulo@_Num_base@std@@2_NB			; std::_Num_base::is_modulo
PUBLIC	?is_signed@_Num_base@std@@2_NB			; std::_Num_base::is_signed
PUBLIC	?binary@?$_Iosb@H@std@@2W4_Openmode@12@B	; std::_Iosb<int>::binary
PUBLIC	?is_specialized@_Num_base@std@@2_NB		; std::_Num_base::is_specialized
PUBLIC	?beg@?$_Iosb@H@std@@2W4_Seekdir@12@B		; std::_Iosb<int>::beg
PUBLIC	?tinyness_before@_Num_base@std@@2_NB		; std::_Num_base::tinyness_before
PUBLIC	?cur@?$_Iosb@H@std@@2W4_Seekdir@12@B		; std::_Iosb<int>::cur
PUBLIC	?traps@_Num_base@std@@2_NB			; std::_Num_base::traps
PUBLIC	?end@?$_Iosb@H@std@@2W4_Seekdir@12@B		; std::_Iosb<int>::end
PUBLIC	?round_style@_Num_base@std@@2W4float_round_style@2@B ; std::_Num_base::round_style
PUBLIC	?digits@_Num_base@std@@2HB			; std::_Num_base::digits
PUBLIC	?digits10@_Num_base@std@@2HB			; std::_Num_base::digits10
PUBLIC	?max_digits10@_Num_base@std@@2HB		; std::_Num_base::max_digits10
PUBLIC	?max_exponent@_Num_base@std@@2HB		; std::_Num_base::max_exponent
PUBLIC	?max_exponent10@_Num_base@std@@2HB		; std::_Num_base::max_exponent10
PUBLIC	?min_exponent@_Num_base@std@@2HB		; std::_Num_base::min_exponent
PUBLIC	?min_exponent10@_Num_base@std@@2HB		; std::_Num_base::min_exponent10
PUBLIC	?radix@_Num_base@std@@2HB			; std::_Num_base::radix
PUBLIC	?_Stream_err@failure@ios_base@std@@0W4io_errc@43@B ; std::ios_base::failure::_Stream_err
PUBLIC	?is_bounded@_Num_int_base@std@@2_NB		; std::_Num_int_base::is_bounded
PUBLIC	?is_exact@_Num_int_base@std@@2_NB		; std::_Num_int_base::is_exact
PUBLIC	?is_integer@_Num_int_base@std@@2_NB		; std::_Num_int_base::is_integer
PUBLIC	?is_modulo@_Num_int_base@std@@2_NB		; std::_Num_int_base::is_modulo
PUBLIC	?is_specialized@_Num_int_base@std@@2_NB		; std::_Num_int_base::is_specialized
PUBLIC	?radix@_Num_int_base@std@@2HB			; std::_Num_int_base::radix
PUBLIC	?has_denorm@_Num_float_base@std@@2W4float_denorm_style@2@B ; std::_Num_float_base::has_denorm
PUBLIC	?has_denorm_loss@_Num_float_base@std@@2_NB	; std::_Num_float_base::has_denorm_loss
PUBLIC	?has_infinity@_Num_float_base@std@@2_NB		; std::_Num_float_base::has_infinity
PUBLIC	?has_quiet_NaN@_Num_float_base@std@@2_NB	; std::_Num_float_base::has_quiet_NaN
PUBLIC	?has_signaling_NaN@_Num_float_base@std@@2_NB	; std::_Num_float_base::has_signaling_NaN
PUBLIC	?is_bounded@_Num_float_base@std@@2_NB		; std::_Num_float_base::is_bounded
PUBLIC	?is_exact@_Num_float_base@std@@2_NB		; std::_Num_float_base::is_exact
PUBLIC	?is_iec559@_Num_float_base@std@@2_NB		; std::_Num_float_base::is_iec559
PUBLIC	?is_integer@_Num_float_base@std@@2_NB		; std::_Num_float_base::is_integer
PUBLIC	?is_modulo@_Num_float_base@std@@2_NB		; std::_Num_float_base::is_modulo
PUBLIC	?is_signed@_Num_float_base@std@@2_NB		; std::_Num_float_base::is_signed
PUBLIC	?is_specialized@_Num_float_base@std@@2_NB	; std::_Num_float_base::is_specialized
PUBLIC	?tinyness_before@_Num_float_base@std@@2_NB	; std::_Num_float_base::tinyness_before
PUBLIC	?traps@_Num_float_base@std@@2_NB		; std::_Num_float_base::traps
PUBLIC	?round_style@_Num_float_base@std@@2W4float_round_style@2@B ; std::_Num_float_base::round_style
PUBLIC	?radix@_Num_float_base@std@@2HB			; std::_Num_float_base::radix
PUBLIC	?is_signed@?$numeric_limits@D@std@@2_NB		; std::numeric_limits<char>::is_signed
PUBLIC	?digits@?$numeric_limits@D@std@@2HB		; std::numeric_limits<char>::digits
PUBLIC	?digits10@?$numeric_limits@D@std@@2HB		; std::numeric_limits<char>::digits10
_BSS	SEGMENT
?Recon@@3UOBJECTINFO@@A DB 03cH DUP (?)			; Recon
?UIrend3d@@3PAVRender3D@@A DD 01H DUP (?)		; UIrend3d
?UIviewPoint@@3PAVRViewPoint@@A DD 01H DUP (?)		; UIviewPoint
_UIrenderer DD	01H DUP (?)
_zeroPos DB	0cH DUP (?)
_viewPos DB	0cH DUP (?)
?gBSPList@@3PAVC_BSPList@@A DD 01H DUP (?)		; gBSPList
_BSS	ENDS
;	COMDAT ?digits10@?$numeric_limits@D@std@@2HB
CONST	SEGMENT
?digits10@?$numeric_limits@D@std@@2HB DD 02H		; std::numeric_limits<char>::digits10
CONST	ENDS
;	COMDAT ?digits@?$numeric_limits@D@std@@2HB
CONST	SEGMENT
?digits@?$numeric_limits@D@std@@2HB DD 07H		; std::numeric_limits<char>::digits
CONST	ENDS
;	COMDAT ?is_signed@?$numeric_limits@D@std@@2_NB
CONST	SEGMENT
?is_signed@?$numeric_limits@D@std@@2_NB DB 01H		; std::numeric_limits<char>::is_signed
CONST	ENDS
;	COMDAT ?radix@_Num_float_base@std@@2HB
CONST	SEGMENT
?radix@_Num_float_base@std@@2HB DD 02H			; std::_Num_float_base::radix
CONST	ENDS
;	COMDAT ?round_style@_Num_float_base@std@@2W4float_round_style@2@B
CONST	SEGMENT
?round_style@_Num_float_base@std@@2W4float_round_style@2@B DD 01H ; std::_Num_float_base::round_style
CONST	ENDS
;	COMDAT ?traps@_Num_float_base@std@@2_NB
CONST	SEGMENT
?traps@_Num_float_base@std@@2_NB DB 00H			; std::_Num_float_base::traps
CONST	ENDS
;	COMDAT ?tinyness_before@_Num_float_base@std@@2_NB
CONST	SEGMENT
?tinyness_before@_Num_float_base@std@@2_NB DB 01H	; std::_Num_float_base::tinyness_before
CONST	ENDS
;	COMDAT ?is_specialized@_Num_float_base@std@@2_NB
CONST	SEGMENT
?is_specialized@_Num_float_base@std@@2_NB DB 01H	; std::_Num_float_base::is_specialized
CONST	ENDS
;	COMDAT ?is_signed@_Num_float_base@std@@2_NB
CONST	SEGMENT
?is_signed@_Num_float_base@std@@2_NB DB 01H		; std::_Num_float_base::is_signed
CONST	ENDS
;	COMDAT ?is_modulo@_Num_float_base@std@@2_NB
CONST	SEGMENT
?is_modulo@_Num_float_base@std@@2_NB DB 00H		; std::_Num_float_base::is_modulo
CONST	ENDS
;	COMDAT ?is_integer@_Num_float_base@std@@2_NB
CONST	SEGMENT
?is_integer@_Num_float_base@std@@2_NB DB 00H		; std::_Num_float_base::is_integer
CONST	ENDS
;	COMDAT ?is_iec559@_Num_float_base@std@@2_NB
CONST	SEGMENT
?is_iec559@_Num_float_base@std@@2_NB DB 01H		; std::_Num_float_base::is_iec559
CONST	ENDS
;	COMDAT ?is_exact@_Num_float_base@std@@2_NB
CONST	SEGMENT
?is_exact@_Num_float_base@std@@2_NB DB 00H		; std::_Num_float_base::is_exact
CONST	ENDS
;	COMDAT ?is_bounded@_Num_float_base@std@@2_NB
CONST	SEGMENT
?is_bounded@_Num_float_base@std@@2_NB DB 01H		; std::_Num_float_base::is_bounded
CONST	ENDS
;	COMDAT ?has_signaling_NaN@_Num_float_base@std@@2_NB
CONST	SEGMENT
?has_signaling_NaN@_Num_float_base@std@@2_NB DB 01H	; std::_Num_float_base::has_signaling_NaN
CONST	ENDS
;	COMDAT ?has_quiet_NaN@_Num_float_base@std@@2_NB
CONST	SEGMENT
?has_quiet_NaN@_Num_float_base@std@@2_NB DB 01H		; std::_Num_float_base::has_quiet_NaN
CONST	ENDS
;	COMDAT ?has_infinity@_Num_float_base@std@@2_NB
CONST	SEGMENT
?has_infinity@_Num_float_base@std@@2_NB DB 01H		; std::_Num_float_base::has_infinity
CONST	ENDS
;	COMDAT ?has_denorm_loss@_Num_float_base@std@@2_NB
CONST	SEGMENT
?has_denorm_loss@_Num_float_base@std@@2_NB DB 01H	; std::_Num_float_base::has_denorm_loss
CONST	ENDS
;	COMDAT ?has_denorm@_Num_float_base@std@@2W4float_denorm_style@2@B
CONST	SEGMENT
?has_denorm@_Num_float_base@std@@2W4float_denorm_style@2@B DD 01H ; std::_Num_float_base::has_denorm
CONST	ENDS
;	COMDAT ?radix@_Num_int_base@std@@2HB
CONST	SEGMENT
?radix@_Num_int_base@std@@2HB DD 02H			; std::_Num_int_base::radix
CONST	ENDS
;	COMDAT ?is_specialized@_Num_int_base@std@@2_NB
CONST	SEGMENT
?is_specialized@_Num_int_base@std@@2_NB DB 01H		; std::_Num_int_base::is_specialized
CONST	ENDS
;	COMDAT ?is_modulo@_Num_int_base@std@@2_NB
CONST	SEGMENT
?is_modulo@_Num_int_base@std@@2_NB DB 01H		; std::_Num_int_base::is_modulo
CONST	ENDS
;	COMDAT ?is_integer@_Num_int_base@std@@2_NB
CONST	SEGMENT
?is_integer@_Num_int_base@std@@2_NB DB 01H		; std::_Num_int_base::is_integer
CONST	ENDS
;	COMDAT ?is_exact@_Num_int_base@std@@2_NB
CONST	SEGMENT
?is_exact@_Num_int_base@std@@2_NB DB 01H		; std::_Num_int_base::is_exact
CONST	ENDS
;	COMDAT ?is_bounded@_Num_int_base@std@@2_NB
CONST	SEGMENT
?is_bounded@_Num_int_base@std@@2_NB DB 01H		; std::_Num_int_base::is_bounded
CONST	ENDS
;	COMDAT ?_Stream_err@failure@ios_base@std@@0W4io_errc@43@B
CONST	SEGMENT
?_Stream_err@failure@ios_base@std@@0W4io_errc@43@B DD 01H ; std::ios_base::failure::_Stream_err
CONST	ENDS
;	COMDAT ?radix@_Num_base@std@@2HB
CONST	SEGMENT
?radix@_Num_base@std@@2HB DD 00H			; std::_Num_base::radix
CONST	ENDS
;	COMDAT ?min_exponent10@_Num_base@std@@2HB
CONST	SEGMENT
?min_exponent10@_Num_base@std@@2HB DD 00H		; std::_Num_base::min_exponent10
CONST	ENDS
;	COMDAT ?min_exponent@_Num_base@std@@2HB
CONST	SEGMENT
?min_exponent@_Num_base@std@@2HB DD 00H			; std::_Num_base::min_exponent
CONST	ENDS
;	COMDAT ?max_exponent10@_Num_base@std@@2HB
CONST	SEGMENT
?max_exponent10@_Num_base@std@@2HB DD 00H		; std::_Num_base::max_exponent10
CONST	ENDS
;	COMDAT ?max_exponent@_Num_base@std@@2HB
CONST	SEGMENT
?max_exponent@_Num_base@std@@2HB DD 00H			; std::_Num_base::max_exponent
CONST	ENDS
;	COMDAT ?max_digits10@_Num_base@std@@2HB
CONST	SEGMENT
?max_digits10@_Num_base@std@@2HB DD 00H			; std::_Num_base::max_digits10
CONST	ENDS
;	COMDAT ?digits10@_Num_base@std@@2HB
CONST	SEGMENT
?digits10@_Num_base@std@@2HB DD 00H			; std::_Num_base::digits10
CONST	ENDS
;	COMDAT ?digits@_Num_base@std@@2HB
CONST	SEGMENT
?digits@_Num_base@std@@2HB DD 00H			; std::_Num_base::digits
CONST	ENDS
;	COMDAT ?round_style@_Num_base@std@@2W4float_round_style@2@B
CONST	SEGMENT
?round_style@_Num_base@std@@2W4float_round_style@2@B DD 00H ; std::_Num_base::round_style
CONST	ENDS
;	COMDAT ?end@?$_Iosb@H@std@@2W4_Seekdir@12@B
CONST	SEGMENT
?end@?$_Iosb@H@std@@2W4_Seekdir@12@B DD 02H		; std::_Iosb<int>::end
CONST	ENDS
;	COMDAT ?traps@_Num_base@std@@2_NB
CONST	SEGMENT
?traps@_Num_base@std@@2_NB DB 00H			; std::_Num_base::traps
CONST	ENDS
;	COMDAT ?cur@?$_Iosb@H@std@@2W4_Seekdir@12@B
CONST	SEGMENT
?cur@?$_Iosb@H@std@@2W4_Seekdir@12@B DD 01H		; std::_Iosb<int>::cur
CONST	ENDS
;	COMDAT ?tinyness_before@_Num_base@std@@2_NB
CONST	SEGMENT
?tinyness_before@_Num_base@std@@2_NB DB 00H		; std::_Num_base::tinyness_before
CONST	ENDS
;	COMDAT ?beg@?$_Iosb@H@std@@2W4_Seekdir@12@B
CONST	SEGMENT
?beg@?$_Iosb@H@std@@2W4_Seekdir@12@B DD 00H		; std::_Iosb<int>::beg
CONST	ENDS
;	COMDAT ?is_specialized@_Num_base@std@@2_NB
CONST	SEGMENT
?is_specialized@_Num_base@std@@2_NB DB 00H		; std::_Num_base::is_specialized
CONST	ENDS
;	COMDAT ?binary@?$_Iosb@H@std@@2W4_Openmode@12@B
CONST	SEGMENT
?binary@?$_Iosb@H@std@@2W4_Openmode@12@B DD 020H	; std::_Iosb<int>::binary
CONST	ENDS
;	COMDAT ?is_signed@_Num_base@std@@2_NB
CONST	SEGMENT
?is_signed@_Num_base@std@@2_NB DB 00H			; std::_Num_base::is_signed
CONST	ENDS
;	COMDAT ?is_modulo@_Num_base@std@@2_NB
CONST	SEGMENT
?is_modulo@_Num_base@std@@2_NB DB 00H			; std::_Num_base::is_modulo
CONST	ENDS
;	COMDAT ?_Noreplace@?$_Iosb@H@std@@2W4_Openmode@12@B
CONST	SEGMENT
?_Noreplace@?$_Iosb@H@std@@2W4_Openmode@12@B DD 080H	; std::_Iosb<int>::_Noreplace
CONST	ENDS
;	COMDAT ?is_integer@_Num_base@std@@2_NB
CONST	SEGMENT
?is_integer@_Num_base@std@@2_NB DB 00H			; std::_Num_base::is_integer
CONST	ENDS
;	COMDAT ?_Nocreate@?$_Iosb@H@std@@2W4_Openmode@12@B
CONST	SEGMENT
?_Nocreate@?$_Iosb@H@std@@2W4_Openmode@12@B DD 040H	; std::_Iosb<int>::_Nocreate
CONST	ENDS
;	COMDAT ?trunc@?$_Iosb@H@std@@2W4_Openmode@12@B
CONST	SEGMENT
?trunc@?$_Iosb@H@std@@2W4_Openmode@12@B DD 010H		; std::_Iosb<int>::trunc
CONST	ENDS
;	COMDAT ?is_iec559@_Num_base@std@@2_NB
CONST	SEGMENT
?is_iec559@_Num_base@std@@2_NB DB 00H			; std::_Num_base::is_iec559
CONST	ENDS
;	COMDAT ?app@?$_Iosb@H@std@@2W4_Openmode@12@B
CONST	SEGMENT
?app@?$_Iosb@H@std@@2W4_Openmode@12@B DD 08H		; std::_Iosb<int>::app
CONST	ENDS
;	COMDAT ?is_exact@_Num_base@std@@2_NB
CONST	SEGMENT
?is_exact@_Num_base@std@@2_NB DB 00H			; std::_Num_base::is_exact
CONST	ENDS
;	COMDAT ?is_bounded@_Num_base@std@@2_NB
CONST	SEGMENT
?is_bounded@_Num_base@std@@2_NB DB 00H			; std::_Num_base::is_bounded
CONST	ENDS
;	COMDAT ?ate@?$_Iosb@H@std@@2W4_Openmode@12@B
CONST	SEGMENT
?ate@?$_Iosb@H@std@@2W4_Openmode@12@B DD 04H		; std::_Iosb<int>::ate
CONST	ENDS
;	COMDAT ?has_signaling_NaN@_Num_base@std@@2_NB
CONST	SEGMENT
?has_signaling_NaN@_Num_base@std@@2_NB DB 00H		; std::_Num_base::has_signaling_NaN
CONST	ENDS
;	COMDAT ?out@?$_Iosb@H@std@@2W4_Openmode@12@B
CONST	SEGMENT
?out@?$_Iosb@H@std@@2W4_Openmode@12@B DD 02H		; std::_Iosb<int>::out
CONST	ENDS
;	COMDAT ?in@?$_Iosb@H@std@@2W4_Openmode@12@B
CONST	SEGMENT
?in@?$_Iosb@H@std@@2W4_Openmode@12@B DD 01H		; std::_Iosb<int>::in
CONST	ENDS
;	COMDAT ?has_quiet_NaN@_Num_base@std@@2_NB
CONST	SEGMENT
?has_quiet_NaN@_Num_base@std@@2_NB DB 00H		; std::_Num_base::has_quiet_NaN
CONST	ENDS
;	COMDAT ?has_infinity@_Num_base@std@@2_NB
CONST	SEGMENT
?has_infinity@_Num_base@std@@2_NB DB 00H		; std::_Num_base::has_infinity
CONST	ENDS
;	COMDAT ?_Hardfail@?$_Iosb@H@std@@2W4_Iostate@12@B
CONST	SEGMENT
?_Hardfail@?$_Iosb@H@std@@2W4_Iostate@12@B DD 010H	; std::_Iosb<int>::_Hardfail
CONST	ENDS
;	COMDAT ?has_denorm_loss@_Num_base@std@@2_NB
CONST	SEGMENT
?has_denorm_loss@_Num_base@std@@2_NB DB 00H		; std::_Num_base::has_denorm_loss
CONST	ENDS
;	COMDAT ?badbit@?$_Iosb@H@std@@2W4_Iostate@12@B
CONST	SEGMENT
?badbit@?$_Iosb@H@std@@2W4_Iostate@12@B DD 04H		; std::_Iosb<int>::badbit
CONST	ENDS
;	COMDAT ?has_denorm@_Num_base@std@@2W4float_denorm_style@2@B
CONST	SEGMENT
?has_denorm@_Num_base@std@@2W4float_denorm_style@2@B DD 00H ; std::_Num_base::has_denorm
CONST	ENDS
;	COMDAT ?failbit@?$_Iosb@H@std@@2W4_Iostate@12@B
CONST	SEGMENT
?failbit@?$_Iosb@H@std@@2W4_Iostate@12@B DD 02H		; std::_Iosb<int>::failbit
CONST	ENDS
;	COMDAT ?eofbit@?$_Iosb@H@std@@2W4_Iostate@12@B
CONST	SEGMENT
?eofbit@?$_Iosb@H@std@@2W4_Iostate@12@B DD 01H		; std::_Iosb<int>::eofbit
CONST	ENDS
;	COMDAT ?goodbit@?$_Iosb@H@std@@2W4_Iostate@12@B
CONST	SEGMENT
?goodbit@?$_Iosb@H@std@@2W4_Iostate@12@B DD 00H		; std::_Iosb<int>::goodbit
CONST	ENDS
;	COMDAT ?floatfield@?$_Iosb@H@std@@2W4_Fmtflags@12@B
CONST	SEGMENT
?floatfield@?$_Iosb@H@std@@2W4_Fmtflags@12@B DD 03000H	; std::_Iosb<int>::floatfield
CONST	ENDS
;	COMDAT ?basefield@?$_Iosb@H@std@@2W4_Fmtflags@12@B
CONST	SEGMENT
?basefield@?$_Iosb@H@std@@2W4_Fmtflags@12@B DD 0e00H	; std::_Iosb<int>::basefield
CONST	ENDS
;	COMDAT ?adjustfield@?$_Iosb@H@std@@2W4_Fmtflags@12@B
CONST	SEGMENT
?adjustfield@?$_Iosb@H@std@@2W4_Fmtflags@12@B DD 01c0H	; std::_Iosb<int>::adjustfield
CONST	ENDS
;	COMDAT ?_Stdio@?$_Iosb@H@std@@2W4_Fmtflags@12@B
CONST	SEGMENT
?_Stdio@?$_Iosb@H@std@@2W4_Fmtflags@12@B DD 08000H	; std::_Iosb<int>::_Stdio
CONST	ENDS
;	COMDAT ?boolalpha@?$_Iosb@H@std@@2W4_Fmtflags@12@B
CONST	SEGMENT
?boolalpha@?$_Iosb@H@std@@2W4_Fmtflags@12@B DD 04000H	; std::_Iosb<int>::boolalpha
CONST	ENDS
;	COMDAT ?hexfloat@?$_Iosb@H@std@@2W4_Fmtflags@12@B
CONST	SEGMENT
?hexfloat@?$_Iosb@H@std@@2W4_Fmtflags@12@B DD 03000H	; std::_Iosb<int>::hexfloat
CONST	ENDS
;	COMDAT ?fixed@?$_Iosb@H@std@@2W4_Fmtflags@12@B
CONST	SEGMENT
?fixed@?$_Iosb@H@std@@2W4_Fmtflags@12@B DD 02000H	; std::_Iosb<int>::fixed
CONST	ENDS
;	COMDAT ?scientific@?$_Iosb@H@std@@2W4_Fmtflags@12@B
CONST	SEGMENT
?scientific@?$_Iosb@H@std@@2W4_Fmtflags@12@B DD 01000H	; std::_Iosb<int>::scientific
CONST	ENDS
;	COMDAT ?hex@?$_Iosb@H@std@@2W4_Fmtflags@12@B
CONST	SEGMENT
?hex@?$_Iosb@H@std@@2W4_Fmtflags@12@B DD 0800H		; std::_Iosb<int>::hex
CONST	ENDS
;	COMDAT ?oct@?$_Iosb@H@std@@2W4_Fmtflags@12@B
CONST	SEGMENT
?oct@?$_Iosb@H@std@@2W4_Fmtflags@12@B DD 0400H		; std::_Iosb<int>::oct
CONST	ENDS
;	COMDAT ?dec@?$_Iosb@H@std@@2W4_Fmtflags@12@B
CONST	SEGMENT
?dec@?$_Iosb@H@std@@2W4_Fmtflags@12@B DD 0200H		; std::_Iosb<int>::dec
CONST	ENDS
;	COMDAT ?internal@?$_Iosb@H@std@@2W4_Fmtflags@12@B
CONST	SEGMENT
?internal@?$_Iosb@H@std@@2W4_Fmtflags@12@B DD 0100H	; std::_Iosb<int>::internal
CONST	ENDS
;	COMDAT ?right@?$_Iosb@H@std@@2W4_Fmtflags@12@B
CONST	SEGMENT
?right@?$_Iosb@H@std@@2W4_Fmtflags@12@B DD 080H		; std::_Iosb<int>::right
CONST	ENDS
;	COMDAT ?left@?$_Iosb@H@std@@2W4_Fmtflags@12@B
CONST	SEGMENT
?left@?$_Iosb@H@std@@2W4_Fmtflags@12@B DD 040H		; std::_Iosb<int>::left
CONST	ENDS
;	COMDAT ?showpos@?$_Iosb@H@std@@2W4_Fmtflags@12@B
CONST	SEGMENT
?showpos@?$_Iosb@H@std@@2W4_Fmtflags@12@B DD 020H	; std::_Iosb<int>::showpos
CONST	ENDS
;	COMDAT ?showpoint@?$_Iosb@H@std@@2W4_Fmtflags@12@B
CONST	SEGMENT
?showpoint@?$_Iosb@H@std@@2W4_Fmtflags@12@B DD 010H	; std::_Iosb<int>::showpoint
CONST	ENDS
;	COMDAT ?showbase@?$_Iosb@H@std@@2W4_Fmtflags@12@B
CONST	SEGMENT
?showbase@?$_Iosb@H@std@@2W4_Fmtflags@12@B DD 08H	; std::_Iosb<int>::showbase
CONST	ENDS
;	COMDAT ?uppercase@?$_Iosb@H@std@@2W4_Fmtflags@12@B
CONST	SEGMENT
?uppercase@?$_Iosb@H@std@@2W4_Fmtflags@12@B DD 04H	; std::_Iosb<int>::uppercase
CONST	ENDS
;	COMDAT ?unitbuf@?$_Iosb@H@std@@2W4_Fmtflags@12@B
CONST	SEGMENT
?unitbuf@?$_Iosb@H@std@@2W4_Fmtflags@12@B DD 02H	; std::_Iosb<int>::unitbuf
CONST	ENDS
;	COMDAT ?skipws@?$_Iosb@H@std@@2W4_Fmtflags@12@B
CONST	SEGMENT
?skipws@?$_Iosb@H@std@@2W4_Fmtflags@12@B DD 01H		; std::_Iosb<int>::skipws
CONST	ENDS
;	COMDAT ?value@?$_Sizeof@U_Nil@std@@U12@U12@U12@U12@U12@U12@U12@@std@@2IB
CONST	SEGMENT
?value@?$_Sizeof@U_Nil@std@@U12@U12@U12@U12@U12@U12@U12@@std@@2IB DD 00H ; std::_Sizeof<std::_Nil,std::_Nil,std::_Nil,std::_Nil,std::_Nil,std::_Nil,std::_Nil,std::_Nil>::value
CONST	ENDS
;	COMDAT ?min_exponent10@?$numeric_limits@O@std@@2HB
CONST	SEGMENT
?min_exponent10@?$numeric_limits@O@std@@2HB DD 0fffffecdH ; std::numeric_limits<long double>::min_exponent10
CONST	ENDS
;	COMDAT ?min_exponent@?$numeric_limits@O@std@@2HB
CONST	SEGMENT
?min_exponent@?$numeric_limits@O@std@@2HB DD 0fffffc03H	; std::numeric_limits<long double>::min_exponent
CONST	ENDS
;	COMDAT ?max_exponent10@?$numeric_limits@O@std@@2HB
CONST	SEGMENT
?max_exponent10@?$numeric_limits@O@std@@2HB DD 0134H	; std::numeric_limits<long double>::max_exponent10
CONST	ENDS
;	COMDAT ?max_exponent@?$numeric_limits@O@std@@2HB
CONST	SEGMENT
?max_exponent@?$numeric_limits@O@std@@2HB DD 0400H	; std::numeric_limits<long double>::max_exponent
CONST	ENDS
;	COMDAT ?max_digits10@?$numeric_limits@O@std@@2HB
CONST	SEGMENT
?max_digits10@?$numeric_limits@O@std@@2HB DD 011H	; std::numeric_limits<long double>::max_digits10
CONST	ENDS
;	COMDAT ?digits10@?$numeric_limits@O@std@@2HB
CONST	SEGMENT
?digits10@?$numeric_limits@O@std@@2HB DD 0fH		; std::numeric_limits<long double>::digits10
CONST	ENDS
;	COMDAT ?digits@?$numeric_limits@O@std@@2HB
CONST	SEGMENT
?digits@?$numeric_limits@O@std@@2HB DD 035H		; std::numeric_limits<long double>::digits
CONST	ENDS
;	COMDAT ?min_exponent10@?$numeric_limits@N@std@@2HB
CONST	SEGMENT
?min_exponent10@?$numeric_limits@N@std@@2HB DD 0fffffecdH ; std::numeric_limits<double>::min_exponent10
CONST	ENDS
;	COMDAT ?min_exponent@?$numeric_limits@N@std@@2HB
CONST	SEGMENT
?min_exponent@?$numeric_limits@N@std@@2HB DD 0fffffc03H	; std::numeric_limits<double>::min_exponent
CONST	ENDS
;	COMDAT ?max_exponent10@?$numeric_limits@N@std@@2HB
CONST	SEGMENT
?max_exponent10@?$numeric_limits@N@std@@2HB DD 0134H	; std::numeric_limits<double>::max_exponent10
CONST	ENDS
;	COMDAT ?max_exponent@?$numeric_limits@N@std@@2HB
CONST	SEGMENT
?max_exponent@?$numeric_limits@N@std@@2HB DD 0400H	; std::numeric_limits<double>::max_exponent
CONST	ENDS
;	COMDAT ?max_digits10@?$numeric_limits@N@std@@2HB
CONST	SEGMENT
?max_digits10@?$numeric_limits@N@std@@2HB DD 011H	; std::numeric_limits<double>::max_digits10
CONST	ENDS
;	COMDAT ?digits10@?$numeric_limits@N@std@@2HB
CONST	SEGMENT
?digits10@?$numeric_limits@N@std@@2HB DD 0fH		; std::numeric_limits<double>::digits10
CONST	ENDS
;	COMDAT ?digits@?$numeric_limits@N@std@@2HB
CONST	SEGMENT
?digits@?$numeric_limits@N@std@@2HB DD 035H		; std::numeric_limits<double>::digits
CONST	ENDS
;	COMDAT ?value@?$integral_constant@I$0A@@std@@2IB
CONST	SEGMENT
?value@?$integral_constant@I$0A@@std@@2IB DD 00H	; std::integral_constant<unsigned int,0>::value
CONST	ENDS
;	COMDAT ?min_exponent10@?$numeric_limits@M@std@@2HB
CONST	SEGMENT
?min_exponent10@?$numeric_limits@M@std@@2HB DD 0ffffffdbH ; std::numeric_limits<float>::min_exponent10
CONST	ENDS
CONST	SEGMENT
_NEAR_CLIP DD	03f800000r			; 1
_L_2	DD	03f317218r			; 0.693147
CONST	ENDS
;	COMDAT ?min_exponent@?$numeric_limits@M@std@@2HB
CONST	SEGMENT
?min_exponent@?$numeric_limits@M@std@@2HB DD 0ffffff83H	; std::numeric_limits<float>::min_exponent
CONST	ENDS
;	COMDAT ?max_exponent10@?$numeric_limits@M@std@@2HB
CONST	SEGMENT
?max_exponent10@?$numeric_limits@M@std@@2HB DD 026H	; std::numeric_limits<float>::max_exponent10
CONST	ENDS
;	COMDAT ?max_exponent@?$numeric_limits@M@std@@2HB
CONST	SEGMENT
?max_exponent@?$numeric_limits@M@std@@2HB DD 080H	; std::numeric_limits<float>::max_exponent
CONST	ENDS
;	COMDAT ?max_digits10@?$numeric_limits@M@std@@2HB
CONST	SEGMENT
?max_digits10@?$numeric_limits@M@std@@2HB DD 09H	; std::numeric_limits<float>::max_digits10
CONST	ENDS
;	COMDAT ?digits10@?$numeric_limits@M@std@@2HB
CONST	SEGMENT
?digits10@?$numeric_limits@M@std@@2HB DD 06H		; std::numeric_limits<float>::digits10
CONST	ENDS
;	COMDAT ?digits@?$numeric_limits@M@std@@2HB
CONST	SEGMENT
?digits@?$numeric_limits@M@std@@2HB DD 018H		; std::numeric_limits<float>::digits
CONST	ENDS
;	COMDAT ?digits10@?$numeric_limits@_K@std@@2HB
CONST	SEGMENT
?digits10@?$numeric_limits@_K@std@@2HB DD 013H		; std::numeric_limits<unsigned __int64>::digits10
CONST	ENDS
;	COMDAT ?digits@?$numeric_limits@_K@std@@2HB
CONST	SEGMENT
?digits@?$numeric_limits@_K@std@@2HB DD 040H		; std::numeric_limits<unsigned __int64>::digits
CONST	ENDS
;	COMDAT ?is_signed@?$numeric_limits@_K@std@@2_NB
CONST	SEGMENT
?is_signed@?$numeric_limits@_K@std@@2_NB DB 00H		; std::numeric_limits<unsigned __int64>::is_signed
CONST	ENDS
;	COMDAT ?CMPDIRTYDATA_INTERVAL@FalconEntity@@2KB
CONST	SEGMENT
?CMPDIRTYDATA_INTERVAL@FalconEntity@@2KB DD 0c8H	; FalconEntity::CMPDIRTYDATA_INTERVAL
CONST	ENDS
;	COMDAT ?SIMDIRTYDATA_INTERVAL@FalconEntity@@2KB
CONST	SEGMENT
?SIMDIRTYDATA_INTERVAL@FalconEntity@@2KB DD 0c8H	; FalconEntity::SIMDIRTYDATA_INTERVAL
CONST	ENDS
;	COMDAT ?digits10@?$numeric_limits@_J@std@@2HB
CONST	SEGMENT
?digits10@?$numeric_limits@_J@std@@2HB DD 012H		; std::numeric_limits<__int64>::digits10
CONST	ENDS
;	COMDAT ?digits@?$numeric_limits@_J@std@@2HB
CONST	SEGMENT
?digits@?$numeric_limits@_J@std@@2HB DD 03fH		; std::numeric_limits<__int64>::digits
CONST	ENDS
;	COMDAT ?is_signed@?$numeric_limits@_J@std@@2_NB
CONST	SEGMENT
?is_signed@?$numeric_limits@_J@std@@2_NB DB 01H		; std::numeric_limits<__int64>::is_signed
CONST	ENDS
;	COMDAT ?digits10@?$numeric_limits@K@std@@2HB
CONST	SEGMENT
?digits10@?$numeric_limits@K@std@@2HB DD 09H		; std::numeric_limits<unsigned long>::digits10
CONST	ENDS
;	COMDAT ?digits@?$numeric_limits@K@std@@2HB
CONST	SEGMENT
?digits@?$numeric_limits@K@std@@2HB DD 020H		; std::numeric_limits<unsigned long>::digits
CONST	ENDS
;	COMDAT ?is_signed@?$numeric_limits@K@std@@2_NB
CONST	SEGMENT
?is_signed@?$numeric_limits@K@std@@2_NB DB 00H		; std::numeric_limits<unsigned long>::is_signed
CONST	ENDS
;	COMDAT ?digits10@?$numeric_limits@J@std@@2HB
CONST	SEGMENT
?digits10@?$numeric_limits@J@std@@2HB DD 09H		; std::numeric_limits<long>::digits10
CONST	ENDS
;	COMDAT ?digits@?$numeric_limits@J@std@@2HB
CONST	SEGMENT
?digits@?$numeric_limits@J@std@@2HB DD 01fH		; std::numeric_limits<long>::digits
CONST	ENDS
;	COMDAT ?is_signed@?$numeric_limits@J@std@@2_NB
CONST	SEGMENT
?is_signed@?$numeric_limits@J@std@@2_NB DB 01H		; std::numeric_limits<long>::is_signed
CONST	ENDS
;	COMDAT ?digits10@?$numeric_limits@I@std@@2HB
CONST	SEGMENT
?digits10@?$numeric_limits@I@std@@2HB DD 09H		; std::numeric_limits<unsigned int>::digits10
CONST	ENDS
;	COMDAT ?digits@?$numeric_limits@I@std@@2HB
CONST	SEGMENT
?digits@?$numeric_limits@I@std@@2HB DD 020H		; std::numeric_limits<unsigned int>::digits
CONST	ENDS
;	COMDAT ?is_signed@?$numeric_limits@I@std@@2_NB
CONST	SEGMENT
?is_signed@?$numeric_limits@I@std@@2_NB DB 00H		; std::numeric_limits<unsigned int>::is_signed
CONST	ENDS
;	COMDAT ?table_size@?$ctype@D@std@@2IB
CONST	SEGMENT
?table_size@?$ctype@D@std@@2IB DD 0100H			; std::ctype<char>::table_size
CONST	ENDS
;	COMDAT ?digits10@?$numeric_limits@H@std@@2HB
CONST	SEGMENT
?digits10@?$numeric_limits@H@std@@2HB DD 09H		; std::numeric_limits<int>::digits10
CONST	ENDS
;	COMDAT ?digits@?$numeric_limits@H@std@@2HB
CONST	SEGMENT
?digits@?$numeric_limits@H@std@@2HB DD 01fH		; std::numeric_limits<int>::digits
CONST	ENDS
;	COMDAT ?value@?$_Sizeof@HU_Nil@std@@U12@U12@U12@U12@U12@U12@@std@@2IB
CONST	SEGMENT
?value@?$_Sizeof@HU_Nil@std@@U12@U12@U12@U12@U12@U12@@std@@2IB DD 01H ; std::_Sizeof<int,std::_Nil,std::_Nil,std::_Nil,std::_Nil,std::_Nil,std::_Nil,std::_Nil>::value
CONST	ENDS
;	COMDAT ?is_signed@?$numeric_limits@H@std@@2_NB
CONST	SEGMENT
?is_signed@?$numeric_limits@H@std@@2_NB DB 01H		; std::numeric_limits<int>::is_signed
CONST	ENDS
;	COMDAT ?digits10@?$numeric_limits@G@std@@2HB
CONST	SEGMENT
?digits10@?$numeric_limits@G@std@@2HB DD 04H		; std::numeric_limits<unsigned short>::digits10
CONST	ENDS
;	COMDAT ?digits@?$numeric_limits@G@std@@2HB
CONST	SEGMENT
?digits@?$numeric_limits@G@std@@2HB DD 010H		; std::numeric_limits<unsigned short>::digits
CONST	ENDS
;	COMDAT ?is_signed@?$numeric_limits@G@std@@2_NB
CONST	SEGMENT
?is_signed@?$numeric_limits@G@std@@2_NB DB 00H		; std::numeric_limits<unsigned short>::is_signed
CONST	ENDS
;	COMDAT ?digits10@?$numeric_limits@F@std@@2HB
CONST	SEGMENT
?digits10@?$numeric_limits@F@std@@2HB DD 04H		; std::numeric_limits<short>::digits10
CONST	ENDS
;	COMDAT ?digits@?$numeric_limits@F@std@@2HB
CONST	SEGMENT
?digits@?$numeric_limits@F@std@@2HB DD 0fH		; std::numeric_limits<short>::digits
CONST	ENDS
;	COMDAT ?none@?$_Locbase@H@std@@2HB
CONST	SEGMENT
?none@?$_Locbase@H@std@@2HB DD 00H			; std::_Locbase<int>::none
CONST	ENDS
;	COMDAT ?is_signed@?$numeric_limits@F@std@@2_NB
CONST	SEGMENT
?is_signed@?$numeric_limits@F@std@@2_NB DB 01H		; std::numeric_limits<short>::is_signed
CONST	ENDS
;	COMDAT ?all@?$_Locbase@H@std@@2HB
CONST	SEGMENT
?all@?$_Locbase@H@std@@2HB DD 03fH			; std::_Locbase<int>::all
CONST	ENDS
;	COMDAT ?messages@?$_Locbase@H@std@@2HB
CONST	SEGMENT
?messages@?$_Locbase@H@std@@2HB DD 020H			; std::_Locbase<int>::messages
CONST	ENDS
;	COMDAT ?time@?$_Locbase@H@std@@2HB
CONST	SEGMENT
?time@?$_Locbase@H@std@@2HB DD 010H			; std::_Locbase<int>::time
CONST	ENDS
;	COMDAT ?numeric@?$_Locbase@H@std@@2HB
CONST	SEGMENT
?numeric@?$_Locbase@H@std@@2HB DD 08H			; std::_Locbase<int>::numeric
CONST	ENDS
;	COMDAT ?monetary@?$_Locbase@H@std@@2HB
CONST	SEGMENT
?monetary@?$_Locbase@H@std@@2HB DD 04H			; std::_Locbase<int>::monetary
CONST	ENDS
;	COMDAT ?ctype@?$_Locbase@H@std@@2HB
CONST	SEGMENT
?ctype@?$_Locbase@H@std@@2HB DD 02H			; std::_Locbase<int>::ctype
CONST	ENDS
;	COMDAT ?collate@?$_Locbase@H@std@@2HB
CONST	SEGMENT
?collate@?$_Locbase@H@std@@2HB DD 01H			; std::_Locbase<int>::collate
CONST	ENDS
;	COMDAT ?digits10@?$numeric_limits@E@std@@2HB
CONST	SEGMENT
?digits10@?$numeric_limits@E@std@@2HB DD 02H		; std::numeric_limits<unsigned char>::digits10
CONST	ENDS
;	COMDAT ?digits@?$numeric_limits@E@std@@2HB
CONST	SEGMENT
?digits@?$numeric_limits@E@std@@2HB DD 08H		; std::numeric_limits<unsigned char>::digits
CONST	ENDS
;	COMDAT ?is_signed@?$numeric_limits@E@std@@2_NB
CONST	SEGMENT
?is_signed@?$numeric_limits@E@std@@2_NB DB 00H		; std::numeric_limits<unsigned char>::is_signed
CONST	ENDS
_DATA	SEGMENT
_currentObj DD	0ffffffffH
_CountryNames DD 065H
	DD	074H
	DD	075H
	DD	076H
	DD	077H
	DD	078H
	DD	066H
	DD	065H
_DATA	ENDS
;	COMDAT ?digits10@?$numeric_limits@C@std@@2HB
CONST	SEGMENT
?digits10@?$numeric_limits@C@std@@2HB DD 02H		; std::numeric_limits<signed char>::digits10
CONST	ENDS
;	COMDAT ?digits@?$numeric_limits@C@std@@2HB
CONST	SEGMENT
?digits@?$numeric_limits@C@std@@2HB DD 07H		; std::numeric_limits<signed char>::digits
CONST	ENDS
;	COMDAT ?is_signed@?$numeric_limits@C@std@@2_NB
CONST	SEGMENT
?is_signed@?$numeric_limits@C@std@@2_NB DB 01H		; std::numeric_limits<signed char>::is_signed
CONST	ENDS
;	COMDAT ?digits10@?$numeric_limits@_N@std@@2HB
CONST	SEGMENT
?digits10@?$numeric_limits@_N@std@@2HB DD 00H		; std::numeric_limits<bool>::digits10
CONST	ENDS
;	COMDAT ?digits@?$numeric_limits@_N@std@@2HB
CONST	SEGMENT
?digits@?$numeric_limits@_N@std@@2HB DD 01H		; std::numeric_limits<bool>::digits
CONST	ENDS
;	COMDAT ?is_signed@?$numeric_limits@_N@std@@2_NB
CONST	SEGMENT
?is_signed@?$numeric_limits@_N@std@@2_NB DB 00H		; std::numeric_limits<bool>::is_signed
CONST	ENDS
;	COMDAT ?is_modulo@?$numeric_limits@_N@std@@2_NB
CONST	SEGMENT
?is_modulo@?$numeric_limits@_N@std@@2_NB DB 00H		; std::numeric_limits<bool>::is_modulo
CONST	ENDS
;	COMDAT ?value@?$integral_constant@_N$00@std@@2_NB
CONST	SEGMENT
?value@?$integral_constant@_N$00@std@@2_NB DB 01H	; std::integral_constant<bool,1>::value
CONST	ENDS
;	COMDAT ?digits10@?$numeric_limits@_W@std@@2HB
CONST	SEGMENT
?digits10@?$numeric_limits@_W@std@@2HB DD 04H		; std::numeric_limits<wchar_t>::digits10
CONST	ENDS
;	COMDAT ?digits@?$numeric_limits@_W@std@@2HB
CONST	SEGMENT
?digits@?$numeric_limits@_W@std@@2HB DD 010H		; std::numeric_limits<wchar_t>::digits
CONST	ENDS
;	COMDAT ?is_signed@?$numeric_limits@_W@std@@2_NB
CONST	SEGMENT
?is_signed@?$numeric_limits@_W@std@@2_NB DB 00H		; std::numeric_limits<wchar_t>::is_signed
CONST	ENDS
;	COMDAT ?value@?$integral_constant@_N$0A@@std@@2_NB
CONST	SEGMENT
?value@?$integral_constant@_N$0A@@std@@2_NB DB 00H	; std::integral_constant<bool,0>::value
CONST	ENDS
PUBLIC	_cosf
PUBLIC	_sinf
PUBLIC	?cos@@YAMM@Z					; cos
PUBLIC	?sin@@YAMM@Z					; sin
PUBLIC	??2@YAPAXIPAX@Z					; operator new
PUBLIC	??3@YAXPAX0@Z					; operator delete
PUBLIC	?length@?$char_traits@D@std@@SAIPBD@Z		; std::char_traits<char>::length
PUBLIC	?copy@?$char_traits@D@std@@SAPADPADPBDI@Z	; std::char_traits<char>::copy
PUBLIC	?move@?$char_traits@D@std@@SAPADPADPBDI@Z	; std::char_traits<char>::move
PUBLIC	?assign@?$char_traits@D@std@@SAXAADABD@Z	; std::char_traits<char>::assign
PUBLIC	??0?$allocator@D@std@@QAE@XZ			; std::allocator<char>::allocator<char>
PUBLIC	?deallocate@?$allocator@D@std@@QAEXPADI@Z	; std::allocator<char>::deallocate
PUBLIC	?allocate@?$allocator@D@std@@QAEPADI@Z		; std::allocator<char>::allocate
PUBLIC	?max_size@?$allocator@D@std@@QBEIXZ		; std::allocator<char>::max_size
PUBLIC	?max_size@?$allocator_traits@V?$allocator@D@std@@@std@@SAIABV?$allocator@D@2@@Z ; std::allocator_traits<std::allocator<char> >::max_size
PUBLIC	??0?$_Wrap_alloc@V?$allocator@D@std@@@std@@QAE@XZ ; std::_Wrap_alloc<std::allocator<char> >::_Wrap_alloc<std::allocator<char> >
PUBLIC	?allocate@?$_Wrap_alloc@V?$allocator@D@std@@@std@@QAEPADI@Z ; std::_Wrap_alloc<std::allocator<char> >::allocate
PUBLIC	?deallocate@?$_Wrap_alloc@V?$allocator@D@std@@@std@@QAEXPADI@Z ; std::_Wrap_alloc<std::allocator<char> >::deallocate
PUBLIC	?max_size@?$_Wrap_alloc@V?$allocator@D@std@@@std@@QBEIXZ ; std::_Wrap_alloc<std::allocator<char> >::max_size
PUBLIC	??0?$_String_val@U?$_Simple_types@D@std@@@std@@QAE@XZ ; std::_String_val<std::_Simple_types<char> >::_String_val<std::_Simple_types<char> >
PUBLIC	?_Myptr@?$_String_val@U?$_Simple_types@D@std@@@std@@QAEPADXZ ; std::_String_val<std::_Simple_types<char> >::_Myptr
PUBLIC	?_Myptr@?$_String_val@U?$_Simple_types@D@std@@@std@@QBEPBDXZ ; std::_String_val<std::_Simple_types<char> >::_Myptr
PUBLIC	??0?$_String_alloc@$0A@U?$_String_base_types@DV?$allocator@D@std@@@std@@@std@@QAE@ABV?$allocator@D@1@@Z ; std::_String_alloc<0,std::_String_base_types<char,std::allocator<char> > >::_String_alloc<0,std::_String_base_types<char,std::allocator<char> > >
PUBLIC	?_Getal@?$_String_alloc@$0A@U?$_String_base_types@DV?$allocator@D@std@@@std@@@std@@QBE?AU?$_Wrap_alloc@V?$allocator@D@std@@@2@XZ ; std::_String_alloc<0,std::_String_base_types<char,std::allocator<char> > >::_Getal
PUBLIC	??0?$basic_string@DU?$char_traits@D@std@@V?$allocator@D@2@@std@@QAE@PBD@Z ; std::basic_string<char,std::char_traits<char>,std::allocator<char> >::basic_string<char,std::char_traits<char>,std::allocator<char> >
PUBLIC	?assign@?$basic_string@DU?$char_traits@D@std@@V?$allocator@D@2@@std@@QAEAAV12@ABV12@II@Z ; std::basic_string<char,std::char_traits<char>,std::allocator<char> >::assign
PUBLIC	?assign@?$basic_string@DU?$char_traits@D@std@@V?$allocator@D@2@@std@@QAEAAV12@PBDI@Z ; std::basic_string<char,std::char_traits<char>,std::allocator<char> >::assign
PUBLIC	?assign@?$basic_string@DU?$char_traits@D@std@@V?$allocator@D@2@@std@@QAEAAV12@PBD@Z ; std::basic_string<char,std::char_traits<char>,std::allocator<char> >::assign
PUBLIC	?erase@?$basic_string@DU?$char_traits@D@std@@V?$allocator@D@2@@std@@QAEAAV12@I@Z ; std::basic_string<char,std::char_traits<char>,std::allocator<char> >::erase
PUBLIC	?erase@?$basic_string@DU?$char_traits@D@std@@V?$allocator@D@2@@std@@QAEAAV12@II@Z ; std::basic_string<char,std::char_traits<char>,std::allocator<char> >::erase
PUBLIC	?size@?$basic_string@DU?$char_traits@D@std@@V?$allocator@D@2@@std@@QBEIXZ ; std::basic_string<char,std::char_traits<char>,std::allocator<char> >::size
PUBLIC	?max_size@?$basic_string@DU?$char_traits@D@std@@V?$allocator@D@2@@std@@QBEIXZ ; std::basic_string<char,std::char_traits<char>,std::allocator<char> >::max_size
PUBLIC	?_Copy@?$basic_string@DU?$char_traits@D@std@@V?$allocator@D@2@@std@@QAEXII@Z ; std::basic_string<char,std::char_traits<char>,std::allocator<char> >::_Copy
PUBLIC	?_Eos@?$basic_string@DU?$char_traits@D@std@@V?$allocator@D@2@@std@@QAEXI@Z ; std::basic_string<char,std::char_traits<char>,std::allocator<char> >::_Eos
PUBLIC	?_Grow@?$basic_string@DU?$char_traits@D@std@@V?$allocator@D@2@@std@@QAE_NI_N@Z ; std::basic_string<char,std::char_traits<char>,std::allocator<char> >::_Grow
PUBLIC	?_Inside@?$basic_string@DU?$char_traits@D@std@@V?$allocator@D@2@@std@@QAE_NPBD@Z ; std::basic_string<char,std::char_traits<char>,std::allocator<char> >::_Inside
PUBLIC	?_Tidy@?$basic_string@DU?$char_traits@D@std@@V?$allocator@D@2@@std@@QAEX_NI@Z ; std::basic_string<char,std::char_traits<char>,std::allocator<char> >::_Tidy
PUBLIC	?_Xlen@?$basic_string@DU?$char_traits@D@std@@V?$allocator@D@2@@std@@QBEXXZ ; std::basic_string<char,std::char_traits<char>,std::allocator<char> >::_Xlen
PUBLIC	?_Xran@?$basic_string@DU?$char_traits@D@std@@V?$allocator@D@2@@std@@QBEXXZ ; std::basic_string<char,std::char_traits<char>,std::allocator<char> >::_Xran
PUBLIC	??0id@locale@std@@QAE@I@Z			; std::locale::id::id
PUBLIC	?generic_category@std@@YAABVerror_category@1@XZ	; std::generic_category
PUBLIC	?system_category@std@@YAABVerror_category@1@XZ	; std::system_category
PUBLIC	??0error_category@std@@QAE@XZ			; std::error_category::error_category
PUBLIC	??1error_category@std@@UAE@XZ			; std::error_category::~error_category
PUBLIC	?default_error_condition@error_category@std@@UBE?AVerror_condition@2@H@Z ; std::error_category::default_error_condition
PUBLIC	?equivalent@error_category@std@@UBE_NHABVerror_condition@2@@Z ; std::error_category::equivalent
PUBLIC	?equivalent@error_category@std@@UBE_NABVerror_code@2@H@Z ; std::error_category::equivalent
PUBLIC	??8error_category@std@@QBE_NABV01@@Z		; std::error_category::operator==
PUBLIC	??_Gerror_category@std@@UAEPAXI@Z		; std::error_category::`scalar deleting destructor'
PUBLIC	?value@error_code@std@@QBEHXZ			; std::error_code::value
PUBLIC	?category@error_code@std@@QBEABVerror_category@2@XZ ; std::error_code::category
PUBLIC	??0error_condition@std@@QAE@HABVerror_category@1@@Z ; std::error_condition::error_condition
PUBLIC	?value@error_condition@std@@QBEHXZ		; std::error_condition::value
PUBLIC	?category@error_condition@std@@QBEABVerror_category@2@XZ ; std::error_condition::category
PUBLIC	??8error_condition@std@@QBE_NABV01@@Z		; std::error_condition::operator==
PUBLIC	??0_Generic_error_category@std@@QAE@XZ		; std::_Generic_error_category::_Generic_error_category
PUBLIC	?name@_Generic_error_category@std@@UBEPBDXZ	; std::_Generic_error_category::name
PUBLIC	?message@_Generic_error_category@std@@UBE?AV?$basic_string@DU?$char_traits@D@std@@V?$allocator@D@2@@2@H@Z ; std::_Generic_error_category::message
PUBLIC	??1_Generic_error_category@std@@UAE@XZ		; std::_Generic_error_category::~_Generic_error_category
PUBLIC	??_G_Generic_error_category@std@@UAEPAXI@Z	; std::_Generic_error_category::`scalar deleting destructor'
PUBLIC	??0_Iostream_error_category@std@@QAE@XZ		; std::_Iostream_error_category::_Iostream_error_category
PUBLIC	?name@_Iostream_error_category@std@@UBEPBDXZ	; std::_Iostream_error_category::name
PUBLIC	?message@_Iostream_error_category@std@@UBE?AV?$basic_string@DU?$char_traits@D@std@@V?$allocator@D@2@@2@H@Z ; std::_Iostream_error_category::message
PUBLIC	??1_Iostream_error_category@std@@UAE@XZ		; std::_Iostream_error_category::~_Iostream_error_category
PUBLIC	??_G_Iostream_error_category@std@@UAEPAXI@Z	; std::_Iostream_error_category::`scalar deleting destructor'
PUBLIC	??0_System_error_category@std@@QAE@XZ		; std::_System_error_category::_System_error_category
PUBLIC	?name@_System_error_category@std@@UBEPBDXZ	; std::_System_error_category::name
PUBLIC	?message@_System_error_category@std@@UBE?AV?$basic_string@DU?$char_traits@D@std@@V?$allocator@D@2@@2@H@Z ; std::_System_error_category::message
PUBLIC	?default_error_condition@_System_error_category@std@@UBE?AVerror_condition@2@H@Z ; std::_System_error_category::default_error_condition
PUBLIC	??1_System_error_category@std@@UAE@XZ		; std::_System_error_category::~_System_error_category
PUBLIC	??_G_System_error_category@std@@UAEPAXI@Z	; std::_System_error_category::`scalar deleting destructor'
PUBLIC	?CurrentForegroundColor@ContextMPR@@QAEHXZ	; ContextMPR::CurrentForegroundColor
PUBLIC	?targetXres@ImageBuffer@@QAEHXZ			; ImageBuffer::targetXres
PUBLIC	?targetYres@ImageBuffer@@QAEHXZ			; ImageBuffer::targetYres
PUBLIC	??0VirtualDisplay@@QAE@XZ			; VirtualDisplay::VirtualDisplay
PUBLIC	??1VirtualDisplay@@UAE@XZ			; VirtualDisplay::~VirtualDisplay
PUBLIC	?Circle@VirtualDisplay@@UAEXMMM@Z		; VirtualDisplay::Circle
PUBLIC	?Arc@VirtualDisplay@@UAEXMMMMM@Z		; VirtualDisplay::Arc
PUBLIC	?TextWidth@VirtualDisplay@@UAEMPAD@Z		; VirtualDisplay::TextWidth
PUBLIC	?TextHeight@VirtualDisplay@@UAEMXZ		; VirtualDisplay::TextHeight
PUBLIC	?SetLineStyle@VirtualDisplay@@UAEXH@Z		; VirtualDisplay::SetLineStyle
PUBLIC	?Color@VirtualDisplay@@UAEKXZ			; VirtualDisplay::Color
PUBLIC	??_GVirtualDisplay@@UAEPAXI@Z			; VirtualDisplay::`scalar deleting destructor'
PUBLIC	??0Render2D@@QAE@XZ				; Render2D::Render2D
PUBLIC	??1Render2D@@UAE@XZ				; Render2D::~Render2D
PUBLIC	?ClearDraw@Render2D@@UAEXXZ			; Render2D::ClearDraw
PUBLIC	?ClearZBuffer@Render2D@@UAEXXZ			; Render2D::ClearZBuffer
PUBLIC	?Color@Render2D@@UAEKXZ				; Render2D::Color
PUBLIC	?SetColor@Render2D@@UAEXK@Z			; Render2D::SetColor
PUBLIC	?SetBackground@Render2D@@UAEXK@Z		; Render2D::SetBackground
PUBLIC	?SetLineStyle@Render2D@@UAEXH@Z			; Render2D::SetLineStyle
PUBLIC	??_GRender2D@@UAEPAXI@Z				; Render2D::`scalar deleting destructor'
PUBLIC	??0Render3D@@QAE@XZ				; Render3D::Render3D
PUBLIC	??1Render3D@@UAE@XZ				; Render3D::~Render3D
PUBLIC	?Cleanup@Render3D@@UAEXXZ			; Render3D::Cleanup
PUBLIC	??_GRender3D@@UAEPAXI@Z				; Render3D::`scalar deleting destructor'
PUBLIC	?GetPosition@DrawableObject@@QAEXPAUTpoint@@@Z	; DrawableObject::GetPosition
PUBLIC	?LockAndLoad@DrawableBSP@@SAXH@Z		; DrawableBSP::LockAndLoad
PUBLIC	?Unlock@DrawableBSP@@SAXH@Z			; DrawableBSP::Unlock
PUBLIC	?XPos@VuEntity@@QBEMXZ				; VuEntity::XPos
PUBLIC	?YPos@VuEntity@@QBEMXZ				; VuEntity::YPos
PUBLIC	__tcscmp
PUBLIC	?GetText@O_Output@@QAEPADXZ			; O_Output::GetText
PUBLIC	?GetID@C_Base@@QAEJXZ				; C_Base::GetID
PUBLIC	?GetClient@C_Base@@QAEFXZ			; C_Base::GetClient
PUBLIC	?GetRoot@C_TreeList@@QAEPAVTREELIST@@XZ		; C_TreeList::GetRoot
PUBLIC	?GetX@C_Window@@QAEFXZ				; C_Window::GetX
PUBLIC	?GetY@C_Window@@QAEFXZ				; C_Window::GetY
PUBLIC	?GetFront@C_Handler@@QAEPAVImageBuffer@@XZ	; C_Handler::GetFront
PUBLIC	?GetName@C_Entity@@QAEPADXZ			; C_Entity::GetName
PUBLIC	?GetFeatureValue@C_Feature@@QAEEXZ		; C_Feature::GetFeatureValue
PUBLIC	?GetVUID@C_Feature@@QAE?AVVU_ID@@XZ		; C_Feature::GetVUID
PUBLIC	?GetFeatureID@C_Feature@@QAEJXZ			; C_Feature::GetFeatureID
PUBLIC	??0C_BSPList@@QAE@XZ				; C_BSPList::C_BSPList
PUBLIC	??1C_BSPList@@QAE@XZ				; C_BSPList::~C_BSPList
PUBLIC	?RemoveAll@C_BSPList@@QAEXXZ			; C_BSPList::RemoveAll
PUBLIC	?Find@C_BSPList@@QAEPAUUI_BSPList@@J@Z		; C_BSPList::Find
PUBLIC	??_GC_BSPList@@QAEPAXI@Z			; C_BSPList::`scalar deleting destructor'
PUBLIC	?CalculateViewport@@YAXPAVC_Window@@JPAM111@Z	; CalculateViewport
PUBLIC	?CenterOnFeatureCB@@YAXJFPAVC_Base@@@Z		; CenterOnFeatureCB
PUBLIC	?SetHeading@@YAXPAVC_Window@@@Z			; SetHeading
PUBLIC	?FindCameraDeltas@@YAXPAUOBJECTINFO@@@Z		; FindCameraDeltas
PUBLIC	?PositionCamera@@YAXPAUOBJECTINFO@@PAVC_Window@@J@Z ; PositionCamera
PUBLIC	?SetSlantRange@@YAXPAVC_Window@@@Z		; SetSlantRange
PUBLIC	?SetBullsEye@@YAXPAVC_Window@@@Z		; SetBullsEye
PUBLIC	?ReconListSortCB@@YAHPAVTREELIST@@0@Z		; ReconListSortCB
PUBLIC	?LoadFeature@@YAPAUUI_BSPList@@JHPAUTpoint@@M@Z	; LoadFeature
PUBLIC	?UI_Deaggregate@@YAHPAVObjectiveClass@@@Z	; UI_Deaggregate
PUBLIC	?DisplayView@@YAXJFPAVC_Base@@@Z		; DisplayView
PUBLIC	?MoveViewTimerCB@@YAXJFPAVC_Base@@@Z		; MoveViewTimerCB
PUBLIC	?InitObjectViewer@@YAXPAVC_Window@@J@Z		; InitObjectViewer
PUBLIC	?LoadObject@@YAXJ@Z				; LoadObject
PUBLIC	?UnloadObject@@YAXXZ				; UnloadObject
PUBLIC	?CleanupObjectViewer@@YAXXZ			; CleanupObjectViewer
PUBLIC	?ViewBSPObjectCB@@YAXJFPAVC_Base@@@Z		; ViewBSPObjectCB
PUBLIC	?ViewObjectCB@@YAXJFPAVC_Base@@@Z		; ViewObjectCB
PUBLIC	?MoveRendererCB@@YAXPAVC_Window@@@Z		; MoveRendererCB
PUBLIC	?MoveRendererClient0CB@@YAXPAVC_Window@@@Z	; MoveRendererClient0CB
PUBLIC	??$construct@PADAAPAD@?$_Wrap_alloc@V?$allocator@D@std@@@std@@QAEXPAPADAAPAD@Z ; std::_Wrap_alloc<std::allocator<char> >::construct<char *,char * &>
PUBLIC	??$destroy@PAD@?$_Wrap_alloc@V?$allocator@D@std@@@std@@QAEXPAPAD@Z ; std::_Wrap_alloc<std::allocator<char> >::destroy<char *>
PUBLIC	??$addressof@D@std@@YAPADAAD@Z			; std::addressof<char>
PUBLIC	??$_Allocate@D@std@@YAPADIPAD@Z			; std::_Allocate<char>
PUBLIC	??$forward@AAPAD@std@@YAAAPADAAPAD@Z		; std::forward<char * &>
PUBLIC	??$construct@PADAAPAD@?$allocator_traits@V?$allocator@D@std@@@std@@SAXAAV?$allocator@D@1@PAPADAAPAD@Z ; std::allocator_traits<std::allocator<char> >::construct<char *,char * &>
PUBLIC	??$destroy@PAD@?$allocator_traits@V?$allocator@D@std@@@std@@SAXAAV?$allocator@D@1@PAPAD@Z ; std::allocator_traits<std::allocator<char> >::destroy<char *>
PUBLIC	??$construct@PADAAPAD@?$allocator@D@std@@QAEXPAPADAAPAD@Z ; std::allocator<char>::construct<char *,char * &>
PUBLIC	??$destroy@PAD@?$allocator@D@std@@QAEXPAPAD@Z	; std::allocator<char>::destroy<char *>
PUBLIC	??_7error_category@std@@6B@			; std::error_category::`vftable'
PUBLIC	??_7_Generic_error_category@std@@6B@		; std::_Generic_error_category::`vftable'
PUBLIC	??_C@_07DCLBNMLN@generic?$AA@			; `string'
PUBLIC	??_C@_0O@BFJCFAAK@unknown?5error?$AA@		; `string'
PUBLIC	??_7_Iostream_error_category@std@@6B@		; std::_Iostream_error_category::`vftable'
PUBLIC	??_C@_08LLGCOLLL@iostream?$AA@			; `string'
PUBLIC	??_C@_0BG@PADBLCHM@iostream?5stream?5error?$AA@	; `string'
PUBLIC	??_7_System_error_category@std@@6B@		; std::_System_error_category::`vftable'
PUBLIC	??_C@_06FHFOAHML@system?$AA@			; `string'
PUBLIC	?_Generic_object@?$_Error_objects@H@std@@2V_Generic_error_category@2@A ; std::_Error_objects<int>::_Generic_object
PUBLIC	?_Iostream_object@?$_Error_objects@H@std@@2V_Iostream_error_category@2@A ; std::_Error_objects<int>::_Iostream_object
PUBLIC	?_System_object@?$_Error_objects@H@std@@2V_System_error_category@2@A ; std::_Error_objects<int>::_System_object
PUBLIC	?id@?$num_put@DV?$back_insert_iterator@V?$basic_string@DU?$char_traits@D@std@@V?$allocator@D@2@@std@@@std@@@std@@2V0locale@2@A ; std::num_put<char,std::back_insert_iterator<std::basic_string<char,std::char_traits<char>,std::allocator<char> > > >::id
PUBLIC	?id@?$num_put@_WV?$back_insert_iterator@V?$basic_string@_WU?$char_traits@_W@std@@V?$allocator@_W@2@@std@@@std@@@std@@2V0locale@2@A ; std::num_put<wchar_t,std::back_insert_iterator<std::basic_string<wchar_t,std::char_traits<wchar_t>,std::allocator<wchar_t> > > >::id
PUBLIC	??_7VirtualDisplay@@6B@				; VirtualDisplay::`vftable'
PUBLIC	??_7Render2D@@6B@				; Render2D::`vftable'
PUBLIC	??_7Render3D@@6B@				; Render3D::`vftable'
PUBLIC	??_C@_05BKLPLJPH@?$CF03ld?$AA@			; `string'
PUBLIC	??_C@_07JBOAFILA@?$CF1ld?5ft?$AA@		; `string'
PUBLIC	??_C@_0O@BIEMCAOH@?$CF03d?5?5?$CF1ld?5?$CFs?$AA@ ; `string'
PUBLIC	?id@?$numpunct@D@std@@2V0locale@2@A		; std::numpunct<char>::id
PUBLIC	?id@?$numpunct@_W@std@@2V0locale@2@A		; std::numpunct<wchar_t>::id
PUBLIC	??_C@_0BI@CFPLBAOH@invalid?5string?5position?$AA@ ; `string'
PUBLIC	??_C@_0BA@JFNIOLAK@string?5too?5long?$AA@	; `string'
PUBLIC	??_R4error_category@std@@6B@			; std::error_category::`RTTI Complete Object Locator'
PUBLIC	??_R0?AVerror_category@std@@@8			; std::error_category `RTTI Type Descriptor'
PUBLIC	??_R3error_category@std@@8			; std::error_category::`RTTI Class Hierarchy Descriptor'
PUBLIC	??_R2error_category@std@@8			; std::error_category::`RTTI Base Class Array'
PUBLIC	??_R1A@?0A@EA@error_category@std@@8		; std::error_category::`RTTI Base Class Descriptor at (0,-1,0,64)'
PUBLIC	??_R4_Generic_error_category@std@@6B@		; std::_Generic_error_category::`RTTI Complete Object Locator'
PUBLIC	??_R0?AV_Generic_error_category@std@@@8		; std::_Generic_error_category `RTTI Type Descriptor'
PUBLIC	??_R3_Generic_error_category@std@@8		; std::_Generic_error_category::`RTTI Class Hierarchy Descriptor'
PUBLIC	??_R2_Generic_error_category@std@@8		; std::_Generic_error_category::`RTTI Base Class Array'
PUBLIC	??_R1A@?0A@EA@_Generic_error_category@std@@8	; std::_Generic_error_category::`RTTI Base Class Descriptor at (0,-1,0,64)'
PUBLIC	??_R4_Iostream_error_category@std@@6B@		; std::_Iostream_error_category::`RTTI Complete Object Locator'
PUBLIC	??_R0?AV_Iostream_error_category@std@@@8	; std::_Iostream_error_category `RTTI Type Descriptor'
PUBLIC	??_R3_Iostream_error_category@std@@8		; std::_Iostream_error_category::`RTTI Class Hierarchy Descriptor'
PUBLIC	??_R2_Iostream_error_category@std@@8		; std::_Iostream_error_category::`RTTI Base Class Array'
PUBLIC	??_R1A@?0A@EA@_Iostream_error_category@std@@8	; std::_Iostream_error_category::`RTTI Base Class Descriptor at (0,-1,0,64)'
PUBLIC	??_R4_System_error_category@std@@6B@		; std::_System_error_category::`RTTI Complete Object Locator'
PUBLIC	??_R0?AV_System_error_category@std@@@8		; std::_System_error_category `RTTI Type Descriptor'
PUBLIC	??_R3_System_error_category@std@@8		; std::_System_error_category::`RTTI Class Hierarchy Descriptor'
PUBLIC	??_R2_System_error_category@std@@8		; std::_System_error_category::`RTTI Base Class Array'
PUBLIC	??_R1A@?0A@EA@_System_error_category@std@@8	; std::_System_error_category::`RTTI Base Class Descriptor at (0,-1,0,64)'
PUBLIC	??_R4Render3D@@6B@				; Render3D::`RTTI Complete Object Locator'
PUBLIC	??_R0?AVRender3D@@@8				; Render3D `RTTI Type Descriptor'
PUBLIC	??_R3Render3D@@8				; Render3D::`RTTI Class Hierarchy Descriptor'
PUBLIC	??_R2Render3D@@8				; Render3D::`RTTI Base Class Array'
PUBLIC	??_R1A@?0A@EA@Render3D@@8			; Render3D::`RTTI Base Class Descriptor at (0,-1,0,64)'
PUBLIC	??_R1A@?0A@EA@Render2D@@8			; Render2D::`RTTI Base Class Descriptor at (0,-1,0,64)'
PUBLIC	??_R0?AVRender2D@@@8				; Render2D `RTTI Type Descriptor'
PUBLIC	??_R3Render2D@@8				; Render2D::`RTTI Class Hierarchy Descriptor'
PUBLIC	??_R2Render2D@@8				; Render2D::`RTTI Base Class Array'
PUBLIC	??_R1A@?0A@EA@VirtualDisplay@@8			; VirtualDisplay::`RTTI Base Class Descriptor at (0,-1,0,64)'
PUBLIC	??_R0?AVVirtualDisplay@@@8			; VirtualDisplay `RTTI Type Descriptor'
PUBLIC	??_R3VirtualDisplay@@8				; VirtualDisplay::`RTTI Class Hierarchy Descriptor'
PUBLIC	??_R2VirtualDisplay@@8				; VirtualDisplay::`RTTI Base Class Array'
PUBLIC	??_R4VirtualDisplay@@6B@			; VirtualDisplay::`RTTI Complete Object Locator'
PUBLIC	??_R4Render2D@@6B@				; Render2D::`RTTI Complete Object Locator'
PUBLIC	__real@00000000
PUBLIC	__real@392c987a
PUBLIC	__real@3c8ef998
PUBLIC	__real@3c8efa34
PUBLIC	__real@3e4ccccd
PUBLIC	__real@3f060a92
PUBLIC	__real@3fe0000000000000
PUBLIC	__real@3ff0000000000000
PUBLIC	__real@40c00000
PUBLIC	__real@43b40000
PUBLIC	__real@bff0000000000000
PUBLIC	__xmm@80000000800000008000000080000000
EXTRN	__purecall:PROC
EXTRN	??2@YAPAXI@Z:PROC				; operator new
EXTRN	??3@YAXPAX@Z:PROC				; operator delete
EXTRN	_atexit:PROC
EXTRN	_cos:PROC
EXTRN	_sin:PROC
EXTRN	_memcpy:PROC
EXTRN	_strlen:PROC
EXTRN	_memmove:PROC
EXTRN	_sprintf:PROC
EXTRN	?SetTime@TimeManager@@QAEXK@Z:PROC		; TimeManager::SetTime
EXTRN	?_Xbad_alloc@std@@YAXXZ:PROC			; std::_Xbad_alloc
EXTRN	?_Xlength_error@std@@YAXPBD@Z:PROC		; std::_Xlength_error
EXTRN	?_Xout_of_range@std@@YAXPBD@Z:PROC		; std::_Xout_of_range
EXTRN	??_Eerror_category@std@@UAEPAXI@Z:PROC		; std::error_category::`vector deleting destructor'
EXTRN	?_Syserror_map@std@@YAPBDH@Z:PROC		; std::_Syserror_map
EXTRN	?_Winerror_map@std@@YAPBDH@Z:PROC		; std::_Winerror_map
EXTRN	??_E_Generic_error_category@std@@UAEPAXI@Z:PROC	; std::_Generic_error_category::`vector deleting destructor'
EXTRN	??_E_Iostream_error_category@std@@UAEPAXI@Z:PROC ; std::_Iostream_error_category::`vector deleting destructor'
EXTRN	??_E_System_error_category@std@@UAEPAXI@Z:PROC	; std::_System_error_category::`vector deleting destructor'
EXTRN	??0ContextMPR@@QAE@XZ:PROC			; ContextMPR::ContextMPR
EXTRN	??1ContextMPR@@UAE@XZ:PROC			; ContextMPR::~ContextMPR
EXTRN	?SetState@ContextMPR@@QAEXGK@Z:PROC		; ContextMPR::SetState
EXTRN	?ClearBuffers@ContextMPR@@QAEXG@Z:PROC		; ContextMPR::ClearBuffers
EXTRN	?SelectForegroundColor@ContextMPR@@QAEXH@Z:PROC	; ContextMPR::SelectForegroundColor
EXTRN	?RestoreState@ContextMPR@@QAEXH@Z:PROC		; ContextMPR::RestoreState
EXTRN	?Setup@VirtualDisplay@@UAEXXZ:PROC		; VirtualDisplay::Setup
EXTRN	?Cleanup@VirtualDisplay@@UAEXXZ:PROC		; VirtualDisplay::Cleanup
EXTRN	?Point@VirtualDisplay@@UAEXMM@Z:PROC		; VirtualDisplay::Point
EXTRN	?Line@VirtualDisplay@@UAEXMMMM@Z:PROC		; VirtualDisplay::Line
EXTRN	?Line@VirtualDisplay@@UAEXMMMMM@Z:PROC		; VirtualDisplay::Line
EXTRN	?Tri@VirtualDisplay@@UAEXMMMMMM@Z:PROC		; VirtualDisplay::Tri
EXTRN	?Oval@VirtualDisplay@@UAEXMMMM@Z:PROC		; VirtualDisplay::Oval
EXTRN	?OvalArc@VirtualDisplay@@UAEXMMMMMM@Z:PROC	; VirtualDisplay::OvalArc
EXTRN	?TextLeft@VirtualDisplay@@UAEXMMPBDH@Z:PROC	; VirtualDisplay::TextLeft
EXTRN	?TextRight@VirtualDisplay@@UAEXMMPBDH@Z:PROC	; VirtualDisplay::TextRight
EXTRN	?TextLeftVertical@VirtualDisplay@@UAEXMMPBDH@Z:PROC ; VirtualDisplay::TextLeftVertical
EXTRN	?TextRightVertical@VirtualDisplay@@UAEXMMPBDH@Z:PROC ; VirtualDisplay::TextRightVertical
EXTRN	?TextCenter@VirtualDisplay@@UAEXMMPBDH@Z:PROC	; VirtualDisplay::TextCenter
EXTRN	?TextCenterVertical@VirtualDisplay@@UAEXMMPBDH@Z:PROC ; VirtualDisplay::TextCenterVertical
EXTRN	?TextWrap@VirtualDisplay@@UAEHMMPBDMM@Z:PROC	; VirtualDisplay::TextWrap
EXTRN	?ScreenTextHeight@VirtualDisplay@@SAHXZ:PROC	; VirtualDisplay::ScreenTextHeight
EXTRN	?ScreenTextWidth@VirtualDisplay@@SAHPBD@Z:PROC	; VirtualDisplay::ScreenTextWidth
EXTRN	?SetViewport@VirtualDisplay@@UAEXMMMM@Z:PROC	; VirtualDisplay::SetViewport
EXTRN	?SetViewportRelative@VirtualDisplay@@UAEXMMMM@Z:PROC ; VirtualDisplay::SetViewportRelative
EXTRN	?Render2DTri@VirtualDisplay@@MAEXMMMMMM@Z:PROC	; VirtualDisplay::Render2DTri
EXTRN	??_EVirtualDisplay@@UAEPAXI@Z:PROC		; VirtualDisplay::`vector deleting destructor'
EXTRN	?Setup@Render2D@@UAEXPAVImageBuffer@@@Z:PROC	; Render2D::Setup
EXTRN	?Cleanup@Render2D@@UAEXXZ:PROC			; Render2D::Cleanup
EXTRN	?SetImageBuffer@Render2D@@UAEXPAVImageBuffer@@@Z:PROC ; Render2D::SetImageBuffer
EXTRN	?StartDraw@Render2D@@UAEXXZ:PROC		; Render2D::StartDraw
EXTRN	?EndDraw@Render2D@@UAEXXZ:PROC			; Render2D::EndDraw
EXTRN	?SetViewport@Render2D@@UAEXMMMM@Z:PROC		; Render2D::SetViewport
EXTRN	?Render2DPoint@Render2D@@UAEXMM@Z:PROC		; Render2D::Render2DPoint
EXTRN	?Render2DLine@Render2D@@UAEXMMMM@Z:PROC		; Render2D::Render2DLine
EXTRN	?Render2DTri@Render2D@@UAEXMMMMMM@Z:PROC	; Render2D::Render2DTri
EXTRN	?ScreenText@Render2D@@UAEXMMPBDH@Z:PROC		; Render2D::ScreenText
EXTRN	??_ERender2D@@UAEPAXI@Z:PROC			; Render2D::`vector deleting destructor'
EXTRN	?Setup@Render3D@@UAEXPAVImageBuffer@@@Z:PROC	; Render3D::Setup
EXTRN	?StartDraw@Render3D@@UAEXXZ:PROC		; Render3D::StartDraw
EXTRN	?SetFOV@Render3D@@QAEXMM@Z:PROC			; Render3D::SetFOV
EXTRN	?SetCamera@Render3D@@QAEXPBUTpoint@@PBUTrotation@@@Z:PROC ; Render3D::SetCamera
EXTRN	?SetViewport@Render3D@@UAEXMMMM@Z:PROC		; Render3D::SetViewport
EXTRN	??_ERender3D@@UAEPAXI@Z:PROC			; Render3D::`vector deleting destructor'
EXTRN	?ReferenceWithFetch@ObjectParent@@QAEXXZ:PROC	; ObjectParent::ReferenceWithFetch
EXTRN	?Release@ObjectParent@@QAEX_N@Z:PROC		; ObjectParent::Release
EXTRN	__mbscmp:PROC
EXTRN	?GetName@TeamClass@@QAEPADXZ:PROC		; TeamClass::GetName
EXTRN	?GetFeatureStatus@ObjectiveClass@@QAEHH@Z:PROC	; ObjectiveClass::GetFeatureStatus
EXTRN	?GetFeatureID@ObjectiveClass@@QAEHH@Z:PROC	; ObjectiveClass::GetFeatureID
EXTRN	?GetFeatureOffset@ObjectiveClass@@QAEHHPAM00@Z:PROC ; ObjectiveClass::GetFeatureOffset
EXTRN	?GetObjectiveClassData@ObjectiveClass@@QAEPAUObjClassDataType@@XZ:PROC ; ObjectiveClass::GetObjectiveClassData
EXTRN	?GetFeatureClassData@@YAPAUFeatureClassDataType@@H@Z:PROC ; GetFeatureClassData
EXTRN	?BearingToBullseyeDeg@CampaignClass@@QAEHMM@Z:PROC ; CampaignClass::BearingToBullseyeDeg
EXTRN	?RangeToBullseyeFt@CampaignClass@@QAEHMM@Z:PROC	; CampaignClass::RangeToBullseyeFt
EXTRN	?GetString@C_String@@QAEPADJ@Z:PROC		; C_String::GetString
EXTRN	?SetUserNumber@C_Base@@QAEXJJ@Z:PROC		; C_Base::SetUserNumber
EXTRN	?GetUserNumber@C_Base@@QAEJJ@Z:PROC		; C_Base::GetUserNumber
EXTRN	?CreateItem@C_TreeList@@QAEPAVTREELIST@@JJPAVC_Base@@@Z:PROC ; C_TreeList::CreateItem
EXTRN	?AddItem@C_TreeList@@QAEHPAVTREELIST@@0@Z:PROC	; C_TreeList::AddItem
EXTRN	?AddChildItem@C_TreeList@@QAEHPAVTREELIST@@0@Z:PROC ; C_TreeList::AddChildItem
EXTRN	?Find@C_TreeList@@QAEPAVTREELIST@@J@Z:PROC	; C_TreeList::Find
EXTRN	?SetAllControlStates@C_TreeList@@QAEXFPAVTREELIST@@@Z:PROC ; C_TreeList::SetAllControlStates
EXTRN	?RecalcSize@C_TreeList@@QAEXXZ:PROC		; C_TreeList::RecalcSize
EXTRN	??0C_Text@@QAE@XZ:PROC				; C_Text::C_Text
EXTRN	?SetFGColor@C_Text@@QAEXK@Z:PROC		; C_Text::SetFGColor
EXTRN	?SetFixedWidth@C_Text@@QAEXJ@Z:PROC		; C_Text::SetFixedWidth
EXTRN	?RefreshWindow@C_Window@@QAEXXZ:PROC		; C_Window::RefreshWindow
EXTRN	?RefreshClient@C_Window@@QAEXJ@Z:PROC		; C_Window::RefreshClient
EXTRN	?FindControl@C_Window@@QAEPAVC_Base@@J@Z:PROC	; C_Window::FindControl
EXTRN	?FindWindowA@C_Handler@@QAEPAVC_Window@@J@Z:PROC ; C_Handler::FindWindowA
EXTRN	?Setup@C_BSPList@@QAEXXZ:PROC			; C_BSPList::Setup
EXTRN	?RemoveList@C_BSPList@@QAEXPAPAUUI_BSPList@@@Z:PROC ; C_BSPList::RemoveList
EXTRN	?RemoveLockList@C_BSPList@@QAEXXZ:PROC		; C_BSPList::RemoveLockList
EXTRN	?Find@C_BSPList@@QAEPAUUI_BSPList@@JPAU2@@Z:PROC ; C_BSPList::Find
EXTRN	?Viewport@C_3dViewer@@QAEXPAVC_Window@@J@Z:PROC	; C_3dViewer::Viewport
EXTRN	?SetPosition@C_3dViewer@@QAEXMMM@Z:PROC		; C_3dViewer::SetPosition
EXTRN	?SetCamera@C_3dViewer@@QAEXMMMMMM@Z:PROC	; C_3dViewer::SetCamera
EXTRN	?LoadBuilding@C_3dViewer@@QAEPAUUI_BSPList@@JHPAUTpoint@@M@Z:PROC ; C_3dViewer::LoadBuilding
EXTRN	?View3d@C_3dViewer@@QAEHJ@Z:PROC		; C_3dViewer::View3d
EXTRN	?ViewGreyOTW@C_3dViewer@@QAEHXZ:PROC		; C_3dViewer::ViewGreyOTW
EXTRN	?Find@C_3dViewer@@QAEPAUUI_BSPList@@J@Z:PROC	; C_3dViewer::Find
EXTRN	?CloseAllRenderers@@YAXJ@Z:PROC			; CloseAllRenderers
EXTRN	?BuildObjective@@YAPAVC_Entity@@PAVObjectiveClass@@@Z:PROC ; BuildObjective
EXTRN	?BuildFeature@@YAPAVC_Feature@@PAVObjectiveClass@@JPAUTpoint@@@Z:PROC ; BuildFeature
EXTRN	@__security_check_cookie@4:PROC
EXTRN	__CxxThrowException@8:PROC
EXTRN	___CxxFrameHandler3:PROC
EXTRN	?TheTimeManager@@3VTimeManager@@A:BYTE		; TheTimeManager
EXTRN	??_7type_info@@6B@:QWORD			; type_info::`vftable'
EXTRN	?IMatrix@@3UTrotation@@B:BYTE			; IMatrix
EXTRN	?TheObjectList@@3PAVObjectParent@@A:DWORD	; TheObjectList
EXTRN	?TeamInfo@@3PAPAVTeamClass@@A:BYTE		; TeamInfo
EXTRN	?FeatureEntryDataTable@@3PAUFeatureEntry@@A:DWORD ; FeatureEntryDataTable
EXTRN	?Falcon4ClassTable@@3PAUFalcon4EntityClassType@@A:DWORD ; Falcon4ClassTable
EXTRN	?TheCampaign@@3VCampaignClass@@A:BYTE		; TheCampaign
EXTRN	?gStringMgr@@3PAVC_String@@A:DWORD		; gStringMgr
EXTRN	?gUIViewer@@3PAVC_3dViewer@@A:DWORD		; gUIViewer
EXTRN	?FirstPlane@@3JA:DWORD				; FirstPlane
EXTRN	?gMainHandler@@3PAVC_Handler@@A:DWORD		; gMainHandler
EXTRN	?FeatureID@@3VVU_ID@@A:QWORD			; FeatureID
EXTRN	?FeatureNo@@3JA:DWORD				; FeatureNo
EXTRN	?TargetTree@@3PAVC_TreeList@@A:DWORD		; TargetTree
EXTRN	___security_cookie:DWORD
EXTRN	__fltused:DWORD
_BSS	SEGMENT
_piecewise_construct DB 01H DUP (?)
	ALIGN	4

_allocator_arg DB 01H DUP (?)
_BSS	ENDS
;	COMDAT ?_Generic_object@?$_Error_objects@H@std@@2V_Generic_error_category@2@A
_BSS	SEGMENT
?_Generic_object@?$_Error_objects@H@std@@2V_Generic_error_category@2@A DD 01H DUP (?) ; std::_Error_objects<int>::_Generic_object
_BSS	ENDS
;	COMDAT ?_Iostream_object@?$_Error_objects@H@std@@2V_Iostream_error_category@2@A
_BSS	SEGMENT
?_Iostream_object@?$_Error_objects@H@std@@2V_Iostream_error_category@2@A DD 01H DUP (?) ; std::_Error_objects<int>::_Iostream_object
_BSS	ENDS
;	COMDAT ?_System_object@?$_Error_objects@H@std@@2V_System_error_category@2@A
_BSS	SEGMENT
?_System_object@?$_Error_objects@H@std@@2V_System_error_category@2@A DD 01H DUP (?) ; std::_Error_objects<int>::_System_object
_BSS	ENDS
;	COMDAT ?id@?$num_put@DV?$back_insert_iterator@V?$basic_string@DU?$char_traits@D@std@@V?$allocator@D@2@@std@@@std@@@std@@2V0locale@2@A
_BSS	SEGMENT
?id@?$num_put@DV?$back_insert_iterator@V?$basic_string@DU?$char_traits@D@std@@V?$allocator@D@2@@std@@@std@@@std@@2V0locale@2@A DD 01H DUP (?) ; std::num_put<char,std::back_insert_iterator<std::basic_string<char,std::char_traits<char>,std::allocator<char> > > >::id
_BSS	ENDS
;	COMDAT ?id@?$num_put@_WV?$back_insert_iterator@V?$basic_string@_WU?$char_traits@_W@std@@V?$allocator@_W@2@@std@@@std@@@std@@2V0locale@2@A
_BSS	SEGMENT
?id@?$num_put@_WV?$back_insert_iterator@V?$basic_string@_WU?$char_traits@_W@std@@V?$allocator@_W@2@@std@@@std@@@std@@2V0locale@2@A DD 01H DUP (?) ; std::num_put<wchar_t,std::back_insert_iterator<std::basic_string<wchar_t,std::char_traits<wchar_t>,std::allocator<wchar_t> > > >::id
_BSS	ENDS
_BSS	SEGMENT
	ALIGN	4

_viewRot DB	024H DUP (?)
_BSS	ENDS
;	COMDAT ?id@?$numpunct@D@std@@2V0locale@2@A
_BSS	SEGMENT
?id@?$numpunct@D@std@@2V0locale@2@A DD 01H DUP (?)	; std::numpunct<char>::id
_BSS	ENDS
;	COMDAT ?id@?$numpunct@_W@std@@2V0locale@2@A
_BSS	SEGMENT
?id@?$numpunct@_W@std@@2V0locale@2@A DD 01H DUP (?)	; std::numpunct<wchar_t>::id
_BSS	ENDS
CRT$XCU	SEGMENT
_piecewise_construct$initializer$ DD FLAT:??__Epiecewise_construct@std@@YAXXZ
CRT$XCU	ENDS
;	COMDAT __xmm@80000000800000008000000080000000
CONST	SEGMENT
__xmm@80000000800000008000000080000000 DB 00H, 00H, 00H, 080H, 00H, 00H, 00H
	DB	080H, 00H, 00H, 00H, 080H, 00H, 00H, 00H, 080H
CONST	ENDS
;	COMDAT __real@bff0000000000000
CONST	SEGMENT
__real@bff0000000000000 DQ 0bff0000000000000r	; -1
CONST	ENDS
;	COMDAT __real@43b40000
CONST	SEGMENT
__real@43b40000 DD 043b40000r			; 360
CONST	ENDS
;	COMDAT __real@40c00000
CONST	SEGMENT
__real@40c00000 DD 040c00000r			; 6
CONST	ENDS
;	COMDAT __real@3ff0000000000000
CONST	SEGMENT
__real@3ff0000000000000 DQ 03ff0000000000000r	; 1
CONST	ENDS
;	COMDAT __real@3fe0000000000000
CONST	SEGMENT
__real@3fe0000000000000 DQ 03fe0000000000000r	; 0.5
CONST	ENDS
;	COMDAT __real@3f060a92
CONST	SEGMENT
__real@3f060a92 DD 03f060a92r			; 0.523599
CONST	ENDS
;	COMDAT __real@3e4ccccd
CONST	SEGMENT
__real@3e4ccccd DD 03e4ccccdr			; 0.2
CONST	ENDS
;	COMDAT __real@3c8efa34
CONST	SEGMENT
__real@3c8efa34 DD 03c8efa34r			; 0.0174533
CONST	ENDS
;	COMDAT __real@3c8ef998
CONST	SEGMENT
__real@3c8ef998 DD 03c8ef998r			; 0.017453
CONST	ENDS
;	COMDAT __real@392c987a
CONST	SEGMENT
__real@392c987a DD 0392c987ar			; 0.0001646
CONST	ENDS
;	COMDAT __real@00000000
CONST	SEGMENT
__real@00000000 DD 000000000r			; 0
CONST	ENDS
;	COMDAT ??_R4Render2D@@6B@
rdata$r	SEGMENT
??_R4Render2D@@6B@ DD 00H				; Render2D::`RTTI Complete Object Locator'
	DD	00H
	DD	00H
	DD	FLAT:??_R0?AVRender2D@@@8
	DD	FLAT:??_R3Render2D@@8
rdata$r	ENDS
;	COMDAT ??_R4VirtualDisplay@@6B@
rdata$r	SEGMENT
??_R4VirtualDisplay@@6B@ DD 00H				; VirtualDisplay::`RTTI Complete Object Locator'
	DD	00H
	DD	00H
	DD	FLAT:??_R0?AVVirtualDisplay@@@8
	DD	FLAT:??_R3VirtualDisplay@@8
rdata$r	ENDS
;	COMDAT ??_R2VirtualDisplay@@8
rdata$r	SEGMENT
??_R2VirtualDisplay@@8 DD FLAT:??_R1A@?0A@EA@VirtualDisplay@@8 ; VirtualDisplay::`RTTI Base Class Array'
rdata$r	ENDS
;	COMDAT ??_R3VirtualDisplay@@8
rdata$r	SEGMENT
??_R3VirtualDisplay@@8 DD 00H				; VirtualDisplay::`RTTI Class Hierarchy Descriptor'
	DD	00H
	DD	01H
	DD	FLAT:??_R2VirtualDisplay@@8
rdata$r	ENDS
;	COMDAT ??_R0?AVVirtualDisplay@@@8
_DATA	SEGMENT
??_R0?AVVirtualDisplay@@@8 DD FLAT:??_7type_info@@6B@	; VirtualDisplay `RTTI Type Descriptor'
	DD	00H
	DB	'.?AVVirtualDisplay@@', 00H
_DATA	ENDS
;	COMDAT ??_R1A@?0A@EA@VirtualDisplay@@8
rdata$r	SEGMENT
??_R1A@?0A@EA@VirtualDisplay@@8 DD FLAT:??_R0?AVVirtualDisplay@@@8 ; VirtualDisplay::`RTTI Base Class Descriptor at (0,-1,0,64)'
	DD	00H
	DD	00H
	DD	0ffffffffH
	DD	00H
	DD	040H
	DD	FLAT:??_R3VirtualDisplay@@8
rdata$r	ENDS
;	COMDAT ??_R2Render2D@@8
rdata$r	SEGMENT
??_R2Render2D@@8 DD FLAT:??_R1A@?0A@EA@Render2D@@8	; Render2D::`RTTI Base Class Array'
	DD	FLAT:??_R1A@?0A@EA@VirtualDisplay@@8
rdata$r	ENDS
;	COMDAT ??_R3Render2D@@8
rdata$r	SEGMENT
??_R3Render2D@@8 DD 00H					; Render2D::`RTTI Class Hierarchy Descriptor'
	DD	00H
	DD	02H
	DD	FLAT:??_R2Render2D@@8
rdata$r	ENDS
;	COMDAT ??_R0?AVRender2D@@@8
_DATA	SEGMENT
??_R0?AVRender2D@@@8 DD FLAT:??_7type_info@@6B@		; Render2D `RTTI Type Descriptor'
	DD	00H
	DB	'.?AVRender2D@@', 00H
_DATA	ENDS
;	COMDAT ??_R1A@?0A@EA@Render2D@@8
rdata$r	SEGMENT
??_R1A@?0A@EA@Render2D@@8 DD FLAT:??_R0?AVRender2D@@@8	; Render2D::`RTTI Base Class Descriptor at (0,-1,0,64)'
	DD	01H
	DD	00H
	DD	0ffffffffH
	DD	00H
	DD	040H
	DD	FLAT:??_R3Render2D@@8
rdata$r	ENDS
;	COMDAT ??_R1A@?0A@EA@Render3D@@8
rdata$r	SEGMENT
??_R1A@?0A@EA@Render3D@@8 DD FLAT:??_R0?AVRender3D@@@8	; Render3D::`RTTI Base Class Descriptor at (0,-1,0,64)'
	DD	02H
	DD	00H
	DD	0ffffffffH
	DD	00H
	DD	040H
	DD	FLAT:??_R3Render3D@@8
rdata$r	ENDS
;	COMDAT ??_R2Render3D@@8
rdata$r	SEGMENT
??_R2Render3D@@8 DD FLAT:??_R1A@?0A@EA@Render3D@@8	; Render3D::`RTTI Base Class Array'
	DD	FLAT:??_R1A@?0A@EA@Render2D@@8
	DD	FLAT:??_R1A@?0A@EA@VirtualDisplay@@8
rdata$r	ENDS
;	COMDAT ??_R3Render3D@@8
rdata$r	SEGMENT
??_R3Render3D@@8 DD 00H					; Render3D::`RTTI Class Hierarchy Descriptor'
	DD	00H
	DD	03H
	DD	FLAT:??_R2Render3D@@8
rdata$r	ENDS
;	COMDAT ??_R0?AVRender3D@@@8
_DATA	SEGMENT
??_R0?AVRender3D@@@8 DD FLAT:??_7type_info@@6B@		; Render3D `RTTI Type Descriptor'
	DD	00H
	DB	'.?AVRender3D@@', 00H
_DATA	ENDS
;	COMDAT ??_R4Render3D@@6B@
rdata$r	SEGMENT
??_R4Render3D@@6B@ DD 00H				; Render3D::`RTTI Complete Object Locator'
	DD	00H
	DD	00H
	DD	FLAT:??_R0?AVRender3D@@@8
	DD	FLAT:??_R3Render3D@@8
rdata$r	ENDS
;	COMDAT ??_R1A@?0A@EA@_System_error_category@std@@8
rdata$r	SEGMENT
??_R1A@?0A@EA@_System_error_category@std@@8 DD FLAT:??_R0?AV_System_error_category@std@@@8 ; std::_System_error_category::`RTTI Base Class Descriptor at (0,-1,0,64)'
	DD	02H
	DD	00H
	DD	0ffffffffH
	DD	00H
	DD	040H
	DD	FLAT:??_R3_System_error_category@std@@8
rdata$r	ENDS
;	COMDAT ??_R2_System_error_category@std@@8
rdata$r	SEGMENT
??_R2_System_error_category@std@@8 DD FLAT:??_R1A@?0A@EA@_System_error_category@std@@8 ; std::_System_error_category::`RTTI Base Class Array'
	DD	FLAT:??_R1A@?0A@EA@_Generic_error_category@std@@8
	DD	FLAT:??_R1A@?0A@EA@error_category@std@@8
rdata$r	ENDS
;	COMDAT ??_R3_System_error_category@std@@8
rdata$r	SEGMENT
??_R3_System_error_category@std@@8 DD 00H		; std::_System_error_category::`RTTI Class Hierarchy Descriptor'
	DD	00H
	DD	03H
	DD	FLAT:??_R2_System_error_category@std@@8
rdata$r	ENDS
;	COMDAT ??_R0?AV_System_error_category@std@@@8
_DATA	SEGMENT
??_R0?AV_System_error_category@std@@@8 DD FLAT:??_7type_info@@6B@ ; std::_System_error_category `RTTI Type Descriptor'
	DD	00H
	DB	'.?AV_System_error_category@std@@', 00H
_DATA	ENDS
;	COMDAT ??_R4_System_error_category@std@@6B@
rdata$r	SEGMENT
??_R4_System_error_category@std@@6B@ DD 00H		; std::_System_error_category::`RTTI Complete Object Locator'
	DD	00H
	DD	00H
	DD	FLAT:??_R0?AV_System_error_category@std@@@8
	DD	FLAT:??_R3_System_error_category@std@@8
rdata$r	ENDS
;	COMDAT ??_R1A@?0A@EA@_Iostream_error_category@std@@8
rdata$r	SEGMENT
??_R1A@?0A@EA@_Iostream_error_category@std@@8 DD FLAT:??_R0?AV_Iostream_error_category@std@@@8 ; std::_Iostream_error_category::`RTTI Base Class Descriptor at (0,-1,0,64)'
	DD	02H
	DD	00H
	DD	0ffffffffH
	DD	00H
	DD	040H
	DD	FLAT:??_R3_Iostream_error_category@std@@8
rdata$r	ENDS
;	COMDAT ??_R2_Iostream_error_category@std@@8
rdata$r	SEGMENT
??_R2_Iostream_error_category@std@@8 DD FLAT:??_R1A@?0A@EA@_Iostream_error_category@std@@8 ; std::_Iostream_error_category::`RTTI Base Class Array'
	DD	FLAT:??_R1A@?0A@EA@_Generic_error_category@std@@8
	DD	FLAT:??_R1A@?0A@EA@error_category@std@@8
rdata$r	ENDS
;	COMDAT ??_R3_Iostream_error_category@std@@8
rdata$r	SEGMENT
??_R3_Iostream_error_category@std@@8 DD 00H		; std::_Iostream_error_category::`RTTI Class Hierarchy Descriptor'
	DD	00H
	DD	03H
	DD	FLAT:??_R2_Iostream_error_category@std@@8
rdata$r	ENDS
;	COMDAT ??_R0?AV_Iostream_error_category@std@@@8
_DATA	SEGMENT
??_R0?AV_Iostream_error_category@std@@@8 DD FLAT:??_7type_info@@6B@ ; std::_Iostream_error_category `RTTI Type Descriptor'
	DD	00H
	DB	'.?AV_Iostream_error_category@std@@', 00H
_DATA	ENDS
;	COMDAT ??_R4_Iostream_error_category@std@@6B@
rdata$r	SEGMENT
??_R4_Iostream_error_category@std@@6B@ DD 00H		; std::_Iostream_error_category::`RTTI Complete Object Locator'
	DD	00H
	DD	00H
	DD	FLAT:??_R0?AV_Iostream_error_category@std@@@8
	DD	FLAT:??_R3_Iostream_error_category@std@@8
rdata$r	ENDS
;	COMDAT ??_R1A@?0A@EA@_Generic_error_category@std@@8
rdata$r	SEGMENT
??_R1A@?0A@EA@_Generic_error_category@std@@8 DD FLAT:??_R0?AV_Generic_error_category@std@@@8 ; std::_Generic_error_category::`RTTI Base Class Descriptor at (0,-1,0,64)'
	DD	01H
	DD	00H
	DD	0ffffffffH
	DD	00H
	DD	040H
	DD	FLAT:??_R3_Generic_error_category@std@@8
rdata$r	ENDS
;	COMDAT ??_R2_Generic_error_category@std@@8
rdata$r	SEGMENT
??_R2_Generic_error_category@std@@8 DD FLAT:??_R1A@?0A@EA@_Generic_error_category@std@@8 ; std::_Generic_error_category::`RTTI Base Class Array'
	DD	FLAT:??_R1A@?0A@EA@error_category@std@@8
rdata$r	ENDS
;	COMDAT ??_R3_Generic_error_category@std@@8
rdata$r	SEGMENT
??_R3_Generic_error_category@std@@8 DD 00H		; std::_Generic_error_category::`RTTI Class Hierarchy Descriptor'
	DD	00H
	DD	02H
	DD	FLAT:??_R2_Generic_error_category@std@@8
rdata$r	ENDS
;	COMDAT ??_R0?AV_Generic_error_category@std@@@8
_DATA	SEGMENT
??_R0?AV_Generic_error_category@std@@@8 DD FLAT:??_7type_info@@6B@ ; std::_Generic_error_category `RTTI Type Descriptor'
	DD	00H
	DB	'.?AV_Generic_error_category@std@@', 00H
_DATA	ENDS
;	COMDAT ??_R4_Generic_error_category@std@@6B@
rdata$r	SEGMENT
??_R4_Generic_error_category@std@@6B@ DD 00H		; std::_Generic_error_category::`RTTI Complete Object Locator'
	DD	00H
	DD	00H
	DD	FLAT:??_R0?AV_Generic_error_category@std@@@8
	DD	FLAT:??_R3_Generic_error_category@std@@8
rdata$r	ENDS
;	COMDAT ??_R1A@?0A@EA@error_category@std@@8
rdata$r	SEGMENT
??_R1A@?0A@EA@error_category@std@@8 DD FLAT:??_R0?AVerror_category@std@@@8 ; std::error_category::`RTTI Base Class Descriptor at (0,-1,0,64)'
	DD	00H
	DD	00H
	DD	0ffffffffH
	DD	00H
	DD	040H
	DD	FLAT:??_R3error_category@std@@8
rdata$r	ENDS
;	COMDAT ??_R2error_category@std@@8
rdata$r	SEGMENT
??_R2error_category@std@@8 DD FLAT:??_R1A@?0A@EA@error_category@std@@8 ; std::error_category::`RTTI Base Class Array'
rdata$r	ENDS
;	COMDAT ??_R3error_category@std@@8
rdata$r	SEGMENT
??_R3error_category@std@@8 DD 00H			; std::error_category::`RTTI Class Hierarchy Descriptor'
	DD	00H
	DD	01H
	DD	FLAT:??_R2error_category@std@@8
rdata$r	ENDS
;	COMDAT ??_R0?AVerror_category@std@@@8
_DATA	SEGMENT
??_R0?AVerror_category@std@@@8 DD FLAT:??_7type_info@@6B@ ; std::error_category `RTTI Type Descriptor'
	DD	00H
	DB	'.?AVerror_category@std@@', 00H
_DATA	ENDS
;	COMDAT ??_R4error_category@std@@6B@
rdata$r	SEGMENT
??_R4error_category@std@@6B@ DD 00H			; std::error_category::`RTTI Complete Object Locator'
	DD	00H
	DD	00H
	DD	FLAT:??_R0?AVerror_category@std@@@8
	DD	FLAT:??_R3error_category@std@@8
rdata$r	ENDS
;	COMDAT ??_C@_0BA@JFNIOLAK@string?5too?5long?$AA@
CONST	SEGMENT
??_C@_0BA@JFNIOLAK@string?5too?5long?$AA@ DB 'string too long', 00H ; `string'
CONST	ENDS
;	COMDAT ??_C@_0BI@CFPLBAOH@invalid?5string?5position?$AA@
CONST	SEGMENT
??_C@_0BI@CFPLBAOH@invalid?5string?5position?$AA@ DB 'invalid string posi'
	DB	'tion', 00H					; `string'
CONST	ENDS
;	COMDAT ??_C@_0O@BIEMCAOH@?$CF03d?5?5?$CF1ld?5?$CFs?$AA@
CONST	SEGMENT
??_C@_0O@BIEMCAOH@?$CF03d?5?5?$CF1ld?5?$CFs?$AA@ DB '%03d  %1ld %s', 00H ; `string'
CONST	ENDS
;	COMDAT ??_C@_07JBOAFILA@?$CF1ld?5ft?$AA@
CONST	SEGMENT
??_C@_07JBOAFILA@?$CF1ld?5ft?$AA@ DB '%1ld ft', 00H	; `string'
CONST	ENDS
;	COMDAT ??_C@_05BKLPLJPH@?$CF03ld?$AA@
CONST	SEGMENT
??_C@_05BKLPLJPH@?$CF03ld?$AA@ DB '%03ld', 00H		; `string'
CONST	ENDS
;	COMDAT ??_7Render3D@@6B@
CONST	SEGMENT
??_7Render3D@@6B@ DD FLAT:??_R4Render3D@@6B@		; Render3D::`vftable'
	DD	FLAT:??_ERender3D@@UAEPAXI@Z
	DD	FLAT:?Setup@VirtualDisplay@@UAEXXZ
	DD	FLAT:?Cleanup@Render3D@@UAEXXZ
	DD	FLAT:?StartDraw@Render3D@@UAEXXZ
	DD	FLAT:?ClearDraw@Render2D@@UAEXXZ
	DD	FLAT:?EndDraw@Render2D@@UAEXXZ
	DD	FLAT:?Point@VirtualDisplay@@UAEXMM@Z
	DD	FLAT:?Line@VirtualDisplay@@UAEXMMMMM@Z
	DD	FLAT:?Line@VirtualDisplay@@UAEXMMMM@Z
	DD	FLAT:?Tri@VirtualDisplay@@UAEXMMMMMM@Z
	DD	FLAT:?Oval@VirtualDisplay@@UAEXMMMM@Z
	DD	FLAT:?OvalArc@VirtualDisplay@@UAEXMMMMMM@Z
	DD	FLAT:?Circle@VirtualDisplay@@UAEXMMM@Z
	DD	FLAT:?Arc@VirtualDisplay@@UAEXMMMMM@Z
	DD	FLAT:?TextLeft@VirtualDisplay@@UAEXMMPBDH@Z
	DD	FLAT:?TextRight@VirtualDisplay@@UAEXMMPBDH@Z
	DD	FLAT:?TextLeftVertical@VirtualDisplay@@UAEXMMPBDH@Z
	DD	FLAT:?TextRightVertical@VirtualDisplay@@UAEXMMPBDH@Z
	DD	FLAT:?TextCenter@VirtualDisplay@@UAEXMMPBDH@Z
	DD	FLAT:?TextCenterVertical@VirtualDisplay@@UAEXMMPBDH@Z
	DD	FLAT:?TextWrap@VirtualDisplay@@UAEHMMPBDMM@Z
	DD	FLAT:?TextWidth@VirtualDisplay@@UAEMPAD@Z
	DD	FLAT:?TextHeight@VirtualDisplay@@UAEMXZ
	DD	FLAT:?SetColor@Render2D@@UAEXK@Z
	DD	FLAT:?SetBackground@Render2D@@UAEXK@Z
	DD	FLAT:?ScreenText@Render2D@@UAEXMMPBDH@Z
	DD	FLAT:?SetLineStyle@Render2D@@UAEXH@Z
	DD	FLAT:?Color@Render2D@@UAEKXZ
	DD	FLAT:?SetViewport@Render3D@@UAEXMMMM@Z
	DD	FLAT:?SetViewportRelative@VirtualDisplay@@UAEXMMMM@Z
	DD	FLAT:?Render2DPoint@Render2D@@UAEXMM@Z
	DD	FLAT:?Render2DLine@Render2D@@UAEXMMMM@Z
	DD	FLAT:?Render2DTri@Render2D@@UAEXMMMMMM@Z
	DD	FLAT:?Setup@Render3D@@UAEXPAVImageBuffer@@@Z
	DD	FLAT:?SetImageBuffer@Render2D@@UAEXPAVImageBuffer@@@Z
	DD	FLAT:?ClearZBuffer@Render2D@@UAEXXZ
CONST	ENDS
;	COMDAT ??_7Render2D@@6B@
CONST	SEGMENT
??_7Render2D@@6B@ DD FLAT:??_R4Render2D@@6B@		; Render2D::`vftable'
	DD	FLAT:??_ERender2D@@UAEPAXI@Z
	DD	FLAT:?Setup@VirtualDisplay@@UAEXXZ
	DD	FLAT:?Cleanup@Render2D@@UAEXXZ
	DD	FLAT:?StartDraw@Render2D@@UAEXXZ
	DD	FLAT:?ClearDraw@Render2D@@UAEXXZ
	DD	FLAT:?EndDraw@Render2D@@UAEXXZ
	DD	FLAT:?Point@VirtualDisplay@@UAEXMM@Z
	DD	FLAT:?Line@VirtualDisplay@@UAEXMMMMM@Z
	DD	FLAT:?Line@VirtualDisplay@@UAEXMMMM@Z
	DD	FLAT:?Tri@VirtualDisplay@@UAEXMMMMMM@Z
	DD	FLAT:?Oval@VirtualDisplay@@UAEXMMMM@Z
	DD	FLAT:?OvalArc@VirtualDisplay@@UAEXMMMMMM@Z
	DD	FLAT:?Circle@VirtualDisplay@@UAEXMMM@Z
	DD	FLAT:?Arc@VirtualDisplay@@UAEXMMMMM@Z
	DD	FLAT:?TextLeft@VirtualDisplay@@UAEXMMPBDH@Z
	DD	FLAT:?TextRight@VirtualDisplay@@UAEXMMPBDH@Z
	DD	FLAT:?TextLeftVertical@VirtualDisplay@@UAEXMMPBDH@Z
	DD	FLAT:?TextRightVertical@VirtualDisplay@@UAEXMMPBDH@Z
	DD	FLAT:?TextCenter@VirtualDisplay@@UAEXMMPBDH@Z
	DD	FLAT:?TextCenterVertical@VirtualDisplay@@UAEXMMPBDH@Z
	DD	FLAT:?TextWrap@VirtualDisplay@@UAEHMMPBDMM@Z
	DD	FLAT:?TextWidth@VirtualDisplay@@UAEMPAD@Z
	DD	FLAT:?TextHeight@VirtualDisplay@@UAEMXZ
	DD	FLAT:?SetColor@Render2D@@UAEXK@Z
	DD	FLAT:?SetBackground@Render2D@@UAEXK@Z
	DD	FLAT:?ScreenText@Render2D@@UAEXMMPBDH@Z
	DD	FLAT:?SetLineStyle@Render2D@@UAEXH@Z
	DD	FLAT:?Color@Render2D@@UAEKXZ
	DD	FLAT:?SetViewport@Render2D@@UAEXMMMM@Z
	DD	FLAT:?SetViewportRelative@VirtualDisplay@@UAEXMMMM@Z
	DD	FLAT:?Render2DPoint@Render2D@@UAEXMM@Z
	DD	FLAT:?Render2DLine@Render2D@@UAEXMMMM@Z
	DD	FLAT:?Render2DTri@Render2D@@UAEXMMMMMM@Z
	DD	FLAT:?Setup@Render2D@@UAEXPAVImageBuffer@@@Z
	DD	FLAT:?SetImageBuffer@Render2D@@UAEXPAVImageBuffer@@@Z
	DD	FLAT:?ClearZBuffer@Render2D@@UAEXXZ
CONST	ENDS
;	COMDAT ??_7VirtualDisplay@@6B@
CONST	SEGMENT
??_7VirtualDisplay@@6B@ DD FLAT:??_R4VirtualDisplay@@6B@ ; VirtualDisplay::`vftable'
	DD	FLAT:??_EVirtualDisplay@@UAEPAXI@Z
	DD	FLAT:?Setup@VirtualDisplay@@UAEXXZ
	DD	FLAT:?Cleanup@VirtualDisplay@@UAEXXZ
	DD	FLAT:__purecall
	DD	FLAT:__purecall
	DD	FLAT:__purecall
	DD	FLAT:?Point@VirtualDisplay@@UAEXMM@Z
	DD	FLAT:?Line@VirtualDisplay@@UAEXMMMMM@Z
	DD	FLAT:?Line@VirtualDisplay@@UAEXMMMM@Z
	DD	FLAT:?Tri@VirtualDisplay@@UAEXMMMMMM@Z
	DD	FLAT:?Oval@VirtualDisplay@@UAEXMMMM@Z
	DD	FLAT:?OvalArc@VirtualDisplay@@UAEXMMMMMM@Z
	DD	FLAT:?Circle@VirtualDisplay@@UAEXMMM@Z
	DD	FLAT:?Arc@VirtualDisplay@@UAEXMMMMM@Z
	DD	FLAT:?TextLeft@VirtualDisplay@@UAEXMMPBDH@Z
	DD	FLAT:?TextRight@VirtualDisplay@@UAEXMMPBDH@Z
	DD	FLAT:?TextLeftVertical@VirtualDisplay@@UAEXMMPBDH@Z
	DD	FLAT:?TextRightVertical@VirtualDisplay@@UAEXMMPBDH@Z
	DD	FLAT:?TextCenter@VirtualDisplay@@UAEXMMPBDH@Z
	DD	FLAT:?TextCenterVertical@VirtualDisplay@@UAEXMMPBDH@Z
	DD	FLAT:?TextWrap@VirtualDisplay@@UAEHMMPBDMM@Z
	DD	FLAT:?TextWidth@VirtualDisplay@@UAEMPAD@Z
	DD	FLAT:?TextHeight@VirtualDisplay@@UAEMXZ
	DD	FLAT:__purecall
	DD	FLAT:__purecall
	DD	FLAT:__purecall
	DD	FLAT:?SetLineStyle@VirtualDisplay@@UAEXH@Z
	DD	FLAT:?Color@VirtualDisplay@@UAEKXZ
	DD	FLAT:?SetViewport@VirtualDisplay@@UAEXMMMM@Z
	DD	FLAT:?SetViewportRelative@VirtualDisplay@@UAEXMMMM@Z
	DD	FLAT:__purecall
	DD	FLAT:__purecall
	DD	FLAT:?Render2DTri@VirtualDisplay@@MAEXMMMMMM@Z
CONST	ENDS
;	COMDAT ??_C@_06FHFOAHML@system?$AA@
CONST	SEGMENT
??_C@_06FHFOAHML@system?$AA@ DB 'system', 00H		; `string'
CONST	ENDS
;	COMDAT ??_7_System_error_category@std@@6B@
CONST	SEGMENT
??_7_System_error_category@std@@6B@ DD FLAT:??_R4_System_error_category@std@@6B@ ; std::_System_error_category::`vftable'
	DD	FLAT:??_E_System_error_category@std@@UAEPAXI@Z
	DD	FLAT:?name@_System_error_category@std@@UBEPBDXZ
	DD	FLAT:?message@_System_error_category@std@@UBE?AV?$basic_string@DU?$char_traits@D@std@@V?$allocator@D@2@@2@H@Z
	DD	FLAT:?default_error_condition@_System_error_category@std@@UBE?AVerror_condition@2@H@Z
	DD	FLAT:?equivalent@error_category@std@@UBE_NABVerror_code@2@H@Z
	DD	FLAT:?equivalent@error_category@std@@UBE_NHABVerror_condition@2@@Z
CONST	ENDS
;	COMDAT ??_C@_0BG@PADBLCHM@iostream?5stream?5error?$AA@
CONST	SEGMENT
??_C@_0BG@PADBLCHM@iostream?5stream?5error?$AA@ DB 'iostream stream error'
	DB	00H						; `string'
CONST	ENDS
;	COMDAT ??_C@_08LLGCOLLL@iostream?$AA@
CONST	SEGMENT
??_C@_08LLGCOLLL@iostream?$AA@ DB 'iostream', 00H	; `string'
CONST	ENDS
;	COMDAT ??_7_Iostream_error_category@std@@6B@
CONST	SEGMENT
??_7_Iostream_error_category@std@@6B@ DD FLAT:??_R4_Iostream_error_category@std@@6B@ ; std::_Iostream_error_category::`vftable'
	DD	FLAT:??_E_Iostream_error_category@std@@UAEPAXI@Z
	DD	FLAT:?name@_Iostream_error_category@std@@UBEPBDXZ
	DD	FLAT:?message@_Iostream_error_category@std@@UBE?AV?$basic_string@DU?$char_traits@D@std@@V?$allocator@D@2@@2@H@Z
	DD	FLAT:?default_error_condition@error_category@std@@UBE?AVerror_condition@2@H@Z
	DD	FLAT:?equivalent@error_category@std@@UBE_NABVerror_code@2@H@Z
	DD	FLAT:?equivalent@error_category@std@@UBE_NHABVerror_condition@2@@Z
CONST	ENDS
;	COMDAT ??_C@_0O@BFJCFAAK@unknown?5error?$AA@
CONST	SEGMENT
??_C@_0O@BFJCFAAK@unknown?5error?$AA@ DB 'unknown error', 00H ; `string'
CONST	ENDS
;	COMDAT ??_C@_07DCLBNMLN@generic?$AA@
CONST	SEGMENT
??_C@_07DCLBNMLN@generic?$AA@ DB 'generic', 00H		; `string'
CONST	ENDS
;	COMDAT ??_7_Generic_error_category@std@@6B@
CONST	SEGMENT
??_7_Generic_error_category@std@@6B@ DD FLAT:??_R4_Generic_error_category@std@@6B@ ; std::_Generic_error_category::`vftable'
	DD	FLAT:??_E_Generic_error_category@std@@UAEPAXI@Z
	DD	FLAT:?name@_Generic_error_category@std@@UBEPBDXZ
	DD	FLAT:?message@_Generic_error_category@std@@UBE?AV?$basic_string@DU?$char_traits@D@std@@V?$allocator@D@2@@2@H@Z
	DD	FLAT:?default_error_condition@error_category@std@@UBE?AVerror_condition@2@H@Z
	DD	FLAT:?equivalent@error_category@std@@UBE_NABVerror_code@2@H@Z
	DD	FLAT:?equivalent@error_category@std@@UBE_NHABVerror_condition@2@@Z
CONST	ENDS
;	COMDAT ??_7error_category@std@@6B@
CONST	SEGMENT
??_7error_category@std@@6B@ DD FLAT:??_R4error_category@std@@6B@ ; std::error_category::`vftable'
	DD	FLAT:??_Eerror_category@std@@UAEPAXI@Z
	DD	FLAT:__purecall
	DD	FLAT:__purecall
	DD	FLAT:?default_error_condition@error_category@std@@UBE?AVerror_condition@2@H@Z
	DD	FLAT:?equivalent@error_category@std@@UBE_NABVerror_code@2@H@Z
	DD	FLAT:?equivalent@error_category@std@@UBE_NHABVerror_condition@2@@Z
CONST	ENDS
;	COMDAT xdata$x
xdata$x	SEGMENT
__unwindtable$??$construct@PADAAPAD@?$allocator@D@std@@QAEXPAPADAAPAD@Z DD 0ffffffffH
	DD	FLAT:__unwindfunclet$??$construct@PADAAPAD@?$allocator@D@std@@QAEXPAPADAAPAD@Z$0
__ehfuncinfo$??$construct@PADAAPAD@?$allocator@D@std@@QAEXPAPADAAPAD@Z DD 019930522H
	DD	01H
	DD	FLAT:__unwindtable$??$construct@PADAAPAD@?$allocator@D@std@@QAEXPAPADAAPAD@Z
	DD	2 DUP(00H)
	DD	2 DUP(00H)
	DD	00H
	DD	01H
xdata$x	ENDS
xdata$x	SEGMENT
__unwindtable$?UI_Deaggregate@@YAHPAVObjectiveClass@@@Z DD 0ffffffffH
	DD	FLAT:__unwindfunclet$?UI_Deaggregate@@YAHPAVObjectiveClass@@@Z$0
__unwindtable$?InitObjectViewer@@YAXPAVC_Window@@J@Z DD 0ffffffffH
	DD	FLAT:__unwindfunclet$?InitObjectViewer@@YAXPAVC_Window@@J@Z$0
	DD	0ffffffffH
	DD	FLAT:__unwindfunclet$?InitObjectViewer@@YAXPAVC_Window@@J@Z$1
__ehfuncinfo$?InitObjectViewer@@YAXPAVC_Window@@J@Z DD 019930522H
	DD	02H
	DD	FLAT:__unwindtable$?InitObjectViewer@@YAXPAVC_Window@@J@Z
	DD	2 DUP(00H)
	DD	2 DUP(00H)
	DD	00H
	DD	01H
__ehfuncinfo$?UI_Deaggregate@@YAHPAVObjectiveClass@@@Z DD 019930522H
	DD	01H
	DD	FLAT:__unwindtable$?UI_Deaggregate@@YAHPAVObjectiveClass@@@Z
	DD	2 DUP(00H)
	DD	2 DUP(00H)
	DD	00H
	DD	01H
xdata$x	ENDS
;	COMDAT xdata$x
xdata$x	SEGMENT
__catchsym$?_Copy@?$basic_string@DU?$char_traits@D@std@@V?$allocator@D@2@@std@@QAEXII@Z$5 DD 040H
	DD	00H
	DD	00H
	DD	FLAT:__catch$?_Copy@?$basic_string@DU?$char_traits@D@std@@V?$allocator@D@2@@std@@QAEXII@Z$0
__catchsym$?_Copy@?$basic_string@DU?$char_traits@D@std@@V?$allocator@D@2@@std@@QAEXII@Z$4 DD 040H
	DD	00H
	DD	00H
	DD	FLAT:__catch$?_Copy@?$basic_string@DU?$char_traits@D@std@@V?$allocator@D@2@@std@@QAEXII@Z$1
__unwindtable$?_Copy@?$basic_string@DU?$char_traits@D@std@@V?$allocator@D@2@@std@@QAEXII@Z DD 0ffffffffH
	DD	00H
	DD	0ffffffffH
	DD	00H
	DD	01H
	DD	00H
	DD	01H
	DD	00H
__ehfuncinfo$?_Copy@?$basic_string@DU?$char_traits@D@std@@V?$allocator@D@2@@std@@QAEXII@Z DD 019930522H
	DD	04H
	DD	FLAT:__unwindtable$?_Copy@?$basic_string@DU?$char_traits@D@std@@V?$allocator@D@2@@std@@QAEXII@Z
	DD	02H
	DD	FLAT:__tryblocktable$?_Copy@?$basic_string@DU?$char_traits@D@std@@V?$allocator@D@2@@std@@QAEXII@Z
	DD	2 DUP(00H)
	DD	00H
	DD	01H
__tryblocktable$?_Copy@?$basic_string@DU?$char_traits@D@std@@V?$allocator@D@2@@std@@QAEXII@Z DD 02H
	DD	02H
	DD	03H
	DD	01H
	DD	FLAT:__catchsym$?_Copy@?$basic_string@DU?$char_traits@D@std@@V?$allocator@D@2@@std@@QAEXII@Z$4
	DD	00H
	DD	00H
	DD	03H
	DD	01H
	DD	FLAT:__catchsym$?_Copy@?$basic_string@DU?$char_traits@D@std@@V?$allocator@D@2@@std@@QAEXII@Z$5
xdata$x	ENDS
CRT$XCU	SEGMENT
_allocator_arg$initializer$ DD FLAT:??__Eallocator_arg@std@@YAXXZ
CRT$XCU	ENDS
;	COMDAT CRT$XCU
CRT$XCU	SEGMENT
?_Generic_object$initializer$@?$_Error_objects@H@std@@2P6AXXZA DD FLAT:??__E?_Generic_object@?$_Error_objects@H@std@@2V_Generic_error_category@2@A@@YAXXZ ; std::_Error_objects<int>::_Generic_object$initializer$
CRT$XCU	ENDS
;	COMDAT CRT$XCU
CRT$XCU	SEGMENT
?_Iostream_object$initializer$@?$_Error_objects@H@std@@2P6AXXZA DD FLAT:??__E?_Iostream_object@?$_Error_objects@H@std@@2V_Iostream_error_category@2@A@@YAXXZ ; std::_Error_objects<int>::_Iostream_object$initializer$
CRT$XCU	ENDS
;	COMDAT CRT$XCU
CRT$XCU	SEGMENT
?_System_object$initializer$@?$_Error_objects@H@std@@2P6AXXZA DD FLAT:??__E?_System_object@?$_Error_objects@H@std@@2V_System_error_category@2@A@@YAXXZ ; std::_Error_objects<int>::_System_object$initializer$
CRT$XCU	ENDS
;	COMDAT CRT$XCU
CRT$XCU	SEGMENT
?id$initializer$@?$num_put@DV?$back_insert_iterator@V?$basic_string@DU?$char_traits@D@std@@V?$allocator@D@2@@std@@@std@@@std@@2P6AXXZA DD FLAT:??__E?id@?$num_put@DV?$back_insert_iterator@V?$basic_string@DU?$char_traits@D@std@@V?$allocator@D@2@@std@@@std@@@std@@2V0locale@2@A@@YAXXZ ; std::num_put<char,std::back_insert_iterator<std::basic_string<char,std::char_traits<char>,std::allocator<char> > > >::id$initializer$
CRT$XCU	ENDS
;	COMDAT CRT$XCU
CRT$XCU	SEGMENT
?id$initializer$@?$num_put@_WV?$back_insert_iterator@V?$basic_string@_WU?$char_traits@_W@std@@V?$allocator@_W@2@@std@@@std@@@std@@2P6AXXZA DD FLAT:??__E?id@?$num_put@_WV?$back_insert_iterator@V?$basic_string@_WU?$char_traits@_W@std@@V?$allocator@_W@2@@std@@@std@@@std@@2V0locale@2@A@@YAXXZ ; std::num_put<wchar_t,std::back_insert_iterator<std::basic_string<wchar_t,std::char_traits<wchar_t>,std::allocator<wchar_t> > > >::id$initializer$
CRT$XCU	ENDS
;	COMDAT CRT$XCU
CRT$XCU	SEGMENT
?id$initializer$@?$numpunct@D@std@@2P6AXXZA DD FLAT:??__E?id@?$numpunct@D@std@@2V0locale@2@A@@YAXXZ ; std::numpunct<char>::id$initializer$
CRT$XCU	ENDS
;	COMDAT CRT$XCU
CRT$XCU	SEGMENT
?id$initializer$@?$numpunct@_W@std@@2P6AXXZA DD FLAT:??__E?id@?$numpunct@_W@std@@2V0locale@2@A@@YAXXZ ; std::numpunct<wchar_t>::id$initializer$
CRT$XCU	ENDS
; Function compile flags: /Odtp
; File c:\program files (x86)\microsoft visual studio 11.0\vc\include\xmemory0
;	COMDAT ??$destroy@PAD@?$allocator@D@std@@QAEXPAPAD@Z
_TEXT	SEGMENT
_this$ = -4						; size = 4
__Ptr$ = 8						; size = 4
??$destroy@PAD@?$allocator@D@std@@QAEXPAPAD@Z PROC	; std::allocator<char>::destroy<char *>, COMDAT
; _this$ = ecx

; 621  : 		void destroy(_Uty *_Ptr)

	push	ebp
	mov	ebp, esp
	push	ecx
	mov	DWORD PTR _this$[ebp], ecx

; 622  : 		{	// destroy object at _Ptr
; 623  : 		_Ptr->~_Uty();
; 624  : 		}

	mov	esp, ebp
	pop	ebp
	ret	4
??$destroy@PAD@?$allocator@D@std@@QAEXPAPAD@Z ENDP	; std::allocator<char>::destroy<char *>
_TEXT	ENDS
; Function compile flags: /Odtp
; File c:\program files (x86)\microsoft visual studio 11.0\vc\include\xmemory0
;	COMDAT ??$construct@PADAAPAD@?$allocator@D@std@@QAEXPAPADAAPAD@Z
_TEXT	SEGMENT
$T2 = -28						; size = 4
_this$ = -24						; size = 4
tv73 = -20						; size = 4
$T3 = -16						; size = 4
__$EHRec$ = -12						; size = 12
__Ptr$ = 8						; size = 4
__V0$ = 12						; size = 4
??$construct@PADAAPAD@?$allocator@D@std@@QAEXPAPADAAPAD@Z PROC ; std::allocator<char>::construct<char *,char * &>, COMDAT
; _this$ = ecx

; 617  : _VARIADIC_EXPAND_0X(_ALLOC_MEMBER_CONSTRUCT, , , , )

	push	ebp
	mov	ebp, esp
	push	-1
	push	__ehhandler$??$construct@PADAAPAD@?$allocator@D@std@@QAEXPAPADAAPAD@Z
	mov	eax, DWORD PTR fs:0
	push	eax
	sub	esp, 16					; 00000010H
	mov	eax, DWORD PTR ___security_cookie
	xor	eax, ebp
	push	eax
	lea	eax, DWORD PTR __$EHRec$[ebp]
	mov	DWORD PTR fs:0, eax
	mov	DWORD PTR _this$[ebp], ecx
	mov	eax, DWORD PTR __Ptr$[ebp]
	push	eax
	push	4
	call	??2@YAPAXIPAX@Z				; operator new
	add	esp, 8
	mov	DWORD PTR $T3[ebp], eax
	mov	DWORD PTR __$EHRec$[ebp+8], 0
	cmp	DWORD PTR $T3[ebp], 0
	je	SHORT $LN3@construct
	mov	ecx, DWORD PTR __V0$[ebp]
	push	ecx
	call	??$forward@AAPAD@std@@YAAAPADAAPAD@Z	; std::forward<char * &>
	add	esp, 4
	mov	edx, DWORD PTR $T3[ebp]
	mov	eax, DWORD PTR [eax]
	mov	DWORD PTR [edx], eax
	mov	ecx, DWORD PTR $T3[ebp]
	mov	DWORD PTR tv73[ebp], ecx
	jmp	SHORT $LN4@construct
$LN3@construct:
	mov	DWORD PTR tv73[ebp], 0
$LN4@construct:
	mov	edx, DWORD PTR tv73[ebp]
	mov	DWORD PTR $T2[ebp], edx
	mov	DWORD PTR __$EHRec$[ebp+8], -1
	mov	ecx, DWORD PTR __$EHRec$[ebp]
	mov	DWORD PTR fs:0, ecx
	pop	ecx
	mov	esp, ebp
	pop	ebp
	ret	8
_TEXT	ENDS
;	COMDAT text$x
text$x	SEGMENT
__unwindfunclet$??$construct@PADAAPAD@?$allocator@D@std@@QAEXPAPADAAPAD@Z$0:
	mov	eax, DWORD PTR __Ptr$[ebp]
	push	eax
	mov	eax, DWORD PTR $T3[ebp]
	push	eax
	call	??3@YAXPAX0@Z				; operator delete
	add	esp, 8
	ret	0
__ehhandler$??$construct@PADAAPAD@?$allocator@D@std@@QAEXPAPADAAPAD@Z:
	mov	edx, DWORD PTR [esp+8]
	lea	eax, DWORD PTR [edx+12]
	mov	ecx, DWORD PTR [edx-20]
	xor	ecx, eax
	call	@__security_check_cookie@4
	mov	eax, OFFSET __ehfuncinfo$??$construct@PADAAPAD@?$allocator@D@std@@QAEXPAPADAAPAD@Z
	jmp	___CxxFrameHandler3
text$x	ENDS
??$construct@PADAAPAD@?$allocator@D@std@@QAEXPAPADAAPAD@Z ENDP ; std::allocator<char>::construct<char *,char * &>
; Function compile flags: /Odtp
; File c:\program files (x86)\microsoft visual studio 11.0\vc\include\xlocnum
;	COMDAT ??__E?id@?$numpunct@_W@std@@2V0locale@2@A@@YAXXZ
text$yc	SEGMENT
??__E?id@?$numpunct@_W@std@@2V0locale@2@A@@YAXXZ PROC	; `dynamic initializer for 'std::numpunct<wchar_t>::id'', COMDAT

; 155  : 		void _Getvals(wchar_t, const lconv *_Ptr, _Locinfo::_Cvtvec)

	push	ebp
	mov	ebp, esp
	push	0
	mov	ecx, OFFSET ?id@?$numpunct@_W@std@@2V0locale@2@A ; std::numpunct<wchar_t>::id
	call	??0id@locale@std@@QAE@I@Z		; std::locale::id::id
	pop	ebp
	ret	0
??__E?id@?$numpunct@_W@std@@2V0locale@2@A@@YAXXZ ENDP	; `dynamic initializer for 'std::numpunct<wchar_t>::id''
text$yc	ENDS
; Function compile flags: /Odtp
; File c:\program files (x86)\microsoft visual studio 11.0\vc\include\xlocnum
;	COMDAT ??__E?id@?$numpunct@D@std@@2V0locale@2@A@@YAXXZ
text$yc	SEGMENT
??__E?id@?$numpunct@D@std@@2V0locale@2@A@@YAXXZ PROC	; `dynamic initializer for 'std::numpunct<char>::id'', COMDAT

; 155  : 		void _Getvals(wchar_t, const lconv *_Ptr, _Locinfo::_Cvtvec)

	push	ebp
	mov	ebp, esp
	push	0
	mov	ecx, OFFSET ?id@?$numpunct@D@std@@2V0locale@2@A ; std::numpunct<char>::id
	call	??0id@locale@std@@QAE@I@Z		; std::locale::id::id
	pop	ebp
	ret	0
??__E?id@?$numpunct@D@std@@2V0locale@2@A@@YAXXZ ENDP	; `dynamic initializer for 'std::numpunct<char>::id''
text$yc	ENDS
; Function compile flags: /Odtp
; File c:\program files (x86)\microsoft visual studio 11.0\vc\include\xlocnum
;	COMDAT ??__E?id@?$num_put@_WV?$back_insert_iterator@V?$basic_string@_WU?$char_traits@_W@std@@V?$allocator@_W@2@@std@@@std@@@std@@2V0locale@2@A@@YAXXZ
text$yc	SEGMENT
??__E?id@?$num_put@_WV?$back_insert_iterator@V?$basic_string@_WU?$char_traits@_W@std@@V?$allocator@_W@2@@std@@@std@@@std@@2V0locale@2@A@@YAXXZ PROC ; `dynamic initializer for 'std::num_put<wchar_t,std::back_insert_iterator<std::basic_string<wchar_t,std::char_traits<wchar_t>,std::allocator<wchar_t> > > >::id'', COMDAT

; 155  : 		void _Getvals(wchar_t, const lconv *_Ptr, _Locinfo::_Cvtvec)

	push	ebp
	mov	ebp, esp
	push	0
	mov	ecx, OFFSET ?id@?$num_put@_WV?$back_insert_iterator@V?$basic_string@_WU?$char_traits@_W@std@@V?$allocator@_W@2@@std@@@std@@@std@@2V0locale@2@A ; std::num_put<wchar_t,std::back_insert_iterator<std::basic_string<wchar_t,std::char_traits<wchar_t>,std::allocator<wchar_t> > > >::id
	call	??0id@locale@std@@QAE@I@Z		; std::locale::id::id
	pop	ebp
	ret	0
??__E?id@?$num_put@_WV?$back_insert_iterator@V?$basic_string@_WU?$char_traits@_W@std@@V?$allocator@_W@2@@std@@@std@@@std@@2V0locale@2@A@@YAXXZ ENDP ; `dynamic initializer for 'std::num_put<wchar_t,std::back_insert_iterator<std::basic_string<wchar_t,std::char_traits<wchar_t>,std::allocator<wchar_t> > > >::id''
text$yc	ENDS
; Function compile flags: /Odtp
; File c:\program files (x86)\microsoft visual studio 11.0\vc\include\xlocnum
;	COMDAT ??__E?id@?$num_put@DV?$back_insert_iterator@V?$basic_string@DU?$char_traits@D@std@@V?$allocator@D@2@@std@@@std@@@std@@2V0locale@2@A@@YAXXZ
text$yc	SEGMENT
??__E?id@?$num_put@DV?$back_insert_iterator@V?$basic_string@DU?$char_traits@D@std@@V?$allocator@D@2@@std@@@std@@@std@@2V0locale@2@A@@YAXXZ PROC ; `dynamic initializer for 'std::num_put<char,std::back_insert_iterator<std::basic_string<char,std::char_traits<char>,std::allocator<char> > > >::id'', COMDAT

; 155  : 		void _Getvals(wchar_t, const lconv *_Ptr, _Locinfo::_Cvtvec)

	push	ebp
	mov	ebp, esp
	push	0
	mov	ecx, OFFSET ?id@?$num_put@DV?$back_insert_iterator@V?$basic_string@DU?$char_traits@D@std@@V?$allocator@D@2@@std@@@std@@@std@@2V0locale@2@A ; std::num_put<char,std::back_insert_iterator<std::basic_string<char,std::char_traits<char>,std::allocator<char> > > >::id
	call	??0id@locale@std@@QAE@I@Z		; std::locale::id::id
	pop	ebp
	ret	0
??__E?id@?$num_put@DV?$back_insert_iterator@V?$basic_string@DU?$char_traits@D@std@@V?$allocator@D@2@@std@@@std@@@std@@2V0locale@2@A@@YAXXZ ENDP ; `dynamic initializer for 'std::num_put<char,std::back_insert_iterator<std::basic_string<char,std::char_traits<char>,std::allocator<char> > > >::id''
text$yc	ENDS
; Function compile flags: /Odtp
; File c:\program files (x86)\microsoft visual studio 11.0\vc\include\xmemory0
;	COMDAT ??$destroy@PAD@?$allocator_traits@V?$allocator@D@std@@@std@@SAXAAV?$allocator@D@1@PAPAD@Z
_TEXT	SEGMENT
__Al$ = 8						; size = 4
__Ptr$ = 12						; size = 4
??$destroy@PAD@?$allocator_traits@V?$allocator@D@std@@@std@@SAXAAV?$allocator@D@1@PAPAD@Z PROC ; std::allocator_traits<std::allocator<char> >::destroy<char *>, COMDAT

; 755  : 		static void destroy(_Alloc& _Al, _Uty *_Ptr)

	push	ebp
	mov	ebp, esp

; 756  : 		{	// destroy object at _Ptr
; 757  : 		_Al.destroy(_Ptr);

	mov	eax, DWORD PTR __Ptr$[ebp]
	push	eax
	mov	ecx, DWORD PTR __Al$[ebp]
	call	??$destroy@PAD@?$allocator@D@std@@QAEXPAPAD@Z ; std::allocator<char>::destroy<char *>

; 758  : 		}

	pop	ebp
	ret	0
??$destroy@PAD@?$allocator_traits@V?$allocator@D@std@@@std@@SAXAAV?$allocator@D@1@PAPAD@Z ENDP ; std::allocator_traits<std::allocator<char> >::destroy<char *>
_TEXT	ENDS
; Function compile flags: /Odtp
; File c:\program files (x86)\microsoft visual studio 11.0\vc\include\xmemory0
;	COMDAT ??$construct@PADAAPAD@?$allocator_traits@V?$allocator@D@std@@@std@@SAXAAV?$allocator@D@1@PAPADAAPAD@Z
_TEXT	SEGMENT
__Al$ = 8						; size = 4
__Ptr$ = 12						; size = 4
__V0$ = 16						; size = 4
??$construct@PADAAPAD@?$allocator_traits@V?$allocator@D@std@@@std@@SAXAAV?$allocator@D@1@PAPADAAPAD@Z PROC ; std::allocator_traits<std::allocator<char> >::construct<char *,char * &>, COMDAT

; 751  : _VARIADIC_EXPAND_0X(_ALLOC_TRAITS_SPECIAL_CONSTRUCT, , , , )

	push	ebp
	mov	ebp, esp
	mov	eax, DWORD PTR __V0$[ebp]
	push	eax
	call	??$forward@AAPAD@std@@YAAAPADAAPAD@Z	; std::forward<char * &>
	add	esp, 4
	push	eax
	mov	ecx, DWORD PTR __Ptr$[ebp]
	push	ecx
	mov	ecx, DWORD PTR __Al$[ebp]
	call	??$construct@PADAAPAD@?$allocator@D@std@@QAEXPAPADAAPAD@Z ; std::allocator<char>::construct<char *,char * &>
	pop	ebp
	ret	0
??$construct@PADAAPAD@?$allocator_traits@V?$allocator@D@std@@@std@@SAXAAV?$allocator@D@1@PAPADAAPAD@Z ENDP ; std::allocator_traits<std::allocator<char> >::construct<char *,char * &>
_TEXT	ENDS
; Function compile flags: /Odtp
; File c:\program files (x86)\microsoft visual studio 11.0\vc\include\type_traits
;	COMDAT ??$forward@AAPAD@std@@YAAAPADAAPAD@Z
_TEXT	SEGMENT
__Arg$ = 8						; size = 4
??$forward@AAPAD@std@@YAAAPADAAPAD@Z PROC		; std::forward<char * &>, COMDAT

; 1775 : 	{	// forward an lvalue

	push	ebp
	mov	ebp, esp

; 1776 : 	return (static_cast<_Ty&&>(_Arg));

	mov	eax, DWORD PTR __Arg$[ebp]

; 1777 : 	}

	pop	ebp
	ret	0
??$forward@AAPAD@std@@YAAAPADAAPAD@Z ENDP		; std::forward<char * &>
_TEXT	ENDS
; Function compile flags: /Odtp
;	COMDAT ??__F?_System_object@?$_Error_objects@H@std@@2V_System_error_category@2@A@@YAXXZ
text$yd	SEGMENT
??__F?_System_object@?$_Error_objects@H@std@@2V_System_error_category@2@A@@YAXXZ PROC ; `dynamic atexit destructor for 'std::_Error_objects<int>::_System_object'', COMDAT
	push	ebp
	mov	ebp, esp
	mov	ecx, OFFSET ?_System_object@?$_Error_objects@H@std@@2V_System_error_category@2@A ; std::_Error_objects<int>::_System_object
	call	??1_System_error_category@std@@UAE@XZ
	pop	ebp
	ret	0
??__F?_System_object@?$_Error_objects@H@std@@2V_System_error_category@2@A@@YAXXZ ENDP ; `dynamic atexit destructor for 'std::_Error_objects<int>::_System_object''
text$yd	ENDS
; Function compile flags: /Odtp
; File c:\program files (x86)\microsoft visual studio 11.0\vc\include\xmemory0
;	COMDAT ??__E?_System_object@?$_Error_objects@H@std@@2V_System_error_category@2@A@@YAXXZ
text$yc	SEGMENT
??__E?_System_object@?$_Error_objects@H@std@@2V_System_error_category@2@A@@YAXXZ PROC ; `dynamic initializer for 'std::_Error_objects<int>::_System_object'', COMDAT

; 627  : 		{	// estimate maximum array size

	push	ebp
	mov	ebp, esp
	mov	ecx, OFFSET ?_System_object@?$_Error_objects@H@std@@2V_System_error_category@2@A ; std::_Error_objects<int>::_System_object
	call	??0_System_error_category@std@@QAE@XZ	; std::_System_error_category::_System_error_category
	push	OFFSET ??__F?_System_object@?$_Error_objects@H@std@@2V_System_error_category@2@A@@YAXXZ ; `dynamic atexit destructor for 'std::_Error_objects<int>::_System_object''
	call	_atexit
	add	esp, 4
	pop	ebp
	ret	0
??__E?_System_object@?$_Error_objects@H@std@@2V_System_error_category@2@A@@YAXXZ ENDP ; `dynamic initializer for 'std::_Error_objects<int>::_System_object''
text$yc	ENDS
; Function compile flags: /Odtp
;	COMDAT ??__F?_Iostream_object@?$_Error_objects@H@std@@2V_Iostream_error_category@2@A@@YAXXZ
text$yd	SEGMENT
??__F?_Iostream_object@?$_Error_objects@H@std@@2V_Iostream_error_category@2@A@@YAXXZ PROC ; `dynamic atexit destructor for 'std::_Error_objects<int>::_Iostream_object'', COMDAT
	push	ebp
	mov	ebp, esp
	mov	ecx, OFFSET ?_Iostream_object@?$_Error_objects@H@std@@2V_Iostream_error_category@2@A ; std::_Error_objects<int>::_Iostream_object
	call	??1_Iostream_error_category@std@@UAE@XZ
	pop	ebp
	ret	0
??__F?_Iostream_object@?$_Error_objects@H@std@@2V_Iostream_error_category@2@A@@YAXXZ ENDP ; `dynamic atexit destructor for 'std::_Error_objects<int>::_Iostream_object''
text$yd	ENDS
; Function compile flags: /Odtp
; File c:\program files (x86)\microsoft visual studio 11.0\vc\include\xmemory0
;	COMDAT ??__E?_Iostream_object@?$_Error_objects@H@std@@2V_Iostream_error_category@2@A@@YAXXZ
text$yc	SEGMENT
??__E?_Iostream_object@?$_Error_objects@H@std@@2V_Iostream_error_category@2@A@@YAXXZ PROC ; `dynamic initializer for 'std::_Error_objects<int>::_Iostream_object'', COMDAT

; 627  : 		{	// estimate maximum array size

	push	ebp
	mov	ebp, esp
	mov	ecx, OFFSET ?_Iostream_object@?$_Error_objects@H@std@@2V_Iostream_error_category@2@A ; std::_Error_objects<int>::_Iostream_object
	call	??0_Iostream_error_category@std@@QAE@XZ	; std::_Iostream_error_category::_Iostream_error_category
	push	OFFSET ??__F?_Iostream_object@?$_Error_objects@H@std@@2V_Iostream_error_category@2@A@@YAXXZ ; `dynamic atexit destructor for 'std::_Error_objects<int>::_Iostream_object''
	call	_atexit
	add	esp, 4
	pop	ebp
	ret	0
??__E?_Iostream_object@?$_Error_objects@H@std@@2V_Iostream_error_category@2@A@@YAXXZ ENDP ; `dynamic initializer for 'std::_Error_objects<int>::_Iostream_object''
text$yc	ENDS
; Function compile flags: /Odtp
;	COMDAT ??__F?_Generic_object@?$_Error_objects@H@std@@2V_Generic_error_category@2@A@@YAXXZ
text$yd	SEGMENT
??__F?_Generic_object@?$_Error_objects@H@std@@2V_Generic_error_category@2@A@@YAXXZ PROC ; `dynamic atexit destructor for 'std::_Error_objects<int>::_Generic_object'', COMDAT
	push	ebp
	mov	ebp, esp
	mov	ecx, OFFSET ?_Generic_object@?$_Error_objects@H@std@@2V_Generic_error_category@2@A ; std::_Error_objects<int>::_Generic_object
	call	??1_Generic_error_category@std@@UAE@XZ
	pop	ebp
	ret	0
??__F?_Generic_object@?$_Error_objects@H@std@@2V_Generic_error_category@2@A@@YAXXZ ENDP ; `dynamic atexit destructor for 'std::_Error_objects<int>::_Generic_object''
text$yd	ENDS
; Function compile flags: /Odtp
; File c:\program files (x86)\microsoft visual studio 11.0\vc\include\xmemory0
;	COMDAT ??__E?_Generic_object@?$_Error_objects@H@std@@2V_Generic_error_category@2@A@@YAXXZ
text$yc	SEGMENT
??__E?_Generic_object@?$_Error_objects@H@std@@2V_Generic_error_category@2@A@@YAXXZ PROC ; `dynamic initializer for 'std::_Error_objects<int>::_Generic_object'', COMDAT

; 627  : 		{	// estimate maximum array size

	push	ebp
	mov	ebp, esp
	mov	ecx, OFFSET ?_Generic_object@?$_Error_objects@H@std@@2V_Generic_error_category@2@A ; std::_Error_objects<int>::_Generic_object
	call	??0_Generic_error_category@std@@QAE@XZ	; std::_Generic_error_category::_Generic_error_category
	push	OFFSET ??__F?_Generic_object@?$_Error_objects@H@std@@2V_Generic_error_category@2@A@@YAXXZ ; `dynamic atexit destructor for 'std::_Error_objects<int>::_Generic_object''
	call	_atexit
	add	esp, 4
	pop	ebp
	ret	0
??__E?_Generic_object@?$_Error_objects@H@std@@2V_Generic_error_category@2@A@@YAXXZ ENDP ; `dynamic initializer for 'std::_Error_objects<int>::_Generic_object''
text$yc	ENDS
; Function compile flags: /Odtp
; File c:\program files (x86)\microsoft visual studio 11.0\vc\include\xmemory0
;	COMDAT ??$_Allocate@D@std@@YAPADIPAD@Z
_TEXT	SEGMENT
__Ptr$ = -4						; size = 4
__Count$ = 8						; size = 4
___formal$ = 12						; size = 4
??$_Allocate@D@std@@YAPADIPAD@Z PROC			; std::_Allocate<char>, COMDAT

; 22   : 	{	// allocate storage for _Count elements of type _Ty

	push	ebp
	mov	ebp, esp
	push	ecx

; 23   : 	void *_Ptr = 0;

	mov	DWORD PTR __Ptr$[ebp], 0

; 24   : 
; 25   : 	if (_Count == 0)

	cmp	DWORD PTR __Count$[ebp], 0
	jne	SHORT $LN4@Allocate

; 26   : 		;
; 27   : 	else if (((size_t)(-1) / sizeof (_Ty) < _Count)

	jmp	SHORT $LN3@Allocate
$LN4@Allocate:

; 28   : 		|| (_Ptr = ::operator new(_Count * sizeof (_Ty))) == 0)

	cmp	DWORD PTR __Count$[ebp], -1
	ja	SHORT $LN1@Allocate
	mov	eax, DWORD PTR __Count$[ebp]
	push	eax
	call	??2@YAPAXI@Z				; operator new
	add	esp, 4
	mov	DWORD PTR __Ptr$[ebp], eax
	cmp	DWORD PTR __Ptr$[ebp], 0
	jne	SHORT $LN3@Allocate
$LN1@Allocate:

; 29   : 		_Xbad_alloc();	// report no memory

	call	?_Xbad_alloc@std@@YAXXZ			; std::_Xbad_alloc
$LN3@Allocate:

; 30   : 
; 31   : 	return ((_Ty *)_Ptr);

	mov	eax, DWORD PTR __Ptr$[ebp]
$LN6@Allocate:

; 32   : 	}

	mov	esp, ebp
	pop	ebp
	ret	0
??$_Allocate@D@std@@YAPADIPAD@Z ENDP			; std::_Allocate<char>
_TEXT	ENDS
; Function compile flags: /Odtp
; File c:\program files (x86)\microsoft visual studio 11.0\vc\include\xstddef
;	COMDAT ??$addressof@D@std@@YAPADAAD@Z
_TEXT	SEGMENT
__Val$ = 8						; size = 4
??$addressof@D@std@@YAPADAAD@Z PROC			; std::addressof<char>, COMDAT

; 85   : 	{	// return address of _Val

	push	ebp
	mov	ebp, esp

; 86   : 	return (reinterpret_cast<_Ty *>(
; 87   : 		(&const_cast<char&>(
; 88   : 		reinterpret_cast<const volatile char&>(_Val)))));

	mov	eax, DWORD PTR __Val$[ebp]

; 89   : 	}

	pop	ebp
	ret	0
??$addressof@D@std@@YAPADAAD@Z ENDP			; std::addressof<char>
_TEXT	ENDS
; Function compile flags: /Odtp
; File c:\program files (x86)\microsoft visual studio 11.0\vc\include\xmemory0
;	COMDAT ??$destroy@PAD@?$_Wrap_alloc@V?$allocator@D@std@@@std@@QAEXPAPAD@Z
_TEXT	SEGMENT
_this$ = -4						; size = 4
__Ptr$ = 8						; size = 4
??$destroy@PAD@?$_Wrap_alloc@V?$allocator@D@std@@@std@@QAEXPAPAD@Z PROC ; std::_Wrap_alloc<std::allocator<char> >::destroy<char *>, COMDAT
; _this$ = ecx

; 907  : 		void destroy(_Ty *_Ptr)

	push	ebp
	mov	ebp, esp
	push	ecx
	mov	DWORD PTR _this$[ebp], ecx

; 908  : 		{	// destroy object at _Ptr
; 909  : 		_Mytraits::destroy(*this, _Ptr);

	mov	eax, DWORD PTR __Ptr$[ebp]
	push	eax
	mov	ecx, DWORD PTR _this$[ebp]
	push	ecx
	call	??$destroy@PAD@?$allocator_traits@V?$allocator@D@std@@@std@@SAXAAV?$allocator@D@1@PAPAD@Z ; std::allocator_traits<std::allocator<char> >::destroy<char *>
	add	esp, 8

; 910  : 		}

	mov	esp, ebp
	pop	ebp
	ret	4
??$destroy@PAD@?$_Wrap_alloc@V?$allocator@D@std@@@std@@QAEXPAPAD@Z ENDP ; std::_Wrap_alloc<std::allocator<char> >::destroy<char *>
_TEXT	ENDS
; Function compile flags: /Odtp
; File c:\program files (x86)\microsoft visual studio 11.0\vc\include\xmemory0
;	COMDAT ??$construct@PADAAPAD@?$_Wrap_alloc@V?$allocator@D@std@@@std@@QAEXPAPADAAPAD@Z
_TEXT	SEGMENT
_this$ = -4						; size = 4
__Ptr$ = 8						; size = 4
__V0$ = 12						; size = 4
??$construct@PADAAPAD@?$_Wrap_alloc@V?$allocator@D@std@@@std@@QAEXPAPADAAPAD@Z PROC ; std::_Wrap_alloc<std::allocator<char> >::construct<char *,char * &>, COMDAT
; _this$ = ecx

; 903  : _VARIADIC_EXPAND_0X(_WRAP_ALLOC_CONSTRUCT, , , , )

	push	ebp
	mov	ebp, esp
	push	ecx
	mov	DWORD PTR _this$[ebp], ecx
	mov	eax, DWORD PTR __V0$[ebp]
	push	eax
	call	??$forward@AAPAD@std@@YAAAPADAAPAD@Z	; std::forward<char * &>
	add	esp, 4
	push	eax
	mov	ecx, DWORD PTR __Ptr$[ebp]
	push	ecx
	mov	edx, DWORD PTR _this$[ebp]
	push	edx
	call	??$construct@PADAAPAD@?$allocator_traits@V?$allocator@D@std@@@std@@SAXAAV?$allocator@D@1@PAPADAAPAD@Z ; std::allocator_traits<std::allocator<char> >::construct<char *,char * &>
	add	esp, 12					; 0000000cH
	mov	esp, ebp
	pop	ebp
	ret	8
??$construct@PADAAPAD@?$_Wrap_alloc@V?$allocator@D@std@@@std@@QAEXPAPADAAPAD@Z ENDP ; std::_Wrap_alloc<std::allocator<char> >::construct<char *,char * &>
_TEXT	ENDS
; Function compile flags: /Odtp
; File c:\users\zhitao li\documents\visual studio 2012\projects\freefalcon\ui\src\general\viewer.cpp
_TEXT	SEGMENT
_win$ = 8						; size = 4
?MoveRendererClient0CB@@YAXPAVC_Window@@@Z PROC		; MoveRendererClient0CB

; 471  : {

	push	ebp
	mov	ebp, esp

; 472  : 	if(gUIViewer)

	cmp	DWORD PTR ?gUIViewer@@3PAVC_3dViewer@@A, 0 ; gUIViewer
	je	SHORT $LN2@MoveRender

; 473  : 		gUIViewer->Viewport(win,0);

	push	0
	mov	eax, DWORD PTR _win$[ebp]
	push	eax
	mov	ecx, DWORD PTR ?gUIViewer@@3PAVC_3dViewer@@A ; gUIViewer
	call	?Viewport@C_3dViewer@@QAEXPAVC_Window@@J@Z ; C_3dViewer::Viewport
$LN2@MoveRender:

; 474  : }

	pop	ebp
	ret	0
?MoveRendererClient0CB@@YAXPAVC_Window@@@Z ENDP		; MoveRendererClient0CB
_TEXT	ENDS
; Function compile flags: /Odtp
; File c:\users\zhitao li\documents\visual studio 2012\projects\freefalcon\ui\src\general\viewer.cpp
_TEXT	SEGMENT
_win$ = 8						; size = 4
?MoveRendererCB@@YAXPAVC_Window@@@Z PROC		; MoveRendererCB

; 465  : {

	push	ebp
	mov	ebp, esp

; 466  : 	if(gUIViewer)

	cmp	DWORD PTR ?gUIViewer@@3PAVC_3dViewer@@A, 0 ; gUIViewer
	je	SHORT $LN2@MoveRender

; 467  : 		gUIViewer->Viewport(win,2);

	push	2
	mov	eax, DWORD PTR _win$[ebp]
	push	eax
	mov	ecx, DWORD PTR ?gUIViewer@@3PAVC_3dViewer@@A ; gUIViewer
	call	?Viewport@C_3dViewer@@QAEXPAVC_Window@@J@Z ; C_3dViewer::Viewport
$LN2@MoveRender:

; 468  : }

	pop	ebp
	ret	0
?MoveRendererCB@@YAXPAVC_Window@@@Z ENDP		; MoveRendererCB
_TEXT	ENDS
; Function compile flags: /Odtp
; File c:\users\zhitao li\documents\visual studio 2012\projects\freefalcon\ui\src\general\viewer.cpp
_TEXT	SEGMENT
___formal$ = 8						; size = 4
___formal$ = 12						; size = 2
___formal$ = 16						; size = 4
?ViewObjectCB@@YAXJFPAVC_Base@@@Z PROC			; ViewObjectCB

; 459  : {

	push	ebp
	mov	ebp, esp

; 460  : 	if(gUIViewer)

	cmp	DWORD PTR ?gUIViewer@@3PAVC_3dViewer@@A, 0 ; gUIViewer
	je	SHORT $LN2@ViewObject

; 461  : 		gUIViewer->View3d(FirstPlane << 24);

	mov	eax, DWORD PTR ?FirstPlane@@3JA		; FirstPlane
	shl	eax, 24					; 00000018H
	push	eax
	mov	ecx, DWORD PTR ?gUIViewer@@3PAVC_3dViewer@@A ; gUIViewer
	call	?View3d@C_3dViewer@@QAEHJ@Z		; C_3dViewer::View3d
$LN2@ViewObject:

; 462  : }

	pop	ebp
	ret	0
?ViewObjectCB@@YAXJFPAVC_Base@@@Z ENDP			; ViewObjectCB
_TEXT	ENDS
; Function compile flags: /Odtp
; File c:\users\zhitao li\documents\visual studio 2012\projects\freefalcon\ui\src\general\viewer.cpp
_TEXT	SEGMENT
_obj$ = -4						; size = 4
___formal$ = 8						; size = 4
___formal$ = 12						; size = 2
___formal$ = 16						; size = 4
?ViewBSPObjectCB@@YAXJFPAVC_Base@@@Z PROC		; ViewBSPObjectCB

; 444  : {

	push	ebp
	mov	ebp, esp
	push	ecx

; 445  : 	BSPLIST *obj;
; 446  : 
; 447  : 	if(gBSPList == NULL) return;

	cmp	DWORD PTR ?gBSPList@@3PAVC_BSPList@@A, 0 ; gBSPList
	jne	SHORT $LN2@ViewBSPObj
	jmp	SHORT $LN3@ViewBSPObj
$LN2@ViewBSPObj:

; 448  : 
; 449  : 	obj=gBSPList->Find(FirstPlane << 24);

	mov	eax, DWORD PTR ?FirstPlane@@3JA		; FirstPlane
	shl	eax, 24					; 00000018H
	push	eax
	mov	ecx, DWORD PTR ?gBSPList@@3PAVC_BSPList@@A ; gBSPList
	call	?Find@C_BSPList@@QAEPAUUI_BSPList@@J@Z	; C_BSPList::Find
	mov	DWORD PTR _obj$[ebp], eax

; 450  : 	if(obj != NULL)

	cmp	DWORD PTR _obj$[ebp], 0
	je	SHORT $LN3@ViewBSPObj

; 451  : 	{
; 452  : 		UIrend3d->StartDraw();

	mov	ecx, DWORD PTR ?UIrend3d@@3PAVRender3D@@A ; UIrend3d
	mov	edx, DWORD PTR [ecx]
	mov	ecx, DWORD PTR ?UIrend3d@@3PAVRender3D@@A ; UIrend3d
	mov	eax, DWORD PTR [edx+12]
	call	eax

; 453  : 		((DrawableBSP*)obj->object)->Draw(UIrend3d);

	mov	ecx, DWORD PTR ?UIrend3d@@3PAVRender3D@@A ; UIrend3d
	push	ecx
	mov	edx, DWORD PTR _obj$[ebp]
	mov	eax, DWORD PTR [edx+12]
	mov	ecx, DWORD PTR _obj$[ebp]
	mov	edx, DWORD PTR [eax]
	mov	ecx, DWORD PTR [ecx+12]
	mov	eax, DWORD PTR [edx+16]
	call	eax

; 454  : 		UIrend3d->EndDraw();

	mov	ecx, DWORD PTR ?UIrend3d@@3PAVRender3D@@A ; UIrend3d
	mov	edx, DWORD PTR [ecx]
	mov	ecx, DWORD PTR ?UIrend3d@@3PAVRender3D@@A ; UIrend3d
	mov	eax, DWORD PTR [edx+20]
	call	eax
$LN3@ViewBSPObj:

; 455  : 	}
; 456  : }

	mov	esp, ebp
	pop	ebp
	ret	0
?ViewBSPObjectCB@@YAXJFPAVC_Base@@@Z ENDP		; ViewBSPObjectCB
_TEXT	ENDS
; Function compile flags: /Odtp
; File c:\users\zhitao li\documents\visual studio 2012\projects\freefalcon\ui\src\general\viewer.cpp
_TEXT	SEGMENT
tv89 = -24						; size = 4
$T1 = -20						; size = 4
tv82 = -16						; size = 4
$T2 = -12						; size = 4
$T3 = -8						; size = 4
$T4 = -4						; size = 4
?CleanupObjectViewer@@YAXXZ PROC			; CleanupObjectViewer

; 427  : {

	push	ebp
	mov	ebp, esp
	sub	esp, 24					; 00000018H

; 428  : 	if(UIrend3d)

	cmp	DWORD PTR ?UIrend3d@@3PAVRender3D@@A, 0	; UIrend3d
	je	SHORT $LN2@CleanupObj

; 429  : 	{
; 430  : 		UnloadObject(); // just in case :)

	call	?UnloadObject@@YAXXZ			; UnloadObject

; 431  : 		UIrend3d->Cleanup();

	mov	eax, DWORD PTR ?UIrend3d@@3PAVRender3D@@A ; UIrend3d
	mov	edx, DWORD PTR [eax]
	mov	ecx, DWORD PTR ?UIrend3d@@3PAVRender3D@@A ; UIrend3d
	mov	eax, DWORD PTR [edx+8]
	call	eax

; 432  : 		delete UIrend3d;

	mov	ecx, DWORD PTR ?UIrend3d@@3PAVRender3D@@A ; UIrend3d
	mov	DWORD PTR $T2[ebp], ecx
	mov	edx, DWORD PTR $T2[ebp]
	mov	DWORD PTR $T4[ebp], edx
	cmp	DWORD PTR $T4[ebp], 0
	je	SHORT $LN5@CleanupObj
	push	1
	mov	eax, DWORD PTR $T4[ebp]
	mov	edx, DWORD PTR [eax]
	mov	ecx, DWORD PTR $T4[ebp]
	mov	eax, DWORD PTR [edx]
	call	eax
	mov	DWORD PTR tv82[ebp], eax
	jmp	SHORT $LN6@CleanupObj
$LN5@CleanupObj:
	mov	DWORD PTR tv82[ebp], 0
$LN6@CleanupObj:

; 433  : 		UIrend3d=NULL;

	mov	DWORD PTR ?UIrend3d@@3PAVRender3D@@A, 0	; UIrend3d
$LN2@CleanupObj:

; 434  : 	}
; 435  : 	if(gBSPList != NULL)

	cmp	DWORD PTR ?gBSPList@@3PAVC_BSPList@@A, 0 ; gBSPList
	je	SHORT $LN3@CleanupObj

; 436  : 	{
; 437  : 		gBSPList->RemoveAll();

	mov	ecx, DWORD PTR ?gBSPList@@3PAVC_BSPList@@A ; gBSPList
	call	?RemoveAll@C_BSPList@@QAEXXZ		; C_BSPList::RemoveAll

; 438  : 		delete gBSPList;

	mov	ecx, DWORD PTR ?gBSPList@@3PAVC_BSPList@@A ; gBSPList
	mov	DWORD PTR $T1[ebp], ecx
	mov	edx, DWORD PTR $T1[ebp]
	mov	DWORD PTR $T3[ebp], edx
	cmp	DWORD PTR $T3[ebp], 0
	je	SHORT $LN7@CleanupObj
	push	1
	mov	ecx, DWORD PTR $T3[ebp]
	call	??_GC_BSPList@@QAEPAXI@Z
	mov	DWORD PTR tv89[ebp], eax
	jmp	SHORT $LN8@CleanupObj
$LN7@CleanupObj:
	mov	DWORD PTR tv89[ebp], 0
$LN8@CleanupObj:

; 439  : 		gBSPList=NULL;

	mov	DWORD PTR ?gBSPList@@3PAVC_BSPList@@A, 0 ; gBSPList
$LN3@CleanupObj:

; 440  : 	}
; 441  : }

	mov	esp, ebp
	pop	ebp
	ret	0
?CleanupObjectViewer@@YAXXZ ENDP			; CleanupObjectViewer
_TEXT	ENDS
; Function compile flags: /Odtp
; File c:\users\zhitao li\documents\visual studio 2012\projects\freefalcon\ui\src\general\viewer.cpp
_TEXT	SEGMENT
?UnloadObject@@YAXXZ PROC				; UnloadObject

; 418  : {

	push	ebp
	mov	ebp, esp

; 419  : 	if(currentObj != -1)

	cmp	DWORD PTR _currentObj, -1
	je	SHORT $LN2@UnloadObje

; 420  : 	{
; 421  : 		DrawableBSP::Unlock(currentObj);

	mov	eax, DWORD PTR _currentObj
	push	eax
	call	?Unlock@DrawableBSP@@SAXH@Z		; DrawableBSP::Unlock
	add	esp, 4

; 422  : 		currentObj=-1;

	mov	DWORD PTR _currentObj, -1
$LN2@UnloadObje:

; 423  : 	}
; 424  : }

	pop	ebp
	ret	0
?UnloadObject@@YAXXZ ENDP				; UnloadObject
_TEXT	ENDS
; Function compile flags: /Odtp
; File c:\users\zhitao li\documents\visual studio 2012\projects\freefalcon\ui\src\general\viewer.cpp
_TEXT	SEGMENT
_objID$ = 8						; size = 4
?LoadObject@@YAXJ@Z PROC				; LoadObject

; 403  : {

	push	ebp
	mov	ebp, esp

; 404  : 	if(UIrend3d)

	cmp	DWORD PTR ?UIrend3d@@3PAVRender3D@@A, 0	; UIrend3d
	je	SHORT $LN4@LoadObject

; 405  : 	{
; 406  : 		if(currentObj == objID)

	mov	eax, DWORD PTR _currentObj
	cmp	eax, DWORD PTR _objID$[ebp]
	jne	SHORT $LN2@LoadObject

; 407  : 			return;

	jmp	SHORT $LN4@LoadObject
$LN2@LoadObject:

; 408  : 
; 409  : 		if(currentObj != -1)

	cmp	DWORD PTR _currentObj, -1
	je	SHORT $LN1@LoadObject

; 410  : 			DrawableBSP::Unlock(currentObj);

	mov	ecx, DWORD PTR _currentObj
	push	ecx
	call	?Unlock@DrawableBSP@@SAXH@Z		; DrawableBSP::Unlock
	add	esp, 4
$LN1@LoadObject:

; 411  : 
; 412  : 		DrawableBSP::LockAndLoad(objID);

	mov	edx, DWORD PTR _objID$[ebp]
	push	edx
	call	?LockAndLoad@DrawableBSP@@SAXH@Z	; DrawableBSP::LockAndLoad
	add	esp, 4

; 413  : 		currentObj=objID;

	mov	eax, DWORD PTR _objID$[ebp]
	mov	DWORD PTR _currentObj, eax
$LN4@LoadObject:

; 414  : 	}
; 415  : }

	pop	ebp
	ret	0
?LoadObject@@YAXJ@Z ENDP				; LoadObject
_TEXT	ENDS
; Function compile flags: /Odtp
; File c:\users\zhitao li\documents\visual studio 2012\projects\freefalcon\ui\src\general\viewer.cpp
_TEXT	SEGMENT
$T2 = -52						; size = 4
_l$ = -48						; size = 4
_t$ = -44						; size = 4
_r$ = -40						; size = 4
_b$ = -36						; size = 4
$T3 = -32						; size = 4
tv146 = -28						; size = 4
$T4 = -24						; size = 4
tv73 = -20						; size = 4
$T5 = -16						; size = 4
__$EHRec$ = -12						; size = 12
_win$ = 8						; size = 4
_client$ = 12						; size = 4
?InitObjectViewer@@YAXPAVC_Window@@J@Z PROC		; InitObjectViewer

; 374  : {

	push	ebp
	mov	ebp, esp
	push	-1
	push	__ehhandler$?InitObjectViewer@@YAXPAVC_Window@@J@Z
	mov	eax, DWORD PTR fs:0
	push	eax
	sub	esp, 40					; 00000028H
	push	esi
	push	edi
	mov	eax, DWORD PTR ___security_cookie
	xor	eax, ebp
	push	eax
	lea	eax, DWORD PTR __$EHRec$[ebp]
	mov	DWORD PTR fs:0, eax

; 375  : 	float l,t,r,b;
; 376  : 
; 377  : 	TheTimeManager.SetTime( ( unsigned long )( 12 * 60 * 60 * 1000 ) );

	push	43200000				; 02932e00H
	mov	ecx, OFFSET ?TheTimeManager@@3VTimeManager@@A ; TheTimeManager
	call	?SetTime@TimeManager@@QAEXK@Z		; TimeManager::SetTime

; 378  : 
; 379  : 	viewRot = IMatrix;

	mov	ecx, 9
	mov	esi, OFFSET ?IMatrix@@3UTrotation@@B	; IMatrix
	mov	edi, OFFSET _viewRot
	rep movsd

; 380  : 	viewPos.x =0.0f;

	movss	xmm0, DWORD PTR __real@00000000
	movss	DWORD PTR _viewPos, xmm0

; 381  : 	viewPos.y =0.0f;

	movss	xmm0, DWORD PTR __real@00000000
	movss	DWORD PTR _viewPos+4, xmm0

; 382  : 	viewPos.z =0.0f;

	movss	xmm0, DWORD PTR __real@00000000
	movss	DWORD PTR _viewPos+8, xmm0

; 383  : 
; 384  : 	UIrend3d=new Render3D;

	push	263080					; 000403a8H
	call	??2@YAPAXI@Z				; operator new
	add	esp, 4
	mov	DWORD PTR $T5[ebp], eax
	mov	DWORD PTR __$EHRec$[ebp+8], 0
	cmp	DWORD PTR $T5[ebp], 0
	je	SHORT $LN5@InitObject
	mov	ecx, DWORD PTR $T5[ebp]
	call	??0Render3D@@QAE@XZ			; Render3D::Render3D
	mov	DWORD PTR tv73[ebp], eax
	jmp	SHORT $LN6@InitObject
$LN5@InitObject:
	mov	DWORD PTR tv73[ebp], 0
$LN6@InitObject:
	mov	eax, DWORD PTR tv73[ebp]
	mov	DWORD PTR $T3[ebp], eax
	mov	DWORD PTR __$EHRec$[ebp+8], -1
	mov	ecx, DWORD PTR $T3[ebp]
	mov	DWORD PTR ?UIrend3d@@3PAVRender3D@@A, ecx ; UIrend3d

; 385  : 	UIrend3d->Setup(gMainHandler->GetFront());

	mov	ecx, DWORD PTR ?gMainHandler@@3PAVC_Handler@@A ; gMainHandler
	call	?GetFront@C_Handler@@QAEPAVImageBuffer@@XZ ; C_Handler::GetFront
	push	eax
	mov	edx, DWORD PTR ?UIrend3d@@3PAVRender3D@@A ; UIrend3d
	mov	eax, DWORD PTR [edx]
	mov	ecx, DWORD PTR ?UIrend3d@@3PAVRender3D@@A ; UIrend3d
	mov	edx, DWORD PTR [eax+132]
	call	edx

; 386  : 	UIrend3d->SetFOV( 30.0f * PI/180.f );

	push	ecx
	movss	xmm0, DWORD PTR __real@3e4ccccd
	movss	DWORD PTR [esp], xmm0
	push	ecx
	movss	xmm0, DWORD PTR __real@3f060a92
	movss	DWORD PTR [esp], xmm0
	mov	ecx, DWORD PTR ?UIrend3d@@3PAVRender3D@@A ; UIrend3d
	call	?SetFOV@Render3D@@QAEXMM@Z		; Render3D::SetFOV

; 387  : 
; 388  : 	CalculateViewport(win,client,&l,&t,&r,&b);

	lea	eax, DWORD PTR _b$[ebp]
	push	eax
	lea	ecx, DWORD PTR _r$[ebp]
	push	ecx
	lea	edx, DWORD PTR _t$[ebp]
	push	edx
	lea	eax, DWORD PTR _l$[ebp]
	push	eax
	mov	ecx, DWORD PTR _client$[ebp]
	push	ecx
	mov	edx, DWORD PTR _win$[ebp]
	push	edx
	call	?CalculateViewport@@YAXPAVC_Window@@JPAM111@Z ; CalculateViewport

; 389  : 
; 390  : 	UIrend3d->SetViewport( l, t, r, b);

	add	esp, 20					; 00000014H
	movss	xmm0, DWORD PTR _b$[ebp]
	movss	DWORD PTR [esp], xmm0
	push	ecx
	movss	xmm0, DWORD PTR _r$[ebp]
	movss	DWORD PTR [esp], xmm0
	push	ecx
	movss	xmm0, DWORD PTR _t$[ebp]
	movss	DWORD PTR [esp], xmm0
	push	ecx
	movss	xmm0, DWORD PTR _l$[ebp]
	movss	DWORD PTR [esp], xmm0
	mov	eax, DWORD PTR ?UIrend3d@@3PAVRender3D@@A ; UIrend3d
	mov	edx, DWORD PTR [eax]
	mov	ecx, DWORD PTR ?UIrend3d@@3PAVRender3D@@A ; UIrend3d
	mov	eax, DWORD PTR [edx+112]
	call	eax

; 391  : 	UIrend3d->SetCamera( &viewPos, &viewRot );

	push	OFFSET _viewRot
	push	OFFSET _viewPos
	mov	ecx, DWORD PTR ?UIrend3d@@3PAVRender3D@@A ; UIrend3d
	call	?SetCamera@Render3D@@QAEXPBUTpoint@@PBUTrotation@@@Z ; Render3D::SetCamera

; 392  : 
; 393  : 	if(gBSPList == NULL)

	cmp	DWORD PTR ?gBSPList@@3PAVC_BSPList@@A, 0 ; gBSPList
	jne	SHORT $LN2@InitObject

; 394  : 	{
; 395  : 		gBSPList=new C_BSPList;

	push	4104					; 00001008H
	call	??2@YAPAXI@Z				; operator new
	add	esp, 4
	mov	DWORD PTR $T4[ebp], eax
	mov	DWORD PTR __$EHRec$[ebp+8], 1
	cmp	DWORD PTR $T4[ebp], 0
	je	SHORT $LN7@InitObject
	mov	ecx, DWORD PTR $T4[ebp]
	call	??0C_BSPList@@QAE@XZ			; C_BSPList::C_BSPList
	mov	DWORD PTR tv146[ebp], eax
	jmp	SHORT $LN8@InitObject
$LN7@InitObject:
	mov	DWORD PTR tv146[ebp], 0
$LN8@InitObject:
	mov	ecx, DWORD PTR tv146[ebp]
	mov	DWORD PTR $T2[ebp], ecx
	mov	DWORD PTR __$EHRec$[ebp+8], -1
	mov	edx, DWORD PTR $T2[ebp]
	mov	DWORD PTR ?gBSPList@@3PAVC_BSPList@@A, edx ; gBSPList

; 396  : 		gBSPList->Setup();

	mov	ecx, DWORD PTR ?gBSPList@@3PAVC_BSPList@@A ; gBSPList
	call	?Setup@C_BSPList@@QAEXXZ		; C_BSPList::Setup

; 397  : 	}
; 398  : 	else

	jmp	SHORT $LN1@InitObject
$LN2@InitObject:

; 399  : 		gBSPList->RemoveAll();

	mov	ecx, DWORD PTR ?gBSPList@@3PAVC_BSPList@@A ; gBSPList
	call	?RemoveAll@C_BSPList@@QAEXXZ		; C_BSPList::RemoveAll
$LN1@InitObject:

; 400  : }

	mov	ecx, DWORD PTR __$EHRec$[ebp]
	mov	DWORD PTR fs:0, ecx
	pop	ecx
	pop	edi
	pop	esi
	mov	esp, ebp
	pop	ebp
	ret	0
_TEXT	ENDS
text$x	SEGMENT
__unwindfunclet$?InitObjectViewer@@YAXPAVC_Window@@J@Z$0:
	mov	eax, DWORD PTR $T5[ebp]
	push	eax
	call	??3@YAXPAX@Z				; operator delete
	pop	ecx
	ret	0
__unwindfunclet$?InitObjectViewer@@YAXPAVC_Window@@J@Z$1:
	mov	eax, DWORD PTR $T4[ebp]
	push	eax
	call	??3@YAXPAX@Z				; operator delete
	pop	ecx
	ret	0
__ehhandler$?InitObjectViewer@@YAXPAVC_Window@@J@Z:
	mov	edx, DWORD PTR [esp+8]
	lea	eax, DWORD PTR [edx+12]
	mov	ecx, DWORD PTR [edx-52]
	xor	ecx, eax
	call	@__security_check_cookie@4
	mov	eax, OFFSET __ehfuncinfo$?InitObjectViewer@@YAXPAVC_Window@@J@Z
	jmp	___CxxFrameHandler3
text$x	ENDS
?InitObjectViewer@@YAXPAVC_Window@@J@Z ENDP		; InitObjectViewer
; Function compile flags: /Odtp
; File c:\users\zhitao li\documents\visual studio 2012\projects\freefalcon\ui\src\general\viewer.cpp
_TEXT	SEGMENT
___formal$ = 8						; size = 4
___formal$ = 12						; size = 2
_control$ = 16						; size = 4
?MoveViewTimerCB@@YAXJFPAVC_Base@@@Z PROC		; MoveViewTimerCB

; 352  : {

	push	ebp
	mov	ebp, esp

; 353  : 	if(gUIViewer == NULL)

	cmp	DWORD PTR ?gUIViewer@@3PAVC_3dViewer@@A, 0 ; gUIViewer
	jne	SHORT $LN5@MoveViewTi

; 354  : 		return;

	jmp	$LN6@MoveViewTi
$LN5@MoveViewTi:

; 355  : 
; 356  : 	if(control->GetUserNumber(_UI95_TIMER_COUNTER_) < 1)

	push	5
	mov	ecx, DWORD PTR _control$[ebp]
	call	?GetUserNumber@C_Base@@QAEJJ@Z		; C_Base::GetUserNumber
	cmp	eax, 1
	jge	$LN4@MoveViewTi

; 357  : 	{
; 358  : 		if(Recon.Direction == 0)// && TheLoader.LoaderQueueEmpty())

	movss	xmm0, DWORD PTR ?Recon@@3UOBJECTINFO@@A+12
	ucomiss	xmm0, DWORD PTR __real@00000000
	lahf
	test	ah, 68					; 00000044H
	jp	SHORT $LN3@MoveViewTi

; 359  : 			return;

	jmp	$LN6@MoveViewTi
$LN3@MoveViewTi:

; 360  : 
; 361  : 		Recon.Heading += Recon.Direction;

	movss	xmm0, DWORD PTR ?Recon@@3UOBJECTINFO@@A
	addss	xmm0, DWORD PTR ?Recon@@3UOBJECTINFO@@A+12
	movss	DWORD PTR ?Recon@@3UOBJECTINFO@@A, xmm0

; 362  : 		if(Recon.Heading >= 360.0f)

	movss	xmm0, DWORD PTR ?Recon@@3UOBJECTINFO@@A
	comiss	xmm0, DWORD PTR __real@43b40000
	jb	SHORT $LN2@MoveViewTi

; 363  : 			Recon.Heading-=360.0f;

	movss	xmm0, DWORD PTR ?Recon@@3UOBJECTINFO@@A
	subss	xmm0, DWORD PTR __real@43b40000
	movss	DWORD PTR ?Recon@@3UOBJECTINFO@@A, xmm0
$LN2@MoveViewTi:

; 364  : 		if(Recon.Heading < 0)

	movss	xmm0, DWORD PTR __real@00000000
	comiss	xmm0, DWORD PTR ?Recon@@3UOBJECTINFO@@A
	jbe	SHORT $LN1@MoveViewTi

; 365  : 			Recon.Heading+=360.0f;

	movss	xmm0, DWORD PTR ?Recon@@3UOBJECTINFO@@A
	addss	xmm0, DWORD PTR __real@43b40000
	movss	DWORD PTR ?Recon@@3UOBJECTINFO@@A, xmm0
$LN1@MoveViewTi:

; 366  : 
; 367  : 		PositionCamera(&Recon,control->Parent_,0);

	push	0
	mov	eax, DWORD PTR _control$[ebp]
	mov	ecx, DWORD PTR [eax+48]
	push	ecx
	push	OFFSET ?Recon@@3UOBJECTINFO@@A		; Recon
	call	?PositionCamera@@YAXPAUOBJECTINFO@@PAVC_Window@@J@Z ; PositionCamera
	add	esp, 12					; 0000000cH

; 368  : 		control->SetUserNumber(_UI95_TIMER_COUNTER_,control->GetUserNumber(_UI95_TIMER_DELAY_));

	push	4
	mov	ecx, DWORD PTR _control$[ebp]
	call	?GetUserNumber@C_Base@@QAEJJ@Z		; C_Base::GetUserNumber
	push	eax
	push	5
	mov	ecx, DWORD PTR _control$[ebp]
	call	?SetUserNumber@C_Base@@QAEXJJ@Z		; C_Base::SetUserNumber
$LN4@MoveViewTi:

; 369  : 	}
; 370  : 	control->SetUserNumber(_UI95_TIMER_COUNTER_,control->GetUserNumber(_UI95_TIMER_COUNTER_)-1);

	push	5
	mov	ecx, DWORD PTR _control$[ebp]
	call	?GetUserNumber@C_Base@@QAEJJ@Z		; C_Base::GetUserNumber
	sub	eax, 1
	push	eax
	push	5
	mov	ecx, DWORD PTR _control$[ebp]
	call	?SetUserNumber@C_Base@@QAEXJJ@Z		; C_Base::SetUserNumber
$LN6@MoveViewTi:

; 371  : }

	pop	ebp
	ret	0
?MoveViewTimerCB@@YAXJFPAVC_Base@@@Z ENDP		; MoveViewTimerCB
_TEXT	ENDS
; Function compile flags: /Odtp
; File c:\users\zhitao li\documents\visual studio 2012\projects\freefalcon\ui\src\general\viewer.cpp
_TEXT	SEGMENT
___formal$ = 8						; size = 4
___formal$ = 12						; size = 2
___formal$ = 16						; size = 4
?DisplayView@@YAXJFPAVC_Base@@@Z PROC			; DisplayView

; 346  : {

	push	ebp
	mov	ebp, esp

; 347  : 	if(gUIViewer)

	cmp	DWORD PTR ?gUIViewer@@3PAVC_3dViewer@@A, 0 ; gUIViewer
	je	SHORT $LN2@DisplayVie

; 348  : 		gUIViewer->ViewGreyOTW();

	mov	ecx, DWORD PTR ?gUIViewer@@3PAVC_3dViewer@@A ; gUIViewer
	call	?ViewGreyOTW@C_3dViewer@@QAEHXZ		; C_3dViewer::ViewGreyOTW
$LN2@DisplayVie:

; 349  : }

	pop	ebp
	ret	0
?DisplayView@@YAXJFPAVC_Base@@@Z ENDP			; DisplayView
_TEXT	ENDS
; Function compile flags: /Odtp
; File c:\users\zhitao li\documents\visual studio 2012\projects\freefalcon\ui\src\general\viewer.cpp
_TEXT	SEGMENT
_recon_ent$ = -120					; size = 4
tv455 = -116						; size = 4
_z$ = -112						; size = 4
_x$ = -108						; size = 4
_y$ = -104						; size = 4
tv460 = -100						; size = 4
$T2 = -96						; size = 4
tv130 = -92						; size = 4
_win$ = -88						; size = 4
_item$ = -84						; size = 4
_classPtr$ = -80					; size = 4
_feat$ = -76						; size = 4
$T3 = -72						; size = 4
_drawptr$ = -68						; size = 4
_oc$ = -64						; size = 4
_fc$ = -60						; size = 4
_parent$ = -56						; size = 4
_fid$ = -52						; size = 4
_classID$ = -48						; size = 2
_root$ = -44						; size = 4
_f$ = -40						; size = 4
_txt$ = -36						; size = 4
_tree$ = -32						; size = 4
_objPos$ = -28						; size = 12
__$ArrayPad$ = -16					; size = 4
__$EHRec$ = -12						; size = 12
_objective$ = 8						; size = 4
?UI_Deaggregate@@YAHPAVObjectiveClass@@@Z PROC		; UI_Deaggregate

; 250  : {

	push	ebp
	mov	ebp, esp
	push	-1
	push	__ehhandler$?UI_Deaggregate@@YAHPAVObjectiveClass@@@Z
	mov	eax, DWORD PTR fs:0
	push	eax
	sub	esp, 108				; 0000006cH
	mov	eax, DWORD PTR ___security_cookie
	xor	eax, ebp
	mov	DWORD PTR __$ArrayPad$[ebp], eax
	push	eax
	lea	eax, DWORD PTR __$EHRec$[ebp]
	mov	DWORD PTR fs:0, eax

; 251  : 	int						f,fid;
; 252  : 	VehicleID				classID;
; 253  : 	Falcon4EntityClassType* classPtr;
; 254  : 	float					x,y,z;
; 255  : 	FeatureClassDataType*	fc;
; 256  : 	ObjClassDataType*		oc;
; 257  : 	BSPLIST					*drawptr;
; 258  : 	Tpoint					objPos;
; 259  : 	C_Window				*win;
; 260  : 	C_Text					*txt;
; 261  : 	C_TreeList				*tree;
; 262  : 	TREELIST				*item,*parent,*root;
; 263  : 	C_Entity				*recon_ent;
; 264  : 	C_Feature				*feat;
; 265  : 
; 266  : 	if(gUIViewer == NULL)

	cmp	DWORD PTR ?gUIViewer@@3PAVC_3dViewer@@A, 0 ; gUIViewer
	jne	SHORT $LN18@UI_Deaggre

; 267  : 		return(0);

	xor	eax, eax
	jmp	$LN19@UI_Deaggre
$LN18@UI_Deaggre:

; 268  : 
; 269  : 	CloseAllRenderers(RECON_WIN);

	push	18000					; 00004650H
	call	?CloseAllRenderers@@YAXJ@Z		; CloseAllRenderers
	add	esp, 4

; 270  : 	win=gMainHandler->FindWindow(RECON_WIN);

	push	18000					; 00004650H
	mov	ecx, DWORD PTR ?gMainHandler@@3PAVC_Handler@@A ; gMainHandler
	call	?FindWindowA@C_Handler@@QAEPAVC_Window@@J@Z ; C_Handler::FindWindowA
	mov	DWORD PTR _win$[ebp], eax

; 271  : 	if(win == NULL)

	cmp	DWORD PTR _win$[ebp], 0
	jne	SHORT $LN17@UI_Deaggre

; 272  : 		return(0);

	xor	eax, eax
	jmp	$LN19@UI_Deaggre
$LN17@UI_Deaggre:

; 273  : 
; 274  : 	tree=(C_TreeList*)win->FindControl(RECON_TREE);

	push	18346					; 000047aaH
	mov	ecx, DWORD PTR _win$[ebp]
	call	?FindControl@C_Window@@QAEPAVC_Base@@J@Z ; C_Window::FindControl
	mov	DWORD PTR _tree$[ebp], eax

; 275  : 	if(!tree)

	cmp	DWORD PTR _tree$[ebp], 0
	jne	SHORT $LN16@UI_Deaggre

; 276  : 		return(0);

	xor	eax, eax
	jmp	$LN19@UI_Deaggre
$LN16@UI_Deaggre:

; 277  : 
; 278  : 	root=tree->Find(objective->GetTeam());

	mov	eax, DWORD PTR _objective$[ebp]
	mov	edx, DWORD PTR [eax]
	mov	ecx, DWORD PTR _objective$[ebp]
	mov	eax, DWORD PTR [edx+116]
	call	eax
	movzx	ecx, al
	push	ecx
	mov	ecx, DWORD PTR _tree$[ebp]
	call	?Find@C_TreeList@@QAEPAVTREELIST@@J@Z	; C_TreeList::Find
	mov	DWORD PTR _root$[ebp], eax

; 279  : 	if(!root)

	cmp	DWORD PTR _root$[ebp], 0
	jne	$LN14@UI_Deaggre

; 280  : 	{
; 281  : 		txt=new C_Text;

	push	76					; 0000004cH
	call	??2@YAPAXI@Z				; operator new
	add	esp, 4
	mov	DWORD PTR $T3[ebp], eax
	mov	DWORD PTR __$EHRec$[ebp+8], 0
	cmp	DWORD PTR $T3[ebp], 0
	je	SHORT $LN21@UI_Deaggre
	mov	ecx, DWORD PTR $T3[ebp]
	call	??0C_Text@@QAE@XZ			; C_Text::C_Text
	mov	DWORD PTR tv130[ebp], eax
	jmp	SHORT $LN22@UI_Deaggre
$LN21@UI_Deaggre:
	mov	DWORD PTR tv130[ebp], 0
$LN22@UI_Deaggre:
	mov	edx, DWORD PTR tv130[ebp]
	mov	DWORD PTR $T2[ebp], edx
	mov	DWORD PTR __$EHRec$[ebp+8], -1
	mov	eax, DWORD PTR $T2[ebp]
	mov	DWORD PTR _txt$[ebp], eax

; 282  : 		txt->Setup(C_DONT_CARE,0);

	push	0
	push	-2					; fffffffeH
	mov	ecx, DWORD PTR _txt$[ebp]
	mov	edx, DWORD PTR [ecx]
	mov	ecx, DWORD PTR _txt$[ebp]
	mov	eax, DWORD PTR [edx+248]
	call	eax

; 283  : 		txt->SetFixedWidth(100);

	push	100					; 00000064H
	mov	ecx, DWORD PTR _txt$[ebp]
	call	?SetFixedWidth@C_Text@@QAEXJ@Z		; C_Text::SetFixedWidth

; 284  : 		txt->SetFont(tree->GetFont());

	mov	ecx, DWORD PTR _tree$[ebp]
	mov	edx, DWORD PTR [ecx]
	mov	ecx, DWORD PTR _tree$[ebp]
	mov	eax, DWORD PTR [edx+124]
	call	eax
	push	eax
	mov	ecx, DWORD PTR _txt$[ebp]
	mov	edx, DWORD PTR [ecx]
	mov	ecx, DWORD PTR _txt$[ebp]
	mov	eax, DWORD PTR [edx+68]
	call	eax

; 285  : 		txt->SetText(TeamInfo[objective->GetTeam()]->GetName());

	mov	ecx, DWORD PTR _objective$[ebp]
	mov	edx, DWORD PTR [ecx]
	mov	ecx, DWORD PTR _objective$[ebp]
	mov	eax, DWORD PTR [edx+116]
	call	eax
	movzx	ecx, al
	mov	ecx, DWORD PTR ?TeamInfo@@3PAPAVTeamClass@@A[ecx*4]
	call	?GetName@TeamClass@@QAEPADXZ		; TeamClass::GetName
	push	eax
	mov	edx, DWORD PTR _txt$[ebp]
	mov	eax, DWORD PTR [edx]
	mov	ecx, DWORD PTR _txt$[ebp]
	mov	edx, DWORD PTR [eax+256]
	call	edx

; 286  : 		txt->SetFGColor(0xc0c0c0);

	push	12632256				; 00c0c0c0H
	mov	ecx, DWORD PTR _txt$[ebp]
	call	?SetFGColor@C_Text@@QAEXK@Z		; C_Text::SetFGColor

; 287  : 
; 288  : 		root=tree->CreateItem(objective->GetTeam(),C_TYPE_ROOT,txt);

	mov	eax, DWORD PTR _txt$[ebp]
	push	eax
	push	47					; 0000002fH
	mov	ecx, DWORD PTR _objective$[ebp]
	mov	edx, DWORD PTR [ecx]
	mov	ecx, DWORD PTR _objective$[ebp]
	mov	eax, DWORD PTR [edx+116]
	call	eax
	movzx	ecx, al
	push	ecx
	mov	ecx, DWORD PTR _tree$[ebp]
	call	?CreateItem@C_TreeList@@QAEPAVTREELIST@@JJPAVC_Base@@@Z ; C_TreeList::CreateItem
	mov	DWORD PTR _root$[ebp], eax

; 289  : 		if(root)

	cmp	DWORD PTR _root$[ebp], 0
	je	SHORT $LN14@UI_Deaggre

; 290  : 			tree->AddItem(tree->GetRoot(),root);

	mov	edx, DWORD PTR _root$[ebp]
	push	edx
	mov	ecx, DWORD PTR _tree$[ebp]
	call	?GetRoot@C_TreeList@@QAEPAVTREELIST@@XZ	; C_TreeList::GetRoot
	push	eax
	mov	ecx, DWORD PTR _tree$[ebp]
	call	?AddItem@C_TreeList@@QAEHPAVTREELIST@@0@Z ; C_TreeList::AddItem
$LN14@UI_Deaggre:

; 291  : 
; 292  : 	}
; 293  : 	if(!root)

	cmp	DWORD PTR _root$[ebp], 0
	jne	SHORT $LN13@UI_Deaggre

; 294  : 		return(0);

	xor	eax, eax
	jmp	$LN19@UI_Deaggre
$LN13@UI_Deaggre:

; 295  : 
; 296  : 	recon_ent=BuildObjective(objective);

	mov	eax, DWORD PTR _objective$[ebp]
	push	eax
	call	?BuildObjective@@YAPAVC_Entity@@PAVObjectiveClass@@@Z ; BuildObjective
	add	esp, 4
	mov	DWORD PTR _recon_ent$[ebp], eax

; 297  : 
; 298  : 	parent=tree->CreateItem(objective->GetCampID(),C_TYPE_MENU,recon_ent);

	mov	ecx, DWORD PTR _recon_ent$[ebp]
	push	ecx
	push	49					; 00000031H
	mov	edx, DWORD PTR _objective$[ebp]
	mov	eax, DWORD PTR [edx]
	mov	ecx, DWORD PTR _objective$[ebp]
	mov	edx, DWORD PTR [eax+112]
	call	edx
	cwde
	push	eax
	mov	ecx, DWORD PTR _tree$[ebp]
	call	?CreateItem@C_TreeList@@QAEPAVTREELIST@@JJPAVC_Base@@@Z ; C_TreeList::CreateItem
	mov	DWORD PTR _parent$[ebp], eax

; 299  : 	if(parent)

	cmp	DWORD PTR _parent$[ebp], 0
	je	SHORT $LN12@UI_Deaggre

; 300  : 		tree->AddChildItem(root,parent);

	mov	ecx, DWORD PTR _parent$[ebp]
	push	ecx
	mov	edx, DWORD PTR _root$[ebp]
	push	edx
	mov	ecx, DWORD PTR _tree$[ebp]
	call	?AddChildItem@C_TreeList@@QAEHPAVTREELIST@@0@Z ; C_TreeList::AddChildItem
$LN12@UI_Deaggre:

; 301  : 
; 302  : 	// Set up the init data structure.
; 303  : 	oc = objective->GetObjectiveClassData();

	mov	ecx, DWORD PTR _objective$[ebp]
	call	?GetObjectiveClassData@ObjectiveClass@@QAEPAUObjClassDataType@@XZ ; ObjectiveClass::GetObjectiveClassData
	mov	DWORD PTR _oc$[ebp], eax

; 304  : 	fid = oc->FirstFeature;

	mov	eax, DWORD PTR _oc$[ebp]
	movsx	ecx, WORD PTR [eax+52]
	mov	DWORD PTR _fid$[ebp], ecx

; 305  : 	for (f=0; f<oc->Features; f++,fid++)

	mov	DWORD PTR _f$[ebp], 0
	jmp	SHORT $LN11@UI_Deaggre
$LN10@UI_Deaggre:
	mov	edx, DWORD PTR _f$[ebp]
	add	edx, 1
	mov	DWORD PTR _f$[ebp], edx
	mov	eax, DWORD PTR _fid$[ebp]
	add	eax, 1
	mov	DWORD PTR _fid$[ebp], eax
$LN11@UI_Deaggre:
	mov	ecx, DWORD PTR _oc$[ebp]
	movzx	edx, BYTE PTR [ecx+50]
	cmp	DWORD PTR _f$[ebp], edx
	jge	$LN9@UI_Deaggre

; 306  : 	{
; 307  : 		classID = static_cast<short>(objective->GetFeatureID(f));

	mov	eax, DWORD PTR _f$[ebp]
	push	eax
	mov	ecx, DWORD PTR _objective$[ebp]
	call	?GetFeatureID@ObjectiveClass@@QAEHH@Z	; ObjectiveClass::GetFeatureID
	mov	WORD PTR _classID$[ebp], ax

; 308  : 		if (classID)

	movsx	ecx, WORD PTR _classID$[ebp]
	test	ecx, ecx
	je	$LN2@UI_Deaggre

; 309  : 		{
; 310  : 			fc = GetFeatureClassData (classID);

	movsx	edx, WORD PTR _classID$[ebp]
	push	edx
	call	?GetFeatureClassData@@YAPAUFeatureClassDataType@@H@Z ; GetFeatureClassData
	add	esp, 4
	mov	DWORD PTR _fc$[ebp], eax

; 311  : 			if (!fc || fc->Flags & FEAT_VIRTUAL)

	cmp	DWORD PTR _fc$[ebp], 0
	je	SHORT $LN6@UI_Deaggre
	mov	eax, DWORD PTR _fc$[ebp]
	movzx	ecx, WORD PTR [eax+6]
	and	ecx, 2
	je	SHORT $LN7@UI_Deaggre
$LN6@UI_Deaggre:

; 312  : 				continue;

	jmp	SHORT $LN10@UI_Deaggre
$LN7@UI_Deaggre:

; 313  : 			objective->GetFeatureOffset(f, &y, &x, &z);

	lea	edx, DWORD PTR _z$[ebp]
	push	edx
	lea	eax, DWORD PTR _x$[ebp]
	push	eax
	lea	ecx, DWORD PTR _y$[ebp]
	push	ecx
	mov	edx, DWORD PTR _f$[ebp]
	push	edx
	mov	ecx, DWORD PTR _objective$[ebp]
	call	?GetFeatureOffset@ObjectiveClass@@QAEHHPAM00@Z ; ObjectiveClass::GetFeatureOffset

; 314  : 			objPos.x=x+objective->XPos();

	mov	ecx, DWORD PTR _objective$[ebp]
	call	?XPos@VuEntity@@QBEMXZ			; VuEntity::XPos
	fstp	DWORD PTR tv455[ebp]
	movss	xmm0, DWORD PTR tv455[ebp]
	addss	xmm0, DWORD PTR _x$[ebp]
	movss	DWORD PTR _objPos$[ebp], xmm0

; 315  : 			objPos.y=y+objective->YPos();

	mov	ecx, DWORD PTR _objective$[ebp]
	call	?YPos@VuEntity@@QBEMXZ			; VuEntity::YPos
	fstp	DWORD PTR tv460[ebp]
	movss	xmm0, DWORD PTR tv460[ebp]
	addss	xmm0, DWORD PTR _y$[ebp]
	movss	DWORD PTR _objPos$[ebp+4], xmm0

; 316  : 			objPos.z=z;

	movss	xmm0, DWORD PTR _z$[ebp]
	movss	DWORD PTR _objPos$[ebp+8], xmm0

; 317  : 			classPtr = &Falcon4ClassTable[fc->Index];

	mov	eax, DWORD PTR _fc$[ebp]
	movsx	ecx, WORD PTR [eax]
	imul	ecx, 81					; 00000051H
	add	ecx, DWORD PTR ?Falcon4ClassTable@@3PAUFalcon4EntityClassType@@A ; Falcon4ClassTable
	mov	DWORD PTR _classPtr$[ebp], ecx

; 318  : 			if(classPtr != NULL)

	je	$LN2@UI_Deaggre

; 319  : 			{
; 320  : 				drawptr=LoadFeature(objective->GetCampID() << 16 | f,classPtr->visType[objective->GetFeatureStatus(f)],&objPos,(float)FeatureEntryDataTable[fid].Facing);

	mov	edx, DWORD PTR _fid$[ebp]
	shl	edx, 5
	mov	eax, DWORD PTR ?FeatureEntryDataTable@@3PAUFeatureEntry@@A ; FeatureEntryDataTable
	movsx	ecx, WORD PTR [eax+edx+28]
	cvtsi2ss xmm0, ecx
	push	ecx
	movss	DWORD PTR [esp], xmm0
	lea	edx, DWORD PTR _objPos$[ebp]
	push	edx
	mov	eax, DWORD PTR _f$[ebp]
	push	eax
	mov	ecx, DWORD PTR _objective$[ebp]
	call	?GetFeatureStatus@ObjectiveClass@@QAEHH@Z ; ObjectiveClass::GetFeatureStatus
	mov	ecx, DWORD PTR _classPtr$[ebp]
	movsx	edx, WORD PTR [ecx+eax*2+60]
	push	edx
	mov	eax, DWORD PTR _objective$[ebp]
	mov	edx, DWORD PTR [eax]
	mov	ecx, DWORD PTR _objective$[ebp]
	mov	eax, DWORD PTR [edx+112]
	call	eax
	movsx	ecx, ax
	shl	ecx, 16					; 00000010H
	or	ecx, DWORD PTR _f$[ebp]
	push	ecx
	call	?LoadFeature@@YAPAUUI_BSPList@@JHPAUTpoint@@M@Z ; LoadFeature
	add	esp, 16					; 00000010H
	mov	DWORD PTR _drawptr$[ebp], eax

; 321  : 				if(drawptr != NULL)

	cmp	DWORD PTR _drawptr$[ebp], 0
	je	SHORT $LN2@UI_Deaggre

; 322  : 				{
; 323  : //					if(objective->GetFeatureValue(f))
; 324  : //					{
; 325  : 						((DrawableObject*)drawptr)->GetPosition(&objPos);

	lea	edx, DWORD PTR _objPos$[ebp]
	push	edx
	mov	ecx, DWORD PTR _drawptr$[ebp]
	call	?GetPosition@DrawableObject@@QAEXPAUTpoint@@@Z ; DrawableObject::GetPosition

; 326  : 
; 327  : 						feat=BuildFeature(objective,f,&objPos);

	lea	eax, DWORD PTR _objPos$[ebp]
	push	eax
	mov	ecx, DWORD PTR _f$[ebp]
	push	ecx
	mov	edx, DWORD PTR _objective$[ebp]
	push	edx
	call	?BuildFeature@@YAPAVC_Feature@@PAVObjectiveClass@@JPAUTpoint@@@Z ; BuildFeature
	add	esp, 12					; 0000000cH
	mov	DWORD PTR _feat$[ebp], eax

; 328  : 						if(feat)

	cmp	DWORD PTR _feat$[ebp], 0
	je	SHORT $LN2@UI_Deaggre

; 329  : 						{
; 330  : 							item=tree->CreateItem(objective->GetCampID() << 16 | f,C_TYPE_ITEM,feat);

	mov	eax, DWORD PTR _feat$[ebp]
	push	eax
	push	50					; 00000032H
	mov	ecx, DWORD PTR _objective$[ebp]
	mov	edx, DWORD PTR [ecx]
	mov	ecx, DWORD PTR _objective$[ebp]
	mov	eax, DWORD PTR [edx+112]
	call	eax
	movsx	ecx, ax
	shl	ecx, 16					; 00000010H
	or	ecx, DWORD PTR _f$[ebp]
	push	ecx
	mov	ecx, DWORD PTR _tree$[ebp]
	call	?CreateItem@C_TreeList@@QAEPAVTREELIST@@JJPAVC_Base@@@Z ; C_TreeList::CreateItem
	mov	DWORD PTR _item$[ebp], eax

; 331  : 							if(item)

	cmp	DWORD PTR _item$[ebp], 0
	je	SHORT $LN2@UI_Deaggre

; 332  : 								tree->AddChildItem(parent,item);

	mov	edx, DWORD PTR _item$[ebp]
	push	edx
	mov	eax, DWORD PTR _parent$[ebp]
	push	eax
	mov	ecx, DWORD PTR _tree$[ebp]
	call	?AddChildItem@C_TreeList@@QAEHPAVTREELIST@@0@Z ; C_TreeList::AddChildItem
$LN2@UI_Deaggre:

; 333  : 						}
; 334  : //					}
; 335  : 				}
; 336  : 			}
; 337  : 		}
; 338  : 	}

	jmp	$LN10@UI_Deaggre
$LN9@UI_Deaggre:

; 339  : 	tree->RecalcSize();

	mov	ecx, DWORD PTR _tree$[ebp]
	call	?RecalcSize@C_TreeList@@QAEXXZ		; C_TreeList::RecalcSize

; 340  : 	if(tree->Parent_)

	mov	ecx, DWORD PTR _tree$[ebp]
	cmp	DWORD PTR [ecx+48], 0
	je	SHORT $LN1@UI_Deaggre

; 341  : 		tree->Parent_->RefreshClient(tree->GetClient());

	mov	ecx, DWORD PTR _tree$[ebp]
	call	?GetClient@C_Base@@QAEFXZ		; C_Base::GetClient
	movsx	edx, ax
	push	edx
	mov	eax, DWORD PTR _tree$[ebp]
	mov	ecx, DWORD PTR [eax+48]
	call	?RefreshClient@C_Window@@QAEXJ@Z	; C_Window::RefreshClient
$LN1@UI_Deaggre:

; 342  : 	return(1);

	mov	eax, 1
$LN19@UI_Deaggre:

; 343  : }

	mov	ecx, DWORD PTR __$EHRec$[ebp]
	mov	DWORD PTR fs:0, ecx
	pop	ecx
	mov	ecx, DWORD PTR __$ArrayPad$[ebp]
	xor	ecx, ebp
	call	@__security_check_cookie@4
	mov	esp, ebp
	pop	ebp
	ret	0
_TEXT	ENDS
text$x	SEGMENT
__unwindfunclet$?UI_Deaggregate@@YAHPAVObjectiveClass@@@Z$0:
	mov	eax, DWORD PTR $T3[ebp]
	push	eax
	call	??3@YAXPAX@Z				; operator delete
	pop	ecx
	ret	0
__ehhandler$?UI_Deaggregate@@YAHPAVObjectiveClass@@@Z:
	mov	edx, DWORD PTR [esp+8]
	lea	eax, DWORD PTR [edx+12]
	mov	ecx, DWORD PTR [edx-112]
	xor	ecx, eax
	call	@__security_check_cookie@4
	mov	ecx, DWORD PTR [edx-4]
	xor	ecx, eax
	call	@__security_check_cookie@4
	mov	eax, OFFSET __ehfuncinfo$?UI_Deaggregate@@YAHPAVObjectiveClass@@@Z
	jmp	___CxxFrameHandler3
text$x	ENDS
?UI_Deaggregate@@YAHPAVObjectiveClass@@@Z ENDP		; UI_Deaggregate
; Function compile flags: /Odtp
; File c:\users\zhitao li\documents\visual studio 2012\projects\freefalcon\ui\src\general\viewer.cpp
_TEXT	SEGMENT
_ID$ = 8						; size = 4
_visID$ = 12						; size = 4
_pos$ = 16						; size = 4
_facing$ = 20						; size = 4
?LoadFeature@@YAPAUUI_BSPList@@JHPAUTpoint@@M@Z PROC	; LoadFeature

; 245  : {

	push	ebp
	mov	ebp, esp

; 246  : 	return(gUIViewer->LoadBuilding(ID,visID,pos,facing*DEG_TO_RADIANS));

	movss	xmm0, DWORD PTR _facing$[ebp]
	mulss	xmm0, DWORD PTR __real@3c8ef998
	push	ecx
	movss	DWORD PTR [esp], xmm0
	mov	eax, DWORD PTR _pos$[ebp]
	push	eax
	mov	ecx, DWORD PTR _visID$[ebp]
	push	ecx
	mov	edx, DWORD PTR _ID$[ebp]
	push	edx
	mov	ecx, DWORD PTR ?gUIViewer@@3PAVC_3dViewer@@A ; gUIViewer
	call	?LoadBuilding@C_3dViewer@@QAEPAUUI_BSPList@@JHPAUTpoint@@M@Z ; C_3dViewer::LoadBuilding

; 247  : }

	pop	ebp
	ret	0
?LoadFeature@@YAPAUUI_BSPList@@JHPAUTpoint@@M@Z ENDP	; LoadFeature
_TEXT	ENDS
; Function compile flags: /Odtp
; File c:\users\zhitao li\documents\visual studio 2012\projects\freefalcon\ui\src\general\viewer.cpp
_TEXT	SEGMENT
_feat1$ = -16						; size = 4
_feat2$ = -12						; size = 4
_ent2$ = -8						; size = 4
_ent1$ = -4						; size = 4
_list$ = 8						; size = 4
_newitem$ = 12						; size = 4
?ReconListSortCB@@YAHPAVTREELIST@@0@Z PROC		; ReconListSortCB

; 212  : {

	push	ebp
	mov	ebp, esp
	sub	esp, 16					; 00000010H
	push	esi

; 213  : 	C_Feature *feat1,*feat2;
; 214  : 	C_Entity *ent1,*ent2;
; 215  : 	if(!list || !newitem)

	cmp	DWORD PTR _list$[ebp], 0
	je	SHORT $LN12@ReconListS
	cmp	DWORD PTR _newitem$[ebp], 0
	jne	SHORT $LN13@ReconListS
$LN12@ReconListS:

; 216  : 		return(FALSE);

	xor	eax, eax
	jmp	$LN14@ReconListS
$LN13@ReconListS:

; 217  : 
; 218  : 	if(list->Type_ == C_TYPE_ROOT)

	mov	eax, DWORD PTR _list$[ebp]
	cmp	DWORD PTR [eax+4], 47			; 0000002fH
	jne	SHORT $LN11@ReconListS

; 219  : 	{ // Sort by ID (ID = Team)
; 220  : 		if(newitem->ID_ < list->ID_)

	mov	ecx, DWORD PTR _newitem$[ebp]
	mov	edx, DWORD PTR _list$[ebp]
	mov	eax, DWORD PTR [ecx]
	cmp	eax, DWORD PTR [edx]
	jge	SHORT $LN11@ReconListS

; 221  : 			return(TRUE);

	mov	eax, 1
	jmp	$LN14@ReconListS
$LN11@ReconListS:

; 222  : 	}
; 223  : 	if(list->Type_ == C_TYPE_MENU)

	mov	ecx, DWORD PTR _list$[ebp]
	cmp	DWORD PTR [ecx+4], 49			; 00000031H
	jne	SHORT $LN9@ReconListS

; 224  : 	{ // Sort for the Headers (Alphabetical)
; 225  : 		ent1=(C_Entity*)list->Item_;

	mov	edx, DWORD PTR _list$[ebp]
	mov	eax, DWORD PTR [edx+20]
	mov	DWORD PTR _ent1$[ebp], eax

; 226  : 		ent2=(C_Entity*)newitem->Item_;

	mov	ecx, DWORD PTR _newitem$[ebp]
	mov	edx, DWORD PTR [ecx+20]
	mov	DWORD PTR _ent2$[ebp], edx

; 227  : 		if(!ent1 || !ent2)

	cmp	DWORD PTR _ent1$[ebp], 0
	je	SHORT $LN7@ReconListS
	cmp	DWORD PTR _ent2$[ebp], 0
	jne	SHORT $LN8@ReconListS
$LN7@ReconListS:

; 228  : 			return(FALSE);

	xor	eax, eax
	jmp	SHORT $LN14@ReconListS
$LN8@ReconListS:

; 229  : 		if(_tcscmp(ent2->GetName(),ent1->GetName()) < 0)

	mov	ecx, DWORD PTR _ent1$[ebp]
	call	?GetName@C_Entity@@QAEPADXZ		; C_Entity::GetName
	push	eax
	mov	ecx, DWORD PTR _ent2$[ebp]
	call	?GetName@C_Entity@@QAEPADXZ		; C_Entity::GetName
	push	eax
	call	__tcscmp
	add	esp, 8
	test	eax, eax
	jge	SHORT $LN6@ReconListS

; 230  : 			return(TRUE);

	mov	eax, 1
	jmp	SHORT $LN14@ReconListS
$LN6@ReconListS:

; 231  : 	}

	jmp	SHORT $LN5@ReconListS
$LN9@ReconListS:

; 232  : 	else if(list->Type_ == C_TYPE_ITEM)

	mov	eax, DWORD PTR _list$[ebp]
	cmp	DWORD PTR [eax+4], 50			; 00000032H
	jne	SHORT $LN5@ReconListS

; 233  : 	{ // Sort for the Individual Items (Based on Value)
; 234  : 		feat1=(C_Feature*)list->Item_;

	mov	ecx, DWORD PTR _list$[ebp]
	mov	edx, DWORD PTR [ecx+20]
	mov	DWORD PTR _feat1$[ebp], edx

; 235  : 		feat2=(C_Feature*)newitem->Item_;

	mov	eax, DWORD PTR _newitem$[ebp]
	mov	ecx, DWORD PTR [eax+20]
	mov	DWORD PTR _feat2$[ebp], ecx

; 236  : 		if(!feat1 || !feat2)

	cmp	DWORD PTR _feat1$[ebp], 0
	je	SHORT $LN2@ReconListS
	cmp	DWORD PTR _feat2$[ebp], 0
	jne	SHORT $LN3@ReconListS
$LN2@ReconListS:

; 237  : 			return(FALSE);

	xor	eax, eax
	jmp	SHORT $LN14@ReconListS
$LN3@ReconListS:

; 238  : 		if(feat2->GetFeatureValue() > feat1->GetFeatureValue())

	mov	ecx, DWORD PTR _feat2$[ebp]
	call	?GetFeatureValue@C_Feature@@QAEEXZ	; C_Feature::GetFeatureValue
	movzx	esi, al
	mov	ecx, DWORD PTR _feat1$[ebp]
	call	?GetFeatureValue@C_Feature@@QAEEXZ	; C_Feature::GetFeatureValue
	movzx	edx, al
	cmp	esi, edx
	jle	SHORT $LN5@ReconListS

; 239  : 			return(TRUE);

	mov	eax, 1
	jmp	SHORT $LN14@ReconListS
$LN5@ReconListS:

; 240  : 	}
; 241  : 	return(FALSE);

	xor	eax, eax
$LN14@ReconListS:

; 242  : }

	pop	esi
	mov	esp, ebp
	pop	ebp
	ret	0
?ReconListSortCB@@YAHPAVTREELIST@@0@Z ENDP		; ReconListSortCB
_TEXT	ENDS
; Function compile flags: /Odtp
; File c:\users\zhitao li\documents\visual studio 2012\projects\freefalcon\ui\src\general\viewer.cpp
_TEXT	SEGMENT
_dist$ = -56						; size = 4
_brg$ = -52						; size = 4
_txt$ = -48						; size = 4
_buffer$ = -44						; size = 40
__$ArrayPad$ = -4					; size = 4
_win$ = 8						; size = 4
?SetBullsEye@@YAXPAVC_Window@@@Z PROC			; SetBullsEye

; 179  : {

	push	ebp
	mov	ebp, esp
	sub	esp, 56					; 00000038H
	mov	eax, DWORD PTR ___security_cookie
	xor	eax, ebp
	mov	DWORD PTR __$ArrayPad$[ebp], eax

; 180  : 	C_Text *txt;
; 181  : 	long brg,dist;
; 182  : 	_TCHAR buffer[40];
; 183  : 
; 184  : 	if(!win)

	cmp	DWORD PTR _win$[ebp], 0
	jne	SHORT $LN2@SetBullsEy

; 185  : 		return;

	jmp	$LN3@SetBullsEy
$LN2@SetBullsEy:

; 186  : 
; 187  : 	txt=(C_Text*)win->FindControl(BULLSEYE);

	push	18010					; 0000465aH
	mov	ecx, DWORD PTR _win$[ebp]
	call	?FindControl@C_Window@@QAEPAVC_Base@@J@Z ; C_Window::FindControl
	mov	DWORD PTR _txt$[ebp], eax

; 188  : 	if(txt)

	cmp	DWORD PTR _txt$[ebp], 0
	je	$LN1@SetBullsEy

; 189  : 	{
; 190  : 		txt->Refresh();

	mov	eax, DWORD PTR _txt$[ebp]
	mov	edx, DWORD PTR [eax]
	mov	ecx, DWORD PTR _txt$[ebp]
	mov	eax, DWORD PTR [edx+160]
	call	eax

; 191  : 		brg=TheCampaign.BearingToBullseyeDeg(Recon.PosX,Recon.PosY);

	push	ecx
	movss	xmm0, DWORD PTR ?Recon@@3UOBJECTINFO@@A+20
	movss	DWORD PTR [esp], xmm0
	push	ecx
	movss	xmm0, DWORD PTR ?Recon@@3UOBJECTINFO@@A+16
	movss	DWORD PTR [esp], xmm0
	mov	ecx, OFFSET ?TheCampaign@@3VCampaignClass@@A ; TheCampaign
	call	?BearingToBullseyeDeg@CampaignClass@@QAEHMM@Z ; CampaignClass::BearingToBullseyeDeg
	mov	DWORD PTR _brg$[ebp], eax

; 192  : 
; 193  : 	//MI Bullseye bearing fix
; 194  : #if 0
; 195  : 		while(brg < 0)
; 196  : 			brg+=360;
; 197  : 		while(brg > 360)
; 198  : 			brg-=360;
; 199  : #else
; 200  : 		brg += 180;

	mov	ecx, DWORD PTR _brg$[ebp]
	add	ecx, 180				; 000000b4H
	mov	DWORD PTR _brg$[ebp], ecx

; 201  : #endif
; 202  : 		dist=FloatToInt32(TheCampaign.RangeToBullseyeFt(Recon.PosX,Recon.PosY)*FT_TO_NM);

	push	ecx
	movss	xmm0, DWORD PTR ?Recon@@3UOBJECTINFO@@A+20
	movss	DWORD PTR [esp], xmm0
	push	ecx
	movss	xmm0, DWORD PTR ?Recon@@3UOBJECTINFO@@A+16
	movss	DWORD PTR [esp], xmm0
	mov	ecx, OFFSET ?TheCampaign@@3VCampaignClass@@A ; TheCampaign
	call	?RangeToBullseyeFt@CampaignClass@@QAEHMM@Z ; CampaignClass::RangeToBullseyeFt
	cvtsi2ss xmm0, eax
	mulss	xmm0, DWORD PTR __real@392c987a
	push	ecx
	movss	DWORD PTR [esp], xmm0
	call	?FloatToInt32@@YAHM@Z			; FloatToInt32
	add	esp, 4
	mov	DWORD PTR _dist$[ebp], eax

; 203  : 
; 204  : 		_stprintf(buffer,"%03d  %1ld %s",brg,dist,gStringMgr->GetString(TXT_NM));

	push	182					; 000000b6H
	mov	ecx, DWORD PTR ?gStringMgr@@3PAVC_String@@A ; gStringMgr
	call	?GetString@C_String@@QAEPADJ@Z		; C_String::GetString
	push	eax
	mov	edx, DWORD PTR _dist$[ebp]
	push	edx
	mov	eax, DWORD PTR _brg$[ebp]
	push	eax
	push	OFFSET ??_C@_0O@BIEMCAOH@?$CF03d?5?5?$CF1ld?5?$CFs?$AA@
	lea	ecx, DWORD PTR _buffer$[ebp]
	push	ecx
	call	_sprintf
	add	esp, 20					; 00000014H

; 205  : 
; 206  : 		txt->SetText(buffer);

	lea	edx, DWORD PTR _buffer$[ebp]
	push	edx
	mov	eax, DWORD PTR _txt$[ebp]
	mov	edx, DWORD PTR [eax]
	mov	ecx, DWORD PTR _txt$[ebp]
	mov	eax, DWORD PTR [edx+256]
	call	eax

; 207  : 		txt->Refresh();

	mov	ecx, DWORD PTR _txt$[ebp]
	mov	edx, DWORD PTR [ecx]
	mov	ecx, DWORD PTR _txt$[ebp]
	mov	eax, DWORD PTR [edx+160]
	call	eax
$LN1@SetBullsEy:
$LN3@SetBullsEy:

; 208  : 	}
; 209  : }

	mov	ecx, DWORD PTR __$ArrayPad$[ebp]
	xor	ecx, ebp
	call	@__security_check_cookie@4
	mov	esp, ebp
	pop	ebp
	ret	0
?SetBullsEye@@YAXPAVC_Window@@@Z ENDP			; SetBullsEye
_TEXT	ENDS
; Function compile flags: /Odtp
; File c:\users\zhitao li\documents\visual studio 2012\projects\freefalcon\ui\src\general\viewer.cpp
_TEXT	SEGMENT
_txt$ = -24						; size = 4
_buffer$ = -20						; size = 15
__$ArrayPad$ = -4					; size = 4
_win$ = 8						; size = 4
?SetSlantRange@@YAXPAVC_Window@@@Z PROC			; SetSlantRange

; 161  : {

	push	ebp
	mov	ebp, esp
	sub	esp, 24					; 00000018H
	mov	eax, DWORD PTR ___security_cookie
	xor	eax, ebp
	mov	DWORD PTR __$ArrayPad$[ebp], eax

; 162  : 	C_Text *txt;
; 163  : 	_TCHAR buffer[15];
; 164  : 
; 165  : 	if(!win)

	cmp	DWORD PTR _win$[ebp], 0
	jne	SHORT $LN2@SetSlantRa

; 166  : 		return;

	jmp	SHORT $LN3@SetSlantRa
$LN2@SetSlantRa:

; 167  : 
; 168  : 	txt=(C_Text*)win->FindControl(SLANT_RANGE);

	push	18009					; 00004659H
	mov	ecx, DWORD PTR _win$[ebp]
	call	?FindControl@C_Window@@QAEPAVC_Base@@J@Z ; C_Window::FindControl
	mov	DWORD PTR _txt$[ebp], eax

; 169  : 	if(txt)

	cmp	DWORD PTR _txt$[ebp], 0
	je	SHORT $LN1@SetSlantRa

; 170  : 	{
; 171  : 		txt->Refresh();

	mov	eax, DWORD PTR _txt$[ebp]
	mov	edx, DWORD PTR [eax]
	mov	ecx, DWORD PTR _txt$[ebp]
	mov	eax, DWORD PTR [edx+160]
	call	eax

; 172  : 		_stprintf(buffer,"%1ld ft",(long)Recon.Distance);

	cvttss2si ecx, DWORD PTR ?Recon@@3UOBJECTINFO@@A+8
	push	ecx
	push	OFFSET ??_C@_07JBOAFILA@?$CF1ld?5ft?$AA@
	lea	edx, DWORD PTR _buffer$[ebp]
	push	edx
	call	_sprintf
	add	esp, 12					; 0000000cH

; 173  : 		txt->SetText(buffer);

	lea	eax, DWORD PTR _buffer$[ebp]
	push	eax
	mov	ecx, DWORD PTR _txt$[ebp]
	mov	edx, DWORD PTR [ecx]
	mov	ecx, DWORD PTR _txt$[ebp]
	mov	eax, DWORD PTR [edx+256]
	call	eax

; 174  : 		txt->Refresh();

	mov	ecx, DWORD PTR _txt$[ebp]
	mov	edx, DWORD PTR [ecx]
	mov	ecx, DWORD PTR _txt$[ebp]
	mov	eax, DWORD PTR [edx+160]
	call	eax
$LN1@SetSlantRa:
$LN3@SetSlantRa:

; 175  : 	}
; 176  : }

	mov	ecx, DWORD PTR __$ArrayPad$[ebp]
	xor	ecx, ebp
	call	@__security_check_cookie@4
	mov	esp, ebp
	pop	ebp
	ret	0
?SetSlantRange@@YAXPAVC_Window@@@Z ENDP			; SetSlantRange
_TEXT	ENDS
; Function compile flags: /Odtp
; File c:\users\zhitao li\documents\visual studio 2012\projects\freefalcon\ui\src\general\viewer.cpp
_TEXT	SEGMENT
_Info$ = 8						; size = 4
_win$ = 12						; size = 4
_client$ = 16						; size = 4
?PositionCamera@@YAXPAUOBJECTINFO@@PAVC_Window@@J@Z PROC ; PositionCamera

; 150  : {

	push	ebp
	mov	ebp, esp

; 151  : 	if(!gUIViewer || !Info || !win)

	cmp	DWORD PTR ?gUIViewer@@3PAVC_3dViewer@@A, 0 ; gUIViewer
	je	SHORT $LN1@PositionCa
	cmp	DWORD PTR _Info$[ebp], 0
	je	SHORT $LN1@PositionCa
	cmp	DWORD PTR _win$[ebp], 0
	jne	SHORT $LN2@PositionCa
$LN1@PositionCa:

; 152  : 		return;

	jmp	$LN3@PositionCa
$LN2@PositionCa:

; 153  : 
; 154  : 	FindCameraDeltas(Info);

	mov	eax, DWORD PTR _Info$[ebp]
	push	eax
	call	?FindCameraDeltas@@YAXPAUOBJECTINFO@@@Z	; FindCameraDeltas
	add	esp, 4

; 155  : 	SetHeading(win);

	mov	ecx, DWORD PTR _win$[ebp]
	push	ecx
	call	?SetHeading@@YAXPAVC_Window@@@Z		; SetHeading

; 156  : 	gUIViewer->SetCamera(Info->DeltaX,Info->DeltaY,Info->DeltaZ,Info->Heading,-Info->Pitch,0.0f);

	movss	xmm0, DWORD PTR __real@00000000
	movss	DWORD PTR [esp], xmm0
	mov	edx, DWORD PTR _Info$[ebp]
	movss	xmm0, DWORD PTR [edx+4]
	xorps	xmm0, DWORD PTR __xmm@80000000800000008000000080000000
	push	ecx
	movss	DWORD PTR [esp], xmm0
	mov	eax, DWORD PTR _Info$[ebp]
	push	ecx
	movss	xmm0, DWORD PTR [eax]
	movss	DWORD PTR [esp], xmm0
	mov	ecx, DWORD PTR _Info$[ebp]
	push	ecx
	movss	xmm0, DWORD PTR [ecx+36]
	movss	DWORD PTR [esp], xmm0
	mov	edx, DWORD PTR _Info$[ebp]
	push	ecx
	movss	xmm0, DWORD PTR [edx+32]
	movss	DWORD PTR [esp], xmm0
	mov	eax, DWORD PTR _Info$[ebp]
	push	ecx
	movss	xmm0, DWORD PTR [eax+28]
	movss	DWORD PTR [esp], xmm0
	mov	ecx, DWORD PTR ?gUIViewer@@3PAVC_3dViewer@@A ; gUIViewer
	call	?SetCamera@C_3dViewer@@QAEXMMMMMM@Z	; C_3dViewer::SetCamera

; 157  : 	win->RefreshClient(client);

	mov	ecx, DWORD PTR _client$[ebp]
	push	ecx
	mov	ecx, DWORD PTR _win$[ebp]
	call	?RefreshClient@C_Window@@QAEXJ@Z	; C_Window::RefreshClient
$LN3@PositionCa:

; 158  : }

	pop	ebp
	ret	0
?PositionCamera@@YAXPAUOBJECTINFO@@PAVC_Window@@J@Z ENDP ; PositionCamera
_TEXT	ENDS
; Function compile flags: /Odtp
; File c:\users\zhitao li\documents\visual studio 2012\projects\freefalcon\ui\src\general\viewer.cpp
_TEXT	SEGMENT
tv176 = -40						; size = 4
tv187 = -36						; size = 4
tv166 = -32						; size = 4
tv185 = -28						; size = 4
tv159 = -24						; size = 4
tv183 = -20						; size = 4
tv149 = -16						; size = 4
tv181 = -12						; size = 4
tv142 = -8						; size = 4
tv179 = -4						; size = 4
_Info$ = 8						; size = 4
?FindCameraDeltas@@YAXPAUOBJECTINFO@@@Z PROC		; FindCameraDeltas

; 143  : {

	push	ebp
	mov	ebp, esp
	sub	esp, 40					; 00000028H

; 144  : 	Info->DeltaX = static_cast<float>(-Info->Distance * cos(Info->Heading * DTR) * cos(Info->Pitch * DTR));

	mov	eax, DWORD PTR _Info$[ebp]
	movss	xmm0, DWORD PTR [eax+8]
	xorps	xmm0, DWORD PTR __xmm@80000000800000008000000080000000
	mov	ecx, DWORD PTR _Info$[ebp]
	movss	xmm1, DWORD PTR [ecx]
	mulss	xmm1, DWORD PTR __real@3c8efa34
	push	ecx
	movss	DWORD PTR [esp], xmm1
	movss	DWORD PTR tv179[ebp], xmm0
	call	?cos@@YAMM@Z				; cos
	add	esp, 4
	fstp	DWORD PTR tv142[ebp]
	movss	xmm0, DWORD PTR tv179[ebp]
	mulss	xmm0, DWORD PTR tv142[ebp]
	mov	edx, DWORD PTR _Info$[ebp]
	movss	xmm1, DWORD PTR [edx+4]
	mulss	xmm1, DWORD PTR __real@3c8efa34
	push	ecx
	movss	DWORD PTR [esp], xmm1
	movss	DWORD PTR tv181[ebp], xmm0
	call	?cos@@YAMM@Z				; cos
	add	esp, 4
	fstp	DWORD PTR tv149[ebp]
	movss	xmm0, DWORD PTR tv181[ebp]
	mulss	xmm0, DWORD PTR tv149[ebp]
	mov	eax, DWORD PTR _Info$[ebp]
	movss	DWORD PTR [eax+28], xmm0

; 145  : 	Info->DeltaY = static_cast<float>(-Info->Distance * sin(Info->Heading * DTR) * cos(Info->Pitch * DTR));

	mov	ecx, DWORD PTR _Info$[ebp]
	movss	xmm0, DWORD PTR [ecx+8]
	xorps	xmm0, DWORD PTR __xmm@80000000800000008000000080000000
	mov	edx, DWORD PTR _Info$[ebp]
	movss	xmm1, DWORD PTR [edx]
	mulss	xmm1, DWORD PTR __real@3c8efa34
	push	ecx
	movss	DWORD PTR [esp], xmm1
	movss	DWORD PTR tv183[ebp], xmm0
	call	?sin@@YAMM@Z				; sin
	add	esp, 4
	fstp	DWORD PTR tv159[ebp]
	movss	xmm0, DWORD PTR tv183[ebp]
	mulss	xmm0, DWORD PTR tv159[ebp]
	mov	eax, DWORD PTR _Info$[ebp]
	movss	xmm1, DWORD PTR [eax+4]
	mulss	xmm1, DWORD PTR __real@3c8efa34
	push	ecx
	movss	DWORD PTR [esp], xmm1
	movss	DWORD PTR tv185[ebp], xmm0
	call	?cos@@YAMM@Z				; cos
	add	esp, 4
	fstp	DWORD PTR tv166[ebp]
	movss	xmm0, DWORD PTR tv185[ebp]
	mulss	xmm0, DWORD PTR tv166[ebp]
	mov	ecx, DWORD PTR _Info$[ebp]
	movss	DWORD PTR [ecx+32], xmm0

; 146  : 	Info->DeltaZ = static_cast<float>(-Info->Distance * sin(Info->Pitch * DTR));

	mov	edx, DWORD PTR _Info$[ebp]
	movss	xmm0, DWORD PTR [edx+8]
	xorps	xmm0, DWORD PTR __xmm@80000000800000008000000080000000
	mov	eax, DWORD PTR _Info$[ebp]
	movss	xmm1, DWORD PTR [eax+4]
	mulss	xmm1, DWORD PTR __real@3c8efa34
	push	ecx
	movss	DWORD PTR [esp], xmm1
	movss	DWORD PTR tv187[ebp], xmm0
	call	?sin@@YAMM@Z				; sin
	add	esp, 4
	fstp	DWORD PTR tv176[ebp]
	movss	xmm0, DWORD PTR tv187[ebp]
	mulss	xmm0, DWORD PTR tv176[ebp]
	mov	ecx, DWORD PTR _Info$[ebp]
	movss	DWORD PTR [ecx+36], xmm0

; 147  : }

	mov	esp, ebp
	pop	ebp
	ret	0
?FindCameraDeltas@@YAXPAUOBJECTINFO@@@Z ENDP		; FindCameraDeltas
_TEXT	ENDS
; Function compile flags: /Odtp
; File c:\users\zhitao li\documents\visual studio 2012\projects\freefalcon\ui\src\general\viewer.cpp
_TEXT	SEGMENT
_txt$ = -16						; size = 4
_buffer$ = -12						; size = 5
__$ArrayPad$ = -4					; size = 4
_win$ = 8						; size = 4
?SetHeading@@YAXPAVC_Window@@@Z PROC			; SetHeading

; 125  : {

	push	ebp
	mov	ebp, esp
	sub	esp, 16					; 00000010H
	mov	eax, DWORD PTR ___security_cookie
	xor	eax, ebp
	mov	DWORD PTR __$ArrayPad$[ebp], eax

; 126  : 	C_Text *txt;
; 127  : 	_TCHAR buffer[5];
; 128  : 
; 129  : 	if(!win)

	cmp	DWORD PTR _win$[ebp], 0
	jne	SHORT $LN2@SetHeading

; 130  : 		return;

	jmp	SHORT $LN3@SetHeading
$LN2@SetHeading:

; 131  : 
; 132  : 	txt=(C_Text*)win->FindControl(RECON_HEADING);

	push	18347					; 000047abH
	mov	ecx, DWORD PTR _win$[ebp]
	call	?FindControl@C_Window@@QAEPAVC_Base@@J@Z ; C_Window::FindControl
	mov	DWORD PTR _txt$[ebp], eax

; 133  : 	if(txt)

	cmp	DWORD PTR _txt$[ebp], 0
	je	SHORT $LN1@SetHeading

; 134  : 	{
; 135  : 		txt->Refresh();

	mov	eax, DWORD PTR _txt$[ebp]
	mov	edx, DWORD PTR [eax]
	mov	ecx, DWORD PTR _txt$[ebp]
	mov	eax, DWORD PTR [edx+160]
	call	eax

; 136  : 		_stprintf(buffer,"%03ld",(long)Recon.Heading);

	cvttss2si ecx, DWORD PTR ?Recon@@3UOBJECTINFO@@A
	push	ecx
	push	OFFSET ??_C@_05BKLPLJPH@?$CF03ld?$AA@
	lea	edx, DWORD PTR _buffer$[ebp]
	push	edx
	call	_sprintf
	add	esp, 12					; 0000000cH

; 137  : 		txt->SetText(buffer);

	lea	eax, DWORD PTR _buffer$[ebp]
	push	eax
	mov	ecx, DWORD PTR _txt$[ebp]
	mov	edx, DWORD PTR [ecx]
	mov	ecx, DWORD PTR _txt$[ebp]
	mov	eax, DWORD PTR [edx+256]
	call	eax

; 138  : 		txt->Refresh();

	mov	ecx, DWORD PTR _txt$[ebp]
	mov	edx, DWORD PTR [ecx]
	mov	ecx, DWORD PTR _txt$[ebp]
	mov	eax, DWORD PTR [edx+160]
	call	eax
$LN1@SetHeading:
$LN3@SetHeading:

; 139  : 	}
; 140  : }

	mov	ecx, DWORD PTR __$ArrayPad$[ebp]
	xor	ecx, ebp
	call	@__security_check_cookie@4
	mov	esp, ebp
	pop	ebp
	ret	0
?SetHeading@@YAXPAVC_Window@@@Z ENDP			; SetHeading
_TEXT	ENDS
; Function compile flags: /Odtp
; File c:\users\zhitao li\documents\visual studio 2012\projects\freefalcon\ui\src\general\viewer.cpp
_TEXT	SEGMENT
$T1 = -36						; size = 8
_bsp$ = -28						; size = 4
_win$ = -24						; size = 4
_feat$ = -20						; size = 4
_pos$ = -16						; size = 12
__$ArrayPad$ = -4					; size = 4
___formal$ = 8						; size = 4
_hittype$ = 12						; size = 2
_control$ = 16						; size = 4
?CenterOnFeatureCB@@YAXJFPAVC_Base@@@Z PROC		; CenterOnFeatureCB

; 92   : {

	push	ebp
	mov	ebp, esp
	sub	esp, 36					; 00000024H
	mov	eax, DWORD PTR ___security_cookie
	xor	eax, ebp
	mov	DWORD PTR __$ArrayPad$[ebp], eax

; 93   : 	BSPLIST *bsp;
; 94   : 	Tpoint pos;
; 95   : 	C_Feature *feat;
; 96   : 	C_Window *win;
; 97   : 
; 98   : 	if(hittype != C_TYPE_LMOUSEUP)

	movsx	eax, WORD PTR _hittype$[ebp]
	cmp	eax, 52					; 00000034H
	je	SHORT $LN5@CenterOnFe

; 99   : 		return;

	jmp	$LN6@CenterOnFe
$LN5@CenterOnFe:

; 100  : 
; 101  : 	if(gUIViewer)

	cmp	DWORD PTR ?gUIViewer@@3PAVC_3dViewer@@A, 0 ; gUIViewer
	je	$LN4@CenterOnFe

; 102  : 	{
; 103  : 		feat=(C_Feature *)control;

	mov	ecx, DWORD PTR _control$[ebp]
	mov	DWORD PTR _feat$[ebp], ecx

; 104  : 		bsp=gUIViewer->Find(feat->GetID());

	mov	ecx, DWORD PTR _feat$[ebp]
	call	?GetID@C_Base@@QAEJXZ			; C_Base::GetID
	push	eax
	mov	ecx, DWORD PTR ?gUIViewer@@3PAVC_3dViewer@@A ; gUIViewer
	call	?Find@C_3dViewer@@QAEPAUUI_BSPList@@J@Z	; C_3dViewer::Find
	mov	DWORD PTR _bsp$[ebp], eax

; 105  : 		if(bsp)

	cmp	DWORD PTR _bsp$[ebp], 0
	je	$LN2@CenterOnFe

; 106  : 		{
; 107  : 			bsp->object->GetPosition(&pos);

	lea	edx, DWORD PTR _pos$[ebp]
	push	edx
	mov	eax, DWORD PTR _bsp$[ebp]
	mov	ecx, DWORD PTR [eax+12]
	call	?GetPosition@DrawableObject@@QAEXPAUTpoint@@@Z ; DrawableObject::GetPosition

; 108  : 			Recon.PosX=pos.x;

	movss	xmm0, DWORD PTR _pos$[ebp]
	movss	DWORD PTR ?Recon@@3UOBJECTINFO@@A+16, xmm0

; 109  : 			Recon.PosY=pos.y;

	movss	xmm0, DWORD PTR _pos$[ebp+4]
	movss	DWORD PTR ?Recon@@3UOBJECTINFO@@A+20, xmm0

; 110  : 			Recon.PosZ=pos.z;

	movss	xmm0, DWORD PTR _pos$[ebp+8]
	movss	DWORD PTR ?Recon@@3UOBJECTINFO@@A+24, xmm0

; 111  : 			gUIViewer->SetPosition(Recon.PosX,Recon.PosY,Recon.PosZ);

	push	ecx
	movss	xmm0, DWORD PTR ?Recon@@3UOBJECTINFO@@A+24
	movss	DWORD PTR [esp], xmm0
	push	ecx
	movss	xmm0, DWORD PTR ?Recon@@3UOBJECTINFO@@A+20
	movss	DWORD PTR [esp], xmm0
	push	ecx
	movss	xmm0, DWORD PTR ?Recon@@3UOBJECTINFO@@A+16
	movss	DWORD PTR [esp], xmm0
	mov	ecx, DWORD PTR ?gUIViewer@@3PAVC_3dViewer@@A ; gUIViewer
	call	?SetPosition@C_3dViewer@@QAEXMMM@Z	; C_3dViewer::SetPosition

; 112  : 			win=gMainHandler->FindWindow(RECON_WIN);

	push	18000					; 00004650H
	mov	ecx, DWORD PTR ?gMainHandler@@3PAVC_Handler@@A ; gMainHandler
	call	?FindWindowA@C_Handler@@QAEPAVC_Window@@J@Z ; C_Handler::FindWindowA
	mov	DWORD PTR _win$[ebp], eax

; 113  : 			if(win)

	cmp	DWORD PTR _win$[ebp], 0
	je	SHORT $LN2@CenterOnFe

; 114  : 				win->RefreshWindow();

	mov	ecx, DWORD PTR _win$[ebp]
	call	?RefreshWindow@C_Window@@QAEXXZ		; C_Window::RefreshWindow
$LN2@CenterOnFe:

; 115  : 		}
; 116  : 		FeatureID=feat->GetVUID();

	lea	ecx, DWORD PTR $T1[ebp]
	push	ecx
	mov	ecx, DWORD PTR _feat$[ebp]
	call	?GetVUID@C_Feature@@QAE?AVVU_ID@@XZ	; C_Feature::GetVUID
	mov	edx, DWORD PTR [eax]
	mov	eax, DWORD PTR [eax+4]
	mov	DWORD PTR ?FeatureID@@3VVU_ID@@A, edx
	mov	DWORD PTR ?FeatureID@@3VVU_ID@@A+4, eax

; 117  : 		FeatureNo=feat->GetFeatureID();

	mov	ecx, DWORD PTR _feat$[ebp]
	call	?GetFeatureID@C_Feature@@QAEJXZ		; C_Feature::GetFeatureID
	mov	DWORD PTR ?FeatureNo@@3JA, eax		; FeatureNo

; 118  : 		if(TargetTree)

	cmp	DWORD PTR ?TargetTree@@3PAVC_TreeList@@A, 0 ; TargetTree
	je	SHORT $LN1@CenterOnFe

; 119  : 			TargetTree->SetAllControlStates(0,TargetTree->GetRoot());

	mov	ecx, DWORD PTR ?TargetTree@@3PAVC_TreeList@@A ; TargetTree
	call	?GetRoot@C_TreeList@@QAEPAVTREELIST@@XZ	; C_TreeList::GetRoot
	push	eax
	push	0
	mov	ecx, DWORD PTR ?TargetTree@@3PAVC_TreeList@@A ; TargetTree
	call	?SetAllControlStates@C_TreeList@@QAEXFPAVTREELIST@@@Z ; C_TreeList::SetAllControlStates
$LN1@CenterOnFe:

; 120  : 		feat->SetState(1);

	push	1
	mov	ecx, DWORD PTR _feat$[ebp]
	mov	edx, DWORD PTR [ecx]
	mov	ecx, DWORD PTR _feat$[ebp]
	mov	eax, DWORD PTR [edx+56]
	call	eax
$LN4@CenterOnFe:
$LN6@CenterOnFe:

; 121  : 	}
; 122  : }

	mov	ecx, DWORD PTR __$ArrayPad$[ebp]
	xor	ecx, ebp
	call	@__security_check_cookie@4
	mov	esp, ebp
	pop	ebp
	ret	0
?CenterOnFeatureCB@@YAXJFPAVC_Base@@@Z ENDP		; CenterOnFeatureCB
_TEXT	ENDS
; Function compile flags: /Odtp
; File c:\users\zhitao li\documents\visual studio 2012\projects\freefalcon\ui\src\general\viewer.cpp
_TEXT	SEGMENT
_sh$ = -8						; size = 4
_sw$ = -4						; size = 4
_win$ = 8						; size = 4
_client$ = 12						; size = 4
_l$ = 16						; size = 4
_t$ = 20						; size = 4
_r$ = 24						; size = 4
_b$ = 28						; size = 4
?CalculateViewport@@YAXPAVC_Window@@JPAM111@Z PROC	; CalculateViewport

; 79   : {

	push	ebp
	mov	ebp, esp
	sub	esp, 8

; 80   : 	float sw,sh;
; 81   : 
; 82   : 	sw=(float)gMainHandler->GetFront()->targetXres();

	mov	ecx, DWORD PTR ?gMainHandler@@3PAVC_Handler@@A ; gMainHandler
	call	?GetFront@C_Handler@@QAEPAVImageBuffer@@XZ ; C_Handler::GetFront
	mov	ecx, eax
	call	?targetXres@ImageBuffer@@QAEHXZ		; ImageBuffer::targetXres
	cvtsi2ss xmm0, eax
	movss	DWORD PTR _sw$[ebp], xmm0

; 83   : 	sh=(float)gMainHandler->GetFront()->targetYres();

	mov	ecx, DWORD PTR ?gMainHandler@@3PAVC_Handler@@A ; gMainHandler
	call	?GetFront@C_Handler@@QAEPAVImageBuffer@@XZ ; C_Handler::GetFront
	mov	ecx, eax
	call	?targetYres@ImageBuffer@@QAEHXZ		; ImageBuffer::targetYres
	cvtsi2ss xmm0, eax
	movss	DWORD PTR _sh$[ebp], xmm0

; 84   : 
; 85   : 	*l=static_cast<float>(-1.0f+((float)(win->GetX()+win->ClientArea_[client].left+6) / (sw * .5)));

	mov	ecx, DWORD PTR _win$[ebp]
	call	?GetX@C_Window@@QAEFXZ			; C_Window::GetX
	cwde
	mov	ecx, DWORD PTR _client$[ebp]
	shl	ecx, 4
	mov	edx, DWORD PTR _win$[ebp]
	mov	ecx, DWORD PTR [edx+ecx+168]
	lea	edx, DWORD PTR [eax+ecx+6]
	cvtsi2ss xmm0, edx
	cvtss2sd xmm0, xmm0
	cvtss2sd xmm1, DWORD PTR _sw$[ebp]
	mulsd	xmm1, QWORD PTR __real@3fe0000000000000
	divsd	xmm0, xmm1
	addsd	xmm0, QWORD PTR __real@bff0000000000000
	cvtsd2ss xmm0, xmm0
	mov	eax, DWORD PTR _l$[ebp]
	movss	DWORD PTR [eax], xmm0

; 86   : 	*t=static_cast<float>( 1.0f-((float)(win->GetY()+win->ClientArea_[client].top+6) / (sh * .5)));

	mov	ecx, DWORD PTR _win$[ebp]
	call	?GetY@C_Window@@QAEFXZ			; C_Window::GetY
	movsx	ecx, ax
	mov	edx, DWORD PTR _client$[ebp]
	shl	edx, 4
	mov	eax, DWORD PTR _win$[ebp]
	mov	edx, DWORD PTR [eax+edx+172]
	lea	eax, DWORD PTR [ecx+edx+6]
	cvtsi2ss xmm0, eax
	cvtss2sd xmm0, xmm0
	cvtss2sd xmm1, DWORD PTR _sh$[ebp]
	mulsd	xmm1, QWORD PTR __real@3fe0000000000000
	divsd	xmm0, xmm1
	movsd	xmm1, QWORD PTR __real@3ff0000000000000
	subsd	xmm1, xmm0
	cvtsd2ss xmm0, xmm1
	mov	ecx, DWORD PTR _t$[ebp]
	movss	DWORD PTR [ecx], xmm0

; 87   : 	*r=static_cast<float>( 1.0f-((float)(sw-(win->GetX()+win->ClientArea_[client].right)-6) / (sw * .5)));

	mov	ecx, DWORD PTR _win$[ebp]
	call	?GetX@C_Window@@QAEFXZ			; C_Window::GetX
	movsx	edx, ax
	mov	eax, DWORD PTR _client$[ebp]
	shl	eax, 4
	mov	ecx, DWORD PTR _win$[ebp]
	add	edx, DWORD PTR [ecx+eax+176]
	cvtsi2ss xmm0, edx
	movss	xmm1, DWORD PTR _sw$[ebp]
	subss	xmm1, xmm0
	subss	xmm1, DWORD PTR __real@40c00000
	cvtss2sd xmm0, xmm1
	cvtss2sd xmm1, DWORD PTR _sw$[ebp]
	mulsd	xmm1, QWORD PTR __real@3fe0000000000000
	divsd	xmm0, xmm1
	movsd	xmm1, QWORD PTR __real@3ff0000000000000
	subsd	xmm1, xmm0
	cvtsd2ss xmm0, xmm1
	mov	edx, DWORD PTR _r$[ebp]
	movss	DWORD PTR [edx], xmm0

; 88   : 	*b=static_cast<float>(-1.0f+((float)(sh-(win->GetY()+win->ClientArea_[client].bottom)-6) / (sh * .5)));

	mov	ecx, DWORD PTR _win$[ebp]
	call	?GetY@C_Window@@QAEFXZ			; C_Window::GetY
	cwde
	mov	ecx, DWORD PTR _client$[ebp]
	shl	ecx, 4
	mov	edx, DWORD PTR _win$[ebp]
	add	eax, DWORD PTR [edx+ecx+180]
	cvtsi2ss xmm0, eax
	movss	xmm1, DWORD PTR _sh$[ebp]
	subss	xmm1, xmm0
	subss	xmm1, DWORD PTR __real@40c00000
	cvtss2sd xmm0, xmm1
	cvtss2sd xmm1, DWORD PTR _sh$[ebp]
	mulsd	xmm1, QWORD PTR __real@3fe0000000000000
	divsd	xmm0, xmm1
	addsd	xmm0, QWORD PTR __real@bff0000000000000
	cvtsd2ss xmm0, xmm0
	mov	eax, DWORD PTR _b$[ebp]
	movss	DWORD PTR [eax], xmm0

; 89   : }

	mov	esp, ebp
	pop	ebp
	ret	0
?CalculateViewport@@YAXPAVC_Window@@JPAM111@Z ENDP	; CalculateViewport
_TEXT	ENDS
; Function compile flags: /Odtp
;	COMDAT ??_GC_BSPList@@QAEPAXI@Z
_TEXT	SEGMENT
_this$ = -4						; size = 4
___flags$ = 8						; size = 4
??_GC_BSPList@@QAEPAXI@Z PROC				; C_BSPList::`scalar deleting destructor', COMDAT
; _this$ = ecx
	push	ebp
	mov	ebp, esp
	push	ecx
	mov	DWORD PTR _this$[ebp], ecx
	mov	ecx, DWORD PTR _this$[ebp]
	call	??1C_BSPList@@QAE@XZ			; C_BSPList::~C_BSPList
	mov	eax, DWORD PTR ___flags$[ebp]
	and	eax, 1
	je	SHORT $LN1@scalar
	mov	ecx, DWORD PTR _this$[ebp]
	push	ecx
	call	??3@YAXPAX@Z				; operator delete
	add	esp, 4
$LN1@scalar:
	mov	eax, DWORD PTR _this$[ebp]
	mov	esp, ebp
	pop	ebp
	ret	4
??_GC_BSPList@@QAEPAXI@Z ENDP				; C_BSPList::`scalar deleting destructor'
_TEXT	ENDS
; Function compile flags: /Odtp
; File c:\users\zhitao li\documents\visual studio 2012\projects\freefalcon\ui\include\cbsplist.h
;	COMDAT ?Find@C_BSPList@@QAEPAUUI_BSPList@@J@Z
_TEXT	SEGMENT
_this$ = -4						; size = 4
_ID$ = 8						; size = 4
?Find@C_BSPList@@QAEPAUUI_BSPList@@J@Z PROC		; C_BSPList::Find, COMDAT
; _this$ = ecx

; 78   : 		BSPLIST *Find(long ID)	{ return(Find(ID,Root_)); }

	push	ebp
	mov	ebp, esp
	push	ecx
	mov	DWORD PTR _this$[ebp], ecx
	mov	eax, DWORD PTR _this$[ebp]
	mov	ecx, DWORD PTR [eax]
	push	ecx
	mov	edx, DWORD PTR _ID$[ebp]
	push	edx
	mov	ecx, DWORD PTR _this$[ebp]
	call	?Find@C_BSPList@@QAEPAUUI_BSPList@@JPAU2@@Z ; C_BSPList::Find
	mov	esp, ebp
	pop	ebp
	ret	4
?Find@C_BSPList@@QAEPAUUI_BSPList@@J@Z ENDP		; C_BSPList::Find
_TEXT	ENDS
; Function compile flags: /Odtp
; File c:\users\zhitao li\documents\visual studio 2012\projects\freefalcon\ui\include\cbsplist.h
;	COMDAT ?RemoveAll@C_BSPList@@QAEXXZ
_TEXT	SEGMENT
_this$ = -4						; size = 4
?RemoveAll@C_BSPList@@QAEXXZ PROC			; C_BSPList::RemoveAll, COMDAT
; _this$ = ecx

; 61   : 		{

	push	ebp
	mov	ebp, esp
	push	ecx
	mov	DWORD PTR _this$[ebp], ecx

; 62   : 			RemoveList(&Root_);

	mov	eax, DWORD PTR _this$[ebp]
	push	eax
	mov	ecx, DWORD PTR _this$[ebp]
	call	?RemoveList@C_BSPList@@QAEXPAPAUUI_BSPList@@@Z ; C_BSPList::RemoveList

; 63   : 			RemoveLockList();

	mov	ecx, DWORD PTR _this$[ebp]
	call	?RemoveLockList@C_BSPList@@QAEXXZ	; C_BSPList::RemoveLockList

; 64   : 		}

	mov	esp, ebp
	pop	ebp
	ret	0
?RemoveAll@C_BSPList@@QAEXXZ ENDP			; C_BSPList::RemoveAll
_TEXT	ENDS
; Function compile flags: /Odtp
; File c:\users\zhitao li\documents\visual studio 2012\projects\freefalcon\ui\include\cbsplist.h
;	COMDAT ??1C_BSPList@@QAE@XZ
_TEXT	SEGMENT
_this$ = -4						; size = 4
??1C_BSPList@@QAE@XZ PROC				; C_BSPList::~C_BSPList, COMDAT
; _this$ = ecx

; 54   : 		~C_BSPList() {}

	push	ebp
	mov	ebp, esp
	push	ecx
	mov	DWORD PTR _this$[ebp], ecx
	mov	esp, ebp
	pop	ebp
	ret	0
??1C_BSPList@@QAE@XZ ENDP				; C_BSPList::~C_BSPList
_TEXT	ENDS
; Function compile flags: /Odtp
; File c:\users\zhitao li\documents\visual studio 2012\projects\freefalcon\ui\include\cbsplist.h
;	COMDAT ??0C_BSPList@@QAE@XZ
_TEXT	SEGMENT
_this$ = -4						; size = 4
??0C_BSPList@@QAE@XZ PROC				; C_BSPList::C_BSPList, COMDAT
; _this$ = ecx

; 49   : 		C_BSPList()

	push	ebp
	mov	ebp, esp
	push	ecx
	mov	DWORD PTR _this$[ebp], ecx

; 50   : 		{
; 51   : 			Root_=NULL;

	mov	eax, DWORD PTR _this$[ebp]
	mov	DWORD PTR [eax], 0

; 52   : 			LockCount_=0;

	mov	ecx, DWORD PTR _this$[ebp]
	mov	DWORD PTR [ecx+4100], 0

; 53   : 		}

	mov	eax, DWORD PTR _this$[ebp]
	mov	esp, ebp
	pop	ebp
	ret	0
??0C_BSPList@@QAE@XZ ENDP				; C_BSPList::C_BSPList
_TEXT	ENDS
; Function compile flags: /Odtp
; File c:\users\zhitao li\documents\visual studio 2012\projects\freefalcon\ui95_ext\cfeature.h
;	COMDAT ?GetFeatureID@C_Feature@@QAEJXZ
_TEXT	SEGMENT
_this$ = -4						; size = 4
?GetFeatureID@C_Feature@@QAEJXZ PROC			; C_Feature::GetFeatureID, COMDAT
; _this$ = ecx

; 89   : 		long GetFeatureID() { return(featureID_); }

	push	ebp
	mov	ebp, esp
	push	ecx
	mov	DWORD PTR _this$[ebp], ecx
	mov	eax, DWORD PTR _this$[ebp]
	mov	eax, DWORD PTR [eax+108]
	mov	esp, ebp
	pop	ebp
	ret	0
?GetFeatureID@C_Feature@@QAEJXZ ENDP			; C_Feature::GetFeatureID
_TEXT	ENDS
; Function compile flags: /Odtp
; File c:\users\zhitao li\documents\visual studio 2012\projects\freefalcon\ui95_ext\cfeature.h
;	COMDAT ?GetVUID@C_Feature@@QAE?AVVU_ID@@XZ
_TEXT	SEGMENT
_this$ = -4						; size = 4
___$ReturnUdt$ = 8					; size = 4
?GetVUID@C_Feature@@QAE?AVVU_ID@@XZ PROC		; C_Feature::GetVUID, COMDAT
; _this$ = ecx

; 87   : 		VU_ID GetVUID() { return(vuID); }

	push	ebp
	mov	ebp, esp
	push	ecx
	mov	DWORD PTR _this$[ebp], ecx
	mov	eax, DWORD PTR _this$[ebp]
	mov	ecx, DWORD PTR [eax+136]
	mov	edx, DWORD PTR [eax+140]
	mov	eax, DWORD PTR ___$ReturnUdt$[ebp]
	mov	DWORD PTR [eax], ecx
	mov	DWORD PTR [eax+4], edx
	mov	eax, DWORD PTR ___$ReturnUdt$[ebp]
	mov	esp, ebp
	pop	ebp
	ret	4
?GetVUID@C_Feature@@QAE?AVVU_ID@@XZ ENDP		; C_Feature::GetVUID
_TEXT	ENDS
; Function compile flags: /Odtp
; File c:\users\zhitao li\documents\visual studio 2012\projects\freefalcon\ui95_ext\cfeature.h
;	COMDAT ?GetFeatureValue@C_Feature@@QAEEXZ
_TEXT	SEGMENT
_this$ = -4						; size = 4
?GetFeatureValue@C_Feature@@QAEEXZ PROC			; C_Feature::GetFeatureValue, COMDAT
; _this$ = ecx

; 69   : 		uchar GetFeatureValue()							{ return(FeatureValue_); }

	push	ebp
	mov	ebp, esp
	push	ecx
	mov	DWORD PTR _this$[ebp], ecx
	mov	eax, DWORD PTR _this$[ebp]
	mov	al, BYTE PTR [eax+107]
	mov	esp, ebp
	pop	ebp
	ret	0
?GetFeatureValue@C_Feature@@QAEEXZ ENDP			; C_Feature::GetFeatureValue
_TEXT	ENDS
; Function compile flags: /Odtp
; File c:\users\zhitao li\documents\visual studio 2012\projects\freefalcon\ui95_ext\centity.h
;	COMDAT ?GetName@C_Entity@@QAEPADXZ
_TEXT	SEGMENT
_this$ = -4						; size = 4
?GetName@C_Entity@@QAEPADXZ PROC			; C_Entity::GetName, COMDAT
; _this$ = ecx

; 69   : 		_TCHAR *GetName()								{ if(Name_) return(Name_->GetText()); return(NULL); }

	push	ebp
	mov	ebp, esp
	push	ecx
	mov	DWORD PTR _this$[ebp], ecx
	mov	eax, DWORD PTR _this$[ebp]
	cmp	DWORD PTR [eax+164], 0
	je	SHORT $LN1@GetName
	mov	ecx, DWORD PTR _this$[ebp]
	mov	ecx, DWORD PTR [ecx+164]
	call	?GetText@O_Output@@QAEPADXZ		; O_Output::GetText
	jmp	SHORT $LN2@GetName
$LN1@GetName:
	xor	eax, eax
$LN2@GetName:
	mov	esp, ebp
	pop	ebp
	ret	0
?GetName@C_Entity@@QAEPADXZ ENDP			; C_Entity::GetName
_TEXT	ENDS
; Function compile flags: /Odtp
; File c:\users\zhitao li\documents\visual studio 2012\projects\freefalcon\ui95\chandler.h
;	COMDAT ?GetFront@C_Handler@@QAEPAVImageBuffer@@XZ
_TEXT	SEGMENT
_this$ = -4						; size = 4
?GetFront@C_Handler@@QAEPAVImageBuffer@@XZ PROC		; C_Handler::GetFront, COMDAT
; _this$ = ecx

; 242  : 		ImageBuffer *GetFront() { return(Front_); }

	push	ebp
	mov	ebp, esp
	push	ecx
	mov	DWORD PTR _this$[ebp], ecx
	mov	eax, DWORD PTR _this$[ebp]
	mov	eax, DWORD PTR [eax+16]
	mov	esp, ebp
	pop	ebp
	ret	0
?GetFront@C_Handler@@QAEPAVImageBuffer@@XZ ENDP		; C_Handler::GetFront
_TEXT	ENDS
; Function compile flags: /Odtp
; File c:\users\zhitao li\documents\visual studio 2012\projects\freefalcon\ui95\cwindow.h
;	COMDAT ?GetY@C_Window@@QAEFXZ
_TEXT	SEGMENT
_this$ = -4						; size = 4
?GetY@C_Window@@QAEFXZ PROC				; C_Window::GetY, COMDAT
; _this$ = ecx

; 311  : 		short GetY() { return(y_); }

	push	ebp
	mov	ebp, esp
	push	ecx
	mov	DWORD PTR _this$[ebp], ecx
	mov	eax, DWORD PTR _this$[ebp]
	mov	ax, WORD PTR [eax+430]
	mov	esp, ebp
	pop	ebp
	ret	0
?GetY@C_Window@@QAEFXZ ENDP				; C_Window::GetY
_TEXT	ENDS
; Function compile flags: /Odtp
; File c:\users\zhitao li\documents\visual studio 2012\projects\freefalcon\ui95\cwindow.h
;	COMDAT ?GetX@C_Window@@QAEFXZ
_TEXT	SEGMENT
_this$ = -4						; size = 4
?GetX@C_Window@@QAEFXZ PROC				; C_Window::GetX, COMDAT
; _this$ = ecx

; 310  : 		short GetX() { return(x_); }

	push	ebp
	mov	ebp, esp
	push	ecx
	mov	DWORD PTR _this$[ebp], ecx
	mov	eax, DWORD PTR _this$[ebp]
	mov	ax, WORD PTR [eax+428]
	mov	esp, ebp
	pop	ebp
	ret	0
?GetX@C_Window@@QAEFXZ ENDP				; C_Window::GetX
_TEXT	ENDS
; Function compile flags: /Odtp
; File c:\users\zhitao li\documents\visual studio 2012\projects\freefalcon\ui95\ctree.h
;	COMDAT ?GetRoot@C_TreeList@@QAEPAVTREELIST@@XZ
_TEXT	SEGMENT
_this$ = -4						; size = 4
?GetRoot@C_TreeList@@QAEPAVTREELIST@@XZ PROC		; C_TreeList::GetRoot, COMDAT
; _this$ = ecx

; 118  : 		TREELIST *GetRoot() { return(Root_); }

	push	ebp
	mov	ebp, esp
	push	ecx
	mov	DWORD PTR _this$[ebp], ecx
	mov	eax, DWORD PTR _this$[ebp]
	mov	eax, DWORD PTR [eax+136]
	mov	esp, ebp
	pop	ebp
	ret	0
?GetRoot@C_TreeList@@QAEPAVTREELIST@@XZ ENDP		; C_TreeList::GetRoot
_TEXT	ENDS
; Function compile flags: /Odtp
; File c:\users\zhitao li\documents\visual studio 2012\projects\freefalcon\ui95\cbase.h
;	COMDAT ?GetClient@C_Base@@QAEFXZ
_TEXT	SEGMENT
_this$ = -4						; size = 4
?GetClient@C_Base@@QAEFXZ PROC				; C_Base::GetClient, COMDAT
; _this$ = ecx

; 140  : 		short GetClient()			{ return(Client_); }

	push	ebp
	mov	ebp, esp
	push	ecx
	mov	DWORD PTR _this$[ebp], ecx
	mov	eax, DWORD PTR _this$[ebp]
	mov	ax, WORD PTR [eax+40]
	mov	esp, ebp
	pop	ebp
	ret	0
?GetClient@C_Base@@QAEFXZ ENDP				; C_Base::GetClient
_TEXT	ENDS
; Function compile flags: /Odtp
; File c:\users\zhitao li\documents\visual studio 2012\projects\freefalcon\ui95\cbase.h
;	COMDAT ?GetID@C_Base@@QAEJXZ
_TEXT	SEGMENT
_this$ = -4						; size = 4
?GetID@C_Base@@QAEJXZ PROC				; C_Base::GetID, COMDAT
; _this$ = ecx

; 134  : 		long  GetID()				{ return(ID_); }

	push	ebp
	mov	ebp, esp
	push	ecx
	mov	DWORD PTR _this$[ebp], ecx
	mov	eax, DWORD PTR _this$[ebp]
	mov	eax, DWORD PTR [eax+4]
	mov	esp, ebp
	pop	ebp
	ret	0
?GetID@C_Base@@QAEJXZ ENDP				; C_Base::GetID
_TEXT	ENDS
; Function compile flags: /Odtp
; File c:\users\zhitao li\documents\visual studio 2012\projects\freefalcon\ui95\ooutput.h
;	COMDAT ?GetText@O_Output@@QAEPADXZ
_TEXT	SEGMENT
_this$ = -4						; size = 4
?GetText@O_Output@@QAEPADXZ PROC			; O_Output::GetText, COMDAT
; _this$ = ecx

; 151  : 		_TCHAR *GetText()				{ return(Label_); }

	push	ebp
	mov	ebp, esp
	push	ecx
	mov	DWORD PTR _this$[ebp], ecx
	mov	eax, DWORD PTR _this$[ebp]
	mov	eax, DWORD PTR [eax+128]
	mov	esp, ebp
	pop	ebp
	ret	0
?GetText@O_Output@@QAEPADXZ ENDP			; O_Output::GetText
_TEXT	ENDS
; Function compile flags: /Odtp
; File c:\program files (x86)\microsoft visual studio 11.0\vc\include\tchar.h
;	COMDAT __tcscmp
_TEXT	SEGMENT
__s1$ = 8						; size = 4
__s2$ = 12						; size = 4
__tcscmp PROC						; COMDAT

; 1651 : _Check_return_ __inline int _tcscmp(_In_ _CPC _s1,_In_ _CPC _s2) {return _mbscmp((_CPUC)_s1,(_CPUC)_s2);}

	push	ebp
	mov	ebp, esp
	mov	eax, DWORD PTR __s2$[ebp]
	push	eax
	mov	ecx, DWORD PTR __s1$[ebp]
	push	ecx
	call	__mbscmp
	add	esp, 8
	pop	ebp
	ret	0
__tcscmp ENDP
_TEXT	ENDS
; Function compile flags: /Odtp
; File c:\users\zhitao li\documents\visual studio 2012\projects\freefalcon\vu2\include\vuentity.h
;	COMDAT ?YPos@VuEntity@@QBEMXZ
_TEXT	SEGMENT
_this$ = -4						; size = 4
?YPos@VuEntity@@QBEMXZ PROC				; VuEntity::YPos, COMDAT
; _this$ = ecx

; 159  : 	BIG_SCALAR YPos()	const { return pos_.y_; }

	push	ebp
	mov	ebp, esp
	push	ecx
	mov	DWORD PTR _this$[ebp], ecx
	mov	eax, DWORD PTR _this$[ebp]
	fld	DWORD PTR [eax+40]
	mov	esp, ebp
	pop	ebp
	ret	0
?YPos@VuEntity@@QBEMXZ ENDP				; VuEntity::YPos
_TEXT	ENDS
; Function compile flags: /Odtp
; File c:\users\zhitao li\documents\visual studio 2012\projects\freefalcon\vu2\include\vuentity.h
;	COMDAT ?XPos@VuEntity@@QBEMXZ
_TEXT	SEGMENT
_this$ = -4						; size = 4
?XPos@VuEntity@@QBEMXZ PROC				; VuEntity::XPos, COMDAT
; _this$ = ecx

; 158  : 	BIG_SCALAR XPos() const { return pos_.x_; }

	push	ebp
	mov	ebp, esp
	push	ecx
	mov	DWORD PTR _this$[ebp], ecx
	mov	eax, DWORD PTR _this$[ebp]
	fld	DWORD PTR [eax+36]
	mov	esp, ebp
	pop	ebp
	ret	0
?XPos@VuEntity@@QBEMXZ ENDP				; VuEntity::XPos
_TEXT	ENDS
; Function compile flags: /Odtp
; File c:\users\zhitao li\documents\visual studio 2012\projects\freefalcon\graphics\include\drawbsp.h
;	COMDAT ?Unlock@DrawableBSP@@SAXH@Z
_TEXT	SEGMENT
_id$ = 8						; size = 4
?Unlock@DrawableBSP@@SAXH@Z PROC			; DrawableBSP::Unlock, COMDAT

; 76   : 	static void	Unlock( int id )			{ TheObjectList[id].Release();  };

	push	ebp
	mov	ebp, esp
	push	0
	mov	ecx, DWORD PTR _id$[ebp]
	shl	ecx, 6
	add	ecx, DWORD PTR ?TheObjectList@@3PAVObjectParent@@A ; TheObjectList
	call	?Release@ObjectParent@@QAEX_N@Z		; ObjectParent::Release
	pop	ebp
	ret	0
?Unlock@DrawableBSP@@SAXH@Z ENDP			; DrawableBSP::Unlock
_TEXT	ENDS
; Function compile flags: /Odtp
; File c:\users\zhitao li\documents\visual studio 2012\projects\freefalcon\graphics\include\drawbsp.h
;	COMDAT ?LockAndLoad@DrawableBSP@@SAXH@Z
_TEXT	SEGMENT
_id$ = 8						; size = 4
?LockAndLoad@DrawableBSP@@SAXH@Z PROC			; DrawableBSP::LockAndLoad, COMDAT

; 75   : 	static void	LockAndLoad( int id )		{ TheObjectList[id].ReferenceWithFetch(); };

	push	ebp
	mov	ebp, esp
	mov	ecx, DWORD PTR _id$[ebp]
	shl	ecx, 6
	add	ecx, DWORD PTR ?TheObjectList@@3PAVObjectParent@@A ; TheObjectList
	call	?ReferenceWithFetch@ObjectParent@@QAEXXZ ; ObjectParent::ReferenceWithFetch
	pop	ebp
	ret	0
?LockAndLoad@DrawableBSP@@SAXH@Z ENDP			; DrawableBSP::LockAndLoad
_TEXT	ENDS
; Function compile flags: /Odtp
; File c:\users\zhitao li\documents\visual studio 2012\projects\freefalcon\graphics\include\drawobj.h
;	COMDAT ?GetPosition@DrawableObject@@QAEXPAUTpoint@@@Z
_TEXT	SEGMENT
_this$ = -4						; size = 4
_pos$ = 8						; size = 4
?GetPosition@DrawableObject@@QAEXPAUTpoint@@@Z PROC	; DrawableObject::GetPosition, COMDAT
; _this$ = ecx

; 28   : 	void GetPosition(Tpoint* pos){ *pos = position; }

	push	ebp
	mov	ebp, esp
	push	ecx
	mov	DWORD PTR _this$[ebp], ecx
	mov	eax, DWORD PTR _this$[ebp]
	add	eax, 4
	mov	ecx, DWORD PTR _pos$[ebp]
	mov	edx, DWORD PTR [eax]
	mov	DWORD PTR [ecx], edx
	mov	edx, DWORD PTR [eax+4]
	mov	DWORD PTR [ecx+4], edx
	mov	eax, DWORD PTR [eax+8]
	mov	DWORD PTR [ecx+8], eax
	mov	esp, ebp
	pop	ebp
	ret	4
?GetPosition@DrawableObject@@QAEXPAUTpoint@@@Z ENDP	; DrawableObject::GetPosition
_TEXT	ENDS
; Function compile flags: /Odtp
;	COMDAT ??_GRender3D@@UAEPAXI@Z
_TEXT	SEGMENT
_this$ = -4						; size = 4
___flags$ = 8						; size = 4
??_GRender3D@@UAEPAXI@Z PROC				; Render3D::`scalar deleting destructor', COMDAT
; _this$ = ecx
	push	ebp
	mov	ebp, esp
	push	ecx
	mov	DWORD PTR _this$[ebp], ecx
	mov	ecx, DWORD PTR _this$[ebp]
	call	??1Render3D@@UAE@XZ			; Render3D::~Render3D
	mov	eax, DWORD PTR ___flags$[ebp]
	and	eax, 1
	je	SHORT $LN1@scalar
	mov	ecx, DWORD PTR _this$[ebp]
	push	ecx
	call	??3@YAXPAX@Z				; operator delete
	add	esp, 4
$LN1@scalar:
	mov	eax, DWORD PTR _this$[ebp]
	mov	esp, ebp
	pop	ebp
	ret	4
??_GRender3D@@UAEPAXI@Z ENDP				; Render3D::`scalar deleting destructor'
_TEXT	ENDS
; Function compile flags: /Odtp
; File c:\users\zhitao li\documents\visual studio 2012\projects\freefalcon\graphics\include\render3d.h
;	COMDAT ?Cleanup@Render3D@@UAEXXZ
_TEXT	SEGMENT
_this$ = -4						; size = 4
?Cleanup@Render3D@@UAEXXZ PROC				; Render3D::Cleanup, COMDAT
; _this$ = ecx

; 49   : 	virtual void Cleanup( void )	{ Render2D::Cleanup(); };

	push	ebp
	mov	ebp, esp
	push	ecx
	mov	DWORD PTR _this$[ebp], ecx
	mov	ecx, DWORD PTR _this$[ebp]
	call	?Cleanup@Render2D@@UAEXXZ		; Render2D::Cleanup
	mov	esp, ebp
	pop	ebp
	ret	0
?Cleanup@Render3D@@UAEXXZ ENDP				; Render3D::Cleanup
_TEXT	ENDS
; Function compile flags: /Odtp
; File c:\users\zhitao li\documents\visual studio 2012\projects\freefalcon\graphics\include\render3d.h
;	COMDAT ??1Render3D@@UAE@XZ
_TEXT	SEGMENT
_this$ = -4						; size = 4
??1Render3D@@UAE@XZ PROC				; Render3D::~Render3D, COMDAT
; _this$ = ecx

; 43   : 	virtual ~Render3D()	{};

	push	ebp
	mov	ebp, esp
	push	ecx
	mov	DWORD PTR _this$[ebp], ecx
	mov	eax, DWORD PTR _this$[ebp]
	mov	DWORD PTR [eax], OFFSET ??_7Render3D@@6B@
	mov	ecx, DWORD PTR _this$[ebp]
	call	??1Render2D@@UAE@XZ			; Render2D::~Render2D
	mov	esp, ebp
	pop	ebp
	ret	0
??1Render3D@@UAE@XZ ENDP				; Render3D::~Render3D
_TEXT	ENDS
; Function compile flags: /Odtp
; File c:\users\zhitao li\documents\visual studio 2012\projects\freefalcon\graphics\include\render3d.h
;	COMDAT ??0Render3D@@QAE@XZ
_TEXT	SEGMENT
_this$ = -4						; size = 4
??0Render3D@@QAE@XZ PROC				; Render3D::Render3D, COMDAT
; _this$ = ecx

; 42   : 	Render3D()	{};

	push	ebp
	mov	ebp, esp
	push	ecx
	mov	DWORD PTR _this$[ebp], ecx
	mov	ecx, DWORD PTR _this$[ebp]
	call	??0Render2D@@QAE@XZ			; Render2D::Render2D
	mov	eax, DWORD PTR _this$[ebp]
	mov	DWORD PTR [eax], OFFSET ??_7Render3D@@6B@
	mov	eax, DWORD PTR _this$[ebp]
	mov	esp, ebp
	pop	ebp
	ret	0
??0Render3D@@QAE@XZ ENDP				; Render3D::Render3D
_TEXT	ENDS
; Function compile flags: /Odtp
;	COMDAT ??_GRender2D@@UAEPAXI@Z
_TEXT	SEGMENT
_this$ = -4						; size = 4
___flags$ = 8						; size = 4
??_GRender2D@@UAEPAXI@Z PROC				; Render2D::`scalar deleting destructor', COMDAT
; _this$ = ecx
	push	ebp
	mov	ebp, esp
	push	ecx
	mov	DWORD PTR _this$[ebp], ecx
	mov	ecx, DWORD PTR _this$[ebp]
	call	??1Render2D@@UAE@XZ			; Render2D::~Render2D
	mov	eax, DWORD PTR ___flags$[ebp]
	and	eax, 1
	je	SHORT $LN1@scalar
	mov	ecx, DWORD PTR _this$[ebp]
	push	ecx
	call	??3@YAXPAX@Z				; operator delete
	add	esp, 4
$LN1@scalar:
	mov	eax, DWORD PTR _this$[ebp]
	mov	esp, ebp
	pop	ebp
	ret	4
??_GRender2D@@UAEPAXI@Z ENDP				; Render2D::`scalar deleting destructor'
_TEXT	ENDS
; Function compile flags: /Odtp
; File c:\users\zhitao li\documents\visual studio 2012\projects\freefalcon\graphics\include\render2d.h
;	COMDAT ?SetLineStyle@Render2D@@UAEXH@Z
_TEXT	SEGMENT
_this$ = -4						; size = 4
___formal$ = 8						; size = 4
?SetLineStyle@Render2D@@UAEXH@Z PROC			; Render2D::SetLineStyle, COMDAT
; _this$ = ecx

; 60   : 	virtual void SetLineStyle (int) {};

	push	ebp
	mov	ebp, esp
	push	ecx
	mov	DWORD PTR _this$[ebp], ecx
	mov	esp, ebp
	pop	ebp
	ret	4
?SetLineStyle@Render2D@@UAEXH@Z ENDP			; Render2D::SetLineStyle
_TEXT	ENDS
; Function compile flags: /Odtp
; File c:\users\zhitao li\documents\visual studio 2012\projects\freefalcon\graphics\include\render2d.h
;	COMDAT ?SetBackground@Render2D@@UAEXK@Z
_TEXT	SEGMENT
_this$ = -4						; size = 4
_packedRGBA$ = 8					; size = 4
?SetBackground@Render2D@@UAEXK@Z PROC			; Render2D::SetBackground, COMDAT
; _this$ = ecx

; 50   : 	virtual void SetBackground(DWORD packedRGBA){ context.SetState(MPR_STA_BG_COLOR,packedRGBA); };

	push	ebp
	mov	ebp, esp
	push	ecx
	mov	DWORD PTR _this$[ebp], ecx
	mov	eax, DWORD PTR _packedRGBA$[ebp]
	push	eax
	push	10					; 0000000aH
	mov	ecx, DWORD PTR _this$[ebp]
	add	ecx, 100				; 00000064H
	call	?SetState@ContextMPR@@QAEXGK@Z		; ContextMPR::SetState
	mov	esp, ebp
	pop	ebp
	ret	4
?SetBackground@Render2D@@UAEXK@Z ENDP			; Render2D::SetBackground
_TEXT	ENDS
; Function compile flags: /Odtp
; File c:\users\zhitao li\documents\visual studio 2012\projects\freefalcon\graphics\include\render2d.h
;	COMDAT ?SetColor@Render2D@@UAEXK@Z
_TEXT	SEGMENT
_this$ = -4						; size = 4
_packedRGBA$ = 8					; size = 4
?SetColor@Render2D@@UAEXK@Z PROC			; Render2D::SetColor, COMDAT
; _this$ = ecx

; 49   : 	virtual void SetColor(DWORD packedRGBA)	{ context.RestoreState(STATE_SOLID); context.SelectForegroundColor(packedRGBA); };

	push	ebp
	mov	ebp, esp
	push	ecx
	mov	DWORD PTR _this$[ebp], ecx
	push	0
	mov	ecx, DWORD PTR _this$[ebp]
	add	ecx, 100				; 00000064H
	call	?RestoreState@ContextMPR@@QAEXH@Z	; ContextMPR::RestoreState
	mov	eax, DWORD PTR _packedRGBA$[ebp]
	push	eax
	mov	ecx, DWORD PTR _this$[ebp]
	add	ecx, 100				; 00000064H
	call	?SelectForegroundColor@ContextMPR@@QAEXH@Z ; ContextMPR::SelectForegroundColor
	mov	esp, ebp
	pop	ebp
	ret	4
?SetColor@Render2D@@UAEXK@Z ENDP			; Render2D::SetColor
_TEXT	ENDS
; Function compile flags: /Odtp
; File c:\users\zhitao li\documents\visual studio 2012\projects\freefalcon\graphics\include\render2d.h
;	COMDAT ?Color@Render2D@@UAEKXZ
_TEXT	SEGMENT
_this$ = -4						; size = 4
?Color@Render2D@@UAEKXZ PROC				; Render2D::Color, COMDAT
; _this$ = ecx

; 48   : 	virtual DWORD Color(void) { return context.CurrentForegroundColor(); };

	push	ebp
	mov	ebp, esp
	push	ecx
	mov	DWORD PTR _this$[ebp], ecx
	mov	ecx, DWORD PTR _this$[ebp]
	add	ecx, 100				; 00000064H
	call	?CurrentForegroundColor@ContextMPR@@QAEHXZ ; ContextMPR::CurrentForegroundColor
	mov	esp, ebp
	pop	ebp
	ret	0
?Color@Render2D@@UAEKXZ ENDP				; Render2D::Color
_TEXT	ENDS
; Function compile flags: /Odtp
; File c:\users\zhitao li\documents\visual studio 2012\projects\freefalcon\graphics\include\render2d.h
;	COMDAT ?ClearZBuffer@Render2D@@UAEXXZ
_TEXT	SEGMENT
_this$ = -4						; size = 4
?ClearZBuffer@Render2D@@UAEXXZ PROC			; Render2D::ClearZBuffer, COMDAT
; _this$ = ecx

; 42   : 	virtual void ClearZBuffer( void )	{ context.ClearBuffers( MPR_CI_ZBUFFER ); };

	push	ebp
	mov	ebp, esp
	push	ecx
	mov	DWORD PTR _this$[ebp], ecx
	push	4
	mov	ecx, DWORD PTR _this$[ebp]
	add	ecx, 100				; 00000064H
	call	?ClearBuffers@ContextMPR@@QAEXG@Z	; ContextMPR::ClearBuffers
	mov	esp, ebp
	pop	ebp
	ret	0
?ClearZBuffer@Render2D@@UAEXXZ ENDP			; Render2D::ClearZBuffer
_TEXT	ENDS
; Function compile flags: /Odtp
; File c:\users\zhitao li\documents\visual studio 2012\projects\freefalcon\graphics\include\render2d.h
;	COMDAT ?ClearDraw@Render2D@@UAEXXZ
_TEXT	SEGMENT
_this$ = -4						; size = 4
?ClearDraw@Render2D@@UAEXXZ PROC			; Render2D::ClearDraw, COMDAT
; _this$ = ecx

; 41   : 	virtual void ClearDraw( void )		{ context.ClearBuffers( MPR_CI_DRAW_BUFFER ); };

	push	ebp
	mov	ebp, esp
	push	ecx
	mov	DWORD PTR _this$[ebp], ecx
	push	1
	mov	ecx, DWORD PTR _this$[ebp]
	add	ecx, 100				; 00000064H
	call	?ClearBuffers@ContextMPR@@QAEXG@Z	; ContextMPR::ClearBuffers
	mov	esp, ebp
	pop	ebp
	ret	0
?ClearDraw@Render2D@@UAEXXZ ENDP			; Render2D::ClearDraw
_TEXT	ENDS
; Function compile flags: /Odtp
; File c:\users\zhitao li\documents\visual studio 2012\projects\freefalcon\graphics\include\render2d.h
;	COMDAT ??1Render2D@@UAE@XZ
_TEXT	SEGMENT
_this$ = -4						; size = 4
??1Render2D@@UAE@XZ PROC				; Render2D::~Render2D, COMDAT
; _this$ = ecx

; 32   : 	virtual ~Render2D()	{};

	push	ebp
	mov	ebp, esp
	push	ecx
	mov	DWORD PTR _this$[ebp], ecx
	mov	eax, DWORD PTR _this$[ebp]
	mov	DWORD PTR [eax], OFFSET ??_7Render2D@@6B@
	mov	ecx, DWORD PTR _this$[ebp]
	call	??1VirtualDisplay@@UAE@XZ		; VirtualDisplay::~VirtualDisplay
	mov	esp, ebp
	pop	ebp
	ret	0
??1Render2D@@UAE@XZ ENDP				; Render2D::~Render2D
_TEXT	ENDS
; Function compile flags: /Odtp
; File c:\users\zhitao li\documents\visual studio 2012\projects\freefalcon\graphics\include\render2d.h
;	COMDAT ??0Render2D@@QAE@XZ
_TEXT	SEGMENT
_this$ = -4						; size = 4
??0Render2D@@QAE@XZ PROC				; Render2D::Render2D, COMDAT
; _this$ = ecx

; 31   : 	Render2D()			{};

	push	ebp
	mov	ebp, esp
	push	ecx
	mov	DWORD PTR _this$[ebp], ecx
	mov	ecx, DWORD PTR _this$[ebp]
	call	??0VirtualDisplay@@QAE@XZ		; VirtualDisplay::VirtualDisplay
	mov	eax, DWORD PTR _this$[ebp]
	mov	DWORD PTR [eax], OFFSET ??_7Render2D@@6B@
	mov	eax, DWORD PTR _this$[ebp]
	mov	esp, ebp
	pop	ebp
	ret	0
??0Render2D@@QAE@XZ ENDP				; Render2D::Render2D
_TEXT	ENDS
; Function compile flags: /Odtp
;	COMDAT ??_GVirtualDisplay@@UAEPAXI@Z
_TEXT	SEGMENT
_this$ = -4						; size = 4
___flags$ = 8						; size = 4
??_GVirtualDisplay@@UAEPAXI@Z PROC			; VirtualDisplay::`scalar deleting destructor', COMDAT
; _this$ = ecx
	push	ebp
	mov	ebp, esp
	push	ecx
	mov	DWORD PTR _this$[ebp], ecx
	mov	ecx, DWORD PTR _this$[ebp]
	call	??1VirtualDisplay@@UAE@XZ		; VirtualDisplay::~VirtualDisplay
	mov	eax, DWORD PTR ___flags$[ebp]
	and	eax, 1
	je	SHORT $LN1@scalar
	mov	ecx, DWORD PTR _this$[ebp]
	push	ecx
	call	??3@YAXPAX@Z				; operator delete
	add	esp, 4
$LN1@scalar:
	mov	eax, DWORD PTR _this$[ebp]
	mov	esp, ebp
	pop	ebp
	ret	4
??_GVirtualDisplay@@UAEPAXI@Z ENDP			; VirtualDisplay::`scalar deleting destructor'
_TEXT	ENDS
; Function compile flags: /Odtp
; File c:\users\zhitao li\documents\visual studio 2012\projects\freefalcon\graphics\include\display.h
;	COMDAT ?Color@VirtualDisplay@@UAEKXZ
_TEXT	SEGMENT
_this$ = -4						; size = 4
?Color@VirtualDisplay@@UAEKXZ PROC			; VirtualDisplay::Color, COMDAT
; _this$ = ecx

; 136  : 	virtual DWORD Color( void )	{return 0x0; };

	push	ebp
	mov	ebp, esp
	push	ecx
	mov	DWORD PTR _this$[ebp], ecx
	xor	eax, eax
	mov	esp, ebp
	pop	ebp
	ret	0
?Color@VirtualDisplay@@UAEKXZ ENDP			; VirtualDisplay::Color
_TEXT	ENDS
; Function compile flags: /Odtp
; File c:\users\zhitao li\documents\visual studio 2012\projects\freefalcon\graphics\include\display.h
;	COMDAT ?SetLineStyle@VirtualDisplay@@UAEXH@Z
_TEXT	SEGMENT
_this$ = -4						; size = 4
___formal$ = 8						; size = 4
?SetLineStyle@VirtualDisplay@@UAEXH@Z PROC		; VirtualDisplay::SetLineStyle, COMDAT
; _this$ = ecx

; 135  : 	virtual void SetLineStyle (int) {};

	push	ebp
	mov	ebp, esp
	push	ecx
	mov	DWORD PTR _this$[ebp], ecx
	mov	esp, ebp
	pop	ebp
	ret	4
?SetLineStyle@VirtualDisplay@@UAEXH@Z ENDP		; VirtualDisplay::SetLineStyle
_TEXT	ENDS
; Function compile flags: /Odtp
; File c:\users\zhitao li\documents\visual studio 2012\projects\freefalcon\graphics\include\display.h
;	COMDAT ?TextHeight@VirtualDisplay@@UAEMXZ
_TEXT	SEGMENT
tv71 = -8						; size = 4
_this$ = -4						; size = 4
?TextHeight@VirtualDisplay@@UAEMXZ PROC			; VirtualDisplay::TextHeight, COMDAT
; _this$ = ecx

; 121  : 	virtual float TextHeight(void)			{ return ScreenTextHeight()/scaleY; };		// normalized screen space

	push	ebp
	mov	ebp, esp
	sub	esp, 8
	mov	DWORD PTR _this$[ebp], ecx
	call	?ScreenTextHeight@VirtualDisplay@@SAHXZ	; VirtualDisplay::ScreenTextHeight
	cvtsi2ss xmm0, eax
	mov	eax, DWORD PTR _this$[ebp]
	divss	xmm0, DWORD PTR [eax+36]
	movss	DWORD PTR tv71[ebp], xmm0
	fld	DWORD PTR tv71[ebp]
	mov	esp, ebp
	pop	ebp
	ret	0
?TextHeight@VirtualDisplay@@UAEMXZ ENDP			; VirtualDisplay::TextHeight
_TEXT	ENDS
; Function compile flags: /Odtp
; File c:\users\zhitao li\documents\visual studio 2012\projects\freefalcon\graphics\include\display.h
;	COMDAT ?TextWidth@VirtualDisplay@@UAEMPAD@Z
_TEXT	SEGMENT
tv73 = -8						; size = 4
_this$ = -4						; size = 4
_string$ = 8						; size = 4
?TextWidth@VirtualDisplay@@UAEMPAD@Z PROC		; VirtualDisplay::TextWidth, COMDAT
; _this$ = ecx

; 120  : 	virtual float TextWidth(char *string)	{ return ScreenTextWidth(string)/scaleX; };	// normalized screen space

	push	ebp
	mov	ebp, esp
	sub	esp, 8
	mov	DWORD PTR _this$[ebp], ecx
	mov	eax, DWORD PTR _string$[ebp]
	push	eax
	call	?ScreenTextWidth@VirtualDisplay@@SAHPBD@Z ; VirtualDisplay::ScreenTextWidth
	add	esp, 4
	cvtsi2ss xmm0, eax
	mov	ecx, DWORD PTR _this$[ebp]
	divss	xmm0, DWORD PTR [ecx+32]
	movss	DWORD PTR tv73[ebp], xmm0
	fld	DWORD PTR tv73[ebp]
	mov	esp, ebp
	pop	ebp
	ret	4
?TextWidth@VirtualDisplay@@UAEMPAD@Z ENDP		; VirtualDisplay::TextWidth
_TEXT	ENDS
; Function compile flags: /Odtp
; File c:\users\zhitao li\documents\visual studio 2012\projects\freefalcon\graphics\include\display.h
;	COMDAT ?Arc@VirtualDisplay@@UAEXMMMMM@Z
_TEXT	SEGMENT
_this$ = -4						; size = 4
_x$ = 8							; size = 4
_y$ = 12						; size = 4
_xRadius$ = 16						; size = 4
_start$ = 20						; size = 4
_stop$ = 24						; size = 4
?Arc@VirtualDisplay@@UAEXMMMMM@Z PROC			; VirtualDisplay::Arc, COMDAT
; _this$ = ecx

; 109  : 		{ OvalArc(x, y, xRadius, xRadius*scaleX/scaleY, start, stop); };

	push	ebp
	mov	ebp, esp
	push	ecx
	mov	DWORD PTR _this$[ebp], ecx
	push	ecx
	movss	xmm0, DWORD PTR _stop$[ebp]
	movss	DWORD PTR [esp], xmm0
	push	ecx
	movss	xmm0, DWORD PTR _start$[ebp]
	movss	DWORD PTR [esp], xmm0
	mov	eax, DWORD PTR _this$[ebp]
	movss	xmm0, DWORD PTR _xRadius$[ebp]
	mulss	xmm0, DWORD PTR [eax+32]
	mov	ecx, DWORD PTR _this$[ebp]
	divss	xmm0, DWORD PTR [ecx+36]
	push	ecx
	movss	DWORD PTR [esp], xmm0
	push	ecx
	movss	xmm0, DWORD PTR _xRadius$[ebp]
	movss	DWORD PTR [esp], xmm0
	push	ecx
	movss	xmm0, DWORD PTR _y$[ebp]
	movss	DWORD PTR [esp], xmm0
	push	ecx
	movss	xmm0, DWORD PTR _x$[ebp]
	movss	DWORD PTR [esp], xmm0
	mov	edx, DWORD PTR _this$[ebp]
	mov	eax, DWORD PTR [edx]
	mov	ecx, DWORD PTR _this$[ebp]
	mov	edx, DWORD PTR [eax+44]
	call	edx
	mov	esp, ebp
	pop	ebp
	ret	20					; 00000014H
?Arc@VirtualDisplay@@UAEXMMMMM@Z ENDP			; VirtualDisplay::Arc
_TEXT	ENDS
; Function compile flags: /Odtp
; File c:\users\zhitao li\documents\visual studio 2012\projects\freefalcon\graphics\include\display.h
;	COMDAT ?Circle@VirtualDisplay@@UAEXMMM@Z
_TEXT	SEGMENT
_this$ = -4						; size = 4
_x$ = 8							; size = 4
_y$ = 12						; size = 4
_xRadius$ = 16						; size = 4
?Circle@VirtualDisplay@@UAEXMMM@Z PROC			; VirtualDisplay::Circle, COMDAT
; _this$ = ecx

; 107  : 		{ Oval(x, y, xRadius, xRadius*scaleX/scaleY); };

	push	ebp
	mov	ebp, esp
	push	ecx
	mov	DWORD PTR _this$[ebp], ecx
	mov	eax, DWORD PTR _this$[ebp]
	movss	xmm0, DWORD PTR _xRadius$[ebp]
	mulss	xmm0, DWORD PTR [eax+32]
	mov	ecx, DWORD PTR _this$[ebp]
	divss	xmm0, DWORD PTR [ecx+36]
	push	ecx
	movss	DWORD PTR [esp], xmm0
	push	ecx
	movss	xmm0, DWORD PTR _xRadius$[ebp]
	movss	DWORD PTR [esp], xmm0
	push	ecx
	movss	xmm0, DWORD PTR _y$[ebp]
	movss	DWORD PTR [esp], xmm0
	push	ecx
	movss	xmm0, DWORD PTR _x$[ebp]
	movss	DWORD PTR [esp], xmm0
	mov	edx, DWORD PTR _this$[ebp]
	mov	eax, DWORD PTR [edx]
	mov	ecx, DWORD PTR _this$[ebp]
	mov	edx, DWORD PTR [eax+40]
	call	edx
	mov	esp, ebp
	pop	ebp
	ret	12					; 0000000cH
?Circle@VirtualDisplay@@UAEXMMM@Z ENDP			; VirtualDisplay::Circle
_TEXT	ENDS
; Function compile flags: /Odtp
; File c:\users\zhitao li\documents\visual studio 2012\projects\freefalcon\graphics\include\display.h
;	COMDAT ??1VirtualDisplay@@UAE@XZ
_TEXT	SEGMENT
_this$ = -4						; size = 4
??1VirtualDisplay@@UAE@XZ PROC				; VirtualDisplay::~VirtualDisplay, COMDAT
; _this$ = ecx

; 86   :     virtual ~VirtualDisplay()	{ ShiAssert( ready == FALSE ); }

	push	ebp
	mov	ebp, esp
	push	ecx
	mov	DWORD PTR _this$[ebp], ecx
	mov	eax, DWORD PTR _this$[ebp]
	mov	DWORD PTR [eax], OFFSET ??_7VirtualDisplay@@6B@
	mov	ecx, DWORD PTR _this$[ebp]
	add	ecx, 100				; 00000064H
	call	??1ContextMPR@@UAE@XZ			; ContextMPR::~ContextMPR
	mov	esp, ebp
	pop	ebp
	ret	0
??1VirtualDisplay@@UAE@XZ ENDP				; VirtualDisplay::~VirtualDisplay
_TEXT	ENDS
; Function compile flags: /Odtp
; File c:\users\zhitao li\documents\visual studio 2012\projects\freefalcon\graphics\include\display.h
;	COMDAT ??0VirtualDisplay@@QAE@XZ
_TEXT	SEGMENT
_this$ = -4						; size = 4
??0VirtualDisplay@@QAE@XZ PROC				; VirtualDisplay::VirtualDisplay, COMDAT
; _this$ = ecx

; 85   :     VirtualDisplay()			{ ready = FALSE; tLeft = tTop = tRight = tBottom = txRes = tyRes = 0; }

	push	ebp
	mov	ebp, esp
	push	ecx
	mov	DWORD PTR _this$[ebp], ecx
	mov	eax, DWORD PTR _this$[ebp]
	mov	DWORD PTR [eax], OFFSET ??_7VirtualDisplay@@6B@
	mov	ecx, DWORD PTR _this$[ebp]
	add	ecx, 100				; 00000064H
	call	??0ContextMPR@@QAE@XZ			; ContextMPR::ContextMPR
	mov	ecx, DWORD PTR _this$[ebp]
	mov	DWORD PTR [ecx+92], 0
	mov	edx, DWORD PTR _this$[ebp]
	mov	DWORD PTR [edx+262776], 0
	mov	eax, DWORD PTR _this$[ebp]
	mov	DWORD PTR [eax+262772], 0
	mov	ecx, DWORD PTR _this$[ebp]
	mov	DWORD PTR [ecx+262768], 0
	mov	edx, DWORD PTR _this$[ebp]
	mov	DWORD PTR [edx+262764], 0
	mov	eax, DWORD PTR _this$[ebp]
	mov	DWORD PTR [eax+262760], 0
	mov	ecx, DWORD PTR _this$[ebp]
	mov	DWORD PTR [ecx+262756], 0
	mov	eax, DWORD PTR _this$[ebp]
	mov	esp, ebp
	pop	ebp
	ret	0
??0VirtualDisplay@@QAE@XZ ENDP				; VirtualDisplay::VirtualDisplay
_TEXT	ENDS
; Function compile flags: /Odtp
; File c:\users\zhitao li\documents\visual studio 2012\projects\freefalcon\graphics\include\imagebuf.h
;	COMDAT ?targetYres@ImageBuffer@@QAEHXZ
_TEXT	SEGMENT
_this$ = -4						; size = 4
?targetYres@ImageBuffer@@QAEHXZ PROC			; ImageBuffer::targetYres, COMDAT
; _this$ = ecx

; 46   : 	int	targetYres()	{ return height; };

	push	ebp
	mov	ebp, esp
	push	ecx
	mov	DWORD PTR _this$[ebp], ecx
	mov	eax, DWORD PTR _this$[ebp]
	mov	eax, DWORD PTR [eax+296]
	mov	esp, ebp
	pop	ebp
	ret	0
?targetYres@ImageBuffer@@QAEHXZ ENDP			; ImageBuffer::targetYres
_TEXT	ENDS
; Function compile flags: /Odtp
; File c:\users\zhitao li\documents\visual studio 2012\projects\freefalcon\graphics\include\imagebuf.h
;	COMDAT ?targetXres@ImageBuffer@@QAEHXZ
_TEXT	SEGMENT
_this$ = -4						; size = 4
?targetXres@ImageBuffer@@QAEHXZ PROC			; ImageBuffer::targetXres, COMDAT
; _this$ = ecx

; 45   : 	int targetXres()	{ return width; };

	push	ebp
	mov	ebp, esp
	push	ecx
	mov	DWORD PTR _this$[ebp], ecx
	mov	eax, DWORD PTR _this$[ebp]
	mov	eax, DWORD PTR [eax+292]
	mov	esp, ebp
	pop	ebp
	ret	0
?targetXres@ImageBuffer@@QAEHXZ ENDP			; ImageBuffer::targetXres
_TEXT	ENDS
; Function compile flags: /Odtp
; File c:\users\zhitao li\documents\visual studio 2012\projects\freefalcon\graphics\include\context.h
;	COMDAT ?CurrentForegroundColor@ContextMPR@@QAEHXZ
_TEXT	SEGMENT
_this$ = -4						; size = 4
?CurrentForegroundColor@ContextMPR@@QAEHXZ PROC		; ContextMPR::CurrentForegroundColor, COMDAT
; _this$ = ecx

; 708  : 	int CurrentForegroundColor(void) {return m_colFG_Raw;};

	push	ebp
	mov	ebp, esp
	push	ecx
	mov	DWORD PTR _this$[ebp], ecx
	mov	eax, DWORD PTR _this$[ebp]
	mov	eax, DWORD PTR [eax+8]
	mov	esp, ebp
	pop	ebp
	ret	0
?CurrentForegroundColor@ContextMPR@@QAEHXZ ENDP		; ContextMPR::CurrentForegroundColor
_TEXT	ENDS
; Function compile flags: /Odtp
;	COMDAT ??_G_System_error_category@std@@UAEPAXI@Z
_TEXT	SEGMENT
_this$ = -4						; size = 4
___flags$ = 8						; size = 4
??_G_System_error_category@std@@UAEPAXI@Z PROC		; std::_System_error_category::`scalar deleting destructor', COMDAT
; _this$ = ecx
	push	ebp
	mov	ebp, esp
	push	ecx
	mov	DWORD PTR _this$[ebp], ecx
	mov	ecx, DWORD PTR _this$[ebp]
	call	??1_System_error_category@std@@UAE@XZ
	mov	eax, DWORD PTR ___flags$[ebp]
	and	eax, 1
	je	SHORT $LN1@scalar
	mov	ecx, DWORD PTR _this$[ebp]
	push	ecx
	call	??3@YAXPAX@Z				; operator delete
	add	esp, 4
$LN1@scalar:
	mov	eax, DWORD PTR _this$[ebp]
	mov	esp, ebp
	pop	ebp
	ret	4
??_G_System_error_category@std@@UAEPAXI@Z ENDP		; std::_System_error_category::`scalar deleting destructor'
_TEXT	ENDS
; Function compile flags: /Odtp
;	COMDAT ??1_System_error_category@std@@UAE@XZ
_TEXT	SEGMENT
_this$ = -4						; size = 4
??1_System_error_category@std@@UAE@XZ PROC		; std::_System_error_category::~_System_error_category, COMDAT
; _this$ = ecx
	push	ebp
	mov	ebp, esp
	push	ecx
	mov	DWORD PTR _this$[ebp], ecx
	mov	ecx, DWORD PTR _this$[ebp]
	call	??1_Generic_error_category@std@@UAE@XZ
	mov	esp, ebp
	pop	ebp
	ret	0
??1_System_error_category@std@@UAE@XZ ENDP		; std::_System_error_category::~_System_error_category
_TEXT	ENDS
; Function compile flags: /Odtp
; File c:\program files (x86)\microsoft visual studio 11.0\vc\include\system_error
;	COMDAT ?default_error_condition@_System_error_category@std@@UBE?AVerror_condition@2@H@Z
_TEXT	SEGMENT
_this$ = -4						; size = 4
___$ReturnUdt$ = 8					; size = 4
__Errval$ = 12						; size = 4
?default_error_condition@_System_error_category@std@@UBE?AVerror_condition@2@H@Z PROC ; std::_System_error_category::default_error_condition, COMDAT
; _this$ = ecx

; 641  : 		{	// make error_condition for error code (generic if possible)

	push	ebp
	mov	ebp, esp
	push	ecx
	mov	DWORD PTR _this$[ebp], ecx

; 642  : 		if (_Syserror_map(_Errval))

	mov	eax, DWORD PTR __Errval$[ebp]
	push	eax
	call	?_Syserror_map@std@@YAPBDH@Z		; std::_Syserror_map
	add	esp, 4
	test	eax, eax
	je	SHORT $LN2@default_er

; 643  : 			return (error_condition(_Errval, generic_category()));

	call	?generic_category@std@@YAABVerror_category@1@XZ ; std::generic_category
	push	eax
	mov	ecx, DWORD PTR __Errval$[ebp]
	push	ecx
	mov	ecx, DWORD PTR ___$ReturnUdt$[ebp]
	call	??0error_condition@std@@QAE@HABVerror_category@1@@Z ; std::error_condition::error_condition
	mov	eax, DWORD PTR ___$ReturnUdt$[ebp]
	jmp	SHORT $LN3@default_er

; 644  : 		else

	jmp	SHORT $LN3@default_er
$LN2@default_er:

; 645  : 			return (error_condition(_Errval, system_category()));

	call	?system_category@std@@YAABVerror_category@1@XZ ; std::system_category
	push	eax
	mov	edx, DWORD PTR __Errval$[ebp]
	push	edx
	mov	ecx, DWORD PTR ___$ReturnUdt$[ebp]
	call	??0error_condition@std@@QAE@HABVerror_category@1@@Z ; std::error_condition::error_condition
	mov	eax, DWORD PTR ___$ReturnUdt$[ebp]
$LN3@default_er:

; 646  : 		}

	mov	esp, ebp
	pop	ebp
	ret	8
?default_error_condition@_System_error_category@std@@UBE?AVerror_condition@2@H@Z ENDP ; std::_System_error_category::default_error_condition
_TEXT	ENDS
; Function compile flags: /Odtp
; File c:\program files (x86)\microsoft visual studio 11.0\vc\include\system_error
;	COMDAT ?message@_System_error_category@std@@UBE?AV?$basic_string@DU?$char_traits@D@std@@V?$allocator@D@2@@2@H@Z
_TEXT	SEGMENT
_this$ = -16						; size = 4
$T1 = -12						; size = 4
tv69 = -8						; size = 4
__Name$ = -4						; size = 4
___$ReturnUdt$ = 8					; size = 4
__Errcode$ = 12						; size = 4
?message@_System_error_category@std@@UBE?AV?$basic_string@DU?$char_traits@D@std@@V?$allocator@D@2@@2@H@Z PROC ; std::_System_error_category::message, COMDAT
; _this$ = ecx

; 634  : 		{	// convert to name of error

	push	ebp
	mov	ebp, esp
	sub	esp, 16					; 00000010H
	mov	DWORD PTR _this$[ebp], ecx
	mov	DWORD PTR $T1[ebp], 0

; 635  : 		const char *_Name = _Winerror_map(_Errcode);

	mov	eax, DWORD PTR __Errcode$[ebp]
	push	eax
	call	?_Winerror_map@std@@YAPBDH@Z		; std::_Winerror_map
	add	esp, 4
	mov	DWORD PTR __Name$[ebp], eax

; 636  : 		return (string(_Name != 0 ? _Name : "unknown error"));

	cmp	DWORD PTR __Name$[ebp], 0
	je	SHORT $LN3@message
	mov	ecx, DWORD PTR __Name$[ebp]
	mov	DWORD PTR tv69[ebp], ecx
	jmp	SHORT $LN4@message
$LN3@message:
	mov	DWORD PTR tv69[ebp], OFFSET ??_C@_0O@BFJCFAAK@unknown?5error?$AA@
$LN4@message:
	mov	edx, DWORD PTR tv69[ebp]
	push	edx
	mov	ecx, DWORD PTR ___$ReturnUdt$[ebp]
	call	??0?$basic_string@DU?$char_traits@D@std@@V?$allocator@D@2@@std@@QAE@PBD@Z ; std::basic_string<char,std::char_traits<char>,std::allocator<char> >::basic_string<char,std::char_traits<char>,std::allocator<char> >
	mov	eax, DWORD PTR $T1[ebp]
	or	eax, 1
	mov	DWORD PTR $T1[ebp], eax
	mov	eax, DWORD PTR ___$ReturnUdt$[ebp]

; 637  : 		}

	mov	esp, ebp
	pop	ebp
	ret	8
?message@_System_error_category@std@@UBE?AV?$basic_string@DU?$char_traits@D@std@@V?$allocator@D@2@@2@H@Z ENDP ; std::_System_error_category::message
_TEXT	ENDS
; Function compile flags: /Odtp
; File c:\program files (x86)\microsoft visual studio 11.0\vc\include\system_error
;	COMDAT ?name@_System_error_category@std@@UBEPBDXZ
_TEXT	SEGMENT
_this$ = -4						; size = 4
?name@_System_error_category@std@@UBEPBDXZ PROC		; std::_System_error_category::name, COMDAT
; _this$ = ecx

; 629  : 		{	// get name of category

	push	ebp
	mov	ebp, esp
	push	ecx
	mov	DWORD PTR _this$[ebp], ecx

; 630  : 		return ("system");

	mov	eax, OFFSET ??_C@_06FHFOAHML@system?$AA@

; 631  : 		}

	mov	esp, ebp
	pop	ebp
	ret	0
?name@_System_error_category@std@@UBEPBDXZ ENDP		; std::_System_error_category::name
_TEXT	ENDS
; Function compile flags: /Odtp
; File c:\program files (x86)\microsoft visual studio 11.0\vc\include\system_error
;	COMDAT ??0_System_error_category@std@@QAE@XZ
_TEXT	SEGMENT
_this$ = -4						; size = 4
??0_System_error_category@std@@QAE@XZ PROC		; std::_System_error_category::_System_error_category, COMDAT
; _this$ = ecx

; 624  : 	_System_error_category()

	push	ebp
	mov	ebp, esp
	push	ecx
	mov	DWORD PTR _this$[ebp], ecx
	mov	ecx, DWORD PTR _this$[ebp]
	call	??0_Generic_error_category@std@@QAE@XZ	; std::_Generic_error_category::_Generic_error_category
	mov	eax, DWORD PTR _this$[ebp]
	mov	DWORD PTR [eax], OFFSET ??_7_System_error_category@std@@6B@

; 625  : 		{	// default constructor
; 626  : 		}

	mov	eax, DWORD PTR _this$[ebp]
	mov	esp, ebp
	pop	ebp
	ret	0
??0_System_error_category@std@@QAE@XZ ENDP		; std::_System_error_category::_System_error_category
_TEXT	ENDS
; Function compile flags: /Odtp
;	COMDAT ??_G_Iostream_error_category@std@@UAEPAXI@Z
_TEXT	SEGMENT
_this$ = -4						; size = 4
___flags$ = 8						; size = 4
??_G_Iostream_error_category@std@@UAEPAXI@Z PROC	; std::_Iostream_error_category::`scalar deleting destructor', COMDAT
; _this$ = ecx
	push	ebp
	mov	ebp, esp
	push	ecx
	mov	DWORD PTR _this$[ebp], ecx
	mov	ecx, DWORD PTR _this$[ebp]
	call	??1_Iostream_error_category@std@@UAE@XZ
	mov	eax, DWORD PTR ___flags$[ebp]
	and	eax, 1
	je	SHORT $LN1@scalar
	mov	ecx, DWORD PTR _this$[ebp]
	push	ecx
	call	??3@YAXPAX@Z				; operator delete
	add	esp, 4
$LN1@scalar:
	mov	eax, DWORD PTR _this$[ebp]
	mov	esp, ebp
	pop	ebp
	ret	4
??_G_Iostream_error_category@std@@UAEPAXI@Z ENDP	; std::_Iostream_error_category::`scalar deleting destructor'
_TEXT	ENDS
; Function compile flags: /Odtp
;	COMDAT ??1_Iostream_error_category@std@@UAE@XZ
_TEXT	SEGMENT
_this$ = -4						; size = 4
??1_Iostream_error_category@std@@UAE@XZ PROC		; std::_Iostream_error_category::~_Iostream_error_category, COMDAT
; _this$ = ecx
	push	ebp
	mov	ebp, esp
	push	ecx
	mov	DWORD PTR _this$[ebp], ecx
	mov	ecx, DWORD PTR _this$[ebp]
	call	??1_Generic_error_category@std@@UAE@XZ
	mov	esp, ebp
	pop	ebp
	ret	0
??1_Iostream_error_category@std@@UAE@XZ ENDP		; std::_Iostream_error_category::~_Iostream_error_category
_TEXT	ENDS
; Function compile flags: /Odtp
; File c:\program files (x86)\microsoft visual studio 11.0\vc\include\system_error
;	COMDAT ?message@_Iostream_error_category@std@@UBE?AV?$basic_string@DU?$char_traits@D@std@@V?$allocator@D@2@@2@H@Z
_TEXT	SEGMENT
_this$ = -8						; size = 4
$T1 = -4						; size = 4
___$ReturnUdt$ = 8					; size = 4
__Errcode$ = 12						; size = 4
?message@_Iostream_error_category@std@@UBE?AV?$basic_string@DU?$char_traits@D@std@@V?$allocator@D@2@@2@H@Z PROC ; std::_Iostream_error_category::message, COMDAT
; _this$ = ecx

; 611  : 		{	// convert to name of error

	push	ebp
	mov	ebp, esp
	sub	esp, 8
	mov	DWORD PTR _this$[ebp], ecx
	mov	DWORD PTR $T1[ebp], 0

; 612  : 		if (_Errcode == (int)io_errc::stream)

	cmp	DWORD PTR __Errcode$[ebp], 1
	jne	SHORT $LN2@message

; 613  : 			return ("iostream stream error");

	push	OFFSET ??_C@_0BG@PADBLCHM@iostream?5stream?5error?$AA@
	mov	ecx, DWORD PTR ___$ReturnUdt$[ebp]
	call	??0?$basic_string@DU?$char_traits@D@std@@V?$allocator@D@2@@std@@QAE@PBD@Z ; std::basic_string<char,std::char_traits<char>,std::allocator<char> >::basic_string<char,std::char_traits<char>,std::allocator<char> >
	mov	eax, DWORD PTR $T1[ebp]
	or	eax, 1
	mov	DWORD PTR $T1[ebp], eax
	mov	eax, DWORD PTR ___$ReturnUdt$[ebp]
	jmp	SHORT $LN3@message

; 614  : 		else

	jmp	SHORT $LN3@message
$LN2@message:

; 615  : 			return (_Generic_error_category::message(_Errcode));

	mov	ecx, DWORD PTR __Errcode$[ebp]
	push	ecx
	mov	edx, DWORD PTR ___$ReturnUdt$[ebp]
	push	edx
	mov	ecx, DWORD PTR _this$[ebp]
	call	?message@_Generic_error_category@std@@UBE?AV?$basic_string@DU?$char_traits@D@std@@V?$allocator@D@2@@2@H@Z ; std::_Generic_error_category::message
	mov	eax, DWORD PTR $T1[ebp]
	or	eax, 1
	mov	DWORD PTR $T1[ebp], eax
	mov	eax, DWORD PTR ___$ReturnUdt$[ebp]
$LN3@message:

; 616  : 		}

	mov	esp, ebp
	pop	ebp
	ret	8
?message@_Iostream_error_category@std@@UBE?AV?$basic_string@DU?$char_traits@D@std@@V?$allocator@D@2@@2@H@Z ENDP ; std::_Iostream_error_category::message
_TEXT	ENDS
; Function compile flags: /Odtp
; File c:\program files (x86)\microsoft visual studio 11.0\vc\include\system_error
;	COMDAT ?name@_Iostream_error_category@std@@UBEPBDXZ
_TEXT	SEGMENT
_this$ = -4						; size = 4
?name@_Iostream_error_category@std@@UBEPBDXZ PROC	; std::_Iostream_error_category::name, COMDAT
; _this$ = ecx

; 606  : 		{	// get name of category

	push	ebp
	mov	ebp, esp
	push	ecx
	mov	DWORD PTR _this$[ebp], ecx

; 607  : 		return ("iostream");

	mov	eax, OFFSET ??_C@_08LLGCOLLL@iostream?$AA@

; 608  : 		}

	mov	esp, ebp
	pop	ebp
	ret	0
?name@_Iostream_error_category@std@@UBEPBDXZ ENDP	; std::_Iostream_error_category::name
_TEXT	ENDS
; Function compile flags: /Odtp
; File c:\program files (x86)\microsoft visual studio 11.0\vc\include\system_error
;	COMDAT ??0_Iostream_error_category@std@@QAE@XZ
_TEXT	SEGMENT
_this$ = -4						; size = 4
??0_Iostream_error_category@std@@QAE@XZ PROC		; std::_Iostream_error_category::_Iostream_error_category, COMDAT
; _this$ = ecx

; 601  : 	_Iostream_error_category()

	push	ebp
	mov	ebp, esp
	push	ecx
	mov	DWORD PTR _this$[ebp], ecx
	mov	ecx, DWORD PTR _this$[ebp]
	call	??0_Generic_error_category@std@@QAE@XZ	; std::_Generic_error_category::_Generic_error_category
	mov	eax, DWORD PTR _this$[ebp]
	mov	DWORD PTR [eax], OFFSET ??_7_Iostream_error_category@std@@6B@

; 602  : 		{	// default constructor
; 603  : 		}

	mov	eax, DWORD PTR _this$[ebp]
	mov	esp, ebp
	pop	ebp
	ret	0
??0_Iostream_error_category@std@@QAE@XZ ENDP		; std::_Iostream_error_category::_Iostream_error_category
_TEXT	ENDS
; Function compile flags: /Odtp
;	COMDAT ??_G_Generic_error_category@std@@UAEPAXI@Z
_TEXT	SEGMENT
_this$ = -4						; size = 4
___flags$ = 8						; size = 4
??_G_Generic_error_category@std@@UAEPAXI@Z PROC		; std::_Generic_error_category::`scalar deleting destructor', COMDAT
; _this$ = ecx
	push	ebp
	mov	ebp, esp
	push	ecx
	mov	DWORD PTR _this$[ebp], ecx
	mov	ecx, DWORD PTR _this$[ebp]
	call	??1_Generic_error_category@std@@UAE@XZ
	mov	eax, DWORD PTR ___flags$[ebp]
	and	eax, 1
	je	SHORT $LN1@scalar
	mov	ecx, DWORD PTR _this$[ebp]
	push	ecx
	call	??3@YAXPAX@Z				; operator delete
	add	esp, 4
$LN1@scalar:
	mov	eax, DWORD PTR _this$[ebp]
	mov	esp, ebp
	pop	ebp
	ret	4
??_G_Generic_error_category@std@@UAEPAXI@Z ENDP		; std::_Generic_error_category::`scalar deleting destructor'
_TEXT	ENDS
; Function compile flags: /Odtp
;	COMDAT ??1_Generic_error_category@std@@UAE@XZ
_TEXT	SEGMENT
_this$ = -4						; size = 4
??1_Generic_error_category@std@@UAE@XZ PROC		; std::_Generic_error_category::~_Generic_error_category, COMDAT
; _this$ = ecx
	push	ebp
	mov	ebp, esp
	push	ecx
	mov	DWORD PTR _this$[ebp], ecx
	mov	ecx, DWORD PTR _this$[ebp]
	call	??1error_category@std@@UAE@XZ		; std::error_category::~error_category
	mov	esp, ebp
	pop	ebp
	ret	0
??1_Generic_error_category@std@@UAE@XZ ENDP		; std::_Generic_error_category::~_Generic_error_category
_TEXT	ENDS
; Function compile flags: /Odtp
; File c:\program files (x86)\microsoft visual studio 11.0\vc\include\system_error
;	COMDAT ?message@_Generic_error_category@std@@UBE?AV?$basic_string@DU?$char_traits@D@std@@V?$allocator@D@2@@2@H@Z
_TEXT	SEGMENT
_this$ = -16						; size = 4
$T1 = -12						; size = 4
tv69 = -8						; size = 4
__Name$ = -4						; size = 4
___$ReturnUdt$ = 8					; size = 4
__Errcode$ = 12						; size = 4
?message@_Generic_error_category@std@@UBE?AV?$basic_string@DU?$char_traits@D@std@@V?$allocator@D@2@@2@H@Z PROC ; std::_Generic_error_category::message, COMDAT
; _this$ = ecx

; 590  : 		{	// convert to name of error

	push	ebp
	mov	ebp, esp
	sub	esp, 16					; 00000010H
	mov	DWORD PTR _this$[ebp], ecx
	mov	DWORD PTR $T1[ebp], 0

; 591  : 		const char *_Name = _Syserror_map(_Errcode);

	mov	eax, DWORD PTR __Errcode$[ebp]
	push	eax
	call	?_Syserror_map@std@@YAPBDH@Z		; std::_Syserror_map
	add	esp, 4
	mov	DWORD PTR __Name$[ebp], eax

; 592  : 		return (string(_Name != 0 ? _Name : "unknown error"));

	cmp	DWORD PTR __Name$[ebp], 0
	je	SHORT $LN3@message
	mov	ecx, DWORD PTR __Name$[ebp]
	mov	DWORD PTR tv69[ebp], ecx
	jmp	SHORT $LN4@message
$LN3@message:
	mov	DWORD PTR tv69[ebp], OFFSET ??_C@_0O@BFJCFAAK@unknown?5error?$AA@
$LN4@message:
	mov	edx, DWORD PTR tv69[ebp]
	push	edx
	mov	ecx, DWORD PTR ___$ReturnUdt$[ebp]
	call	??0?$basic_string@DU?$char_traits@D@std@@V?$allocator@D@2@@std@@QAE@PBD@Z ; std::basic_string<char,std::char_traits<char>,std::allocator<char> >::basic_string<char,std::char_traits<char>,std::allocator<char> >
	mov	eax, DWORD PTR $T1[ebp]
	or	eax, 1
	mov	DWORD PTR $T1[ebp], eax
	mov	eax, DWORD PTR ___$ReturnUdt$[ebp]

; 593  : 		}

	mov	esp, ebp
	pop	ebp
	ret	8
?message@_Generic_error_category@std@@UBE?AV?$basic_string@DU?$char_traits@D@std@@V?$allocator@D@2@@2@H@Z ENDP ; std::_Generic_error_category::message
_TEXT	ENDS
; Function compile flags: /Odtp
; File c:\program files (x86)\microsoft visual studio 11.0\vc\include\system_error
;	COMDAT ?name@_Generic_error_category@std@@UBEPBDXZ
_TEXT	SEGMENT
_this$ = -4						; size = 4
?name@_Generic_error_category@std@@UBEPBDXZ PROC	; std::_Generic_error_category::name, COMDAT
; _this$ = ecx

; 585  : 		{	// get name of category

	push	ebp
	mov	ebp, esp
	push	ecx
	mov	DWORD PTR _this$[ebp], ecx

; 586  : 		return ("generic");

	mov	eax, OFFSET ??_C@_07DCLBNMLN@generic?$AA@

; 587  : 		}

	mov	esp, ebp
	pop	ebp
	ret	0
?name@_Generic_error_category@std@@UBEPBDXZ ENDP	; std::_Generic_error_category::name
_TEXT	ENDS
; Function compile flags: /Odtp
; File c:\program files (x86)\microsoft visual studio 11.0\vc\include\system_error
;	COMDAT ??0_Generic_error_category@std@@QAE@XZ
_TEXT	SEGMENT
_this$ = -4						; size = 4
??0_Generic_error_category@std@@QAE@XZ PROC		; std::_Generic_error_category::_Generic_error_category, COMDAT
; _this$ = ecx

; 580  : 	_Generic_error_category()

	push	ebp
	mov	ebp, esp
	push	ecx
	mov	DWORD PTR _this$[ebp], ecx
	mov	ecx, DWORD PTR _this$[ebp]
	call	??0error_category@std@@QAE@XZ		; std::error_category::error_category
	mov	eax, DWORD PTR _this$[ebp]
	mov	DWORD PTR [eax], OFFSET ??_7_Generic_error_category@std@@6B@

; 581  : 		{	// default constructor
; 582  : 		}

	mov	eax, DWORD PTR _this$[ebp]
	mov	esp, ebp
	pop	ebp
	ret	0
??0_Generic_error_category@std@@QAE@XZ ENDP		; std::_Generic_error_category::_Generic_error_category
_TEXT	ENDS
; Function compile flags: /Odtp
; File c:\program files (x86)\microsoft visual studio 11.0\vc\include\system_error
;	COMDAT ??8error_condition@std@@QBE_NABV01@@Z
_TEXT	SEGMENT
tv78 = -8						; size = 4
_this$ = -4						; size = 4
__Right$ = 8						; size = 4
??8error_condition@std@@QBE_NABV01@@Z PROC		; std::error_condition::operator==, COMDAT
; _this$ = ecx

; 376  : 		{	// test if *this == _Right

	push	ebp
	mov	ebp, esp
	sub	esp, 8
	push	esi
	mov	DWORD PTR _this$[ebp], ecx

; 377  : 		return (category() == _Right.category()
; 378  : 			&& value() == _Right.value());

	mov	ecx, DWORD PTR __Right$[ebp]
	call	?category@error_condition@std@@QBEABVerror_category@2@XZ ; std::error_condition::category
	push	eax
	mov	ecx, DWORD PTR _this$[ebp]
	call	?category@error_condition@std@@QBEABVerror_category@2@XZ ; std::error_condition::category
	mov	ecx, eax
	call	??8error_category@std@@QBE_NABV01@@Z	; std::error_category::operator==
	movzx	eax, al
	test	eax, eax
	je	SHORT $LN3@operator
	mov	ecx, DWORD PTR _this$[ebp]
	call	?value@error_condition@std@@QBEHXZ	; std::error_condition::value
	mov	esi, eax
	mov	ecx, DWORD PTR __Right$[ebp]
	call	?value@error_condition@std@@QBEHXZ	; std::error_condition::value
	cmp	esi, eax
	jne	SHORT $LN3@operator
	mov	DWORD PTR tv78[ebp], 1
	jmp	SHORT $LN4@operator
$LN3@operator:
	mov	DWORD PTR tv78[ebp], 0
$LN4@operator:
	mov	al, BYTE PTR tv78[ebp]

; 379  : 		}

	pop	esi
	mov	esp, ebp
	pop	ebp
	ret	4
??8error_condition@std@@QBE_NABV01@@Z ENDP		; std::error_condition::operator==
_TEXT	ENDS
; Function compile flags: /Odtp
; File c:\program files (x86)\microsoft visual studio 11.0\vc\include\system_error
;	COMDAT ?category@error_condition@std@@QBEABVerror_category@2@XZ
_TEXT	SEGMENT
_this$ = -4						; size = 4
?category@error_condition@std@@QBEABVerror_category@2@XZ PROC ; std::error_condition::category, COMDAT
; _this$ = ecx

; 354  : 		{	// get category

	push	ebp
	mov	ebp, esp
	push	ecx
	mov	DWORD PTR _this$[ebp], ecx

; 355  : 		return (*_Mycat);

	mov	eax, DWORD PTR _this$[ebp]
	mov	eax, DWORD PTR [eax+4]

; 356  : 		}

	mov	esp, ebp
	pop	ebp
	ret	0
?category@error_condition@std@@QBEABVerror_category@2@XZ ENDP ; std::error_condition::category
_TEXT	ENDS
; Function compile flags: /Odtp
; File c:\program files (x86)\microsoft visual studio 11.0\vc\include\system_error
;	COMDAT ?value@error_condition@std@@QBEHXZ
_TEXT	SEGMENT
_this$ = -4						; size = 4
?value@error_condition@std@@QBEHXZ PROC			; std::error_condition::value, COMDAT
; _this$ = ecx

; 349  : 		{	// get error code

	push	ebp
	mov	ebp, esp
	push	ecx
	mov	DWORD PTR _this$[ebp], ecx

; 350  : 		return (_Myval);

	mov	eax, DWORD PTR _this$[ebp]
	mov	eax, DWORD PTR [eax]

; 351  : 		}

	mov	esp, ebp
	pop	ebp
	ret	0
?value@error_condition@std@@QBEHXZ ENDP			; std::error_condition::value
_TEXT	ENDS
; Function compile flags: /Odtp
; File c:\program files (x86)\microsoft visual studio 11.0\vc\include\system_error
;	COMDAT ??0error_condition@std@@QAE@HABVerror_category@1@@Z
_TEXT	SEGMENT
_this$ = -4						; size = 4
__Val$ = 8						; size = 4
__Cat$ = 12						; size = 4
??0error_condition@std@@QAE@HABVerror_category@1@@Z PROC ; std::error_condition::error_condition, COMDAT
; _this$ = ecx

; 316  : 		{	// construct from error code and category

	push	ebp
	mov	ebp, esp
	push	ecx
	mov	DWORD PTR _this$[ebp], ecx
	mov	eax, DWORD PTR _this$[ebp]
	mov	ecx, DWORD PTR __Val$[ebp]
	mov	DWORD PTR [eax], ecx
	mov	edx, DWORD PTR _this$[ebp]
	mov	eax, DWORD PTR __Cat$[ebp]
	mov	DWORD PTR [edx+4], eax

; 317  : 		}

	mov	eax, DWORD PTR _this$[ebp]
	mov	esp, ebp
	pop	ebp
	ret	8
??0error_condition@std@@QAE@HABVerror_category@1@@Z ENDP ; std::error_condition::error_condition
_TEXT	ENDS
; Function compile flags: /Odtp
; File c:\program files (x86)\microsoft visual studio 11.0\vc\include\system_error
;	COMDAT ?category@error_code@std@@QBEABVerror_category@2@XZ
_TEXT	SEGMENT
_this$ = -4						; size = 4
?category@error_code@std@@QBEABVerror_category@2@XZ PROC ; std::error_code::category, COMDAT
; _this$ = ecx

; 256  : 		{	// get category

	push	ebp
	mov	ebp, esp
	push	ecx
	mov	DWORD PTR _this$[ebp], ecx

; 257  : 		return (*_Mycat);

	mov	eax, DWORD PTR _this$[ebp]
	mov	eax, DWORD PTR [eax+4]

; 258  : 		}

	mov	esp, ebp
	pop	ebp
	ret	0
?category@error_code@std@@QBEABVerror_category@2@XZ ENDP ; std::error_code::category
_TEXT	ENDS
; Function compile flags: /Odtp
; File c:\program files (x86)\microsoft visual studio 11.0\vc\include\system_error
;	COMDAT ?value@error_code@std@@QBEHXZ
_TEXT	SEGMENT
_this$ = -4						; size = 4
?value@error_code@std@@QBEHXZ PROC			; std::error_code::value, COMDAT
; _this$ = ecx

; 251  : 		{	// get error code

	push	ebp
	mov	ebp, esp
	push	ecx
	mov	DWORD PTR _this$[ebp], ecx

; 252  : 		return (_Myval);

	mov	eax, DWORD PTR _this$[ebp]
	mov	eax, DWORD PTR [eax]

; 253  : 		}

	mov	esp, ebp
	pop	ebp
	ret	0
?value@error_code@std@@QBEHXZ ENDP			; std::error_code::value
_TEXT	ENDS
; Function compile flags: /Odtp
;	COMDAT ??_Gerror_category@std@@UAEPAXI@Z
_TEXT	SEGMENT
_this$ = -4						; size = 4
___flags$ = 8						; size = 4
??_Gerror_category@std@@UAEPAXI@Z PROC			; std::error_category::`scalar deleting destructor', COMDAT
; _this$ = ecx
	push	ebp
	mov	ebp, esp
	push	ecx
	mov	DWORD PTR _this$[ebp], ecx
	mov	ecx, DWORD PTR _this$[ebp]
	call	??1error_category@std@@UAE@XZ		; std::error_category::~error_category
	mov	eax, DWORD PTR ___flags$[ebp]
	and	eax, 1
	je	SHORT $LN1@scalar
	mov	ecx, DWORD PTR _this$[ebp]
	push	ecx
	call	??3@YAXPAX@Z				; operator delete
	add	esp, 4
$LN1@scalar:
	mov	eax, DWORD PTR _this$[ebp]
	mov	esp, ebp
	pop	ebp
	ret	4
??_Gerror_category@std@@UAEPAXI@Z ENDP			; std::error_category::`scalar deleting destructor'
_TEXT	ENDS
; Function compile flags: /Odtp
; File c:\program files (x86)\microsoft visual studio 11.0\vc\include\system_error
;	COMDAT ??8error_category@std@@QBE_NABV01@@Z
_TEXT	SEGMENT
_this$ = -8						; size = 4
tv65 = -4						; size = 4
__Right$ = 8						; size = 4
??8error_category@std@@QBE_NABV01@@Z PROC		; std::error_category::operator==, COMDAT
; _this$ = ecx

; 184  : 		{	// compare categories for equality

	push	ebp
	mov	ebp, esp
	sub	esp, 8
	mov	DWORD PTR _this$[ebp], ecx

; 185  : 		return (this == &_Right);

	mov	eax, DWORD PTR _this$[ebp]
	cmp	eax, DWORD PTR __Right$[ebp]
	jne	SHORT $LN3@operator
	mov	DWORD PTR tv65[ebp], 1
	jmp	SHORT $LN4@operator
$LN3@operator:
	mov	DWORD PTR tv65[ebp], 0
$LN4@operator:
	mov	al, BYTE PTR tv65[ebp]

; 186  : 		}

	mov	esp, ebp
	pop	ebp
	ret	4
??8error_category@std@@QBE_NABV01@@Z ENDP		; std::error_category::operator==
_TEXT	ENDS
; Function compile flags: /Odtp
; File c:\program files (x86)\microsoft visual studio 11.0\vc\include\system_error
;	COMDAT ?equivalent@error_category@std@@UBE_NABVerror_code@2@H@Z
_TEXT	SEGMENT
_this$ = -8						; size = 4
tv74 = -4						; size = 4
__Code$ = 8						; size = 4
__Errval$ = 12						; size = 4
?equivalent@error_category@std@@UBE_NABVerror_code@2@H@Z PROC ; std::error_category::equivalent, COMDAT
; _this$ = ecx

; 415  : 	{	// test if conditions same for this category

	push	ebp
	mov	ebp, esp
	sub	esp, 8
	mov	DWORD PTR _this$[ebp], ecx

; 416  : 	return (*this == _Code.category() && _Code.value() == _Errval);

	mov	ecx, DWORD PTR __Code$[ebp]
	call	?category@error_code@std@@QBEABVerror_category@2@XZ ; std::error_code::category
	push	eax
	mov	ecx, DWORD PTR _this$[ebp]
	call	??8error_category@std@@QBE_NABV01@@Z	; std::error_category::operator==
	movzx	eax, al
	test	eax, eax
	je	SHORT $LN3@equivalent
	mov	ecx, DWORD PTR __Code$[ebp]
	call	?value@error_code@std@@QBEHXZ		; std::error_code::value
	cmp	eax, DWORD PTR __Errval$[ebp]
	jne	SHORT $LN3@equivalent
	mov	DWORD PTR tv74[ebp], 1
	jmp	SHORT $LN4@equivalent
$LN3@equivalent:
	mov	DWORD PTR tv74[ebp], 0
$LN4@equivalent:
	mov	al, BYTE PTR tv74[ebp]

; 417  : 	}

	mov	esp, ebp
	pop	ebp
	ret	8
?equivalent@error_category@std@@UBE_NABVerror_code@2@H@Z ENDP ; std::error_category::equivalent
_TEXT	ENDS
; Function compile flags: /Odtp
; File c:\program files (x86)\microsoft visual studio 11.0\vc\include\system_error
;	COMDAT ?equivalent@error_category@std@@UBE_NHABVerror_condition@2@@Z
_TEXT	SEGMENT
$T1 = -12						; size = 8
_this$ = -4						; size = 4
__Errval$ = 8						; size = 4
__Cond$ = 12						; size = 4
?equivalent@error_category@std@@UBE_NHABVerror_condition@2@@Z PROC ; std::error_category::equivalent, COMDAT
; _this$ = ecx

; 408  : 	{	// test if error code same condition

	push	ebp
	mov	ebp, esp
	sub	esp, 12					; 0000000cH
	mov	DWORD PTR _this$[ebp], ecx

; 409  : 	return (default_error_condition(_Errval) == _Cond);

	mov	eax, DWORD PTR __Cond$[ebp]
	push	eax
	mov	ecx, DWORD PTR __Errval$[ebp]
	push	ecx
	lea	edx, DWORD PTR $T1[ebp]
	push	edx
	mov	eax, DWORD PTR _this$[ebp]
	mov	edx, DWORD PTR [eax]
	mov	ecx, DWORD PTR _this$[ebp]
	mov	eax, DWORD PTR [edx+12]
	call	eax
	mov	ecx, eax
	call	??8error_condition@std@@QBE_NABV01@@Z	; std::error_condition::operator==

; 410  : 	}

	mov	esp, ebp
	pop	ebp
	ret	8
?equivalent@error_category@std@@UBE_NHABVerror_condition@2@@Z ENDP ; std::error_category::equivalent
_TEXT	ENDS
; Function compile flags: /Odtp
; File c:\program files (x86)\microsoft visual studio 11.0\vc\include\system_error
;	COMDAT ?default_error_condition@error_category@std@@UBE?AVerror_condition@2@H@Z
_TEXT	SEGMENT
_this$ = -4						; size = 4
___$ReturnUdt$ = 8					; size = 4
__Errval$ = 12						; size = 4
?default_error_condition@error_category@std@@UBE?AVerror_condition@2@H@Z PROC ; std::error_category::default_error_condition, COMDAT
; _this$ = ecx

; 401  : 	{	// make error_condition for error code

	push	ebp
	mov	ebp, esp
	push	ecx
	mov	DWORD PTR _this$[ebp], ecx

; 402  : 	return (error_condition(_Errval, *this));

	mov	eax, DWORD PTR _this$[ebp]
	push	eax
	mov	ecx, DWORD PTR __Errval$[ebp]
	push	ecx
	mov	ecx, DWORD PTR ___$ReturnUdt$[ebp]
	call	??0error_condition@std@@QAE@HABVerror_category@1@@Z ; std::error_condition::error_condition
	mov	eax, DWORD PTR ___$ReturnUdt$[ebp]

; 403  : 	}

	mov	esp, ebp
	pop	ebp
	ret	8
?default_error_condition@error_category@std@@UBE?AVerror_condition@2@H@Z ENDP ; std::error_category::default_error_condition
_TEXT	ENDS
; Function compile flags: /Odtp
; File c:\program files (x86)\microsoft visual studio 11.0\vc\include\system_error
;	COMDAT ??1error_category@std@@UAE@XZ
_TEXT	SEGMENT
_this$ = -4						; size = 4
??1error_category@std@@UAE@XZ PROC			; std::error_category::~error_category, COMDAT
; _this$ = ecx

; 167  : 		{	// destroy the object

	push	ebp
	mov	ebp, esp
	push	ecx
	mov	DWORD PTR _this$[ebp], ecx
	mov	eax, DWORD PTR _this$[ebp]
	mov	DWORD PTR [eax], OFFSET ??_7error_category@std@@6B@

; 168  : 		}

	mov	esp, ebp
	pop	ebp
	ret	0
??1error_category@std@@UAE@XZ ENDP			; std::error_category::~error_category
_TEXT	ENDS
; Function compile flags: /Odtp
; File c:\program files (x86)\microsoft visual studio 11.0\vc\include\system_error
;	COMDAT ??0error_category@std@@QAE@XZ
_TEXT	SEGMENT
_this$ = -4						; size = 4
??0error_category@std@@QAE@XZ PROC			; std::error_category::error_category, COMDAT
; _this$ = ecx

; 162  : 	error_category()

	push	ebp
	mov	ebp, esp
	push	ecx
	mov	DWORD PTR _this$[ebp], ecx
	mov	eax, DWORD PTR _this$[ebp]
	mov	DWORD PTR [eax], OFFSET ??_7error_category@std@@6B@

; 163  : 		{	// default constructor
; 164  : 		}

	mov	eax, DWORD PTR _this$[ebp]
	mov	esp, ebp
	pop	ebp
	ret	0
??0error_category@std@@QAE@XZ ENDP			; std::error_category::error_category
_TEXT	ENDS
; Function compile flags: /Odtp
; File c:\program files (x86)\microsoft visual studio 11.0\vc\include\system_error
;	COMDAT ?system_category@std@@YAABVerror_category@1@XZ
_TEXT	SEGMENT
?system_category@std@@YAABVerror_category@1@XZ PROC	; std::system_category, COMDAT

; 679  : 	{	// get system_category

	push	ebp
	mov	ebp, esp

; 680  : 	return (_Error_objects<int>::_System_object);

	mov	eax, OFFSET ?_System_object@?$_Error_objects@H@std@@2V_System_error_category@2@A ; std::_Error_objects<int>::_System_object

; 681  : 	}

	pop	ebp
	ret	0
?system_category@std@@YAABVerror_category@1@XZ ENDP	; std::system_category
_TEXT	ENDS
; Function compile flags: /Odtp
; File c:\program files (x86)\microsoft visual studio 11.0\vc\include\system_error
;	COMDAT ?generic_category@std@@YAABVerror_category@1@XZ
_TEXT	SEGMENT
?generic_category@std@@YAABVerror_category@1@XZ PROC	; std::generic_category, COMDAT

; 669  : 	{	// get generic_category

	push	ebp
	mov	ebp, esp

; 670  : 	return (_Error_objects<int>::_Generic_object);

	mov	eax, OFFSET ?_Generic_object@?$_Error_objects@H@std@@2V_Generic_error_category@2@A ; std::_Error_objects<int>::_Generic_object

; 671  : 	}

	pop	ebp
	ret	0
?generic_category@std@@YAABVerror_category@1@XZ ENDP	; std::generic_category
_TEXT	ENDS
; Function compile flags: /Odtp
; File c:\program files (x86)\microsoft visual studio 11.0\vc\include\xlocale
;	COMDAT ??0id@locale@std@@QAE@I@Z
_TEXT	SEGMENT
_this$ = -4						; size = 4
__Val$ = 8						; size = 4
??0id@locale@std@@QAE@I@Z PROC				; std::locale::id::id, COMDAT
; _this$ = ecx

; 74   : 			{	// construct with specified stamp value

	push	ebp
	mov	ebp, esp
	push	ecx
	mov	DWORD PTR _this$[ebp], ecx
	mov	eax, DWORD PTR _this$[ebp]
	mov	ecx, DWORD PTR __Val$[ebp]
	mov	DWORD PTR [eax], ecx

; 75   : 			}

	mov	eax, DWORD PTR _this$[ebp]
	mov	esp, ebp
	pop	ebp
	ret	4
??0id@locale@std@@QAE@I@Z ENDP				; std::locale::id::id
_TEXT	ENDS
; Function compile flags: /Odtp
; File c:\program files (x86)\microsoft visual studio 11.0\vc\include\xstring
;	COMDAT ?_Xran@?$basic_string@DU?$char_traits@D@std@@V?$allocator@D@2@@std@@QBEXXZ
_TEXT	SEGMENT
_this$ = -4						; size = 4
?_Xran@?$basic_string@DU?$char_traits@D@std@@V?$allocator@D@2@@std@@QBEXXZ PROC ; std::basic_string<char,std::char_traits<char>,std::allocator<char> >::_Xran, COMDAT
; _this$ = ecx

; 2275 : 		{	// report an out_of_range error

	push	ebp
	mov	ebp, esp
	push	ecx
	mov	DWORD PTR _this$[ebp], ecx

; 2276 : 		_Xout_of_range("invalid string position");

	push	OFFSET ??_C@_0BI@CFPLBAOH@invalid?5string?5position?$AA@
	call	?_Xout_of_range@std@@YAXPBD@Z		; std::_Xout_of_range
$LN2@Xran:

; 2277 : 		}

	mov	esp, ebp
	pop	ebp
	ret	0
?_Xran@?$basic_string@DU?$char_traits@D@std@@V?$allocator@D@2@@std@@QBEXXZ ENDP ; std::basic_string<char,std::char_traits<char>,std::allocator<char> >::_Xran
_TEXT	ENDS
; Function compile flags: /Odtp
; File c:\program files (x86)\microsoft visual studio 11.0\vc\include\xstring
;	COMDAT ?_Xlen@?$basic_string@DU?$char_traits@D@std@@V?$allocator@D@2@@std@@QBEXXZ
_TEXT	SEGMENT
_this$ = -4						; size = 4
?_Xlen@?$basic_string@DU?$char_traits@D@std@@V?$allocator@D@2@@std@@QBEXXZ PROC ; std::basic_string<char,std::char_traits<char>,std::allocator<char> >::_Xlen, COMDAT
; _this$ = ecx

; 2270 : 		{	// report a length_error

	push	ebp
	mov	ebp, esp
	push	ecx
	mov	DWORD PTR _this$[ebp], ecx

; 2271 : 		_Xlength_error("string too long");

	push	OFFSET ??_C@_0BA@JFNIOLAK@string?5too?5long?$AA@
	call	?_Xlength_error@std@@YAXPBD@Z		; std::_Xlength_error
$LN2@Xlen:

; 2272 : 		}

	mov	esp, ebp
	pop	ebp
	ret	0
?_Xlen@?$basic_string@DU?$char_traits@D@std@@V?$allocator@D@2@@std@@QBEXXZ ENDP ; std::basic_string<char,std::char_traits<char>,std::allocator<char> >::_Xlen
_TEXT	ENDS
; Function compile flags: /Odtp
; File c:\program files (x86)\microsoft visual studio 11.0\vc\include\xstring
;	COMDAT ?_Tidy@?$basic_string@DU?$char_traits@D@std@@V?$allocator@D@2@@std@@QAEX_NI@Z
_TEXT	SEGMENT
__Ptr$1 = -12						; size = 4
_this$ = -8						; size = 4
$T2 = -2						; size = 1
$T3 = -1						; size = 1
__Built$ = 8						; size = 1
__Newsize$ = 12						; size = 4
?_Tidy@?$basic_string@DU?$char_traits@D@std@@V?$allocator@D@2@@std@@QAEX_NI@Z PROC ; std::basic_string<char,std::char_traits<char>,std::allocator<char> >::_Tidy, COMDAT
; _this$ = ecx

; 2253 : 		{	// initialize buffer, deallocating any storage

	push	ebp
	mov	ebp, esp
	sub	esp, 12					; 0000000cH
	mov	DWORD PTR _this$[ebp], ecx

; 2254 : 		if (!_Built)

	movzx	eax, BYTE PTR __Built$[ebp]
	test	eax, eax
	jne	SHORT $LN4@Tidy
	jmp	SHORT $LN3@Tidy
$LN4@Tidy:

; 2255 : 			;
; 2256 : 		else if (this->_BUF_SIZE <= this->_Myres)

	mov	ecx, DWORD PTR _this$[ebp]
	cmp	DWORD PTR [ecx+20], 16			; 00000010H
	jb	SHORT $LN3@Tidy

; 2257 : 			{	// copy any leftovers to small buffer and deallocate
; 2258 : 			pointer _Ptr = this->_Bx._Ptr;

	mov	edx, DWORD PTR _this$[ebp]
	mov	eax, DWORD PTR [edx]
	mov	DWORD PTR __Ptr$1[ebp], eax

; 2259 : 			this->_Getal().destroy(&this->_Bx._Ptr);

	mov	ecx, DWORD PTR _this$[ebp]
	push	ecx
	lea	edx, DWORD PTR $T3[ebp]
	push	edx
	mov	ecx, DWORD PTR _this$[ebp]
	call	?_Getal@?$_String_alloc@$0A@U?$_String_base_types@DV?$allocator@D@std@@@std@@@std@@QBE?AU?$_Wrap_alloc@V?$allocator@D@std@@@2@XZ ; std::_String_alloc<0,std::_String_base_types<char,std::allocator<char> > >::_Getal
	mov	ecx, eax
	call	??$destroy@PAD@?$_Wrap_alloc@V?$allocator@D@std@@@std@@QAEXPAPAD@Z ; std::_Wrap_alloc<std::allocator<char> >::destroy<char *>

; 2260 : 			if (0 < _Newsize)

	cmp	DWORD PTR __Newsize$[ebp], 0
	jbe	SHORT $LN1@Tidy

; 2261 : 				_Traits::copy(this->_Bx._Buf,
; 2262 : 					_STD addressof(*_Ptr), _Newsize);

	mov	eax, DWORD PTR __Newsize$[ebp]
	push	eax
	mov	ecx, DWORD PTR __Ptr$1[ebp]
	push	ecx
	call	??$addressof@D@std@@YAPADAAD@Z		; std::addressof<char>
	add	esp, 4
	push	eax
	mov	edx, DWORD PTR _this$[ebp]
	push	edx
	call	?copy@?$char_traits@D@std@@SAPADPADPBDI@Z ; std::char_traits<char>::copy
	add	esp, 12					; 0000000cH
$LN1@Tidy:

; 2263 : 			this->_Getal().deallocate(_Ptr, this->_Myres + 1);

	mov	eax, DWORD PTR _this$[ebp]
	mov	ecx, DWORD PTR [eax+20]
	add	ecx, 1
	push	ecx
	mov	edx, DWORD PTR __Ptr$1[ebp]
	push	edx
	lea	eax, DWORD PTR $T2[ebp]
	push	eax
	mov	ecx, DWORD PTR _this$[ebp]
	call	?_Getal@?$_String_alloc@$0A@U?$_String_base_types@DV?$allocator@D@std@@@std@@@std@@QBE?AU?$_Wrap_alloc@V?$allocator@D@std@@@2@XZ ; std::_String_alloc<0,std::_String_base_types<char,std::allocator<char> > >::_Getal
	mov	ecx, eax
	call	?deallocate@?$_Wrap_alloc@V?$allocator@D@std@@@std@@QAEXPADI@Z ; std::_Wrap_alloc<std::allocator<char> >::deallocate
$LN3@Tidy:

; 2264 : 			}
; 2265 : 		this->_Myres = this->_BUF_SIZE - 1;

	mov	ecx, DWORD PTR _this$[ebp]
	mov	DWORD PTR [ecx+20], 15			; 0000000fH

; 2266 : 		_Eos(_Newsize);

	mov	edx, DWORD PTR __Newsize$[ebp]
	push	edx
	mov	ecx, DWORD PTR _this$[ebp]
	call	?_Eos@?$basic_string@DU?$char_traits@D@std@@V?$allocator@D@2@@std@@QAEXI@Z ; std::basic_string<char,std::char_traits<char>,std::allocator<char> >::_Eos

; 2267 : 		}

	mov	esp, ebp
	pop	ebp
	ret	8
?_Tidy@?$basic_string@DU?$char_traits@D@std@@V?$allocator@D@2@@std@@QAEX_NI@Z ENDP ; std::basic_string<char,std::char_traits<char>,std::allocator<char> >::_Tidy
_TEXT	ENDS
; Function compile flags: /Odtp
; File c:\program files (x86)\microsoft visual studio 11.0\vc\include\xstring
;	COMDAT ?_Inside@?$basic_string@DU?$char_traits@D@std@@V?$allocator@D@2@@std@@QAE_NPBD@Z
_TEXT	SEGMENT
_this$ = -4						; size = 4
__Ptr$ = 8						; size = 4
?_Inside@?$basic_string@DU?$char_traits@D@std@@V?$allocator@D@2@@std@@QAE_NPBD@Z PROC ; std::basic_string<char,std::char_traits<char>,std::allocator<char> >::_Inside, COMDAT
; _this$ = ecx

; 2237 : 		{	// test if _Ptr points inside string

	push	ebp
	mov	ebp, esp
	push	ecx
	mov	DWORD PTR _this$[ebp], ecx

; 2238 : 		if (_Ptr == 0 || _Ptr < this->_Myptr()
; 2239 : 			|| this->_Myptr() + this->_Mysize <= _Ptr)

	cmp	DWORD PTR __Ptr$[ebp], 0
	je	SHORT $LN2@Inside
	mov	ecx, DWORD PTR _this$[ebp]
	call	?_Myptr@?$_String_val@U?$_Simple_types@D@std@@@std@@QAEPADXZ ; std::_String_val<std::_Simple_types<char> >::_Myptr
	cmp	DWORD PTR __Ptr$[ebp], eax
	jb	SHORT $LN2@Inside
	mov	ecx, DWORD PTR _this$[ebp]
	call	?_Myptr@?$_String_val@U?$_Simple_types@D@std@@@std@@QAEPADXZ ; std::_String_val<std::_Simple_types<char> >::_Myptr
	mov	ecx, DWORD PTR _this$[ebp]
	add	eax, DWORD PTR [ecx+16]
	cmp	eax, DWORD PTR __Ptr$[ebp]
	ja	SHORT $LN3@Inside
$LN2@Inside:

; 2240 : 			return (false);	// don't ask

	xor	al, al
	jmp	SHORT $LN4@Inside

; 2241 : 		else

	jmp	SHORT $LN4@Inside
$LN3@Inside:

; 2242 : 			return (true);

	mov	al, 1
$LN4@Inside:

; 2243 : 		}

	mov	esp, ebp
	pop	ebp
	ret	4
?_Inside@?$basic_string@DU?$char_traits@D@std@@V?$allocator@D@2@@std@@QAE_NPBD@Z ENDP ; std::basic_string<char,std::char_traits<char>,std::allocator<char> >::_Inside
_TEXT	ENDS
; Function compile flags: /Odtp
; File c:\program files (x86)\microsoft visual studio 11.0\vc\include\xstring
;	COMDAT ?_Grow@?$basic_string@DU?$char_traits@D@std@@V?$allocator@D@2@@std@@QAE_NI_N@Z
_TEXT	SEGMENT
tv136 = -12						; size = 4
tv129 = -8						; size = 4
_this$ = -4						; size = 4
__Newsize$ = 8						; size = 4
__Trim$ = 12						; size = 1
?_Grow@?$basic_string@DU?$char_traits@D@std@@V?$allocator@D@2@@std@@QAE_NI_N@Z PROC ; std::basic_string<char,std::char_traits<char>,std::allocator<char> >::_Grow, COMDAT
; _this$ = ecx

; 2223 : 		{	// ensure buffer is big enough, trim to size if _Trim is true

	push	ebp
	mov	ebp, esp
	sub	esp, 12					; 0000000cH
	mov	DWORD PTR _this$[ebp], ecx

; 2224 : 		if (max_size() < _Newsize)

	mov	ecx, DWORD PTR _this$[ebp]
	call	?max_size@?$basic_string@DU?$char_traits@D@std@@V?$allocator@D@2@@std@@QBEIXZ ; std::basic_string<char,std::char_traits<char>,std::allocator<char> >::max_size
	cmp	eax, DWORD PTR __Newsize$[ebp]
	jae	SHORT $LN6@Grow

; 2225 : 			_Xlen();	// result too long

	mov	ecx, DWORD PTR _this$[ebp]
	call	?_Xlen@?$basic_string@DU?$char_traits@D@std@@V?$allocator@D@2@@std@@QBEXXZ ; std::basic_string<char,std::char_traits<char>,std::allocator<char> >::_Xlen
$LN6@Grow:

; 2226 : 		if (this->_Myres < _Newsize)

	mov	eax, DWORD PTR _this$[ebp]
	mov	ecx, DWORD PTR [eax+20]
	cmp	ecx, DWORD PTR __Newsize$[ebp]
	jae	SHORT $LN5@Grow

; 2227 : 			_Copy(_Newsize, this->_Mysize);	// reallocate to grow

	mov	edx, DWORD PTR _this$[ebp]
	mov	eax, DWORD PTR [edx+16]
	push	eax
	mov	ecx, DWORD PTR __Newsize$[ebp]
	push	ecx
	mov	ecx, DWORD PTR _this$[ebp]
	call	?_Copy@?$basic_string@DU?$char_traits@D@std@@V?$allocator@D@2@@std@@QAEXII@Z ; std::basic_string<char,std::char_traits<char>,std::allocator<char> >::_Copy
	jmp	SHORT $LN4@Grow
$LN5@Grow:

; 2228 : 		else if (_Trim && _Newsize < this->_BUF_SIZE)

	movzx	edx, BYTE PTR __Trim$[ebp]
	test	edx, edx
	je	SHORT $LN3@Grow
	cmp	DWORD PTR __Newsize$[ebp], 16		; 00000010H
	jae	SHORT $LN3@Grow

; 2229 : 			_Tidy(true,	// copy and deallocate if trimming to small string
; 2230 : 				_Newsize < this->_Mysize ? _Newsize : this->_Mysize);

	mov	eax, DWORD PTR _this$[ebp]
	mov	ecx, DWORD PTR __Newsize$[ebp]
	cmp	ecx, DWORD PTR [eax+16]
	jae	SHORT $LN9@Grow
	mov	edx, DWORD PTR __Newsize$[ebp]
	mov	DWORD PTR tv129[ebp], edx
	jmp	SHORT $LN10@Grow
$LN9@Grow:
	mov	eax, DWORD PTR _this$[ebp]
	mov	ecx, DWORD PTR [eax+16]
	mov	DWORD PTR tv129[ebp], ecx
$LN10@Grow:
	mov	edx, DWORD PTR tv129[ebp]
	push	edx
	push	1
	mov	ecx, DWORD PTR _this$[ebp]
	call	?_Tidy@?$basic_string@DU?$char_traits@D@std@@V?$allocator@D@2@@std@@QAEX_NI@Z ; std::basic_string<char,std::char_traits<char>,std::allocator<char> >::_Tidy
	jmp	SHORT $LN4@Grow
$LN3@Grow:

; 2231 : 		else if (_Newsize == 0)

	cmp	DWORD PTR __Newsize$[ebp], 0
	jne	SHORT $LN4@Grow

; 2232 : 			_Eos(0);	// new size is zero, just null terminate

	push	0
	mov	ecx, DWORD PTR _this$[ebp]
	call	?_Eos@?$basic_string@DU?$char_traits@D@std@@V?$allocator@D@2@@std@@QAEXI@Z ; std::basic_string<char,std::char_traits<char>,std::allocator<char> >::_Eos
$LN4@Grow:

; 2233 : 		return (0 < _Newsize);	// return true only if more work to do

	cmp	DWORD PTR __Newsize$[ebp], 0
	jbe	SHORT $LN11@Grow
	mov	DWORD PTR tv136[ebp], 1
	jmp	SHORT $LN12@Grow
$LN11@Grow:
	mov	DWORD PTR tv136[ebp], 0
$LN12@Grow:
	mov	al, BYTE PTR tv136[ebp]
$LN8@Grow:

; 2234 : 		}

	mov	esp, ebp
	pop	ebp
	ret	8
?_Grow@?$basic_string@DU?$char_traits@D@std@@V?$allocator@D@2@@std@@QAE_NI_N@Z ENDP ; std::basic_string<char,std::char_traits<char>,std::allocator<char> >::_Grow
_TEXT	ENDS
; Function compile flags: /Odtp
; File c:\program files (x86)\microsoft visual studio 11.0\vc\include\xstring
;	COMDAT ?_Eos@?$basic_string@DU?$char_traits@D@std@@V?$allocator@D@2@@std@@QAEXI@Z
_TEXT	SEGMENT
_this$ = -8						; size = 4
$T1 = -1						; size = 1
__Newsize$ = 8						; size = 4
?_Eos@?$basic_string@DU?$char_traits@D@std@@V?$allocator@D@2@@std@@QAEXI@Z PROC ; std::basic_string<char,std::char_traits<char>,std::allocator<char> >::_Eos, COMDAT
; _this$ = ecx

; 2217 : 		{	// set new length and null terminator

	push	ebp
	mov	ebp, esp
	sub	esp, 8
	mov	DWORD PTR _this$[ebp], ecx

; 2218 : 		_Traits::assign(this->_Myptr()[this->_Mysize = _Newsize], _Elem());

	mov	BYTE PTR $T1[ebp], 0
	mov	eax, DWORD PTR _this$[ebp]
	mov	ecx, DWORD PTR __Newsize$[ebp]
	mov	DWORD PTR [eax+16], ecx
	lea	edx, DWORD PTR $T1[ebp]
	push	edx
	mov	ecx, DWORD PTR _this$[ebp]
	call	?_Myptr@?$_String_val@U?$_Simple_types@D@std@@@std@@QAEPADXZ ; std::_String_val<std::_Simple_types<char> >::_Myptr
	add	eax, DWORD PTR __Newsize$[ebp]
	push	eax
	call	?assign@?$char_traits@D@std@@SAXAADABD@Z ; std::char_traits<char>::assign
	add	esp, 8

; 2219 : 		}

	mov	esp, ebp
	pop	ebp
	ret	4
?_Eos@?$basic_string@DU?$char_traits@D@std@@V?$allocator@D@2@@std@@QAEXI@Z ENDP ; std::basic_string<char,std::char_traits<char>,std::allocator<char> >::_Eos
_TEXT	ENDS
; Function compile flags: /Odtp
; File c:\program files (x86)\microsoft visual studio 11.0\vc\include\xstring
;	COMDAT ?_Copy@?$basic_string@DU?$char_traits@D@std@@V?$allocator@D@2@@std@@QAEXII@Z
_TEXT	SEGMENT
tv205 = -48						; size = 4
tv204 = -44						; size = 4
tv203 = -40						; size = 4
tv202 = -36						; size = 4
__Ptr$ = -32						; size = 4
__Newres$ = -28						; size = 4
_this$ = -24						; size = 4
$T2 = -19						; size = 1
$T3 = -18						; size = 1
$T4 = -17						; size = 1
__$EHRec$ = -16						; size = 16
__Newsize$ = 8						; size = 4
__Oldlen$ = 12						; size = 4
?_Copy@?$basic_string@DU?$char_traits@D@std@@V?$allocator@D@2@@std@@QAEXII@Z PROC ; std::basic_string<char,std::char_traits<char>,std::allocator<char> >::_Copy, COMDAT
; _this$ = ecx

; 2182 : 		{	// copy _Oldlen elements to newly allocated buffer

	push	ebp
	mov	ebp, esp
	push	-1
	push	__ehhandler$?_Copy@?$basic_string@DU?$char_traits@D@std@@V?$allocator@D@2@@std@@QAEXII@Z
	mov	eax, DWORD PTR fs:0
	push	eax
	push	ecx
	sub	esp, 32					; 00000020H
	push	ebx
	push	esi
	push	edi
	mov	eax, DWORD PTR ___security_cookie
	xor	eax, ebp
	push	eax
	lea	eax, DWORD PTR __$EHRec$[ebp+4]
	mov	DWORD PTR fs:0, eax
	mov	DWORD PTR __$EHRec$[ebp], esp
	mov	DWORD PTR _this$[ebp], ecx

; 2183 : 		size_type _Newres = _Newsize | this->_ALLOC_MASK;

	mov	eax, DWORD PTR __Newsize$[ebp]
	or	eax, 15					; 0000000fH
	mov	DWORD PTR __Newres$[ebp], eax

; 2184 : 		if (max_size() < _Newres)

	mov	ecx, DWORD PTR _this$[ebp]
	call	?max_size@?$basic_string@DU?$char_traits@D@std@@V?$allocator@D@2@@std@@QBEIXZ ; std::basic_string<char,std::char_traits<char>,std::allocator<char> >::max_size
	cmp	eax, DWORD PTR __Newres$[ebp]
	jae	SHORT $LN9@Copy

; 2185 : 			_Newres = _Newsize;	// undo roundup if too big

	mov	ecx, DWORD PTR __Newsize$[ebp]
	mov	DWORD PTR __Newres$[ebp], ecx
	jmp	SHORT $LN8@Copy
$LN9@Copy:

; 2186 : 		else if (this->_Myres / 2 <= _Newres / 3)

	mov	eax, DWORD PTR __Newres$[ebp]
	xor	edx, edx
	mov	ecx, 3
	div	ecx
	mov	edx, DWORD PTR _this$[ebp]
	mov	ecx, DWORD PTR [edx+20]
	shr	ecx, 1
	cmp	ecx, eax
	ja	SHORT $LN7@Copy
	jmp	SHORT $LN8@Copy
$LN7@Copy:

; 2187 : 			;
; 2188 : 		else if (this->_Myres <= max_size() - this->_Myres / 2)

	mov	edx, DWORD PTR _this$[ebp]
	mov	esi, DWORD PTR [edx+20]
	shr	esi, 1
	mov	ecx, DWORD PTR _this$[ebp]
	call	?max_size@?$basic_string@DU?$char_traits@D@std@@V?$allocator@D@2@@std@@QBEIXZ ; std::basic_string<char,std::char_traits<char>,std::allocator<char> >::max_size
	sub	eax, esi
	mov	ecx, DWORD PTR _this$[ebp]
	cmp	DWORD PTR [ecx+20], eax
	ja	SHORT $LN5@Copy

; 2189 : 			_Newres = this->_Myres
; 2190 : 				+ this->_Myres / 2;	// grow exponentially if possible

	mov	edx, DWORD PTR _this$[ebp]
	mov	eax, DWORD PTR [edx+20]
	shr	eax, 1
	mov	ecx, DWORD PTR _this$[ebp]
	add	eax, DWORD PTR [ecx+20]
	mov	DWORD PTR __Newres$[ebp], eax

; 2191 : 		else

	jmp	SHORT $LN8@Copy
$LN5@Copy:

; 2192 : 			_Newres = max_size();	// settle for max_size()

	mov	ecx, DWORD PTR _this$[ebp]
	call	?max_size@?$basic_string@DU?$char_traits@D@std@@V?$allocator@D@2@@std@@QBEIXZ ; std::basic_string<char,std::char_traits<char>,std::allocator<char> >::max_size
	mov	DWORD PTR __Newres$[ebp], eax
$LN8@Copy:

; 2193 : 
; 2194 : 		_Elem *_Ptr;
; 2195 : 		_TRY_BEGIN

	mov	DWORD PTR __$EHRec$[ebp+12], 0

; 2196 : 			_Ptr = this->_Getal().allocate(_Newres + 1);

	lea	edx, DWORD PTR $T4[ebp]
	push	edx
	mov	ecx, DWORD PTR _this$[ebp]
	call	?_Getal@?$_String_alloc@$0A@U?$_String_base_types@DV?$allocator@D@std@@@std@@@std@@QBE?AU?$_Wrap_alloc@V?$allocator@D@std@@@2@XZ ; std::_String_alloc<0,std::_String_base_types<char,std::allocator<char> > >::_Getal
	mov	DWORD PTR tv202[ebp], eax
	mov	eax, DWORD PTR __Newres$[ebp]
	add	eax, 1
	push	eax
	mov	ecx, DWORD PTR tv202[ebp]
	call	?allocate@?$_Wrap_alloc@V?$allocator@D@std@@@std@@QAEPADI@Z ; std::_Wrap_alloc<std::allocator<char> >::allocate
	mov	DWORD PTR tv203[ebp], eax
	mov	ecx, DWORD PTR tv203[ebp]
	mov	DWORD PTR __Ptr$[ebp], ecx
	jmp	SHORT $LN12@Copy
__catch$?_Copy@?$basic_string@DU?$char_traits@D@std@@V?$allocator@D@2@@std@@QAEXII@Z$0:

; 2197 : 		_CATCH_ALL

	mov	DWORD PTR __$EHRec$[ebp], esp

; 2198 : 			_Newres = _Newsize;	// allocation failed, undo roundup and retry

	mov	edx, DWORD PTR __Newsize$[ebp]
	mov	DWORD PTR __Newres$[ebp], edx

; 2199 : 			_TRY_BEGIN

	mov	BYTE PTR __$EHRec$[ebp+12], 2

; 2200 : 				_Ptr = this->_Getal().allocate(_Newres + 1);

	lea	eax, DWORD PTR $T3[ebp]
	push	eax
	mov	ecx, DWORD PTR _this$[ebp]
	call	?_Getal@?$_String_alloc@$0A@U?$_String_base_types@DV?$allocator@D@std@@@std@@@std@@QBE?AU?$_Wrap_alloc@V?$allocator@D@std@@@2@XZ ; std::_String_alloc<0,std::_String_base_types<char,std::allocator<char> > >::_Getal
	mov	DWORD PTR tv204[ebp], eax
	mov	ecx, DWORD PTR __Newres$[ebp]
	add	ecx, 1
	push	ecx
	mov	ecx, DWORD PTR tv204[ebp]
	call	?allocate@?$_Wrap_alloc@V?$allocator@D@std@@@std@@QAEPADI@Z ; std::_Wrap_alloc<std::allocator<char> >::allocate
	mov	DWORD PTR tv205[ebp], eax
	mov	edx, DWORD PTR tv205[ebp]
	mov	DWORD PTR __Ptr$[ebp], edx
	jmp	SHORT $LN14@Copy
__catch$?_Copy@?$basic_string@DU?$char_traits@D@std@@V?$allocator@D@2@@std@@QAEXII@Z$1:

; 2201 : 			_CATCH_ALL
; 2202 : 			_Tidy(true);	// failed again, discard storage and reraise

	push	0
	push	1
	mov	ecx, DWORD PTR _this$[ebp]
	call	?_Tidy@?$basic_string@DU?$char_traits@D@std@@V?$allocator@D@2@@std@@QAEX_NI@Z ; std::basic_string<char,std::char_traits<char>,std::allocator<char> >::_Tidy

; 2203 : 			_RERAISE;

	push	0
	push	0
	call	__CxxThrowException@8

; 2204 : 			_CATCH_END

	mov	eax, $LN17@Copy
	ret	0
$LN14@Copy:
	mov	DWORD PTR __$EHRec$[ebp+12], 1
	jmp	SHORT __tryend$?_Copy@?$basic_string@DU?$char_traits@D@std@@V?$allocator@D@2@@std@@QAEXII@Z$2
$LN17@Copy:
	mov	DWORD PTR __$EHRec$[ebp+12], 1
__tryend$?_Copy@?$basic_string@DU?$char_traits@D@std@@V?$allocator@D@2@@std@@QAEXII@Z$2:

; 2205 : 		_CATCH_END

	mov	eax, $LN19@Copy
	ret	0
$LN12@Copy:
	mov	DWORD PTR __$EHRec$[ebp+12], -1
	jmp	SHORT __tryend$?_Copy@?$basic_string@DU?$char_traits@D@std@@V?$allocator@D@2@@std@@QAEXII@Z$3
$LN19@Copy:
	mov	DWORD PTR __$EHRec$[ebp+12], -1
__tryend$?_Copy@?$basic_string@DU?$char_traits@D@std@@V?$allocator@D@2@@std@@QAEXII@Z$3:

; 2206 : 
; 2207 : 		if (0 < _Oldlen)

	cmp	DWORD PTR __Oldlen$[ebp], 0
	jbe	SHORT $LN1@Copy

; 2208 : 			_Traits::copy(_Ptr, this->_Myptr(),
; 2209 : 				_Oldlen);	// copy existing elements

	mov	eax, DWORD PTR __Oldlen$[ebp]
	push	eax
	mov	ecx, DWORD PTR _this$[ebp]
	call	?_Myptr@?$_String_val@U?$_Simple_types@D@std@@@std@@QAEPADXZ ; std::_String_val<std::_Simple_types<char> >::_Myptr
	push	eax
	mov	ecx, DWORD PTR __Ptr$[ebp]
	push	ecx
	call	?copy@?$char_traits@D@std@@SAPADPADPBDI@Z ; std::char_traits<char>::copy
	add	esp, 12					; 0000000cH
$LN1@Copy:

; 2210 : 		_Tidy(true);

	push	0
	push	1
	mov	ecx, DWORD PTR _this$[ebp]
	call	?_Tidy@?$basic_string@DU?$char_traits@D@std@@V?$allocator@D@2@@std@@QAEX_NI@Z ; std::basic_string<char,std::char_traits<char>,std::allocator<char> >::_Tidy

; 2211 : 		this->_Getal().construct(&this->_Bx._Ptr, _Ptr);

	lea	edx, DWORD PTR __Ptr$[ebp]
	push	edx
	mov	eax, DWORD PTR _this$[ebp]
	push	eax
	lea	ecx, DWORD PTR $T2[ebp]
	push	ecx
	mov	ecx, DWORD PTR _this$[ebp]
	call	?_Getal@?$_String_alloc@$0A@U?$_String_base_types@DV?$allocator@D@std@@@std@@@std@@QBE?AU?$_Wrap_alloc@V?$allocator@D@std@@@2@XZ ; std::_String_alloc<0,std::_String_base_types<char,std::allocator<char> > >::_Getal
	mov	ecx, eax
	call	??$construct@PADAAPAD@?$_Wrap_alloc@V?$allocator@D@std@@@std@@QAEXPAPADAAPAD@Z ; std::_Wrap_alloc<std::allocator<char> >::construct<char *,char * &>

; 2212 : 		this->_Myres = _Newres;

	mov	edx, DWORD PTR _this$[ebp]
	mov	eax, DWORD PTR __Newres$[ebp]
	mov	DWORD PTR [edx+20], eax

; 2213 : 		_Eos(_Oldlen);

	mov	ecx, DWORD PTR __Oldlen$[ebp]
	push	ecx
	mov	ecx, DWORD PTR _this$[ebp]
	call	?_Eos@?$basic_string@DU?$char_traits@D@std@@V?$allocator@D@2@@std@@QAEXI@Z ; std::basic_string<char,std::char_traits<char>,std::allocator<char> >::_Eos
$LN11@Copy:

; 2214 : 		}

	mov	ecx, DWORD PTR __$EHRec$[ebp+4]
	mov	DWORD PTR fs:0, ecx
	pop	ecx
	pop	edi
	pop	esi
	pop	ebx
	mov	esp, ebp
	pop	ebp
	ret	8
_TEXT	ENDS
;	COMDAT text$x
text$x	SEGMENT
__ehhandler$?_Copy@?$basic_string@DU?$char_traits@D@std@@V?$allocator@D@2@@std@@QAEXII@Z:
	mov	edx, DWORD PTR [esp+8]
	lea	eax, DWORD PTR [edx+12]
	mov	ecx, DWORD PTR [edx-52]
	xor	ecx, eax
	call	@__security_check_cookie@4
	mov	eax, OFFSET __ehfuncinfo$?_Copy@?$basic_string@DU?$char_traits@D@std@@V?$allocator@D@2@@std@@QAEXII@Z
	jmp	___CxxFrameHandler3
text$x	ENDS
?_Copy@?$basic_string@DU?$char_traits@D@std@@V?$allocator@D@2@@std@@QAEXII@Z ENDP ; std::basic_string<char,std::char_traits<char>,std::allocator<char> >::_Copy
; Function compile flags: /Odtp
; File c:\program files (x86)\microsoft visual studio 11.0\vc\include\xstring
;	COMDAT ?max_size@?$basic_string@DU?$char_traits@D@std@@V?$allocator@D@2@@std@@QBEIXZ
_TEXT	SEGMENT
_this$ = -16						; size = 4
tv75 = -12						; size = 4
__Num$ = -8						; size = 4
$T1 = -1						; size = 1
?max_size@?$basic_string@DU?$char_traits@D@std@@V?$allocator@D@2@@std@@QBEIXZ PROC ; std::basic_string<char,std::char_traits<char>,std::allocator<char> >::max_size, COMDAT
; _this$ = ecx

; 1737 : 		{	// return maximum possible length of sequence

	push	ebp
	mov	ebp, esp
	sub	esp, 16					; 00000010H
	mov	DWORD PTR _this$[ebp], ecx

; 1738 : 		size_type _Num = this->_Getal().max_size();

	lea	eax, DWORD PTR $T1[ebp]
	push	eax
	mov	ecx, DWORD PTR _this$[ebp]
	call	?_Getal@?$_String_alloc@$0A@U?$_String_base_types@DV?$allocator@D@std@@@std@@@std@@QBE?AU?$_Wrap_alloc@V?$allocator@D@std@@@2@XZ ; std::_String_alloc<0,std::_String_base_types<char,std::allocator<char> > >::_Getal
	mov	ecx, eax
	call	?max_size@?$_Wrap_alloc@V?$allocator@D@std@@@std@@QBEIXZ ; std::_Wrap_alloc<std::allocator<char> >::max_size
	mov	DWORD PTR __Num$[ebp], eax

; 1739 : 		return (_Num <= 1 ? 1 : _Num - 1);

	cmp	DWORD PTR __Num$[ebp], 1
	ja	SHORT $LN3@max_size
	mov	DWORD PTR tv75[ebp], 1
	jmp	SHORT $LN4@max_size
$LN3@max_size:
	mov	ecx, DWORD PTR __Num$[ebp]
	sub	ecx, 1
	mov	DWORD PTR tv75[ebp], ecx
$LN4@max_size:
	mov	eax, DWORD PTR tv75[ebp]

; 1740 : 		}

	mov	esp, ebp
	pop	ebp
	ret	0
?max_size@?$basic_string@DU?$char_traits@D@std@@V?$allocator@D@2@@std@@QBEIXZ ENDP ; std::basic_string<char,std::char_traits<char>,std::allocator<char> >::max_size
_TEXT	ENDS
; Function compile flags: /Odtp
; File c:\program files (x86)\microsoft visual studio 11.0\vc\include\xstring
;	COMDAT ?size@?$basic_string@DU?$char_traits@D@std@@V?$allocator@D@2@@std@@QBEIXZ
_TEXT	SEGMENT
_this$ = -4						; size = 4
?size@?$basic_string@DU?$char_traits@D@std@@V?$allocator@D@2@@std@@QBEIXZ PROC ; std::basic_string<char,std::char_traits<char>,std::allocator<char> >::size, COMDAT
; _this$ = ecx

; 1732 : 		{	// return length of sequence

	push	ebp
	mov	ebp, esp
	push	ecx
	mov	DWORD PTR _this$[ebp], ecx

; 1733 : 		return (this->_Mysize);

	mov	eax, DWORD PTR _this$[ebp]
	mov	eax, DWORD PTR [eax+16]

; 1734 : 		}

	mov	esp, ebp
	pop	ebp
	ret	0
?size@?$basic_string@DU?$char_traits@D@std@@V?$allocator@D@2@@std@@QBEIXZ ENDP ; std::basic_string<char,std::char_traits<char>,std::allocator<char> >::size
_TEXT	ENDS
; Function compile flags: /Odtp
; File c:\program files (x86)\microsoft visual studio 11.0\vc\include\xstring
;	COMDAT ?erase@?$basic_string@DU?$char_traits@D@std@@V?$allocator@D@2@@std@@QAEAAV12@II@Z
_TEXT	SEGMENT
__Newsize$1 = -12					; size = 4
__Ptr$2 = -8						; size = 4
_this$ = -4						; size = 4
__Off$ = 8						; size = 4
__Count$ = 12						; size = 4
?erase@?$basic_string@DU?$char_traits@D@std@@V?$allocator@D@2@@std@@QAEAAV12@II@Z PROC ; std::basic_string<char,std::char_traits<char>,std::allocator<char> >::erase, COMDAT
; _this$ = ecx

; 1317 : 		{	// erase elements [_Off, _Off + _Count)

	push	ebp
	mov	ebp, esp
	sub	esp, 12					; 0000000cH
	mov	DWORD PTR _this$[ebp], ecx

; 1318 : 		if (this->_Mysize < _Off)

	mov	eax, DWORD PTR _this$[ebp]
	mov	ecx, DWORD PTR [eax+16]
	cmp	ecx, DWORD PTR __Off$[ebp]
	jae	SHORT $LN4@erase

; 1319 : 			_Xran();	// _Off off end

	mov	ecx, DWORD PTR _this$[ebp]
	call	?_Xran@?$basic_string@DU?$char_traits@D@std@@V?$allocator@D@2@@std@@QBEXXZ ; std::basic_string<char,std::char_traits<char>,std::allocator<char> >::_Xran
$LN4@erase:

; 1320 : 		if (this->_Mysize - _Off <= _Count)

	mov	edx, DWORD PTR _this$[ebp]
	mov	eax, DWORD PTR [edx+16]
	sub	eax, DWORD PTR __Off$[ebp]
	cmp	eax, DWORD PTR __Count$[ebp]
	ja	SHORT $LN3@erase

; 1321 : 			_Eos(_Off);	// erase elements [_Off, ...)

	mov	ecx, DWORD PTR __Off$[ebp]
	push	ecx
	mov	ecx, DWORD PTR _this$[ebp]
	call	?_Eos@?$basic_string@DU?$char_traits@D@std@@V?$allocator@D@2@@std@@QAEXI@Z ; std::basic_string<char,std::char_traits<char>,std::allocator<char> >::_Eos
	jmp	SHORT $LN2@erase
$LN3@erase:

; 1322 : 		else if (0 < _Count)

	cmp	DWORD PTR __Count$[ebp], 0
	jbe	SHORT $LN2@erase

; 1323 : 			{	// move elements down
; 1324 : 			value_type *_Ptr = this->_Myptr() + _Off;

	mov	ecx, DWORD PTR _this$[ebp]
	call	?_Myptr@?$_String_val@U?$_Simple_types@D@std@@@std@@QAEPADXZ ; std::_String_val<std::_Simple_types<char> >::_Myptr
	add	eax, DWORD PTR __Off$[ebp]
	mov	DWORD PTR __Ptr$2[ebp], eax

; 1325 : 			size_type _Newsize = this->_Mysize - _Count;

	mov	edx, DWORD PTR _this$[ebp]
	mov	eax, DWORD PTR [edx+16]
	sub	eax, DWORD PTR __Count$[ebp]
	mov	DWORD PTR __Newsize$1[ebp], eax

; 1326 : 			_Traits::move(_Ptr, _Ptr + _Count, _Newsize - _Off);

	mov	ecx, DWORD PTR __Newsize$1[ebp]
	sub	ecx, DWORD PTR __Off$[ebp]
	push	ecx
	mov	edx, DWORD PTR __Ptr$2[ebp]
	add	edx, DWORD PTR __Count$[ebp]
	push	edx
	mov	eax, DWORD PTR __Ptr$2[ebp]
	push	eax
	call	?move@?$char_traits@D@std@@SAPADPADPBDI@Z ; std::char_traits<char>::move
	add	esp, 12					; 0000000cH

; 1327 : 			_Eos(_Newsize);

	mov	ecx, DWORD PTR __Newsize$1[ebp]
	push	ecx
	mov	ecx, DWORD PTR _this$[ebp]
	call	?_Eos@?$basic_string@DU?$char_traits@D@std@@V?$allocator@D@2@@std@@QAEXI@Z ; std::basic_string<char,std::char_traits<char>,std::allocator<char> >::_Eos
$LN2@erase:

; 1328 : 			}
; 1329 : 		return (*this);

	mov	eax, DWORD PTR _this$[ebp]
$LN6@erase:

; 1330 : 		}

	mov	esp, ebp
	pop	ebp
	ret	8
?erase@?$basic_string@DU?$char_traits@D@std@@V?$allocator@D@2@@std@@QAEAAV12@II@Z ENDP ; std::basic_string<char,std::char_traits<char>,std::allocator<char> >::erase
_TEXT	ENDS
; Function compile flags: /Odtp
; File c:\program files (x86)\microsoft visual studio 11.0\vc\include\xstring
;	COMDAT ?erase@?$basic_string@DU?$char_traits@D@std@@V?$allocator@D@2@@std@@QAEAAV12@I@Z
_TEXT	SEGMENT
_this$ = -4						; size = 4
__Off$ = 8						; size = 4
?erase@?$basic_string@DU?$char_traits@D@std@@V?$allocator@D@2@@std@@QAEAAV12@I@Z PROC ; std::basic_string<char,std::char_traits<char>,std::allocator<char> >::erase, COMDAT
; _this$ = ecx

; 1309 : 		{	// erase elements [_Off, ...)

	push	ebp
	mov	ebp, esp
	push	ecx
	mov	DWORD PTR _this$[ebp], ecx

; 1310 : 		if (this->_Mysize < _Off)

	mov	eax, DWORD PTR _this$[ebp]
	mov	ecx, DWORD PTR [eax+16]
	cmp	ecx, DWORD PTR __Off$[ebp]
	jae	SHORT $LN1@erase

; 1311 : 			_Xran();	// _Off off end

	mov	ecx, DWORD PTR _this$[ebp]
	call	?_Xran@?$basic_string@DU?$char_traits@D@std@@V?$allocator@D@2@@std@@QBEXXZ ; std::basic_string<char,std::char_traits<char>,std::allocator<char> >::_Xran
$LN1@erase:

; 1312 : 		_Eos(_Off);

	mov	edx, DWORD PTR __Off$[ebp]
	push	edx
	mov	ecx, DWORD PTR _this$[ebp]
	call	?_Eos@?$basic_string@DU?$char_traits@D@std@@V?$allocator@D@2@@std@@QAEXI@Z ; std::basic_string<char,std::char_traits<char>,std::allocator<char> >::_Eos

; 1313 : 		return (*this);

	mov	eax, DWORD PTR _this$[ebp]
$LN3@erase:

; 1314 : 		}

	mov	esp, ebp
	pop	ebp
	ret	4
?erase@?$basic_string@DU?$char_traits@D@std@@V?$allocator@D@2@@std@@QAEAAV12@I@Z ENDP ; std::basic_string<char,std::char_traits<char>,std::allocator<char> >::erase
_TEXT	ENDS
; Function compile flags: /Odtp
; File c:\program files (x86)\microsoft visual studio 11.0\vc\include\xstring
;	COMDAT ?assign@?$basic_string@DU?$char_traits@D@std@@V?$allocator@D@2@@std@@QAEAAV12@PBD@Z
_TEXT	SEGMENT
_this$ = -4						; size = 4
__Ptr$ = 8						; size = 4
?assign@?$basic_string@DU?$char_traits@D@std@@V?$allocator@D@2@@std@@QAEAAV12@PBD@Z PROC ; std::basic_string<char,std::char_traits<char>,std::allocator<char> >::assign, COMDAT
; _this$ = ecx

; 1142 : 		{	// assign [_Ptr, <null>)

	push	ebp
	mov	ebp, esp
	push	ecx
	mov	DWORD PTR _this$[ebp], ecx

; 1143 : 		_DEBUG_POINTER(_Ptr);
; 1144 : 		return (assign(_Ptr, _Traits::length(_Ptr)));

	mov	eax, DWORD PTR __Ptr$[ebp]
	push	eax
	call	?length@?$char_traits@D@std@@SAIPBD@Z	; std::char_traits<char>::length
	add	esp, 4
	push	eax
	mov	ecx, DWORD PTR __Ptr$[ebp]
	push	ecx
	mov	ecx, DWORD PTR _this$[ebp]
	call	?assign@?$basic_string@DU?$char_traits@D@std@@V?$allocator@D@2@@std@@QAEAAV12@PBDI@Z ; std::basic_string<char,std::char_traits<char>,std::allocator<char> >::assign

; 1145 : 		}

	mov	esp, ebp
	pop	ebp
	ret	4
?assign@?$basic_string@DU?$char_traits@D@std@@V?$allocator@D@2@@std@@QAEAAV12@PBD@Z ENDP ; std::basic_string<char,std::char_traits<char>,std::allocator<char> >::assign
_TEXT	ENDS
; Function compile flags: /Odtp
; File c:\program files (x86)\microsoft visual studio 11.0\vc\include\xstring
;	COMDAT ?assign@?$basic_string@DU?$char_traits@D@std@@V?$allocator@D@2@@std@@QAEAAV12@PBDI@Z
_TEXT	SEGMENT
_this$ = -4						; size = 4
__Ptr$ = 8						; size = 4
__Count$ = 12						; size = 4
?assign@?$basic_string@DU?$char_traits@D@std@@V?$allocator@D@2@@std@@QAEAAV12@PBDI@Z PROC ; std::basic_string<char,std::char_traits<char>,std::allocator<char> >::assign, COMDAT
; _this$ = ecx

; 1123 : 		{	// assign [_Ptr, _Ptr + _Count)

	push	ebp
	mov	ebp, esp
	push	ecx
	mov	DWORD PTR _this$[ebp], ecx

; 1124 :  #if _ITERATOR_DEBUG_LEVEL == 2
; 1125 : 		if (_Count != 0)
; 1126 : 			_DEBUG_POINTER(_Ptr);
; 1127 :  #endif /* _ITERATOR_DEBUG_LEVEL == 2 */
; 1128 : 
; 1129 : 		if (_Inside(_Ptr))

	mov	eax, DWORD PTR __Ptr$[ebp]
	push	eax
	mov	ecx, DWORD PTR _this$[ebp]
	call	?_Inside@?$basic_string@DU?$char_traits@D@std@@V?$allocator@D@2@@std@@QAE_NPBD@Z ; std::basic_string<char,std::char_traits<char>,std::allocator<char> >::_Inside
	movzx	ecx, al
	test	ecx, ecx
	je	SHORT $LN2@assign

; 1130 : 			return (assign(*this,
; 1131 : 				_Ptr - this->_Myptr(), _Count));	// substring

	mov	edx, DWORD PTR __Count$[ebp]
	push	edx
	mov	ecx, DWORD PTR _this$[ebp]
	call	?_Myptr@?$_String_val@U?$_Simple_types@D@std@@@std@@QAEPADXZ ; std::_String_val<std::_Simple_types<char> >::_Myptr
	mov	ecx, DWORD PTR __Ptr$[ebp]
	sub	ecx, eax
	push	ecx
	mov	edx, DWORD PTR _this$[ebp]
	push	edx
	mov	ecx, DWORD PTR _this$[ebp]
	call	?assign@?$basic_string@DU?$char_traits@D@std@@V?$allocator@D@2@@std@@QAEAAV12@ABV12@II@Z ; std::basic_string<char,std::char_traits<char>,std::allocator<char> >::assign
	jmp	SHORT $LN3@assign
$LN2@assign:

; 1132 : 
; 1133 : 		if (_Grow(_Count))

	push	0
	mov	eax, DWORD PTR __Count$[ebp]
	push	eax
	mov	ecx, DWORD PTR _this$[ebp]
	call	?_Grow@?$basic_string@DU?$char_traits@D@std@@V?$allocator@D@2@@std@@QAE_NI_N@Z ; std::basic_string<char,std::char_traits<char>,std::allocator<char> >::_Grow
	movzx	ecx, al
	test	ecx, ecx
	je	SHORT $LN1@assign

; 1134 : 			{	// make room and assign new stuff
; 1135 : 			_Traits::copy(this->_Myptr(), _Ptr, _Count);

	mov	edx, DWORD PTR __Count$[ebp]
	push	edx
	mov	eax, DWORD PTR __Ptr$[ebp]
	push	eax
	mov	ecx, DWORD PTR _this$[ebp]
	call	?_Myptr@?$_String_val@U?$_Simple_types@D@std@@@std@@QAEPADXZ ; std::_String_val<std::_Simple_types<char> >::_Myptr
	push	eax
	call	?copy@?$char_traits@D@std@@SAPADPADPBDI@Z ; std::char_traits<char>::copy
	add	esp, 12					; 0000000cH

; 1136 : 			_Eos(_Count);

	mov	ecx, DWORD PTR __Count$[ebp]
	push	ecx
	mov	ecx, DWORD PTR _this$[ebp]
	call	?_Eos@?$basic_string@DU?$char_traits@D@std@@V?$allocator@D@2@@std@@QAEXI@Z ; std::basic_string<char,std::char_traits<char>,std::allocator<char> >::_Eos
$LN1@assign:

; 1137 : 			}
; 1138 : 		return (*this);

	mov	eax, DWORD PTR _this$[ebp]
$LN3@assign:

; 1139 : 		}

	mov	esp, ebp
	pop	ebp
	ret	8
?assign@?$basic_string@DU?$char_traits@D@std@@V?$allocator@D@2@@std@@QAEAAV12@PBDI@Z ENDP ; std::basic_string<char,std::char_traits<char>,std::allocator<char> >::assign
_TEXT	ENDS
; Function compile flags: /Odtp
; File c:\program files (x86)\microsoft visual studio 11.0\vc\include\xstring
;	COMDAT ?assign@?$basic_string@DU?$char_traits@D@std@@V?$allocator@D@2@@std@@QAEAAV12@ABV12@II@Z
_TEXT	SEGMENT
__Num$ = -8						; size = 4
_this$ = -4						; size = 4
__Right$ = 8						; size = 4
__Roff$ = 12						; size = 4
__Count$ = 16						; size = 4
?assign@?$basic_string@DU?$char_traits@D@std@@V?$allocator@D@2@@std@@QAEAAV12@ABV12@II@Z PROC ; std::basic_string<char,std::char_traits<char>,std::allocator<char> >::assign, COMDAT
; _this$ = ecx

; 1104 : 		{	// assign _Right [_Roff, _Roff + _Count)

	push	ebp
	mov	ebp, esp
	sub	esp, 8
	mov	DWORD PTR _this$[ebp], ecx

; 1105 : 		if (_Right.size() < _Roff)

	mov	ecx, DWORD PTR __Right$[ebp]
	call	?size@?$basic_string@DU?$char_traits@D@std@@V?$allocator@D@2@@std@@QBEIXZ ; std::basic_string<char,std::char_traits<char>,std::allocator<char> >::size
	cmp	eax, DWORD PTR __Roff$[ebp]
	jae	SHORT $LN5@assign

; 1106 : 			_Xran();	// _Roff off end

	mov	ecx, DWORD PTR _this$[ebp]
	call	?_Xran@?$basic_string@DU?$char_traits@D@std@@V?$allocator@D@2@@std@@QBEXXZ ; std::basic_string<char,std::char_traits<char>,std::allocator<char> >::_Xran
$LN5@assign:

; 1107 : 		size_type _Num = _Right.size() - _Roff;

	mov	ecx, DWORD PTR __Right$[ebp]
	call	?size@?$basic_string@DU?$char_traits@D@std@@V?$allocator@D@2@@std@@QBEIXZ ; std::basic_string<char,std::char_traits<char>,std::allocator<char> >::size
	sub	eax, DWORD PTR __Roff$[ebp]
	mov	DWORD PTR __Num$[ebp], eax

; 1108 : 		if (_Count < _Num)

	mov	eax, DWORD PTR __Count$[ebp]
	cmp	eax, DWORD PTR __Num$[ebp]
	jae	SHORT $LN4@assign

; 1109 : 			_Num = _Count;	// trim _Num to size

	mov	ecx, DWORD PTR __Count$[ebp]
	mov	DWORD PTR __Num$[ebp], ecx
$LN4@assign:

; 1110 : 
; 1111 : 		if (this == &_Right)

	mov	edx, DWORD PTR _this$[ebp]
	cmp	edx, DWORD PTR __Right$[ebp]
	jne	SHORT $LN3@assign

; 1112 : 			erase((size_type)(_Roff + _Num)), erase(0, _Roff);	// substring

	mov	eax, DWORD PTR __Roff$[ebp]
	add	eax, DWORD PTR __Num$[ebp]
	push	eax
	mov	ecx, DWORD PTR _this$[ebp]
	call	?erase@?$basic_string@DU?$char_traits@D@std@@V?$allocator@D@2@@std@@QAEAAV12@I@Z ; std::basic_string<char,std::char_traits<char>,std::allocator<char> >::erase
	mov	ecx, DWORD PTR __Roff$[ebp]
	push	ecx
	push	0
	mov	ecx, DWORD PTR _this$[ebp]
	call	?erase@?$basic_string@DU?$char_traits@D@std@@V?$allocator@D@2@@std@@QAEAAV12@II@Z ; std::basic_string<char,std::char_traits<char>,std::allocator<char> >::erase
	jmp	SHORT $LN2@assign
$LN3@assign:

; 1113 : 		else if (_Grow(_Num))

	push	0
	mov	edx, DWORD PTR __Num$[ebp]
	push	edx
	mov	ecx, DWORD PTR _this$[ebp]
	call	?_Grow@?$basic_string@DU?$char_traits@D@std@@V?$allocator@D@2@@std@@QAE_NI_N@Z ; std::basic_string<char,std::char_traits<char>,std::allocator<char> >::_Grow
	movzx	eax, al
	test	eax, eax
	je	SHORT $LN2@assign

; 1114 : 			{	// make room and assign new stuff
; 1115 : 			_Traits::copy(this->_Myptr(),
; 1116 : 				_Right._Myptr() + _Roff, _Num);

	mov	ecx, DWORD PTR __Num$[ebp]
	push	ecx
	mov	ecx, DWORD PTR __Right$[ebp]
	call	?_Myptr@?$_String_val@U?$_Simple_types@D@std@@@std@@QBEPBDXZ ; std::_String_val<std::_Simple_types<char> >::_Myptr
	add	eax, DWORD PTR __Roff$[ebp]
	push	eax
	mov	ecx, DWORD PTR _this$[ebp]
	call	?_Myptr@?$_String_val@U?$_Simple_types@D@std@@@std@@QAEPADXZ ; std::_String_val<std::_Simple_types<char> >::_Myptr
	push	eax
	call	?copy@?$char_traits@D@std@@SAPADPADPBDI@Z ; std::char_traits<char>::copy
	add	esp, 12					; 0000000cH

; 1117 : 			_Eos(_Num);

	mov	edx, DWORD PTR __Num$[ebp]
	push	edx
	mov	ecx, DWORD PTR _this$[ebp]
	call	?_Eos@?$basic_string@DU?$char_traits@D@std@@V?$allocator@D@2@@std@@QAEXI@Z ; std::basic_string<char,std::char_traits<char>,std::allocator<char> >::_Eos
$LN2@assign:

; 1118 : 			}
; 1119 : 		return (*this);

	mov	eax, DWORD PTR _this$[ebp]
$LN7@assign:

; 1120 : 		}

	mov	esp, ebp
	pop	ebp
	ret	12					; 0000000cH
?assign@?$basic_string@DU?$char_traits@D@std@@V?$allocator@D@2@@std@@QAEAAV12@ABV12@II@Z ENDP ; std::basic_string<char,std::char_traits<char>,std::allocator<char> >::assign
_TEXT	ENDS
; Function compile flags: /Odtp
; File c:\program files (x86)\microsoft visual studio 11.0\vc\include\xstring
;	COMDAT ??0?$basic_string@DU?$char_traits@D@std@@V?$allocator@D@2@@std@@QAE@PBD@Z
_TEXT	SEGMENT
_this$ = -8						; size = 4
$T1 = -1						; size = 1
__Ptr$ = 8						; size = 4
??0?$basic_string@DU?$char_traits@D@std@@V?$allocator@D@2@@std@@QAE@PBD@Z PROC ; std::basic_string<char,std::char_traits<char>,std::allocator<char> >::basic_string<char,std::char_traits<char>,std::allocator<char> >, COMDAT
; _this$ = ecx

; 791  : 		{	// construct from [_Ptr, <null>)

	push	ebp
	mov	ebp, esp
	sub	esp, 8
	mov	DWORD PTR _this$[ebp], ecx
	lea	ecx, DWORD PTR $T1[ebp]
	call	??0?$allocator@D@std@@QAE@XZ		; std::allocator<char>::allocator<char>
	push	eax
	mov	ecx, DWORD PTR _this$[ebp]
	call	??0?$_String_alloc@$0A@U?$_String_base_types@DV?$allocator@D@std@@@std@@@std@@QAE@ABV?$allocator@D@1@@Z ; std::_String_alloc<0,std::_String_base_types<char,std::allocator<char> > >::_String_alloc<0,std::_String_base_types<char,std::allocator<char> > >

; 792  : 		_Tidy();

	push	0
	push	0
	mov	ecx, DWORD PTR _this$[ebp]
	call	?_Tidy@?$basic_string@DU?$char_traits@D@std@@V?$allocator@D@2@@std@@QAEX_NI@Z ; std::basic_string<char,std::char_traits<char>,std::allocator<char> >::_Tidy

; 793  : 		assign(_Ptr);

	mov	eax, DWORD PTR __Ptr$[ebp]
	push	eax
	mov	ecx, DWORD PTR _this$[ebp]
	call	?assign@?$basic_string@DU?$char_traits@D@std@@V?$allocator@D@2@@std@@QAEAAV12@PBD@Z ; std::basic_string<char,std::char_traits<char>,std::allocator<char> >::assign

; 794  : 		}

	mov	eax, DWORD PTR _this$[ebp]
	mov	esp, ebp
	pop	ebp
	ret	4
??0?$basic_string@DU?$char_traits@D@std@@V?$allocator@D@2@@std@@QAE@PBD@Z ENDP ; std::basic_string<char,std::char_traits<char>,std::allocator<char> >::basic_string<char,std::char_traits<char>,std::allocator<char> >
_TEXT	ENDS
; Function compile flags: /Odtp
; File c:\program files (x86)\microsoft visual studio 11.0\vc\include\xstring
;	COMDAT ?_Getal@?$_String_alloc@$0A@U?$_String_base_types@DV?$allocator@D@std@@@std@@@std@@QBE?AU?$_Wrap_alloc@V?$allocator@D@std@@@2@XZ
_TEXT	SEGMENT
_this$ = -4						; size = 4
___$ReturnUdt$ = 8					; size = 4
?_Getal@?$_String_alloc@$0A@U?$_String_base_types@DV?$allocator@D@std@@@std@@@std@@QBE?AU?$_Wrap_alloc@V?$allocator@D@std@@@2@XZ PROC ; std::_String_alloc<0,std::_String_base_types<char,std::allocator<char> > >::_Getal, COMDAT
; _this$ = ecx

; 688  : 		{	// get reference to allocator

	push	ebp
	mov	ebp, esp
	push	ecx
	mov	DWORD PTR _this$[ebp], ecx

; 689  : 		return (_Alty());

	mov	ecx, DWORD PTR ___$ReturnUdt$[ebp]
	call	??0?$_Wrap_alloc@V?$allocator@D@std@@@std@@QAE@XZ ; std::_Wrap_alloc<std::allocator<char> >::_Wrap_alloc<std::allocator<char> >
	mov	eax, DWORD PTR ___$ReturnUdt$[ebp]

; 690  : 		}

	mov	esp, ebp
	pop	ebp
	ret	4
?_Getal@?$_String_alloc@$0A@U?$_String_base_types@DV?$allocator@D@std@@@std@@@std@@QBE?AU?$_Wrap_alloc@V?$allocator@D@std@@@2@XZ ENDP ; std::_String_alloc<0,std::_String_base_types<char,std::allocator<char> > >::_Getal
_TEXT	ENDS
; Function compile flags: /Odtp
; File c:\program files (x86)\microsoft visual studio 11.0\vc\include\xstring
;	COMDAT ??0?$_String_alloc@$0A@U?$_String_base_types@DV?$allocator@D@std@@@std@@@std@@QAE@ABV?$allocator@D@1@@Z
_TEXT	SEGMENT
_this$ = -4						; size = 4
___formal$ = 8						; size = 4
??0?$_String_alloc@$0A@U?$_String_base_types@DV?$allocator@D@std@@@std@@@std@@QAE@ABV?$allocator@D@1@@Z PROC ; std::_String_alloc<0,std::_String_base_types<char,std::allocator<char> > >::_String_alloc<0,std::_String_base_types<char,std::allocator<char> > >, COMDAT
; _this$ = ecx

; 635  : 	_String_alloc(const _Alloc& = _Alloc())

	push	ebp
	mov	ebp, esp
	push	ecx
	mov	DWORD PTR _this$[ebp], ecx
	mov	ecx, DWORD PTR _this$[ebp]
	call	??0?$_String_val@U?$_Simple_types@D@std@@@std@@QAE@XZ ; std::_String_val<std::_Simple_types<char> >::_String_val<std::_Simple_types<char> >

; 636  : 		{	// construct allocator from _Al
; 637  : 		}

	mov	eax, DWORD PTR _this$[ebp]
	mov	esp, ebp
	pop	ebp
	ret	4
??0?$_String_alloc@$0A@U?$_String_base_types@DV?$allocator@D@std@@@std@@@std@@QAE@ABV?$allocator@D@1@@Z ENDP ; std::_String_alloc<0,std::_String_base_types<char,std::allocator<char> > >::_String_alloc<0,std::_String_base_types<char,std::allocator<char> > >
_TEXT	ENDS
; Function compile flags: /Odtp
; File c:\program files (x86)\microsoft visual studio 11.0\vc\include\xstring
;	COMDAT ?_Myptr@?$_String_val@U?$_Simple_types@D@std@@@std@@QBEPBDXZ
_TEXT	SEGMENT
tv72 = -8						; size = 4
_this$ = -4						; size = 4
?_Myptr@?$_String_val@U?$_Simple_types@D@std@@@std@@QBEPBDXZ PROC ; std::_String_val<std::_Simple_types<char> >::_Myptr, COMDAT
; _this$ = ecx

; 521  : 		{	// determine current pointer to buffer for nonmutable string

	push	ebp
	mov	ebp, esp
	sub	esp, 8
	mov	DWORD PTR _this$[ebp], ecx

; 522  : 		return (this->_BUF_SIZE <= this->_Myres
; 523  : 			? _STD addressof(*this->_Bx._Ptr)
; 524  : 			: this->_Bx._Buf);

	mov	eax, DWORD PTR _this$[ebp]
	cmp	DWORD PTR [eax+20], 16			; 00000010H
	jb	SHORT $LN3@Myptr
	mov	ecx, DWORD PTR _this$[ebp]
	mov	edx, DWORD PTR [ecx]
	push	edx
	call	??$addressof@D@std@@YAPADAAD@Z		; std::addressof<char>
	add	esp, 4
	mov	DWORD PTR tv72[ebp], eax
	jmp	SHORT $LN4@Myptr
$LN3@Myptr:
	mov	eax, DWORD PTR _this$[ebp]
	mov	DWORD PTR tv72[ebp], eax
$LN4@Myptr:
	mov	eax, DWORD PTR tv72[ebp]

; 525  : 		}

	mov	esp, ebp
	pop	ebp
	ret	0
?_Myptr@?$_String_val@U?$_Simple_types@D@std@@@std@@QBEPBDXZ ENDP ; std::_String_val<std::_Simple_types<char> >::_Myptr
_TEXT	ENDS
; Function compile flags: /Odtp
; File c:\program files (x86)\microsoft visual studio 11.0\vc\include\xstring
;	COMDAT ?_Myptr@?$_String_val@U?$_Simple_types@D@std@@@std@@QAEPADXZ
_TEXT	SEGMENT
tv72 = -8						; size = 4
_this$ = -4						; size = 4
?_Myptr@?$_String_val@U?$_Simple_types@D@std@@@std@@QAEPADXZ PROC ; std::_String_val<std::_Simple_types<char> >::_Myptr, COMDAT
; _this$ = ecx

; 514  : 		{	// determine current pointer to buffer for mutable string

	push	ebp
	mov	ebp, esp
	sub	esp, 8
	mov	DWORD PTR _this$[ebp], ecx

; 515  : 		return (this->_BUF_SIZE <= this->_Myres
; 516  : 			? _STD addressof(*this->_Bx._Ptr)
; 517  : 			: this->_Bx._Buf);

	mov	eax, DWORD PTR _this$[ebp]
	cmp	DWORD PTR [eax+20], 16			; 00000010H
	jb	SHORT $LN3@Myptr
	mov	ecx, DWORD PTR _this$[ebp]
	mov	edx, DWORD PTR [ecx]
	push	edx
	call	??$addressof@D@std@@YAPADAAD@Z		; std::addressof<char>
	add	esp, 4
	mov	DWORD PTR tv72[ebp], eax
	jmp	SHORT $LN4@Myptr
$LN3@Myptr:
	mov	eax, DWORD PTR _this$[ebp]
	mov	DWORD PTR tv72[ebp], eax
$LN4@Myptr:
	mov	eax, DWORD PTR tv72[ebp]

; 518  : 		}

	mov	esp, ebp
	pop	ebp
	ret	0
?_Myptr@?$_String_val@U?$_Simple_types@D@std@@@std@@QAEPADXZ ENDP ; std::_String_val<std::_Simple_types<char> >::_Myptr
_TEXT	ENDS
; Function compile flags: /Odtp
; File c:\program files (x86)\microsoft visual studio 11.0\vc\include\xstring
;	COMDAT ??0?$_String_val@U?$_Simple_types@D@std@@@std@@QAE@XZ
_TEXT	SEGMENT
_this$ = -4						; size = 4
??0?$_String_val@U?$_Simple_types@D@std@@@std@@QAE@XZ PROC ; std::_String_val<std::_Simple_types<char> >::_String_val<std::_Simple_types<char> >, COMDAT
; _this$ = ecx

; 496  : 	_String_val()

	push	ebp
	mov	ebp, esp
	push	ecx
	mov	DWORD PTR _this$[ebp], ecx

; 497  : 		{	// initialize values
; 498  : 		_Mysize = 0;

	mov	eax, DWORD PTR _this$[ebp]
	mov	DWORD PTR [eax+16], 0

; 499  : 		_Myres = 0;

	mov	ecx, DWORD PTR _this$[ebp]
	mov	DWORD PTR [ecx+20], 0

; 500  : 		}

	mov	eax, DWORD PTR _this$[ebp]
	mov	esp, ebp
	pop	ebp
	ret	0
??0?$_String_val@U?$_Simple_types@D@std@@@std@@QAE@XZ ENDP ; std::_String_val<std::_Simple_types<char> >::_String_val<std::_Simple_types<char> >
_TEXT	ENDS
; Function compile flags: /Odtp
; File c:\program files (x86)\microsoft visual studio 11.0\vc\include\xmemory0
;	COMDAT ?max_size@?$_Wrap_alloc@V?$allocator@D@std@@@std@@QBEIXZ
_TEXT	SEGMENT
_this$ = -4						; size = 4
?max_size@?$_Wrap_alloc@V?$allocator@D@std@@@std@@QBEIXZ PROC ; std::_Wrap_alloc<std::allocator<char> >::max_size, COMDAT
; _this$ = ecx

; 913  : 		{	// get maximum size

	push	ebp
	mov	ebp, esp
	push	ecx
	mov	DWORD PTR _this$[ebp], ecx

; 914  : 		return (_Mytraits::max_size(*this));

	mov	eax, DWORD PTR _this$[ebp]
	push	eax
	call	?max_size@?$allocator_traits@V?$allocator@D@std@@@std@@SAIABV?$allocator@D@2@@Z ; std::allocator_traits<std::allocator<char> >::max_size
	add	esp, 4

; 915  : 		}

	mov	esp, ebp
	pop	ebp
	ret	0
?max_size@?$_Wrap_alloc@V?$allocator@D@std@@@std@@QBEIXZ ENDP ; std::_Wrap_alloc<std::allocator<char> >::max_size
_TEXT	ENDS
; Function compile flags: /Odtp
; File c:\program files (x86)\microsoft visual studio 11.0\vc\include\xmemory0
;	COMDAT ?deallocate@?$_Wrap_alloc@V?$allocator@D@std@@@std@@QAEXPADI@Z
_TEXT	SEGMENT
_this$ = -4						; size = 4
__Ptr$ = 8						; size = 4
__Count$ = 12						; size = 4
?deallocate@?$_Wrap_alloc@V?$allocator@D@std@@@std@@QAEXPADI@Z PROC ; std::_Wrap_alloc<std::allocator<char> >::deallocate, COMDAT
; _this$ = ecx

; 886  : 		{	// deallocate object at _Ptr, ignore size

	push	ebp
	mov	ebp, esp
	push	ecx
	mov	DWORD PTR _this$[ebp], ecx

; 887  : 		_Mybase::deallocate(_Ptr, _Count);

	mov	eax, DWORD PTR __Count$[ebp]
	push	eax
	mov	ecx, DWORD PTR __Ptr$[ebp]
	push	ecx
	mov	ecx, DWORD PTR _this$[ebp]
	call	?deallocate@?$allocator@D@std@@QAEXPADI@Z ; std::allocator<char>::deallocate

; 888  : 		}

	mov	esp, ebp
	pop	ebp
	ret	8
?deallocate@?$_Wrap_alloc@V?$allocator@D@std@@@std@@QAEXPADI@Z ENDP ; std::_Wrap_alloc<std::allocator<char> >::deallocate
_TEXT	ENDS
; Function compile flags: /Odtp
; File c:\program files (x86)\microsoft visual studio 11.0\vc\include\xmemory0
;	COMDAT ?allocate@?$_Wrap_alloc@V?$allocator@D@std@@@std@@QAEPADI@Z
_TEXT	SEGMENT
_this$ = -4						; size = 4
__Count$ = 8						; size = 4
?allocate@?$_Wrap_alloc@V?$allocator@D@std@@@std@@QAEPADI@Z PROC ; std::_Wrap_alloc<std::allocator<char> >::allocate, COMDAT
; _this$ = ecx

; 875  : 		{	// allocate array of _Count elements

	push	ebp
	mov	ebp, esp
	push	ecx
	mov	DWORD PTR _this$[ebp], ecx

; 876  : 		return (_Mybase::allocate(_Count));

	mov	eax, DWORD PTR __Count$[ebp]
	push	eax
	mov	ecx, DWORD PTR _this$[ebp]
	call	?allocate@?$allocator@D@std@@QAEPADI@Z	; std::allocator<char>::allocate

; 877  : 		}

	mov	esp, ebp
	pop	ebp
	ret	4
?allocate@?$_Wrap_alloc@V?$allocator@D@std@@@std@@QAEPADI@Z ENDP ; std::_Wrap_alloc<std::allocator<char> >::allocate
_TEXT	ENDS
; Function compile flags: /Odtp
; File c:\program files (x86)\microsoft visual studio 11.0\vc\include\xmemory0
;	COMDAT ??0?$_Wrap_alloc@V?$allocator@D@std@@@std@@QAE@XZ
_TEXT	SEGMENT
_this$ = -4						; size = 4
??0?$_Wrap_alloc@V?$allocator@D@std@@@std@@QAE@XZ PROC	; std::_Wrap_alloc<std::allocator<char> >::_Wrap_alloc<std::allocator<char> >, COMDAT
; _this$ = ecx

; 830  : 		{	// construct default allocator (do nothing)

	push	ebp
	mov	ebp, esp
	push	ecx
	mov	DWORD PTR _this$[ebp], ecx
	mov	ecx, DWORD PTR _this$[ebp]
	call	??0?$allocator@D@std@@QAE@XZ		; std::allocator<char>::allocator<char>

; 831  : 		}

	mov	eax, DWORD PTR _this$[ebp]
	mov	esp, ebp
	pop	ebp
	ret	0
??0?$_Wrap_alloc@V?$allocator@D@std@@@std@@QAE@XZ ENDP	; std::_Wrap_alloc<std::allocator<char> >::_Wrap_alloc<std::allocator<char> >
_TEXT	ENDS
; Function compile flags: /Odtp
; File c:\program files (x86)\microsoft visual studio 11.0\vc\include\xmemory0
;	COMDAT ?max_size@?$allocator_traits@V?$allocator@D@std@@@std@@SAIABV?$allocator@D@2@@Z
_TEXT	SEGMENT
__Al$ = 8						; size = 4
?max_size@?$allocator_traits@V?$allocator@D@std@@@std@@SAIABV?$allocator@D@2@@Z PROC ; std::allocator_traits<std::allocator<char> >::max_size, COMDAT

; 761  : 		{	// get maximum size

	push	ebp
	mov	ebp, esp

; 762  : 		return (_Al.max_size());

	mov	ecx, DWORD PTR __Al$[ebp]
	call	?max_size@?$allocator@D@std@@QBEIXZ	; std::allocator<char>::max_size

; 763  : 		}

	pop	ebp
	ret	0
?max_size@?$allocator_traits@V?$allocator@D@std@@@std@@SAIABV?$allocator@D@2@@Z ENDP ; std::allocator_traits<std::allocator<char> >::max_size
_TEXT	ENDS
; Function compile flags: /Odtp
; File c:\program files (x86)\microsoft visual studio 11.0\vc\include\xmemory0
;	COMDAT ?max_size@?$allocator@D@std@@QBEIXZ
_TEXT	SEGMENT
_this$ = -4						; size = 4
?max_size@?$allocator@D@std@@QBEIXZ PROC		; std::allocator<char>::max_size, COMDAT
; _this$ = ecx

; 627  : 		{	// estimate maximum array size

	push	ebp
	mov	ebp, esp
	push	ecx
	mov	DWORD PTR _this$[ebp], ecx

; 628  : 		return ((size_t)(-1) / sizeof (_Ty));

	or	eax, -1

; 629  : 		}

	mov	esp, ebp
	pop	ebp
	ret	0
?max_size@?$allocator@D@std@@QBEIXZ ENDP		; std::allocator<char>::max_size
_TEXT	ENDS
; Function compile flags: /Odtp
; File c:\program files (x86)\microsoft visual studio 11.0\vc\include\xmemory0
;	COMDAT ?allocate@?$allocator@D@std@@QAEPADI@Z
_TEXT	SEGMENT
_this$ = -4						; size = 4
__Count$ = 8						; size = 4
?allocate@?$allocator@D@std@@QAEPADI@Z PROC		; std::allocator<char>::allocate, COMDAT
; _this$ = ecx

; 590  : 		{	// allocate array of _Count elements

	push	ebp
	mov	ebp, esp
	push	ecx
	mov	DWORD PTR _this$[ebp], ecx

; 591  : 		return (_Allocate(_Count, (pointer)0));

	push	0
	mov	eax, DWORD PTR __Count$[ebp]
	push	eax
	call	??$_Allocate@D@std@@YAPADIPAD@Z		; std::_Allocate<char>
	add	esp, 8

; 592  : 		}

	mov	esp, ebp
	pop	ebp
	ret	4
?allocate@?$allocator@D@std@@QAEPADI@Z ENDP		; std::allocator<char>::allocate
_TEXT	ENDS
; Function compile flags: /Odtp
; File c:\program files (x86)\microsoft visual studio 11.0\vc\include\xmemory0
;	COMDAT ?deallocate@?$allocator@D@std@@QAEXPADI@Z
_TEXT	SEGMENT
_this$ = -4						; size = 4
__Ptr$ = 8						; size = 4
___formal$ = 12						; size = 4
?deallocate@?$allocator@D@std@@QAEXPADI@Z PROC		; std::allocator<char>::deallocate, COMDAT
; _this$ = ecx

; 585  : 		{	// deallocate object at _Ptr, ignore size

	push	ebp
	mov	ebp, esp
	push	ecx
	mov	DWORD PTR _this$[ebp], ecx

; 586  : 		::operator delete(_Ptr);

	mov	eax, DWORD PTR __Ptr$[ebp]
	push	eax
	call	??3@YAXPAX@Z				; operator delete
	add	esp, 4

; 587  : 		}

	mov	esp, ebp
	pop	ebp
	ret	8
?deallocate@?$allocator@D@std@@QAEXPADI@Z ENDP		; std::allocator<char>::deallocate
_TEXT	ENDS
; Function compile flags: /Odtp
; File c:\program files (x86)\microsoft visual studio 11.0\vc\include\xmemory0
;	COMDAT ??0?$allocator@D@std@@QAE@XZ
_TEXT	SEGMENT
_this$ = -4						; size = 4
??0?$allocator@D@std@@QAE@XZ PROC			; std::allocator<char>::allocator<char>, COMDAT
; _this$ = ecx

; 565  : 	allocator() _THROW0()

	push	ebp
	mov	ebp, esp
	push	ecx
	mov	DWORD PTR _this$[ebp], ecx

; 566  : 		{	// construct default allocator (do nothing)
; 567  : 		}

	mov	eax, DWORD PTR _this$[ebp]
	mov	esp, ebp
	pop	ebp
	ret	0
??0?$allocator@D@std@@QAE@XZ ENDP			; std::allocator<char>::allocator<char>
_TEXT	ENDS
; Function compile flags: /Odtp
; File c:\program files (x86)\microsoft visual studio 11.0\vc\include\xutility
;	COMDAT ??__Eallocator_arg@std@@YAXXZ
text$yc	SEGMENT
$T1 = -1						; size = 1
??__Eallocator_arg@std@@YAXXZ PROC			; std::`dynamic initializer for 'allocator_arg'', COMDAT

; 3644 : const allocator_arg_t allocator_arg = allocator_arg_t();

	push	ebp
	mov	ebp, esp
	push	ecx
	xor	eax, eax
	mov	BYTE PTR $T1[ebp], al
	mov	esp, ebp
	pop	ebp
	ret	0
??__Eallocator_arg@std@@YAXXZ ENDP			; std::`dynamic initializer for 'allocator_arg''
text$yc	ENDS
; Function compile flags: /Odtp
; File c:\program files (x86)\microsoft visual studio 11.0\vc\include\utility
;	COMDAT ??__Epiecewise_construct@std@@YAXXZ
text$yc	SEGMENT
$T1 = -1						; size = 1
??__Epiecewise_construct@std@@YAXXZ PROC		; std::`dynamic initializer for 'piecewise_construct'', COMDAT

; 65   : 	piecewise_construct_t();

	push	ebp
	mov	ebp, esp
	push	ecx
	xor	eax, eax
	mov	BYTE PTR $T1[ebp], al
	mov	esp, ebp
	pop	ebp
	ret	0
??__Epiecewise_construct@std@@YAXXZ ENDP		; std::`dynamic initializer for 'piecewise_construct''
text$yc	ENDS
; Function compile flags: /Odtp
; File c:\program files (x86)\microsoft visual studio 11.0\vc\include\iosfwd
;	COMDAT ?assign@?$char_traits@D@std@@SAXAADABD@Z
_TEXT	SEGMENT
__Left$ = 8						; size = 4
__Right$ = 12						; size = 4
?assign@?$char_traits@D@std@@SAXAADABD@Z PROC		; std::char_traits<char>::assign, COMDAT

; 563  : 		{	// assign an element

	push	ebp
	mov	ebp, esp

; 564  : 		_Left = _Right;

	mov	eax, DWORD PTR __Left$[ebp]
	mov	ecx, DWORD PTR __Right$[ebp]
	mov	dl, BYTE PTR [ecx]
	mov	BYTE PTR [eax], dl

; 565  : 		}

	pop	ebp
	ret	0
?assign@?$char_traits@D@std@@SAXAADABD@Z ENDP		; std::char_traits<char>::assign
_TEXT	ENDS
; Function compile flags: /Odtp
; File c:\program files (x86)\microsoft visual studio 11.0\vc\include\iosfwd
;	COMDAT ?move@?$char_traits@D@std@@SAPADPADPBDI@Z
_TEXT	SEGMENT
tv69 = -4						; size = 4
__First1$ = 8						; size = 4
__First2$ = 12						; size = 4
__Count$ = 16						; size = 4
?move@?$char_traits@D@std@@SAPADPADPBDI@Z PROC		; std::char_traits<char>::move, COMDAT

; 551  : 		{	// copy [_First2, _First2 + _Count) to [_First1, ...)

	push	ebp
	mov	ebp, esp
	push	ecx

; 552  : 		return (_Count == 0 ? _First1
; 553  : 			: (_Elem *)_CSTD memmove(_First1, _First2, _Count));

	cmp	DWORD PTR __Count$[ebp], 0
	jne	SHORT $LN3@move
	mov	eax, DWORD PTR __First1$[ebp]
	mov	DWORD PTR tv69[ebp], eax
	jmp	SHORT $LN4@move
$LN3@move:
	mov	ecx, DWORD PTR __Count$[ebp]
	push	ecx
	mov	edx, DWORD PTR __First2$[ebp]
	push	edx
	mov	eax, DWORD PTR __First1$[ebp]
	push	eax
	call	_memmove
	add	esp, 12					; 0000000cH
	mov	DWORD PTR tv69[ebp], eax
$LN4@move:
	mov	eax, DWORD PTR tv69[ebp]

; 554  : 		}

	mov	esp, ebp
	pop	ebp
	ret	0
?move@?$char_traits@D@std@@SAPADPADPBDI@Z ENDP		; std::char_traits<char>::move
_TEXT	ENDS
; Function compile flags: /Odtp
; File c:\program files (x86)\microsoft visual studio 11.0\vc\include\iosfwd
;	COMDAT ?copy@?$char_traits@D@std@@SAPADPADPBDI@Z
_TEXT	SEGMENT
tv69 = -4						; size = 4
__First1$ = 8						; size = 4
__First2$ = 12						; size = 4
__Count$ = 16						; size = 4
?copy@?$char_traits@D@std@@SAPADPADPBDI@Z PROC		; std::char_traits<char>::copy, COMDAT

; 528  : 		{	// copy [_First2, _First2 + _Count) to [_First1, ...)

	push	ebp
	mov	ebp, esp
	push	ecx

; 529  : 		return (_Count == 0 ? _First1
; 530  : 			: (_Elem *)_CSTD memcpy(_First1, _First2, _Count));

	cmp	DWORD PTR __Count$[ebp], 0
	jne	SHORT $LN3@copy
	mov	eax, DWORD PTR __First1$[ebp]
	mov	DWORD PTR tv69[ebp], eax
	jmp	SHORT $LN4@copy
$LN3@copy:
	mov	ecx, DWORD PTR __Count$[ebp]
	push	ecx
	mov	edx, DWORD PTR __First2$[ebp]
	push	edx
	mov	eax, DWORD PTR __First1$[ebp]
	push	eax
	call	_memcpy
	add	esp, 12					; 0000000cH
	mov	DWORD PTR tv69[ebp], eax
$LN4@copy:
	mov	eax, DWORD PTR tv69[ebp]

; 531  : 		}

	mov	esp, ebp
	pop	ebp
	ret	0
?copy@?$char_traits@D@std@@SAPADPADPBDI@Z ENDP		; std::char_traits<char>::copy
_TEXT	ENDS
; Function compile flags: /Odtp
; File c:\program files (x86)\microsoft visual studio 11.0\vc\include\iosfwd
;	COMDAT ?length@?$char_traits@D@std@@SAIPBD@Z
_TEXT	SEGMENT
tv68 = -4						; size = 4
__First$ = 8						; size = 4
?length@?$char_traits@D@std@@SAIPBD@Z PROC		; std::char_traits<char>::length, COMDAT

; 521  : 		{	// find length of null-terminated string

	push	ebp
	mov	ebp, esp
	push	ecx

; 522  : 		return (*_First == 0 ? 0
; 523  : 			: _CSTD strlen(_First));

	mov	eax, DWORD PTR __First$[ebp]
	movsx	ecx, BYTE PTR [eax]
	test	ecx, ecx
	jne	SHORT $LN3@length
	mov	DWORD PTR tv68[ebp], 0
	jmp	SHORT $LN4@length
$LN3@length:
	mov	edx, DWORD PTR __First$[ebp]
	push	edx
	call	_strlen
	add	esp, 4
	mov	DWORD PTR tv68[ebp], eax
$LN4@length:
	mov	eax, DWORD PTR tv68[ebp]

; 524  : 		}

	mov	esp, ebp
	pop	ebp
	ret	0
?length@?$char_traits@D@std@@SAIPBD@Z ENDP		; std::char_traits<char>::length
_TEXT	ENDS
; Function compile flags: /Odtp
; File c:\program files (x86)\microsoft visual studio 11.0\vc\include\new
;	COMDAT ??3@YAXPAX0@Z
_TEXT	SEGMENT
___formal$ = 8						; size = 4
___formal$ = 12						; size = 4
??3@YAXPAX0@Z PROC					; operator delete, COMDAT

; 64   : 	{	// delete if placement new fails

	push	ebp
	mov	ebp, esp

; 65   : 	}

	pop	ebp
	ret	0
??3@YAXPAX0@Z ENDP					; operator delete
_TEXT	ENDS
; Function compile flags: /Odtp
; File c:\program files (x86)\microsoft visual studio 11.0\vc\include\new
;	COMDAT ??2@YAPAXIPAX@Z
_TEXT	SEGMENT
___formal$ = 8						; size = 4
__Where$ = 12						; size = 4
??2@YAPAXIPAX@Z PROC					; operator new, COMDAT

; 59   : 	{	// construct array with placement at _Where

	push	ebp
	mov	ebp, esp

; 60   : 	return (_Where);

	mov	eax, DWORD PTR __Where$[ebp]

; 61   : 	}

	pop	ebp
	ret	0
??2@YAPAXIPAX@Z ENDP					; operator new
_TEXT	ENDS
; Function compile flags: /Odtp
; File c:\users\zhitao li\documents\visual studio 2012\projects\freefalcon\mathlib\math.h
_TEXT	SEGMENT
_x$ = 8							; size = 4
?FloatToInt32@@YAHM@Z PROC				; FloatToInt32

; 179  : {

	push	ebp
	mov	ebp, esp

; 180  : #if WIN32
; 181  :   __asm {
; 182  :     fld dword ptr [x];

	fld	DWORD PTR _x$[ebp]

; 183  :     fistp dword ptr [x];

	fistp	DWORD PTR _x$[ebp]

; 184  :     mov eax,dword ptr [x];

	mov	eax, DWORD PTR _x$[ebp]

; 185  :   }
; 186  : #else 
; 187  : 	return static_cast<int>(x);	
; 188  : #endif
; 189  : }

	pop	ebp
	ret	0
?FloatToInt32@@YAHM@Z ENDP				; FloatToInt32
_TEXT	ENDS
; Function compile flags: /Odtp
; File c:\program files (x86)\microsoft visual studio 11.0\vc\include\math.h
;	COMDAT ?sin@@YAMM@Z
_TEXT	SEGMENT
__X$ = 8						; size = 4
?sin@@YAMM@Z PROC					; sin, COMDAT

; 537  :         {return (sinf(_X)); }

	push	ebp
	mov	ebp, esp
	push	ecx
	movss	xmm0, DWORD PTR __X$[ebp]
	movss	DWORD PTR [esp], xmm0
	call	_sinf
	add	esp, 4
	pop	ebp
	ret	0
?sin@@YAMM@Z ENDP					; sin
_TEXT	ENDS
; Function compile flags: /Odtp
; File c:\program files (x86)\microsoft visual studio 11.0\vc\include\math.h
;	COMDAT ?cos@@YAMM@Z
_TEXT	SEGMENT
__X$ = 8						; size = 4
?cos@@YAMM@Z PROC					; cos, COMDAT

; 511  :         {return (cosf(_X)); }

	push	ebp
	mov	ebp, esp
	push	ecx
	movss	xmm0, DWORD PTR __X$[ebp]
	movss	DWORD PTR [esp], xmm0
	call	_cosf
	add	esp, 4
	pop	ebp
	ret	0
?cos@@YAMM@Z ENDP					; cos
_TEXT	ENDS
; Function compile flags: /Odtp
; File c:\program files (x86)\microsoft visual studio 11.0\vc\include\math.h
;	COMDAT _sinf
_TEXT	SEGMENT
tv74 = -12						; size = 8
tv76 = -4						; size = 4
__X$ = 8						; size = 4
_sinf	PROC						; COMDAT

; 430  :         {return ((float)sin((double)_X)); }

	push	ebp
	mov	ebp, esp
	sub	esp, 12					; 0000000cH
	cvtss2sd xmm0, DWORD PTR __X$[ebp]
	sub	esp, 8
	movsd	QWORD PTR [esp], xmm0
	call	_sin
	add	esp, 8
	fstp	QWORD PTR tv74[ebp]
	movsd	xmm0, QWORD PTR tv74[ebp]
	cvtsd2ss xmm0, xmm0
	movss	DWORD PTR tv76[ebp], xmm0
	fld	DWORD PTR tv76[ebp]
	mov	esp, ebp
	pop	ebp
	ret	0
_sinf	ENDP
_TEXT	ENDS
; Function compile flags: /Odtp
; File c:\program files (x86)\microsoft visual studio 11.0\vc\include\math.h
;	COMDAT _cosf
_TEXT	SEGMENT
tv74 = -12						; size = 8
tv76 = -4						; size = 4
__X$ = 8						; size = 4
_cosf	PROC						; COMDAT

; 410  :         {return ((float)cos((double)_X)); }

	push	ebp
	mov	ebp, esp
	sub	esp, 12					; 0000000cH
	cvtss2sd xmm0, DWORD PTR __X$[ebp]
	sub	esp, 8
	movsd	QWORD PTR [esp], xmm0
	call	_cos
	add	esp, 8
	fstp	QWORD PTR tv74[ebp]
	movsd	xmm0, QWORD PTR tv74[ebp]
	cvtsd2ss xmm0, xmm0
	movss	DWORD PTR tv76[ebp], xmm0
	fld	DWORD PTR tv76[ebp]
	mov	esp, ebp
	pop	ebp
	ret	0
_cosf	ENDP
_TEXT	ENDS
END
